---
triple:          'x86_64-apple-darwin'
binary-path:     "/Users/justinlanouette/Chaos/ChaöS-Token/hello_world/target/release/deps/libserde_derive-089ce0fb0f0ea5c1.dylib"
relocations:
  - { offsetInCU: 0x1E, offset: 0x1E, size: 0x8, addend: 0x0, symName: '__ZN45_$LT$$LP$$RP$$u20$as$u20$core..fmt..Debug$GT$3fmt17h91116db712cf64f3E', symObjAddr: 0x0, symBinAddr: 0x38E0, symSize: 0x20 }
  - { offsetInCU: 0x25E, offset: 0x25E, size: 0x8, addend: 0x0, symName: '__ZN58_$LT$alloc..string..String$u20$as$u20$core..fmt..Write$GT$10write_char17h04bc467bd68a934bE', symObjAddr: 0x92D0, symBinAddr: 0xCAF0, symSize: 0x140 }
  - { offsetInCU: 0x663, offset: 0x663, size: 0x8, addend: 0x0, symName: '__ZN58_$LT$alloc..string..String$u20$as$u20$core..fmt..Write$GT$9write_str17h46a93205c3443fbaE', symObjAddr: 0x9410, symBinAddr: 0xCC30, symSize: 0x60 }
  - { offsetInCU: 0x8C6, offset: 0x8C6, size: 0x8, addend: 0x0, symName: '__ZN60_$LT$alloc..string..String$u20$as$u20$core..fmt..Display$GT$3fmt17h0d0eb46f3054e2dfE', symObjAddr: 0x9470, symBinAddr: 0xCC90, symSize: 0x20 }
  - { offsetInCU: 0x5740, offset: 0x5740, size: 0x8, addend: 0x0, symName: '__ZN4core3ptr100drop_in_place$LT$core..option..Option$LT$alloc..boxed..Box$LT$syn..path..GenericArgument$GT$$GT$$GT$17h3c47f80d40da4ae4E', symObjAddr: 0xCF0, symBinAddr: 0x4510, symSize: 0x50 }
  - { offsetInCU: 0x5A62, offset: 0x5A62, size: 0x8, addend: 0x0, symName: '__ZN4core3ptr100drop_in_place$LT$syn..punctuated..Punctuated$LT$syn..path..PathSegment$C$syn..token..PathSep$GT$$GT$17hd34064dc93b0b427E', symObjAddr: 0xD40, symBinAddr: 0x4560, symSize: 0x270 }
  - { offsetInCU: 0x6405, offset: 0x6405, size: 0x8, addend: 0x0, symName: '__ZN4core3ptr101drop_in_place$LT$core..option..Option$LT$alloc..boxed..Box$LT$syn..generics..GenericParam$GT$$GT$$GT$17h588117414ebf0027E', symObjAddr: 0xFB0, symBinAddr: 0x47D0, symSize: 0x50 }
  - { offsetInCU: 0x65B3, offset: 0x65B3, size: 0x8, addend: 0x0, symName: '__ZN4core3ptr101drop_in_place$LT$core..option..Option$LT$alloc..vec..Vec$LT$syn..generics..WherePredicate$GT$$GT$$GT$17ha20f1622680c30deE', symObjAddr: 0x1000, symBinAddr: 0x4820, symSize: 0xD0 }
  - { offsetInCU: 0x692B, offset: 0x692B, size: 0x8, addend: 0x0, symName: '__ZN4core3ptr103drop_in_place$LT$core..option..Option$LT$alloc..boxed..Box$LT$syn..generics..TypeParamBound$GT$$GT$$GT$17hb98e913f9a9fba75E', symObjAddr: 0x10D0, symBinAddr: 0x48F0, symSize: 0xD0 }
  - { offsetInCU: 0x6C7B, offset: 0x6C7B, size: 0x8, addend: 0x0, symName: '__ZN4core3ptr103drop_in_place$LT$core..option..Option$LT$alloc..boxed..Box$LT$syn..generics..WherePredicate$GT$$GT$$GT$17ha8f5afb6495c5336E', symObjAddr: 0x11A0, symBinAddr: 0x49C0, symSize: 0xD0 }
  - { offsetInCU: 0x6FD1, offset: 0x6FD1, size: 0x8, addend: 0x0, symName: '__ZN4core3ptr103drop_in_place$LT$syn..punctuated..Punctuated$LT$syn..generics..GenericParam$C$syn..token..Comma$GT$$GT$17h706e4b03aaf6cee1E', symObjAddr: 0x1270, symBinAddr: 0x4A90, symSize: 0xC0 }
  - { offsetInCU: 0x7445, offset: 0x7445, size: 0x8, addend: 0x0, symName: '__ZN4core3ptr104drop_in_place$LT$syn..punctuated..Punctuated$LT$syn..generics..TypeParamBound$C$syn..token..Plus$GT$$GT$17h913c045198e2e1fdE', symObjAddr: 0x1330, symBinAddr: 0x4B50, symSize: 0x2C0 }
  - { offsetInCU: 0x807B, offset: 0x807B, size: 0x8, addend: 0x0, symName: '__ZN4core3ptr112drop_in_place$LT$alloc..vec..Vec$LT$$LP$$RF$serde_derive..internals..ast..Field$C$proc_macro2..Ident$RP$$GT$$GT$17h441731175e2d345aE', symObjAddr: 0x15F0, symBinAddr: 0x4E10, symSize: 0x90 }
  - { offsetInCU: 0x838B, offset: 0x838B, size: 0x8, addend: 0x0, symName: '__ZN4core3ptr116drop_in_place$LT$core..cell..RefCell$LT$core..option..Option$LT$alloc..vec..Vec$LT$syn..error..Error$GT$$GT$$GT$$GT$17h94421fe3ad5a4b05E', symObjAddr: 0x1680, symBinAddr: 0x4EA0, symSize: 0x110 }
  - { offsetInCU: 0x87D5, offset: 0x87D5, size: 0x8, addend: 0x0, symName: '__ZN4core3ptr155drop_in_place$LT$alloc..boxed..Box$LT$dyn$u20$core..iter..traits..iterator..Iterator$u2b$Item$u20$$u3d$$u20$$RF$serde_derive..internals..ast..Field$GT$$GT$17hf051a915e9cd3f38E', symObjAddr: 0x1790, symBinAddr: 0x4FB0, symSize: 0x70 }
  - { offsetInCU: 0x89ED, offset: 0x89ED, size: 0x8, addend: 0x0, symName: '__ZN4core3ptr156drop_in_place$LT$alloc..vec..Vec$LT$$LP$$RF$str$C$proc_macro2..Ident$C$$RF$alloc..collections..btree..set..BTreeSet$LT$alloc..string..String$GT$$RP$$GT$$GT$17hfa4f2974133cd866E', symObjAddr: 0x1800, symBinAddr: 0x5020, symSize: 0x90 }
  - { offsetInCU: 0x8C83, offset: 0x8C83, size: 0x8, addend: 0x0, symName: '__ZN4core3ptr34drop_in_place$LT$syn..lit..Lit$GT$17hab99994a68996a3fE', symObjAddr: 0x1890, symBinAddr: 0x50B0, symSize: 0x120 }
  - { offsetInCU: 0x9152, offset: 0x9152, size: 0x8, addend: 0x0, symName: '__ZN4core3ptr34drop_in_place$LT$syn..pat..Pat$GT$17h7d887fadf2c3cc6bE', symObjAddr: 0x19B0, symBinAddr: 0x51D0, symSize: 0x1090 }
  - { offsetInCU: 0xD152, offset: 0xD152, size: 0x8, addend: 0x0, symName: '__ZN4core3ptr34drop_in_place$LT$syn..ty..Type$GT$17h11a872b3c8e5eef5E', symObjAddr: 0x2A40, symBinAddr: 0x6260, symSize: 0x4F0 }
  - { offsetInCU: 0xE695, offset: 0xE695, size: 0x8, addend: 0x0, symName: '__ZN4core3ptr36drop_in_place$LT$syn..expr..Expr$GT$17h62bf30adc41c0fafE', symObjAddr: 0x2F30, symBinAddr: 0x6750, symSize: 0x27D0 }
  - { offsetInCU: 0x17DC9, offset: 0x17DC9, size: 0x8, addend: 0x0, symName: '__ZN4core3ptr36drop_in_place$LT$syn..mac..Macro$GT$17ha18d10f1233dedcaE', symObjAddr: 0x5700, symBinAddr: 0x8F20, symSize: 0x40 }
  - { offsetInCU: 0x17E03, offset: 0x17E03, size: 0x8, addend: 0x0, symName: '__ZN4core3ptr36drop_in_place$LT$syn..path..Path$GT$17hcca6c7d030660616E', symObjAddr: 0x5740, symBinAddr: 0x8F60, symSize: 0x240 }
  - { offsetInCU: 0x1879D, offset: 0x1879D, size: 0x8, addend: 0x0, symName: '__ZN4core3ptr37drop_in_place$LT$syn..stmt..Block$GT$17haed62ed48b69364dE', symObjAddr: 0x5980, symBinAddr: 0x91A0, symSize: 0xD0 }
  - { offsetInCU: 0x18A74, offset: 0x18A74, size: 0x8, addend: 0x0, symName: '__ZN4core3ptr38drop_in_place$LT$syn..expr..Member$GT$17h594f47e3350a2be5E', symObjAddr: 0x5A50, symBinAddr: 0x9270, symSize: 0x30 }
  - { offsetInCU: 0x18B70, offset: 0x18B70, size: 0x8, addend: 0x0, symName: '__ZN4core3ptr39drop_in_place$LT$proc_macro2..Ident$GT$17h007be8bd6a71491bE', symObjAddr: 0x5A80, symBinAddr: 0x92A0, symSize: 0x30 }
  - { offsetInCU: 0x18C4D, offset: 0x18C4D, size: 0x8, addend: 0x0, symName: '__ZN4core3ptr40drop_in_place$LT$syn..ty..ReturnType$GT$17h14f04ba862eb52f4E', symObjAddr: 0x5AB0, symBinAddr: 0x92D0, symSize: 0x50 }
  - { offsetInCU: 0x18DBD, offset: 0x18DBD, size: 0x8, addend: 0x0, symName: '__ZN4core3ptr41drop_in_place$LT$syn..expr..ExprConst$GT$17h011fcb0f1d3d0fbcE', symObjAddr: 0x5B00, symBinAddr: 0x9320, symSize: 0x180 }
  - { offsetInCU: 0x19376, offset: 0x19376, size: 0x8, addend: 0x0, symName: '__ZN4core3ptr42drop_in_place$LT$alloc..string..String$GT$17h74ff1bf250fa5c97E.llvm.12150690198291270030', symObjAddr: 0x5C80, symBinAddr: 0x94A0, symSize: 0x20 }
  - { offsetInCU: 0x1947E, offset: 0x1947E, size: 0x8, addend: 0x0, symName: '__ZN4core3ptr44drop_in_place$LT$syn..generics..Generics$GT$17he5ddc4e21d959fbdE', symObjAddr: 0x5CA0, symBinAddr: 0x94C0, symSize: 0x40 }
  - { offsetInCU: 0x1949B, offset: 0x1949B, size: 0x8, addend: 0x0, symName: '__ZN4core3ptr44drop_in_place$LT$syn..lifetime..Lifetime$GT$17h81f5c412fc4e75a1E', symObjAddr: 0x5CE0, symBinAddr: 0x9500, symSize: 0x30 }
  - { offsetInCU: 0x196CD, offset: 0x196CD, size: 0x8, addend: 0x0, symName: '__ZN4core3ptr45drop_in_place$LT$proc_macro2..TokenStream$GT$17h725968a5788a0c43E.llvm.12150690198291270030', symObjAddr: 0x5D10, symBinAddr: 0x9530, symSize: 0x140 }
  - { offsetInCU: 0x19B86, offset: 0x19B86, size: 0x8, addend: 0x0, symName: '__ZN4core3ptr47drop_in_place$LT$syn..path..GenericArgument$GT$17ha0f8621278069bfaE', symObjAddr: 0x5E50, symBinAddr: 0x9670, symSize: 0x4A0 }
  - { offsetInCU: 0x1AD08, offset: 0x1AD08, size: 0x8, addend: 0x0, symName: '__ZN4core3ptr48drop_in_place$LT$syn..generics..GenericParam$GT$17hb7b691eed8b37306E', symObjAddr: 0x62F0, symBinAddr: 0x9B10, symSize: 0x2C0 }
  - { offsetInCU: 0x1B570, offset: 0x1B570, size: 0x8, addend: 0x0, symName: '__ZN4core3ptr49drop_in_place$LT$serde_derive..de..Parameters$GT$17ha144ad66be913141E', symObjAddr: 0x65B0, symBinAddr: 0x9DD0, symSize: 0x180 }
  - { offsetInCU: 0x1BA4C, offset: 0x1BA4C, size: 0x8, addend: 0x0, symName: '__ZN4core3ptr49drop_in_place$LT$syn..generics..LifetimeParam$GT$17hd8de96c71b63fc49E', symObjAddr: 0x6730, symBinAddr: 0x9F50, symSize: 0xF0 }
  - { offsetInCU: 0x1BEAB, offset: 0x1BEAB, size: 0x8, addend: 0x0, symName: '__ZN4core3ptr55drop_in_place$LT$serde_derive..internals..ast..Data$GT$17h7977b1b4799a1e20E', symObjAddr: 0x6820, symBinAddr: 0xA040, symSize: 0x150 }
  - { offsetInCU: 0x1C4D8, offset: 0x1C4D8, size: 0x8, addend: 0x0, symName: '__ZN4core3ptr56drop_in_place$LT$serde_derive..internals..ctxt..Ctxt$GT$17h0cdcca7437be666dE', symObjAddr: 0x6970, symBinAddr: 0xA190, symSize: 0x190 }
  - { offsetInCU: 0x1CAA0, offset: 0x1CAA0, size: 0x8, addend: 0x0, symName: '__ZN4core3ptr58drop_in_place$LT$alloc..vec..Vec$LT$syn..expr..Arm$GT$$GT$17ha6d87cf8cb2f8625E', symObjAddr: 0x6B00, symBinAddr: 0xA320, symSize: 0xD0 }
  - { offsetInCU: 0x1CD60, offset: 0x1CD60, size: 0x8, addend: 0x0, symName: '__ZN4core3ptr59drop_in_place$LT$alloc..boxed..Box$LT$syn..pat..Pat$GT$$GT$17h04b5a49dc338bf9cE', symObjAddr: 0x6BD0, symBinAddr: 0xA3F0, symSize: 0x50 }
  - { offsetInCU: 0x1CEB9, offset: 0x1CEB9, size: 0x8, addend: 0x0, symName: '__ZN4core3ptr59drop_in_place$LT$alloc..boxed..Box$LT$syn..ty..Type$GT$$GT$17hfb8a09f23f7902beE', symObjAddr: 0x6C20, symBinAddr: 0xA440, symSize: 0x50 }
  - { offsetInCU: 0x1D012, offset: 0x1D012, size: 0x8, addend: 0x0, symName: '__ZN4core3ptr59drop_in_place$LT$serde_derive..internals..attr..Default$GT$17h19ba3e5d3d4746e2E', symObjAddr: 0x6C70, symBinAddr: 0xA490, symSize: 0x150 }
  - { offsetInCU: 0x1D475, offset: 0x1D475, size: 0x8, addend: 0x0, symName: '__ZN4core3ptr59drop_in_place$LT$serde_derive..internals..attr..TagType$GT$17hf69892e87222ae2dE', symObjAddr: 0x6DC0, symBinAddr: 0xA5E0, symSize: 0x80 }
  - { offsetInCU: 0x1D687, offset: 0x1D687, size: 0x8, addend: 0x0, symName: '__ZN4core3ptr60drop_in_place$LT$serde_derive..internals..ast..Container$GT$17h210b7485b26ce471E', symObjAddr: 0x6E40, symBinAddr: 0xA660, symSize: 0x70 }
  - { offsetInCU: 0x1D785, offset: 0x1D785, size: 0x8, addend: 0x0, symName: '__ZN4core3ptr61drop_in_place$LT$alloc..boxed..Box$LT$syn..expr..Expr$GT$$GT$17hfe67d291b01d4939E', symObjAddr: 0x6EB0, symBinAddr: 0xA6D0, symSize: 0x50 }
  - { offsetInCU: 0x1D9B7, offset: 0x1D9B7, size: 0x8, addend: 0x0, symName: '__ZN4core3ptr61drop_in_place$LT$serde_derive..internals..attr..Container$GT$17hb6b85895755a2b57E', symObjAddr: 0x6F00, symBinAddr: 0xA720, symSize: 0x4A0 }
  - { offsetInCU: 0x1EA3A, offset: 0x1EA3A, size: 0x8, addend: 0x0, symName: '__ZN4core3ptr61drop_in_place$LT$syn..path..ParenthesizedGenericArguments$GT$17hc6164008a0f156caE', symObjAddr: 0x73A0, symBinAddr: 0xABC0, symSize: 0x170 }
  - { offsetInCU: 0x1F030, offset: 0x1F030, size: 0x8, addend: 0x0, symName: '__ZN4core3ptr62drop_in_place$LT$syn..path..AngleBracketedGenericArguments$GT$17h0299086782c6da12E', symObjAddr: 0x7510, symBinAddr: 0xAD30, symSize: 0x120 }
  - { offsetInCU: 0x1F47B, offset: 0x1F47B, size: 0x8, addend: 0x0, symName: '__ZN4core3ptr63drop_in_place$LT$alloc..boxed..Box$LT$syn..lit..LitRepr$GT$$GT$17hf2595df28a7ce13bE', symObjAddr: 0x7630, symBinAddr: 0xAE50, symSize: 0x60 }
  - { offsetInCU: 0x1F782, offset: 0x1F782, size: 0x8, addend: 0x0, symName: '__ZN4core3ptr64drop_in_place$LT$alloc..boxed..Box$LT$syn..pat..FieldPat$GT$$GT$17hb9cdd4a04c64745aE', symObjAddr: 0x7690, symBinAddr: 0xAEB0, symSize: 0x140 }
  - { offsetInCU: 0x1FE4F, offset: 0x1FE4F, size: 0x8, addend: 0x0, symName: '__ZN4core3ptr64drop_in_place$LT$alloc..boxed..Box$LT$syn..ty..BareFnArg$GT$$GT$17hdf9a99e9a3e43b93E', symObjAddr: 0x77D0, symBinAddr: 0xAFF0, symSize: 0x140 }
  - { offsetInCU: 0x203A4, offset: 0x203A4, size: 0x8, addend: 0x0, symName: '__ZN4core3ptr64drop_in_place$LT$alloc..vec..Vec$LT$syn..attr..Attribute$GT$$GT$17h39f71ed119168abdE', symObjAddr: 0x7910, symBinAddr: 0xB130, symSize: 0xD0 }
  - { offsetInCU: 0x20664, offset: 0x20664, size: 0x8, addend: 0x0, symName: '__ZN4core3ptr65drop_in_place$LT$alloc..vec..Vec$LT$proc_macro..TokenTree$GT$$GT$17h07ad17327f0607d0E.llvm.12150690198291270030', symObjAddr: 0x79E0, symBinAddr: 0xB200, symSize: 0x110 }
  - { offsetInCU: 0x20A5C, offset: 0x20A5C, size: 0x8, addend: 0x0, symName: '__ZN4core3ptr65drop_in_place$LT$core..option..Option$LT$syn..expr..Label$GT$$GT$17h7370f4cd7d051021E', symObjAddr: 0x7AF0, symBinAddr: 0xB310, symSize: 0x30 }
  - { offsetInCU: 0x20B96, offset: 0x20B96, size: 0x8, addend: 0x0, symName: '__ZN4core3ptr65drop_in_place$LT$core..option..Option$LT$syn..path..QSelf$GT$$GT$17h9bc6bd805f4b805bE', symObjAddr: 0x7B20, symBinAddr: 0xB340, symSize: 0x50 }
  - { offsetInCU: 0x20D17, offset: 0x20D17, size: 0x8, addend: 0x0, symName: '__ZN4core3ptr66drop_in_place$LT$core..option..Option$LT$syn..pat..PatRest$GT$$GT$17h56243b82155d1306E', symObjAddr: 0x7B70, symBinAddr: 0xB390, symSize: 0xE0 }
  - { offsetInCU: 0x2100B, offset: 0x2100B, size: 0x8, addend: 0x0, symName: '__ZN4core3ptr67drop_in_place$LT$alloc..boxed..Box$LT$syn..expr..FieldValue$GT$$GT$17hdb569e1e168cfcafE', symObjAddr: 0x7C50, symBinAddr: 0xB470, symSize: 0x140 }
  - { offsetInCU: 0x21540, offset: 0x21540, size: 0x8, addend: 0x0, symName: '__ZN4core3ptr68drop_in_place$LT$alloc..boxed..Box$LT$syn..path..PathSegment$GT$$GT$17h8bc236a2626e080dE', symObjAddr: 0x7D90, symBinAddr: 0xB5B0, symSize: 0x1B0 }
  - { offsetInCU: 0x21C4E, offset: 0x21C4E, size: 0x8, addend: 0x0, symName: '__ZN4core3ptr68drop_in_place$LT$alloc..vec..Vec$LT$proc_macro2..TokenStream$GT$$GT$17h89f8e818f58e8351E', symObjAddr: 0x7F40, symBinAddr: 0xB760, symSize: 0xC0 }
  - { offsetInCU: 0x21F2B, offset: 0x21F2B, size: 0x8, addend: 0x0, symName: '__ZN4core3ptr70drop_in_place$LT$core..option..Option$LT$syn..ty..BareVariadic$GT$$GT$17h891315fdf14c9598E', symObjAddr: 0x8000, symBinAddr: 0xB820, symSize: 0x100 }
  - { offsetInCU: 0x22381, offset: 0x22381, size: 0x8, addend: 0x0, symName: '__ZN4core3ptr72drop_in_place$LT$alloc..boxed..Box$LT$syn..path..GenericArgument$GT$$GT$17ha22f3de00ed22d7dE', symObjAddr: 0x8100, symBinAddr: 0xB920, symSize: 0x270 }
  - { offsetInCU: 0x22BD5, offset: 0x22BD5, size: 0x8, addend: 0x0, symName: '__ZN4core3ptr72drop_in_place$LT$core..option..Option$LT$syn..lifetime..Lifetime$GT$$GT$17h738a5902efee9f55E', symObjAddr: 0x8370, symBinAddr: 0xBB90, symSize: 0x30 }
  - { offsetInCU: 0x22CF0, offset: 0x22CF0, size: 0x8, addend: 0x0, symName: '__ZN4core3ptr73drop_in_place$LT$alloc..boxed..Box$LT$syn..generics..GenericParam$GT$$GT$17h4a82c3bd6b9e6f81E', symObjAddr: 0x83A0, symBinAddr: 0xBBC0, symSize: 0x50 }
  - { offsetInCU: 0x22E49, offset: 0x22E49, size: 0x8, addend: 0x0, symName: '__ZN4core3ptr75drop_in_place$LT$alloc..boxed..Box$LT$syn..generics..TypeParamBound$GT$$GT$17h47c0b9686bcdda20E', symObjAddr: 0x83F0, symBinAddr: 0xBC10, symSize: 0x210 }
  - { offsetInCU: 0x237EE, offset: 0x237EE, size: 0x8, addend: 0x0, symName: '__ZN4core3ptr75drop_in_place$LT$core..option..Option$LT$syn..generics..WhereClause$GT$$GT$17ha14a8b033395cd67E', symObjAddr: 0x8600, symBinAddr: 0xBE20, symSize: 0x100 }
  - { offsetInCU: 0x23BA5, offset: 0x23BA5, size: 0x8, addend: 0x0, symName: '__ZN4core3ptr86drop_in_place$LT$syn..punctuated..Punctuated$LT$syn..pat..Pat$C$syn..token..Or$GT$$GT$17h028803b51a0e008cE', symObjAddr: 0x8700, symBinAddr: 0xBF20, symSize: 0x120 }
  - { offsetInCU: 0x24020, offset: 0x24020, size: 0x8, addend: 0x0, symName: '__ZN4core3ptr87drop_in_place$LT$core..option..Option$LT$alloc..boxed..Box$LT$syn..pat..Pat$GT$$GT$$GT$17h47e4534cb825f5fbE', symObjAddr: 0x8820, symBinAddr: 0xC040, symSize: 0x50 }
  - { offsetInCU: 0x24190, offset: 0x24190, size: 0x8, addend: 0x0, symName: '__ZN4core3ptr87drop_in_place$LT$core..option..Option$LT$alloc..boxed..Box$LT$syn..ty..Type$GT$$GT$$GT$17hb21c4c429b95d768E', symObjAddr: 0x8870, symBinAddr: 0xC090, symSize: 0x50 }
  - { offsetInCU: 0x24300, offset: 0x24300, size: 0x8, addend: 0x0, symName: '__ZN4core3ptr89drop_in_place$LT$core..option..Option$LT$alloc..boxed..Box$LT$syn..expr..Expr$GT$$GT$$GT$17h0b10c8a8945d61ceE', symObjAddr: 0x88C0, symBinAddr: 0xC0E0, symSize: 0x50 }
  - { offsetInCU: 0x244AE, offset: 0x244AE, size: 0x8, addend: 0x0, symName: '__ZN4core3ptr89drop_in_place$LT$syn..punctuated..Punctuated$LT$syn..pat..Pat$C$syn..token..Comma$GT$$GT$17h0f70228e7daac378E', symObjAddr: 0x8910, symBinAddr: 0xC130, symSize: 0x120 }
  - { offsetInCU: 0x24940, offset: 0x24940, size: 0x8, addend: 0x0, symName: '__ZN4core3ptr89drop_in_place$LT$syn..punctuated..Punctuated$LT$syn..ty..Type$C$syn..token..Comma$GT$$GT$17h0317a8a9919e8789E', symObjAddr: 0x8A30, symBinAddr: 0xC250, symSize: 0x120 }
  - { offsetInCU: 0x24DBB, offset: 0x24DBB, size: 0x8, addend: 0x0, symName: '__ZN4core3ptr90drop_in_place$LT$core..option..Option$LT$syn..path..AngleBracketedGenericArguments$GT$$GT$17h9646b437ffecef94E', symObjAddr: 0x8B50, symBinAddr: 0xC370, symSize: 0x130 }
  - { offsetInCU: 0x2525D, offset: 0x2525D, size: 0x8, addend: 0x0, symName: '__ZN4core3ptr91drop_in_place$LT$syn..punctuated..Punctuated$LT$syn..expr..Expr$C$syn..token..Comma$GT$$GT$17hd3047ab334148524E', symObjAddr: 0x8C80, symBinAddr: 0xC4A0, symSize: 0x120 }
  - { offsetInCU: 0x256EB, offset: 0x256EB, size: 0x8, addend: 0x0, symName: '__ZN4core3ptr94drop_in_place$LT$syn..punctuated..Punctuated$LT$syn..pat..FieldPat$C$syn..token..Comma$GT$$GT$17h7ace9efb18f43d12E', symObjAddr: 0x8DA0, symBinAddr: 0xC5C0, symSize: 0xF0 }
  - { offsetInCU: 0x259EA, offset: 0x259EA, size: 0x8, addend: 0x0, symName: '__ZN4core3ptr94drop_in_place$LT$syn..punctuated..Punctuated$LT$syn..ty..BareFnArg$C$syn..token..Comma$GT$$GT$17hb29c6edaabe01c76E', symObjAddr: 0x8E90, symBinAddr: 0xC6B0, symSize: 0xF0 }
  - { offsetInCU: 0x25CEB, offset: 0x25CEB, size: 0x8, addend: 0x0, symName: '__ZN4core3ptr96drop_in_place$LT$core..option..Option$LT$alloc..boxed..Box$LT$syn..path..PathSegment$GT$$GT$$GT$17hd919256ec958e698E', symObjAddr: 0x8F80, symBinAddr: 0xC7A0, symSize: 0xA0 }
  - { offsetInCU: 0x25F6A, offset: 0x25F6A, size: 0x8, addend: 0x0, symName: '__ZN4core3ptr97drop_in_place$LT$syn..punctuated..Punctuated$LT$syn..expr..FieldValue$C$syn..token..Comma$GT$$GT$17he241ea7a3c55d267E', symObjAddr: 0x9020, symBinAddr: 0xC840, symSize: 0xF0 }
  - { offsetInCU: 0x26267, offset: 0x26267, size: 0x8, addend: 0x0, symName: '__ZN4core3ptr98drop_in_place$LT$alloc..vec..Vec$LT$$LP$syn..path..GenericArgument$C$syn..token..Comma$RP$$GT$$GT$17ha96f98c42a71b3f5E', symObjAddr: 0x9110, symBinAddr: 0xC930, symSize: 0xD0 }
  - { offsetInCU: 0x265A7, offset: 0x265A7, size: 0x8, addend: 0x0, symName: '__ZN4core3ptr98drop_in_place$LT$syn..punctuated..Punctuated$LT$syn..lifetime..Lifetime$C$syn..token..Plus$GT$$GT$17hb8f4279048db7792E', symObjAddr: 0x91E0, symBinAddr: 0xCA00, symSize: 0xD0 }
  - { offsetInCU: 0x27581, offset: 0x27581, size: 0x8, addend: 0x0, symName: '__ZN45_$LT$$LP$$RP$$u20$as$u20$core..fmt..Debug$GT$3fmt17h91116db712cf64f3E', symObjAddr: 0x0, symBinAddr: 0x38E0, symSize: 0x20 }
  - { offsetInCU: 0x275C2, offset: 0x275C2, size: 0x8, addend: 0x0, symName: '__ZN53_$LT$core..fmt..Error$u20$as$u20$core..fmt..Debug$GT$3fmt17h03dc662ab152f3aeE', symObjAddr: 0x92B0, symBinAddr: 0xCAD0, symSize: 0x20 }
  - { offsetInCU: 0x2B4A0, offset: 0x2B4A0, size: 0x8, addend: 0x0, symName: '__ZN4core3ops8function5impls79_$LT$impl$u20$core..ops..function..FnMut$LT$A$GT$$u20$for$u20$$RF$mut$u20$F$GT$8call_mut17h707407f38f478364E', symObjAddr: 0x20, symBinAddr: 0x3900, symSize: 0x5C0 }
  - { offsetInCU: 0x2BA48, offset: 0x2BA48, size: 0x8, addend: 0x0, symName: '__ZN4core3ops8function5impls80_$LT$impl$u20$core..ops..function..FnOnce$LT$A$GT$$u20$for$u20$$RF$mut$u20$F$GT$9call_once17h93a5d36df9f7a8dcE', symObjAddr: 0x620, symBinAddr: 0x3EC0, symSize: 0x1C0 }
  - { offsetInCU: 0x2BD4D, offset: 0x2BD4D, size: 0x8, addend: 0x0, symName: '__ZN4core3ops8function5impls80_$LT$impl$u20$core..ops..function..FnOnce$LT$A$GT$$u20$for$u20$$RF$mut$u20$F$GT$9call_once17ha619c7b85307adf5E', symObjAddr: 0x820, symBinAddr: 0x4080, symSize: 0x200 }
  - { offsetInCU: 0x2C09B, offset: 0x2C09B, size: 0x8, addend: 0x0, symName: '__ZN4core3ops8function5impls80_$LT$impl$u20$core..ops..function..FnOnce$LT$A$GT$$u20$for$u20$$RF$mut$u20$F$GT$9call_once17hea8ebf2b0378ccc3E', symObjAddr: 0xA20, symBinAddr: 0x4280, symSize: 0x290 }
  - { offsetInCU: 0x31A07, offset: 0x31A07, size: 0x8, addend: 0x0, symName: __ZN12serde_derive2de25expand_derive_deserialize17h01f6441ce7419ba8E, symObjAddr: 0x94D0, symBinAddr: 0xCCF0, symSize: 0x1D40 }
  - { offsetInCU: 0x3416E, offset: 0x3416E, size: 0x8, addend: 0x0, symName: __ZN12serde_derive2de23needs_deserialize_bound17h8cae11d3e29d3f16E, symObjAddr: 0xB330, symBinAddr: 0xEB50, symSize: 0x60 }
  - { offsetInCU: 0x34254, offset: 0x34254, size: 0x8, addend: 0x0, symName: __ZN12serde_derive2de16requires_default17h7757d47c534b52afE, symObjAddr: 0xB390, symBinAddr: 0xEBB0, symSize: 0x20 }
  - { offsetInCU: 0x342BD, offset: 0x342BD, size: 0x8, addend: 0x0, symName: __ZN12serde_derive2de18borrowed_lifetimes17hc49eeb06d1cb6803E, symObjAddr: 0xB5F0, symBinAddr: 0xEE10, symSize: 0x4E0 }
  - { offsetInCU: 0x35AAE, offset: 0x35AAE, size: 0x8, addend: 0x0, symName: '__ZN12serde_derive2de29deserialize_custom_identifier28_$u7b$$u7b$closure$u7d$$u7d$17h11200c8f07205249E', symObjAddr: 0x275C0, symBinAddr: 0x2ADE0, symSize: 0x320 }
  - { offsetInCU: 0x35D13, offset: 0x35D13, size: 0x8, addend: 0x0, symName: __ZN12serde_derive2de16deserialize_body17h7c0b320d67313cd3E, symObjAddr: 0xBAD0, symBinAddr: 0xF2F0, symSize: 0x32F0 }
  - { offsetInCU: 0x37F3C, offset: 0x37F3C, size: 0x8, addend: 0x0, symName: __ZN12serde_derive2de23deserialize_unit_struct17h317ac558e20d9a36E, symObjAddr: 0xEDC0, symBinAddr: 0x125E0, symSize: 0x10E0 }
  - { offsetInCU: 0x38E8B, offset: 0x38E8B, size: 0x8, addend: 0x0, symName: __ZN12serde_derive2de17deserialize_tuple17h7485928072a137a5E, symObjAddr: 0xFEA0, symBinAddr: 0x136C0, symSize: 0x2920 }
  - { offsetInCU: 0x3AC42, offset: 0x3AC42, size: 0x8, addend: 0x0, symName: __ZN12serde_derive2de15deserialize_seq17haa7c94de8f25fd8bE, symObjAddr: 0x127C0, symBinAddr: 0x15FE0, symSize: 0x2030 }
  - { offsetInCU: 0x3C504, offset: 0x3C504, size: 0x8, addend: 0x0, symName: __ZN12serde_derive2de18deserialize_struct17h39c4a14127883ebcE, symObjAddr: 0x147F0, symBinAddr: 0x18010, symSize: 0x3780 }
  - { offsetInCU: 0x3EC2D, offset: 0x3EC2D, size: 0x8, addend: 0x0, symName: __ZN12serde_derive2de28deserialize_homogeneous_enum17ha69354b648714c46E, symObjAddr: 0x17F70, symBinAddr: 0x1B790, symSize: 0x13E0 }
  - { offsetInCU: 0x403E7, offset: 0x403E7, size: 0x8, addend: 0x0, symName: __ZN12serde_derive2de25prepare_enum_variant_enum17he1b3972d7cf280c0E, symObjAddr: 0x19350, symBinAddr: 0x1CB70, symSize: 0x770 }
  - { offsetInCU: 0x41373, offset: 0x41373, size: 0x8, addend: 0x0, symName: __ZN12serde_derive2de34deserialize_externally_tagged_enum17hf7c8f31bf76968f5E, symObjAddr: 0x19AC0, symBinAddr: 0x1D2E0, symSize: 0x3060 }
  - { offsetInCU: 0x43030, offset: 0x43030, size: 0x8, addend: 0x0, symName: __ZN12serde_derive2de34deserialize_adjacently_tagged_enum17hf3ba3971cc71705dE, symObjAddr: 0x1CB20, symBinAddr: 0x20340, symSize: 0x78C0 }
  - { offsetInCU: 0x45B78, offset: 0x45B78, size: 0x8, addend: 0x0, symName: __ZN12serde_derive2de31deserialize_untagged_enum_after17hff8a3e01541e366eE, symObjAddr: 0x243E0, symBinAddr: 0x27C00, symSize: 0xF70 }
  - { offsetInCU: 0x46777, offset: 0x46777, size: 0x8, addend: 0x0, symName: __ZN12serde_derive2de28deserialize_untagged_variant17hdfb938610d5f7eccE.llvm.12150690198291270030, symObjAddr: 0x25350, symBinAddr: 0x28B70, symSize: 0xCB0 }
  - { offsetInCU: 0x47312, offset: 0x47312, size: 0x8, addend: 0x0, symName: __ZN12serde_derive2de36deserialize_untagged_newtype_variant17h653f506eb7991077E, symObjAddr: 0x26000, symBinAddr: 0x29820, symSize: 0x5F0 }
  - { offsetInCU: 0x4773D, offset: 0x4773D, size: 0x8, addend: 0x0, symName: __ZN12serde_derive2de32deserialize_generated_identifier17hc4c8bf98fb79bf53E, symObjAddr: 0x265F0, symBinAddr: 0x29E10, symSize: 0xFD0 }
  - { offsetInCU: 0x48232, offset: 0x48232, size: 0x8, addend: 0x0, symName: __ZN12serde_derive2de22deserialize_identifier17h5eaff29fc73e2455E, symObjAddr: 0x278E0, symBinAddr: 0x2B100, symSize: 0x78B0 }
  - { offsetInCU: 0x4A655, offset: 0x4A655, size: 0x8, addend: 0x0, symName: __ZN12serde_derive2de15deserialize_map17hde48915f8cb94a43E, symObjAddr: 0x2F190, symBinAddr: 0x329B0, symSize: 0x4500 }
  - { offsetInCU: 0x4C8EA, offset: 0x4C8EA, size: 0x8, addend: 0x0, symName: __ZN12serde_derive2de7field_i17h35dd8924f19749d4E, symObjAddr: 0x33690, symBinAddr: 0x36EB0, symSize: 0xD0 }
  - { offsetInCU: 0x4CCC9, offset: 0x4CCC9, size: 0x8, addend: 0x0, symName: __ZN12serde_derive2de21wrap_deserialize_with17h18d61c42a7784c56E, symObjAddr: 0x33760, symBinAddr: 0x36F80, symSize: 0xBE0 }
  - { offsetInCU: 0x4D2F0, offset: 0x4D2F0, size: 0x8, addend: 0x0, symName: __ZN12serde_derive2de25unwrap_to_variant_closure17h3214a0242455b2feE, symObjAddr: 0x34340, symBinAddr: 0x37B60, symSize: 0xAC0 }
  - { offsetInCU: 0x4E19A, offset: 0x4E19A, size: 0x8, addend: 0x0, symName: __ZN12serde_derive2de15expr_is_missing17hd13a1d4e91dd1afbE, symObjAddr: 0x34E00, symBinAddr: 0x38620, symSize: 0x740 }
  - { offsetInCU: 0x4E6C6, offset: 0x4E6C6, size: 0x8, addend: 0x0, symName: '__ZN79_$LT$serde_derive..de..DeImplGenerics$u20$as$u20$quote..to_tokens..ToTokens$GT$9to_tokens17h9666c7c1560c4208E', symObjAddr: 0x35540, symBinAddr: 0x38D60, symSize: 0x1C0 }
  - { offsetInCU: 0x4E896, offset: 0x4E896, size: 0x8, addend: 0x0, symName: '__ZN79_$LT$serde_derive..de..DeTypeGenerics$u20$as$u20$quote..to_tokens..ToTokens$GT$9to_tokens17hfd48c3f991c3f78fE', symObjAddr: 0x35700, symBinAddr: 0x38F20, symSize: 0x2D6 }
  - { offsetInCU: 0x594A5, offset: 0x594A5, size: 0x8, addend: 0x0, symName: __ZN12serde_derive9internals4attr7Variant8de_bound17h3c39b7ab342724eaE, symObjAddr: 0x9490, symBinAddr: 0xCCB0, symSize: 0x20 }
  - { offsetInCU: 0x59522, offset: 0x59522, size: 0x8, addend: 0x0, symName: __ZN12serde_derive9internals4attr5Field8de_bound17h5d509c72c93b4509E, symObjAddr: 0x94B0, symBinAddr: 0xCCD0, symSize: 0x20 }
  - { offsetInCU: 0x59C3B, offset: 0x59C3B, size: 0x8, addend: 0x0, symName: __ZN12serde_derive2de10Parameters9type_name17h909fe674f84e5f14E, symObjAddr: 0xB210, symBinAddr: 0xEA30, symSize: 0x120 }
  - { offsetInCU: 0x5A27A, offset: 0x5A27A, size: 0x8, addend: 0x0, symName: __ZN12serde_derive2de17BorrowedLifetimes17de_lifetime_param17hae47134470c7cc47E, symObjAddr: 0xB3B0, symBinAddr: 0xEBD0, symSize: 0x240 }
  - { offsetInCU: 0x1E, offset: 0x63918, size: 0x8, addend: 0x0, symName: '__ZN100_$LT$syn..punctuated..PrivateIter$LT$T$C$P$GT$$u20$as$u20$core..iter..traits..iterator..Iterator$GT$4next17h01ae8919a016abfcE.llvm.12993492063013606005', symObjAddr: 0x0, symBinAddr: 0x39200, symSize: 0x0 }
  - { offsetInCU: 0x35, offset: 0x6392F, size: 0x8, addend: 0x0, symName: _anon.4b6e9015ad6d28b439abf99105985d01.9.llvm.12993492063013606005, symObjAddr: 0xEF78, symBinAddr: 0x3445D8, symSize: 0x0 }
  - { offsetInCU: 0x11E6, offset: 0x64AE0, size: 0x8, addend: 0x0, symName: '__ZN100_$LT$syn..punctuated..PrivateIter$LT$T$C$P$GT$$u20$as$u20$core..iter..traits..iterator..Iterator$GT$4next17h01ae8919a016abfcE.llvm.12993492063013606005', symObjAddr: 0x0, symBinAddr: 0x39200, symSize: 0x0 }
  - { offsetInCU: 0x1497, offset: 0x64D91, size: 0x8, addend: 0x0, symName: '__ZN100_$LT$syn..punctuated..PrivateIter$LT$T$C$P$GT$$u20$as$u20$core..iter..traits..iterator..Iterator$GT$4next17h046192af3f53e284E.llvm.12993492063013606005', symObjAddr: 0x30, symBinAddr: 0x39230, symSize: 0x0 }
  - { offsetInCU: 0x1724, offset: 0x6501E, size: 0x8, addend: 0x0, symName: '__ZN100_$LT$syn..punctuated..PrivateIter$LT$T$C$P$GT$$u20$as$u20$core..iter..traits..iterator..Iterator$GT$4next17h305b1381e8285edaE.llvm.12993492063013606005', symObjAddr: 0x60, symBinAddr: 0x39260, symSize: 0x0 }
  - { offsetInCU: 0x19B1, offset: 0x652AB, size: 0x8, addend: 0x0, symName: '__ZN100_$LT$syn..punctuated..PrivateIter$LT$T$C$P$GT$$u20$as$u20$core..iter..traits..iterator..Iterator$GT$4next17h386f77fc30b94d3fE.llvm.12993492063013606005', symObjAddr: 0x90, symBinAddr: 0x39290, symSize: 0x0 }
  - { offsetInCU: 0x1C3E, offset: 0x65538, size: 0x8, addend: 0x0, symName: '__ZN100_$LT$syn..punctuated..PrivateIter$LT$T$C$P$GT$$u20$as$u20$core..iter..traits..iterator..Iterator$GT$4next17h4b0bfe0498a11149E.llvm.12993492063013606005', symObjAddr: 0xC0, symBinAddr: 0x392C0, symSize: 0x0 }
  - { offsetInCU: 0x1EEF, offset: 0x657E9, size: 0x8, addend: 0x0, symName: '__ZN100_$LT$syn..punctuated..PrivateIter$LT$T$C$P$GT$$u20$as$u20$core..iter..traits..iterator..Iterator$GT$4next17h63d43ada66f30cfaE.llvm.12993492063013606005', symObjAddr: 0xF0, symBinAddr: 0x392F0, symSize: 0x0 }
  - { offsetInCU: 0x217C, offset: 0x65A76, size: 0x8, addend: 0x0, symName: '__ZN100_$LT$syn..punctuated..PrivateIter$LT$T$C$P$GT$$u20$as$u20$core..iter..traits..iterator..Iterator$GT$4next17had3eae8cdbdc2423E.llvm.12993492063013606005', symObjAddr: 0x120, symBinAddr: 0x39320, symSize: 0x0 }
  - { offsetInCU: 0x2591, offset: 0x65E8B, size: 0x8, addend: 0x0, symName: '__ZN102_$LT$syn..punctuated..Punctuated$LT$T$C$P$GT$$u20$as$u20$core..iter..traits..collect..IntoIterator$GT$9into_iter17h15acb1b1ff275972E', symObjAddr: 0x150, symBinAddr: 0x39350, symSize: 0x2D0 }
  - { offsetInCU: 0x322E, offset: 0x66B28, size: 0x8, addend: 0x0, symName: '__ZN102_$LT$syn..punctuated..Punctuated$LT$T$C$P$GT$$u20$as$u20$core..iter..traits..collect..IntoIterator$GT$9into_iter17ha91acc06ab90696aE', symObjAddr: 0x420, symBinAddr: 0x39620, symSize: 0x2D0 }
  - { offsetInCU: 0x409E, offset: 0x67998, size: 0x8, addend: 0x0, symName: '__ZN103_$LT$syn..punctuated..PrivateIterMut$LT$T$C$P$GT$$u20$as$u20$core..iter..traits..iterator..Iterator$GT$4next17hc5cc706af9c1c100E.llvm.12993492063013606005', symObjAddr: 0x6F0, symBinAddr: 0x398F0, symSize: 0x30 }
  - { offsetInCU: 0x4421, offset: 0x67D1B, size: 0x8, addend: 0x0, symName: '__ZN105_$LT$syn..punctuated..Punctuated$LT$T$C$P$GT$$u20$as$u20$core..iter..traits..collect..Extend$LT$T$GT$$GT$6extend17h06c7f439a1248332E', symObjAddr: 0x720, symBinAddr: 0x39920, symSize: 0x360 }
  - { offsetInCU: 0x4D35, offset: 0x6862F, size: 0x8, addend: 0x0, symName: '__ZN105_$LT$syn..punctuated..Punctuated$LT$T$C$P$GT$$u20$as$u20$core..iter..traits..collect..Extend$LT$T$GT$$GT$6extend17h63759318b4f40c79E', symObjAddr: 0xA80, symBinAddr: 0x39C80, symSize: 0x370 }
  - { offsetInCU: 0x576E, offset: 0x69068, size: 0x8, addend: 0x0, symName: '__ZN105_$LT$syn..punctuated..Punctuated$LT$T$C$P$GT$$u20$as$u20$core..iter..traits..collect..Extend$LT$T$GT$$GT$6extend17ha30424e909e1d2edE', symObjAddr: 0xDF0, symBinAddr: 0x39FF0, symSize: 0x350 }
  - { offsetInCU: 0x5E1B, offset: 0x69715, size: 0x8, addend: 0x0, symName: '__ZN105_$LT$syn..punctuated..Punctuated$LT$T$C$P$GT$$u20$as$u20$core..iter..traits..collect..Extend$LT$T$GT$$GT$6extend17hb8014ebe76b7bebaE', symObjAddr: 0x1140, symBinAddr: 0x3A340, symSize: 0xE0 }
  - { offsetInCU: 0x6215, offset: 0x69B0F, size: 0x8, addend: 0x0, symName: '__ZN111_$LT$syn..punctuated..PrivateIter$LT$T$C$P$GT$$u20$as$u20$core..iter..traits..exact_size..ExactSizeIterator$GT$3len17h6a735bc33ca31402E.llvm.12993492063013606005', symObjAddr: 0x1270, symBinAddr: 0x3A420, symSize: 0x0 }
  - { offsetInCU: 0x6304, offset: 0x69BFE, size: 0x8, addend: 0x0, symName: '__ZN111_$LT$syn..punctuated..PrivateIter$LT$T$C$P$GT$$u20$as$u20$core..iter..traits..exact_size..ExactSizeIterator$GT$3len17had320a082cf237dcE.llvm.12993492063013606005', symObjAddr: 0x1300, symBinAddr: 0x3A450, symSize: 0x0 }
  - { offsetInCU: 0x63F3, offset: 0x69CED, size: 0x8, addend: 0x0, symName: '__ZN111_$LT$syn..punctuated..PrivateIter$LT$T$C$P$GT$$u20$as$u20$core..iter..traits..exact_size..ExactSizeIterator$GT$3len17hbd7dc821e8583e11E.llvm.12993492063013606005', symObjAddr: 0x1330, symBinAddr: 0x3A480, symSize: 0x0 }
  - { offsetInCU: 0x6524, offset: 0x69E1E, size: 0x8, addend: 0x0, symName: '__ZN111_$LT$syn..punctuated..Punctuated$LT$T$C$P$GT$$u20$as$u20$core..iter..traits..collect..FromIterator$LT$T$GT$$GT$9from_iter17h3a9a8c05cf79f95eE', symObjAddr: 0x1360, symBinAddr: 0x3A4B0, symSize: 0x180 }
  - { offsetInCU: 0x6779, offset: 0x6A073, size: 0x8, addend: 0x0, symName: '__ZN111_$LT$syn..punctuated..Punctuated$LT$T$C$P$GT$$u20$as$u20$core..iter..traits..collect..FromIterator$LT$T$GT$$GT$9from_iter17h52d57dfd64629ceeE', symObjAddr: 0x14E0, symBinAddr: 0x3A630, symSize: 0x1A0 }
  - { offsetInCU: 0x6A1C, offset: 0x6A316, size: 0x8, addend: 0x0, symName: '__ZN111_$LT$syn..punctuated..Punctuated$LT$T$C$P$GT$$u20$as$u20$core..iter..traits..collect..FromIterator$LT$T$GT$$GT$9from_iter17h9efc4f39311282f7E', symObjAddr: 0x1680, symBinAddr: 0x3A7D0, symSize: 0x200 }
  - { offsetInCU: 0x6CF9, offset: 0x6A5F3, size: 0x8, addend: 0x0, symName: '__ZN111_$LT$syn..punctuated..Punctuated$LT$T$C$P$GT$$u20$as$u20$core..iter..traits..collect..FromIterator$LT$T$GT$$GT$9from_iter17hb8c9c79b1d18b11cE', symObjAddr: 0x1880, symBinAddr: 0x3A9D0, symSize: 0x140 }
  - { offsetInCU: 0x6EAA, offset: 0x6A7A4, size: 0x8, addend: 0x0, symName: '__ZN111_$LT$syn..punctuated..Punctuated$LT$T$C$P$GT$$u20$as$u20$core..iter..traits..collect..FromIterator$LT$T$GT$$GT$9from_iter17hdd5959900e2a9cc1E', symObjAddr: 0x19C0, symBinAddr: 0x3AB10, symSize: 0x1E0 }
  - { offsetInCU: 0x72A8, offset: 0x6ABA2, size: 0x8, addend: 0x0, symName: '__ZN111_$LT$syn..punctuated..Punctuated$LT$T$C$P$GT$$u20$as$u20$core..iter..traits..collect..FromIterator$LT$T$GT$$GT$9from_iter17he79ee477ad86ea62E', symObjAddr: 0x1BA0, symBinAddr: 0x3ACF0, symSize: 0x310 }
  - { offsetInCU: 0x7D58, offset: 0x6B652, size: 0x8, addend: 0x0, symName: '__ZN115_$LT$syn..punctuated..PrivateIter$LT$T$C$P$GT$$u20$as$u20$core..iter..traits..double_ended..DoubleEndedIterator$GT$9next_back17h20e788343cfa5ad0E.llvm.12993492063013606005', symObjAddr: 0x1FB0, symBinAddr: 0x3B000, symSize: 0x0 }
  - { offsetInCU: 0x8008, offset: 0x6B902, size: 0x8, addend: 0x0, symName: '__ZN115_$LT$syn..punctuated..PrivateIter$LT$T$C$P$GT$$u20$as$u20$core..iter..traits..double_ended..DoubleEndedIterator$GT$9next_back17h263cf87da2c7e255E.llvm.12993492063013606005', symObjAddr: 0x1FE0, symBinAddr: 0x3B030, symSize: 0x0 }
  - { offsetInCU: 0x82DC, offset: 0x6BBD6, size: 0x8, addend: 0x0, symName: '__ZN115_$LT$syn..punctuated..PrivateIter$LT$T$C$P$GT$$u20$as$u20$core..iter..traits..double_ended..DoubleEndedIterator$GT$9next_back17h2a696a6bf1b5bba3E.llvm.12993492063013606005', symObjAddr: 0x2010, symBinAddr: 0x3B060, symSize: 0x0 }
  - { offsetInCU: 0x8B1D, offset: 0x6C417, size: 0x8, addend: 0x0, symName: __ZN3syn10punctuated9do_extend17hedfb6b5a240ae5cfE.llvm.12993492063013606005, symObjAddr: 0x3580, symBinAddr: 0x3BAE0, symSize: 0x650 }
  - { offsetInCU: 0x98B2, offset: 0x6D1AC, size: 0x8, addend: 0x0, symName: '__ZN57_$LT$I$u20$as$u20$syn..punctuated..IterTrait$LT$T$GT$$GT$9clone_box17h57b7a3eb417b4567E.llvm.12993492063013606005', symObjAddr: 0xD2F0, symBinAddr: 0x44C90, symSize: 0x60 }
  - { offsetInCU: 0x9ABF, offset: 0x6D3B9, size: 0x8, addend: 0x0, symName: '__ZN57_$LT$I$u20$as$u20$syn..punctuated..IterTrait$LT$T$GT$$GT$9clone_box17hc047825037dac0feE.llvm.12993492063013606005', symObjAddr: 0xD410, symBinAddr: 0x44CF0, symSize: 0x60 }
  - { offsetInCU: 0x9CCC, offset: 0x6D5C6, size: 0x8, addend: 0x0, symName: '__ZN57_$LT$I$u20$as$u20$syn..punctuated..IterTrait$LT$T$GT$$GT$9clone_box17hd8404074aea2a4b0E.llvm.12993492063013606005', symObjAddr: 0xD530, symBinAddr: 0x44D50, symSize: 0x60 }
  - { offsetInCU: 0x9FAE, offset: 0x6D8A8, size: 0x8, addend: 0x0, symName: '__ZN97_$LT$syn..punctuated..Punctuated$LT$T$C$P$GT$$u20$as$u20$core..ops..index..Index$LT$usize$GT$$GT$5index17h4fd502524b83aacfE', symObjAddr: 0xD720, symBinAddr: 0x44DB0, symSize: 0x50 }
  - { offsetInCU: 0xEC81, offset: 0x7257B, size: 0x8, addend: 0x0, symName: '__ZN40_$LT$F$u20$as$u20$syn..parse..Parser$GT$14__parse_scoped17h03b64209d8019360E', symObjAddr: 0x3BD0, symBinAddr: 0x3C130, symSize: 0x570 }
  - { offsetInCU: 0x16C4B, offset: 0x7A545, size: 0x8, addend: 0x0, symName: '__ZN4core3ptr100drop_in_place$LT$core..option..Option$LT$alloc..boxed..Box$LT$syn..path..GenericArgument$GT$$GT$$GT$17h3c47f80d40da4ae4E.llvm.12993492063013606005', symObjAddr: 0x4140, symBinAddr: 0x3C6A0, symSize: 0x50 }
  - { offsetInCU: 0x16E94, offset: 0x7A78E, size: 0x8, addend: 0x0, symName: '__ZN4core3ptr100drop_in_place$LT$syn..punctuated..Punctuated$LT$syn..path..PathSegment$C$syn..token..PathSep$GT$$GT$17hd34064dc93b0b427E.llvm.12993492063013606005', symObjAddr: 0x4190, symBinAddr: 0x3C6F0, symSize: 0x270 }
  - { offsetInCU: 0x17837, offset: 0x7B131, size: 0x8, addend: 0x0, symName: '__ZN4core3ptr101drop_in_place$LT$alloc..vec..Vec$LT$$LP$syn..generics..WherePredicate$C$syn..token..Comma$RP$$GT$$GT$17ha8d7c9098df105a8E.llvm.12993492063013606005', symObjAddr: 0x4400, symBinAddr: 0x3C960, symSize: 0xD0 }
  - { offsetInCU: 0x17B4E, offset: 0x7B448, size: 0x8, addend: 0x0, symName: '__ZN4core3ptr101drop_in_place$LT$core..option..Option$LT$alloc..boxed..Box$LT$syn..generics..GenericParam$GT$$GT$$GT$17h588117414ebf0027E.llvm.12993492063013606005', symObjAddr: 0x44D0, symBinAddr: 0x3CA30, symSize: 0x50 }
  - { offsetInCU: 0x17CFC, offset: 0x7B5F6, size: 0x8, addend: 0x0, symName: '__ZN4core3ptr101drop_in_place$LT$core..option..Option$LT$alloc..vec..Vec$LT$syn..generics..WherePredicate$GT$$GT$$GT$17ha20f1622680c30deE', symObjAddr: 0x4520, symBinAddr: 0x3CA80, symSize: 0xD0 }
  - { offsetInCU: 0x17FCD, offset: 0x7B8C7, size: 0x8, addend: 0x0, symName: '__ZN4core3ptr102drop_in_place$LT$syn..punctuated..Punctuated$LT$syn..path..GenericArgument$C$syn..token..Comma$GT$$GT$17hfe8946443591d714E.llvm.12993492063013606005', symObjAddr: 0x45F0, symBinAddr: 0x3CB50, symSize: 0xF0 }
  - { offsetInCU: 0x182ED, offset: 0x7BBE7, size: 0x8, addend: 0x0, symName: '__ZN4core3ptr103drop_in_place$LT$core..option..Option$LT$alloc..boxed..Box$LT$syn..generics..TypeParamBound$GT$$GT$$GT$17hb98e913f9a9fba75E', symObjAddr: 0x46E0, symBinAddr: 0x3CC40, symSize: 0x50 }
  - { offsetInCU: 0x1847C, offset: 0x7BD76, size: 0x8, addend: 0x0, symName: '__ZN4core3ptr103drop_in_place$LT$core..option..Option$LT$alloc..boxed..Box$LT$syn..generics..WherePredicate$GT$$GT$$GT$17ha8f5afb6495c5336E.llvm.12993492063013606005', symObjAddr: 0x4730, symBinAddr: 0x3CC90, symSize: 0x50 }
  - { offsetInCU: 0x1863C, offset: 0x7BF36, size: 0x8, addend: 0x0, symName: '__ZN4core3ptr103drop_in_place$LT$syn..punctuated..Punctuated$LT$syn..generics..GenericParam$C$syn..token..Comma$GT$$GT$17h706e4b03aaf6cee1E.llvm.12993492063013606005', symObjAddr: 0x4780, symBinAddr: 0x3CCE0, symSize: 0xB0 }
  - { offsetInCU: 0x18B15, offset: 0x7C40F, size: 0x8, addend: 0x0, symName: '__ZN4core3ptr104drop_in_place$LT$syn..punctuated..Punctuated$LT$syn..generics..TypeParamBound$C$syn..token..Plus$GT$$GT$17h913c045198e2e1fdE.llvm.12993492063013606005', symObjAddr: 0x4830, symBinAddr: 0x3CD90, symSize: 0x2C0 }
  - { offsetInCU: 0x1976A, offset: 0x7D064, size: 0x8, addend: 0x0, symName: '__ZN4core3ptr105drop_in_place$LT$syn..punctuated..Punctuated$LT$syn..generics..WherePredicate$C$syn..token..Comma$GT$$GT$17h950b0d6851bfc4b8E', symObjAddr: 0x4AF0, symBinAddr: 0x3D050, symSize: 0x120 }
  - { offsetInCU: 0x19C39, offset: 0x7D533, size: 0x8, addend: 0x0, symName: '__ZN4core3ptr139drop_in_place$LT$core..iter..adapters..skip..Skip$LT$syn..punctuated..IntoPairs$LT$syn..path..PathSegment$C$syn..token..PathSep$GT$$GT$$GT$17h93f8297522eac83bE.llvm.12993492063013606005', symObjAddr: 0x4C10, symBinAddr: 0x3D170, symSize: 0x60 }
  - { offsetInCU: 0x19D26, offset: 0x7D620, size: 0x8, addend: 0x0, symName: '__ZN4core3ptr183drop_in_place$LT$core..iter..adapters..chain..Chain$LT$core..option..IntoIter$LT$syn..generics..GenericParam$GT$$C$syn..punctuated..IntoIter$LT$syn..generics..GenericParam$GT$$GT$$GT$17h3d2352d2a0b17004E.llvm.12993492063013606005', symObjAddr: 0x4C70, symBinAddr: 0x3D1D0, symSize: 0x70 }
  - { offsetInCU: 0x19E49, offset: 0x7D743, size: 0x8, addend: 0x0, symName: '__ZN4core3ptr184drop_in_place$LT$core..iter..adapters..map..Map$LT$syn..punctuated..Iter$LT$syn..generics..GenericParam$GT$$C$serde_derive..bound..without_defaults..$u7b$$u7b$closure$u7d$$u7d$$GT$$GT$17h2fe3f1a7a5b9baa4E.llvm.12993492063013606005', symObjAddr: 0x4CE0, symBinAddr: 0x3D240, symSize: 0x30 }
  - { offsetInCU: 0x19F84, offset: 0x7D87E, size: 0x8, addend: 0x0, symName: '__ZN4core3ptr259drop_in_place$LT$core..option..Option$LT$core..iter..adapters..map..Map$LT$core..iter..adapters..cloned..Cloned$LT$syn..punctuated..Iter$LT$syn..generics..GenericParam$GT$$GT$$C$serde_derive..bound..with_lifetime_bound..$u7b$$u7b$closure$u7d$$u7d$$GT$$GT$$GT$17hf70fbbcf3b4dac6cE', symObjAddr: 0x4D10, symBinAddr: 0x3D270, symSize: 0x30 }
  - { offsetInCU: 0x1A0EB, offset: 0x7D9E5, size: 0x8, addend: 0x0, symName: '__ZN4core3ptr333drop_in_place$LT$core..iter..adapters..chain..Chain$LT$core..option..IntoIter$LT$syn..generics..GenericParam$GT$$C$core..iter..adapters..map..Map$LT$core..iter..adapters..cloned..Cloned$LT$syn..punctuated..Iter$LT$syn..generics..GenericParam$GT$$GT$$C$serde_derive..bound..with_lifetime_bound..$u7b$$u7b$closure$u7d$$u7d$$GT$$GT$$GT$17h4ded5b7e2b3a8505E', symObjAddr: 0x4D40, symBinAddr: 0x3D2A0, symSize: 0x80 }
  - { offsetInCU: 0x1A37E, offset: 0x7DC78, size: 0x8, addend: 0x0, symName: '__ZN4core3ptr34drop_in_place$LT$syn..lit..Lit$GT$17hab99994a68996a3fE', symObjAddr: 0x4DC0, symBinAddr: 0x3D320, symSize: 0x120 }
  - { offsetInCU: 0x1A84D, offset: 0x7E147, size: 0x8, addend: 0x0, symName: '__ZN4core3ptr34drop_in_place$LT$syn..pat..Pat$GT$17h7d887fadf2c3cc6bE', symObjAddr: 0x4EE0, symBinAddr: 0x3D440, symSize: 0x1090 }
  - { offsetInCU: 0x1E84D, offset: 0x82147, size: 0x8, addend: 0x0, symName: '__ZN4core3ptr34drop_in_place$LT$syn..ty..Type$GT$17h11a872b3c8e5eef5E.llvm.12993492063013606005', symObjAddr: 0x5F70, symBinAddr: 0x3E4D0, symSize: 0x4F0 }
  - { offsetInCU: 0x1FD90, offset: 0x8368A, size: 0x8, addend: 0x0, symName: '__ZN4core3ptr36drop_in_place$LT$syn..expr..Expr$GT$17h62bf30adc41c0fafE', symObjAddr: 0x6460, symBinAddr: 0x3E9C0, symSize: 0x27D0 }
  - { offsetInCU: 0x294C4, offset: 0x8CDBE, size: 0x8, addend: 0x0, symName: '__ZN4core3ptr36drop_in_place$LT$syn..mac..Macro$GT$17ha18d10f1233dedcaE', symObjAddr: 0x8C30, symBinAddr: 0x41190, symSize: 0x40 }
  - { offsetInCU: 0x294FE, offset: 0x8CDF8, size: 0x8, addend: 0x0, symName: '__ZN4core3ptr36drop_in_place$LT$syn..path..Path$GT$17hcca6c7d030660616E.llvm.12993492063013606005', symObjAddr: 0x8C70, symBinAddr: 0x411D0, symSize: 0x120 }
  - { offsetInCU: 0x29947, offset: 0x8D241, size: 0x8, addend: 0x0, symName: '__ZN4core3ptr37drop_in_place$LT$syn..stmt..Block$GT$17haed62ed48b69364dE', symObjAddr: 0x8D90, symBinAddr: 0x412F0, symSize: 0xD0 }
  - { offsetInCU: 0x29C1E, offset: 0x8D518, size: 0x8, addend: 0x0, symName: '__ZN4core3ptr38drop_in_place$LT$syn..expr..Member$GT$17h594f47e3350a2be5E', symObjAddr: 0x8E60, symBinAddr: 0x413C0, symSize: 0x30 }
  - { offsetInCU: 0x29D1A, offset: 0x8D614, size: 0x8, addend: 0x0, symName: '__ZN4core3ptr39drop_in_place$LT$proc_macro2..Ident$GT$17h007be8bd6a71491bE', symObjAddr: 0x8E90, symBinAddr: 0x413F0, symSize: 0x30 }
  - { offsetInCU: 0x29F2D, offset: 0x8D827, size: 0x8, addend: 0x0, symName: '__ZN4core3ptr39drop_in_place$LT$syn..buffer..Entry$GT$17hf8a37ae2db8c8c8eE', symObjAddr: 0x8EC0, symBinAddr: 0x41420, symSize: 0xB0 }
  - { offsetInCU: 0x2A2B8, offset: 0x8DBB2, size: 0x8, addend: 0x0, symName: '__ZN4core3ptr40drop_in_place$LT$syn..ty..ReturnType$GT$17h14f04ba862eb52f4E.llvm.12993492063013606005', symObjAddr: 0x8F70, symBinAddr: 0x414D0, symSize: 0x50 }
  - { offsetInCU: 0x2A428, offset: 0x8DD22, size: 0x8, addend: 0x0, symName: '__ZN4core3ptr410drop_in_place$LT$core..iter..adapters..flatten..FlatMap$LT$core..iter..adapters..filter_map..FilterMap$LT$core..slice..iter..Iter$LT$serde_derive..internals..ast..Variant$GT$$C$serde_derive..bound..with_where_predicates_from_variants..$u7b$$u7b$closure$u7d$$u7d$$GT$$C$alloc..vec..Vec$LT$syn..generics..WherePredicate$GT$$C$alloc..slice..$LT$impl$u20$$u5b$syn..generics..WherePredicate$u5d$$GT$..to_vec$GT$$GT$17hb6625f88b09f0049E', symObjAddr: 0x8FC0, symBinAddr: 0x41520, symSize: 0x60 }
  - { offsetInCU: 0x2A502, offset: 0x8DDFC, size: 0x8, addend: 0x0, symName: '__ZN4core3ptr41drop_in_place$LT$syn..expr..ExprConst$GT$17h011fcb0f1d3d0fbcE', symObjAddr: 0x9020, symBinAddr: 0x41580, symSize: 0x180 }
  - { offsetInCU: 0x2AABB, offset: 0x8E3B5, size: 0x8, addend: 0x0, symName: '__ZN4core3ptr43drop_in_place$LT$syn..path..PathSegment$GT$17hf093a51a249c2ab0E.llvm.12993492063013606005', symObjAddr: 0x91A0, symBinAddr: 0x41700, symSize: 0x190 }
  - { offsetInCU: 0x2B01F, offset: 0x8E919, size: 0x8, addend: 0x0, symName: '__ZN4core3ptr44drop_in_place$LT$syn..lifetime..Lifetime$GT$17h81f5c412fc4e75a1E', symObjAddr: 0x9330, symBinAddr: 0x41890, symSize: 0x30 }
  - { offsetInCU: 0x2B11B, offset: 0x8EA15, size: 0x8, addend: 0x0, symName: '__ZN4core3ptr44drop_in_place$LT$syn..parse..ParseBuffer$GT$17h82fe204940e318b0E', symObjAddr: 0x9360, symBinAddr: 0x418C0, symSize: 0x70 }
  - { offsetInCU: 0x2B497, offset: 0x8ED91, size: 0x8, addend: 0x0, symName: '__ZN4core3ptr45drop_in_place$LT$proc_macro2..TokenStream$GT$17h725968a5788a0c43E.llvm.12993492063013606005', symObjAddr: 0x93D0, symBinAddr: 0x41930, symSize: 0x140 }
  - { offsetInCU: 0x2B8F3, offset: 0x8F1ED, size: 0x8, addend: 0x0, symName: '__ZN4core3ptr45drop_in_place$LT$syn..buffer..TokenBuffer$GT$17h1ed6fa8196fb852bE', symObjAddr: 0x9510, symBinAddr: 0x41A70, symSize: 0xC0 }
  - { offsetInCU: 0x2BB5B, offset: 0x8F455, size: 0x8, addend: 0x0, symName: '__ZN4core3ptr474drop_in_place$LT$core..iter..adapters..flatten..FlatMap$LT$core..iter..adapters..filter_map..FilterMap$LT$alloc..boxed..Box$LT$dyn$u20$core..iter..traits..iterator..Iterator$u2b$Item$u20$$u3d$$u20$$RF$serde_derive..internals..ast..Field$GT$$C$serde_derive..bound..with_where_predicates_from_fields..$u7b$$u7b$closure$u7d$$u7d$$GT$$C$alloc..vec..Vec$LT$syn..generics..WherePredicate$GT$$C$alloc..slice..$LT$impl$u20$$u5b$syn..generics..WherePredicate$u5d$$GT$..to_vec$GT$$GT$17h47c32e8019028390E', symObjAddr: 0x95D0, symBinAddr: 0x41B30, symSize: 0xC0 }
  - { offsetInCU: 0x2BEFF, offset: 0x8F7F9, size: 0x8, addend: 0x0, symName: '__ZN4core3ptr47drop_in_place$LT$syn..path..GenericArgument$GT$17ha0f8621278069bfaE.llvm.12993492063013606005', symObjAddr: 0x9690, symBinAddr: 0x41BF0, symSize: 0x4A0 }
  - { offsetInCU: 0x2D0A0, offset: 0x9099A, size: 0x8, addend: 0x0, symName: '__ZN4core3ptr48drop_in_place$LT$syn..generics..GenericParam$GT$17hb7b691eed8b37306E.llvm.12993492063013606005', symObjAddr: 0x9B30, symBinAddr: 0x42090, symSize: 0x380 }
  - { offsetInCU: 0x2DC50, offset: 0x9154A, size: 0x8, addend: 0x0, symName: '__ZN4core3ptr50drop_in_place$LT$syn..generics..TypeParamBound$GT$17hc0b3a8451b112484E.llvm.12993492063013606005', symObjAddr: 0x9EB0, symBinAddr: 0x42410, symSize: 0xA0 }
  - { offsetInCU: 0x2DDF4, offset: 0x916EE, size: 0x8, addend: 0x0, symName: '__ZN4core3ptr50drop_in_place$LT$syn..generics..WherePredicate$GT$17h88c4db20921026f6E.llvm.12993492063013606005', symObjAddr: 0x9F50, symBinAddr: 0x424B0, symSize: 0xA0 }
  - { offsetInCU: 0x2DF98, offset: 0x91892, size: 0x8, addend: 0x0, symName: '__ZN4core3ptr58drop_in_place$LT$alloc..vec..Vec$LT$syn..expr..Arm$GT$$GT$17ha6d87cf8cb2f8625E', symObjAddr: 0x9FF0, symBinAddr: 0x42550, symSize: 0xD0 }
  - { offsetInCU: 0x2E258, offset: 0x91B52, size: 0x8, addend: 0x0, symName: '__ZN4core3ptr59drop_in_place$LT$alloc..boxed..Box$LT$syn..pat..Pat$GT$$GT$17h04b5a49dc338bf9cE', symObjAddr: 0xA0C0, symBinAddr: 0x42620, symSize: 0x50 }
  - { offsetInCU: 0x2E3B1, offset: 0x91CAB, size: 0x8, addend: 0x0, symName: '__ZN4core3ptr59drop_in_place$LT$alloc..boxed..Box$LT$syn..ty..Type$GT$$GT$17hfb8a09f23f7902beE.llvm.12993492063013606005', symObjAddr: 0xA110, symBinAddr: 0x42670, symSize: 0x50 }
  - { offsetInCU: 0x2E50A, offset: 0x91E04, size: 0x8, addend: 0x0, symName: '__ZN4core3ptr605drop_in_place$LT$core..iter..adapters..map..Map$LT$core..iter..adapters..chain..Chain$LT$core..iter..adapters..map..Map$LT$core..iter..adapters..filter..Filter$LT$core..iter..adapters..map..Map$LT$syn..generics..TypeParams$C$serde_derive..bound..with_bound..$u7b$$u7b$closure$u7d$$u7d$$GT$$C$serde_derive..bound..with_bound..$u7b$$u7b$closure$u7d$$u7d$$GT$$C$serde_derive..bound..with_bound..$u7b$$u7b$closure$u7d$$u7d$$GT$$C$core..iter..adapters..cloned..Cloned$LT$alloc..vec..into_iter..IntoIter$LT$$RF$syn..ty..TypePath$GT$$GT$$GT$$C$serde_derive..bound..with_bound..$u7b$$u7b$closure$u7d$$u7d$$GT$$GT$17h3a2a3710b52173ecE', symObjAddr: 0xA160, symBinAddr: 0x426C0, symSize: 0x70 }
  - { offsetInCU: 0x2E876, offset: 0x92170, size: 0x8, addend: 0x0, symName: '__ZN4core3ptr61drop_in_place$LT$alloc..boxed..Box$LT$syn..expr..Expr$GT$$GT$17hfe67d291b01d4939E', symObjAddr: 0xA1D0, symBinAddr: 0x42730, symSize: 0x50 }
  - { offsetInCU: 0x2EA4B, offset: 0x92345, size: 0x8, addend: 0x0, symName: '__ZN4core3ptr61drop_in_place$LT$syn..path..ParenthesizedGenericArguments$GT$17hc6164008a0f156caE.llvm.12993492063013606005', symObjAddr: 0xA220, symBinAddr: 0x42780, symSize: 0x170 }
  - { offsetInCU: 0x2F041, offset: 0x9293B, size: 0x8, addend: 0x0, symName: '__ZN4core3ptr62drop_in_place$LT$syn..path..AngleBracketedGenericArguments$GT$17h0299086782c6da12E.llvm.12993492063013606005', symObjAddr: 0xA390, symBinAddr: 0x428F0, symSize: 0x120 }
  - { offsetInCU: 0x2F48C, offset: 0x92D86, size: 0x8, addend: 0x0, symName: '__ZN4core3ptr63drop_in_place$LT$alloc..boxed..Box$LT$syn..lit..LitRepr$GT$$GT$17hf2595df28a7ce13bE', symObjAddr: 0xA4B0, symBinAddr: 0x42A10, symSize: 0x60 }
  - { offsetInCU: 0x2F793, offset: 0x9308D, size: 0x8, addend: 0x0, symName: '__ZN4core3ptr64drop_in_place$LT$alloc..boxed..Box$LT$syn..pat..FieldPat$GT$$GT$17hb9cdd4a04c64745aE', symObjAddr: 0xA510, symBinAddr: 0x42A70, symSize: 0x140 }
  - { offsetInCU: 0x2FE60, offset: 0x9375A, size: 0x8, addend: 0x0, symName: '__ZN4core3ptr64drop_in_place$LT$alloc..boxed..Box$LT$syn..ty..BareFnArg$GT$$GT$17hdf9a99e9a3e43b93E', symObjAddr: 0xA650, symBinAddr: 0x42BB0, symSize: 0x140 }
  - { offsetInCU: 0x303B5, offset: 0x93CAF, size: 0x8, addend: 0x0, symName: '__ZN4core3ptr65drop_in_place$LT$alloc..vec..Vec$LT$proc_macro..TokenTree$GT$$GT$17h07ad17327f0607d0E.llvm.12993492063013606005', symObjAddr: 0xA790, symBinAddr: 0x42CF0, symSize: 0x110 }
  - { offsetInCU: 0x307AD, offset: 0x940A7, size: 0x8, addend: 0x0, symName: '__ZN4core3ptr65drop_in_place$LT$core..option..Option$LT$syn..expr..Label$GT$$GT$17h7370f4cd7d051021E', symObjAddr: 0xA8A0, symBinAddr: 0x42E00, symSize: 0x30 }
  - { offsetInCU: 0x308E7, offset: 0x941E1, size: 0x8, addend: 0x0, symName: '__ZN4core3ptr66drop_in_place$LT$core..option..Option$LT$syn..pat..PatRest$GT$$GT$17h56243b82155d1306E', symObjAddr: 0xA8D0, symBinAddr: 0x42E30, symSize: 0xE0 }
  - { offsetInCU: 0x30BBC, offset: 0x944B6, size: 0x8, addend: 0x0, symName: '__ZN4core3ptr66drop_in_place$LT$core..option..Option$LT$syn..ty..TypePath$GT$$GT$17h7cbda0903dae130fE', symObjAddr: 0xA9B0, symBinAddr: 0x42F10, symSize: 0x80 }
  - { offsetInCU: 0x30D8A, offset: 0x94684, size: 0x8, addend: 0x0, symName: '__ZN4core3ptr67drop_in_place$LT$alloc..boxed..Box$LT$syn..expr..FieldValue$GT$$GT$17hdb569e1e168cfcafE', symObjAddr: 0xAA30, symBinAddr: 0x42F90, symSize: 0x140 }
  - { offsetInCU: 0x312BF, offset: 0x94BB9, size: 0x8, addend: 0x0, symName: '__ZN4core3ptr68drop_in_place$LT$alloc..boxed..Box$LT$syn..path..PathSegment$GT$$GT$17h8bc236a2626e080dE.llvm.12993492063013606005', symObjAddr: 0xAB70, symBinAddr: 0x430D0, symSize: 0x1B0 }
  - { offsetInCU: 0x319CD, offset: 0x952C7, size: 0x8, addend: 0x0, symName: '__ZN4core3ptr70drop_in_place$LT$core..option..Option$LT$syn..ty..BareVariadic$GT$$GT$17h891315fdf14c9598E', symObjAddr: 0xAD20, symBinAddr: 0x43280, symSize: 0x100 }
  - { offsetInCU: 0x31E04, offset: 0x956FE, size: 0x8, addend: 0x0, symName: '__ZN4core3ptr71drop_in_place$LT$alloc..vec..Vec$LT$syn..generics..GenericParam$GT$$GT$17hc61977bf7704fcffE.llvm.12993492063013606005', symObjAddr: 0xAE20, symBinAddr: 0x43380, symSize: 0x60 }
  - { offsetInCU: 0x32084, offset: 0x9597E, size: 0x8, addend: 0x0, symName: '__ZN4core3ptr72drop_in_place$LT$alloc..boxed..Box$LT$syn..path..GenericArgument$GT$$GT$17ha22f3de00ed22d7dE.llvm.12993492063013606005', symObjAddr: 0xAE80, symBinAddr: 0x433E0, symSize: 0x2B0 }
  - { offsetInCU: 0x32A3C, offset: 0x96336, size: 0x8, addend: 0x0, symName: '__ZN4core3ptr72drop_in_place$LT$core..option..Option$LT$syn..lifetime..Lifetime$GT$$GT$17h738a5902efee9f55E', symObjAddr: 0xB130, symBinAddr: 0x43690, symSize: 0x30 }
  - { offsetInCU: 0x32B57, offset: 0x96451, size: 0x8, addend: 0x0, symName: '__ZN4core3ptr73drop_in_place$LT$alloc..vec..Vec$LT$syn..generics..WherePredicate$GT$$GT$17h0052c17cbfe03aaeE.llvm.12993492063013606005', symObjAddr: 0xB160, symBinAddr: 0x436C0, symSize: 0xD0 }
  - { offsetInCU: 0x32E17, offset: 0x96711, size: 0x8, addend: 0x0, symName: '__ZN4core3ptr75drop_in_place$LT$alloc..boxed..Box$LT$syn..generics..TypeParamBound$GT$$GT$17h47c0b9686bcdda20E', symObjAddr: 0xB230, symBinAddr: 0x43790, symSize: 0x210 }
  - { offsetInCU: 0x3379D, offset: 0x97097, size: 0x8, addend: 0x0, symName: '__ZN4core3ptr86drop_in_place$LT$syn..punctuated..Punctuated$LT$syn..pat..Pat$C$syn..token..Or$GT$$GT$17h028803b51a0e008cE', symObjAddr: 0xB440, symBinAddr: 0x439A0, symSize: 0x120 }
  - { offsetInCU: 0x33C18, offset: 0x97512, size: 0x8, addend: 0x0, symName: '__ZN4core3ptr87drop_in_place$LT$core..option..Option$LT$alloc..boxed..Box$LT$syn..pat..Pat$GT$$GT$$GT$17h47e4534cb825f5fbE', symObjAddr: 0xB560, symBinAddr: 0x43AC0, symSize: 0x50 }
  - { offsetInCU: 0x33D88, offset: 0x97682, size: 0x8, addend: 0x0, symName: '__ZN4core3ptr87drop_in_place$LT$core..option..Option$LT$alloc..boxed..Box$LT$syn..ty..Type$GT$$GT$$GT$17hb21c4c429b95d768E.llvm.12993492063013606005', symObjAddr: 0xB5B0, symBinAddr: 0x43B10, symSize: 0x50 }
  - { offsetInCU: 0x33EF8, offset: 0x977F2, size: 0x8, addend: 0x0, symName: '__ZN4core3ptr89drop_in_place$LT$core..option..Option$LT$alloc..boxed..Box$LT$syn..expr..Expr$GT$$GT$$GT$17h0b10c8a8945d61ceE', symObjAddr: 0xB600, symBinAddr: 0x43B60, symSize: 0x50 }
  - { offsetInCU: 0x340A6, offset: 0x979A0, size: 0x8, addend: 0x0, symName: '__ZN4core3ptr89drop_in_place$LT$syn..punctuated..Punctuated$LT$syn..pat..Pat$C$syn..token..Comma$GT$$GT$17h0f70228e7daac378E', symObjAddr: 0xB650, symBinAddr: 0x43BB0, symSize: 0x120 }
  - { offsetInCU: 0x34538, offset: 0x97E32, size: 0x8, addend: 0x0, symName: '__ZN4core3ptr89drop_in_place$LT$syn..punctuated..Punctuated$LT$syn..ty..Type$C$syn..token..Comma$GT$$GT$17h0317a8a9919e8789E.llvm.12993492063013606005', symObjAddr: 0xB770, symBinAddr: 0x43CD0, symSize: 0x120 }
  - { offsetInCU: 0x349B3, offset: 0x982AD, size: 0x8, addend: 0x0, symName: '__ZN4core3ptr90drop_in_place$LT$core..option..Option$LT$syn..path..AngleBracketedGenericArguments$GT$$GT$17h9646b437ffecef94E', symObjAddr: 0xB890, symBinAddr: 0x43DF0, symSize: 0x130 }
  - { offsetInCU: 0x34E55, offset: 0x9874F, size: 0x8, addend: 0x0, symName: '__ZN4core3ptr91drop_in_place$LT$syn..punctuated..Punctuated$LT$syn..expr..Expr$C$syn..token..Comma$GT$$GT$17hd3047ab334148524E', symObjAddr: 0xB9C0, symBinAddr: 0x43F20, symSize: 0x120 }
  - { offsetInCU: 0x352E3, offset: 0x98BDD, size: 0x8, addend: 0x0, symName: '__ZN4core3ptr94drop_in_place$LT$syn..punctuated..Punctuated$LT$syn..pat..FieldPat$C$syn..token..Comma$GT$$GT$17h7ace9efb18f43d12E', symObjAddr: 0xBAE0, symBinAddr: 0x44040, symSize: 0xF0 }
  - { offsetInCU: 0x355E2, offset: 0x98EDC, size: 0x8, addend: 0x0, symName: '__ZN4core3ptr94drop_in_place$LT$syn..punctuated..Punctuated$LT$syn..ty..BareFnArg$C$syn..token..Comma$GT$$GT$17hb29c6edaabe01c76E', symObjAddr: 0xBBD0, symBinAddr: 0x44130, symSize: 0xF0 }
  - { offsetInCU: 0x358E3, offset: 0x991DD, size: 0x8, addend: 0x0, symName: '__ZN4core3ptr96drop_in_place$LT$core..option..Option$LT$alloc..boxed..Box$LT$syn..path..PathSegment$GT$$GT$$GT$17hd919256ec958e698E.llvm.12993492063013606005', symObjAddr: 0xBCC0, symBinAddr: 0x44220, symSize: 0xA0 }
  - { offsetInCU: 0x35B81, offset: 0x9947B, size: 0x8, addend: 0x0, symName: '__ZN4core3ptr97drop_in_place$LT$syn..punctuated..Punctuated$LT$syn..expr..FieldValue$C$syn..token..Comma$GT$$GT$17he241ea7a3c55d267E', symObjAddr: 0xBDB0, symBinAddr: 0x442C0, symSize: 0xF0 }
  - { offsetInCU: 0x35E7E, offset: 0x99778, size: 0x8, addend: 0x0, symName: '__ZN4core3ptr98drop_in_place$LT$alloc..vec..Vec$LT$$LP$syn..path..GenericArgument$C$syn..token..Comma$RP$$GT$$GT$17ha96f98c42a71b3f5E', symObjAddr: 0xBEA0, symBinAddr: 0x443B0, symSize: 0xD0 }
  - { offsetInCU: 0x3619F, offset: 0x99A99, size: 0x8, addend: 0x0, symName: '__ZN4core3ptr98drop_in_place$LT$syn..punctuated..Punctuated$LT$syn..lifetime..Lifetime$C$syn..token..Plus$GT$$GT$17hb8f4279048db7792E.llvm.12993492063013606005', symObjAddr: 0xBF70, symBinAddr: 0x44480, symSize: 0xD0 }
  - { offsetInCU: 0x36613, offset: 0x99F0D, size: 0x8, addend: 0x0, symName: '__ZN4core3ptr99drop_in_place$LT$alloc..vec..Vec$LT$$LP$syn..generics..GenericParam$C$syn..token..Comma$RP$$GT$$GT$17h0ebde3eec9e72c7fE.llvm.12993492063013606005', symObjAddr: 0xC040, symBinAddr: 0x44550, symSize: 0x60 }
  - { offsetInCU: 0x3FE9B, offset: 0xA3795, size: 0x8, addend: 0x0, symName: __ZN4core4iter6traits8iterator8Iterator10advance_by17h0d371bacbf9eb25eE.llvm.12993492063013606005, symObjAddr: 0xCB70, symBinAddr: 0x449A0, symSize: 0x0 }
  - { offsetInCU: 0x401AF, offset: 0xA3AA9, size: 0x8, addend: 0x0, symName: __ZN4core4iter6traits8iterator8Iterator10advance_by17h38f5d91d00d5d4c8E.llvm.12993492063013606005, symObjAddr: 0xCCC0, symBinAddr: 0x44A10, symSize: 0x0 }
  - { offsetInCU: 0x404F4, offset: 0xA3DEE, size: 0x8, addend: 0x0, symName: __ZN4core4iter6traits8iterator8Iterator10advance_by17h5518c9a4b3065721E.llvm.12993492063013606005, symObjAddr: 0xCD30, symBinAddr: 0x44A80, symSize: 0x0 }
  - { offsetInCU: 0x4088A, offset: 0xA4184, size: 0x8, addend: 0x0, symName: __ZN4core4iter6traits8iterator8Iterator3nth17h0186aa7bd52321b9E.llvm.12993492063013606005, symObjAddr: 0xCE70, symBinAddr: 0x44AF0, symSize: 0x0 }
  - { offsetInCU: 0x40E9A, offset: 0xA4794, size: 0x8, addend: 0x0, symName: __ZN4core4iter6traits8iterator8Iterator3nth17h3888979b7ae2f214E.llvm.12993492063013606005, symObjAddr: 0xCFF0, symBinAddr: 0x44B70, symSize: 0x0 }
  - { offsetInCU: 0x414AA, offset: 0xA4DA4, size: 0x8, addend: 0x0, symName: __ZN4core4iter6traits8iterator8Iterator3nth17hef5b4a05ad4637c6E.llvm.12993492063013606005, symObjAddr: 0xD1F0, symBinAddr: 0x44BF0, symSize: 0x0 }
  - { offsetInCU: 0x41A69, offset: 0xA5363, size: 0x8, addend: 0x0, symName: __ZN4core4iter6traits8iterator8Iterator9size_hint17h17323e4608ab40e8E.llvm.12993492063013606005, symObjAddr: 0xD270, symBinAddr: 0x44C70, symSize: 0x0 }
  - { offsetInCU: 0x41B0E, offset: 0xA5408, size: 0x8, addend: 0x0, symName: __ZN4core4iter6traits10exact_size17ExactSizeIterator8is_empty17h394ec56775877e95E.llvm.12993492063013606005, symObjAddr: 0xC0A0, symBinAddr: 0x445B0, symSize: 0x0 }
  - { offsetInCU: 0x41CE0, offset: 0xA55DA, size: 0x8, addend: 0x0, symName: __ZN4core4iter6traits10exact_size17ExactSizeIterator8is_empty17h4e3cb24bb37f14f3E.llvm.12993492063013606005, symObjAddr: 0xC130, symBinAddr: 0x445E0, symSize: 0x0 }
  - { offsetInCU: 0x41EB2, offset: 0xA57AC, size: 0x8, addend: 0x0, symName: __ZN4core4iter6traits10exact_size17ExactSizeIterator8is_empty17h5425afa18a1d21daE.llvm.12993492063013606005, symObjAddr: 0xC160, symBinAddr: 0x44610, symSize: 0x0 }
  - { offsetInCU: 0x4202A, offset: 0xA5924, size: 0x8, addend: 0x0, symName: __ZN4core4iter6traits12double_ended19DoubleEndedIterator15advance_back_by17h2a5b507b69e3d987E.llvm.12993492063013606005, symObjAddr: 0xC310, symBinAddr: 0x44640, symSize: 0x0 }
  - { offsetInCU: 0x42279, offset: 0xA5B73, size: 0x8, addend: 0x0, symName: __ZN4core4iter6traits12double_ended19DoubleEndedIterator15advance_back_by17h67cefcaf175fed71E.llvm.12993492063013606005, symObjAddr: 0xC500, symBinAddr: 0x446C0, symSize: 0x0 }
  - { offsetInCU: 0x424C8, offset: 0xA5DC2, size: 0x8, addend: 0x0, symName: __ZN4core4iter6traits12double_ended19DoubleEndedIterator15advance_back_by17h804b094f4cd9fea3E.llvm.12993492063013606005, symObjAddr: 0xC580, symBinAddr: 0x44740, symSize: 0x0 }
  - { offsetInCU: 0x42763, offset: 0xA605D, size: 0x8, addend: 0x0, symName: __ZN4core4iter6traits12double_ended19DoubleEndedIterator8nth_back17h6938ae36395731a6E.llvm.12993492063013606005, symObjAddr: 0xC920, symBinAddr: 0x447C0, symSize: 0x0 }
  - { offsetInCU: 0x42C4E, offset: 0xA6548, size: 0x8, addend: 0x0, symName: __ZN4core4iter6traits12double_ended19DoubleEndedIterator8nth_back17h76549039f1473c66E.llvm.12993492063013606005, symObjAddr: 0xC9C0, symBinAddr: 0x44860, symSize: 0x0 }
  - { offsetInCU: 0x43139, offset: 0xA6A33, size: 0x8, addend: 0x0, symName: __ZN4core4iter6traits12double_ended19DoubleEndedIterator8nth_back17h7fc6f147a9c0cbf0E.llvm.12993492063013606005, symObjAddr: 0xCA60, symBinAddr: 0x44900, symSize: 0x0 }
  - { offsetInCU: 0x44800, offset: 0xA80FA, size: 0x8, addend: 0x0, symName: _anon.4b6e9015ad6d28b439abf99105985d01.12.llvm.12993492063013606005, symObjAddr: 0xF088, symBinAddr: 0x3446E8, symSize: 0x0 }
  - { offsetInCU: 0x44948, offset: 0xA8242, size: 0x8, addend: 0x0, symName: _anon.4b6e9015ad6d28b439abf99105985d01.27.llvm.12993492063013606005, symObjAddr: 0xF5D8, symBinAddr: 0x3447F8, symSize: 0x0 }
  - { offsetInCU: 0x477D3, offset: 0xAB0CD, size: 0x8, addend: 0x0, symName: '__ZN3syn10punctuated23Punctuated$LT$T$C$P$GT$10push_punct17h935210a2776c1110E.llvm.12993492063013606005', symObjAddr: 0x22A0, symBinAddr: 0x3B090, symSize: 0x110 }
  - { offsetInCU: 0x47BDA, offset: 0xAB4D4, size: 0x8, addend: 0x0, symName: '__ZN3syn10punctuated23Punctuated$LT$T$C$P$GT$10push_punct17hcb7eff33d3783432E', symObjAddr: 0x23B0, symBinAddr: 0x3B1A0, symSize: 0xF0 }
  - { offsetInCU: 0x47F9E, offset: 0xAB898, size: 0x8, addend: 0x0, symName: '__ZN3syn10punctuated23Punctuated$LT$T$C$P$GT$10push_value17ha629fc84a502ed10E.llvm.12993492063013606005', symObjAddr: 0x24A0, symBinAddr: 0x3B290, symSize: 0x100 }
  - { offsetInCU: 0x481EE, offset: 0xABAE8, size: 0x8, addend: 0x0, symName: '__ZN3syn10punctuated23Punctuated$LT$T$C$P$GT$10push_value17hb5d7337e4c96f11cE', symObjAddr: 0x25A0, symBinAddr: 0x3B390, symSize: 0xF0 }
  - { offsetInCU: 0x4884B, offset: 0xAC145, size: 0x8, addend: 0x0, symName: '__ZN3syn10punctuated23Punctuated$LT$T$C$P$GT$4push17h5d95078563ef9639E', symObjAddr: 0x2AD0, symBinAddr: 0x3B480, symSize: 0x50 }
  - { offsetInCU: 0x48BC9, offset: 0xAC4C3, size: 0x8, addend: 0x0, symName: '__ZN3syn10punctuated23Punctuated$LT$T$C$P$GT$4push17h79c072f521eeacdeE', symObjAddr: 0x2B20, symBinAddr: 0x3B4D0, symSize: 0x220 }
  - { offsetInCU: 0x4940B, offset: 0xACD05, size: 0x8, addend: 0x0, symName: '__ZN3syn10punctuated23Punctuated$LT$T$C$P$GT$4push17hac9b78e5bb72e259E', symObjAddr: 0x2D40, symBinAddr: 0x3B6F0, symSize: 0x1F0 }
  - { offsetInCU: 0x49AFB, offset: 0xAD3F5, size: 0x8, addend: 0x0, symName: '__ZN3syn10punctuated23Punctuated$LT$T$C$P$GT$4push17hb3c32cfe0d51e6f4E.llvm.12993492063013606005', symObjAddr: 0x2F30, symBinAddr: 0x3B8E0, symSize: 0x200 }
  - { offsetInCU: 0x1E, offset: 0xB4AEB, size: 0x8, addend: 0x0, symName: '__ZN45_$LT$$LP$$RP$$u20$as$u20$core..fmt..Debug$GT$3fmt17h91116db712cf64f3E', symObjAddr: 0x0, symBinAddr: 0x44E00, symSize: 0x20 }
  - { offsetInCU: 0x214, offset: 0xB4CE1, size: 0x8, addend: 0x0, symName: '__ZN58_$LT$alloc..string..String$u20$as$u20$core..fmt..Write$GT$10write_char17h04bc467bd68a934bE', symObjAddr: 0xAA00, symBinAddr: 0x4F7C0, symSize: 0x140 }
  - { offsetInCU: 0x619, offset: 0xB50E6, size: 0x8, addend: 0x0, symName: '__ZN58_$LT$alloc..string..String$u20$as$u20$core..fmt..Write$GT$9write_str17h46a93205c3443fbaE', symObjAddr: 0xAB40, symBinAddr: 0x4F900, symSize: 0x60 }
  - { offsetInCU: 0x87C, offset: 0xB5349, size: 0x8, addend: 0x0, symName: '__ZN60_$LT$alloc..string..String$u20$as$u20$core..fmt..Display$GT$3fmt17h0d0eb46f3054e2dfE', symObjAddr: 0xABA0, symBinAddr: 0x4F960, symSize: 0x20 }
  - { offsetInCU: 0x4E6B, offset: 0xB9938, size: 0x8, addend: 0x0, symName: '__ZN4core3ptr100drop_in_place$LT$core..option..Option$LT$alloc..boxed..Box$LT$syn..path..GenericArgument$GT$$GT$$GT$17h3c47f80d40da4ae4E', symObjAddr: 0x16E0, symBinAddr: 0x464A0, symSize: 0x50 }
  - { offsetInCU: 0x518D, offset: 0xB9C5A, size: 0x8, addend: 0x0, symName: '__ZN4core3ptr100drop_in_place$LT$syn..punctuated..Punctuated$LT$syn..path..PathSegment$C$syn..token..PathSep$GT$$GT$17hd34064dc93b0b427E', symObjAddr: 0x1730, symBinAddr: 0x464F0, symSize: 0x270 }
  - { offsetInCU: 0x5B4F, offset: 0xBA61C, size: 0x8, addend: 0x0, symName: '__ZN4core3ptr101drop_in_place$LT$core..option..Option$LT$alloc..vec..Vec$LT$syn..generics..WherePredicate$GT$$GT$$GT$17ha20f1622680c30deE', symObjAddr: 0x19A0, symBinAddr: 0x46760, symSize: 0xD0 }
  - { offsetInCU: 0x5E2C, offset: 0xBA8F9, size: 0x8, addend: 0x0, symName: '__ZN4core3ptr103drop_in_place$LT$core..option..Option$LT$alloc..boxed..Box$LT$syn..generics..TypeParamBound$GT$$GT$$GT$17hb98e913f9a9fba75E', symObjAddr: 0x1A70, symBinAddr: 0x46830, symSize: 0x50 }
  - { offsetInCU: 0x6075, offset: 0xBAB42, size: 0x8, addend: 0x0, symName: '__ZN4core3ptr103drop_in_place$LT$core..option..Option$LT$alloc..boxed..Box$LT$syn..generics..WherePredicate$GT$$GT$$GT$17ha8f5afb6495c5336E', symObjAddr: 0x1AC0, symBinAddr: 0x46880, symSize: 0xD0 }
  - { offsetInCU: 0x6409, offset: 0xBAED6, size: 0x8, addend: 0x0, symName: '__ZN4core3ptr103drop_in_place$LT$syn..punctuated..Punctuated$LT$syn..generics..GenericParam$C$syn..token..Comma$GT$$GT$17h706e4b03aaf6cee1E', symObjAddr: 0x1B90, symBinAddr: 0x46950, symSize: 0xF0 }
  - { offsetInCU: 0x68C6, offset: 0xBB393, size: 0x8, addend: 0x0, symName: '__ZN4core3ptr104drop_in_place$LT$syn..punctuated..Punctuated$LT$syn..generics..TypeParamBound$C$syn..token..Plus$GT$$GT$17h913c045198e2e1fdE', symObjAddr: 0x1C80, symBinAddr: 0x46A40, symSize: 0x240 }
  - { offsetInCU: 0x71BF, offset: 0xBBC8C, size: 0x8, addend: 0x0, symName: '__ZN4core3ptr116drop_in_place$LT$core..cell..RefCell$LT$core..option..Option$LT$alloc..vec..Vec$LT$syn..error..Error$GT$$GT$$GT$$GT$17h94421fe3ad5a4b05E', symObjAddr: 0x1EC0, symBinAddr: 0x46C80, symSize: 0x110 }
  - { offsetInCU: 0x7666, offset: 0xBC133, size: 0x8, addend: 0x0, symName: '__ZN4core3ptr34drop_in_place$LT$syn..lit..Lit$GT$17hab99994a68996a3fE', symObjAddr: 0x1FD0, symBinAddr: 0x46D90, symSize: 0x120 }
  - { offsetInCU: 0x7B35, offset: 0xBC602, size: 0x8, addend: 0x0, symName: '__ZN4core3ptr34drop_in_place$LT$syn..pat..Pat$GT$17h7d887fadf2c3cc6bE', symObjAddr: 0x20F0, symBinAddr: 0x46EB0, symSize: 0x1090 }
  - { offsetInCU: 0xBB35, offset: 0xC0602, size: 0x8, addend: 0x0, symName: '__ZN4core3ptr34drop_in_place$LT$syn..ty..Type$GT$17h11a872b3c8e5eef5E', symObjAddr: 0x3180, symBinAddr: 0x47F40, symSize: 0x4F0 }
  - { offsetInCU: 0xD078, offset: 0xC1B45, size: 0x8, addend: 0x0, symName: '__ZN4core3ptr36drop_in_place$LT$syn..expr..Expr$GT$17h62bf30adc41c0fafE', symObjAddr: 0x3670, symBinAddr: 0x48430, symSize: 0x27D0 }
  - { offsetInCU: 0x167AC, offset: 0xCB279, size: 0x8, addend: 0x0, symName: '__ZN4core3ptr36drop_in_place$LT$syn..mac..Macro$GT$17ha18d10f1233dedcaE', symObjAddr: 0x5E40, symBinAddr: 0x4AC00, symSize: 0x40 }
  - { offsetInCU: 0x167E6, offset: 0xCB2B3, size: 0x8, addend: 0x0, symName: '__ZN4core3ptr36drop_in_place$LT$syn..path..Path$GT$17hcca6c7d030660616E', symObjAddr: 0x5E80, symBinAddr: 0x4AC40, symSize: 0x240 }
  - { offsetInCU: 0x17180, offset: 0xCBC4D, size: 0x8, addend: 0x0, symName: '__ZN4core3ptr37drop_in_place$LT$syn..stmt..Block$GT$17haed62ed48b69364dE', symObjAddr: 0x60C0, symBinAddr: 0x4AE80, symSize: 0xD0 }
  - { offsetInCU: 0x17457, offset: 0xCBF24, size: 0x8, addend: 0x0, symName: '__ZN4core3ptr38drop_in_place$LT$syn..expr..Member$GT$17h594f47e3350a2be5E', symObjAddr: 0x6190, symBinAddr: 0x4AF50, symSize: 0x30 }
  - { offsetInCU: 0x17553, offset: 0xCC020, size: 0x8, addend: 0x0, symName: '__ZN4core3ptr39drop_in_place$LT$proc_macro2..Ident$GT$17h007be8bd6a71491bE', symObjAddr: 0x61C0, symBinAddr: 0x4AF80, symSize: 0x30 }
  - { offsetInCU: 0x17630, offset: 0xCC0FD, size: 0x8, addend: 0x0, symName: '__ZN4core3ptr40drop_in_place$LT$syn..ty..ReturnType$GT$17h14f04ba862eb52f4E', symObjAddr: 0x61F0, symBinAddr: 0x4AFB0, symSize: 0x50 }
  - { offsetInCU: 0x177A0, offset: 0xCC26D, size: 0x8, addend: 0x0, symName: '__ZN4core3ptr41drop_in_place$LT$syn..expr..ExprConst$GT$17h011fcb0f1d3d0fbcE', symObjAddr: 0x6240, symBinAddr: 0x4B000, symSize: 0x180 }
  - { offsetInCU: 0x17D59, offset: 0xCC826, size: 0x8, addend: 0x0, symName: '__ZN4core3ptr42drop_in_place$LT$alloc..string..String$GT$17h74ff1bf250fa5c97E', symObjAddr: 0x63C0, symBinAddr: 0x4B180, symSize: 0x20 }
  - { offsetInCU: 0x17E61, offset: 0xCC92E, size: 0x8, addend: 0x0, symName: '__ZN4core3ptr44drop_in_place$LT$syn..generics..Generics$GT$17he5ddc4e21d959fbdE', symObjAddr: 0x63E0, symBinAddr: 0x4B1A0, symSize: 0x40 }
  - { offsetInCU: 0x17E7E, offset: 0xCC94B, size: 0x8, addend: 0x0, symName: '__ZN4core3ptr44drop_in_place$LT$syn..lifetime..Lifetime$GT$17h81f5c412fc4e75a1E', symObjAddr: 0x6420, symBinAddr: 0x4B1E0, symSize: 0x30 }
  - { offsetInCU: 0x180B0, offset: 0xCCB7D, size: 0x8, addend: 0x0, symName: '__ZN4core3ptr45drop_in_place$LT$proc_macro2..TokenStream$GT$17h725968a5788a0c43E', symObjAddr: 0x6450, symBinAddr: 0x4B210, symSize: 0x140 }
  - { offsetInCU: 0x1854A, offset: 0xCD017, size: 0x8, addend: 0x0, symName: '__ZN4core3ptr45drop_in_place$LT$syn..generics..TypeParam$GT$17h2ddacbd5ce28b514E', symObjAddr: 0x6590, symBinAddr: 0x4B350, symSize: 0x230 }
  - { offsetInCU: 0x18D8B, offset: 0xCD858, size: 0x8, addend: 0x0, symName: '__ZN4core3ptr46drop_in_place$LT$syn..generics..ConstParam$GT$17h847551b4d11dedb8E', symObjAddr: 0x67C0, symBinAddr: 0x4B580, symSize: 0x150 }
  - { offsetInCU: 0x191D8, offset: 0xCDCA5, size: 0x8, addend: 0x0, symName: '__ZN4core3ptr47drop_in_place$LT$syn..path..GenericArgument$GT$17ha0f8621278069bfaE', symObjAddr: 0x6910, symBinAddr: 0x4B6D0, symSize: 0x4A0 }
  - { offsetInCU: 0x1A2DE, offset: 0xCEDAB, size: 0x8, addend: 0x0, symName: '__ZN4core3ptr49drop_in_place$LT$syn..generics..LifetimeParam$GT$17hd8de96c71b63fc49E', symObjAddr: 0x6DB0, symBinAddr: 0x4BB70, symSize: 0xF0 }
  - { offsetInCU: 0x1A6E0, offset: 0xCF1AD, size: 0x8, addend: 0x0, symName: '__ZN4core3ptr50drop_in_place$LT$serde_derive..ser..Parameters$GT$17h123a35e09cb215d8E', symObjAddr: 0x6EA0, symBinAddr: 0x4BC60, symSize: 0xA0 }
  - { offsetInCU: 0x1A810, offset: 0xCF2DD, size: 0x8, addend: 0x0, symName: '__ZN4core3ptr50drop_in_place$LT$syn..generics..TypeParamBound$GT$17hc0b3a8451b112484E', symObjAddr: 0x6F40, symBinAddr: 0x4BD00, symSize: 0xA0 }
  - { offsetInCU: 0x1A9F2, offset: 0xCF4BF, size: 0x8, addend: 0x0, symName: '__ZN4core3ptr55drop_in_place$LT$serde_derive..internals..ast..Data$GT$17h7977b1b4799a1e20E', symObjAddr: 0x6FE0, symBinAddr: 0x4BDA0, symSize: 0x150 }
  - { offsetInCU: 0x1B01F, offset: 0xCFAEC, size: 0x8, addend: 0x0, symName: '__ZN4core3ptr56drop_in_place$LT$serde_derive..internals..ctxt..Ctxt$GT$17h0cdcca7437be666dE', symObjAddr: 0x7130, symBinAddr: 0x4BEF0, symSize: 0x190 }
  - { offsetInCU: 0x1B5E7, offset: 0xD00B4, size: 0x8, addend: 0x0, symName: '__ZN4core3ptr58drop_in_place$LT$alloc..vec..Vec$LT$syn..expr..Arm$GT$$GT$17ha6d87cf8cb2f8625E', symObjAddr: 0x72C0, symBinAddr: 0x4C080, symSize: 0xD0 }
  - { offsetInCU: 0x1B8A7, offset: 0xD0374, size: 0x8, addend: 0x0, symName: '__ZN4core3ptr59drop_in_place$LT$alloc..boxed..Box$LT$syn..pat..Pat$GT$$GT$17h04b5a49dc338bf9cE', symObjAddr: 0x7390, symBinAddr: 0x4C150, symSize: 0x50 }
  - { offsetInCU: 0x1BA00, offset: 0xD04CD, size: 0x8, addend: 0x0, symName: '__ZN4core3ptr59drop_in_place$LT$alloc..boxed..Box$LT$syn..ty..Type$GT$$GT$17hfb8a09f23f7902beE', symObjAddr: 0x73E0, symBinAddr: 0x4C1A0, symSize: 0x50 }
  - { offsetInCU: 0x1BB59, offset: 0xD0626, size: 0x8, addend: 0x0, symName: '__ZN4core3ptr59drop_in_place$LT$serde_derive..internals..attr..Default$GT$17h19ba3e5d3d4746e2E', symObjAddr: 0x7430, symBinAddr: 0x4C1F0, symSize: 0x150 }
  - { offsetInCU: 0x1BFBC, offset: 0xD0A89, size: 0x8, addend: 0x0, symName: '__ZN4core3ptr59drop_in_place$LT$serde_derive..internals..attr..TagType$GT$17hf69892e87222ae2dE', symObjAddr: 0x7580, symBinAddr: 0x4C340, symSize: 0x80 }
  - { offsetInCU: 0x1C1CE, offset: 0xD0C9B, size: 0x8, addend: 0x0, symName: '__ZN4core3ptr60drop_in_place$LT$serde_derive..internals..ast..Container$GT$17h210b7485b26ce471E', symObjAddr: 0x7600, symBinAddr: 0x4C3C0, symSize: 0x70 }
  - { offsetInCU: 0x1C2CC, offset: 0xD0D99, size: 0x8, addend: 0x0, symName: '__ZN4core3ptr61drop_in_place$LT$alloc..boxed..Box$LT$syn..expr..Expr$GT$$GT$17hfe67d291b01d4939E', symObjAddr: 0x7670, symBinAddr: 0x4C430, symSize: 0x50 }
  - { offsetInCU: 0x1C444, offset: 0xD0F11, size: 0x8, addend: 0x0, symName: '__ZN4core3ptr61drop_in_place$LT$alloc..vec..Vec$LT$syn..expr..Member$GT$$GT$17he449a98c8d26f957E', symObjAddr: 0x76C0, symBinAddr: 0x4C480, symSize: 0x90 }
  - { offsetInCU: 0x1C7C3, offset: 0xD1290, size: 0x8, addend: 0x0, symName: '__ZN4core3ptr61drop_in_place$LT$serde_derive..internals..attr..Container$GT$17hb6b85895755a2b57E', symObjAddr: 0x7750, symBinAddr: 0x4C510, symSize: 0x4A0 }
  - { offsetInCU: 0x1D846, offset: 0xD2313, size: 0x8, addend: 0x0, symName: '__ZN4core3ptr61drop_in_place$LT$syn..path..ParenthesizedGenericArguments$GT$17hc6164008a0f156caE', symObjAddr: 0x7BF0, symBinAddr: 0x4C9B0, symSize: 0x170 }
  - { offsetInCU: 0x1DE3C, offset: 0xD2909, size: 0x8, addend: 0x0, symName: '__ZN4core3ptr62drop_in_place$LT$syn..path..AngleBracketedGenericArguments$GT$17h0299086782c6da12E', symObjAddr: 0x7D60, symBinAddr: 0x4CB20, symSize: 0x120 }
  - { offsetInCU: 0x1E287, offset: 0xD2D54, size: 0x8, addend: 0x0, symName: '__ZN4core3ptr63drop_in_place$LT$alloc..boxed..Box$LT$syn..lit..LitRepr$GT$$GT$17hf2595df28a7ce13bE', symObjAddr: 0x7E80, symBinAddr: 0x4CC40, symSize: 0x60 }
  - { offsetInCU: 0x1E56F, offset: 0xD303C, size: 0x8, addend: 0x0, symName: '__ZN4core3ptr64drop_in_place$LT$alloc..boxed..Box$LT$syn..pat..FieldPat$GT$$GT$17hb9cdd4a04c64745aE', symObjAddr: 0x7EE0, symBinAddr: 0x4CCA0, symSize: 0x140 }
  - { offsetInCU: 0x1EC3C, offset: 0xD3709, size: 0x8, addend: 0x0, symName: '__ZN4core3ptr64drop_in_place$LT$alloc..boxed..Box$LT$syn..ty..BareFnArg$GT$$GT$17hdf9a99e9a3e43b93E', symObjAddr: 0x8020, symBinAddr: 0x4CDE0, symSize: 0x140 }
  - { offsetInCU: 0x1F191, offset: 0xD3C5E, size: 0x8, addend: 0x0, symName: '__ZN4core3ptr65drop_in_place$LT$alloc..vec..Vec$LT$proc_macro..TokenTree$GT$$GT$17h07ad17327f0607d0E', symObjAddr: 0x8160, symBinAddr: 0x4CF20, symSize: 0x110 }
  - { offsetInCU: 0x1F589, offset: 0xD4056, size: 0x8, addend: 0x0, symName: '__ZN4core3ptr65drop_in_place$LT$core..option..Option$LT$syn..expr..Label$GT$$GT$17h7370f4cd7d051021E', symObjAddr: 0x8270, symBinAddr: 0x4D030, symSize: 0x30 }
  - { offsetInCU: 0x1F6C3, offset: 0xD4190, size: 0x8, addend: 0x0, symName: '__ZN4core3ptr65drop_in_place$LT$core..option..Option$LT$syn..path..QSelf$GT$$GT$17h9bc6bd805f4b805bE', symObjAddr: 0x82A0, symBinAddr: 0x4D060, symSize: 0x50 }
  - { offsetInCU: 0x1F844, offset: 0xD4311, size: 0x8, addend: 0x0, symName: '__ZN4core3ptr66drop_in_place$LT$core..option..Option$LT$syn..pat..PatRest$GT$$GT$17h56243b82155d1306E', symObjAddr: 0x82F0, symBinAddr: 0x4D0B0, symSize: 0xE0 }
  - { offsetInCU: 0x1FB38, offset: 0xD4605, size: 0x8, addend: 0x0, symName: '__ZN4core3ptr67drop_in_place$LT$alloc..boxed..Box$LT$syn..expr..FieldValue$GT$$GT$17hdb569e1e168cfcafE', symObjAddr: 0x83D0, symBinAddr: 0x4D190, symSize: 0x140 }
  - { offsetInCU: 0x2006D, offset: 0xD4B3A, size: 0x8, addend: 0x0, symName: '__ZN4core3ptr68drop_in_place$LT$alloc..boxed..Box$LT$syn..path..PathSegment$GT$$GT$17h8bc236a2626e080dE', symObjAddr: 0x8510, symBinAddr: 0x4D2D0, symSize: 0x1B0 }
  - { offsetInCU: 0x2077B, offset: 0xD5248, size: 0x8, addend: 0x0, symName: '__ZN4core3ptr68drop_in_place$LT$alloc..vec..Vec$LT$proc_macro2..TokenStream$GT$$GT$17h89f8e818f58e8351E', symObjAddr: 0x86C0, symBinAddr: 0x4D480, symSize: 0xC0 }
  - { offsetInCU: 0x20A58, offset: 0xD5525, size: 0x8, addend: 0x0, symName: '__ZN4core3ptr70drop_in_place$LT$core..option..Option$LT$syn..ty..BareVariadic$GT$$GT$17h891315fdf14c9598E', symObjAddr: 0x8780, symBinAddr: 0x4D540, symSize: 0x100 }
  - { offsetInCU: 0x20E8F, offset: 0xD595C, size: 0x8, addend: 0x0, symName: '__ZN4core3ptr72drop_in_place$LT$alloc..boxed..Box$LT$syn..path..GenericArgument$GT$$GT$17ha22f3de00ed22d7dE', symObjAddr: 0x8880, symBinAddr: 0x4D640, symSize: 0x2B0 }
  - { offsetInCU: 0x21847, offset: 0xD6314, size: 0x8, addend: 0x0, symName: '__ZN4core3ptr72drop_in_place$LT$core..option..Option$LT$syn..lifetime..Lifetime$GT$$GT$17h738a5902efee9f55E', symObjAddr: 0x8B30, symBinAddr: 0x4D8F0, symSize: 0x30 }
  - { offsetInCU: 0x21962, offset: 0xD642F, size: 0x8, addend: 0x0, symName: '__ZN4core3ptr73drop_in_place$LT$alloc..boxed..Box$LT$syn..generics..GenericParam$GT$$GT$17h4a82c3bd6b9e6f81E', symObjAddr: 0x8B60, symBinAddr: 0x4D920, symSize: 0x80 }
  - { offsetInCU: 0x21AD8, offset: 0xD65A5, size: 0x8, addend: 0x0, symName: '__ZN4core3ptr75drop_in_place$LT$alloc..boxed..Box$LT$syn..generics..TypeParamBound$GT$$GT$17h47c0b9686bcdda20E', symObjAddr: 0x8BE0, symBinAddr: 0x4D9A0, symSize: 0x180 }
  - { offsetInCU: 0x220E3, offset: 0xD6BB0, size: 0x8, addend: 0x0, symName: '__ZN4core3ptr75drop_in_place$LT$core..option..Option$LT$syn..generics..WhereClause$GT$$GT$17ha14a8b033395cd67E', symObjAddr: 0x8D60, symBinAddr: 0x4DB20, symSize: 0x100 }
  - { offsetInCU: 0x2249A, offset: 0xD6F67, size: 0x8, addend: 0x0, symName: '__ZN4core3ptr86drop_in_place$LT$syn..punctuated..Punctuated$LT$syn..pat..Pat$C$syn..token..Or$GT$$GT$17h028803b51a0e008cE', symObjAddr: 0x8E60, symBinAddr: 0x4DC20, symSize: 0x120 }
  - { offsetInCU: 0x22915, offset: 0xD73E2, size: 0x8, addend: 0x0, symName: '__ZN4core3ptr87drop_in_place$LT$core..option..Option$LT$alloc..boxed..Box$LT$syn..pat..Pat$GT$$GT$$GT$17h47e4534cb825f5fbE', symObjAddr: 0x8F80, symBinAddr: 0x4DD40, symSize: 0x50 }
  - { offsetInCU: 0x22A85, offset: 0xD7552, size: 0x8, addend: 0x0, symName: '__ZN4core3ptr87drop_in_place$LT$core..option..Option$LT$alloc..boxed..Box$LT$syn..ty..Type$GT$$GT$$GT$17hb21c4c429b95d768E', symObjAddr: 0x8FD0, symBinAddr: 0x4DD90, symSize: 0x50 }
  - { offsetInCU: 0x22BF5, offset: 0xD76C2, size: 0x8, addend: 0x0, symName: '__ZN4core3ptr89drop_in_place$LT$core..option..Option$LT$alloc..boxed..Box$LT$syn..expr..Expr$GT$$GT$$GT$17h0b10c8a8945d61ceE', symObjAddr: 0x9020, symBinAddr: 0x4DDE0, symSize: 0x50 }
  - { offsetInCU: 0x22DA3, offset: 0xD7870, size: 0x8, addend: 0x0, symName: '__ZN4core3ptr89drop_in_place$LT$syn..punctuated..Punctuated$LT$syn..pat..Pat$C$syn..token..Comma$GT$$GT$17h0f70228e7daac378E', symObjAddr: 0x9070, symBinAddr: 0x4DE30, symSize: 0x120 }
  - { offsetInCU: 0x23235, offset: 0xD7D02, size: 0x8, addend: 0x0, symName: '__ZN4core3ptr89drop_in_place$LT$syn..punctuated..Punctuated$LT$syn..ty..Type$C$syn..token..Comma$GT$$GT$17h0317a8a9919e8789E', symObjAddr: 0x9190, symBinAddr: 0x4DF50, symSize: 0x120 }
  - { offsetInCU: 0x236B0, offset: 0xD817D, size: 0x8, addend: 0x0, symName: '__ZN4core3ptr90drop_in_place$LT$core..option..Option$LT$syn..path..AngleBracketedGenericArguments$GT$$GT$17h9646b437ffecef94E', symObjAddr: 0x92B0, symBinAddr: 0x4E070, symSize: 0x130 }
  - { offsetInCU: 0x23B52, offset: 0xD861F, size: 0x8, addend: 0x0, symName: '__ZN4core3ptr91drop_in_place$LT$syn..punctuated..Punctuated$LT$syn..expr..Expr$C$syn..token..Comma$GT$$GT$17hd3047ab334148524E', symObjAddr: 0x93E0, symBinAddr: 0x4E1A0, symSize: 0x120 }
  - { offsetInCU: 0x23FE0, offset: 0xD8AAD, size: 0x8, addend: 0x0, symName: '__ZN4core3ptr94drop_in_place$LT$syn..punctuated..Punctuated$LT$syn..pat..FieldPat$C$syn..token..Comma$GT$$GT$17h7ace9efb18f43d12E', symObjAddr: 0x9500, symBinAddr: 0x4E2C0, symSize: 0xF0 }
  - { offsetInCU: 0x242DF, offset: 0xD8DAC, size: 0x8, addend: 0x0, symName: '__ZN4core3ptr94drop_in_place$LT$syn..punctuated..Punctuated$LT$syn..ty..BareFnArg$C$syn..token..Comma$GT$$GT$17hb29c6edaabe01c76E', symObjAddr: 0x95F0, symBinAddr: 0x4E3B0, symSize: 0xF0 }
  - { offsetInCU: 0x245E0, offset: 0xD90AD, size: 0x8, addend: 0x0, symName: '__ZN4core3ptr96drop_in_place$LT$core..option..Option$LT$alloc..boxed..Box$LT$syn..path..PathSegment$GT$$GT$$GT$17hd919256ec958e698E', symObjAddr: 0x96E0, symBinAddr: 0x4E4A0, symSize: 0xA0 }
  - { offsetInCU: 0x2485F, offset: 0xD932C, size: 0x8, addend: 0x0, symName: '__ZN4core3ptr97drop_in_place$LT$syn..punctuated..Punctuated$LT$syn..expr..FieldValue$C$syn..token..Comma$GT$$GT$17he241ea7a3c55d267E', symObjAddr: 0x9780, symBinAddr: 0x4E540, symSize: 0xF0 }
  - { offsetInCU: 0x24B5C, offset: 0xD9629, size: 0x8, addend: 0x0, symName: '__ZN4core3ptr98drop_in_place$LT$alloc..vec..Vec$LT$$LP$syn..path..GenericArgument$C$syn..token..Comma$RP$$GT$$GT$17ha96f98c42a71b3f5E', symObjAddr: 0x9870, symBinAddr: 0x4E630, symSize: 0xD0 }
  - { offsetInCU: 0x24E9C, offset: 0xD9969, size: 0x8, addend: 0x0, symName: '__ZN4core3ptr98drop_in_place$LT$syn..punctuated..Punctuated$LT$syn..lifetime..Lifetime$C$syn..token..Plus$GT$$GT$17hb8f4279048db7792E', symObjAddr: 0x9940, symBinAddr: 0x4E700, symSize: 0xD0 }
  - { offsetInCU: 0x25E14, offset: 0xDA8E1, size: 0x8, addend: 0x0, symName: '__ZN45_$LT$$LP$$RP$$u20$as$u20$core..fmt..Debug$GT$3fmt17h91116db712cf64f3E', symObjAddr: 0x0, symBinAddr: 0x44E00, symSize: 0x20 }
  - { offsetInCU: 0x25F1F, offset: 0xDA9EC, size: 0x8, addend: 0x0, symName: '__ZN53_$LT$core..fmt..Error$u20$as$u20$core..fmt..Debug$GT$3fmt17h03dc662ab152f3aeE', symObjAddr: 0xA9E0, symBinAddr: 0x4F7A0, symSize: 0x20 }
  - { offsetInCU: 0x28E76, offset: 0xDD943, size: 0x8, addend: 0x0, symName: '__ZN4core3ops8function5impls80_$LT$impl$u20$core..ops..function..FnOnce$LT$A$GT$$u20$for$u20$$RF$mut$u20$F$GT$9call_once17h74ccfcbf0503b586E', symObjAddr: 0x60, symBinAddr: 0x44E20, symSize: 0x960 }
  - { offsetInCU: 0x29774, offset: 0xDE241, size: 0x8, addend: 0x0, symName: '__ZN4core3ops8function5impls80_$LT$impl$u20$core..ops..function..FnOnce$LT$A$GT$$u20$for$u20$$RF$mut$u20$F$GT$9call_once17h8524f22293363b58E', symObjAddr: 0x9C0, symBinAddr: 0x45780, symSize: 0xD20 }
  - { offsetInCU: 0x2A2E4, offset: 0xDEDB1, size: 0x8, addend: 0x0, symName: '__ZN4core4iter8adapters3map8map_fold28_$u7b$$u7b$closure$u7d$$u7d$17h6e43b5cdf1c1f79fE', symObjAddr: 0x9A10, symBinAddr: 0x4E7D0, symSize: 0x4D0 }
  - { offsetInCU: 0x2A92A, offset: 0xDF3F7, size: 0x8, addend: 0x0, symName: '__ZN4core4iter8adapters3map8map_fold28_$u7b$$u7b$closure$u7d$$u7d$17ha8cd53d6987bd0cfE', symObjAddr: 0x9EE0, symBinAddr: 0x4ECA0, symSize: 0x360 }
  - { offsetInCU: 0x2AB34, offset: 0xDF601, size: 0x8, addend: 0x0, symName: '__ZN4core4iter8adapters3map8map_fold28_$u7b$$u7b$closure$u7d$$u7d$17hea388a02aa44fbc8E', symObjAddr: 0xA240, symBinAddr: 0x4F000, symSize: 0x410 }
  - { offsetInCU: 0x2AF32, offset: 0xDF9FF, size: 0x8, addend: 0x0, symName: '__ZN4core4iter8adapters3map8map_fold28_$u7b$$u7b$closure$u7d$$u7d$17heacf4c2488dab07cE', symObjAddr: 0xA650, symBinAddr: 0x4F410, symSize: 0x390 }
  - { offsetInCU: 0x2EB96, offset: 0xE3663, size: 0x8, addend: 0x0, symName: __ZN12serde_derive3ser23expand_derive_serialize17h6d175506dba56c5cE, symObjAddr: 0xAC00, symBinAddr: 0x4F9C0, symSize: 0x13B0 }
  - { offsetInCU: 0x2FB3C, offset: 0xE4609, size: 0x8, addend: 0x0, symName: __ZN12serde_derive3ser21needs_serialize_bound17h3e072f5a5cea0e51E, symObjAddr: 0xC0D0, symBinAddr: 0x50E90, symSize: 0x60 }
  - { offsetInCU: 0x303FC, offset: 0xE4EC9, size: 0x8, addend: 0x0, symName: __ZN12serde_derive3ser14serialize_body17h745cbdf8303eddd2E, symObjAddr: 0xC130, symBinAddr: 0x50EF0, symSize: 0x2630 }
  - { offsetInCU: 0x33104, offset: 0xE7BD1, size: 0x8, addend: 0x0, symName: __ZN12serde_derive3ser26serialize_struct_tag_field17hfc07a3c953afee68E, symObjAddr: 0xE760, symBinAddr: 0x53520, symSize: 0x1C0 }
  - { offsetInCU: 0x33785, offset: 0xE8252, size: 0x8, addend: 0x0, symName: __ZN12serde_derive3ser17serialize_variant17h3da88ccb3e9c6b2aE, symObjAddr: 0xE920, symBinAddr: 0x536E0, symSize: 0x2B40 }
  - { offsetInCU: 0x361E9, offset: 0xEACB6, size: 0x8, addend: 0x0, symName: __ZN12serde_derive3ser35serialize_adjacently_tagged_variant17hd4dcfb46068c3277E, symObjAddr: 0x11460, symBinAddr: 0x56220, symSize: 0x2450 }
  - { offsetInCU: 0x37973, offset: 0xEC440, size: 0x8, addend: 0x0, symName: __ZN12serde_derive3ser23serialize_tuple_variant17h116ce3b866e1dc76E, symObjAddr: 0x138B0, symBinAddr: 0x58670, symSize: 0xA70 }
  - { offsetInCU: 0x38C8A, offset: 0xED757, size: 0x8, addend: 0x0, symName: __ZN12serde_derive3ser24serialize_struct_variant17h72355a90eb7ee0eaE, symObjAddr: 0x14320, symBinAddr: 0x590E0, symSize: 0x29D0 }
  - { offsetInCU: 0x3AF76, offset: 0xEFA43, size: 0x8, addend: 0x0, symName: __ZN12serde_derive3ser25wrap_serialize_field_with17h22b9461db4a97d76E, symObjAddr: 0x16CF0, symBinAddr: 0x5BAB0, symSize: 0xC0 }
  - { offsetInCU: 0x3B062, offset: 0xEFB2F, size: 0x8, addend: 0x0, symName: __ZN12serde_derive3ser27wrap_serialize_variant_with17h5c398b082b713e8cE, symObjAddr: 0x16DB0, symBinAddr: 0x5BB70, symSize: 0x2A0 }
  - { offsetInCU: 0x3BAF1, offset: 0xF05BE, size: 0x8, addend: 0x0, symName: __ZN12serde_derive3ser19wrap_serialize_with17h2c78c93967c1ba10E, symObjAddr: 0x17050, symBinAddr: 0x5BE10, symSize: 0xC10 }
  - { offsetInCU: 0x3C4DA, offset: 0xF0FA7, size: 0x8, addend: 0x0, symName: __ZN12serde_derive3ser10get_member17hb30c8d8058bd09dbE, symObjAddr: 0x17C60, symBinAddr: 0x5CA20, symSize: 0x650 }
  - { offsetInCU: 0x45CF4, offset: 0xFA7C1, size: 0x8, addend: 0x0, symName: __ZN12serde_derive9internals4attr7Variant9ser_bound17h61f087dd75b1a7d4E, symObjAddr: 0xABC0, symBinAddr: 0x4F980, symSize: 0x20 }
  - { offsetInCU: 0x45D71, offset: 0xFA83E, size: 0x8, addend: 0x0, symName: __ZN12serde_derive9internals4attr5Field9ser_bound17hc2364e718e984780E, symObjAddr: 0xABE0, symBinAddr: 0x4F9A0, symSize: 0x20 }
  - { offsetInCU: 0x46263, offset: 0xFAD30, size: 0x8, addend: 0x0, symName: __ZN12serde_derive3ser10Parameters9type_name17hf55eb06d633dc696E, symObjAddr: 0xBFB0, symBinAddr: 0x50D70, symSize: 0x120 }
  - { offsetInCU: 0x4864E, offset: 0xFD11B, size: 0x8, addend: 0x0, symName: __ZN12serde_derive3ser11StructTrait15serialize_field17h0c1ae10233eeabefE, symObjAddr: 0x182B0, symBinAddr: 0x5D070, symSize: 0x238 }
  - { offsetInCU: 0x1E, offset: 0x102841, size: 0x8, addend: 0x0, symName: '__ZN40_$LT$F$u20$as$u20$syn..parse..Parser$GT$14__parse_scoped17h6809cfbc76ba3321E', symObjAddr: 0x0, symBinAddr: 0x5D2B0, symSize: 0x8F0 }
  - { offsetInCU: 0x196, offset: 0x1029B9, size: 0x8, addend: 0x0, symName: '__ZN58_$LT$alloc..string..String$u20$as$u20$core..fmt..Debug$GT$3fmt17h46296bde07017096E', symObjAddr: 0x9340, symBinAddr: 0x665F0, symSize: 0x20 }
  - { offsetInCU: 0x287, offset: 0x102AAA, size: 0x8, addend: 0x0, symName: '__ZN58_$LT$alloc..string..String$u20$as$u20$core..fmt..Write$GT$10write_char17h04bc467bd68a934bE', symObjAddr: 0x9360, symBinAddr: 0x66610, symSize: 0x140 }
  - { offsetInCU: 0x68C, offset: 0x102EAF, size: 0x8, addend: 0x0, symName: '__ZN58_$LT$alloc..string..String$u20$as$u20$core..fmt..Write$GT$9write_str17h46a93205c3443fbaE', symObjAddr: 0x94A0, symBinAddr: 0x66750, symSize: 0x60 }
  - { offsetInCU: 0x8EF, offset: 0x103112, size: 0x8, addend: 0x0, symName: '__ZN60_$LT$alloc..string..String$u20$as$u20$core..fmt..Display$GT$3fmt17h0d0eb46f3054e2dfE', symObjAddr: 0x9500, symBinAddr: 0x667B0, symSize: 0x20 }
  - { offsetInCU: 0x597E, offset: 0x1081A1, size: 0x8, addend: 0x0, symName: '__ZN4core3ptr100drop_in_place$LT$core..option..Option$LT$alloc..boxed..Box$LT$syn..path..GenericArgument$GT$$GT$$GT$17h3c47f80d40da4ae4E', symObjAddr: 0xE30, symBinAddr: 0x5E0E0, symSize: 0x50 }
  - { offsetInCU: 0x5CA0, offset: 0x1084C3, size: 0x8, addend: 0x0, symName: '__ZN4core3ptr100drop_in_place$LT$syn..punctuated..Punctuated$LT$syn..path..PathSegment$C$syn..token..PathSep$GT$$GT$17hd34064dc93b0b427E.llvm.6562949390685846916', symObjAddr: 0xE80, symBinAddr: 0x5E130, symSize: 0x270 }
  - { offsetInCU: 0x6662, offset: 0x108E85, size: 0x8, addend: 0x0, symName: '__ZN4core3ptr101drop_in_place$LT$core..option..Option$LT$alloc..vec..Vec$LT$syn..generics..WherePredicate$GT$$GT$$GT$17ha20f1622680c30deE', symObjAddr: 0x10F0, symBinAddr: 0x5E3A0, symSize: 0xD0 }
  - { offsetInCU: 0x695E, offset: 0x109181, size: 0x8, addend: 0x0, symName: '__ZN4core3ptr102drop_in_place$LT$serde_derive..internals..attr..Attr$LT$serde_derive..internals..attr..Default$GT$$GT$17hf83111267fdab8c6E', symObjAddr: 0x11C0, symBinAddr: 0x5E470, symSize: 0x70 }
  - { offsetInCU: 0x6A17, offset: 0x10923A, size: 0x8, addend: 0x0, symName: '__ZN4core3ptr103drop_in_place$LT$core..option..Option$LT$alloc..boxed..Box$LT$syn..generics..TypeParamBound$GT$$GT$$GT$17hb98e913f9a9fba75E', symObjAddr: 0x1230, symBinAddr: 0x5E4E0, symSize: 0x50 }
  - { offsetInCU: 0x6C22, offset: 0x109445, size: 0x8, addend: 0x0, symName: '__ZN4core3ptr103drop_in_place$LT$syn..punctuated..Punctuated$LT$syn..generics..GenericParam$C$syn..token..Comma$GT$$GT$17h706e4b03aaf6cee1E', symObjAddr: 0x1280, symBinAddr: 0x5E530, symSize: 0xF0 }
  - { offsetInCU: 0x70FE, offset: 0x109921, size: 0x8, addend: 0x0, symName: '__ZN4core3ptr104drop_in_place$LT$syn..punctuated..Punctuated$LT$syn..generics..TypeParamBound$C$syn..token..Plus$GT$$GT$17h913c045198e2e1fdE', symObjAddr: 0x1370, symBinAddr: 0x5E620, symSize: 0x190 }
  - { offsetInCU: 0x775F, offset: 0x109F82, size: 0x8, addend: 0x0, symName: '__ZN4core3ptr105drop_in_place$LT$core..option..Option$LT$$LP$proc_macro2..TokenStream$C$alloc..string..String$RP$$GT$$GT$17hd3612c010c975078E', symObjAddr: 0x1500, symBinAddr: 0x5E7B0, symSize: 0x60 }
  - { offsetInCU: 0x7A17, offset: 0x10A23A, size: 0x8, addend: 0x0, symName: '__ZN4core3ptr110drop_in_place$LT$serde_derive..internals..attr..Attr$LT$serde_derive..internals..attr..BorrowAttribute$GT$$GT$17h1059cd0fd56c3238E', symObjAddr: 0x1560, symBinAddr: 0x5E810, symSize: 0x120 }
  - { offsetInCU: 0x7E50, offset: 0x10A673, size: 0x8, addend: 0x0, symName: '__ZN4core3ptr116drop_in_place$LT$serde_derive..internals..attr..Attr$LT$alloc..vec..Vec$LT$syn..generics..WherePredicate$GT$$GT$$GT$17h99559c02ecb4c82dE', symObjAddr: 0x1680, symBinAddr: 0x5E930, symSize: 0xF0 }
  - { offsetInCU: 0x8181, offset: 0x10A9A4, size: 0x8, addend: 0x0, symName: '__ZN4core3ptr119drop_in_place$LT$serde_derive..internals..attr..VecAttr$LT$alloc..vec..Vec$LT$syn..generics..WherePredicate$GT$$GT$$GT$17h0888c03b525a2039E', symObjAddr: 0x1770, symBinAddr: 0x5EA20, symSize: 0x90 }
  - { offsetInCU: 0x83CD, offset: 0x10ABF0, size: 0x8, addend: 0x0, symName: '__ZN4core3ptr135drop_in_place$LT$serde_derive..internals..attr..Attr$LT$alloc..collections..btree..set..BTreeSet$LT$syn..lifetime..Lifetime$GT$$GT$$GT$17hb553cbab60b69e4aE', symObjAddr: 0x1800, symBinAddr: 0x5EAB0, symSize: 0x100 }
  - { offsetInCU: 0x8816, offset: 0x10B039, size: 0x8, addend: 0x0, symName: '__ZN4core3ptr140drop_in_place$LT$core..result..Result$LT$alloc..collections..btree..set..BTreeSet$LT$syn..lifetime..Lifetime$GT$$C$syn..error..Error$GT$$GT$17he78b1929d2b29317E', symObjAddr: 0x1900, symBinAddr: 0x5EBB0, symSize: 0x140 }
  - { offsetInCU: 0x8E8A, offset: 0x10B6AD, size: 0x8, addend: 0x0, symName: '__ZN4core3ptr34drop_in_place$LT$syn..lit..Lit$GT$17hab99994a68996a3fE', symObjAddr: 0x1A40, symBinAddr: 0x5ECF0, symSize: 0x120 }
  - { offsetInCU: 0x9359, offset: 0x10BB7C, size: 0x8, addend: 0x0, symName: '__ZN4core3ptr34drop_in_place$LT$syn..pat..Pat$GT$17h7d887fadf2c3cc6bE', symObjAddr: 0x1B60, symBinAddr: 0x5EE10, symSize: 0xEE0 }
  - { offsetInCU: 0xCB7F, offset: 0x10F3A2, size: 0x8, addend: 0x0, symName: '__ZN4core3ptr34drop_in_place$LT$syn..ty..Type$GT$17h11a872b3c8e5eef5E.llvm.6562949390685846916', symObjAddr: 0x2A40, symBinAddr: 0x5FCF0, symSize: 0x4F0 }
  - { offsetInCU: 0xE0C2, offset: 0x1108E5, size: 0x8, addend: 0x0, symName: '__ZN4core3ptr36drop_in_place$LT$syn..expr..Expr$GT$17h62bf30adc41c0fafE', symObjAddr: 0x2F30, symBinAddr: 0x601E0, symSize: 0x2680 }
  - { offsetInCU: 0x172DC, offset: 0x119AFF, size: 0x8, addend: 0x0, symName: '__ZN4core3ptr36drop_in_place$LT$syn..mac..Macro$GT$17ha18d10f1233dedcaE', symObjAddr: 0x55B0, symBinAddr: 0x62860, symSize: 0x40 }
  - { offsetInCU: 0x17316, offset: 0x119B39, size: 0x8, addend: 0x0, symName: '__ZN4core3ptr36drop_in_place$LT$syn..path..Path$GT$17hcca6c7d030660616E.llvm.6562949390685846916', symObjAddr: 0x55F0, symBinAddr: 0x628A0, symSize: 0x240 }
  - { offsetInCU: 0x17CB0, offset: 0x11A4D3, size: 0x8, addend: 0x0, symName: '__ZN4core3ptr37drop_in_place$LT$syn..path..QSelf$GT$17hc2683559bd3703f9E.llvm.6562949390685846916', symObjAddr: 0x5830, symBinAddr: 0x62AE0, symSize: 0x50 }
  - { offsetInCU: 0x17E28, offset: 0x11A64B, size: 0x8, addend: 0x0, symName: '__ZN4core3ptr37drop_in_place$LT$syn..stmt..Block$GT$17haed62ed48b69364dE', symObjAddr: 0x5880, symBinAddr: 0x62B30, symSize: 0xD0 }
  - { offsetInCU: 0x180FF, offset: 0x11A922, size: 0x8, addend: 0x0, symName: '__ZN4core3ptr38drop_in_place$LT$syn..expr..Member$GT$17h594f47e3350a2be5E', symObjAddr: 0x5950, symBinAddr: 0x62C00, symSize: 0x30 }
  - { offsetInCU: 0x181FB, offset: 0x11AA1E, size: 0x8, addend: 0x0, symName: '__ZN4core3ptr39drop_in_place$LT$proc_macro2..Ident$GT$17h007be8bd6a71491bE', symObjAddr: 0x5980, symBinAddr: 0x62C30, symSize: 0x30 }
  - { offsetInCU: 0x1840E, offset: 0x11AC31, size: 0x8, addend: 0x0, symName: '__ZN4core3ptr39drop_in_place$LT$syn..buffer..Entry$GT$17hf8a37ae2db8c8c8eE', symObjAddr: 0x59B0, symBinAddr: 0x62C60, symSize: 0xB0 }
  - { offsetInCU: 0x18799, offset: 0x11AFBC, size: 0x8, addend: 0x0, symName: '__ZN4core3ptr40drop_in_place$LT$syn..expr..ExprPath$GT$17heaa068b65b1423afE.llvm.6562949390685846916', symObjAddr: 0x5A60, symBinAddr: 0x62D10, symSize: 0x120 }
  - { offsetInCU: 0x18C49, offset: 0x11B46C, size: 0x8, addend: 0x0, symName: '__ZN4core3ptr40drop_in_place$LT$syn..ty..ReturnType$GT$17h14f04ba862eb52f4E', symObjAddr: 0x5B80, symBinAddr: 0x62E30, symSize: 0x50 }
  - { offsetInCU: 0x18DB9, offset: 0x11B5DC, size: 0x8, addend: 0x0, symName: '__ZN4core3ptr41drop_in_place$LT$syn..expr..ExprConst$GT$17h011fcb0f1d3d0fbcE', symObjAddr: 0x5BD0, symBinAddr: 0x62E80, symSize: 0x180 }
  - { offsetInCU: 0x19372, offset: 0x11BB95, size: 0x8, addend: 0x0, symName: '__ZN4core3ptr42drop_in_place$LT$alloc..string..String$GT$17h74ff1bf250fa5c97E.llvm.6562949390685846916', symObjAddr: 0x5D50, symBinAddr: 0x63000, symSize: 0x20 }
  - { offsetInCU: 0x1947A, offset: 0x11BC9D, size: 0x8, addend: 0x0, symName: '__ZN4core3ptr43drop_in_place$LT$proc_macro2..TokenTree$GT$17hfc5c5bf9a9e0ef9cE', symObjAddr: 0x5D70, symBinAddr: 0x63020, symSize: 0xB0 }
  - { offsetInCU: 0x197D5, offset: 0x11BFF8, size: 0x8, addend: 0x0, symName: '__ZN4core3ptr44drop_in_place$LT$syn..lifetime..Lifetime$GT$17h81f5c412fc4e75a1E', symObjAddr: 0x5E20, symBinAddr: 0x630D0, symSize: 0x30 }
  - { offsetInCU: 0x198D1, offset: 0x11C0F4, size: 0x8, addend: 0x0, symName: '__ZN4core3ptr44drop_in_place$LT$syn..parse..ParseBuffer$GT$17h82fe204940e318b0E', symObjAddr: 0x5E50, symBinAddr: 0x63100, symSize: 0x70 }
  - { offsetInCU: 0x19C4D, offset: 0x11C470, size: 0x8, addend: 0x0, symName: '__ZN4core3ptr45drop_in_place$LT$proc_macro2..TokenStream$GT$17h725968a5788a0c43E.llvm.6562949390685846916', symObjAddr: 0x5EC0, symBinAddr: 0x63170, symSize: 0x140 }
  - { offsetInCU: 0x1A0A9, offset: 0x11C8CC, size: 0x8, addend: 0x0, symName: '__ZN4core3ptr45drop_in_place$LT$syn..buffer..TokenBuffer$GT$17h1ed6fa8196fb852bE', symObjAddr: 0x6000, symBinAddr: 0x632B0, symSize: 0xC0 }
  - { offsetInCU: 0x1A311, offset: 0x11CB34, size: 0x8, addend: 0x0, symName: '__ZN4core3ptr45drop_in_place$LT$syn..generics..TypeParam$GT$17h2ddacbd5ce28b514E', symObjAddr: 0x60C0, symBinAddr: 0x63370, symSize: 0x230 }
  - { offsetInCU: 0x1AB52, offset: 0x11D375, size: 0x8, addend: 0x0, symName: '__ZN4core3ptr46drop_in_place$LT$syn..generics..ConstParam$GT$17h847551b4d11dedb8E', symObjAddr: 0x62F0, symBinAddr: 0x635A0, symSize: 0x150 }
  - { offsetInCU: 0x1AF9F, offset: 0x11D7C2, size: 0x8, addend: 0x0, symName: '__ZN4core3ptr47drop_in_place$LT$syn..path..GenericArgument$GT$17ha0f8621278069bfaE', symObjAddr: 0x6440, symBinAddr: 0x636F0, symSize: 0x4A0 }
  - { offsetInCU: 0x1C0A5, offset: 0x11E8C8, size: 0x8, addend: 0x0, symName: '__ZN4core3ptr49drop_in_place$LT$syn..generics..LifetimeParam$GT$17hd8de96c71b63fc49E', symObjAddr: 0x68E0, symBinAddr: 0x63B90, symSize: 0xF0 }
  - { offsetInCU: 0x1C488, offset: 0x11ECAB, size: 0x8, addend: 0x0, symName: '__ZN4core3ptr50drop_in_place$LT$syn..generics..TypeParamBound$GT$17hc0b3a8451b112484E', symObjAddr: 0x69D0, symBinAddr: 0x63C80, symSize: 0x180 }
  - { offsetInCU: 0x1C96D, offset: 0x11F190, size: 0x8, addend: 0x0, symName: '__ZN4core3ptr56drop_in_place$LT$proc_macro2..token_stream..IntoIter$GT$17h2dd5a9e54669e645E', symObjAddr: 0x6B50, symBinAddr: 0x63E00, symSize: 0x20 }
  - { offsetInCU: 0x1CA5B, offset: 0x11F27E, size: 0x8, addend: 0x0, symName: '__ZN4core3ptr56drop_in_place$LT$serde_derive..internals..attr..Name$GT$17h6809d664c841074bE', symObjAddr: 0x6B70, symBinAddr: 0x63E20, symSize: 0x100 }
  - { offsetInCU: 0x1CFC2, offset: 0x11F7E5, size: 0x8, addend: 0x0, symName: '__ZN4core3ptr58drop_in_place$LT$alloc..vec..Vec$LT$syn..expr..Arm$GT$$GT$17ha6d87cf8cb2f8625E', symObjAddr: 0x6C70, symBinAddr: 0x63F20, symSize: 0xD0 }
  - { offsetInCU: 0x1D282, offset: 0x11FAA5, size: 0x8, addend: 0x0, symName: '__ZN4core3ptr59drop_in_place$LT$alloc..boxed..Box$LT$syn..pat..Pat$GT$$GT$17h04b5a49dc338bf9cE', symObjAddr: 0x6D40, symBinAddr: 0x63FF0, symSize: 0x50 }
  - { offsetInCU: 0x1D3DB, offset: 0x11FBFE, size: 0x8, addend: 0x0, symName: '__ZN4core3ptr59drop_in_place$LT$alloc..boxed..Box$LT$syn..ty..Type$GT$$GT$17hfb8a09f23f7902beE', symObjAddr: 0x6D90, symBinAddr: 0x64040, symSize: 0x50 }
  - { offsetInCU: 0x1D534, offset: 0x11FD57, size: 0x8, addend: 0x0, symName: '__ZN4core3ptr59drop_in_place$LT$serde_derive..internals..attr..TagType$GT$17hf69892e87222ae2dE', symObjAddr: 0x6DE0, symBinAddr: 0x64090, symSize: 0x80 }
  - { offsetInCU: 0x1D778, offset: 0x11FF9B, size: 0x8, addend: 0x0, symName: '__ZN4core3ptr60drop_in_place$LT$alloc..vec..Vec$LT$syn..lit..LitStr$GT$$GT$17h2d47d57a9b1f2986E.llvm.6562949390685846916', symObjAddr: 0x6E60, symBinAddr: 0x64110, symSize: 0xC0 }
  - { offsetInCU: 0x1DC01, offset: 0x120424, size: 0x8, addend: 0x0, symName: '__ZN4core3ptr61drop_in_place$LT$alloc..boxed..Box$LT$syn..expr..Expr$GT$$GT$17hfe67d291b01d4939E', symObjAddr: 0x6F20, symBinAddr: 0x641D0, symSize: 0x50 }
  - { offsetInCU: 0x1DDD6, offset: 0x1205F9, size: 0x8, addend: 0x0, symName: '__ZN4core3ptr61drop_in_place$LT$syn..path..ParenthesizedGenericArguments$GT$17hc6164008a0f156caE', symObjAddr: 0x6F70, symBinAddr: 0x64220, symSize: 0x170 }
  - { offsetInCU: 0x1E3CC, offset: 0x120BEF, size: 0x8, addend: 0x0, symName: '__ZN4core3ptr62drop_in_place$LT$syn..path..AngleBracketedGenericArguments$GT$17h0299086782c6da12E', symObjAddr: 0x70E0, symBinAddr: 0x64390, symSize: 0x120 }
  - { offsetInCU: 0x1E817, offset: 0x12103A, size: 0x8, addend: 0x0, symName: '__ZN4core3ptr63drop_in_place$LT$alloc..boxed..Box$LT$syn..lit..LitRepr$GT$$GT$17hf2595df28a7ce13bE.llvm.6562949390685846916', symObjAddr: 0x7200, symBinAddr: 0x644B0, symSize: 0x60 }
  - { offsetInCU: 0x1EB1E, offset: 0x121341, size: 0x8, addend: 0x0, symName: '__ZN4core3ptr64drop_in_place$LT$alloc..boxed..Box$LT$syn..pat..FieldPat$GT$$GT$17hb9cdd4a04c64745aE', symObjAddr: 0x7260, symBinAddr: 0x64510, symSize: 0x140 }
  - { offsetInCU: 0x1F1EB, offset: 0x121A0E, size: 0x8, addend: 0x0, symName: '__ZN4core3ptr64drop_in_place$LT$alloc..boxed..Box$LT$syn..ty..BareFnArg$GT$$GT$17hdf9a99e9a3e43b93E', symObjAddr: 0x73A0, symBinAddr: 0x64650, symSize: 0x140 }
  - { offsetInCU: 0x1F75F, offset: 0x121F82, size: 0x8, addend: 0x0, symName: '__ZN4core3ptr65drop_in_place$LT$alloc..vec..Vec$LT$alloc..string..String$GT$$GT$17h911657485be5e567E', symObjAddr: 0x74E0, symBinAddr: 0x64790, symSize: 0x90 }
  - { offsetInCU: 0x1F9E0, offset: 0x122203, size: 0x8, addend: 0x0, symName: '__ZN4core3ptr65drop_in_place$LT$alloc..vec..Vec$LT$proc_macro..TokenTree$GT$$GT$17h07ad17327f0607d0E.llvm.6562949390685846916', symObjAddr: 0x7570, symBinAddr: 0x64820, symSize: 0x110 }
  - { offsetInCU: 0x1FDD8, offset: 0x1225FB, size: 0x8, addend: 0x0, symName: '__ZN4core3ptr65drop_in_place$LT$core..option..Option$LT$syn..expr..Label$GT$$GT$17h7370f4cd7d051021E', symObjAddr: 0x7680, symBinAddr: 0x64930, symSize: 0x30 }
  - { offsetInCU: 0x1FF12, offset: 0x122735, size: 0x8, addend: 0x0, symName: '__ZN4core3ptr65drop_in_place$LT$core..option..Option$LT$syn..path..QSelf$GT$$GT$17h9bc6bd805f4b805bE', symObjAddr: 0x76B0, symBinAddr: 0x64960, symSize: 0x50 }
  - { offsetInCU: 0x200A9, offset: 0x1228CC, size: 0x8, addend: 0x0, symName: '__ZN4core3ptr66drop_in_place$LT$core..option..Option$LT$syn..pat..PatRest$GT$$GT$17h56243b82155d1306E', symObjAddr: 0x7700, symBinAddr: 0x649B0, symSize: 0xE0 }
  - { offsetInCU: 0x2039D, offset: 0x122BC0, size: 0x8, addend: 0x0, symName: '__ZN4core3ptr67drop_in_place$LT$alloc..boxed..Box$LT$syn..expr..FieldValue$GT$$GT$17hdb569e1e168cfcafE', symObjAddr: 0x77E0, symBinAddr: 0x64A90, symSize: 0x140 }
  - { offsetInCU: 0x208D2, offset: 0x1230F5, size: 0x8, addend: 0x0, symName: '__ZN4core3ptr67drop_in_place$LT$serde_derive..internals..attr..BorrowAttribute$GT$17hb4fcb280a0ffd48aE', symObjAddr: 0x7920, symBinAddr: 0x64BD0, symSize: 0x100 }
  - { offsetInCU: 0x20CAB, offset: 0x1234CE, size: 0x8, addend: 0x0, symName: '__ZN4core3ptr68drop_in_place$LT$alloc..boxed..Box$LT$syn..path..PathSegment$GT$$GT$17h8bc236a2626e080dE', symObjAddr: 0x7A20, symBinAddr: 0x64CD0, symSize: 0x1B0 }
  - { offsetInCU: 0x213B9, offset: 0x123BDC, size: 0x8, addend: 0x0, symName: '__ZN4core3ptr70drop_in_place$LT$core..option..Option$LT$syn..ty..BareVariadic$GT$$GT$17h891315fdf14c9598E', symObjAddr: 0x7BD0, symBinAddr: 0x64E80, symSize: 0x100 }
  - { offsetInCU: 0x217F0, offset: 0x124013, size: 0x8, addend: 0x0, symName: '__ZN4core3ptr72drop_in_place$LT$alloc..boxed..Box$LT$syn..path..GenericArgument$GT$$GT$17ha22f3de00ed22d7dE', symObjAddr: 0x7CD0, symBinAddr: 0x64F80, symSize: 0x1D0 }
  - { offsetInCU: 0x21D8B, offset: 0x1245AE, size: 0x8, addend: 0x0, symName: '__ZN4core3ptr72drop_in_place$LT$core..option..Option$LT$syn..lifetime..Lifetime$GT$$GT$17h738a5902efee9f55E', symObjAddr: 0x7EA0, symBinAddr: 0x65150, symSize: 0x30 }
  - { offsetInCU: 0x21EA6, offset: 0x1246C9, size: 0x8, addend: 0x0, symName: '__ZN4core3ptr73drop_in_place$LT$alloc..boxed..Box$LT$syn..generics..GenericParam$GT$$GT$17h4a82c3bd6b9e6f81E', symObjAddr: 0x7ED0, symBinAddr: 0x65180, symSize: 0x80 }
  - { offsetInCU: 0x2201C, offset: 0x12483F, size: 0x8, addend: 0x0, symName: '__ZN4core3ptr73drop_in_place$LT$alloc..vec..Vec$LT$syn..generics..WherePredicate$GT$$GT$17h0052c17cbfe03aaeE.llvm.6562949390685846916', symObjAddr: 0x7F50, symBinAddr: 0x65200, symSize: 0xD0 }
  - { offsetInCU: 0x222DC, offset: 0x124AFF, size: 0x8, addend: 0x0, symName: '__ZN4core3ptr75drop_in_place$LT$alloc..boxed..Box$LT$syn..generics..TypeParamBound$GT$$GT$17h47c0b9686bcdda20E', symObjAddr: 0x8020, symBinAddr: 0x652D0, symSize: 0xC0 }
  - { offsetInCU: 0x225D3, offset: 0x124DF6, size: 0x8, addend: 0x0, symName: '__ZN4core3ptr77drop_in_place$LT$serde_derive..internals..attr..Attr$LT$syn..ty..Type$GT$$GT$17hcad278e1d688344bE', symObjAddr: 0x80E0, symBinAddr: 0x65390, symSize: 0x50 }
  - { offsetInCU: 0x22656, offset: 0x124E79, size: 0x8, addend: 0x0, symName: '__ZN4core3ptr79drop_in_place$LT$serde_derive..internals..attr..Attr$LT$syn..path..Path$GT$$GT$17h44b3eac09ceb41e2E', symObjAddr: 0x8130, symBinAddr: 0x653E0, symSize: 0x70 }
  - { offsetInCU: 0x226B4, offset: 0x124ED7, size: 0x8, addend: 0x0, symName: '__ZN4core3ptr82drop_in_place$LT$core..result..Result$LT$syn..ty..Type$C$syn..error..Error$GT$$GT$17h95b8f41480f9ec85E', symObjAddr: 0x81A0, symBinAddr: 0x65450, symSize: 0xA0 }
  - { offsetInCU: 0x22996, offset: 0x1251B9, size: 0x8, addend: 0x0, symName: '__ZN4core3ptr83drop_in_place$LT$serde_derive..internals..attr..Attr$LT$syn..expr..ExprPath$GT$$GT$17h4c7ac8e93edf69eeE', symObjAddr: 0x8240, symBinAddr: 0x654F0, symSize: 0x70 }
  - { offsetInCU: 0x22A13, offset: 0x125236, size: 0x8, addend: 0x0, symName: '__ZN4core3ptr83drop_in_place$LT$serde_derive..internals..attr..VecAttr$LT$syn..lit..LitStr$GT$$GT$17hba50a4cf44abc55fE.llvm.6562949390685846916', symObjAddr: 0x82B0, symBinAddr: 0x65560, symSize: 0xD0 }
  - { offsetInCU: 0x22E59, offset: 0x12567C, size: 0x8, addend: 0x0, symName: '__ZN4core3ptr84drop_in_place$LT$core..result..Result$LT$syn..path..Path$C$syn..error..Error$GT$$GT$17h17aaa56155fdf04aE', symObjAddr: 0x8380, symBinAddr: 0x65630, symSize: 0xA0 }
  - { offsetInCU: 0x2313B, offset: 0x12595E, size: 0x8, addend: 0x0, symName: '__ZN4core3ptr85drop_in_place$LT$serde_derive..internals..attr..Attr$LT$alloc..string..String$GT$$GT$17hc308b5da7509e6cbE', symObjAddr: 0x8420, symBinAddr: 0x656D0, symSize: 0x60 }
  - { offsetInCU: 0x233CE, offset: 0x125BF1, size: 0x8, addend: 0x0, symName: '__ZN4core3ptr86drop_in_place$LT$syn..punctuated..Punctuated$LT$syn..pat..Pat$C$syn..token..Or$GT$$GT$17h028803b51a0e008cE', symObjAddr: 0x8480, symBinAddr: 0x65730, symSize: 0x120 }
  - { offsetInCU: 0x23849, offset: 0x12606C, size: 0x8, addend: 0x0, symName: '__ZN4core3ptr87drop_in_place$LT$core..option..Option$LT$alloc..boxed..Box$LT$syn..pat..Pat$GT$$GT$$GT$17h47e4534cb825f5fbE', symObjAddr: 0x85A0, symBinAddr: 0x65850, symSize: 0x50 }
  - { offsetInCU: 0x239B9, offset: 0x1261DC, size: 0x8, addend: 0x0, symName: '__ZN4core3ptr87drop_in_place$LT$core..option..Option$LT$alloc..boxed..Box$LT$syn..ty..Type$GT$$GT$$GT$17hb21c4c429b95d768E', symObjAddr: 0x85F0, symBinAddr: 0x658A0, symSize: 0x50 }
  - { offsetInCU: 0x23B29, offset: 0x12634C, size: 0x8, addend: 0x0, symName: '__ZN4core3ptr88drop_in_place$LT$core..result..Result$LT$syn..expr..ExprPath$C$syn..error..Error$GT$$GT$17hb848043db10a6043E', symObjAddr: 0x8640, symBinAddr: 0x658F0, symSize: 0xA0 }
  - { offsetInCU: 0x23E0B, offset: 0x12662E, size: 0x8, addend: 0x0, symName: '__ZN4core3ptr88drop_in_place$LT$serde_derive..internals..attr..VecAttr$LT$alloc..string..String$GT$$GT$17h26cb3931e2c5e15bE', symObjAddr: 0x86E0, symBinAddr: 0x65990, symSize: 0xA0 }
  - { offsetInCU: 0x24041, offset: 0x126864, size: 0x8, addend: 0x0, symName: '__ZN4core3ptr89drop_in_place$LT$core..option..Option$LT$alloc..boxed..Box$LT$syn..expr..Expr$GT$$GT$$GT$17h0b10c8a8945d61ceE', symObjAddr: 0x8780, symBinAddr: 0x65A30, symSize: 0x50 }
  - { offsetInCU: 0x241EF, offset: 0x126A12, size: 0x8, addend: 0x0, symName: '__ZN4core3ptr89drop_in_place$LT$syn..punctuated..Punctuated$LT$syn..pat..Pat$C$syn..token..Comma$GT$$GT$17h0f70228e7daac378E', symObjAddr: 0x87D0, symBinAddr: 0x65A80, symSize: 0x120 }
  - { offsetInCU: 0x24681, offset: 0x126EA4, size: 0x8, addend: 0x0, symName: '__ZN4core3ptr89drop_in_place$LT$syn..punctuated..Punctuated$LT$syn..ty..Type$C$syn..token..Comma$GT$$GT$17h0317a8a9919e8789E', symObjAddr: 0x88F0, symBinAddr: 0x65BA0, symSize: 0x120 }
  - { offsetInCU: 0x24AFC, offset: 0x12731F, size: 0x8, addend: 0x0, symName: '__ZN4core3ptr90drop_in_place$LT$core..option..Option$LT$syn..path..AngleBracketedGenericArguments$GT$$GT$17h9646b437ffecef94E', symObjAddr: 0x8A10, symBinAddr: 0x65CC0, symSize: 0x130 }
  - { offsetInCU: 0x24F9E, offset: 0x1277C1, size: 0x8, addend: 0x0, symName: '__ZN4core3ptr91drop_in_place$LT$syn..punctuated..Punctuated$LT$syn..expr..Expr$C$syn..token..Comma$GT$$GT$17hd3047ab334148524E', symObjAddr: 0x8B40, symBinAddr: 0x65DF0, symSize: 0x120 }
  - { offsetInCU: 0x2542C, offset: 0x127C4F, size: 0x8, addend: 0x0, symName: '__ZN4core3ptr94drop_in_place$LT$syn..punctuated..Punctuated$LT$syn..pat..FieldPat$C$syn..token..Comma$GT$$GT$17h7ace9efb18f43d12E', symObjAddr: 0x8C60, symBinAddr: 0x65F10, symSize: 0xF0 }
  - { offsetInCU: 0x2572B, offset: 0x127F4E, size: 0x8, addend: 0x0, symName: '__ZN4core3ptr94drop_in_place$LT$syn..punctuated..Punctuated$LT$syn..ty..BareFnArg$C$syn..token..Comma$GT$$GT$17hb29c6edaabe01c76E', symObjAddr: 0x8D50, symBinAddr: 0x66000, symSize: 0xF0 }
  - { offsetInCU: 0x25A2C, offset: 0x12824F, size: 0x8, addend: 0x0, symName: '__ZN4core3ptr95drop_in_place$LT$core..option..Option$LT$serde_derive..internals..attr..BorrowAttribute$GT$$GT$17h4e3d5c85d249635bE', symObjAddr: 0x8E40, symBinAddr: 0x660F0, symSize: 0x110 }
  - { offsetInCU: 0x25E1C, offset: 0x12863F, size: 0x8, addend: 0x0, symName: '__ZN4core3ptr96drop_in_place$LT$alloc..vec..Vec$LT$alloc..vec..Vec$LT$syn..generics..WherePredicate$GT$$GT$$GT$17hac7cc128a99b1025E', symObjAddr: 0x8F50, symBinAddr: 0x66200, symSize: 0x60 }
  - { offsetInCU: 0x2604D, offset: 0x128870, size: 0x8, addend: 0x0, symName: '__ZN4core3ptr96drop_in_place$LT$core..option..Option$LT$alloc..boxed..Box$LT$syn..path..PathSegment$GT$$GT$$GT$17hd919256ec958e698E', symObjAddr: 0x8FB0, symBinAddr: 0x66260, symSize: 0xA0 }
  - { offsetInCU: 0x262CC, offset: 0x128AEF, size: 0x8, addend: 0x0, symName: '__ZN4core3ptr97drop_in_place$LT$syn..punctuated..Punctuated$LT$syn..expr..FieldValue$C$syn..token..Comma$GT$$GT$17he241ea7a3c55d267E', symObjAddr: 0x9050, symBinAddr: 0x66300, symSize: 0xF0 }
  - { offsetInCU: 0x265C9, offset: 0x128DEC, size: 0x8, addend: 0x0, symName: '__ZN4core3ptr98drop_in_place$LT$alloc..vec..Vec$LT$$LP$syn..path..GenericArgument$C$syn..token..Comma$RP$$GT$$GT$17ha96f98c42a71b3f5E', symObjAddr: 0x9140, symBinAddr: 0x663F0, symSize: 0xD0 }
  - { offsetInCU: 0x26909, offset: 0x12912C, size: 0x8, addend: 0x0, symName: '__ZN4core3ptr98drop_in_place$LT$syn..punctuated..Punctuated$LT$syn..lifetime..Lifetime$C$syn..token..Plus$GT$$GT$17hb8f4279048db7792E', symObjAddr: 0x9210, symBinAddr: 0x664C0, symSize: 0xD0 }
  - { offsetInCU: 0x27A92, offset: 0x12A2B5, size: 0x8, addend: 0x0, symName: '__ZN53_$LT$core..fmt..Error$u20$as$u20$core..fmt..Debug$GT$3fmt17h03dc662ab152f3aeE', symObjAddr: 0x9300, symBinAddr: 0x665B0, symSize: 0x20 }
  - { offsetInCU: 0x2EBAA, offset: 0x1313CD, size: 0x8, addend: 0x0, symName: __ZN12serde_derive9internals4attr5unraw17h36b8e475e18e229dE, symObjAddr: 0xB900, symBinAddr: 0x68B40, symSize: 0x190 }
  - { offsetInCU: 0x2FD0C, offset: 0x13252F, size: 0x8, addend: 0x0, symName: __ZN12serde_derive9internals4attr14get_ser_and_de17hbc0ac3355097fac0E.llvm.6562949390685846916, symObjAddr: 0x121A0, symBinAddr: 0x6F310, symSize: 0x550 }
  - { offsetInCU: 0x30BFE, offset: 0x133421, size: 0x8, addend: 0x0, symName: __ZN12serde_derive9internals4attr11get_renames17h4039748490aa1512E, symObjAddr: 0x126F0, symBinAddr: 0x6F860, symSize: 0x180 }
  - { offsetInCU: 0x30CBD, offset: 0x1334E0, size: 0x8, addend: 0x0, symName: __ZN12serde_derive9internals4attr20get_multiple_renames17hd7b2e41af46261d2E, symObjAddr: 0x12870, symBinAddr: 0x6F9E0, symSize: 0x1E0 }
  - { offsetInCU: 0x30E9D, offset: 0x1336C0, size: 0x8, addend: 0x0, symName: __ZN12serde_derive9internals4attr20get_where_predicates17hdd079721db955c25E, symObjAddr: 0x12A50, symBinAddr: 0x6FBC0, symSize: 0x700 }
  - { offsetInCU: 0x31AAE, offset: 0x1342D1, size: 0x8, addend: 0x0, symName: __ZN12serde_derive9internals4attr12get_lit_str217hd610c3c026cd7f5cE, symObjAddr: 0x13180, symBinAddr: 0x702C0, symSize: 0x2D0 }
  - { offsetInCU: 0x31DE6, offset: 0x134609, size: 0x8, addend: 0x0, symName: __ZN12serde_derive9internals4attr19parse_lit_into_path17h8cdea35e464b5aaeE, symObjAddr: 0x13450, symBinAddr: 0x70590, symSize: 0x2D0 }
  - { offsetInCU: 0x327FB, offset: 0x13501E, size: 0x8, addend: 0x0, symName: __ZN12serde_derive9internals4attr24parse_lit_into_expr_path17h8c74afd1b19a2ce9E, symObjAddr: 0x13720, symBinAddr: 0x70860, symSize: 0x2A0 }
  - { offsetInCU: 0x33210, offset: 0x135A33, size: 0x8, addend: 0x0, symName: __ZN12serde_derive9internals4attr20parse_lit_into_where17h52fb60b2e70b560cE, symObjAddr: 0x139C0, symBinAddr: 0x70B00, symSize: 0x1F0 }
  - { offsetInCU: 0x3365D, offset: 0x135E80, size: 0x8, addend: 0x0, symName: __ZN12serde_derive9internals4attr17parse_lit_into_ty17h12c882756d05f782E, symObjAddr: 0x13BB0, symBinAddr: 0x70CF0, symSize: 0x2D0 }
  - { offsetInCU: 0x34055, offset: 0x136878, size: 0x8, addend: 0x0, symName: __ZN12serde_derive9internals4attr24parse_lit_into_lifetimes17h7726441b05122361E, symObjAddr: 0x13E80, symBinAddr: 0x70FC0, symSize: 0x320 }
  - { offsetInCU: 0x34914, offset: 0x137137, size: 0x8, addend: 0x0, symName: __ZN12serde_derive9internals4attr32is_implicitly_borrowed_reference17h17e6cc1998f36b1bE, symObjAddr: 0x141A0, symBinAddr: 0x712E0, symSize: 0xE0 }
  - { offsetInCU: 0x34B20, offset: 0x137343, size: 0x8, addend: 0x0, symName: __ZN12serde_derive9internals4attr11is_slice_u817h8d99e6acf72057e3E, symObjAddr: 0x14280, symBinAddr: 0x713C0, symSize: 0x40 }
  - { offsetInCU: 0x34BC0, offset: 0x1373E3, size: 0x8, addend: 0x0, symName: __ZN12serde_derive9internals4attr17is_primitive_type17h3c1f40ac729a6ccdE, symObjAddr: 0x142C0, symBinAddr: 0x71400, symSize: 0x190 }
  - { offsetInCU: 0x353A5, offset: 0x137BC8, size: 0x8, addend: 0x0, symName: __ZN12serde_derive9internals4attr17is_primitive_path17h685d9957f2370ce8E, symObjAddr: 0x14450, symBinAddr: 0x71590, symSize: 0x190 }
  - { offsetInCU: 0x35BCB, offset: 0x1383EE, size: 0x8, addend: 0x0, symName: __ZN12serde_derive9internals4attr20borrowable_lifetimes17hb3abc089e48650ebE, symObjAddr: 0x145E0, symBinAddr: 0x71720, symSize: 0x1D0 }
  - { offsetInCU: 0x3606C, offset: 0x13888F, size: 0x8, addend: 0x0, symName: __ZN12serde_derive9internals4attr17collect_lifetimes17hc1f26a03fd2fc825E.llvm.6562949390685846916, symObjAddr: 0x147B0, symBinAddr: 0x718F0, symSize: 0x420 }
  - { offsetInCU: 0x36FCA, offset: 0x1397ED, size: 0x8, addend: 0x0, symName: __ZN12serde_derive9internals4attr29collect_lifetimes_from_tokens17h60be95db489f3926E, symObjAddr: 0x14BD0, symBinAddr: 0x71D10, symSize: 0x1AF }
  - { offsetInCU: 0x3761F, offset: 0x139E42, size: 0x8, addend: 0x0, symName: '__ZN40_$LT$F$u20$as$u20$syn..parse..Parser$GT$14__parse_scoped17h6809cfbc76ba3321E', symObjAddr: 0x0, symBinAddr: 0x5D2B0, symSize: 0x8F0 }
  - { offsetInCU: 0x391FC, offset: 0x13BA1F, size: 0x8, addend: 0x0, symName: '__ZN40_$LT$F$u20$as$u20$syn..parse..Parser$GT$14__parse_scoped17hd1be51ec7c8f4485E', symObjAddr: 0x8F0, symBinAddr: 0x5DBA0, symSize: 0x540 }
  - { offsetInCU: 0x3AE92, offset: 0x13D6B5, size: 0x8, addend: 0x0, symName: '__ZN52_$LT$syn..token..Eq$u20$as$u20$syn..token..Token$GT$7display17h39092fd5aa34c437E', symObjAddr: 0x92E0, symBinAddr: 0x66590, symSize: 0x20 }
  - { offsetInCU: 0x3AEB7, offset: 0x13D6DA, size: 0x8, addend: 0x0, symName: '__ZN55_$LT$syn..token..Paren$u20$as$u20$syn..token..Token$GT$7display17hbc4dffd680193e0fE', symObjAddr: 0x9320, symBinAddr: 0x665D0, symSize: 0x20 }
  - { offsetInCU: 0x41892, offset: 0x1440B5, size: 0x8, addend: 0x0, symName: '__ZN12serde_derive9internals4attr13Attr$LT$T$GT$3set17h44a7c26216ea3e54E', symObjAddr: 0x9520, symBinAddr: 0x667D0, symSize: 0x190 }
  - { offsetInCU: 0x41B55, offset: 0x144378, size: 0x8, addend: 0x0, symName: '__ZN12serde_derive9internals4attr13Attr$LT$T$GT$3set17h51bf5e91255b6888E', symObjAddr: 0x96B0, symBinAddr: 0x66960, symSize: 0x210 }
  - { offsetInCU: 0x41E72, offset: 0x144695, size: 0x8, addend: 0x0, symName: '__ZN12serde_derive9internals4attr13Attr$LT$T$GT$3set17h52b4346d2a754a3fE', symObjAddr: 0x98C0, symBinAddr: 0x66B70, symSize: 0x3A0 }
  - { offsetInCU: 0x427A6, offset: 0x144FC9, size: 0x8, addend: 0x0, symName: '__ZN12serde_derive9internals4attr13Attr$LT$T$GT$3set17h545b7fe2d99e41b9E', symObjAddr: 0x9C60, symBinAddr: 0x66F10, symSize: 0x1F0 }
  - { offsetInCU: 0x42A83, offset: 0x1452A6, size: 0x8, addend: 0x0, symName: '__ZN12serde_derive9internals4attr13Attr$LT$T$GT$3set17h79ee141bf1e7fc98E', symObjAddr: 0x9E50, symBinAddr: 0x67100, symSize: 0x3D0 }
  - { offsetInCU: 0x434DB, offset: 0x145CFE, size: 0x8, addend: 0x0, symName: '__ZN12serde_derive9internals4attr13Attr$LT$T$GT$3set17ha46c31453bc3f02cE', symObjAddr: 0xA220, symBinAddr: 0x674D0, symSize: 0x230 }
  - { offsetInCU: 0x4379E, offset: 0x145FC1, size: 0x8, addend: 0x0, symName: '__ZN12serde_derive9internals4attr13Attr$LT$T$GT$3set17hbe97f18e9a376145E', symObjAddr: 0xA450, symBinAddr: 0x67700, symSize: 0x1A0 }
  - { offsetInCU: 0x43A27, offset: 0x14624A, size: 0x8, addend: 0x0, symName: '__ZN12serde_derive9internals4attr13Attr$LT$T$GT$3set17hd39a66f9c4827059E', symObjAddr: 0xA5F0, symBinAddr: 0x678A0, symSize: 0x200 }
  - { offsetInCU: 0x43D5B, offset: 0x14657E, size: 0x8, addend: 0x0, symName: '__ZN12serde_derive9internals4attr13Attr$LT$T$GT$3set17heae34dec4581269cE', symObjAddr: 0xA7F0, symBinAddr: 0x67AA0, symSize: 0x200 }
  - { offsetInCU: 0x4433C, offset: 0x146B5F, size: 0x8, addend: 0x0, symName: '__ZN12serde_derive9internals4attr13Attr$LT$T$GT$3set17hf89d526d8c28ecbbE', symObjAddr: 0xA9F0, symBinAddr: 0x67CA0, symSize: 0x190 }
  - { offsetInCU: 0x44667, offset: 0x146E8A, size: 0x8, addend: 0x0, symName: '__ZN12serde_derive9internals4attr13Attr$LT$T$GT$7set_opt17h3627de61380ab1ceE', symObjAddr: 0xAB80, symBinAddr: 0x67E30, symSize: 0x340 }
  - { offsetInCU: 0x44F1C, offset: 0x14773F, size: 0x8, addend: 0x0, symName: '__ZN12serde_derive9internals4attr13Attr$LT$T$GT$7set_opt17ha2a50883419fbb59E', symObjAddr: 0xAEC0, symBinAddr: 0x68170, symSize: 0x280 }
  - { offsetInCU: 0x4525F, offset: 0x147A82, size: 0x8, addend: 0x0, symName: '__ZN12serde_derive9internals4attr16VecAttr$LT$T$GT$6insert17h2f4a5f1c3534318eE', symObjAddr: 0xB1B0, symBinAddr: 0x683F0, symSize: 0x120 }
  - { offsetInCU: 0x454CC, offset: 0x147CEF, size: 0x8, addend: 0x0, symName: '__ZN12serde_derive9internals4attr16VecAttr$LT$T$GT$6insert17hefdf463c807b33cdE', symObjAddr: 0xB2D0, symBinAddr: 0x68510, symSize: 0x160 }
  - { offsetInCU: 0x458FC, offset: 0x14811F, size: 0x8, addend: 0x0, symName: '__ZN12serde_derive9internals4attr16VecAttr$LT$T$GT$6insert17hf995bc4c6eea1750E', symObjAddr: 0xB430, symBinAddr: 0x68670, symSize: 0x150 }
  - { offsetInCU: 0x45BA5, offset: 0x1483C8, size: 0x8, addend: 0x0, symName: '__ZN12serde_derive9internals4attr16VecAttr$LT$T$GT$11at_most_one17h29f5236a780db075E.llvm.6562949390685846916', symObjAddr: 0xB580, symBinAddr: 0x687C0, symSize: 0x1E0 }
  - { offsetInCU: 0x46335, offset: 0x148B58, size: 0x8, addend: 0x0, symName: '__ZN12serde_derive9internals4attr16VecAttr$LT$T$GT$11at_most_one17h9d196aef41b73df2E', symObjAddr: 0xB760, symBinAddr: 0x689A0, symSize: 0x1A0 }
  - { offsetInCU: 0x46A44, offset: 0x149267, size: 0x8, addend: 0x0, symName: __ZN12serde_derive9internals4attr4Name10from_attrs17hacc515ab6a974ae9E, symObjAddr: 0xBA90, symBinAddr: 0x68CD0, symSize: 0x460 }
  - { offsetInCU: 0x480C6, offset: 0x14A8E9, size: 0x8, addend: 0x0, symName: __ZN12serde_derive9internals4attr9Container8from_ast17h597b49cd32df044fE, symObjAddr: 0xBEF0, symBinAddr: 0x69130, symSize: 0x2E20 }
  - { offsetInCU: 0x4A49E, offset: 0x14CCC1, size: 0x8, addend: 0x0, symName: __ZN12serde_derive9internals4attr7Variant8from_ast17h42cd82142058e75aE, symObjAddr: 0xEDE0, symBinAddr: 0x6BF50, symSize: 0xE70 }
  - { offsetInCU: 0x4B18F, offset: 0x14D9B2, size: 0x8, addend: 0x0, symName: __ZN12serde_derive9internals4attr7Variant15rename_by_rules17h3f6183a1be2879a4E, symObjAddr: 0xFC50, symBinAddr: 0x6CDC0, symSize: 0xF0 }
  - { offsetInCU: 0x4BF3F, offset: 0x14E762, size: 0x8, addend: 0x0, symName: __ZN12serde_derive9internals4attr5Field8from_ast17h7e958918c06053b4E, symObjAddr: 0xFD40, symBinAddr: 0x6CEB0, symSize: 0x2380 }
  - { offsetInCU: 0x4F88B, offset: 0x1520AE, size: 0x8, addend: 0x0, symName: __ZN12serde_derive9internals4attr5Field15rename_by_rules17h8ca040d6cc96a761E, symObjAddr: 0x120C0, symBinAddr: 0x6F230, symSize: 0xE0 }
  - { offsetInCU: 0x3151, offset: 0x15C21C, size: 0x8, addend: 0x0, symName: '__ZN4core3ptr100drop_in_place$LT$core..option..Option$LT$alloc..boxed..Box$LT$syn..path..GenericArgument$GT$$GT$$GT$17h3c47f80d40da4ae4E', symObjAddr: 0x670, symBinAddr: 0x724F0, symSize: 0x50 }
  - { offsetInCU: 0x3492, offset: 0x15C55D, size: 0x8, addend: 0x0, symName: '__ZN4core3ptr100drop_in_place$LT$syn..punctuated..Punctuated$LT$syn..path..PathSegment$C$syn..token..PathSep$GT$$GT$17hd34064dc93b0b427E.llvm.15846109013729029931', symObjAddr: 0x6C0, symBinAddr: 0x72540, symSize: 0x1C0 }
  - { offsetInCU: 0x3B8D, offset: 0x15CC58, size: 0x8, addend: 0x0, symName: '__ZN4core3ptr101drop_in_place$LT$core..option..Option$LT$alloc..vec..Vec$LT$syn..generics..WherePredicate$GT$$GT$$GT$17ha20f1622680c30deE', symObjAddr: 0x880, symBinAddr: 0x72700, symSize: 0xD0 }
  - { offsetInCU: 0x3EDA, offset: 0x15CFA5, size: 0x8, addend: 0x0, symName: '__ZN4core3ptr102drop_in_place$LT$syn..punctuated..Punctuated$LT$syn..path..GenericArgument$C$syn..token..Comma$GT$$GT$17hfe8946443591d714E.llvm.15846109013729029931', symObjAddr: 0x950, symBinAddr: 0x727D0, symSize: 0xF0 }
  - { offsetInCU: 0x4201, offset: 0x15D2CC, size: 0x8, addend: 0x0, symName: '__ZN4core3ptr103drop_in_place$LT$core..option..Option$LT$alloc..boxed..Box$LT$syn..generics..TypeParamBound$GT$$GT$$GT$17hb98e913f9a9fba75E', symObjAddr: 0xA40, symBinAddr: 0x728C0, symSize: 0x50 }
  - { offsetInCU: 0x4390, offset: 0x15D45B, size: 0x8, addend: 0x0, symName: '__ZN4core3ptr103drop_in_place$LT$core..option..Option$LT$alloc..boxed..Box$LT$syn..generics..WherePredicate$GT$$GT$$GT$17ha8f5afb6495c5336E', symObjAddr: 0xA90, symBinAddr: 0x72910, symSize: 0x50 }
  - { offsetInCU: 0x45D9, offset: 0x15D6A4, size: 0x8, addend: 0x0, symName: '__ZN4core3ptr103drop_in_place$LT$syn..punctuated..Punctuated$LT$syn..generics..GenericParam$C$syn..token..Comma$GT$$GT$17h706e4b03aaf6cee1E.llvm.15846109013729029931', symObjAddr: 0xAE0, symBinAddr: 0x72960, symSize: 0x1A0 }
  - { offsetInCU: 0x4BF3, offset: 0x15DCBE, size: 0x8, addend: 0x0, symName: '__ZN4core3ptr104drop_in_place$LT$syn..punctuated..Punctuated$LT$syn..generics..TypeParamBound$C$syn..token..Plus$GT$$GT$17h913c045198e2e1fdE.llvm.15846109013729029931', symObjAddr: 0xC80, symBinAddr: 0x72B00, symSize: 0x240 }
  - { offsetInCU: 0x554D, offset: 0x15E618, size: 0x8, addend: 0x0, symName: '__ZN4core3ptr105drop_in_place$LT$syn..punctuated..Punctuated$LT$syn..generics..WherePredicate$C$syn..token..Comma$GT$$GT$17h950b0d6851bfc4b8E', symObjAddr: 0xEC0, symBinAddr: 0x72D40, symSize: 0x120 }
  - { offsetInCU: 0x5A30, offset: 0x15EAFB, size: 0x8, addend: 0x0, symName: '__ZN4core3ptr112drop_in_place$LT$alloc..vec..Vec$LT$$LP$$RF$serde_derive..internals..ast..Field$C$proc_macro2..Ident$RP$$GT$$GT$17h441731175e2d345aE.llvm.15846109013729029931', symObjAddr: 0xFE0, symBinAddr: 0x72E60, symSize: 0x90 }
  - { offsetInCU: 0x5D15, offset: 0x15EDE0, size: 0x8, addend: 0x0, symName: '__ZN4core3ptr116drop_in_place$LT$core..option..Option$LT$$LP$syn..token..Else$C$alloc..boxed..Box$LT$syn..expr..Expr$GT$$RP$$GT$$GT$17h210cd7079dd4be7bE', symObjAddr: 0x1070, symBinAddr: 0x72EF0, symSize: 0x50 }
  - { offsetInCU: 0x5EDA, offset: 0x15EFA5, size: 0x8, addend: 0x0, symName: '__ZN4core3ptr126drop_in_place$LT$core..option..Option$LT$$LP$syn..token..And$C$core..option..Option$LT$syn..lifetime..Lifetime$GT$$RP$$GT$$GT$17he8ff0c35014a8549E', symObjAddr: 0x10C0, symBinAddr: 0x72F40, symSize: 0x30 }
  - { offsetInCU: 0x6090, offset: 0x15F15B, size: 0x8, addend: 0x0, symName: '__ZN4core3ptr156drop_in_place$LT$alloc..vec..Vec$LT$$LP$$RF$str$C$proc_macro2..Ident$C$$RF$alloc..collections..btree..set..BTreeSet$LT$alloc..string..String$GT$$RP$$GT$$GT$17hfa4f2974133cd866E.llvm.15846109013729029931', symObjAddr: 0x10F0, symBinAddr: 0x72F70, symSize: 0x90 }
  - { offsetInCU: 0x646F, offset: 0x15F53A, size: 0x8, addend: 0x0, symName: '__ZN4core3ptr33drop_in_place$LT$syn..ty..Abi$GT$17h69d82699ea5004d0E', symObjAddr: 0x1180, symBinAddr: 0x73000, symSize: 0x70 }
  - { offsetInCU: 0x648B, offset: 0x15F556, size: 0x8, addend: 0x0, symName: '__ZN4core3ptr33drop_in_place$LT$syn..ty..Abi$GT$17h69d82699ea5004d0E', symObjAddr: 0x1180, symBinAddr: 0x73000, symSize: 0x70 }
  - { offsetInCU: 0x6763, offset: 0x15F82E, size: 0x8, addend: 0x0, symName: '__ZN4core3ptr34drop_in_place$LT$syn..lit..Lit$GT$17hab99994a68996a3fE', symObjAddr: 0x11F0, symBinAddr: 0x73070, symSize: 0x120 }
  - { offsetInCU: 0x6C70, offset: 0x15FD3B, size: 0x8, addend: 0x0, symName: '__ZN4core3ptr34drop_in_place$LT$syn..pat..Pat$GT$17h7d887fadf2c3cc6bE.llvm.15846109013729029931', symObjAddr: 0x1310, symBinAddr: 0x73190, symSize: 0xF90 }
  - { offsetInCU: 0xAB96, offset: 0x163C61, size: 0x8, addend: 0x0, symName: '__ZN4core3ptr34drop_in_place$LT$syn..ty..Type$GT$17h11a872b3c8e5eef5E.llvm.15846109013729029931', symObjAddr: 0x22A0, symBinAddr: 0x74120, symSize: 0x510 }
  - { offsetInCU: 0xBBD8, offset: 0x164CA3, size: 0x8, addend: 0x0, symName: '__ZN4core3ptr35drop_in_place$LT$syn..expr..Arm$GT$17had8b34679f58b5dcE.llvm.15846109013729029931', symObjAddr: 0x27B0, symBinAddr: 0x74630, symSize: 0x170 }
  - { offsetInCU: 0xC208, offset: 0x1652D3, size: 0x8, addend: 0x0, symName: '__ZN4core3ptr36drop_in_place$LT$syn..attr..Meta$GT$17hb128a39430a97178E.llvm.15846109013729029931', symObjAddr: 0x2920, symBinAddr: 0x747A0, symSize: 0x220 }
  - { offsetInCU: 0xCD82, offset: 0x165E4D, size: 0x8, addend: 0x0, symName: '__ZN4core3ptr36drop_in_place$LT$syn..expr..Expr$GT$17h62bf30adc41c0fafE.llvm.15846109013729029931', symObjAddr: 0x2B40, symBinAddr: 0x749C0, symSize: 0x2790 }
  - { offsetInCU: 0x170DF, offset: 0x1701AA, size: 0x8, addend: 0x0, symName: '__ZN4core3ptr36drop_in_place$LT$syn..item..Item$GT$17h2f6448059c02430dE', symObjAddr: 0x52D0, symBinAddr: 0x77150, symSize: 0x1980 }
  - { offsetInCU: 0x1CD35, offset: 0x175E00, size: 0x8, addend: 0x0, symName: '__ZN4core3ptr36drop_in_place$LT$syn..mac..Macro$GT$17ha18d10f1233dedcaE', symObjAddr: 0x6C50, symBinAddr: 0x78AD0, symSize: 0xE0 }
  - { offsetInCU: 0x1D05F, offset: 0x17612A, size: 0x8, addend: 0x0, symName: '__ZN4core3ptr36drop_in_place$LT$syn..path..Path$GT$17hcca6c7d030660616E', symObjAddr: 0x6D30, symBinAddr: 0x78BB0, symSize: 0x180 }
  - { offsetInCU: 0x1D66A, offset: 0x176735, size: 0x8, addend: 0x0, symName: '__ZN4core3ptr36drop_in_place$LT$syn..stmt..Stmt$GT$17hfc1fe1ed46586bf2E.llvm.15846109013729029931', symObjAddr: 0x6EB0, symBinAddr: 0x78D30, symSize: 0x380 }
  - { offsetInCU: 0x1E2D3, offset: 0x17739E, size: 0x8, addend: 0x0, symName: '__ZN4core3ptr37drop_in_place$LT$syn..data..Field$GT$17hee5e3f5b95afbfe4E.llvm.15846109013729029931', symObjAddr: 0x7230, symBinAddr: 0x790B0, symSize: 0x190 }
  - { offsetInCU: 0x1E8C3, offset: 0x17798E, size: 0x8, addend: 0x0, symName: '__ZN4core3ptr37drop_in_place$LT$syn..item..FnArg$GT$17h3ec69ebe8b110361E', symObjAddr: 0x73C0, symBinAddr: 0x79240, symSize: 0x230 }
  - { offsetInCU: 0x1F1DA, offset: 0x1782A5, size: 0x8, addend: 0x0, symName: '__ZN4core3ptr37drop_in_place$LT$syn..stmt..Block$GT$17haed62ed48b69364dE', symObjAddr: 0x7650, symBinAddr: 0x79470, symSize: 0xD0 }
  - { offsetInCU: 0x1F4B8, offset: 0x178583, size: 0x8, addend: 0x0, symName: '__ZN4core3ptr38drop_in_place$LT$syn..expr..Member$GT$17h594f47e3350a2be5E.llvm.15846109013729029931', symObjAddr: 0x7720, symBinAddr: 0x79540, symSize: 0x30 }
  - { offsetInCU: 0x1F5B4, offset: 0x17867F, size: 0x8, addend: 0x0, symName: '__ZN4core3ptr38drop_in_place$LT$syn..pat..PatType$GT$17h147714a1bbff682fE', symObjAddr: 0x7750, symBinAddr: 0x79570, symSize: 0x140 }
  - { offsetInCU: 0x1FB66, offset: 0x178C31, size: 0x8, addend: 0x0, symName: '__ZN4core3ptr39drop_in_place$LT$proc_macro2..Ident$GT$17h007be8bd6a71491bE.llvm.15846109013729029931', symObjAddr: 0x7890, symBinAddr: 0x796B0, symSize: 0x30 }
  - { offsetInCU: 0x1FCA0, offset: 0x178D6B, size: 0x8, addend: 0x0, symName: '__ZN4core3ptr39drop_in_place$LT$syn..data..Variant$GT$17h5926fdda856af4e5E.llvm.15846109013729029931', symObjAddr: 0x78C0, symBinAddr: 0x796E0, symSize: 0x2F0 }
  - { offsetInCU: 0x2093B, offset: 0x179A06, size: 0x8, addend: 0x0, symName: '__ZN4core3ptr39drop_in_place$LT$syn..item..UseTree$GT$17hee0c89ad1abad1b1E', symObjAddr: 0x7BB0, symBinAddr: 0x799D0, symSize: 0x1E0 }
  - { offsetInCU: 0x21075, offset: 0x17A140, size: 0x8, addend: 0x0, symName: '__ZN4core3ptr40drop_in_place$LT$syn..expr..ExprPath$GT$17heaa068b65b1423afE', symObjAddr: 0x7D90, symBinAddr: 0x79BB0, symSize: 0x110 }
  - { offsetInCU: 0x214FE, offset: 0x17A5C9, size: 0x8, addend: 0x0, symName: '__ZN4core3ptr40drop_in_place$LT$syn..item..ImplItem$GT$17h68b652336c158f7cE', symObjAddr: 0x7EA0, symBinAddr: 0x79CC0, symSize: 0x220 }
  - { offsetInCU: 0x21B4B, offset: 0x17AC16, size: 0x8, addend: 0x0, symName: '__ZN4core3ptr40drop_in_place$LT$syn..item..Receiver$GT$17hdaf58aa30c8edad3E', symObjAddr: 0x80C0, symBinAddr: 0x79EE0, symSize: 0x130 }
  - { offsetInCU: 0x22149, offset: 0x17B214, size: 0x8, addend: 0x0, symName: '__ZN4core3ptr40drop_in_place$LT$syn..item..Variadic$GT$17h97a3c0060c8a28f8E', symObjAddr: 0x81F0, symBinAddr: 0x7A010, symSize: 0x120 }
  - { offsetInCU: 0x225EC, offset: 0x17B6B7, size: 0x8, addend: 0x0, symName: '__ZN4core3ptr40drop_in_place$LT$syn..ty..ReturnType$GT$17h14f04ba862eb52f4E.llvm.15846109013729029931', symObjAddr: 0x8310, symBinAddr: 0x7A130, symSize: 0x50 }
  - { offsetInCU: 0x2277B, offset: 0x17B846, size: 0x8, addend: 0x0, symName: '__ZN4core3ptr41drop_in_place$LT$syn..attr..Attribute$GT$17hc8dc191344905007E.llvm.15846109013729029931', symObjAddr: 0x8360, symBinAddr: 0x7A180, symSize: 0x160 }
  - { offsetInCU: 0x22C4F, offset: 0x17BD1A, size: 0x8, addend: 0x0, symName: '__ZN4core3ptr41drop_in_place$LT$syn..item..Signature$GT$17h8a977d2b7ce6b321E', symObjAddr: 0x84C0, symBinAddr: 0x7A2E0, symSize: 0x270 }
  - { offsetInCU: 0x23764, offset: 0x17C82F, size: 0x8, addend: 0x0, symName: '__ZN4core3ptr41drop_in_place$LT$syn..item..TraitItem$GT$17h74f32e34342503edE', symObjAddr: 0x8730, symBinAddr: 0x7A550, symSize: 0x3D0 }
  - { offsetInCU: 0x243A2, offset: 0x17D46D, size: 0x8, addend: 0x0, symName: '__ZN4core3ptr42drop_in_place$LT$syn..item..ImplItemFn$GT$17h7ff57fb460df1023E', symObjAddr: 0x8B00, symBinAddr: 0x7A920, symSize: 0x230 }
  - { offsetInCU: 0x24B65, offset: 0x17DC30, size: 0x8, addend: 0x0, symName: '__ZN4core3ptr42drop_in_place$LT$syn..path..Constraint$GT$17hee37ff6ffbf8d764E', symObjAddr: 0x8D30, symBinAddr: 0x7AB50, symSize: 0x160 }
  - { offsetInCU: 0x25232, offset: 0x17E2FD, size: 0x8, addend: 0x0, symName: '__ZN4core3ptr43drop_in_place$LT$proc_macro2..TokenTree$GT$17hfc5c5bf9a9e0ef9cE.llvm.15846109013729029931', symObjAddr: 0x8E90, symBinAddr: 0x7ACB0, symSize: 0xB0 }
  - { offsetInCU: 0x2558D, offset: 0x17E658, size: 0x8, addend: 0x0, symName: '__ZN4core3ptr43drop_in_place$LT$syn..data..FieldsNamed$GT$17h004fec19f8b6a830E', symObjAddr: 0x8F40, symBinAddr: 0x7AD60, symSize: 0x120 }
  - { offsetInCU: 0x25A51, offset: 0x17EB1C, size: 0x8, addend: 0x0, symName: '__ZN4core3ptr43drop_in_place$LT$syn..item..ForeignItem$GT$17h8afba3c5bf1ffb98E', symObjAddr: 0x9060, symBinAddr: 0x7AE80, symSize: 0x340 }
  - { offsetInCU: 0x26462, offset: 0x17F52D, size: 0x8, addend: 0x0, symName: '__ZN4core3ptr43drop_in_place$LT$syn..path..PathSegment$GT$17hf093a51a249c2ab0E.llvm.15846109013729029931', symObjAddr: 0x93A0, symBinAddr: 0x7B1C0, symSize: 0x190 }
  - { offsetInCU: 0x26A22, offset: 0x17FAED, size: 0x8, addend: 0x0, symName: '__ZN4core3ptr44drop_in_place$LT$syn..generics..Generics$GT$17he5ddc4e21d959fbdE', symObjAddr: 0x9530, symBinAddr: 0x7B350, symSize: 0x160 }
  - { offsetInCU: 0x26EFB, offset: 0x17FFC6, size: 0x8, addend: 0x0, symName: '__ZN4core3ptr44drop_in_place$LT$syn..item..ImplItemType$GT$17h32a5bdd4576b2dbcE', symObjAddr: 0x9690, symBinAddr: 0x7B4B0, symSize: 0x1F0 }
  - { offsetInCU: 0x2750E, offset: 0x1805D9, size: 0x8, addend: 0x0, symName: '__ZN4core3ptr44drop_in_place$LT$syn..lifetime..Lifetime$GT$17h81f5c412fc4e75a1E.llvm.15846109013729029931', symObjAddr: 0x9880, symBinAddr: 0x7B6A0, symSize: 0x30 }
  - { offsetInCU: 0x27667, offset: 0x180732, size: 0x8, addend: 0x0, symName: '__ZN4core3ptr45drop_in_place$LT$proc_macro2..TokenStream$GT$17h725968a5788a0c43E.llvm.15846109013729029931', symObjAddr: 0x98B0, symBinAddr: 0x7B6D0, symSize: 0x70 }
  - { offsetInCU: 0x277CE, offset: 0x180899, size: 0x8, addend: 0x0, symName: '__ZN4core3ptr45drop_in_place$LT$syn..generics..TypeParam$GT$17h2ddacbd5ce28b514E.llvm.15846109013729029931', symObjAddr: 0x9920, symBinAddr: 0x7B740, symSize: 0x230 }
  - { offsetInCU: 0x28038, offset: 0x181103, size: 0x8, addend: 0x0, symName: '__ZN4core3ptr45drop_in_place$LT$syn..item..ImplItemConst$GT$17hfdcc75cb1688987fE', symObjAddr: 0x9B50, symBinAddr: 0x7B970, symSize: 0x210 }
  - { offsetInCU: 0x28689, offset: 0x181754, size: 0x8, addend: 0x0, symName: '__ZN4core3ptr45drop_in_place$LT$syn..item..TraitItemType$GT$17hacefc043cb885594E', symObjAddr: 0x9D60, symBinAddr: 0x7BB80, symSize: 0x290 }
  - { offsetInCU: 0x28FF3, offset: 0x1820BE, size: 0x8, addend: 0x0, symName: '__ZN4core3ptr46drop_in_place$LT$syn..generics..ConstParam$GT$17h847551b4d11dedb8E.llvm.15846109013729029931', symObjAddr: 0x9FF0, symBinAddr: 0x7BE10, symSize: 0x150 }
  - { offsetInCU: 0x293ED, offset: 0x1824B8, size: 0x8, addend: 0x0, symName: '__ZN4core3ptr46drop_in_place$LT$syn..item..TraitItemConst$GT$17ha64ba114316282f8E', symObjAddr: 0xA140, symBinAddr: 0x7BF60, symSize: 0x1B0 }
  - { offsetInCU: 0x298CE, offset: 0x182999, size: 0x8, addend: 0x0, symName: '__ZN4core3ptr47drop_in_place$LT$syn..generics..WhereClause$GT$17h37bc1e5b9bc895a7E', symObjAddr: 0xA2F0, symBinAddr: 0x7C110, symSize: 0x120 }
  - { offsetInCU: 0x29D54, offset: 0x182E1F, size: 0x8, addend: 0x0, symName: '__ZN4core3ptr47drop_in_place$LT$syn..item..ForeignItemType$GT$17h9368fd5cc11a309dE', symObjAddr: 0xA410, symBinAddr: 0x7C230, symSize: 0x1B0 }
  - { offsetInCU: 0x2A3C2, offset: 0x18348D, size: 0x8, addend: 0x0, symName: '__ZN4core3ptr47drop_in_place$LT$syn..path..GenericArgument$GT$17ha0f8621278069bfaE', symObjAddr: 0xA5C0, symBinAddr: 0x7C3E0, symSize: 0x1C0 }
  - { offsetInCU: 0x2A867, offset: 0x183932, size: 0x8, addend: 0x0, symName: '__ZN4core3ptr48drop_in_place$LT$syn..generics..GenericParam$GT$17hb7b691eed8b37306E.llvm.15846109013729029931', symObjAddr: 0xA780, symBinAddr: 0x7C5A0, symSize: 0x40 }
  - { offsetInCU: 0x2A884, offset: 0x18394F, size: 0x8, addend: 0x0, symName: '__ZN4core3ptr49drop_in_place$LT$syn..generics..LifetimeParam$GT$17hd8de96c71b63fc49E.llvm.15846109013729029931', symObjAddr: 0xA7C0, symBinAddr: 0x7C5E0, symSize: 0xF0 }
  - { offsetInCU: 0x2AC6E, offset: 0x183D39, size: 0x8, addend: 0x0, symName: '__ZN4core3ptr49drop_in_place$LT$syn..item..ForeignItemStatic$GT$17hc1af8b3f31865b8cE', symObjAddr: 0xA8B0, symBinAddr: 0x7C6D0, symSize: 0x190 }
  - { offsetInCU: 0x2B370, offset: 0x18443B, size: 0x8, addend: 0x0, symName: '__ZN4core3ptr50drop_in_place$LT$$u5b$syn..item..ImplItem$u5d$$GT$17h8c2165ae744fe512E', symObjAddr: 0xAA40, symBinAddr: 0x7C860, symSize: 0x210 }
  - { offsetInCU: 0x2B6E4, offset: 0x1847AF, size: 0x8, addend: 0x0, symName: '__ZN4core3ptr50drop_in_place$LT$syn..generics..TypeParamBound$GT$17hc0b3a8451b112484E', symObjAddr: 0xAC50, symBinAddr: 0x7CA70, symSize: 0xA0 }
  - { offsetInCU: 0x2B888, offset: 0x184953, size: 0x8, addend: 0x0, symName: '__ZN4core3ptr50drop_in_place$LT$syn..generics..WherePredicate$GT$17h88c4db20921026f6E.llvm.15846109013729029931', symObjAddr: 0xACF0, symBinAddr: 0x7CB10, symSize: 0xA0 }
  - { offsetInCU: 0x2BA38, offset: 0x184B03, size: 0x8, addend: 0x0, symName: '__ZN4core3ptr51drop_in_place$LT$$u5b$syn..item..TraitItem$u5d$$GT$17h22683a75a8cb75c4E', symObjAddr: 0xAD90, symBinAddr: 0x7CBB0, symSize: 0x3E0 }
  - { offsetInCU: 0x2C3DA, offset: 0x1854A5, size: 0x8, addend: 0x0, symName: '__ZN4core3ptr52drop_in_place$LT$syn..restriction..VisRestricted$GT$17h2d10f6f2c296bc58E', symObjAddr: 0xB170, symBinAddr: 0x7CF90, symSize: 0x50 }
  - { offsetInCU: 0x2C571, offset: 0x18563C, size: 0x8, addend: 0x0, symName: '__ZN4core3ptr53drop_in_place$LT$$u5b$syn..item..ForeignItem$u5d$$GT$17hdd8a09b41b13483cE', symObjAddr: 0xB1C0, symBinAddr: 0x7CFE0, symSize: 0x370 }
  - { offsetInCU: 0x2CDAE, offset: 0x185E79, size: 0x8, addend: 0x0, symName: '__ZN4core3ptr56drop_in_place$LT$serde_derive..internals..ast..Field$GT$17h4c92bc3355f38411E.llvm.15846109013729029931', symObjAddr: 0xB530, symBinAddr: 0x7D350, symSize: 0x60 }
  - { offsetInCU: 0x2CDCE, offset: 0x185E99, size: 0x8, addend: 0x0, symName: '__ZN4core3ptr56drop_in_place$LT$serde_derive..internals..ast..Field$GT$17h4c92bc3355f38411E.llvm.15846109013729029931', symObjAddr: 0xB530, symBinAddr: 0x7D350, symSize: 0x60 }
  - { offsetInCU: 0x2CF94, offset: 0x18605F, size: 0x8, addend: 0x0, symName: '__ZN4core3ptr57drop_in_place$LT$serde_derive..internals..attr..Field$GT$17h45f7e7041db0b203E.llvm.15846109013729029931', symObjAddr: 0xB590, symBinAddr: 0x7D3B0, symSize: 0x320 }
  - { offsetInCU: 0x2D97C, offset: 0x186A47, size: 0x8, addend: 0x0, symName: '__ZN4core3ptr58drop_in_place$LT$alloc..vec..Vec$LT$syn..expr..Arm$GT$$GT$17ha6d87cf8cb2f8625E', symObjAddr: 0xB8B0, symBinAddr: 0x7D6D0, symSize: 0xD0 }
  - { offsetInCU: 0x2DC43, offset: 0x186D0E, size: 0x8, addend: 0x0, symName: '__ZN4core3ptr58drop_in_place$LT$serde_derive..internals..ast..Variant$GT$17h97e4210dee576976E.llvm.15846109013729029931', symObjAddr: 0xB980, symBinAddr: 0x7D7A0, symSize: 0x70 }
  - { offsetInCU: 0x2DD41, offset: 0x186E0C, size: 0x8, addend: 0x0, symName: '__ZN4core3ptr59drop_in_place$LT$alloc..boxed..Box$LT$syn..pat..Pat$GT$$GT$17h04b5a49dc338bf9cE.llvm.15846109013729029931', symObjAddr: 0xB9F0, symBinAddr: 0x7D810, symSize: 0x50 }
  - { offsetInCU: 0x2DE9A, offset: 0x186F65, size: 0x8, addend: 0x0, symName: '__ZN4core3ptr59drop_in_place$LT$alloc..boxed..Box$LT$syn..ty..Type$GT$$GT$17hfb8a09f23f7902beE', symObjAddr: 0xBA40, symBinAddr: 0x7D860, symSize: 0x50 }
  - { offsetInCU: 0x2DFF3, offset: 0x1870BE, size: 0x8, addend: 0x0, symName: '__ZN4core3ptr59drop_in_place$LT$alloc..vec..Vec$LT$syn..item..Item$GT$$GT$17h7c5967828e8774c0E', symObjAddr: 0xBA90, symBinAddr: 0x7D8B0, symSize: 0xD0 }
  - { offsetInCU: 0x2E317, offset: 0x1873E2, size: 0x8, addend: 0x0, symName: '__ZN4core3ptr59drop_in_place$LT$serde_derive..internals..attr..Variant$GT$17hf49fb7bbcae9d0b2E.llvm.15846109013729029931', symObjAddr: 0xBB60, symBinAddr: 0x7D980, symSize: 0x2B0 }
  - { offsetInCU: 0x2ECF4, offset: 0x187DBF, size: 0x8, addend: 0x0, symName: '__ZN4core3ptr61drop_in_place$LT$alloc..boxed..Box$LT$syn..expr..Expr$GT$$GT$17hfe67d291b01d4939E', symObjAddr: 0xBE10, symBinAddr: 0x7DC30, symSize: 0x50 }
  - { offsetInCU: 0x2EE4D, offset: 0x187F18, size: 0x8, addend: 0x0, symName: '__ZN4core3ptr61drop_in_place$LT$alloc..boxed..Box$LT$syn..path..Path$GT$$GT$17ha8e49cdde7453353E', symObjAddr: 0xBE60, symBinAddr: 0x7DC80, symSize: 0x100 }
  - { offsetInCU: 0x2F2F1, offset: 0x1883BC, size: 0x8, addend: 0x0, symName: '__ZN4core3ptr61drop_in_place$LT$alloc..vec..Vec$LT$syn..expr..Member$GT$$GT$17he449a98c8d26f957E.llvm.15846109013729029931', symObjAddr: 0xBF60, symBinAddr: 0x7DD80, symSize: 0x90 }
  - { offsetInCU: 0x2F664, offset: 0x18872F, size: 0x8, addend: 0x0, symName: '__ZN4core3ptr61drop_in_place$LT$syn..path..ParenthesizedGenericArguments$GT$17hc6164008a0f156caE.llvm.15846109013729029931', symObjAddr: 0xBFF0, symBinAddr: 0x7DE10, symSize: 0x170 }
  - { offsetInCU: 0x2FC61, offset: 0x188D2C, size: 0x8, addend: 0x0, symName: '__ZN4core3ptr62drop_in_place$LT$alloc..boxed..Box$LT$syn..data..Field$GT$$GT$17h2731223145b99729E', symObjAddr: 0xC160, symBinAddr: 0x7DF80, symSize: 0x50 }
  - { offsetInCU: 0x2FDD9, offset: 0x188EA4, size: 0x8, addend: 0x0, symName: '__ZN4core3ptr62drop_in_place$LT$alloc..boxed..Box$LT$syn..item..FnArg$GT$$GT$17h4a15c9ffacdaec93E', symObjAddr: 0xC1B0, symBinAddr: 0x7DFD0, symSize: 0x60 }
  - { offsetInCU: 0x2FF4F, offset: 0x18901A, size: 0x8, addend: 0x0, symName: '__ZN4core3ptr62drop_in_place$LT$alloc..boxed..Box$LT$syn..stmt..Block$GT$$GT$17h61493b9e67d670bfE', symObjAddr: 0xC210, symBinAddr: 0x7E030, symSize: 0xE0 }
  - { offsetInCU: 0x303A6, offset: 0x189471, size: 0x8, addend: 0x0, symName: '__ZN4core3ptr62drop_in_place$LT$alloc..vec..Vec$LT$proc_macro2..Ident$GT$$GT$17hd48d23b6f25ff074E.llvm.15846109013729029931', symObjAddr: 0xC2F0, symBinAddr: 0x7E110, symSize: 0x90 }
  - { offsetInCU: 0x30641, offset: 0x18970C, size: 0x8, addend: 0x0, symName: '__ZN4core3ptr62drop_in_place$LT$syn..path..AngleBracketedGenericArguments$GT$17h0299086782c6da12E.llvm.15846109013729029931', symObjAddr: 0xC380, symBinAddr: 0x7E1A0, symSize: 0x120 }
  - { offsetInCU: 0x30AC7, offset: 0x189B92, size: 0x8, addend: 0x0, symName: '__ZN4core3ptr63drop_in_place$LT$alloc..vec..Vec$LT$syn..item..ImplItem$GT$$GT$17h895ec27f92d3060dE', symObjAddr: 0xC4A0, symBinAddr: 0x7E2C0, symSize: 0x80 }
  - { offsetInCU: 0x30D7F, offset: 0x189E4A, size: 0x8, addend: 0x0, symName: '__ZN4core3ptr64drop_in_place$LT$alloc..boxed..Box$LT$syn..data..Variant$GT$$GT$17h2c9c7af9ab682f62E', symObjAddr: 0xC520, symBinAddr: 0x7E340, symSize: 0x50 }
  - { offsetInCU: 0x30ED8, offset: 0x189FA3, size: 0x8, addend: 0x0, symName: '__ZN4core3ptr64drop_in_place$LT$alloc..boxed..Box$LT$syn..item..UseTree$GT$$GT$17h72502c40bffeb307E', symObjAddr: 0xC570, symBinAddr: 0x7E390, symSize: 0x50 }
  - { offsetInCU: 0x31050, offset: 0x18A11B, size: 0x8, addend: 0x0, symName: '__ZN4core3ptr64drop_in_place$LT$alloc..boxed..Box$LT$syn..pat..FieldPat$GT$$GT$17hb9cdd4a04c64745aE', symObjAddr: 0xC5C0, symBinAddr: 0x7E3E0, symSize: 0x140 }
  - { offsetInCU: 0x3171A, offset: 0x18A7E5, size: 0x8, addend: 0x0, symName: '__ZN4core3ptr64drop_in_place$LT$alloc..boxed..Box$LT$syn..ty..BareFnArg$GT$$GT$17hdf9a99e9a3e43b93E', symObjAddr: 0xC700, symBinAddr: 0x7E520, symSize: 0x140 }
  - { offsetInCU: 0x31CAD, offset: 0x18AD78, size: 0x8, addend: 0x0, symName: '__ZN4core3ptr64drop_in_place$LT$alloc..vec..Vec$LT$syn..attr..Attribute$GT$$GT$17h39f71ed119168abdE', symObjAddr: 0xC840, symBinAddr: 0x7E660, symSize: 0xD0 }
  - { offsetInCU: 0x31FA8, offset: 0x18B073, size: 0x8, addend: 0x0, symName: '__ZN4core3ptr64drop_in_place$LT$alloc..vec..Vec$LT$syn..item..TraitItem$GT$$GT$17h3f3315619642e337E', symObjAddr: 0xC910, symBinAddr: 0x7E730, symSize: 0x80 }
  - { offsetInCU: 0x32260, offset: 0x18B32B, size: 0x8, addend: 0x0, symName: '__ZN4core3ptr65drop_in_place$LT$$LP$syn..item..FnArg$C$syn..token..Comma$RP$$GT$17h20ee41d816037895E', symObjAddr: 0xC990, symBinAddr: 0x7E7B0, symSize: 0x20 }
  - { offsetInCU: 0x322F9, offset: 0x18B3C4, size: 0x8, addend: 0x0, symName: '__ZN4core3ptr65drop_in_place$LT$alloc..vec..Vec$LT$proc_macro..TokenTree$GT$$GT$17h07ad17327f0607d0E.llvm.15846109013729029931', symObjAddr: 0xC9B0, symBinAddr: 0x7E7D0, symSize: 0x110 }
  - { offsetInCU: 0x3270B, offset: 0x18B7D6, size: 0x8, addend: 0x0, symName: '__ZN4core3ptr65drop_in_place$LT$core..option..Option$LT$syn..expr..Label$GT$$GT$17h7370f4cd7d051021E', symObjAddr: 0xCAC0, symBinAddr: 0x7E8E0, symSize: 0x30 }
  - { offsetInCU: 0x32845, offset: 0x18B910, size: 0x8, addend: 0x0, symName: '__ZN4core3ptr65drop_in_place$LT$core..option..Option$LT$syn..path..QSelf$GT$$GT$17h9bc6bd805f4b805bE', symObjAddr: 0xCAF0, symBinAddr: 0x7E910, symSize: 0x50 }
  - { offsetInCU: 0x329C6, offset: 0x18BA91, size: 0x8, addend: 0x0, symName: '__ZN4core3ptr65drop_in_place$LT$core..option..Option$LT$syn..stmt..Block$GT$$GT$17h7b1cc5d306251504E', symObjAddr: 0xCB40, symBinAddr: 0x7E960, symSize: 0xD0 }
  - { offsetInCU: 0x32CD9, offset: 0x18BDA4, size: 0x8, addend: 0x0, symName: '__ZN4core3ptr66drop_in_place$LT$alloc..vec..Vec$LT$proc_macro2..TokenTree$GT$$GT$17h534ba54a52b3c902E', symObjAddr: 0xCC10, symBinAddr: 0x7EA30, symSize: 0xC0 }
  - { offsetInCU: 0x32FB1, offset: 0x18C07C, size: 0x8, addend: 0x0, symName: '__ZN4core3ptr66drop_in_place$LT$alloc..vec..Vec$LT$syn..item..ForeignItem$GT$$GT$17h3d9df21754955f17E', symObjAddr: 0xCCD0, symBinAddr: 0x7EAF0, symSize: 0x80 }
  - { offsetInCU: 0x33269, offset: 0x18C334, size: 0x8, addend: 0x0, symName: '__ZN4core3ptr67drop_in_place$LT$$LP$syn..pat..FieldPat$C$syn..token..Comma$RP$$GT$17hd174da72c4f45979E.llvm.15846109013729029931', symObjAddr: 0xCD50, symBinAddr: 0x7EB70, symSize: 0x120 }
  - { offsetInCU: 0x337FE, offset: 0x18C8C9, size: 0x8, addend: 0x0, symName: '__ZN4core3ptr67drop_in_place$LT$$LP$syn..ty..BareFnArg$C$syn..token..Comma$RP$$GT$17h84525931bba4b131E.llvm.15846109013729029931', symObjAddr: 0xCE70, symBinAddr: 0x7EC90, symSize: 0x110 }
  - { offsetInCU: 0x33C7C, offset: 0x18CD47, size: 0x8, addend: 0x0, symName: '__ZN4core3ptr67drop_in_place$LT$alloc..boxed..Box$LT$syn..expr..FieldValue$GT$$GT$17hdb569e1e168cfcafE', symObjAddr: 0xCF80, symBinAddr: 0x7EDA0, symSize: 0x140 }
  - { offsetInCU: 0x341EF, offset: 0x18D2BA, size: 0x8, addend: 0x0, symName: '__ZN4core3ptr68drop_in_place$LT$alloc..boxed..Box$LT$syn..path..PathSegment$GT$$GT$17h8bc236a2626e080dE', symObjAddr: 0xD0C0, symBinAddr: 0x7EEE0, symSize: 0xF0 }
  - { offsetInCU: 0x3462F, offset: 0x18D6FA, size: 0x8, addend: 0x0, symName: '__ZN4core3ptr68drop_in_place$LT$alloc..vec..Vec$LT$proc_macro2..TokenStream$GT$$GT$17h89f8e818f58e8351E.llvm.15846109013729029931', symObjAddr: 0xD1B0, symBinAddr: 0x7EFD0, symSize: 0xC0 }
  - { offsetInCU: 0x34907, offset: 0x18D9D2, size: 0x8, addend: 0x0, symName: '__ZN4core3ptr69drop_in_place$LT$core..option..Option$LT$syn..stmt..LocalInit$GT$$GT$17h8a988b9dcaf7c8a1E', symObjAddr: 0xD270, symBinAddr: 0x7F090, symSize: 0xC0 }
  - { offsetInCU: 0x34C2B, offset: 0x18DCF6, size: 0x8, addend: 0x0, symName: '__ZN4core3ptr70drop_in_place$LT$$LP$syn..expr..FieldValue$C$syn..token..Comma$RP$$GT$17hf665606bf8dc19a4E.llvm.15846109013729029931', symObjAddr: 0xD330, symBinAddr: 0x7F150, symSize: 0x110 }
  - { offsetInCU: 0x3506A, offset: 0x18E135, size: 0x8, addend: 0x0, symName: '__ZN4core3ptr70drop_in_place$LT$core..option..Option$LT$syn..ty..BareVariadic$GT$$GT$17h891315fdf14c9598E', symObjAddr: 0xD440, symBinAddr: 0x7F260, symSize: 0x100 }
  - { offsetInCU: 0x354C9, offset: 0x18E594, size: 0x8, addend: 0x0, symName: '__ZN4core3ptr72drop_in_place$LT$alloc..boxed..Box$LT$syn..path..GenericArgument$GT$$GT$17ha22f3de00ed22d7dE.llvm.15846109013729029931', symObjAddr: 0xD540, symBinAddr: 0x7F360, symSize: 0x190 }
  - { offsetInCU: 0x35991, offset: 0x18EA5C, size: 0x8, addend: 0x0, symName: '__ZN4core3ptr73drop_in_place$LT$$LP$syn..path..PathSegment$C$syn..token..PathSep$RP$$GT$17h67067a347df7d8e0E.llvm.15846109013729029931', symObjAddr: 0xD6D0, symBinAddr: 0x7F4F0, symSize: 0xD0 }
  - { offsetInCU: 0x35C54, offset: 0x18ED1F, size: 0x8, addend: 0x0, symName: '__ZN4core3ptr73drop_in_place$LT$alloc..boxed..Box$LT$syn..generics..GenericParam$GT$$GT$17h4a82c3bd6b9e6f81E', symObjAddr: 0xD7A0, symBinAddr: 0x7F5C0, symSize: 0x80 }
  - { offsetInCU: 0x35DCA, offset: 0x18EE95, size: 0x8, addend: 0x0, symName: '__ZN4core3ptr73drop_in_place$LT$alloc..vec..Vec$LT$syn..generics..WherePredicate$GT$$GT$17h0052c17cbfe03aaeE.llvm.15846109013729029931', symObjAddr: 0xD820, symBinAddr: 0x7F640, symSize: 0xD0 }
  - { offsetInCU: 0x36091, offset: 0x18F15C, size: 0x8, addend: 0x0, symName: '__ZN4core3ptr75drop_in_place$LT$$LP$syn..path..GenericArgument$C$syn..token..Comma$RP$$GT$17hfbb2ec3118b550e2E.llvm.15846109013729029931', symObjAddr: 0xD8F0, symBinAddr: 0x7F710, symSize: 0x180 }
  - { offsetInCU: 0x3641F, offset: 0x18F4EA, size: 0x8, addend: 0x0, symName: '__ZN4core3ptr75drop_in_place$LT$alloc..boxed..Box$LT$syn..generics..TypeParamBound$GT$$GT$17h47c0b9686bcdda20E', symObjAddr: 0xDA70, symBinAddr: 0x7F890, symSize: 0x180 }
  - { offsetInCU: 0x369E9, offset: 0x18FAB4, size: 0x8, addend: 0x0, symName: '__ZN4core3ptr75drop_in_place$LT$alloc..boxed..Box$LT$syn..generics..WherePredicate$GT$$GT$17h33b3eb9d8aebb00fE', symObjAddr: 0xDBF0, symBinAddr: 0x7FA10, symSize: 0x50 }
  - { offsetInCU: 0x36B42, offset: 0x18FC0D, size: 0x8, addend: 0x0, symName: '__ZN4core3ptr76drop_in_place$LT$$LP$syn..generics..GenericParam$C$syn..token..Comma$RP$$GT$17h664f4e19060031bfE.llvm.15846109013729029931', symObjAddr: 0xDC40, symBinAddr: 0x7FA60, symSize: 0x40 }
  - { offsetInCU: 0x36B7E, offset: 0x18FC49, size: 0x8, addend: 0x0, symName: '__ZN4core3ptr77drop_in_place$LT$$LP$syn..generics..TypeParamBound$C$syn..token..Plus$RP$$GT$17hee4c17b5f84550aeE.llvm.15846109013729029931', symObjAddr: 0xDC80, symBinAddr: 0x7FAA0, symSize: 0x180 }
  - { offsetInCU: 0x37058, offset: 0x190123, size: 0x8, addend: 0x0, symName: '__ZN4core3ptr78drop_in_place$LT$core..option..IntoIter$LT$syn..generics..GenericParam$GT$$GT$17h0c44c9171753ae1bE.llvm.15846109013729029931', symObjAddr: 0xDE00, symBinAddr: 0x7FC20, symSize: 0x50 }
  - { offsetInCU: 0x37132, offset: 0x1901FD, size: 0x8, addend: 0x0, symName: '__ZN4core3ptr79drop_in_place$LT$alloc..vec..Vec$LT$serde_derive..internals..ast..Field$GT$$GT$17hcbb7f7e9e49e6f65E.llvm.15846109013729029931', symObjAddr: 0xDE50, symBinAddr: 0x7FC70, symSize: 0x110 }
  - { offsetInCU: 0x37547, offset: 0x190612, size: 0x8, addend: 0x0, symName: '__ZN4core3ptr81drop_in_place$LT$alloc..vec..Vec$LT$serde_derive..internals..ast..Variant$GT$$GT$17hdb21586bc2625e3eE', symObjAddr: 0xDF60, symBinAddr: 0x7FD80, symSize: 0x60 }
  - { offsetInCU: 0x37789, offset: 0x190854, size: 0x8, addend: 0x0, symName: '__ZN4core3ptr86drop_in_place$LT$$LP$syn..token..If$C$alloc..boxed..Box$LT$syn..expr..Expr$GT$$RP$$GT$17h85ebf960b0452b31E', symObjAddr: 0xDFC0, symBinAddr: 0x7FDE0, symSize: 0x50 }
  - { offsetInCU: 0x3799C, offset: 0x190A67, size: 0x8, addend: 0x0, symName: '__ZN4core3ptr86drop_in_place$LT$syn..punctuated..Punctuated$LT$syn..pat..Pat$C$syn..token..Or$GT$$GT$17h028803b51a0e008cE', symObjAddr: 0xE010, symBinAddr: 0x7FE30, symSize: 0x120 }
  - { offsetInCU: 0x37E35, offset: 0x190F00, size: 0x8, addend: 0x0, symName: '__ZN4core3ptr87drop_in_place$LT$$LP$alloc..boxed..Box$LT$syn..pat..Pat$GT$$C$syn..token..Colon$RP$$GT$17hecaa0b7ff8c0cf3cE', symObjAddr: 0xE130, symBinAddr: 0x7FF50, symSize: 0x50 }
  - { offsetInCU: 0x37FAD, offset: 0x191078, size: 0x8, addend: 0x0, symName: '__ZN4core3ptr87drop_in_place$LT$core..option..Option$LT$alloc..boxed..Box$LT$syn..ty..Type$GT$$GT$$GT$17hb21c4c429b95d768E', symObjAddr: 0xE180, symBinAddr: 0x7FFA0, symSize: 0x50 }
  - { offsetInCU: 0x3811D, offset: 0x1911E8, size: 0x8, addend: 0x0, symName: '__ZN4core3ptr89drop_in_place$LT$core..option..Option$LT$alloc..boxed..Box$LT$syn..expr..Expr$GT$$GT$$GT$17h0b10c8a8945d61ceE', symObjAddr: 0xE1D0, symBinAddr: 0x7FFF0, symSize: 0x50 }
  - { offsetInCU: 0x3828D, offset: 0x191358, size: 0x8, addend: 0x0, symName: '__ZN4core3ptr89drop_in_place$LT$syn..punctuated..Punctuated$LT$syn..ty..Type$C$syn..token..Comma$GT$$GT$17h0317a8a9919e8789E.llvm.15846109013729029931', symObjAddr: 0xE220, symBinAddr: 0x80040, symSize: 0x120 }
  - { offsetInCU: 0x3870F, offset: 0x1917DA, size: 0x8, addend: 0x0, symName: '__ZN4core3ptr90drop_in_place$LT$core..option..Option$LT$alloc..boxed..Box$LT$syn..data..Field$GT$$GT$$GT$17h31d400183c362571E', symObjAddr: 0xE340, symBinAddr: 0x80160, symSize: 0x50 }
  - { offsetInCU: 0x3887F, offset: 0x19194A, size: 0x8, addend: 0x0, symName: '__ZN4core3ptr90drop_in_place$LT$core..option..Option$LT$alloc..boxed..Box$LT$syn..item..FnArg$GT$$GT$$GT$17h888a315392d26369E', symObjAddr: 0xE390, symBinAddr: 0x801B0, symSize: 0x50 }
  - { offsetInCU: 0x38A6B, offset: 0x191B36, size: 0x8, addend: 0x0, symName: '__ZN4core3ptr91drop_in_place$LT$syn..punctuated..Punctuated$LT$syn..expr..Expr$C$syn..token..Comma$GT$$GT$17hd3047ab334148524E', symObjAddr: 0xE3E0, symBinAddr: 0x80200, symSize: 0x120 }
  - { offsetInCU: 0x38F00, offset: 0x191FCB, size: 0x8, addend: 0x0, symName: '__ZN4core3ptr92drop_in_place$LT$core..option..Option$LT$$LP$syn..token..As$C$proc_macro2..Ident$RP$$GT$$GT$17h22e0fa083d250d80E', symObjAddr: 0xE500, symBinAddr: 0x80320, symSize: 0x30 }
  - { offsetInCU: 0x3901B, offset: 0x1920E6, size: 0x8, addend: 0x0, symName: '__ZN4core3ptr92drop_in_place$LT$syn..punctuated..Punctuated$LT$syn..data..Field$C$syn..token..Comma$GT$$GT$17hb3af0065ee892250E', symObjAddr: 0xE530, symBinAddr: 0x80350, symSize: 0x120 }
  - { offsetInCU: 0x394A1, offset: 0x19256C, size: 0x8, addend: 0x0, symName: '__ZN4core3ptr92drop_in_place$LT$syn..punctuated..Punctuated$LT$syn..item..FnArg$C$syn..token..Comma$GT$$GT$17h27a39cdc756ea45dE', symObjAddr: 0xE650, symBinAddr: 0x80470, symSize: 0x150 }
  - { offsetInCU: 0x399EC, offset: 0x192AB7, size: 0x8, addend: 0x0, symName: '__ZN4core3ptr94drop_in_place$LT$syn..punctuated..Punctuated$LT$syn..data..Variant$C$syn..token..Comma$GT$$GT$17hcfcedcd867bb372eE', symObjAddr: 0xE7A0, symBinAddr: 0x805C0, symSize: 0x120 }
  - { offsetInCU: 0x39EFD, offset: 0x192FC8, size: 0x8, addend: 0x0, symName: '__ZN4core3ptr94drop_in_place$LT$syn..punctuated..Punctuated$LT$syn..pat..FieldPat$C$syn..token..Comma$GT$$GT$17h7ace9efb18f43d12E', symObjAddr: 0xE8C0, symBinAddr: 0x806E0, symSize: 0xF0 }
  - { offsetInCU: 0x3A292, offset: 0x19335D, size: 0x8, addend: 0x0, symName: '__ZN4core3ptr94drop_in_place$LT$syn..punctuated..Punctuated$LT$syn..ty..BareFnArg$C$syn..token..Comma$GT$$GT$17hb29c6edaabe01c76E', symObjAddr: 0xE9B0, symBinAddr: 0x807D0, symSize: 0xF0 }
  - { offsetInCU: 0x3A5AD, offset: 0x193678, size: 0x8, addend: 0x0, symName: '__ZN4core3ptr95drop_in_place$LT$core..option..Option$LT$$LP$proc_macro2..Ident$C$syn..token..Colon$RP$$GT$$GT$17he0c04d33e2bc9b82E.llvm.15846109013729029931', symObjAddr: 0xEAA0, symBinAddr: 0x808C0, symSize: 0x30 }
  - { offsetInCU: 0x3A6C8, offset: 0x193793, size: 0x8, addend: 0x0, symName: '__ZN4core3ptr95drop_in_place$LT$core..option..Option$LT$serde_derive..internals..attr..BorrowAttribute$GT$$GT$17h4e3d5c85d249635bE', symObjAddr: 0xEAD0, symBinAddr: 0x808F0, symSize: 0x110 }
  - { offsetInCU: 0x3AAB8, offset: 0x193B83, size: 0x8, addend: 0x0, symName: '__ZN4core3ptr96drop_in_place$LT$core..option..Option$LT$alloc..boxed..Box$LT$syn..path..PathSegment$GT$$GT$$GT$17hd919256ec958e698E.llvm.15846109013729029931', symObjAddr: 0xEBE0, symBinAddr: 0x80A00, symSize: 0xA0 }
  - { offsetInCU: 0x3ADB3, offset: 0x193E7E, size: 0x8, addend: 0x0, symName: '__ZN4core3ptr97drop_in_place$LT$syn..punctuated..Punctuated$LT$syn..expr..FieldValue$C$syn..token..Comma$GT$$GT$17he241ea7a3c55d267E', symObjAddr: 0xEC80, symBinAddr: 0x80AA0, symSize: 0xF0 }
  - { offsetInCU: 0x3B184, offset: 0x19424F, size: 0x8, addend: 0x0, symName: '__ZN4core3ptr98drop_in_place$LT$syn..punctuated..Punctuated$LT$syn..lifetime..Lifetime$C$syn..token..Plus$GT$$GT$17hb8f4279048db7792E.llvm.15846109013729029931', symObjAddr: 0xED70, symBinAddr: 0x80B90, symSize: 0xD0 }
  - { offsetInCU: 0x410E0, offset: 0x19A1AB, size: 0x8, addend: 0x0, symName: '__ZN48_$LT$T$u20$as$u20$core..clone..CloneToUninit$GT$15clone_to_uninit17h583d922b16117111E', symObjAddr: 0x340, symBinAddr: 0x721C0, symSize: 0x330 }
  - { offsetInCU: 0x433D8, offset: 0x19C4A3, size: 0x8, addend: 0x0, symName: '__ZN111_$LT$alloc..vec..Vec$LT$T$GT$$u20$as$u20$alloc..vec..spec_from_iter_nested..SpecFromIterNested$LT$T$C$I$GT$$GT$9from_iter17ha2cf99b3b3970218E', symObjAddr: 0x40, symBinAddr: 0x71EC0, symSize: 0x300 }
  - { offsetInCU: 0x44372, offset: 0x19D43D, size: 0x8, addend: 0x0, symName: '__ZN67_$LT$alloc..vec..Vec$LT$T$C$A$GT$$u20$as$u20$core..clone..Clone$GT$5clone17h8164ffc9486639a2E', symObjAddr: 0xEE40, symBinAddr: 0x80C60, symSize: 0x240 }
  - { offsetInCU: 0x44992, offset: 0x19DA5D, size: 0x8, addend: 0x0, symName: '__ZN67_$LT$alloc..vec..Vec$LT$T$C$A$GT$$u20$as$u20$core..clone..Clone$GT$5clone17hdbfb28606166fa5bE', symObjAddr: 0xF080, symBinAddr: 0x80EA0, symSize: 0x140 }
  - { offsetInCU: 0x452F4, offset: 0x19E3BF, size: 0x8, addend: 0x0, symName: '__ZN70_$LT$alloc..vec..Vec$LT$T$C$A$GT$$u20$as$u20$core..ops..drop..Drop$GT$4drop17h1ed794ee64c54fbbE', symObjAddr: 0xF340, symBinAddr: 0x80FE0, symSize: 0xB0 }
  - { offsetInCU: 0x45356, offset: 0x19E421, size: 0x8, addend: 0x0, symName: '__ZN70_$LT$alloc..vec..Vec$LT$T$C$A$GT$$u20$as$u20$core..ops..drop..Drop$GT$4drop17h3a456923ecf74c8aE', symObjAddr: 0xF530, symBinAddr: 0x81090, symSize: 0x330 }
  - { offsetInCU: 0x45D14, offset: 0x19EDDF, size: 0x8, addend: 0x0, symName: '__ZN70_$LT$alloc..vec..Vec$LT$T$C$A$GT$$u20$as$u20$core..ops..drop..Drop$GT$4drop17h6fa1f4055b10088dE', symObjAddr: 0xFDA0, symBinAddr: 0x813C0, symSize: 0x80 }
  - { offsetInCU: 0x45D9E, offset: 0x19EE69, size: 0x8, addend: 0x0, symName: '__ZN70_$LT$alloc..vec..Vec$LT$T$C$A$GT$$u20$as$u20$core..ops..drop..Drop$GT$4drop17h9bf64b247def6f5fE', symObjAddr: 0xFFD0, symBinAddr: 0x81440, symSize: 0xB0 }
  - { offsetInCU: 0x45E09, offset: 0x19EED4, size: 0x8, addend: 0x0, symName: '__ZN70_$LT$alloc..vec..Vec$LT$T$C$A$GT$$u20$as$u20$core..ops..drop..Drop$GT$4drop17he7fb2f20cd9283c7E', symObjAddr: 0x10430, symBinAddr: 0x814F0, symSize: 0xC0 }
  - { offsetInCU: 0x4683A, offset: 0x19F905, size: 0x8, addend: 0x0, symName: '__ZN98_$LT$alloc..vec..Vec$LT$T$GT$$u20$as$u20$alloc..vec..spec_from_iter..SpecFromIter$LT$T$C$I$GT$$GT$9from_iter17h1e8a37a40b209a40E', symObjAddr: 0x10920, symBinAddr: 0x815B0, symSize: 0x130 }
  - { offsetInCU: 0x46DD3, offset: 0x19FE9E, size: 0x8, addend: 0x0, symName: '__ZN98_$LT$alloc..vec..Vec$LT$T$GT$$u20$as$u20$alloc..vec..spec_from_iter..SpecFromIter$LT$T$C$I$GT$$GT$9from_iter17h273413b18ee27d11E', symObjAddr: 0x10A50, symBinAddr: 0x816E0, symSize: 0x5A0 }
  - { offsetInCU: 0x47E1B, offset: 0x1A0EE6, size: 0x8, addend: 0x0, symName: '__ZN98_$LT$alloc..vec..Vec$LT$T$GT$$u20$as$u20$alloc..vec..spec_from_iter..SpecFromIter$LT$T$C$I$GT$$GT$9from_iter17h42e6ace2e701b67cE', symObjAddr: 0x10FF0, symBinAddr: 0x81C80, symSize: 0x2E0 }
  - { offsetInCU: 0x4850E, offset: 0x1A15D9, size: 0x8, addend: 0x0, symName: '__ZN98_$LT$alloc..vec..Vec$LT$T$GT$$u20$as$u20$alloc..vec..spec_from_iter..SpecFromIter$LT$T$C$I$GT$$GT$9from_iter17h551bd1c2fb3c69f6E', symObjAddr: 0x112D0, symBinAddr: 0x81F60, symSize: 0x290 }
  - { offsetInCU: 0x48BD7, offset: 0x1A1CA2, size: 0x8, addend: 0x0, symName: '__ZN98_$LT$alloc..vec..Vec$LT$T$GT$$u20$as$u20$alloc..vec..spec_from_iter..SpecFromIter$LT$T$C$I$GT$$GT$9from_iter17h5684bf0d038137f0E', symObjAddr: 0x11690, symBinAddr: 0x821F0, symSize: 0x100 }
  - { offsetInCU: 0x48EE6, offset: 0x1A1FB1, size: 0x8, addend: 0x0, symName: '__ZN98_$LT$alloc..vec..Vec$LT$T$GT$$u20$as$u20$alloc..vec..spec_from_iter..SpecFromIter$LT$T$C$I$GT$$GT$9from_iter17h5dbc99ac008090daE', symObjAddr: 0x11790, symBinAddr: 0x822F0, symSize: 0x180 }
  - { offsetInCU: 0x494E7, offset: 0x1A25B2, size: 0x8, addend: 0x0, symName: '__ZN98_$LT$alloc..vec..Vec$LT$T$GT$$u20$as$u20$alloc..vec..spec_from_iter..SpecFromIter$LT$T$C$I$GT$$GT$9from_iter17h6590b0f7bbaee189E', symObjAddr: 0x11910, symBinAddr: 0x82470, symSize: 0x100 }
  - { offsetInCU: 0x497F6, offset: 0x1A28C1, size: 0x8, addend: 0x0, symName: '__ZN98_$LT$alloc..vec..Vec$LT$T$GT$$u20$as$u20$alloc..vec..spec_from_iter..SpecFromIter$LT$T$C$I$GT$$GT$9from_iter17h6770e8037a980f34E', symObjAddr: 0x11A10, symBinAddr: 0x82570, symSize: 0x130 }
  - { offsetInCU: 0x49D0D, offset: 0x1A2DD8, size: 0x8, addend: 0x0, symName: '__ZN98_$LT$alloc..vec..Vec$LT$T$GT$$u20$as$u20$alloc..vec..spec_from_iter..SpecFromIter$LT$T$C$I$GT$$GT$9from_iter17h73b55c372209a69cE', symObjAddr: 0x11CA0, symBinAddr: 0x826A0, symSize: 0x2B0 }
  - { offsetInCU: 0x4A2F0, offset: 0x1A33BB, size: 0x8, addend: 0x0, symName: '__ZN98_$LT$alloc..vec..Vec$LT$T$GT$$u20$as$u20$alloc..vec..spec_from_iter..SpecFromIter$LT$T$C$I$GT$$GT$9from_iter17h849e65b25e42f039E', symObjAddr: 0x12040, symBinAddr: 0x82950, symSize: 0x310 }
  - { offsetInCU: 0x4AE13, offset: 0x1A3EDE, size: 0x8, addend: 0x0, symName: '__ZN98_$LT$alloc..vec..Vec$LT$T$GT$$u20$as$u20$alloc..vec..spec_from_iter..SpecFromIter$LT$T$C$I$GT$$GT$9from_iter17h8f37cba8281a03deE', symObjAddr: 0x12350, symBinAddr: 0x82C60, symSize: 0x3C0 }
  - { offsetInCU: 0x4B535, offset: 0x1A4600, size: 0x8, addend: 0x0, symName: '__ZN98_$LT$alloc..vec..Vec$LT$T$GT$$u20$as$u20$alloc..vec..spec_from_iter..SpecFromIter$LT$T$C$I$GT$$GT$9from_iter17hc0788df776449029E', symObjAddr: 0x12710, symBinAddr: 0x83020, symSize: 0x360 }
  - { offsetInCU: 0x4C1FF, offset: 0x1A52CA, size: 0x8, addend: 0x0, symName: '__ZN98_$LT$alloc..vec..Vec$LT$T$GT$$u20$as$u20$alloc..vec..spec_from_iter..SpecFromIter$LT$T$C$I$GT$$GT$9from_iter17hce44321940327f0fE', symObjAddr: 0x12A70, symBinAddr: 0x83380, symSize: 0x2D0 }
  - { offsetInCU: 0x4C915, offset: 0x1A59E0, size: 0x8, addend: 0x0, symName: '__ZN98_$LT$alloc..vec..Vec$LT$T$GT$$u20$as$u20$alloc..vec..spec_from_iter..SpecFromIter$LT$T$C$I$GT$$GT$9from_iter17hd26762e98b99c661E', symObjAddr: 0x12D40, symBinAddr: 0x83650, symSize: 0x300 }
  - { offsetInCU: 0x4D3B4, offset: 0x1A647F, size: 0x8, addend: 0x0, symName: '__ZN98_$LT$alloc..vec..Vec$LT$T$GT$$u20$as$u20$alloc..vec..spec_from_iter..SpecFromIter$LT$T$C$I$GT$$GT$9from_iter17hec0f8aa5392f6a05E', symObjAddr: 0x13040, symBinAddr: 0x83950, symSize: 0x150 }
  - { offsetInCU: 0x88CF, offset: 0x1C1632, size: 0x8, addend: 0x0, symName: '__ZN5alloc11collections5btree4node208Handle$LT$alloc..collections..btree..node..NodeRef$LT$alloc..collections..btree..node..marker..Mut$C$K$C$V$C$alloc..collections..btree..node..marker..Leaf$GT$$C$alloc..collections..btree..node..marker..KV$GT$5split17h11bffaa604344a9cE', symObjAddr: 0x400, symBinAddr: 0x83AA0, symSize: 0x180 }
  - { offsetInCU: 0x91BA, offset: 0x1C1F1D, size: 0x8, addend: 0x0, symName: '__ZN5alloc11collections5btree4node208Handle$LT$alloc..collections..btree..node..NodeRef$LT$alloc..collections..btree..node..marker..Mut$C$K$C$V$C$alloc..collections..btree..node..marker..Leaf$GT$$C$alloc..collections..btree..node..marker..KV$GT$5split17h2d75c9296a3133bfE', symObjAddr: 0x580, symBinAddr: 0x83C20, symSize: 0x1B0 }
  - { offsetInCU: 0xA58A, offset: 0x1C32ED, size: 0x8, addend: 0x0, symName: '__ZN5alloc11collections5btree4node210Handle$LT$alloc..collections..btree..node..NodeRef$LT$alloc..collections..btree..node..marker..Mut$C$K$C$V$C$alloc..collections..btree..node..marker..Leaf$GT$$C$alloc..collections..btree..node..marker..Edge$GT$16insert_recursing17hb4aaf4dfbeac5929E', symObjAddr: 0x730, symBinAddr: 0x83DD0, symSize: 0x9C0 }
  - { offsetInCU: 0xC994, offset: 0x1C56F7, size: 0x8, addend: 0x0, symName: '__ZN5alloc11collections5btree4node210Handle$LT$alloc..collections..btree..node..NodeRef$LT$alloc..collections..btree..node..marker..Mut$C$K$C$V$C$alloc..collections..btree..node..marker..Leaf$GT$$C$alloc..collections..btree..node..marker..Edge$GT$16insert_recursing17hda605b5df0de3d28E', symObjAddr: 0x10F0, symBinAddr: 0x84790, symSize: 0xB20 }
  - { offsetInCU: 0xE852, offset: 0x1C75B5, size: 0x8, addend: 0x0, symName: '__ZN5alloc11collections5btree4node212Handle$LT$alloc..collections..btree..node..NodeRef$LT$alloc..collections..btree..node..marker..Mut$C$K$C$V$C$alloc..collections..btree..node..marker..Internal$GT$$C$alloc..collections..btree..node..marker..KV$GT$5split17h1467e805b9ca06fbE', symObjAddr: 0x1C10, symBinAddr: 0x852B0, symSize: 0x230 }
  - { offsetInCU: 0xF5EB, offset: 0x1C834E, size: 0x8, addend: 0x0, symName: '__ZN5alloc11collections5btree4node212Handle$LT$alloc..collections..btree..node..NodeRef$LT$alloc..collections..btree..node..marker..Mut$C$K$C$V$C$alloc..collections..btree..node..marker..Internal$GT$$C$alloc..collections..btree..node..marker..KV$GT$5split17hbadfe0df0acf7ffdE', symObjAddr: 0x1E40, symBinAddr: 0x854E0, symSize: 0x270 }
  - { offsetInCU: 0x1E, offset: 0x1C98B2, size: 0x8, addend: 0x0, symName: __ZN3syn4meta15ParseNestedMeta17parse_nested_meta17h5a0ddba8f57dfcaeE, symObjAddr: 0x0, symBinAddr: 0x85750, symSize: 0x510 }
  - { offsetInCU: 0x19E, offset: 0x1C9A32, size: 0x8, addend: 0x0, symName: '__ZN45_$LT$T$u20$as$u20$alloc..string..ToString$GT$9to_string17hd4ac1307b4eaf4ffE', symObjAddr: 0x59D0, symBinAddr: 0x8B120, symSize: 0xD0 }
  - { offsetInCU: 0x38B, offset: 0x1C9C1F, size: 0x8, addend: 0x0, symName: '__ZN58_$LT$alloc..string..String$u20$as$u20$core..fmt..Write$GT$10write_char17h04bc467bd68a934bE', symObjAddr: 0xCC50, symBinAddr: 0x923A0, symSize: 0x140 }
  - { offsetInCU: 0x790, offset: 0x1CA024, size: 0x8, addend: 0x0, symName: '__ZN58_$LT$alloc..string..String$u20$as$u20$core..fmt..Write$GT$9write_str17h46a93205c3443fbaE', symObjAddr: 0xCD90, symBinAddr: 0x924E0, symSize: 0x60 }
  - { offsetInCU: 0x9F3, offset: 0x1CA287, size: 0x8, addend: 0x0, symName: '__ZN60_$LT$alloc..string..String$u20$as$u20$core..fmt..Display$GT$3fmt17h0d0eb46f3054e2dfE', symObjAddr: 0xCFB0, symBinAddr: 0x92700, symSize: 0x18 }
  - { offsetInCU: 0x34D3, offset: 0x1CCD67, size: 0x8, addend: 0x0, symName: '__ZN5alloc3str21_$LT$impl$u20$str$GT$7replace17h40ffa8b3bc9e5354E', symObjAddr: 0xCDF0, symBinAddr: 0x92540, symSize: 0x1C0 }
  - { offsetInCU: 0x577F, offset: 0x1CF013, size: 0x8, addend: 0x0, symName: '__ZN4core3ptr100drop_in_place$LT$core..option..Option$LT$alloc..boxed..Box$LT$syn..path..GenericArgument$GT$$GT$$GT$17h3c47f80d40da4ae4E', symObjAddr: 0x5AA0, symBinAddr: 0x8B1F0, symSize: 0x50 }
  - { offsetInCU: 0x592D, offset: 0x1CF1C1, size: 0x8, addend: 0x0, symName: '__ZN4core3ptr101drop_in_place$LT$core..option..Option$LT$alloc..vec..Vec$LT$syn..generics..WherePredicate$GT$$GT$$GT$17ha20f1622680c30deE', symObjAddr: 0x5AF0, symBinAddr: 0x8B240, symSize: 0xD0 }
  - { offsetInCU: 0x5C5B, offset: 0x1CF4EF, size: 0x8, addend: 0x0, symName: '__ZN4core3ptr102drop_in_place$LT$syn..punctuated..Punctuated$LT$syn..path..GenericArgument$C$syn..token..Comma$GT$$GT$17hfe8946443591d714E', symObjAddr: 0x5BC0, symBinAddr: 0x8B310, symSize: 0xF0 }
  - { offsetInCU: 0x5F7B, offset: 0x1CF80F, size: 0x8, addend: 0x0, symName: '__ZN4core3ptr103drop_in_place$LT$core..option..Option$LT$alloc..boxed..Box$LT$syn..generics..TypeParamBound$GT$$GT$$GT$17hb98e913f9a9fba75E', symObjAddr: 0x5CB0, symBinAddr: 0x8B400, symSize: 0x50 }
  - { offsetInCU: 0x6186, offset: 0x1CFA1A, size: 0x8, addend: 0x0, symName: '__ZN4core3ptr103drop_in_place$LT$syn..punctuated..Punctuated$LT$syn..generics..GenericParam$C$syn..token..Comma$GT$$GT$17h706e4b03aaf6cee1E', symObjAddr: 0x5D00, symBinAddr: 0x8B450, symSize: 0xF0 }
  - { offsetInCU: 0x673B, offset: 0x1CFFCF, size: 0x8, addend: 0x0, symName: '__ZN4core3ptr104drop_in_place$LT$syn..punctuated..Punctuated$LT$syn..generics..TypeParamBound$C$syn..token..Plus$GT$$GT$17h913c045198e2e1fdE', symObjAddr: 0x5DF0, symBinAddr: 0x8B540, symSize: 0x240 }
  - { offsetInCU: 0x6FB8, offset: 0x1D084C, size: 0x8, addend: 0x0, symName: '__ZN4core3ptr34drop_in_place$LT$syn..lit..Lit$GT$17hab99994a68996a3fE', symObjAddr: 0x6030, symBinAddr: 0x8B780, symSize: 0x120 }
  - { offsetInCU: 0x74A6, offset: 0x1D0D3A, size: 0x8, addend: 0x0, symName: '__ZN4core3ptr34drop_in_place$LT$syn..pat..Pat$GT$17h7d887fadf2c3cc6bE', symObjAddr: 0x6150, symBinAddr: 0x8B8A0, symSize: 0xF40 }
  - { offsetInCU: 0xAEF0, offset: 0x1D4784, size: 0x8, addend: 0x0, symName: '__ZN4core3ptr34drop_in_place$LT$syn..ty..Type$GT$17h11a872b3c8e5eef5E', symObjAddr: 0x7090, symBinAddr: 0x8C7E0, symSize: 0x580 }
  - { offsetInCU: 0xC779, offset: 0x1D600D, size: 0x8, addend: 0x0, symName: '__ZN4core3ptr36drop_in_place$LT$syn..expr..Expr$GT$17h62bf30adc41c0fafE', symObjAddr: 0x7610, symBinAddr: 0x8CD60, symSize: 0x2730 }
  - { offsetInCU: 0x15BD9, offset: 0x1DF46D, size: 0x8, addend: 0x0, symName: '__ZN4core3ptr36drop_in_place$LT$syn..mac..Macro$GT$17ha18d10f1233dedcaE', symObjAddr: 0x9D40, symBinAddr: 0x8F490, symSize: 0xE0 }
  - { offsetInCU: 0x15F63, offset: 0x1DF7F7, size: 0x8, addend: 0x0, symName: '__ZN4core3ptr36drop_in_place$LT$syn..path..Path$GT$17hcca6c7d030660616E', symObjAddr: 0x9E20, symBinAddr: 0x8F570, symSize: 0x240 }
  - { offsetInCU: 0x168FD, offset: 0x1E0191, size: 0x8, addend: 0x0, symName: '__ZN4core3ptr37drop_in_place$LT$syn..stmt..Block$GT$17haed62ed48b69364dE', symObjAddr: 0xA060, symBinAddr: 0x8F7B0, symSize: 0xD0 }
  - { offsetInCU: 0x16BD4, offset: 0x1E0468, size: 0x8, addend: 0x0, symName: '__ZN4core3ptr38drop_in_place$LT$syn..expr..Member$GT$17h594f47e3350a2be5E', symObjAddr: 0xA130, symBinAddr: 0x8F880, symSize: 0x30 }
  - { offsetInCU: 0x16CD0, offset: 0x1E0564, size: 0x8, addend: 0x0, symName: '__ZN4core3ptr39drop_in_place$LT$proc_macro2..Ident$GT$17h007be8bd6a71491bE', symObjAddr: 0xA160, symBinAddr: 0x8F8B0, symSize: 0x30 }
  - { offsetInCU: 0x16EE3, offset: 0x1E0777, size: 0x8, addend: 0x0, symName: '__ZN4core3ptr39drop_in_place$LT$syn..buffer..Entry$GT$17hf8a37ae2db8c8c8eE', symObjAddr: 0xA190, symBinAddr: 0x8F8E0, symSize: 0xB0 }
  - { offsetInCU: 0x1726E, offset: 0x1E0B02, size: 0x8, addend: 0x0, symName: '__ZN4core3ptr40drop_in_place$LT$syn..expr..ExprPath$GT$17heaa068b65b1423afE', symObjAddr: 0xA240, symBinAddr: 0x8F990, symSize: 0x110 }
  - { offsetInCU: 0x1769D, offset: 0x1E0F31, size: 0x8, addend: 0x0, symName: '__ZN4core3ptr40drop_in_place$LT$syn..ty..ReturnType$GT$17h14f04ba862eb52f4E', symObjAddr: 0xA350, symBinAddr: 0x8FAA0, symSize: 0x50 }
  - { offsetInCU: 0x1780D, offset: 0x1E10A1, size: 0x8, addend: 0x0, symName: '__ZN4core3ptr41drop_in_place$LT$syn..expr..ExprConst$GT$17h011fcb0f1d3d0fbcE', symObjAddr: 0xA3A0, symBinAddr: 0x8FAF0, symSize: 0x180 }
  - { offsetInCU: 0x17DC6, offset: 0x1E165A, size: 0x8, addend: 0x0, symName: '__ZN4core3ptr42drop_in_place$LT$alloc..string..String$GT$17h74ff1bf250fa5c97E', symObjAddr: 0xA520, symBinAddr: 0x8FC70, symSize: 0x20 }
  - { offsetInCU: 0x17ECE, offset: 0x1E1762, size: 0x8, addend: 0x0, symName: '__ZN4core3ptr44drop_in_place$LT$syn..lifetime..Lifetime$GT$17h81f5c412fc4e75a1E', symObjAddr: 0xA540, symBinAddr: 0x8FC90, symSize: 0x30 }
  - { offsetInCU: 0x17FCA, offset: 0x1E185E, size: 0x8, addend: 0x0, symName: '__ZN4core3ptr44drop_in_place$LT$syn..parse..ParseBuffer$GT$17h82fe204940e318b0E', symObjAddr: 0xA570, symBinAddr: 0x8FCC0, symSize: 0x70 }
  - { offsetInCU: 0x18346, offset: 0x1E1BDA, size: 0x8, addend: 0x0, symName: '__ZN4core3ptr45drop_in_place$LT$proc_macro2..TokenStream$GT$17h725968a5788a0c43E', symObjAddr: 0xA5E0, symBinAddr: 0x8FD30, symSize: 0x140 }
  - { offsetInCU: 0x187A2, offset: 0x1E2036, size: 0x8, addend: 0x0, symName: '__ZN4core3ptr45drop_in_place$LT$syn..buffer..TokenBuffer$GT$17h1ed6fa8196fb852bE', symObjAddr: 0xA720, symBinAddr: 0x8FE70, symSize: 0xC0 }
  - { offsetInCU: 0x18A0A, offset: 0x1E229E, size: 0x8, addend: 0x0, symName: '__ZN4core3ptr45drop_in_place$LT$syn..generics..TypeParam$GT$17h2ddacbd5ce28b514E', symObjAddr: 0xA7E0, symBinAddr: 0x8FF30, symSize: 0x230 }
  - { offsetInCU: 0x1924B, offset: 0x1E2ADF, size: 0x8, addend: 0x0, symName: '__ZN4core3ptr46drop_in_place$LT$syn..generics..ConstParam$GT$17h847551b4d11dedb8E', symObjAddr: 0xAA10, symBinAddr: 0x90160, symSize: 0x150 }
  - { offsetInCU: 0x19698, offset: 0x1E2F2C, size: 0x8, addend: 0x0, symName: '__ZN4core3ptr47drop_in_place$LT$syn..path..GenericArgument$GT$17ha0f8621278069bfaE', symObjAddr: 0xAB60, symBinAddr: 0x902B0, symSize: 0x450 }
  - { offsetInCU: 0x1A40E, offset: 0x1E3CA2, size: 0x8, addend: 0x0, symName: '__ZN4core3ptr49drop_in_place$LT$syn..generics..LifetimeParam$GT$17hd8de96c71b63fc49E', symObjAddr: 0xAFB0, symBinAddr: 0x90700, symSize: 0xF0 }
  - { offsetInCU: 0x1A7F1, offset: 0x1E4085, size: 0x8, addend: 0x0, symName: '__ZN4core3ptr50drop_in_place$LT$syn..generics..TypeParamBound$GT$17hc0b3a8451b112484E', symObjAddr: 0xB0A0, symBinAddr: 0x907F0, symSize: 0xA0 }
  - { offsetInCU: 0x1A957, offset: 0x1E41EB, size: 0x8, addend: 0x0, symName: '__ZN4core3ptr58drop_in_place$LT$alloc..vec..Vec$LT$syn..expr..Arm$GT$$GT$17ha6d87cf8cb2f8625E', symObjAddr: 0xB140, symBinAddr: 0x90890, symSize: 0xD0 }
  - { offsetInCU: 0x1AC17, offset: 0x1E44AB, size: 0x8, addend: 0x0, symName: '__ZN4core3ptr59drop_in_place$LT$alloc..boxed..Box$LT$syn..pat..Pat$GT$$GT$17h04b5a49dc338bf9cE', symObjAddr: 0xB210, symBinAddr: 0x90960, symSize: 0x50 }
  - { offsetInCU: 0x1AD70, offset: 0x1E4604, size: 0x8, addend: 0x0, symName: '__ZN4core3ptr59drop_in_place$LT$alloc..boxed..Box$LT$syn..ty..Type$GT$$GT$17hfb8a09f23f7902beE', symObjAddr: 0xB260, symBinAddr: 0x909B0, symSize: 0x50 }
  - { offsetInCU: 0x1AEE8, offset: 0x1E477C, size: 0x8, addend: 0x0, symName: '__ZN4core3ptr60drop_in_place$LT$alloc..vec..Vec$LT$syn..lit..LitStr$GT$$GT$17h2d47d57a9b1f2986E', symObjAddr: 0xB2B0, symBinAddr: 0x90A00, symSize: 0xC0 }
  - { offsetInCU: 0x1B384, offset: 0x1E4C18, size: 0x8, addend: 0x0, symName: '__ZN4core3ptr61drop_in_place$LT$alloc..boxed..Box$LT$syn..expr..Expr$GT$$GT$17hfe67d291b01d4939E', symObjAddr: 0xB370, symBinAddr: 0x90AC0, symSize: 0x50 }
  - { offsetInCU: 0x1B4DD, offset: 0x1E4D71, size: 0x8, addend: 0x0, symName: '__ZN4core3ptr61drop_in_place$LT$syn..path..ParenthesizedGenericArguments$GT$17hc6164008a0f156caE', symObjAddr: 0xB3C0, symBinAddr: 0x90B10, symSize: 0x170 }
  - { offsetInCU: 0x1BAE6, offset: 0x1E537A, size: 0x8, addend: 0x0, symName: '__ZN4core3ptr63drop_in_place$LT$alloc..boxed..Box$LT$syn..lit..LitRepr$GT$$GT$17hf2595df28a7ce13bE', symObjAddr: 0xB530, symBinAddr: 0x90C80, symSize: 0x60 }
  - { offsetInCU: 0x1BDED, offset: 0x1E5681, size: 0x8, addend: 0x0, symName: '__ZN4core3ptr64drop_in_place$LT$alloc..boxed..Box$LT$syn..pat..FieldPat$GT$$GT$17hb9cdd4a04c64745aE', symObjAddr: 0xB590, symBinAddr: 0x90CE0, symSize: 0x140 }
  - { offsetInCU: 0x1C4BA, offset: 0x1E5D4E, size: 0x8, addend: 0x0, symName: '__ZN4core3ptr64drop_in_place$LT$alloc..boxed..Box$LT$syn..ty..BareFnArg$GT$$GT$17hdf9a99e9a3e43b93E', symObjAddr: 0xB6D0, symBinAddr: 0x90E20, symSize: 0x140 }
  - { offsetInCU: 0x1CA0F, offset: 0x1E62A3, size: 0x8, addend: 0x0, symName: '__ZN4core3ptr65drop_in_place$LT$alloc..vec..Vec$LT$proc_macro..TokenTree$GT$$GT$17h07ad17327f0607d0E', symObjAddr: 0xB810, symBinAddr: 0x90F60, symSize: 0x110 }
  - { offsetInCU: 0x1CE07, offset: 0x1E669B, size: 0x8, addend: 0x0, symName: '__ZN4core3ptr65drop_in_place$LT$core..option..Option$LT$syn..expr..Label$GT$$GT$17h7370f4cd7d051021E', symObjAddr: 0xB920, symBinAddr: 0x91070, symSize: 0x30 }
  - { offsetInCU: 0x1CF41, offset: 0x1E67D5, size: 0x8, addend: 0x0, symName: '__ZN4core3ptr65drop_in_place$LT$core..option..Option$LT$syn..path..QSelf$GT$$GT$17h9bc6bd805f4b805bE', symObjAddr: 0xB950, symBinAddr: 0x910A0, symSize: 0x50 }
  - { offsetInCU: 0x1D0C2, offset: 0x1E6956, size: 0x8, addend: 0x0, symName: '__ZN4core3ptr66drop_in_place$LT$core..option..Option$LT$syn..pat..PatRest$GT$$GT$17h56243b82155d1306E', symObjAddr: 0xB9A0, symBinAddr: 0x910F0, symSize: 0xE0 }
  - { offsetInCU: 0x1D3B6, offset: 0x1E6C4A, size: 0x8, addend: 0x0, symName: '__ZN4core3ptr67drop_in_place$LT$alloc..boxed..Box$LT$syn..expr..FieldValue$GT$$GT$17hdb569e1e168cfcafE', symObjAddr: 0xBA80, symBinAddr: 0x911D0, symSize: 0x140 }
  - { offsetInCU: 0x1D90A, offset: 0x1E719E, size: 0x8, addend: 0x0, symName: '__ZN4core3ptr67drop_in_place$LT$serde_derive..internals..attr..BorrowAttribute$GT$17hb4fcb280a0ffd48aE', symObjAddr: 0xBBC0, symBinAddr: 0x91310, symSize: 0x100 }
  - { offsetInCU: 0x1DD15, offset: 0x1E75A9, size: 0x8, addend: 0x0, symName: '__ZN4core3ptr70drop_in_place$LT$core..option..Option$LT$syn..ty..BareVariadic$GT$$GT$17h891315fdf14c9598E', symObjAddr: 0xBCC0, symBinAddr: 0x91410, symSize: 0x100 }
  - { offsetInCU: 0x1E14C, offset: 0x1E79E0, size: 0x8, addend: 0x0, symName: '__ZN4core3ptr72drop_in_place$LT$alloc..boxed..Box$LT$syn..path..GenericArgument$GT$$GT$17ha22f3de00ed22d7dE', symObjAddr: 0xBDC0, symBinAddr: 0x91510, symSize: 0x2B0 }
  - { offsetInCU: 0x1EB5D, offset: 0x1E83F1, size: 0x8, addend: 0x0, symName: '__ZN4core3ptr72drop_in_place$LT$core..option..Option$LT$syn..lifetime..Lifetime$GT$$GT$17h738a5902efee9f55E', symObjAddr: 0xC070, symBinAddr: 0x917C0, symSize: 0x30 }
  - { offsetInCU: 0x1EC78, offset: 0x1E850C, size: 0x8, addend: 0x0, symName: '__ZN4core3ptr73drop_in_place$LT$alloc..boxed..Box$LT$syn..generics..GenericParam$GT$$GT$17h4a82c3bd6b9e6f81E', symObjAddr: 0xC0A0, symBinAddr: 0x917F0, symSize: 0x80 }
  - { offsetInCU: 0x1EDEE, offset: 0x1E8682, size: 0x8, addend: 0x0, symName: '__ZN4core3ptr75drop_in_place$LT$alloc..boxed..Box$LT$syn..generics..TypeParamBound$GT$$GT$17h47c0b9686bcdda20E', symObjAddr: 0xC120, symBinAddr: 0x91870, symSize: 0x180 }
  - { offsetInCU: 0x1F3DA, offset: 0x1E8C6E, size: 0x8, addend: 0x0, symName: '__ZN4core3ptr86drop_in_place$LT$syn..punctuated..Punctuated$LT$syn..pat..Pat$C$syn..token..Or$GT$$GT$17h028803b51a0e008cE', symObjAddr: 0xC2A0, symBinAddr: 0x919F0, symSize: 0x120 }
  - { offsetInCU: 0x1F855, offset: 0x1E90E9, size: 0x8, addend: 0x0, symName: '__ZN4core3ptr87drop_in_place$LT$core..option..Option$LT$alloc..boxed..Box$LT$syn..pat..Pat$GT$$GT$$GT$17h47e4534cb825f5fbE', symObjAddr: 0xC3C0, symBinAddr: 0x91B10, symSize: 0x50 }
  - { offsetInCU: 0x1F9C5, offset: 0x1E9259, size: 0x8, addend: 0x0, symName: '__ZN4core3ptr87drop_in_place$LT$core..option..Option$LT$alloc..boxed..Box$LT$syn..ty..Type$GT$$GT$$GT$17hb21c4c429b95d768E', symObjAddr: 0xC410, symBinAddr: 0x91B60, symSize: 0x50 }
  - { offsetInCU: 0x1FB35, offset: 0x1E93C9, size: 0x8, addend: 0x0, symName: '__ZN4core3ptr89drop_in_place$LT$core..option..Option$LT$alloc..boxed..Box$LT$syn..expr..Expr$GT$$GT$$GT$17h0b10c8a8945d61ceE', symObjAddr: 0xC460, symBinAddr: 0x91BB0, symSize: 0x50 }
  - { offsetInCU: 0x1FCE3, offset: 0x1E9577, size: 0x8, addend: 0x0, symName: '__ZN4core3ptr89drop_in_place$LT$syn..punctuated..Punctuated$LT$syn..pat..Pat$C$syn..token..Comma$GT$$GT$17h0f70228e7daac378E', symObjAddr: 0xC4B0, symBinAddr: 0x91C00, symSize: 0x120 }
  - { offsetInCU: 0x201B3, offset: 0x1E9A47, size: 0x8, addend: 0x0, symName: '__ZN4core3ptr91drop_in_place$LT$syn..punctuated..Punctuated$LT$syn..expr..Expr$C$syn..token..Comma$GT$$GT$17hd3047ab334148524E', symObjAddr: 0xC5D0, symBinAddr: 0x91D20, symSize: 0x120 }
  - { offsetInCU: 0x20641, offset: 0x1E9ED5, size: 0x8, addend: 0x0, symName: '__ZN4core3ptr94drop_in_place$LT$syn..punctuated..Punctuated$LT$syn..pat..FieldPat$C$syn..token..Comma$GT$$GT$17h7ace9efb18f43d12E', symObjAddr: 0xC6F0, symBinAddr: 0x91E40, symSize: 0xF0 }
  - { offsetInCU: 0x20940, offset: 0x1EA1D4, size: 0x8, addend: 0x0, symName: '__ZN4core3ptr94drop_in_place$LT$syn..punctuated..Punctuated$LT$syn..ty..BareFnArg$C$syn..token..Comma$GT$$GT$17hb29c6edaabe01c76E', symObjAddr: 0xC7E0, symBinAddr: 0x91F30, symSize: 0xF0 }
  - { offsetInCU: 0x20C41, offset: 0x1EA4D5, size: 0x8, addend: 0x0, symName: '__ZN4core3ptr96drop_in_place$LT$core..option..Option$LT$alloc..boxed..Box$LT$syn..path..PathSegment$GT$$GT$$GT$17hd919256ec958e698E', symObjAddr: 0xC8D0, symBinAddr: 0x92020, symSize: 0x1A0 }
  - { offsetInCU: 0x21302, offset: 0x1EAB96, size: 0x8, addend: 0x0, symName: '__ZN4core3ptr97drop_in_place$LT$syn..punctuated..Punctuated$LT$syn..expr..FieldValue$C$syn..token..Comma$GT$$GT$17he241ea7a3c55d267E', symObjAddr: 0xCA70, symBinAddr: 0x921C0, symSize: 0xF0 }
  - { offsetInCU: 0x2167B, offset: 0x1EAF0F, size: 0x8, addend: 0x0, symName: '__ZN4core3ptr98drop_in_place$LT$syn..punctuated..Punctuated$LT$syn..lifetime..Lifetime$C$syn..token..Plus$GT$$GT$17hb8f4279048db7792E', symObjAddr: 0xCB60, symBinAddr: 0x922B0, symSize: 0xD0 }
  - { offsetInCU: 0x221C2, offset: 0x1EBA56, size: 0x8, addend: 0x0, symName: '__ZN53_$LT$core..fmt..Error$u20$as$u20$core..fmt..Debug$GT$3fmt17h03dc662ab152f3aeE', symObjAddr: 0xCC30, symBinAddr: 0x92380, symSize: 0x20 }
  - { offsetInCU: 0x297DE, offset: 0x1F3072, size: 0x8, addend: 0x0, symName: '__ZN40_$LT$F$u20$as$u20$syn..parse..Parser$GT$14__parse_scoped17h21dbd35f8cdc1718E', symObjAddr: 0xBF0, symBinAddr: 0x86340, symSize: 0x16E0 }
  - { offsetInCU: 0x2BC33, offset: 0x1F54C7, size: 0x8, addend: 0x0, symName: '__ZN40_$LT$F$u20$as$u20$syn..parse..Parser$GT$14__parse_scoped17h8b1dbe6b943f9820E', symObjAddr: 0x22D0, symBinAddr: 0x87A20, symSize: 0x15B0 }
  - { offsetInCU: 0x2E5A2, offset: 0x1F7E36, size: 0x8, addend: 0x0, symName: '__ZN40_$LT$F$u20$as$u20$syn..parse..Parser$GT$14__parse_scoped17ha39e48561049156bE', symObjAddr: 0x3880, symBinAddr: 0x88FD0, symSize: 0x2150 }
  - { offsetInCU: 0x38340, offset: 0x201BD4, size: 0x8, addend: 0x0, symName: __ZN3syn4meta15ParseNestedMeta17parse_nested_meta17h5a0ddba8f57dfcaeE, symObjAddr: 0x0, symBinAddr: 0x85750, symSize: 0x510 }
  - { offsetInCU: 0x38DD0, offset: 0x202664, size: 0x8, addend: 0x0, symName: __ZN3syn4meta15ParseNestedMeta17parse_nested_meta17h9d7490f5d81743ccE, symObjAddr: 0x510, symBinAddr: 0x85C60, symSize: 0x5C0 }
  - { offsetInCU: 0x397AA, offset: 0x20303E, size: 0x8, addend: 0x0, symName: __ZN3syn4meta15ParseNestedMeta5error17h063036bdf172d703E, symObjAddr: 0xAD0, symBinAddr: 0x86220, symSize: 0x90 }
  - { offsetInCU: 0x39997, offset: 0x20322B, size: 0x8, addend: 0x0, symName: __ZN3syn4meta15ParseNestedMeta5error17h824d01b2203c8236E, symObjAddr: 0xB60, symBinAddr: 0x862B0, symSize: 0x90 }
  - { offsetInCU: 0x1E, offset: 0x208963, size: 0x8, addend: 0x0, symName: __ZN5alloc7raw_vec11finish_grow17hbe03f1800afa246cE.llvm.5415734028657834147, symObjAddr: 0x0, symBinAddr: 0x92720, symSize: 0xA0 }
  - { offsetInCU: 0x5E1A, offset: 0x20E75F, size: 0x8, addend: 0x0, symName: __ZN5alloc7raw_vec11finish_grow17hbe03f1800afa246cE.llvm.5415734028657834147, symObjAddr: 0x0, symBinAddr: 0x92720, symSize: 0xA0 }
  - { offsetInCU: 0x73A2, offset: 0x20FCE7, size: 0x8, addend: 0x0, symName: '__ZN5alloc7raw_vec19RawVec$LT$T$C$A$GT$7reserve21do_reserve_and_handle17h008c6fad697370e4E', symObjAddr: 0x820, symBinAddr: 0x2B9240, symSize: 0xA0 }
  - { offsetInCU: 0x769A, offset: 0x20FFDF, size: 0x8, addend: 0x0, symName: '__ZN5alloc7raw_vec19RawVec$LT$T$C$A$GT$7reserve21do_reserve_and_handle17h0a6a2df87569c46dE', symObjAddr: 0x970, symBinAddr: 0x2B92E0, symSize: 0xC0 }
  - { offsetInCU: 0x79C7, offset: 0x21030C, size: 0x8, addend: 0x0, symName: '__ZN5alloc7raw_vec19RawVec$LT$T$C$A$GT$7reserve21do_reserve_and_handle17h244271f105d9f5f3E', symObjAddr: 0xAF0, symBinAddr: 0x2B93A0, symSize: 0xC0 }
  - { offsetInCU: 0x7CF4, offset: 0x210639, size: 0x8, addend: 0x0, symName: '__ZN5alloc7raw_vec19RawVec$LT$T$C$A$GT$7reserve21do_reserve_and_handle17h5be850139c270bc5E', symObjAddr: 0xBB0, symBinAddr: 0x2B9460, symSize: 0xC0 }
  - { offsetInCU: 0x8021, offset: 0x210966, size: 0x8, addend: 0x0, symName: '__ZN5alloc7raw_vec19RawVec$LT$T$C$A$GT$7reserve21do_reserve_and_handle17h80eadc8567f25a5aE', symObjAddr: 0xC70, symBinAddr: 0x2B9520, symSize: 0xC0 }
  - { offsetInCU: 0x834E, offset: 0x210C93, size: 0x8, addend: 0x0, symName: '__ZN5alloc7raw_vec19RawVec$LT$T$C$A$GT$7reserve21do_reserve_and_handle17h93b3d4ace33d4d0aE', symObjAddr: 0xD30, symBinAddr: 0x2B95E0, symSize: 0xC0 }
  - { offsetInCU: 0x867B, offset: 0x210FC0, size: 0x8, addend: 0x0, symName: '__ZN5alloc7raw_vec19RawVec$LT$T$C$A$GT$7reserve21do_reserve_and_handle17he31eee6ccc1feca7E', symObjAddr: 0xDF0, symBinAddr: 0x2B96A0, symSize: 0x0 }
  - { offsetInCU: 0x8C4A, offset: 0x21158F, size: 0x8, addend: 0x0, symName: '__ZN77_$LT$alloc..raw_vec..RawVec$LT$T$C$A$GT$$u20$as$u20$core..ops..drop..Drop$GT$4drop17h4003bd15ef746c96E', symObjAddr: 0x17D0, symBinAddr: 0x92E30, symSize: 0x30 }
  - { offsetInCU: 0xFA21, offset: 0x218366, size: 0x8, addend: 0x0, symName: '__ZN5alloc7raw_vec19RawVec$LT$T$C$A$GT$8grow_one17h108f7027e56acd49E', symObjAddr: 0xEA0, symBinAddr: 0x927C0, symSize: 0xC0 }
  - { offsetInCU: 0xFEFC, offset: 0x218841, size: 0x8, addend: 0x0, symName: '__ZN5alloc7raw_vec19RawVec$LT$T$C$A$GT$8grow_one17h452706932ac68060E', symObjAddr: 0xF60, symBinAddr: 0x92880, symSize: 0x0 }
  - { offsetInCU: 0x103CA, offset: 0x218D0F, size: 0x8, addend: 0x0, symName: '__ZN5alloc7raw_vec19RawVec$LT$T$C$A$GT$8grow_one17h5b80e727249f04d9E', symObjAddr: 0x1020, symBinAddr: 0x92940, symSize: 0xC0 }
  - { offsetInCU: 0x10898, offset: 0x2191DD, size: 0x8, addend: 0x0, symName: '__ZN5alloc7raw_vec19RawVec$LT$T$C$A$GT$8grow_one17h5d044aa47b0d68ffE', symObjAddr: 0x10E0, symBinAddr: 0x92A00, symSize: 0x0 }
  - { offsetInCU: 0x10D68, offset: 0x2196AD, size: 0x8, addend: 0x0, symName: '__ZN5alloc7raw_vec19RawVec$LT$T$C$A$GT$8grow_one17h78b7f38cbf8cccbbE', symObjAddr: 0x11A0, symBinAddr: 0x92AC0, symSize: 0xC0 }
  - { offsetInCU: 0x11243, offset: 0x219B88, size: 0x8, addend: 0x0, symName: '__ZN5alloc7raw_vec19RawVec$LT$T$C$A$GT$8grow_one17h8bedab3f1abacc98E', symObjAddr: 0x1260, symBinAddr: 0x92B80, symSize: 0x0 }
  - { offsetInCU: 0x1170F, offset: 0x21A054, size: 0x8, addend: 0x0, symName: '__ZN5alloc7raw_vec19RawVec$LT$T$C$A$GT$8grow_one17hb71284831721efb0E', symObjAddr: 0x1310, symBinAddr: 0x92C30, symSize: 0xB0 }
  - { offsetInCU: 0x11BDD, offset: 0x21A522, size: 0x8, addend: 0x0, symName: '__ZN5alloc7raw_vec19RawVec$LT$T$C$A$GT$8grow_one17hccc16989b361eeb0E', symObjAddr: 0x13C0, symBinAddr: 0x92CE0, symSize: 0xB0 }
  - { offsetInCU: 0x11F1C, offset: 0x21A861, size: 0x8, addend: 0x0, symName: '__ZN5alloc7raw_vec19RawVec$LT$T$C$A$GT$8grow_one17he96a3b9b47ac3bd1E', symObjAddr: 0x1470, symBinAddr: 0x92D90, symSize: 0xA0 }
  - { offsetInCU: 0x2AFD, offset: 0x21D723, size: 0x8, addend: 0x0, symName: '__ZN4core3ptr100drop_in_place$LT$core..option..Option$LT$alloc..boxed..Box$LT$syn..path..GenericArgument$GT$$GT$$GT$17h3c47f80d40da4ae4E', symObjAddr: 0x720, symBinAddr: 0x932A0, symSize: 0x50 }
  - { offsetInCU: 0x2E9B, offset: 0x21DAC1, size: 0x8, addend: 0x0, symName: '__ZN4core3ptr100drop_in_place$LT$syn..punctuated..Punctuated$LT$syn..path..PathSegment$C$syn..token..PathSep$GT$$GT$17hd34064dc93b0b427E', symObjAddr: 0x770, symBinAddr: 0x932F0, symSize: 0x270 }
  - { offsetInCU: 0x383E, offset: 0x21E464, size: 0x8, addend: 0x0, symName: '__ZN4core3ptr101drop_in_place$LT$core..option..Option$LT$alloc..boxed..Box$LT$syn..generics..GenericParam$GT$$GT$$GT$17h588117414ebf0027E', symObjAddr: 0x9E0, symBinAddr: 0x93560, symSize: 0x50 }
  - { offsetInCU: 0x39AE, offset: 0x21E5D4, size: 0x8, addend: 0x0, symName: '__ZN4core3ptr102drop_in_place$LT$syn..punctuated..Punctuated$LT$syn..path..GenericArgument$C$syn..token..Comma$GT$$GT$17hfe8946443591d714E', symObjAddr: 0xA30, symBinAddr: 0x935B0, symSize: 0xF0 }
  - { offsetInCU: 0x3D69, offset: 0x21E98F, size: 0x8, addend: 0x0, symName: '__ZN4core3ptr103drop_in_place$LT$core..option..Option$LT$alloc..boxed..Box$LT$syn..generics..TypeParamBound$GT$$GT$$GT$17hb98e913f9a9fba75E', symObjAddr: 0xB20, symBinAddr: 0x936A0, symSize: 0xD0 }
  - { offsetInCU: 0x40B9, offset: 0x21ECDF, size: 0x8, addend: 0x0, symName: '__ZN4core3ptr103drop_in_place$LT$core..option..Option$LT$alloc..boxed..Box$LT$syn..generics..WherePredicate$GT$$GT$$GT$17ha8f5afb6495c5336E.llvm.14637072830912225609', symObjAddr: 0xBF0, symBinAddr: 0x93770, symSize: 0xD0 }
  - { offsetInCU: 0x440F, offset: 0x21F035, size: 0x8, addend: 0x0, symName: '__ZN4core3ptr103drop_in_place$LT$syn..punctuated..Punctuated$LT$syn..generics..GenericParam$C$syn..token..Comma$GT$$GT$17h706e4b03aaf6cee1E.llvm.14637072830912225609', symObjAddr: 0xCC0, symBinAddr: 0x93840, symSize: 0xC0 }
  - { offsetInCU: 0x4883, offset: 0x21F4A9, size: 0x8, addend: 0x0, symName: '__ZN4core3ptr104drop_in_place$LT$syn..punctuated..Punctuated$LT$syn..generics..TypeParamBound$C$syn..token..Plus$GT$$GT$17h913c045198e2e1fdE', symObjAddr: 0xD80, symBinAddr: 0x93900, symSize: 0x2C0 }
  - { offsetInCU: 0x54F7, offset: 0x22011D, size: 0x8, addend: 0x0, symName: '__ZN4core3ptr147drop_in_place$LT$core..iter..adapters..map..Map$LT$syn..generics..TypeParams$C$serde_derive..bound..with_bound..$u7b$$u7b$closure$u7d$$u7d$$GT$$GT$17h0d35034a07fc6d6dE', symObjAddr: 0x1040, symBinAddr: 0x93BC0, symSize: 0x30 }
  - { offsetInCU: 0x5715, offset: 0x22033B, size: 0x8, addend: 0x0, symName: '__ZN4core3ptr34drop_in_place$LT$syn..lit..Lit$GT$17hab99994a68996a3fE', symObjAddr: 0x1070, symBinAddr: 0x93BF0, symSize: 0x120 }
  - { offsetInCU: 0x5BE4, offset: 0x22080A, size: 0x8, addend: 0x0, symName: '__ZN4core3ptr34drop_in_place$LT$syn..pat..Pat$GT$17h7d887fadf2c3cc6bE', symObjAddr: 0x1190, symBinAddr: 0x93D10, symSize: 0x1090 }
  - { offsetInCU: 0x9BE4, offset: 0x22480A, size: 0x8, addend: 0x0, symName: '__ZN4core3ptr34drop_in_place$LT$syn..ty..Type$GT$17h11a872b3c8e5eef5E.llvm.14637072830912225609', symObjAddr: 0x2220, symBinAddr: 0x94DA0, symSize: 0x4F0 }
  - { offsetInCU: 0xB127, offset: 0x225D4D, size: 0x8, addend: 0x0, symName: '__ZN4core3ptr36drop_in_place$LT$syn..expr..Expr$GT$17h62bf30adc41c0fafE', symObjAddr: 0x2710, symBinAddr: 0x95290, symSize: 0x27D0 }
  - { offsetInCU: 0x1485B, offset: 0x22F481, size: 0x8, addend: 0x0, symName: '__ZN4core3ptr36drop_in_place$LT$syn..mac..Macro$GT$17ha18d10f1233dedcaE', symObjAddr: 0x4EE0, symBinAddr: 0x97A60, symSize: 0x40 }
  - { offsetInCU: 0x14895, offset: 0x22F4BB, size: 0x8, addend: 0x0, symName: '__ZN4core3ptr36drop_in_place$LT$syn..path..Path$GT$17hcca6c7d030660616E', symObjAddr: 0x4F20, symBinAddr: 0x97AA0, symSize: 0x240 }
  - { offsetInCU: 0x1522F, offset: 0x22FE55, size: 0x8, addend: 0x0, symName: '__ZN4core3ptr37drop_in_place$LT$syn..stmt..Block$GT$17haed62ed48b69364dE', symObjAddr: 0x5160, symBinAddr: 0x97CE0, symSize: 0xD0 }
  - { offsetInCU: 0x15506, offset: 0x23012C, size: 0x8, addend: 0x0, symName: '__ZN4core3ptr38drop_in_place$LT$syn..expr..Member$GT$17h594f47e3350a2be5E', symObjAddr: 0x5230, symBinAddr: 0x97DB0, symSize: 0x30 }
  - { offsetInCU: 0x15602, offset: 0x230228, size: 0x8, addend: 0x0, symName: '__ZN4core3ptr39drop_in_place$LT$proc_macro2..Ident$GT$17h007be8bd6a71491bE', symObjAddr: 0x5260, symBinAddr: 0x97DE0, symSize: 0x30 }
  - { offsetInCU: 0x156DF, offset: 0x230305, size: 0x8, addend: 0x0, symName: '__ZN4core3ptr40drop_in_place$LT$syn..ty..ReturnType$GT$17h14f04ba862eb52f4E', symObjAddr: 0x5290, symBinAddr: 0x97E10, symSize: 0x50 }
  - { offsetInCU: 0x158AC, offset: 0x2304D2, size: 0x8, addend: 0x0, symName: '__ZN4core3ptr410drop_in_place$LT$core..iter..adapters..flatten..FlatMap$LT$core..iter..adapters..filter_map..FilterMap$LT$core..slice..iter..Iter$LT$serde_derive..internals..ast..Variant$GT$$C$serde_derive..bound..with_where_predicates_from_variants..$u7b$$u7b$closure$u7d$$u7d$$GT$$C$alloc..vec..Vec$LT$syn..generics..WherePredicate$GT$$C$alloc..slice..$LT$impl$u20$$u5b$syn..generics..WherePredicate$u5d$$GT$..to_vec$GT$$GT$17hb6625f88b09f0049E.llvm.14637072830912225609', symObjAddr: 0x52E0, symBinAddr: 0x97E60, symSize: 0x60 }
  - { offsetInCU: 0x15999, offset: 0x2305BF, size: 0x8, addend: 0x0, symName: '__ZN4core3ptr41drop_in_place$LT$syn..expr..ExprConst$GT$17h011fcb0f1d3d0fbcE', symObjAddr: 0x5340, symBinAddr: 0x97EC0, symSize: 0x180 }
  - { offsetInCU: 0x15F52, offset: 0x230B78, size: 0x8, addend: 0x0, symName: '__ZN4core3ptr44drop_in_place$LT$syn..generics..Generics$GT$17he5ddc4e21d959fbdE.llvm.14637072830912225609', symObjAddr: 0x54C0, symBinAddr: 0x98040, symSize: 0x40 }
  - { offsetInCU: 0x15F82, offset: 0x230BA8, size: 0x8, addend: 0x0, symName: '__ZN4core3ptr44drop_in_place$LT$syn..lifetime..Lifetime$GT$17h81f5c412fc4e75a1E', symObjAddr: 0x5500, symBinAddr: 0x98080, symSize: 0x30 }
  - { offsetInCU: 0x161B4, offset: 0x230DDA, size: 0x8, addend: 0x0, symName: '__ZN4core3ptr45drop_in_place$LT$proc_macro2..TokenStream$GT$17h725968a5788a0c43E', symObjAddr: 0x5530, symBinAddr: 0x980B0, symSize: 0x140 }
  - { offsetInCU: 0x166CA, offset: 0x2312F0, size: 0x8, addend: 0x0, symName: '__ZN4core3ptr474drop_in_place$LT$core..iter..adapters..flatten..FlatMap$LT$core..iter..adapters..filter_map..FilterMap$LT$alloc..boxed..Box$LT$dyn$u20$core..iter..traits..iterator..Iterator$u2b$Item$u20$$u3d$$u20$$RF$serde_derive..internals..ast..Field$GT$$C$serde_derive..bound..with_where_predicates_from_fields..$u7b$$u7b$closure$u7d$$u7d$$GT$$C$alloc..vec..Vec$LT$syn..generics..WherePredicate$GT$$C$alloc..slice..$LT$impl$u20$$u5b$syn..generics..WherePredicate$u5d$$GT$..to_vec$GT$$GT$17h47c32e8019028390E.llvm.14637072830912225609', symObjAddr: 0x5670, symBinAddr: 0x981F0, symSize: 0xC0 }
  - { offsetInCU: 0x16A6E, offset: 0x231694, size: 0x8, addend: 0x0, symName: '__ZN4core3ptr47drop_in_place$LT$syn..path..GenericArgument$GT$17ha0f8621278069bfaE', symObjAddr: 0x5730, symBinAddr: 0x982B0, symSize: 0x4A0 }
  - { offsetInCU: 0x17BF0, offset: 0x232816, size: 0x8, addend: 0x0, symName: '__ZN4core3ptr48drop_in_place$LT$syn..generics..GenericParam$GT$17hb7b691eed8b37306E.llvm.14637072830912225609', symObjAddr: 0x5BD0, symBinAddr: 0x98750, symSize: 0x380 }
  - { offsetInCU: 0x187A0, offset: 0x2333C6, size: 0x8, addend: 0x0, symName: '__ZN4core3ptr58drop_in_place$LT$alloc..vec..Vec$LT$syn..expr..Arm$GT$$GT$17ha6d87cf8cb2f8625E', symObjAddr: 0x5F50, symBinAddr: 0x98AD0, symSize: 0xD0 }
  - { offsetInCU: 0x18A60, offset: 0x233686, size: 0x8, addend: 0x0, symName: '__ZN4core3ptr59drop_in_place$LT$alloc..boxed..Box$LT$syn..pat..Pat$GT$$GT$17h04b5a49dc338bf9cE', symObjAddr: 0x6020, symBinAddr: 0x98BA0, symSize: 0x50 }
  - { offsetInCU: 0x18BB9, offset: 0x2337DF, size: 0x8, addend: 0x0, symName: '__ZN4core3ptr59drop_in_place$LT$alloc..boxed..Box$LT$syn..ty..Type$GT$$GT$17hfb8a09f23f7902beE', symObjAddr: 0x6070, symBinAddr: 0x98BF0, symSize: 0x50 }
  - { offsetInCU: 0x18E0A, offset: 0x233A30, size: 0x8, addend: 0x0, symName: '__ZN4core3ptr605drop_in_place$LT$core..iter..adapters..map..Map$LT$core..iter..adapters..chain..Chain$LT$core..iter..adapters..map..Map$LT$core..iter..adapters..filter..Filter$LT$core..iter..adapters..map..Map$LT$syn..generics..TypeParams$C$serde_derive..bound..with_bound..$u7b$$u7b$closure$u7d$$u7d$$GT$$C$serde_derive..bound..with_bound..$u7b$$u7b$closure$u7d$$u7d$$GT$$C$serde_derive..bound..with_bound..$u7b$$u7b$closure$u7d$$u7d$$GT$$C$core..iter..adapters..cloned..Cloned$LT$alloc..vec..into_iter..IntoIter$LT$$RF$syn..ty..TypePath$GT$$GT$$GT$$C$serde_derive..bound..with_bound..$u7b$$u7b$closure$u7d$$u7d$$GT$$GT$17h3a2a3710b52173ecE', symObjAddr: 0x60C0, symBinAddr: 0x98C40, symSize: 0x70 }
  - { offsetInCU: 0x19189, offset: 0x233DAF, size: 0x8, addend: 0x0, symName: '__ZN4core3ptr61drop_in_place$LT$alloc..boxed..Box$LT$syn..expr..Expr$GT$$GT$17hfe67d291b01d4939E', symObjAddr: 0x6130, symBinAddr: 0x98CB0, symSize: 0x50 }
  - { offsetInCU: 0x1935E, offset: 0x233F84, size: 0x8, addend: 0x0, symName: '__ZN4core3ptr61drop_in_place$LT$syn..path..ParenthesizedGenericArguments$GT$17hc6164008a0f156caE', symObjAddr: 0x6180, symBinAddr: 0x98D00, symSize: 0x170 }
  - { offsetInCU: 0x19954, offset: 0x23457A, size: 0x8, addend: 0x0, symName: '__ZN4core3ptr62drop_in_place$LT$syn..path..AngleBracketedGenericArguments$GT$17h0299086782c6da12E', symObjAddr: 0x62F0, symBinAddr: 0x98E70, symSize: 0x120 }
  - { offsetInCU: 0x19D9F, offset: 0x2349C5, size: 0x8, addend: 0x0, symName: '__ZN4core3ptr63drop_in_place$LT$alloc..boxed..Box$LT$syn..lit..LitRepr$GT$$GT$17hf2595df28a7ce13bE', symObjAddr: 0x6410, symBinAddr: 0x98F90, symSize: 0x60 }
  - { offsetInCU: 0x1A0A6, offset: 0x234CCC, size: 0x8, addend: 0x0, symName: '__ZN4core3ptr64drop_in_place$LT$alloc..boxed..Box$LT$syn..pat..FieldPat$GT$$GT$17hb9cdd4a04c64745aE', symObjAddr: 0x6470, symBinAddr: 0x98FF0, symSize: 0x140 }
  - { offsetInCU: 0x1A773, offset: 0x235399, size: 0x8, addend: 0x0, symName: '__ZN4core3ptr64drop_in_place$LT$alloc..boxed..Box$LT$syn..ty..BareFnArg$GT$$GT$17hdf9a99e9a3e43b93E', symObjAddr: 0x65B0, symBinAddr: 0x99130, symSize: 0x140 }
  - { offsetInCU: 0x1ACC8, offset: 0x2358EE, size: 0x8, addend: 0x0, symName: '__ZN4core3ptr64drop_in_place$LT$alloc..vec..Vec$LT$syn..attr..Attribute$GT$$GT$17h39f71ed119168abdE', symObjAddr: 0x66F0, symBinAddr: 0x99270, symSize: 0xD0 }
  - { offsetInCU: 0x1AF88, offset: 0x235BAE, size: 0x8, addend: 0x0, symName: '__ZN4core3ptr65drop_in_place$LT$alloc..vec..Vec$LT$proc_macro..TokenTree$GT$$GT$17h07ad17327f0607d0E', symObjAddr: 0x67C0, symBinAddr: 0x99340, symSize: 0x110 }
  - { offsetInCU: 0x1B380, offset: 0x235FA6, size: 0x8, addend: 0x0, symName: '__ZN4core3ptr65drop_in_place$LT$core..option..Option$LT$syn..expr..Label$GT$$GT$17h7370f4cd7d051021E', symObjAddr: 0x68D0, symBinAddr: 0x99450, symSize: 0x30 }
  - { offsetInCU: 0x1B4BA, offset: 0x2360E0, size: 0x8, addend: 0x0, symName: '__ZN4core3ptr66drop_in_place$LT$core..option..Option$LT$syn..pat..PatRest$GT$$GT$17h56243b82155d1306E', symObjAddr: 0x6900, symBinAddr: 0x99480, symSize: 0xE0 }
  - { offsetInCU: 0x1B7AE, offset: 0x2363D4, size: 0x8, addend: 0x0, symName: '__ZN4core3ptr67drop_in_place$LT$alloc..boxed..Box$LT$syn..expr..FieldValue$GT$$GT$17hdb569e1e168cfcafE', symObjAddr: 0x69E0, symBinAddr: 0x99560, symSize: 0x140 }
  - { offsetInCU: 0x1BCE3, offset: 0x236909, size: 0x8, addend: 0x0, symName: '__ZN4core3ptr68drop_in_place$LT$alloc..boxed..Box$LT$syn..path..PathSegment$GT$$GT$17h8bc236a2626e080dE', symObjAddr: 0x6B20, symBinAddr: 0x996A0, symSize: 0x1B0 }
  - { offsetInCU: 0x1C3F1, offset: 0x237017, size: 0x8, addend: 0x0, symName: '__ZN4core3ptr70drop_in_place$LT$core..option..Option$LT$syn..ty..BareVariadic$GT$$GT$17h891315fdf14c9598E', symObjAddr: 0x6CD0, symBinAddr: 0x99850, symSize: 0x100 }
  - { offsetInCU: 0x1C847, offset: 0x23746D, size: 0x8, addend: 0x0, symName: '__ZN4core3ptr72drop_in_place$LT$alloc..boxed..Box$LT$syn..path..GenericArgument$GT$$GT$17ha22f3de00ed22d7dE', symObjAddr: 0x6DD0, symBinAddr: 0x99950, symSize: 0x270 }
  - { offsetInCU: 0x1D09B, offset: 0x237CC1, size: 0x8, addend: 0x0, symName: '__ZN4core3ptr72drop_in_place$LT$core..option..Option$LT$syn..lifetime..Lifetime$GT$$GT$17h738a5902efee9f55E', symObjAddr: 0x7040, symBinAddr: 0x99BC0, symSize: 0x30 }
  - { offsetInCU: 0x1D1B6, offset: 0x237DDC, size: 0x8, addend: 0x0, symName: '__ZN4core3ptr73drop_in_place$LT$alloc..boxed..Box$LT$syn..generics..GenericParam$GT$$GT$17h4a82c3bd6b9e6f81E.llvm.14637072830912225609', symObjAddr: 0x7070, symBinAddr: 0x99BF0, symSize: 0x50 }
  - { offsetInCU: 0x1D30F, offset: 0x237F35, size: 0x8, addend: 0x0, symName: '__ZN4core3ptr75drop_in_place$LT$alloc..boxed..Box$LT$syn..generics..TypeParamBound$GT$$GT$17h47c0b9686bcdda20E', symObjAddr: 0x70C0, symBinAddr: 0x99C40, symSize: 0x210 }
  - { offsetInCU: 0x1DCB4, offset: 0x2388DA, size: 0x8, addend: 0x0, symName: '__ZN4core3ptr75drop_in_place$LT$core..option..Option$LT$syn..generics..WhereClause$GT$$GT$17ha14a8b033395cd67E.llvm.14637072830912225609', symObjAddr: 0x72D0, symBinAddr: 0x99E50, symSize: 0x100 }
  - { offsetInCU: 0x1E06B, offset: 0x238C91, size: 0x8, addend: 0x0, symName: '__ZN4core3ptr86drop_in_place$LT$syn..punctuated..Punctuated$LT$syn..pat..Pat$C$syn..token..Or$GT$$GT$17h028803b51a0e008cE', symObjAddr: 0x73D0, symBinAddr: 0x99F50, symSize: 0x120 }
  - { offsetInCU: 0x1E4E6, offset: 0x23910C, size: 0x8, addend: 0x0, symName: '__ZN4core3ptr87drop_in_place$LT$core..option..Option$LT$alloc..boxed..Box$LT$syn..pat..Pat$GT$$GT$$GT$17h47e4534cb825f5fbE', symObjAddr: 0x74F0, symBinAddr: 0x9A070, symSize: 0x50 }
  - { offsetInCU: 0x1E656, offset: 0x23927C, size: 0x8, addend: 0x0, symName: '__ZN4core3ptr87drop_in_place$LT$core..option..Option$LT$alloc..boxed..Box$LT$syn..ty..Type$GT$$GT$$GT$17hb21c4c429b95d768E', symObjAddr: 0x7540, symBinAddr: 0x9A0C0, symSize: 0x50 }
  - { offsetInCU: 0x1E7C6, offset: 0x2393EC, size: 0x8, addend: 0x0, symName: '__ZN4core3ptr89drop_in_place$LT$core..option..Option$LT$alloc..boxed..Box$LT$syn..expr..Expr$GT$$GT$$GT$17h0b10c8a8945d61ceE', symObjAddr: 0x7590, symBinAddr: 0x9A110, symSize: 0x50 }
  - { offsetInCU: 0x1E974, offset: 0x23959A, size: 0x8, addend: 0x0, symName: '__ZN4core3ptr89drop_in_place$LT$syn..punctuated..Punctuated$LT$syn..pat..Pat$C$syn..token..Comma$GT$$GT$17h0f70228e7daac378E', symObjAddr: 0x75E0, symBinAddr: 0x9A160, symSize: 0x120 }
  - { offsetInCU: 0x1EE06, offset: 0x239A2C, size: 0x8, addend: 0x0, symName: '__ZN4core3ptr89drop_in_place$LT$syn..punctuated..Punctuated$LT$syn..ty..Type$C$syn..token..Comma$GT$$GT$17h0317a8a9919e8789E', symObjAddr: 0x7700, symBinAddr: 0x9A280, symSize: 0x120 }
  - { offsetInCU: 0x1F281, offset: 0x239EA7, size: 0x8, addend: 0x0, symName: '__ZN4core3ptr90drop_in_place$LT$core..option..Option$LT$syn..path..AngleBracketedGenericArguments$GT$$GT$17h9646b437ffecef94E', symObjAddr: 0x7820, symBinAddr: 0x9A3A0, symSize: 0x130 }
  - { offsetInCU: 0x1F723, offset: 0x23A349, size: 0x8, addend: 0x0, symName: '__ZN4core3ptr91drop_in_place$LT$syn..punctuated..Punctuated$LT$syn..expr..Expr$C$syn..token..Comma$GT$$GT$17hd3047ab334148524E', symObjAddr: 0x7950, symBinAddr: 0x9A4D0, symSize: 0x120 }
  - { offsetInCU: 0x1FBB1, offset: 0x23A7D7, size: 0x8, addend: 0x0, symName: '__ZN4core3ptr94drop_in_place$LT$syn..punctuated..Punctuated$LT$syn..pat..FieldPat$C$syn..token..Comma$GT$$GT$17h7ace9efb18f43d12E', symObjAddr: 0x7A70, symBinAddr: 0x9A5F0, symSize: 0xF0 }
  - { offsetInCU: 0x1FEB0, offset: 0x23AAD6, size: 0x8, addend: 0x0, symName: '__ZN4core3ptr94drop_in_place$LT$syn..punctuated..Punctuated$LT$syn..ty..BareFnArg$C$syn..token..Comma$GT$$GT$17hb29c6edaabe01c76E', symObjAddr: 0x7B60, symBinAddr: 0x9A6E0, symSize: 0xF0 }
  - { offsetInCU: 0x201B1, offset: 0x23ADD7, size: 0x8, addend: 0x0, symName: '__ZN4core3ptr96drop_in_place$LT$core..option..Option$LT$alloc..boxed..Box$LT$syn..path..PathSegment$GT$$GT$$GT$17hd919256ec958e698E', symObjAddr: 0x7C50, symBinAddr: 0x9A7D0, symSize: 0xA0 }
  - { offsetInCU: 0x20430, offset: 0x23B056, size: 0x8, addend: 0x0, symName: '__ZN4core3ptr97drop_in_place$LT$syn..punctuated..Punctuated$LT$syn..expr..FieldValue$C$syn..token..Comma$GT$$GT$17he241ea7a3c55d267E', symObjAddr: 0x7CF0, symBinAddr: 0x9A870, symSize: 0xF0 }
  - { offsetInCU: 0x2072D, offset: 0x23B353, size: 0x8, addend: 0x0, symName: '__ZN4core3ptr98drop_in_place$LT$alloc..vec..Vec$LT$$LP$syn..path..GenericArgument$C$syn..token..Comma$RP$$GT$$GT$17ha96f98c42a71b3f5E', symObjAddr: 0x7DE0, symBinAddr: 0x9A960, symSize: 0xD0 }
  - { offsetInCU: 0x20A6D, offset: 0x23B693, size: 0x8, addend: 0x0, symName: '__ZN4core3ptr98drop_in_place$LT$syn..punctuated..Punctuated$LT$syn..lifetime..Lifetime$C$syn..token..Plus$GT$$GT$17hb8f4279048db7792E', symObjAddr: 0x7EB0, symBinAddr: 0x9AA30, symSize: 0xD0 }
  - { offsetInCU: 0x23E2D, offset: 0x23EA53, size: 0x8, addend: 0x0, symName: '__ZN4core3ops8function5impls80_$LT$impl$u20$core..ops..function..FnOnce$LT$A$GT$$u20$for$u20$$RF$mut$u20$F$GT$9call_once17h13e61e99095ff8cbE', symObjAddr: 0x120, symBinAddr: 0x92E60, symSize: 0x110 }
  - { offsetInCU: 0x23EC9, offset: 0x23EAEF, size: 0x8, addend: 0x0, symName: '__ZN4core3ops8function5impls80_$LT$impl$u20$core..ops..function..FnOnce$LT$A$GT$$u20$for$u20$$RF$mut$u20$F$GT$9call_once17h3fe17499b85bb2e9E', symObjAddr: 0x300, symBinAddr: 0x92F70, symSize: 0x1C0 }
  - { offsetInCU: 0x2419E, offset: 0x23EDC4, size: 0x8, addend: 0x0, symName: '__ZN4core3ops8function5impls80_$LT$impl$u20$core..ops..function..FnOnce$LT$A$GT$$u20$for$u20$$RF$mut$u20$F$GT$9call_once17hdc0ce70fd229350eE', symObjAddr: 0x5B0, symBinAddr: 0x93130, symSize: 0x170 }
  - { offsetInCU: 0x28609, offset: 0x24322F, size: 0x8, addend: 0x0, symName: __ZN12serde_derive5bound16without_defaults17h015bcc18823d7ef6E, symObjAddr: 0x7F80, symBinAddr: 0x9AB00, symSize: 0x120 }
  - { offsetInCU: 0x288D4, offset: 0x2434FA, size: 0x8, addend: 0x0, symName: __ZN12serde_derive5bound33with_where_predicates_from_fields17h579b379308a6df6eE, symObjAddr: 0x8120, symBinAddr: 0x9AC20, symSize: 0x1A0 }
  - { offsetInCU: 0x28E61, offset: 0x243A87, size: 0x8, addend: 0x0, symName: __ZN12serde_derive5bound35with_where_predicates_from_variants17h700129646470e761E, symObjAddr: 0x82C0, symBinAddr: 0x9ADC0, symSize: 0x100 }
  - { offsetInCU: 0x2904C, offset: 0x243C72, size: 0x8, addend: 0x0, symName: __ZN12serde_derive5bound10with_bound17hddfab11c7edbee5fE, symObjAddr: 0x83C0, symBinAddr: 0x9AEC0, symSize: 0x8E0 }
  - { offsetInCU: 0x2B0CF, offset: 0x245CF5, size: 0x8, addend: 0x0, symName: __ZN12serde_derive5bound15with_self_bound17h970fd1a373e0b3beE, symObjAddr: 0x9560, symBinAddr: 0x9C060, symSize: 0x520 }
  - { offsetInCU: 0x2BADA, offset: 0x246700, size: 0x8, addend: 0x0, symName: __ZN12serde_derive5bound19with_lifetime_bound17h8b108f6bda123353E, symObjAddr: 0x9A80, symBinAddr: 0x9C580, symSize: 0x2B1 }
  - { offsetInCU: 0x34132, offset: 0x24ED58, size: 0x8, addend: 0x0, symName: __ZN12serde_derive5bound10with_bound12FindTyParams10visit_path17h4dda82dbfd08e0f1E, symObjAddr: 0x8CA0, symBinAddr: 0x9B7A0, symSize: 0x540 }
  - { offsetInCU: 0x35CD3, offset: 0x2508F9, size: 0x8, addend: 0x0, symName: __ZN12serde_derive5bound10with_bound12FindTyParams10visit_type17hec067c4ea04a50d3E, symObjAddr: 0x91E0, symBinAddr: 0x9BCE0, symSize: 0x380 }
  - { offsetInCU: 0x1E, offset: 0x255F98, size: 0x8, addend: 0x0, symName: '__ZN114_$LT$core..iter..adapters..flatten..FlatMap$LT$I$C$U$C$F$GT$$u20$as$u20$core..iter..traits..iterator..Iterator$GT$10advance_by17hc0adce34f1310002E.llvm.888364616737591629', symObjAddr: 0x0, symBinAddr: 0x9C840, symSize: 0x120 }
  - { offsetInCU: 0x35, offset: 0x255FAF, size: 0x8, addend: 0x0, symName: _anon.322d29c3f159ff7ed23a742cbf61df5f.1.llvm.888364616737591629, symObjAddr: 0xA0D0, symBinAddr: 0x3452C0, symSize: 0x0 }
  - { offsetInCU: 0x42A, offset: 0x2563A4, size: 0x8, addend: 0x0, symName: '__ZN114_$LT$core..iter..adapters..flatten..FlatMap$LT$I$C$U$C$F$GT$$u20$as$u20$core..iter..traits..iterator..Iterator$GT$10advance_by17hc0adce34f1310002E.llvm.888364616737591629', symObjAddr: 0x0, symBinAddr: 0x9C840, symSize: 0x120 }
  - { offsetInCU: 0xD18, offset: 0x256C92, size: 0x8, addend: 0x0, symName: '__ZN114_$LT$core..iter..adapters..flatten..FlatMap$LT$I$C$U$C$F$GT$$u20$as$u20$core..iter..traits..iterator..Iterator$GT$4next17hb0db7b4f524f1251E.llvm.888364616737591629', symObjAddr: 0x120, symBinAddr: 0x9C960, symSize: 0xA0 }
  - { offsetInCU: 0x117E, offset: 0x2570F8, size: 0x8, addend: 0x0, symName: '__ZN114_$LT$core..iter..adapters..flatten..FlatMap$LT$I$C$U$C$F$GT$$u20$as$u20$core..iter..traits..iterator..Iterator$GT$9size_hint17h3d359c927331f80cE.llvm.888364616737591629', symObjAddr: 0x1C0, symBinAddr: 0x9CA00, symSize: 0x90 }
  - { offsetInCU: 0x185F, offset: 0x2577D9, size: 0x8, addend: 0x0, symName: __ZN4core4iter6traits8iterator8Iterator3nth17h28ff61d1815415fbE.llvm.888364616737591629, symObjAddr: 0x8330, symBinAddr: 0xA4A40, symSize: 0x1C0 }
  - { offsetInCU: 0x2A87, offset: 0x258A01, size: 0x8, addend: 0x0, symName: '__ZN91_$LT$core..slice..iter..Iter$LT$T$GT$$u20$as$u20$core..iter..traits..iterator..Iterator$GT$10advance_by17hd6e6bf6204b805beE.llvm.888364616737591629', symObjAddr: 0x84F0, symBinAddr: 0xA4C00, symSize: 0x40 }
  - { offsetInCU: 0x2C4B, offset: 0x258BC5, size: 0x8, addend: 0x0, symName: '__ZN91_$LT$core..slice..iter..Iter$LT$T$GT$$u20$as$u20$core..iter..traits..iterator..Iterator$GT$3nth17ha6ef07f8b23b1cb5E.llvm.888364616737591629', symObjAddr: 0x8530, symBinAddr: 0xA4C40, symSize: 0x50 }
  - { offsetInCU: 0x2D1C, offset: 0x258C96, size: 0x8, addend: 0x0, symName: '__ZN91_$LT$core..slice..iter..Iter$LT$T$GT$$u20$as$u20$core..iter..traits..iterator..Iterator$GT$4next17haa9596a2b2c83d11E.llvm.888364616737591629', symObjAddr: 0x8580, symBinAddr: 0xA4C90, symSize: 0x20 }
  - { offsetInCU: 0x2E2C, offset: 0x258DA6, size: 0x8, addend: 0x0, symName: '__ZN91_$LT$core..slice..iter..Iter$LT$T$GT$$u20$as$u20$core..iter..traits..iterator..Iterator$GT$9size_hint17hedcdf1f46d08c09bE.llvm.888364616737591629', symObjAddr: 0x85A0, symBinAddr: 0xA4CB0, symSize: 0x40 }
  - { offsetInCU: 0x4B22, offset: 0x25AA9C, size: 0x8, addend: 0x0, symName: '__ZN4core3ptr100drop_in_place$LT$core..option..Option$LT$alloc..boxed..Box$LT$syn..path..GenericArgument$GT$$GT$$GT$17h3c47f80d40da4ae4E', symObjAddr: 0x4D0, symBinAddr: 0x9CBE0, symSize: 0x50 }
  - { offsetInCU: 0x4E44, offset: 0x25ADBE, size: 0x8, addend: 0x0, symName: '__ZN4core3ptr100drop_in_place$LT$syn..punctuated..Punctuated$LT$syn..path..PathSegment$C$syn..token..PathSep$GT$$GT$17hd34064dc93b0b427E', symObjAddr: 0x520, symBinAddr: 0x9CC30, symSize: 0x270 }
  - { offsetInCU: 0x5806, offset: 0x25B780, size: 0x8, addend: 0x0, symName: '__ZN4core3ptr101drop_in_place$LT$core..option..Option$LT$alloc..vec..Vec$LT$syn..generics..WherePredicate$GT$$GT$$GT$17ha20f1622680c30deE', symObjAddr: 0x790, symBinAddr: 0x9CEA0, symSize: 0xD0 }
  - { offsetInCU: 0x5AE3, offset: 0x25BA5D, size: 0x8, addend: 0x0, symName: '__ZN4core3ptr103drop_in_place$LT$core..option..Option$LT$alloc..boxed..Box$LT$syn..generics..TypeParamBound$GT$$GT$$GT$17hb98e913f9a9fba75E', symObjAddr: 0x860, symBinAddr: 0x9CF70, symSize: 0x50 }
  - { offsetInCU: 0x5CEE, offset: 0x25BC68, size: 0x8, addend: 0x0, symName: '__ZN4core3ptr103drop_in_place$LT$syn..punctuated..Punctuated$LT$syn..generics..GenericParam$C$syn..token..Comma$GT$$GT$17h706e4b03aaf6cee1E', symObjAddr: 0x8B0, symBinAddr: 0x9CFC0, symSize: 0xF0 }
  - { offsetInCU: 0x61E9, offset: 0x25C163, size: 0x8, addend: 0x0, symName: '__ZN4core3ptr104drop_in_place$LT$syn..punctuated..Punctuated$LT$syn..generics..TypeParamBound$C$syn..token..Plus$GT$$GT$17h913c045198e2e1fdE', symObjAddr: 0x9A0, symBinAddr: 0x9D0B0, symSize: 0x190 }
  - { offsetInCU: 0x67CE, offset: 0x25C748, size: 0x8, addend: 0x0, symName: '__ZN4core3ptr155drop_in_place$LT$alloc..boxed..Box$LT$dyn$u20$core..iter..traits..iterator..Iterator$u2b$Item$u20$$u3d$$u20$$RF$serde_derive..internals..ast..Field$GT$$GT$17hf051a915e9cd3f38E.llvm.888364616737591629', symObjAddr: 0xB30, symBinAddr: 0x9D240, symSize: 0x70 }
  - { offsetInCU: 0x6A81, offset: 0x25C9FB, size: 0x8, addend: 0x0, symName: '__ZN4core3ptr34drop_in_place$LT$syn..lit..Lit$GT$17hab99994a68996a3fE', symObjAddr: 0xBA0, symBinAddr: 0x9D2B0, symSize: 0x120 }
  - { offsetInCU: 0x6F50, offset: 0x25CECA, size: 0x8, addend: 0x0, symName: '__ZN4core3ptr34drop_in_place$LT$syn..pat..Pat$GT$17h7d887fadf2c3cc6bE', symObjAddr: 0xCC0, symBinAddr: 0x9D3D0, symSize: 0xEE0 }
  - { offsetInCU: 0xA776, offset: 0x2606F0, size: 0x8, addend: 0x0, symName: '__ZN4core3ptr34drop_in_place$LT$syn..ty..Type$GT$17h11a872b3c8e5eef5E', symObjAddr: 0x1BA0, symBinAddr: 0x9E2B0, symSize: 0x4F0 }
  - { offsetInCU: 0xBCB9, offset: 0x261C33, size: 0x8, addend: 0x0, symName: '__ZN4core3ptr36drop_in_place$LT$syn..expr..Expr$GT$17h62bf30adc41c0fafE', symObjAddr: 0x2090, symBinAddr: 0x9E7A0, symSize: 0x2680 }
  - { offsetInCU: 0x14ED3, offset: 0x26AE4D, size: 0x8, addend: 0x0, symName: '__ZN4core3ptr36drop_in_place$LT$syn..mac..Macro$GT$17ha18d10f1233dedcaE', symObjAddr: 0x4710, symBinAddr: 0xA0E20, symSize: 0x40 }
  - { offsetInCU: 0x14F0D, offset: 0x26AE87, size: 0x8, addend: 0x0, symName: '__ZN4core3ptr36drop_in_place$LT$syn..path..Path$GT$17hcca6c7d030660616E', symObjAddr: 0x4750, symBinAddr: 0xA0E60, symSize: 0x240 }
  - { offsetInCU: 0x158A7, offset: 0x26B821, size: 0x8, addend: 0x0, symName: '__ZN4core3ptr37drop_in_place$LT$syn..path..QSelf$GT$17hc2683559bd3703f9E', symObjAddr: 0x4990, symBinAddr: 0xA10A0, symSize: 0x50 }
  - { offsetInCU: 0x15A1F, offset: 0x26B999, size: 0x8, addend: 0x0, symName: '__ZN4core3ptr37drop_in_place$LT$syn..stmt..Block$GT$17haed62ed48b69364dE', symObjAddr: 0x49E0, symBinAddr: 0xA10F0, symSize: 0xD0 }
  - { offsetInCU: 0x15CF6, offset: 0x26BC70, size: 0x8, addend: 0x0, symName: '__ZN4core3ptr38drop_in_place$LT$syn..expr..Member$GT$17h594f47e3350a2be5E', symObjAddr: 0x4AB0, symBinAddr: 0xA11C0, symSize: 0x30 }
  - { offsetInCU: 0x15DF2, offset: 0x26BD6C, size: 0x8, addend: 0x0, symName: '__ZN4core3ptr39drop_in_place$LT$proc_macro2..Ident$GT$17h007be8bd6a71491bE', symObjAddr: 0x4AE0, symBinAddr: 0xA11F0, symSize: 0x30 }
  - { offsetInCU: 0x15ECF, offset: 0x26BE49, size: 0x8, addend: 0x0, symName: '__ZN4core3ptr40drop_in_place$LT$syn..expr..ExprPath$GT$17heaa068b65b1423afE', symObjAddr: 0x4B10, symBinAddr: 0xA1220, symSize: 0x120 }
  - { offsetInCU: 0x1637F, offset: 0x26C2F9, size: 0x8, addend: 0x0, symName: '__ZN4core3ptr40drop_in_place$LT$syn..ty..ReturnType$GT$17h14f04ba862eb52f4E', symObjAddr: 0x4C30, symBinAddr: 0xA1340, symSize: 0x50 }
  - { offsetInCU: 0x164EF, offset: 0x26C469, size: 0x8, addend: 0x0, symName: '__ZN4core3ptr41drop_in_place$LT$syn..expr..ExprConst$GT$17h011fcb0f1d3d0fbcE', symObjAddr: 0x4C80, symBinAddr: 0xA1390, symSize: 0x180 }
  - { offsetInCU: 0x16AA8, offset: 0x26CA22, size: 0x8, addend: 0x0, symName: '__ZN4core3ptr44drop_in_place$LT$syn..lifetime..Lifetime$GT$17h81f5c412fc4e75a1E', symObjAddr: 0x4E00, symBinAddr: 0xA1510, symSize: 0x30 }
  - { offsetInCU: 0x16CDA, offset: 0x26CC54, size: 0x8, addend: 0x0, symName: '__ZN4core3ptr45drop_in_place$LT$proc_macro2..TokenStream$GT$17h725968a5788a0c43E', symObjAddr: 0x4E30, symBinAddr: 0xA1540, symSize: 0x140 }
  - { offsetInCU: 0x17174, offset: 0x26D0EE, size: 0x8, addend: 0x0, symName: '__ZN4core3ptr45drop_in_place$LT$syn..generics..TypeParam$GT$17h2ddacbd5ce28b514E', symObjAddr: 0x4F70, symBinAddr: 0xA1680, symSize: 0x230 }
  - { offsetInCU: 0x179B5, offset: 0x26D92F, size: 0x8, addend: 0x0, symName: '__ZN4core3ptr46drop_in_place$LT$syn..generics..ConstParam$GT$17h847551b4d11dedb8E', symObjAddr: 0x51A0, symBinAddr: 0xA18B0, symSize: 0x150 }
  - { offsetInCU: 0x17E02, offset: 0x26DD7C, size: 0x8, addend: 0x0, symName: '__ZN4core3ptr47drop_in_place$LT$syn..path..GenericArgument$GT$17ha0f8621278069bfaE', symObjAddr: 0x52F0, symBinAddr: 0xA1A00, symSize: 0x4A0 }
  - { offsetInCU: 0x18F08, offset: 0x26EE82, size: 0x8, addend: 0x0, symName: '__ZN4core3ptr49drop_in_place$LT$syn..generics..LifetimeParam$GT$17hd8de96c71b63fc49E', symObjAddr: 0x5790, symBinAddr: 0xA1EA0, symSize: 0xF0 }
  - { offsetInCU: 0x192EB, offset: 0x26F265, size: 0x8, addend: 0x0, symName: '__ZN4core3ptr50drop_in_place$LT$syn..generics..TypeParamBound$GT$17hc0b3a8451b112484E', symObjAddr: 0x5880, symBinAddr: 0xA1F90, symSize: 0x180 }
  - { offsetInCU: 0x197B1, offset: 0x26F72B, size: 0x8, addend: 0x0, symName: '__ZN4core3ptr55drop_in_place$LT$serde_derive..internals..ast..Data$GT$17h7977b1b4799a1e20E', symObjAddr: 0x5A00, symBinAddr: 0xA2110, symSize: 0x150 }
  - { offsetInCU: 0x19DFD, offset: 0x26FD77, size: 0x8, addend: 0x0, symName: '__ZN4core3ptr56drop_in_place$LT$serde_derive..internals..attr..Name$GT$17h6809d664c841074bE', symObjAddr: 0x5B50, symBinAddr: 0xA2260, symSize: 0x100 }
  - { offsetInCU: 0x1A364, offset: 0x2702DE, size: 0x8, addend: 0x0, symName: '__ZN4core3ptr58drop_in_place$LT$alloc..vec..Vec$LT$syn..expr..Arm$GT$$GT$17ha6d87cf8cb2f8625E', symObjAddr: 0x5C50, symBinAddr: 0xA2360, symSize: 0xD0 }
  - { offsetInCU: 0x1A624, offset: 0x27059E, size: 0x8, addend: 0x0, symName: '__ZN4core3ptr59drop_in_place$LT$alloc..boxed..Box$LT$syn..pat..Pat$GT$$GT$17h04b5a49dc338bf9cE', symObjAddr: 0x5D20, symBinAddr: 0xA2430, symSize: 0x50 }
  - { offsetInCU: 0x1A77D, offset: 0x2706F7, size: 0x8, addend: 0x0, symName: '__ZN4core3ptr59drop_in_place$LT$alloc..boxed..Box$LT$syn..ty..Type$GT$$GT$17hfb8a09f23f7902beE', symObjAddr: 0x5D70, symBinAddr: 0xA2480, symSize: 0x50 }
  - { offsetInCU: 0x1A8D6, offset: 0x270850, size: 0x8, addend: 0x0, symName: '__ZN4core3ptr59drop_in_place$LT$serde_derive..internals..attr..TagType$GT$17hf69892e87222ae2dE', symObjAddr: 0x5DC0, symBinAddr: 0xA24D0, symSize: 0x80 }
  - { offsetInCU: 0x1ABC1, offset: 0x270B3B, size: 0x8, addend: 0x0, symName: '__ZN4core3ptr59drop_in_place$LT$serde_derive..internals..attr..Variant$GT$17hf49fb7bbcae9d0b2E.llvm.888364616737591629', symObjAddr: 0x5E40, symBinAddr: 0xA2550, symSize: 0x330 }
  - { offsetInCU: 0x1B5EF, offset: 0x271569, size: 0x8, addend: 0x0, symName: '__ZN4core3ptr60drop_in_place$LT$serde_derive..internals..ast..Container$GT$17h210b7485b26ce471E', symObjAddr: 0x6170, symBinAddr: 0xA2880, symSize: 0x70 }
  - { offsetInCU: 0x1B700, offset: 0x27167A, size: 0x8, addend: 0x0, symName: '__ZN4core3ptr61drop_in_place$LT$alloc..boxed..Box$LT$syn..expr..Expr$GT$$GT$17hfe67d291b01d4939E', symObjAddr: 0x61E0, symBinAddr: 0xA28F0, symSize: 0x50 }
  - { offsetInCU: 0x1B8D5, offset: 0x27184F, size: 0x8, addend: 0x0, symName: '__ZN4core3ptr61drop_in_place$LT$serde_derive..internals..attr..Container$GT$17hb6b85895755a2b57E', symObjAddr: 0x6230, symBinAddr: 0xA2940, symSize: 0x3C0 }
  - { offsetInCU: 0x1C41D, offset: 0x272397, size: 0x8, addend: 0x0, symName: '__ZN4core3ptr61drop_in_place$LT$syn..path..ParenthesizedGenericArguments$GT$17hc6164008a0f156caE', symObjAddr: 0x65F0, symBinAddr: 0xA2D00, symSize: 0x170 }
  - { offsetInCU: 0x1CA13, offset: 0x27298D, size: 0x8, addend: 0x0, symName: '__ZN4core3ptr62drop_in_place$LT$syn..path..AngleBracketedGenericArguments$GT$17h0299086782c6da12E', symObjAddr: 0x6760, symBinAddr: 0xA2E70, symSize: 0x120 }
  - { offsetInCU: 0x1CE5E, offset: 0x272DD8, size: 0x8, addend: 0x0, symName: '__ZN4core3ptr63drop_in_place$LT$alloc..boxed..Box$LT$syn..lit..LitRepr$GT$$GT$17hf2595df28a7ce13bE', symObjAddr: 0x6880, symBinAddr: 0xA2F90, symSize: 0x60 }
  - { offsetInCU: 0x1D146, offset: 0x2730C0, size: 0x8, addend: 0x0, symName: '__ZN4core3ptr64drop_in_place$LT$alloc..boxed..Box$LT$syn..pat..FieldPat$GT$$GT$17hb9cdd4a04c64745aE', symObjAddr: 0x68E0, symBinAddr: 0xA2FF0, symSize: 0x140 }
  - { offsetInCU: 0x1D813, offset: 0x27378D, size: 0x8, addend: 0x0, symName: '__ZN4core3ptr64drop_in_place$LT$alloc..boxed..Box$LT$syn..ty..BareFnArg$GT$$GT$17hdf9a99e9a3e43b93E', symObjAddr: 0x6A20, symBinAddr: 0xA3130, symSize: 0x140 }
  - { offsetInCU: 0x1DD68, offset: 0x273CE2, size: 0x8, addend: 0x0, symName: '__ZN4core3ptr65drop_in_place$LT$alloc..vec..Vec$LT$proc_macro..TokenTree$GT$$GT$17h07ad17327f0607d0E', symObjAddr: 0x6B60, symBinAddr: 0xA3270, symSize: 0x110 }
  - { offsetInCU: 0x1E160, offset: 0x2740DA, size: 0x8, addend: 0x0, symName: '__ZN4core3ptr65drop_in_place$LT$core..option..Option$LT$syn..expr..Label$GT$$GT$17h7370f4cd7d051021E', symObjAddr: 0x6C70, symBinAddr: 0xA3380, symSize: 0x30 }
  - { offsetInCU: 0x1E29A, offset: 0x274214, size: 0x8, addend: 0x0, symName: '__ZN4core3ptr65drop_in_place$LT$core..option..Option$LT$syn..path..QSelf$GT$$GT$17h9bc6bd805f4b805bE', symObjAddr: 0x6CA0, symBinAddr: 0xA33B0, symSize: 0x50 }
  - { offsetInCU: 0x1E431, offset: 0x2743AB, size: 0x8, addend: 0x0, symName: '__ZN4core3ptr66drop_in_place$LT$core..option..Option$LT$syn..pat..PatRest$GT$$GT$17h56243b82155d1306E', symObjAddr: 0x6CF0, symBinAddr: 0xA3400, symSize: 0xE0 }
  - { offsetInCU: 0x1E725, offset: 0x27469F, size: 0x8, addend: 0x0, symName: '__ZN4core3ptr67drop_in_place$LT$alloc..boxed..Box$LT$syn..expr..FieldValue$GT$$GT$17hdb569e1e168cfcafE', symObjAddr: 0x6DD0, symBinAddr: 0xA34E0, symSize: 0x140 }
  - { offsetInCU: 0x1EC5A, offset: 0x274BD4, size: 0x8, addend: 0x0, symName: '__ZN4core3ptr68drop_in_place$LT$alloc..boxed..Box$LT$syn..path..PathSegment$GT$$GT$17h8bc236a2626e080dE', symObjAddr: 0x6F10, symBinAddr: 0xA3620, symSize: 0x1B0 }
  - { offsetInCU: 0x1F368, offset: 0x2752E2, size: 0x8, addend: 0x0, symName: '__ZN4core3ptr70drop_in_place$LT$core..option..Option$LT$syn..ty..BareVariadic$GT$$GT$17h891315fdf14c9598E', symObjAddr: 0x70C0, symBinAddr: 0xA37D0, symSize: 0x100 }
  - { offsetInCU: 0x1F79F, offset: 0x275719, size: 0x8, addend: 0x0, symName: '__ZN4core3ptr72drop_in_place$LT$alloc..boxed..Box$LT$syn..path..GenericArgument$GT$$GT$17ha22f3de00ed22d7dE', symObjAddr: 0x71C0, symBinAddr: 0xA38D0, symSize: 0x1D0 }
  - { offsetInCU: 0x1FD3A, offset: 0x275CB4, size: 0x8, addend: 0x0, symName: '__ZN4core3ptr72drop_in_place$LT$core..option..Option$LT$syn..lifetime..Lifetime$GT$$GT$17h738a5902efee9f55E', symObjAddr: 0x7390, symBinAddr: 0xA3AA0, symSize: 0x30 }
  - { offsetInCU: 0x1FE55, offset: 0x275DCF, size: 0x8, addend: 0x0, symName: '__ZN4core3ptr73drop_in_place$LT$alloc..boxed..Box$LT$syn..generics..GenericParam$GT$$GT$17h4a82c3bd6b9e6f81E', symObjAddr: 0x73C0, symBinAddr: 0xA3AD0, symSize: 0x80 }
  - { offsetInCU: 0x1FFCB, offset: 0x275F45, size: 0x8, addend: 0x0, symName: '__ZN4core3ptr75drop_in_place$LT$alloc..boxed..Box$LT$syn..generics..TypeParamBound$GT$$GT$17h47c0b9686bcdda20E', symObjAddr: 0x7440, symBinAddr: 0xA3B50, symSize: 0xC0 }
  - { offsetInCU: 0x202C2, offset: 0x27623C, size: 0x8, addend: 0x0, symName: '__ZN4core3ptr79drop_in_place$LT$alloc..vec..Vec$LT$serde_derive..internals..ast..Field$GT$$GT$17hcbb7f7e9e49e6f65E.llvm.888364616737591629', symObjAddr: 0x7500, symBinAddr: 0xA3C10, symSize: 0x110 }
  - { offsetInCU: 0x2069E, offset: 0x276618, size: 0x8, addend: 0x0, symName: '__ZN4core3ptr81drop_in_place$LT$alloc..vec..Vec$LT$serde_derive..internals..ast..Variant$GT$$GT$17hdb21586bc2625e3eE', symObjAddr: 0x7610, symBinAddr: 0xA3D20, symSize: 0x60 }
  - { offsetInCU: 0x2092A, offset: 0x2768A4, size: 0x8, addend: 0x0, symName: '__ZN4core3ptr86drop_in_place$LT$syn..punctuated..Punctuated$LT$syn..pat..Pat$C$syn..token..Or$GT$$GT$17h028803b51a0e008cE', symObjAddr: 0x7670, symBinAddr: 0xA3D80, symSize: 0x120 }
  - { offsetInCU: 0x20DA5, offset: 0x276D1F, size: 0x8, addend: 0x0, symName: '__ZN4core3ptr87drop_in_place$LT$core..option..Option$LT$alloc..boxed..Box$LT$syn..pat..Pat$GT$$GT$$GT$17h47e4534cb825f5fbE', symObjAddr: 0x7790, symBinAddr: 0xA3EA0, symSize: 0x50 }
  - { offsetInCU: 0x20F15, offset: 0x276E8F, size: 0x8, addend: 0x0, symName: '__ZN4core3ptr87drop_in_place$LT$core..option..Option$LT$alloc..boxed..Box$LT$syn..ty..Type$GT$$GT$$GT$17hb21c4c429b95d768E', symObjAddr: 0x77E0, symBinAddr: 0xA3EF0, symSize: 0x50 }
  - { offsetInCU: 0x21085, offset: 0x276FFF, size: 0x8, addend: 0x0, symName: '__ZN4core3ptr89drop_in_place$LT$core..option..Option$LT$alloc..boxed..Box$LT$syn..expr..Expr$GT$$GT$$GT$17h0b10c8a8945d61ceE', symObjAddr: 0x7830, symBinAddr: 0xA3F40, symSize: 0x50 }
  - { offsetInCU: 0x21233, offset: 0x2771AD, size: 0x8, addend: 0x0, symName: '__ZN4core3ptr89drop_in_place$LT$syn..punctuated..Punctuated$LT$syn..pat..Pat$C$syn..token..Comma$GT$$GT$17h0f70228e7daac378E', symObjAddr: 0x7880, symBinAddr: 0xA3F90, symSize: 0x120 }
  - { offsetInCU: 0x216C5, offset: 0x27763F, size: 0x8, addend: 0x0, symName: '__ZN4core3ptr89drop_in_place$LT$syn..punctuated..Punctuated$LT$syn..ty..Type$C$syn..token..Comma$GT$$GT$17h0317a8a9919e8789E', symObjAddr: 0x79A0, symBinAddr: 0xA40B0, symSize: 0x120 }
  - { offsetInCU: 0x21B40, offset: 0x277ABA, size: 0x8, addend: 0x0, symName: '__ZN4core3ptr90drop_in_place$LT$core..option..Option$LT$syn..path..AngleBracketedGenericArguments$GT$$GT$17h9646b437ffecef94E', symObjAddr: 0x7AC0, symBinAddr: 0xA41D0, symSize: 0x130 }
  - { offsetInCU: 0x21FE2, offset: 0x277F5C, size: 0x8, addend: 0x0, symName: '__ZN4core3ptr91drop_in_place$LT$syn..punctuated..Punctuated$LT$syn..expr..Expr$C$syn..token..Comma$GT$$GT$17hd3047ab334148524E', symObjAddr: 0x7BF0, symBinAddr: 0xA4300, symSize: 0x120 }
  - { offsetInCU: 0x22470, offset: 0x2783EA, size: 0x8, addend: 0x0, symName: '__ZN4core3ptr94drop_in_place$LT$syn..punctuated..Punctuated$LT$syn..pat..FieldPat$C$syn..token..Comma$GT$$GT$17h7ace9efb18f43d12E', symObjAddr: 0x7D10, symBinAddr: 0xA4420, symSize: 0xF0 }
  - { offsetInCU: 0x2276F, offset: 0x2786E9, size: 0x8, addend: 0x0, symName: '__ZN4core3ptr94drop_in_place$LT$syn..punctuated..Punctuated$LT$syn..ty..BareFnArg$C$syn..token..Comma$GT$$GT$17hb29c6edaabe01c76E', symObjAddr: 0x7E00, symBinAddr: 0xA4510, symSize: 0xF0 }
  - { offsetInCU: 0x22A70, offset: 0x2789EA, size: 0x8, addend: 0x0, symName: '__ZN4core3ptr95drop_in_place$LT$core..option..Option$LT$serde_derive..internals..attr..BorrowAttribute$GT$$GT$17h4e3d5c85d249635bE', symObjAddr: 0x7EF0, symBinAddr: 0xA4600, symSize: 0x110 }
  - { offsetInCU: 0x22E60, offset: 0x278DDA, size: 0x8, addend: 0x0, symName: '__ZN4core3ptr96drop_in_place$LT$core..option..Option$LT$alloc..boxed..Box$LT$syn..path..PathSegment$GT$$GT$$GT$17hd919256ec958e698E', symObjAddr: 0x8000, symBinAddr: 0xA4710, symSize: 0xA0 }
  - { offsetInCU: 0x230DF, offset: 0x279059, size: 0x8, addend: 0x0, symName: '__ZN4core3ptr97drop_in_place$LT$syn..punctuated..Punctuated$LT$syn..expr..FieldValue$C$syn..token..Comma$GT$$GT$17he241ea7a3c55d267E', symObjAddr: 0x80A0, symBinAddr: 0xA47B0, symSize: 0xF0 }
  - { offsetInCU: 0x233DC, offset: 0x279356, size: 0x8, addend: 0x0, symName: '__ZN4core3ptr98drop_in_place$LT$alloc..vec..Vec$LT$$LP$syn..path..GenericArgument$C$syn..token..Comma$RP$$GT$$GT$17ha96f98c42a71b3f5E', symObjAddr: 0x8190, symBinAddr: 0xA48A0, symSize: 0xD0 }
  - { offsetInCU: 0x2371C, offset: 0x279696, size: 0x8, addend: 0x0, symName: '__ZN4core3ptr98drop_in_place$LT$syn..punctuated..Punctuated$LT$syn..lifetime..Lifetime$C$syn..token..Plus$GT$$GT$17hb8f4279048db7792E', symObjAddr: 0x8260, symBinAddr: 0xA4970, symSize: 0xD0 }
  - { offsetInCU: 0x26866, offset: 0x27C7E0, size: 0x8, addend: 0x0, symName: '__ZN4core3ops8function5impls80_$LT$impl$u20$core..ops..function..FnOnce$LT$A$GT$$u20$for$u20$$RF$mut$u20$F$GT$9call_once17ha36a333abf5116adE', symObjAddr: 0x380, symBinAddr: 0x9CA90, symSize: 0x150 }
  - { offsetInCU: 0x26ECB, offset: 0x27CE45, size: 0x8, addend: 0x0, symName: __ZN12serde_derive9internals3ast15struct_from_ast17hb94d1a3b11fbbd7bE.llvm.888364616737591629, symObjAddr: 0x8E20, symBinAddr: 0xA5460, symSize: 0x223 }
  - { offsetInCU: 0x301E2, offset: 0x28615C, size: 0x8, addend: 0x0, symName: _anon.322d29c3f159ff7ed23a742cbf61df5f.2.llvm.888364616737591629, symObjAddr: 0xA108, symBinAddr: 0x3452F8, symSize: 0x0 }
  - { offsetInCU: 0x31C81, offset: 0x287BFB, size: 0x8, addend: 0x0, symName: __ZN12serde_derive9internals3ast9Container8from_ast17hd2ca689631372a8dE, symObjAddr: 0x85E0, symBinAddr: 0xA4CF0, symSize: 0x600 }
  - { offsetInCU: 0x32E1A, offset: 0x288D94, size: 0x8, addend: 0x0, symName: __ZN12serde_derive9internals3ast4Data10has_getter17h4ce6e87fa56dcd5dE, symObjAddr: 0x8CB0, symBinAddr: 0xA52F0, symSize: 0x170 }
  - { offsetInCU: 0x1E, offset: 0x28D134, size: 0x8, addend: 0x0, symName: '__ZN4core3ptr100drop_in_place$LT$core..option..Option$LT$alloc..boxed..Box$LT$syn..path..GenericArgument$GT$$GT$$GT$17h3c47f80d40da4ae4E', symObjAddr: 0x0, symBinAddr: 0xA5690, symSize: 0x50 }
  - { offsetInCU: 0x1988, offset: 0x28EA9E, size: 0x8, addend: 0x0, symName: '__ZN4core3ptr100drop_in_place$LT$core..option..Option$LT$alloc..boxed..Box$LT$syn..path..GenericArgument$GT$$GT$$GT$17h3c47f80d40da4ae4E', symObjAddr: 0x0, symBinAddr: 0xA5690, symSize: 0x50 }
  - { offsetInCU: 0x1D26, offset: 0x28EE3C, size: 0x8, addend: 0x0, symName: '__ZN4core3ptr100drop_in_place$LT$syn..punctuated..Punctuated$LT$syn..path..PathSegment$C$syn..token..PathSep$GT$$GT$17hd34064dc93b0b427E', symObjAddr: 0x50, symBinAddr: 0xA56E0, symSize: 0x270 }
  - { offsetInCU: 0x26C9, offset: 0x28F7DF, size: 0x8, addend: 0x0, symName: '__ZN4core3ptr103drop_in_place$LT$core..option..Option$LT$alloc..boxed..Box$LT$syn..generics..TypeParamBound$GT$$GT$$GT$17hb98e913f9a9fba75E', symObjAddr: 0x2C0, symBinAddr: 0xA5950, symSize: 0x50 }
  - { offsetInCU: 0x28D4, offset: 0x28F9EA, size: 0x8, addend: 0x0, symName: '__ZN4core3ptr103drop_in_place$LT$syn..punctuated..Punctuated$LT$syn..generics..GenericParam$C$syn..token..Comma$GT$$GT$17h706e4b03aaf6cee1E', symObjAddr: 0x310, symBinAddr: 0xA59A0, symSize: 0xF0 }
  - { offsetInCU: 0x2DCF, offset: 0x28FEE5, size: 0x8, addend: 0x0, symName: '__ZN4core3ptr104drop_in_place$LT$syn..punctuated..Punctuated$LT$syn..generics..TypeParamBound$C$syn..token..Plus$GT$$GT$17h913c045198e2e1fdE', symObjAddr: 0x400, symBinAddr: 0xA5A90, symSize: 0x190 }
  - { offsetInCU: 0x3430, offset: 0x290546, size: 0x8, addend: 0x0, symName: '__ZN4core3ptr116drop_in_place$LT$core..cell..RefCell$LT$core..option..Option$LT$alloc..vec..Vec$LT$syn..error..Error$GT$$GT$$GT$$GT$17h94421fe3ad5a4b05E', symObjAddr: 0x590, symBinAddr: 0xA5C20, symSize: 0x110 }
  - { offsetInCU: 0x3934, offset: 0x290A4A, size: 0x8, addend: 0x0, symName: '__ZN4core3ptr34drop_in_place$LT$syn..lit..Lit$GT$17hab99994a68996a3fE', symObjAddr: 0x6A0, symBinAddr: 0xA5D30, symSize: 0x120 }
  - { offsetInCU: 0x3E22, offset: 0x290F38, size: 0x8, addend: 0x0, symName: '__ZN4core3ptr34drop_in_place$LT$syn..pat..Pat$GT$17h7d887fadf2c3cc6bE', symObjAddr: 0x7C0, symBinAddr: 0xA5E50, symSize: 0x1090 }
  - { offsetInCU: 0x7E22, offset: 0x294F38, size: 0x8, addend: 0x0, symName: '__ZN4core3ptr34drop_in_place$LT$syn..ty..Type$GT$17h11a872b3c8e5eef5E', symObjAddr: 0x1850, symBinAddr: 0xA6EE0, symSize: 0x4F0 }
  - { offsetInCU: 0x9365, offset: 0x29647B, size: 0x8, addend: 0x0, symName: '__ZN4core3ptr36drop_in_place$LT$syn..expr..Expr$GT$17h62bf30adc41c0fafE.llvm.3783291081734715666', symObjAddr: 0x1D40, symBinAddr: 0xA73D0, symSize: 0x27D0 }
  - { offsetInCU: 0x12A99, offset: 0x29FBAF, size: 0x8, addend: 0x0, symName: '__ZN4core3ptr36drop_in_place$LT$syn..mac..Macro$GT$17ha18d10f1233dedcaE', symObjAddr: 0x4510, symBinAddr: 0xA9BA0, symSize: 0x40 }
  - { offsetInCU: 0x12AD3, offset: 0x29FBE9, size: 0x8, addend: 0x0, symName: '__ZN4core3ptr36drop_in_place$LT$syn..path..Path$GT$17hcca6c7d030660616E', symObjAddr: 0x4550, symBinAddr: 0xA9BE0, symSize: 0x240 }
  - { offsetInCU: 0x1346D, offset: 0x2A0583, size: 0x8, addend: 0x0, symName: '__ZN4core3ptr37drop_in_place$LT$syn..stmt..Block$GT$17haed62ed48b69364dE', symObjAddr: 0x4790, symBinAddr: 0xA9E20, symSize: 0xD0 }
  - { offsetInCU: 0x13782, offset: 0x2A0898, size: 0x8, addend: 0x0, symName: '__ZN4core3ptr38drop_in_place$LT$syn..error..Error$GT$17h4794daeab7950c2fE.llvm.3783291081734715666', symObjAddr: 0x4860, symBinAddr: 0xA9EF0, symSize: 0x90 }
  - { offsetInCU: 0x13A43, offset: 0x2A0B59, size: 0x8, addend: 0x0, symName: '__ZN4core3ptr38drop_in_place$LT$syn..expr..Member$GT$17h594f47e3350a2be5E', symObjAddr: 0x48F0, symBinAddr: 0xA9F80, symSize: 0x30 }
  - { offsetInCU: 0x13B3F, offset: 0x2A0C55, size: 0x8, addend: 0x0, symName: '__ZN4core3ptr39drop_in_place$LT$proc_macro2..Ident$GT$17h007be8bd6a71491bE', symObjAddr: 0x4920, symBinAddr: 0xA9FB0, symSize: 0x30 }
  - { offsetInCU: 0x13C1C, offset: 0x2A0D32, size: 0x8, addend: 0x0, symName: '__ZN4core3ptr40drop_in_place$LT$syn..ty..ReturnType$GT$17h14f04ba862eb52f4E', symObjAddr: 0x4950, symBinAddr: 0xA9FE0, symSize: 0x50 }
  - { offsetInCU: 0x13D8C, offset: 0x2A0EA2, size: 0x8, addend: 0x0, symName: '__ZN4core3ptr41drop_in_place$LT$syn..expr..ExprConst$GT$17h011fcb0f1d3d0fbcE', symObjAddr: 0x49A0, symBinAddr: 0xAA030, symSize: 0x180 }
  - { offsetInCU: 0x14345, offset: 0x2A145B, size: 0x8, addend: 0x0, symName: '__ZN4core3ptr44drop_in_place$LT$syn..lifetime..Lifetime$GT$17h81f5c412fc4e75a1E', symObjAddr: 0x4B40, symBinAddr: 0xAA1B0, symSize: 0x30 }
  - { offsetInCU: 0x14577, offset: 0x2A168D, size: 0x8, addend: 0x0, symName: '__ZN4core3ptr45drop_in_place$LT$proc_macro2..TokenStream$GT$17h725968a5788a0c43E.llvm.3783291081734715666', symObjAddr: 0x4B70, symBinAddr: 0xAA1E0, symSize: 0x140 }
  - { offsetInCU: 0x14A11, offset: 0x2A1B27, size: 0x8, addend: 0x0, symName: '__ZN4core3ptr45drop_in_place$LT$syn..generics..TypeParam$GT$17h2ddacbd5ce28b514E', symObjAddr: 0x4CB0, symBinAddr: 0xAA320, symSize: 0x230 }
  - { offsetInCU: 0x15252, offset: 0x2A2368, size: 0x8, addend: 0x0, symName: '__ZN4core3ptr46drop_in_place$LT$syn..generics..ConstParam$GT$17h847551b4d11dedb8E', symObjAddr: 0x4EE0, symBinAddr: 0xAA550, symSize: 0x150 }
  - { offsetInCU: 0x1569F, offset: 0x2A27B5, size: 0x8, addend: 0x0, symName: '__ZN4core3ptr47drop_in_place$LT$syn..path..GenericArgument$GT$17ha0f8621278069bfaE', symObjAddr: 0x5030, symBinAddr: 0xAA6A0, symSize: 0x4A0 }
  - { offsetInCU: 0x167A5, offset: 0x2A38BB, size: 0x8, addend: 0x0, symName: '__ZN4core3ptr49drop_in_place$LT$syn..generics..LifetimeParam$GT$17hd8de96c71b63fc49E', symObjAddr: 0x54D0, symBinAddr: 0xAAB40, symSize: 0xF0 }
  - { offsetInCU: 0x16B88, offset: 0x2A3C9E, size: 0x8, addend: 0x0, symName: '__ZN4core3ptr50drop_in_place$LT$syn..generics..TypeParamBound$GT$17hc0b3a8451b112484E', symObjAddr: 0x55C0, symBinAddr: 0xAAC30, symSize: 0x180 }
  - { offsetInCU: 0x16FF1, offset: 0x2A4107, size: 0x8, addend: 0x0, symName: '__ZN4core3ptr56drop_in_place$LT$serde_derive..internals..ctxt..Ctxt$GT$17h0cdcca7437be666dE', symObjAddr: 0x5740, symBinAddr: 0xAADB0, symSize: 0x190 }
  - { offsetInCU: 0x175B9, offset: 0x2A46CF, size: 0x8, addend: 0x0, symName: '__ZN4core3ptr58drop_in_place$LT$alloc..vec..Vec$LT$syn..expr..Arm$GT$$GT$17ha6d87cf8cb2f8625E', symObjAddr: 0x58D0, symBinAddr: 0xAAF40, symSize: 0xD0 }
  - { offsetInCU: 0x17879, offset: 0x2A498F, size: 0x8, addend: 0x0, symName: '__ZN4core3ptr59drop_in_place$LT$alloc..boxed..Box$LT$syn..pat..Pat$GT$$GT$17h04b5a49dc338bf9cE', symObjAddr: 0x59A0, symBinAddr: 0xAB010, symSize: 0x50 }
  - { offsetInCU: 0x179D2, offset: 0x2A4AE8, size: 0x8, addend: 0x0, symName: '__ZN4core3ptr59drop_in_place$LT$alloc..boxed..Box$LT$syn..ty..Type$GT$$GT$17hfb8a09f23f7902beE', symObjAddr: 0x59F0, symBinAddr: 0xAB060, symSize: 0x50 }
  - { offsetInCU: 0x17B2B, offset: 0x2A4C41, size: 0x8, addend: 0x0, symName: '__ZN4core3ptr61drop_in_place$LT$alloc..boxed..Box$LT$syn..expr..Expr$GT$$GT$17hfe67d291b01d4939E', symObjAddr: 0x5A40, symBinAddr: 0xAB0B0, symSize: 0x50 }
  - { offsetInCU: 0x17D00, offset: 0x2A4E16, size: 0x8, addend: 0x0, symName: '__ZN4core3ptr61drop_in_place$LT$syn..path..ParenthesizedGenericArguments$GT$17hc6164008a0f156caE', symObjAddr: 0x5A90, symBinAddr: 0xAB100, symSize: 0x170 }
  - { offsetInCU: 0x182F6, offset: 0x2A540C, size: 0x8, addend: 0x0, symName: '__ZN4core3ptr62drop_in_place$LT$syn..path..AngleBracketedGenericArguments$GT$17h0299086782c6da12E', symObjAddr: 0x5C00, symBinAddr: 0xAB270, symSize: 0x120 }
  - { offsetInCU: 0x18741, offset: 0x2A5857, size: 0x8, addend: 0x0, symName: '__ZN4core3ptr63drop_in_place$LT$alloc..boxed..Box$LT$syn..lit..LitRepr$GT$$GT$17hf2595df28a7ce13bE.llvm.3783291081734715666', symObjAddr: 0x5D20, symBinAddr: 0xAB390, symSize: 0x60 }
  - { offsetInCU: 0x18A48, offset: 0x2A5B5E, size: 0x8, addend: 0x0, symName: '__ZN4core3ptr64drop_in_place$LT$alloc..boxed..Box$LT$syn..pat..FieldPat$GT$$GT$17hb9cdd4a04c64745aE', symObjAddr: 0x5D80, symBinAddr: 0xAB3F0, symSize: 0x140 }
  - { offsetInCU: 0x19115, offset: 0x2A622B, size: 0x8, addend: 0x0, symName: '__ZN4core3ptr64drop_in_place$LT$alloc..boxed..Box$LT$syn..ty..BareFnArg$GT$$GT$17hdf9a99e9a3e43b93E', symObjAddr: 0x5EC0, symBinAddr: 0xAB530, symSize: 0x140 }
  - { offsetInCU: 0x1966A, offset: 0x2A6780, size: 0x8, addend: 0x0, symName: '__ZN4core3ptr65drop_in_place$LT$alloc..vec..Vec$LT$proc_macro..TokenTree$GT$$GT$17h07ad17327f0607d0E.llvm.3783291081734715666', symObjAddr: 0x6000, symBinAddr: 0xAB670, symSize: 0x110 }
  - { offsetInCU: 0x19A62, offset: 0x2A6B78, size: 0x8, addend: 0x0, symName: '__ZN4core3ptr65drop_in_place$LT$core..option..Option$LT$syn..expr..Label$GT$$GT$17h7370f4cd7d051021E', symObjAddr: 0x6110, symBinAddr: 0xAB780, symSize: 0x30 }
  - { offsetInCU: 0x19B9C, offset: 0x2A6CB2, size: 0x8, addend: 0x0, symName: '__ZN4core3ptr66drop_in_place$LT$core..option..Option$LT$syn..pat..PatRest$GT$$GT$17h56243b82155d1306E', symObjAddr: 0x6140, symBinAddr: 0xAB7B0, symSize: 0xE0 }
  - { offsetInCU: 0x19E90, offset: 0x2A6FA6, size: 0x8, addend: 0x0, symName: '__ZN4core3ptr67drop_in_place$LT$alloc..boxed..Box$LT$syn..expr..FieldValue$GT$$GT$17hdb569e1e168cfcafE', symObjAddr: 0x6220, symBinAddr: 0xAB890, symSize: 0x140 }
  - { offsetInCU: 0x1A3C5, offset: 0x2A74DB, size: 0x8, addend: 0x0, symName: '__ZN4core3ptr68drop_in_place$LT$alloc..boxed..Box$LT$syn..path..PathSegment$GT$$GT$17h8bc236a2626e080dE', symObjAddr: 0x6360, symBinAddr: 0xAB9D0, symSize: 0x1B0 }
  - { offsetInCU: 0x1AAD3, offset: 0x2A7BE9, size: 0x8, addend: 0x0, symName: '__ZN4core3ptr70drop_in_place$LT$core..option..Option$LT$syn..ty..BareVariadic$GT$$GT$17h891315fdf14c9598E', symObjAddr: 0x6510, symBinAddr: 0xABB80, symSize: 0x100 }
  - { offsetInCU: 0x1AF0A, offset: 0x2A8020, size: 0x8, addend: 0x0, symName: '__ZN4core3ptr72drop_in_place$LT$alloc..boxed..Box$LT$syn..path..GenericArgument$GT$$GT$17ha22f3de00ed22d7dE', symObjAddr: 0x6610, symBinAddr: 0xABC80, symSize: 0x1D0 }
  - { offsetInCU: 0x1B4A5, offset: 0x2A85BB, size: 0x8, addend: 0x0, symName: '__ZN4core3ptr72drop_in_place$LT$core..option..Option$LT$syn..lifetime..Lifetime$GT$$GT$17h738a5902efee9f55E', symObjAddr: 0x67E0, symBinAddr: 0xABE50, symSize: 0x30 }
  - { offsetInCU: 0x1B5C0, offset: 0x2A86D6, size: 0x8, addend: 0x0, symName: '__ZN4core3ptr73drop_in_place$LT$alloc..boxed..Box$LT$syn..generics..GenericParam$GT$$GT$17h4a82c3bd6b9e6f81E', symObjAddr: 0x6810, symBinAddr: 0xABE80, symSize: 0x80 }
  - { offsetInCU: 0x1B736, offset: 0x2A884C, size: 0x8, addend: 0x0, symName: '__ZN4core3ptr75drop_in_place$LT$alloc..boxed..Box$LT$syn..generics..TypeParamBound$GT$$GT$17h47c0b9686bcdda20E', symObjAddr: 0x6890, symBinAddr: 0xABF00, symSize: 0xC0 }
  - { offsetInCU: 0x1BA8A, offset: 0x2A8BA0, size: 0x8, addend: 0x0, symName: '__ZN4core3ptr86drop_in_place$LT$syn..punctuated..Punctuated$LT$syn..pat..Pat$C$syn..token..Or$GT$$GT$17h028803b51a0e008cE', symObjAddr: 0x6950, symBinAddr: 0xABFC0, symSize: 0x120 }
  - { offsetInCU: 0x1BF05, offset: 0x2A901B, size: 0x8, addend: 0x0, symName: '__ZN4core3ptr87drop_in_place$LT$core..option..Option$LT$alloc..boxed..Box$LT$syn..pat..Pat$GT$$GT$$GT$17h47e4534cb825f5fbE', symObjAddr: 0x6A70, symBinAddr: 0xAC0E0, symSize: 0x50 }
  - { offsetInCU: 0x1C075, offset: 0x2A918B, size: 0x8, addend: 0x0, symName: '__ZN4core3ptr87drop_in_place$LT$core..option..Option$LT$alloc..boxed..Box$LT$syn..ty..Type$GT$$GT$$GT$17hb21c4c429b95d768E', symObjAddr: 0x6AC0, symBinAddr: 0xAC130, symSize: 0x50 }
  - { offsetInCU: 0x1C1E5, offset: 0x2A92FB, size: 0x8, addend: 0x0, symName: '__ZN4core3ptr89drop_in_place$LT$core..option..Option$LT$alloc..boxed..Box$LT$syn..expr..Expr$GT$$GT$$GT$17h0b10c8a8945d61ceE', symObjAddr: 0x6B10, symBinAddr: 0xAC180, symSize: 0x50 }
  - { offsetInCU: 0x1C393, offset: 0x2A94A9, size: 0x8, addend: 0x0, symName: '__ZN4core3ptr89drop_in_place$LT$syn..punctuated..Punctuated$LT$syn..pat..Pat$C$syn..token..Comma$GT$$GT$17h0f70228e7daac378E', symObjAddr: 0x6B60, symBinAddr: 0xAC1D0, symSize: 0x120 }
  - { offsetInCU: 0x1C825, offset: 0x2A993B, size: 0x8, addend: 0x0, symName: '__ZN4core3ptr89drop_in_place$LT$syn..punctuated..Punctuated$LT$syn..ty..Type$C$syn..token..Comma$GT$$GT$17h0317a8a9919e8789E', symObjAddr: 0x6C80, symBinAddr: 0xAC2F0, symSize: 0x120 }
  - { offsetInCU: 0x1CCA0, offset: 0x2A9DB6, size: 0x8, addend: 0x0, symName: '__ZN4core3ptr90drop_in_place$LT$core..option..Option$LT$syn..path..AngleBracketedGenericArguments$GT$$GT$17h9646b437ffecef94E', symObjAddr: 0x6DA0, symBinAddr: 0xAC410, symSize: 0x130 }
  - { offsetInCU: 0x1D142, offset: 0x2AA258, size: 0x8, addend: 0x0, symName: '__ZN4core3ptr91drop_in_place$LT$syn..punctuated..Punctuated$LT$syn..expr..Expr$C$syn..token..Comma$GT$$GT$17hd3047ab334148524E', symObjAddr: 0x6ED0, symBinAddr: 0xAC540, symSize: 0x120 }
  - { offsetInCU: 0x1D5D0, offset: 0x2AA6E6, size: 0x8, addend: 0x0, symName: '__ZN4core3ptr94drop_in_place$LT$syn..punctuated..Punctuated$LT$syn..pat..FieldPat$C$syn..token..Comma$GT$$GT$17h7ace9efb18f43d12E', symObjAddr: 0x6FF0, symBinAddr: 0xAC660, symSize: 0xF0 }
  - { offsetInCU: 0x1D8CF, offset: 0x2AA9E5, size: 0x8, addend: 0x0, symName: '__ZN4core3ptr94drop_in_place$LT$syn..punctuated..Punctuated$LT$syn..ty..BareFnArg$C$syn..token..Comma$GT$$GT$17hb29c6edaabe01c76E', symObjAddr: 0x70E0, symBinAddr: 0xAC750, symSize: 0xF0 }
  - { offsetInCU: 0x1DBD0, offset: 0x2AACE6, size: 0x8, addend: 0x0, symName: '__ZN4core3ptr96drop_in_place$LT$core..option..Option$LT$alloc..boxed..Box$LT$syn..path..PathSegment$GT$$GT$$GT$17hd919256ec958e698E', symObjAddr: 0x71D0, symBinAddr: 0xAC840, symSize: 0xA0 }
  - { offsetInCU: 0x1DE4F, offset: 0x2AAF65, size: 0x8, addend: 0x0, symName: '__ZN4core3ptr97drop_in_place$LT$syn..punctuated..Punctuated$LT$syn..expr..FieldValue$C$syn..token..Comma$GT$$GT$17he241ea7a3c55d267E', symObjAddr: 0x7270, symBinAddr: 0xAC8E0, symSize: 0xF0 }
  - { offsetInCU: 0x1E14C, offset: 0x2AB262, size: 0x8, addend: 0x0, symName: '__ZN4core3ptr98drop_in_place$LT$alloc..vec..Vec$LT$$LP$syn..path..GenericArgument$C$syn..token..Comma$RP$$GT$$GT$17ha96f98c42a71b3f5E', symObjAddr: 0x7360, symBinAddr: 0xAC9D0, symSize: 0xD0 }
  - { offsetInCU: 0x1E48C, offset: 0x2AB5A2, size: 0x8, addend: 0x0, symName: '__ZN4core3ptr98drop_in_place$LT$syn..punctuated..Punctuated$LT$syn..lifetime..Lifetime$C$syn..token..Plus$GT$$GT$17hb8f4279048db7792E', symObjAddr: 0x7430, symBinAddr: 0xACAA0, symSize: 0xD0 }
  - { offsetInCU: 0x29E39, offset: 0x2B6F4F, size: 0x8, addend: 0x0, symName: __ZN12serde_derive9internals4ctxt4Ctxt16error_spanned_by17h00715c89b98740e2E, symObjAddr: 0x7500, symBinAddr: 0xACB70, symSize: 0x160 }
  - { offsetInCU: 0x2A4C6, offset: 0x2B75DC, size: 0x8, addend: 0x0, symName: __ZN12serde_derive9internals4ctxt4Ctxt16error_spanned_by17h118fef5a397bd025E, symObjAddr: 0x7660, symBinAddr: 0xACCD0, symSize: 0x120 }
  - { offsetInCU: 0x2AA4D, offset: 0x2B7B63, size: 0x8, addend: 0x0, symName: __ZN12serde_derive9internals4ctxt4Ctxt16error_spanned_by17h24f093c429127fbdE, symObjAddr: 0x7780, symBinAddr: 0xACDF0, symSize: 0x100 }
  - { offsetInCU: 0x2AFD4, offset: 0x2B80EA, size: 0x8, addend: 0x0, symName: __ZN12serde_derive9internals4ctxt4Ctxt16error_spanned_by17h2eaac7a5ec23d04aE, symObjAddr: 0x7880, symBinAddr: 0xACEF0, symSize: 0x120 }
  - { offsetInCU: 0x2B55B, offset: 0x2B8671, size: 0x8, addend: 0x0, symName: __ZN12serde_derive9internals4ctxt4Ctxt16error_spanned_by17h3a97bb105faeeb67E, symObjAddr: 0x79A0, symBinAddr: 0xAD010, symSize: 0x110 }
  - { offsetInCU: 0x2BA9E, offset: 0x2B8BB4, size: 0x8, addend: 0x0, symName: __ZN12serde_derive9internals4ctxt4Ctxt16error_spanned_by17h4d0f75f759891d21E, symObjAddr: 0x7AB0, symBinAddr: 0xAD120, symSize: 0x120 }
  - { offsetInCU: 0x2C025, offset: 0x2B913B, size: 0x8, addend: 0x0, symName: __ZN12serde_derive9internals4ctxt4Ctxt16error_spanned_by17h5d5cf2da98a9c84aE, symObjAddr: 0x7BD0, symBinAddr: 0xAD240, symSize: 0x120 }
  - { offsetInCU: 0x2C5AC, offset: 0x2B96C2, size: 0x8, addend: 0x0, symName: __ZN12serde_derive9internals4ctxt4Ctxt16error_spanned_by17h65779d5cbc176c7aE, symObjAddr: 0x7CF0, symBinAddr: 0xAD360, symSize: 0x120 }
  - { offsetInCU: 0x2CB33, offset: 0x2B9C49, size: 0x8, addend: 0x0, symName: __ZN12serde_derive9internals4ctxt4Ctxt16error_spanned_by17h69d5fc36dc90fe2bE, symObjAddr: 0x7E10, symBinAddr: 0xAD480, symSize: 0x110 }
  - { offsetInCU: 0x2D076, offset: 0x2BA18C, size: 0x8, addend: 0x0, symName: __ZN12serde_derive9internals4ctxt4Ctxt16error_spanned_by17h6b16ad221ab60f34E, symObjAddr: 0x7F20, symBinAddr: 0xAD590, symSize: 0x1C0 }
  - { offsetInCU: 0x2D6EA, offset: 0x2BA800, size: 0x8, addend: 0x0, symName: __ZN12serde_derive9internals4ctxt4Ctxt16error_spanned_by17h6fea21eb9ff9fa9aE, symObjAddr: 0x80E0, symBinAddr: 0xAD750, symSize: 0x120 }
  - { offsetInCU: 0x2DC71, offset: 0x2BAD87, size: 0x8, addend: 0x0, symName: __ZN12serde_derive9internals4ctxt4Ctxt16error_spanned_by17h8411313303b860cdE, symObjAddr: 0x8200, symBinAddr: 0xAD870, symSize: 0x120 }
  - { offsetInCU: 0x2E1F8, offset: 0x2BB30E, size: 0x8, addend: 0x0, symName: __ZN12serde_derive9internals4ctxt4Ctxt16error_spanned_by17h894f09942a83ccb1E, symObjAddr: 0x8320, symBinAddr: 0xAD990, symSize: 0x160 }
  - { offsetInCU: 0x2E885, offset: 0x2BB99B, size: 0x8, addend: 0x0, symName: __ZN12serde_derive9internals4ctxt4Ctxt16error_spanned_by17ha3af56ae1f7a5ab9E, symObjAddr: 0x8480, symBinAddr: 0xADAF0, symSize: 0x160 }
  - { offsetInCU: 0x2EF12, offset: 0x2BC028, size: 0x8, addend: 0x0, symName: __ZN12serde_derive9internals4ctxt4Ctxt16error_spanned_by17ha63f8c3c0ca2b747E, symObjAddr: 0x85E0, symBinAddr: 0xADC50, symSize: 0x140 }
  - { offsetInCU: 0x2F445, offset: 0x2BC55B, size: 0x8, addend: 0x0, symName: __ZN12serde_derive9internals4ctxt4Ctxt16error_spanned_by17haeedcbeb7727b4d1E, symObjAddr: 0x8720, symBinAddr: 0xADD90, symSize: 0x120 }
  - { offsetInCU: 0x2F9CC, offset: 0x2BCAE2, size: 0x8, addend: 0x0, symName: __ZN12serde_derive9internals4ctxt4Ctxt16error_spanned_by17hc55072288da98950E, symObjAddr: 0x8840, symBinAddr: 0xADEB0, symSize: 0x120 }
  - { offsetInCU: 0x2FF53, offset: 0x2BD069, size: 0x8, addend: 0x0, symName: __ZN12serde_derive9internals4ctxt4Ctxt16error_spanned_by17hca4abb9ed88f5f70E, symObjAddr: 0x8960, symBinAddr: 0xADFD0, symSize: 0x140 }
  - { offsetInCU: 0x305DB, offset: 0x2BD6F1, size: 0x8, addend: 0x0, symName: __ZN12serde_derive9internals4ctxt4Ctxt16error_spanned_by17hf58ae8d371bb6cfaE, symObjAddr: 0x8AA0, symBinAddr: 0xAE110, symSize: 0x160 }
  - { offsetInCU: 0x30C68, offset: 0x2BDD7E, size: 0x8, addend: 0x0, symName: __ZN12serde_derive9internals4ctxt4Ctxt16error_spanned_by17hf9ca56aeb9816df2E, symObjAddr: 0x8C00, symBinAddr: 0xAE270, symSize: 0x160 }
  - { offsetInCU: 0x312F5, offset: 0x2BE40B, size: 0x8, addend: 0x0, symName: __ZN12serde_derive9internals4ctxt4Ctxt9syn_error17he3eba513f0824d25E, symObjAddr: 0x8D60, symBinAddr: 0xAE3D0, symSize: 0xD0 }
  - { offsetInCU: 0x318BD, offset: 0x2BE9D3, size: 0x8, addend: 0x0, symName: __ZN12serde_derive9internals4ctxt4Ctxt5check17hb89e41a487c6f97bE, symObjAddr: 0x8E30, symBinAddr: 0xAE4A0, symSize: 0x370 }
  - { offsetInCU: 0x1B3A, offset: 0x2C3FF6, size: 0x8, addend: 0x0, symName: '__ZN4core3ptr100drop_in_place$LT$core..option..Option$LT$alloc..boxed..Box$LT$syn..path..GenericArgument$GT$$GT$$GT$17h3c47f80d40da4ae4E.llvm.9430313480585942049', symObjAddr: 0x140, symBinAddr: 0xAE810, symSize: 0x50 }
  - { offsetInCU: 0x1ED8, offset: 0x2C4394, size: 0x8, addend: 0x0, symName: '__ZN4core3ptr100drop_in_place$LT$syn..punctuated..Punctuated$LT$syn..path..PathSegment$C$syn..token..PathSep$GT$$GT$17hd34064dc93b0b427E', symObjAddr: 0x190, symBinAddr: 0xAE860, symSize: 0x270 }
  - { offsetInCU: 0x287B, offset: 0x2C4D37, size: 0x8, addend: 0x0, symName: '__ZN4core3ptr103drop_in_place$LT$core..option..Option$LT$alloc..boxed..Box$LT$syn..generics..TypeParamBound$GT$$GT$$GT$17hb98e913f9a9fba75E', symObjAddr: 0x400, symBinAddr: 0xAEAD0, symSize: 0x50 }
  - { offsetInCU: 0x2A86, offset: 0x2C4F42, size: 0x8, addend: 0x0, symName: '__ZN4core3ptr103drop_in_place$LT$syn..punctuated..Punctuated$LT$syn..generics..GenericParam$C$syn..token..Comma$GT$$GT$17h706e4b03aaf6cee1E.llvm.9430313480585942049', symObjAddr: 0x450, symBinAddr: 0xAEB20, symSize: 0xF0 }
  - { offsetInCU: 0x2FA0, offset: 0x2C545C, size: 0x8, addend: 0x0, symName: '__ZN4core3ptr104drop_in_place$LT$syn..punctuated..Punctuated$LT$syn..generics..TypeParamBound$C$syn..token..Plus$GT$$GT$17h913c045198e2e1fdE.llvm.9430313480585942049', symObjAddr: 0x540, symBinAddr: 0xAEC10, symSize: 0x240 }
  - { offsetInCU: 0x38D7, offset: 0x2C5D93, size: 0x8, addend: 0x0, symName: '__ZN4core3ptr34drop_in_place$LT$syn..lit..Lit$GT$17hab99994a68996a3fE', symObjAddr: 0x780, symBinAddr: 0xAEE50, symSize: 0x120 }
  - { offsetInCU: 0x3DA6, offset: 0x2C6262, size: 0x8, addend: 0x0, symName: '__ZN4core3ptr34drop_in_place$LT$syn..pat..Pat$GT$17h7d887fadf2c3cc6bE', symObjAddr: 0x8A0, symBinAddr: 0xAEF70, symSize: 0x1090 }
  - { offsetInCU: 0x7DA6, offset: 0x2CA262, size: 0x8, addend: 0x0, symName: '__ZN4core3ptr34drop_in_place$LT$syn..ty..Type$GT$17h11a872b3c8e5eef5E.llvm.9430313480585942049', symObjAddr: 0x1930, symBinAddr: 0xB0000, symSize: 0x4F0 }
  - { offsetInCU: 0x92E9, offset: 0x2CB7A5, size: 0x8, addend: 0x0, symName: '__ZN4core3ptr36drop_in_place$LT$syn..expr..Expr$GT$17h62bf30adc41c0fafE.llvm.9430313480585942049', symObjAddr: 0x1E20, symBinAddr: 0xB04F0, symSize: 0x27D0 }
  - { offsetInCU: 0x12A1D, offset: 0x2D4ED9, size: 0x8, addend: 0x0, symName: '__ZN4core3ptr36drop_in_place$LT$syn..mac..Macro$GT$17ha18d10f1233dedcaE', symObjAddr: 0x45F0, symBinAddr: 0xB2CC0, symSize: 0x40 }
  - { offsetInCU: 0x12A57, offset: 0x2D4F13, size: 0x8, addend: 0x0, symName: '__ZN4core3ptr36drop_in_place$LT$syn..path..Path$GT$17hcca6c7d030660616E.llvm.9430313480585942049', symObjAddr: 0x4630, symBinAddr: 0xB2D00, symSize: 0x120 }
  - { offsetInCU: 0x12EA0, offset: 0x2D535C, size: 0x8, addend: 0x0, symName: '__ZN4core3ptr37drop_in_place$LT$syn..stmt..Block$GT$17haed62ed48b69364dE', symObjAddr: 0x4750, symBinAddr: 0xB2E20, symSize: 0xD0 }
  - { offsetInCU: 0x131B5, offset: 0x2D5671, size: 0x8, addend: 0x0, symName: '__ZN4core3ptr38drop_in_place$LT$syn..expr..Member$GT$17h594f47e3350a2be5E', symObjAddr: 0x48B0, symBinAddr: 0xB2EF0, symSize: 0x30 }
  - { offsetInCU: 0x132B1, offset: 0x2D576D, size: 0x8, addend: 0x0, symName: '__ZN4core3ptr39drop_in_place$LT$proc_macro2..Ident$GT$17h007be8bd6a71491bE.llvm.9430313480585942049', symObjAddr: 0x48E0, symBinAddr: 0xB2F20, symSize: 0x30 }
  - { offsetInCU: 0x1338E, offset: 0x2D584A, size: 0x8, addend: 0x0, symName: '__ZN4core3ptr40drop_in_place$LT$syn..ty..ReturnType$GT$17h14f04ba862eb52f4E', symObjAddr: 0x4910, symBinAddr: 0xB2F50, symSize: 0x50 }
  - { offsetInCU: 0x134FE, offset: 0x2D59BA, size: 0x8, addend: 0x0, symName: '__ZN4core3ptr41drop_in_place$LT$syn..expr..ExprConst$GT$17h011fcb0f1d3d0fbcE', symObjAddr: 0x4960, symBinAddr: 0xB2FA0, symSize: 0x180 }
  - { offsetInCU: 0x13BED, offset: 0x2D60A9, size: 0x8, addend: 0x0, symName: '__ZN4core3ptr43drop_in_place$LT$proc_macro2..TokenTree$GT$17hfc5c5bf9a9e0ef9cE.llvm.9430313480585942049', symObjAddr: 0x4B00, symBinAddr: 0xB3120, symSize: 0xB0 }
  - { offsetInCU: 0x13F48, offset: 0x2D6404, size: 0x8, addend: 0x0, symName: '__ZN4core3ptr43drop_in_place$LT$syn..path..PathSegment$GT$17hf093a51a249c2ab0E.llvm.9430313480585942049', symObjAddr: 0x4BB0, symBinAddr: 0xB31D0, symSize: 0x190 }
  - { offsetInCU: 0x144AC, offset: 0x2D6968, size: 0x8, addend: 0x0, symName: '__ZN4core3ptr44drop_in_place$LT$syn..lifetime..Lifetime$GT$17h81f5c412fc4e75a1E.llvm.9430313480585942049', symObjAddr: 0x4D40, symBinAddr: 0xB3360, symSize: 0x30 }
  - { offsetInCU: 0x14643, offset: 0x2D6AFF, size: 0x8, addend: 0x0, symName: '__ZN4core3ptr45drop_in_place$LT$proc_macro2..TokenStream$GT$17h725968a5788a0c43E.llvm.9430313480585942049', symObjAddr: 0x4D70, symBinAddr: 0xB3390, symSize: 0x140 }
  - { offsetInCU: 0x14ADD, offset: 0x2D6F99, size: 0x8, addend: 0x0, symName: '__ZN4core3ptr45drop_in_place$LT$syn..generics..TypeParam$GT$17h2ddacbd5ce28b514E.llvm.9430313480585942049', symObjAddr: 0x4EB0, symBinAddr: 0xB34D0, symSize: 0x230 }
  - { offsetInCU: 0x1531E, offset: 0x2D77DA, size: 0x8, addend: 0x0, symName: '__ZN4core3ptr46drop_in_place$LT$syn..generics..ConstParam$GT$17h847551b4d11dedb8E.llvm.9430313480585942049', symObjAddr: 0x50E0, symBinAddr: 0xB3700, symSize: 0x150 }
  - { offsetInCU: 0x1576B, offset: 0x2D7C27, size: 0x8, addend: 0x0, symName: '__ZN4core3ptr47drop_in_place$LT$syn..path..GenericArgument$GT$17ha0f8621278069bfaE.llvm.9430313480585942049', symObjAddr: 0x5230, symBinAddr: 0xB3850, symSize: 0x4A0 }
  - { offsetInCU: 0x16871, offset: 0x2D8D2D, size: 0x8, addend: 0x0, symName: '__ZN4core3ptr48drop_in_place$LT$syn..generics..GenericParam$GT$17hb7b691eed8b37306E.llvm.9430313480585942049', symObjAddr: 0x56D0, symBinAddr: 0xB3CF0, symSize: 0x40 }
  - { offsetInCU: 0x1688E, offset: 0x2D8D4A, size: 0x8, addend: 0x0, symName: '__ZN4core3ptr49drop_in_place$LT$syn..generics..LifetimeParam$GT$17hd8de96c71b63fc49E.llvm.9430313480585942049', symObjAddr: 0x5710, symBinAddr: 0xB3D30, symSize: 0xF0 }
  - { offsetInCU: 0x16C71, offset: 0x2D912D, size: 0x8, addend: 0x0, symName: '__ZN4core3ptr50drop_in_place$LT$syn..generics..TypeParamBound$GT$17hc0b3a8451b112484E.llvm.9430313480585942049', symObjAddr: 0x5800, symBinAddr: 0xB3E20, symSize: 0xA0 }
  - { offsetInCU: 0x16E15, offset: 0x2D92D1, size: 0x8, addend: 0x0, symName: '__ZN4core3ptr50drop_in_place$LT$syn..generics..WherePredicate$GT$17h88c4db20921026f6E.llvm.9430313480585942049', symObjAddr: 0x58A0, symBinAddr: 0xB3EC0, symSize: 0xA0 }
  - { offsetInCU: 0x16FB9, offset: 0x2D9475, size: 0x8, addend: 0x0, symName: '__ZN4core3ptr58drop_in_place$LT$alloc..vec..Vec$LT$syn..expr..Arm$GT$$GT$17ha6d87cf8cb2f8625E', symObjAddr: 0x5940, symBinAddr: 0xB3F60, symSize: 0xD0 }
  - { offsetInCU: 0x17279, offset: 0x2D9735, size: 0x8, addend: 0x0, symName: '__ZN4core3ptr59drop_in_place$LT$alloc..boxed..Box$LT$syn..pat..Pat$GT$$GT$17h04b5a49dc338bf9cE', symObjAddr: 0x5A10, symBinAddr: 0xB4030, symSize: 0x50 }
  - { offsetInCU: 0x173D2, offset: 0x2D988E, size: 0x8, addend: 0x0, symName: '__ZN4core3ptr59drop_in_place$LT$alloc..boxed..Box$LT$syn..ty..Type$GT$$GT$17hfb8a09f23f7902beE.llvm.9430313480585942049', symObjAddr: 0x5A60, symBinAddr: 0xB4080, symSize: 0x50 }
  - { offsetInCU: 0x1752B, offset: 0x2D99E7, size: 0x8, addend: 0x0, symName: '__ZN4core3ptr61drop_in_place$LT$alloc..boxed..Box$LT$syn..expr..Expr$GT$$GT$17hfe67d291b01d4939E', symObjAddr: 0x5AB0, symBinAddr: 0xB40D0, symSize: 0x50 }
  - { offsetInCU: 0x17700, offset: 0x2D9BBC, size: 0x8, addend: 0x0, symName: '__ZN4core3ptr61drop_in_place$LT$syn..path..ParenthesizedGenericArguments$GT$17hc6164008a0f156caE.llvm.9430313480585942049', symObjAddr: 0x5B00, symBinAddr: 0xB4120, symSize: 0x170 }
  - { offsetInCU: 0x17CF6, offset: 0x2DA1B2, size: 0x8, addend: 0x0, symName: '__ZN4core3ptr62drop_in_place$LT$syn..path..AngleBracketedGenericArguments$GT$17h0299086782c6da12E.llvm.9430313480585942049', symObjAddr: 0x5C70, symBinAddr: 0xB4290, symSize: 0x120 }
  - { offsetInCU: 0x18141, offset: 0x2DA5FD, size: 0x8, addend: 0x0, symName: '__ZN4core3ptr63drop_in_place$LT$alloc..boxed..Box$LT$syn..lit..LitRepr$GT$$GT$17hf2595df28a7ce13bE.llvm.9430313480585942049', symObjAddr: 0x5D90, symBinAddr: 0xB43B0, symSize: 0x60 }
  - { offsetInCU: 0x18448, offset: 0x2DA904, size: 0x8, addend: 0x0, symName: '__ZN4core3ptr64drop_in_place$LT$alloc..boxed..Box$LT$syn..pat..FieldPat$GT$$GT$17hb9cdd4a04c64745aE', symObjAddr: 0x5DF0, symBinAddr: 0xB4410, symSize: 0x140 }
  - { offsetInCU: 0x18B15, offset: 0x2DAFD1, size: 0x8, addend: 0x0, symName: '__ZN4core3ptr64drop_in_place$LT$alloc..boxed..Box$LT$syn..ty..BareFnArg$GT$$GT$17hdf9a99e9a3e43b93E', symObjAddr: 0x5F30, symBinAddr: 0xB4550, symSize: 0x140 }
  - { offsetInCU: 0x1906A, offset: 0x2DB526, size: 0x8, addend: 0x0, symName: '__ZN4core3ptr65drop_in_place$LT$alloc..vec..Vec$LT$proc_macro..TokenTree$GT$$GT$17h07ad17327f0607d0E.llvm.9430313480585942049', symObjAddr: 0x6070, symBinAddr: 0xB4690, symSize: 0x110 }
  - { offsetInCU: 0x19462, offset: 0x2DB91E, size: 0x8, addend: 0x0, symName: '__ZN4core3ptr65drop_in_place$LT$core..option..Option$LT$syn..expr..Label$GT$$GT$17h7370f4cd7d051021E', symObjAddr: 0x6180, symBinAddr: 0xB47A0, symSize: 0x30 }
  - { offsetInCU: 0x1959C, offset: 0x2DBA58, size: 0x8, addend: 0x0, symName: '__ZN4core3ptr66drop_in_place$LT$core..option..Option$LT$syn..pat..PatRest$GT$$GT$17h56243b82155d1306E', symObjAddr: 0x61B0, symBinAddr: 0xB47D0, symSize: 0xE0 }
  - { offsetInCU: 0x19890, offset: 0x2DBD4C, size: 0x8, addend: 0x0, symName: '__ZN4core3ptr67drop_in_place$LT$alloc..boxed..Box$LT$syn..expr..FieldValue$GT$$GT$17hdb569e1e168cfcafE', symObjAddr: 0x6290, symBinAddr: 0xB48B0, symSize: 0x140 }
  - { offsetInCU: 0x19DC5, offset: 0x2DC281, size: 0x8, addend: 0x0, symName: '__ZN4core3ptr68drop_in_place$LT$alloc..boxed..Box$LT$syn..path..PathSegment$GT$$GT$17h8bc236a2626e080dE', symObjAddr: 0x63D0, symBinAddr: 0xB49F0, symSize: 0x1B0 }
  - { offsetInCU: 0x1A4D3, offset: 0x2DC98F, size: 0x8, addend: 0x0, symName: '__ZN4core3ptr70drop_in_place$LT$core..option..Option$LT$syn..ty..BareVariadic$GT$$GT$17h891315fdf14c9598E', symObjAddr: 0x6580, symBinAddr: 0xB4BA0, symSize: 0x100 }
  - { offsetInCU: 0x1A90A, offset: 0x2DCDC6, size: 0x8, addend: 0x0, symName: '__ZN4core3ptr72drop_in_place$LT$alloc..boxed..Box$LT$syn..path..GenericArgument$GT$$GT$17ha22f3de00ed22d7dE', symObjAddr: 0x6680, symBinAddr: 0xB4CA0, symSize: 0x2B0 }
  - { offsetInCU: 0x1B2C2, offset: 0x2DD77E, size: 0x8, addend: 0x0, symName: '__ZN4core3ptr72drop_in_place$LT$core..option..Option$LT$syn..lifetime..Lifetime$GT$$GT$17h738a5902efee9f55E', symObjAddr: 0x6930, symBinAddr: 0xB4F50, symSize: 0x30 }
  - { offsetInCU: 0x1B3DD, offset: 0x2DD899, size: 0x8, addend: 0x0, symName: '__ZN4core3ptr73drop_in_place$LT$alloc..boxed..Box$LT$syn..generics..GenericParam$GT$$GT$17h4a82c3bd6b9e6f81E.llvm.9430313480585942049', symObjAddr: 0x6960, symBinAddr: 0xB4F80, symSize: 0x80 }
  - { offsetInCU: 0x1B553, offset: 0x2DDA0F, size: 0x8, addend: 0x0, symName: '__ZN4core3ptr75drop_in_place$LT$alloc..boxed..Box$LT$syn..generics..TypeParamBound$GT$$GT$17h47c0b9686bcdda20E', symObjAddr: 0x69E0, symBinAddr: 0xB5000, symSize: 0x180 }
  - { offsetInCU: 0x1BAE2, offset: 0x2DDF9E, size: 0x8, addend: 0x0, symName: '__ZN4core3ptr76drop_in_place$LT$$LP$syn..generics..GenericParam$C$syn..token..Comma$RP$$GT$17h664f4e19060031bfE.llvm.9430313480585942049', symObjAddr: 0x6B60, symBinAddr: 0xB5180, symSize: 0x40 }
  - { offsetInCU: 0x1BB7B, offset: 0x2DE037, size: 0x8, addend: 0x0, symName: '__ZN4core3ptr86drop_in_place$LT$syn..punctuated..Punctuated$LT$syn..pat..Pat$C$syn..token..Or$GT$$GT$17h028803b51a0e008cE', symObjAddr: 0x6BA0, symBinAddr: 0xB51C0, symSize: 0x120 }
  - { offsetInCU: 0x1BFF6, offset: 0x2DE4B2, size: 0x8, addend: 0x0, symName: '__ZN4core3ptr87drop_in_place$LT$core..option..Option$LT$alloc..boxed..Box$LT$syn..pat..Pat$GT$$GT$$GT$17h47e4534cb825f5fbE', symObjAddr: 0x6CC0, symBinAddr: 0xB52E0, symSize: 0x50 }
  - { offsetInCU: 0x1C166, offset: 0x2DE622, size: 0x8, addend: 0x0, symName: '__ZN4core3ptr87drop_in_place$LT$core..option..Option$LT$alloc..boxed..Box$LT$syn..ty..Type$GT$$GT$$GT$17hb21c4c429b95d768E.llvm.9430313480585942049', symObjAddr: 0x6D10, symBinAddr: 0xB5330, symSize: 0x50 }
  - { offsetInCU: 0x1C2D6, offset: 0x2DE792, size: 0x8, addend: 0x0, symName: '__ZN4core3ptr89drop_in_place$LT$core..option..Option$LT$alloc..boxed..Box$LT$syn..expr..Expr$GT$$GT$$GT$17h0b10c8a8945d61ceE', symObjAddr: 0x6D60, symBinAddr: 0xB5380, symSize: 0x50 }
  - { offsetInCU: 0x1C484, offset: 0x2DE940, size: 0x8, addend: 0x0, symName: '__ZN4core3ptr89drop_in_place$LT$syn..punctuated..Punctuated$LT$syn..pat..Pat$C$syn..token..Comma$GT$$GT$17h0f70228e7daac378E', symObjAddr: 0x6DB0, symBinAddr: 0xB53D0, symSize: 0x120 }
  - { offsetInCU: 0x1C916, offset: 0x2DEDD2, size: 0x8, addend: 0x0, symName: '__ZN4core3ptr89drop_in_place$LT$syn..punctuated..Punctuated$LT$syn..ty..Type$C$syn..token..Comma$GT$$GT$17h0317a8a9919e8789E', symObjAddr: 0x6ED0, symBinAddr: 0xB54F0, symSize: 0x120 }
  - { offsetInCU: 0x1CD91, offset: 0x2DF24D, size: 0x8, addend: 0x0, symName: '__ZN4core3ptr90drop_in_place$LT$core..option..Option$LT$syn..path..AngleBracketedGenericArguments$GT$$GT$17h9646b437ffecef94E', symObjAddr: 0x6FF0, symBinAddr: 0xB5610, symSize: 0x130 }
  - { offsetInCU: 0x1D233, offset: 0x2DF6EF, size: 0x8, addend: 0x0, symName: '__ZN4core3ptr91drop_in_place$LT$syn..punctuated..Punctuated$LT$syn..expr..Expr$C$syn..token..Comma$GT$$GT$17hd3047ab334148524E', symObjAddr: 0x7120, symBinAddr: 0xB5740, symSize: 0x120 }
  - { offsetInCU: 0x1D6C1, offset: 0x2DFB7D, size: 0x8, addend: 0x0, symName: '__ZN4core3ptr94drop_in_place$LT$syn..punctuated..Punctuated$LT$syn..pat..FieldPat$C$syn..token..Comma$GT$$GT$17h7ace9efb18f43d12E', symObjAddr: 0x7240, symBinAddr: 0xB5860, symSize: 0xF0 }
  - { offsetInCU: 0x1D9C0, offset: 0x2DFE7C, size: 0x8, addend: 0x0, symName: '__ZN4core3ptr94drop_in_place$LT$syn..punctuated..Punctuated$LT$syn..ty..BareFnArg$C$syn..token..Comma$GT$$GT$17hb29c6edaabe01c76E', symObjAddr: 0x7330, symBinAddr: 0xB5950, symSize: 0xF0 }
  - { offsetInCU: 0x1DCC1, offset: 0x2E017D, size: 0x8, addend: 0x0, symName: '__ZN4core3ptr96drop_in_place$LT$core..option..Option$LT$alloc..boxed..Box$LT$syn..path..PathSegment$GT$$GT$$GT$17hd919256ec958e698E.llvm.9430313480585942049', symObjAddr: 0x7420, symBinAddr: 0xB5A40, symSize: 0xA0 }
  - { offsetInCU: 0x1DF5F, offset: 0x2E041B, size: 0x8, addend: 0x0, symName: '__ZN4core3ptr97drop_in_place$LT$syn..punctuated..Punctuated$LT$syn..expr..FieldValue$C$syn..token..Comma$GT$$GT$17he241ea7a3c55d267E', symObjAddr: 0x7510, symBinAddr: 0xB5AE0, symSize: 0xF0 }
  - { offsetInCU: 0x1E25C, offset: 0x2E0718, size: 0x8, addend: 0x0, symName: '__ZN4core3ptr98drop_in_place$LT$alloc..vec..Vec$LT$$LP$syn..path..GenericArgument$C$syn..token..Comma$RP$$GT$$GT$17ha96f98c42a71b3f5E', symObjAddr: 0x7600, symBinAddr: 0xB5BD0, symSize: 0xD0 }
  - { offsetInCU: 0x1E57D, offset: 0x2E0A39, size: 0x8, addend: 0x0, symName: '__ZN4core3ptr98drop_in_place$LT$syn..punctuated..Punctuated$LT$syn..lifetime..Lifetime$C$syn..token..Plus$GT$$GT$17hb8f4279048db7792E.llvm.9430313480585942049', symObjAddr: 0x76D0, symBinAddr: 0xB5CA0, symSize: 0xD0 }
  - { offsetInCU: 0x272EC, offset: 0x2E97A8, size: 0x8, addend: 0x0, symName: '__ZN86_$LT$alloc..vec..into_iter..IntoIter$LT$T$C$A$GT$$u20$as$u20$core..ops..drop..Drop$GT$4drop17h0875f19263d6c3d9E', symObjAddr: 0x77A0, symBinAddr: 0xB5D70, symSize: 0xE0 }
  - { offsetInCU: 0x27656, offset: 0x2E9B12, size: 0x8, addend: 0x0, symName: '__ZN86_$LT$alloc..vec..into_iter..IntoIter$LT$T$C$A$GT$$u20$as$u20$core..ops..drop..Drop$GT$4drop17h12305c0280b932ffE', symObjAddr: 0x7880, symBinAddr: 0xB5E50, symSize: 0xE0 }
  - { offsetInCU: 0x279C0, offset: 0x2E9E7C, size: 0x8, addend: 0x0, symName: '__ZN86_$LT$alloc..vec..into_iter..IntoIter$LT$T$C$A$GT$$u20$as$u20$core..ops..drop..Drop$GT$4drop17h469f77d2b27377caE', symObjAddr: 0x7960, symBinAddr: 0xB5F30, symSize: 0x120 }
  - { offsetInCU: 0x27DBD, offset: 0x2EA279, size: 0x8, addend: 0x0, symName: '__ZN86_$LT$alloc..vec..into_iter..IntoIter$LT$T$C$A$GT$$u20$as$u20$core..ops..drop..Drop$GT$4drop17h4e9f87534f2bd8edE', symObjAddr: 0x7A80, symBinAddr: 0xB6050, symSize: 0xA0 }
  - { offsetInCU: 0x280C1, offset: 0x2EA57D, size: 0x8, addend: 0x0, symName: '__ZN86_$LT$alloc..vec..into_iter..IntoIter$LT$T$C$A$GT$$u20$as$u20$core..ops..drop..Drop$GT$4drop17h5d3a3a91f0751e91E', symObjAddr: 0x7B50, symBinAddr: 0xB60F0, symSize: 0x110 }
  - { offsetInCU: 0x284B7, offset: 0x2EA973, size: 0x8, addend: 0x0, symName: '__ZN86_$LT$alloc..vec..into_iter..IntoIter$LT$T$C$A$GT$$u20$as$u20$core..ops..drop..Drop$GT$4drop17h6436f653419c6b36E', symObjAddr: 0x7C60, symBinAddr: 0xB6200, symSize: 0xF0 }
  - { offsetInCU: 0x28824, offset: 0x2EACE0, size: 0x8, addend: 0x0, symName: '__ZN86_$LT$alloc..vec..into_iter..IntoIter$LT$T$C$A$GT$$u20$as$u20$core..ops..drop..Drop$GT$4drop17h7cac6a64e2604bc6E', symObjAddr: 0x7D50, symBinAddr: 0xB62F0, symSize: 0xC0 }
  - { offsetInCU: 0x28CAE, offset: 0x2EB16A, size: 0x8, addend: 0x0, symName: '__ZN86_$LT$alloc..vec..into_iter..IntoIter$LT$T$C$A$GT$$u20$as$u20$core..ops..drop..Drop$GT$4drop17h94183277761c2bc6E', symObjAddr: 0x7E10, symBinAddr: 0xB63B0, symSize: 0xD0 }
  - { offsetInCU: 0x29018, offset: 0x2EB4D4, size: 0x8, addend: 0x0, symName: '__ZN86_$LT$alloc..vec..into_iter..IntoIter$LT$T$C$A$GT$$u20$as$u20$core..ops..drop..Drop$GT$4drop17h9bce7a4e59184ccdE', symObjAddr: 0x7EE0, symBinAddr: 0xB6480, symSize: 0x120 }
  - { offsetInCU: 0x29395, offset: 0x2EB851, size: 0x8, addend: 0x0, symName: '__ZN86_$LT$alloc..vec..into_iter..IntoIter$LT$T$C$A$GT$$u20$as$u20$core..ops..drop..Drop$GT$4drop17hbfcd2d274c7af150E', symObjAddr: 0x8000, symBinAddr: 0xB65A0, symSize: 0x120 }
  - { offsetInCU: 0x296FB, offset: 0x2EBBB7, size: 0x8, addend: 0x0, symName: '__ZN86_$LT$alloc..vec..into_iter..IntoIter$LT$T$C$A$GT$$u20$as$u20$core..ops..drop..Drop$GT$4drop17hd4e3fb668f45e7f2E', symObjAddr: 0x8120, symBinAddr: 0xB66C0, symSize: 0xF0 }
  - { offsetInCU: 0x29AA0, offset: 0x2EBF5C, size: 0x8, addend: 0x0, symName: '__ZN86_$LT$alloc..vec..into_iter..IntoIter$LT$T$C$A$GT$$u20$as$u20$core..ops..drop..Drop$GT$4drop17hfd11aa7cf9a82c66E', symObjAddr: 0x8210, symBinAddr: 0xB67B0, symSize: 0xE1 }
  - { offsetInCU: 0x1E, offset: 0x2F214E, size: 0x8, addend: 0x0, symName: '__ZN102_$LT$core..iter..adapters..map..Map$LT$I$C$F$GT$$u20$as$u20$core..iter..traits..iterator..Iterator$GT$4fold17h1163f347fffbc6daE', symObjAddr: 0x0, symBinAddr: 0xB68A0, symSize: 0xF0 }
  - { offsetInCU: 0x25A1, offset: 0x2F46D1, size: 0x8, addend: 0x0, symName: '__ZN4core3ptr45drop_in_place$LT$proc_macro2..TokenStream$GT$17h725968a5788a0c43E', symObjAddr: 0x14A0, symBinAddr: 0xB73C0, symSize: 0x140 }
  - { offsetInCU: 0x29FD, offset: 0x2F4B2D, size: 0x8, addend: 0x0, symName: '__ZN4core3ptr46drop_in_place$LT$syn..generics..TypeParams$GT$17hafe4733b2a960c9dE.llvm.5848716074493314428', symObjAddr: 0x15E0, symBinAddr: 0xB7500, symSize: 0x30 }
  - { offsetInCU: 0x2B38, offset: 0x2F4C68, size: 0x8, addend: 0x0, symName: '__ZN4core3ptr56drop_in_place$LT$proc_macro2..token_stream..IntoIter$GT$17h2dd5a9e54669e645E.llvm.5848716074493314428', symObjAddr: 0x1610, symBinAddr: 0xB7530, symSize: 0x20 }
  - { offsetInCU: 0x2BE8, offset: 0x2F4D18, size: 0x8, addend: 0x0, symName: '__ZN4core3ptr65drop_in_place$LT$alloc..vec..Vec$LT$proc_macro..TokenTree$GT$$GT$17h07ad17327f0607d0E', symObjAddr: 0x1630, symBinAddr: 0xB7550, symSize: 0x110 }
  - { offsetInCU: 0x30F7, offset: 0x2F5227, size: 0x8, addend: 0x0, symName: '__ZN4core3ptr71drop_in_place$LT$core..option..Option$LT$proc_macro2..TokenTree$GT$$GT$17hc44032a5ad7baa66E.llvm.5848716074493314428', symObjAddr: 0x1740, symBinAddr: 0xB7660, symSize: 0xC0 }
  - { offsetInCU: 0x5BAE, offset: 0x2F7CDE, size: 0x8, addend: 0x0, symName: '__ZN102_$LT$core..iter..adapters..map..Map$LT$I$C$F$GT$$u20$as$u20$core..iter..traits..iterator..Iterator$GT$4fold17h1163f347fffbc6daE', symObjAddr: 0x0, symBinAddr: 0xB68A0, symSize: 0xF0 }
  - { offsetInCU: 0x5E9D, offset: 0x2F7FCD, size: 0x8, addend: 0x0, symName: '__ZN102_$LT$core..iter..adapters..map..Map$LT$I$C$F$GT$$u20$as$u20$core..iter..traits..iterator..Iterator$GT$4fold17h130103e26b77336eE', symObjAddr: 0x200, symBinAddr: 0xB6990, symSize: 0x100 }
  - { offsetInCU: 0x6044, offset: 0x2F8174, size: 0x8, addend: 0x0, symName: '__ZN102_$LT$core..iter..adapters..map..Map$LT$I$C$F$GT$$u20$as$u20$core..iter..traits..iterator..Iterator$GT$4fold17h27cbec5a0f31c0baE', symObjAddr: 0x300, symBinAddr: 0xB6A90, symSize: 0x190 }
  - { offsetInCU: 0x6604, offset: 0x2F8734, size: 0x8, addend: 0x0, symName: '__ZN102_$LT$core..iter..adapters..map..Map$LT$I$C$F$GT$$u20$as$u20$core..iter..traits..iterator..Iterator$GT$4fold17ha516c4726084bac9E', symObjAddr: 0xA50, symBinAddr: 0xB6C20, symSize: 0x170 }
  - { offsetInCU: 0x6BF4, offset: 0x2F8D24, size: 0x8, addend: 0x0, symName: '__ZN102_$LT$core..iter..adapters..map..Map$LT$I$C$F$GT$$u20$as$u20$core..iter..traits..iterator..Iterator$GT$4fold17hdf391f758b93864fE', symObjAddr: 0xDE0, symBinAddr: 0xB6D90, symSize: 0x290 }
  - { offsetInCU: 0x7505, offset: 0x2F9635, size: 0x8, addend: 0x0, symName: '__ZN102_$LT$core..iter..adapters..map..Map$LT$I$C$F$GT$$u20$as$u20$core..iter..traits..iterator..Iterator$GT$4fold17hec7d50beb4edec8dE', symObjAddr: 0x1070, symBinAddr: 0xB7020, symSize: 0x110 }
  - { offsetInCU: 0x7707, offset: 0x2F9837, size: 0x8, addend: 0x0, symName: '__ZN102_$LT$core..iter..adapters..map..Map$LT$I$C$F$GT$$u20$as$u20$core..iter..traits..iterator..Iterator$GT$8try_fold17h982777a462d6747fE', symObjAddr: 0x1180, symBinAddr: 0xB7130, symSize: 0x290 }
  - { offsetInCU: 0x1E, offset: 0x3037AB, size: 0x8, addend: 0x0, symName: '__ZN4core3ptr181drop_in_place$LT$hashbrown..scopeguard..ScopeGuard$LT$$RF$mut$u20$hashbrown..raw..RawTableInner$C$hashbrown..raw..RawTableInner..rehash_in_place..$u7b$$u7b$closure$u7d$$u7d$$GT$$GT$17hef7fc0add14d70adE', symObjAddr: 0x0, symBinAddr: 0xB7720, symSize: 0xC0 }
  - { offsetInCU: 0xA09, offset: 0x304196, size: 0x8, addend: 0x0, symName: '__ZN79_$LT$hashbrown..raw..RawTable$LT$T$C$A$GT$$u20$as$u20$core..ops..drop..Drop$GT$4drop17h7a2cf9178614039bE', symObjAddr: 0x130, symBinAddr: 0xB7850, symSize: 0x120 }
  - { offsetInCU: 0x1CBF, offset: 0x30544C, size: 0x8, addend: 0x0, symName: '__ZN4core3ptr181drop_in_place$LT$hashbrown..scopeguard..ScopeGuard$LT$$RF$mut$u20$hashbrown..raw..RawTableInner$C$hashbrown..raw..RawTableInner..rehash_in_place..$u7b$$u7b$closure$u7d$$u7d$$GT$$GT$17hef7fc0add14d70adE', symObjAddr: 0x0, symBinAddr: 0xB7720, symSize: 0xC0 }
  - { offsetInCU: 0x23B8, offset: 0x305B45, size: 0x8, addend: 0x0, symName: '__ZN4core3ptr196drop_in_place$LT$hashbrown..scopeguard..ScopeGuard$LT$hashbrown..raw..RawTableInner$C$hashbrown..raw..RawTableInner..prepare_resize$LT$alloc..alloc..Global$GT$..$u7b$$u7b$closure$u7d$$u7d$$GT$$GT$17hbf8865f5018c80c1E', symObjAddr: 0xC0, symBinAddr: 0xB77E0, symSize: 0x40 }
  - { offsetInCU: 0x26A7, offset: 0x305E34, size: 0x8, addend: 0x0, symName: '__ZN4core3ptr58drop_in_place$LT$$LP$proc_macro2..Ident$C$$LP$$RP$$RP$$GT$17h49bef7bea50550e0E', symObjAddr: 0x100, symBinAddr: 0xB7820, symSize: 0x30 }
  - { offsetInCU: 0x5B6A, offset: 0x3092F7, size: 0x8, addend: 0x0, symName: '__ZN9hashbrown3raw21RawTable$LT$T$C$A$GT$14reserve_rehash17hbd7efe9ec438b08aE.llvm.7117830958231966179', symObjAddr: 0x250, symBinAddr: 0x2B9750, symSize: 0x850 }
  - { offsetInCU: 0x1E, offset: 0x30B77B, size: 0x8, addend: 0x0, symName: '__ZN4core3ptr100drop_in_place$LT$core..option..Option$LT$alloc..boxed..Box$LT$syn..path..GenericArgument$GT$$GT$$GT$17h3c47f80d40da4ae4E', symObjAddr: 0x0, symBinAddr: 0xB7970, symSize: 0x50 }
  - { offsetInCU: 0x94A7, offset: 0x314C04, size: 0x8, addend: 0x0, symName: '__ZN4core3ptr100drop_in_place$LT$core..option..Option$LT$alloc..boxed..Box$LT$syn..path..GenericArgument$GT$$GT$$GT$17h3c47f80d40da4ae4E', symObjAddr: 0x0, symBinAddr: 0xB7970, symSize: 0x50 }
  - { offsetInCU: 0x9845, offset: 0x314FA2, size: 0x8, addend: 0x0, symName: '__ZN4core3ptr100drop_in_place$LT$syn..punctuated..Punctuated$LT$syn..path..PathSegment$C$syn..token..PathSep$GT$$GT$17hd34064dc93b0b427E', symObjAddr: 0x50, symBinAddr: 0xB79C0, symSize: 0x270 }
  - { offsetInCU: 0xA1E8, offset: 0x315945, size: 0x8, addend: 0x0, symName: '__ZN4core3ptr103drop_in_place$LT$core..option..Option$LT$alloc..boxed..Box$LT$syn..generics..TypeParamBound$GT$$GT$$GT$17hb98e913f9a9fba75E', symObjAddr: 0x2C0, symBinAddr: 0xB7C30, symSize: 0x50 }
  - { offsetInCU: 0xA3F3, offset: 0x315B50, size: 0x8, addend: 0x0, symName: '__ZN4core3ptr103drop_in_place$LT$syn..punctuated..Punctuated$LT$syn..generics..GenericParam$C$syn..token..Comma$GT$$GT$17h706e4b03aaf6cee1E', symObjAddr: 0x310, symBinAddr: 0xB7C80, symSize: 0xF0 }
  - { offsetInCU: 0xA8EE, offset: 0x31604B, size: 0x8, addend: 0x0, symName: '__ZN4core3ptr104drop_in_place$LT$syn..punctuated..Punctuated$LT$syn..generics..TypeParamBound$C$syn..token..Plus$GT$$GT$17h913c045198e2e1fdE', symObjAddr: 0x400, symBinAddr: 0xB7D70, symSize: 0x190 }
  - { offsetInCU: 0xAF8D, offset: 0x3166EA, size: 0x8, addend: 0x0, symName: '__ZN4core3ptr34drop_in_place$LT$syn..lit..Lit$GT$17hab99994a68996a3fE', symObjAddr: 0x590, symBinAddr: 0xB7F00, symSize: 0x120 }
  - { offsetInCU: 0xB47B, offset: 0x316BD8, size: 0x8, addend: 0x0, symName: '__ZN4core3ptr34drop_in_place$LT$syn..pat..Pat$GT$17h7d887fadf2c3cc6bE', symObjAddr: 0x6B0, symBinAddr: 0xB8020, symSize: 0x1070 }
  - { offsetInCU: 0xF3BB, offset: 0x31AB18, size: 0x8, addend: 0x0, symName: '__ZN4core3ptr34drop_in_place$LT$syn..ty..Type$GT$17h11a872b3c8e5eef5E', symObjAddr: 0x1720, symBinAddr: 0xB9090, symSize: 0x4F0 }
  - { offsetInCU: 0x108FE, offset: 0x31C05B, size: 0x8, addend: 0x0, symName: '__ZN4core3ptr36drop_in_place$LT$syn..expr..Expr$GT$17h62bf30adc41c0fafE', symObjAddr: 0x1C10, symBinAddr: 0xB9580, symSize: 0x2810 }
  - { offsetInCU: 0x1A228, offset: 0x325985, size: 0x8, addend: 0x0, symName: '__ZN4core3ptr36drop_in_place$LT$syn..mac..Macro$GT$17ha18d10f1233dedcaE', symObjAddr: 0x4420, symBinAddr: 0xBBD90, symSize: 0x40 }
  - { offsetInCU: 0x1A262, offset: 0x3259BF, size: 0x8, addend: 0x0, symName: '__ZN4core3ptr36drop_in_place$LT$syn..path..Path$GT$17hcca6c7d030660616E', symObjAddr: 0x4460, symBinAddr: 0xBBDD0, symSize: 0x240 }
  - { offsetInCU: 0x1ABFC, offset: 0x326359, size: 0x8, addend: 0x0, symName: '__ZN4core3ptr37drop_in_place$LT$syn..stmt..Block$GT$17haed62ed48b69364dE', symObjAddr: 0x46A0, symBinAddr: 0xBC010, symSize: 0xD0 }
  - { offsetInCU: 0x1AF11, offset: 0x32666E, size: 0x8, addend: 0x0, symName: '__ZN4core3ptr38drop_in_place$LT$syn..error..Error$GT$17h4794daeab7950c2fE', symObjAddr: 0x4770, symBinAddr: 0xBC0E0, symSize: 0x90 }
  - { offsetInCU: 0x1B1D2, offset: 0x32692F, size: 0x8, addend: 0x0, symName: '__ZN4core3ptr38drop_in_place$LT$syn..expr..Member$GT$17h594f47e3350a2be5E', symObjAddr: 0x4800, symBinAddr: 0xBC170, symSize: 0x30 }
  - { offsetInCU: 0x1B2CE, offset: 0x326A2B, size: 0x8, addend: 0x0, symName: '__ZN4core3ptr39drop_in_place$LT$proc_macro2..Ident$GT$17h007be8bd6a71491bE', symObjAddr: 0x4830, symBinAddr: 0xBC1A0, symSize: 0x30 }
  - { offsetInCU: 0x1B3AB, offset: 0x326B08, size: 0x8, addend: 0x0, symName: '__ZN4core3ptr40drop_in_place$LT$syn..ty..ReturnType$GT$17h14f04ba862eb52f4E', symObjAddr: 0x4860, symBinAddr: 0xBC1D0, symSize: 0x50 }
  - { offsetInCU: 0x1B51B, offset: 0x326C78, size: 0x8, addend: 0x0, symName: '__ZN4core3ptr41drop_in_place$LT$syn..expr..ExprConst$GT$17h011fcb0f1d3d0fbcE', symObjAddr: 0x48B0, symBinAddr: 0xBC220, symSize: 0x180 }
  - { offsetInCU: 0x1BAD4, offset: 0x327231, size: 0x8, addend: 0x0, symName: '__ZN4core3ptr44drop_in_place$LT$syn..lifetime..Lifetime$GT$17h81f5c412fc4e75a1E', symObjAddr: 0x4A30, symBinAddr: 0xBC3A0, symSize: 0x30 }
  - { offsetInCU: 0x1BD06, offset: 0x327463, size: 0x8, addend: 0x0, symName: '__ZN4core3ptr45drop_in_place$LT$proc_macro2..TokenStream$GT$17h725968a5788a0c43E', symObjAddr: 0x4A60, symBinAddr: 0xBC3D0, symSize: 0x140 }
  - { offsetInCU: 0x1C1A0, offset: 0x3278FD, size: 0x8, addend: 0x0, symName: '__ZN4core3ptr45drop_in_place$LT$syn..generics..TypeParam$GT$17h2ddacbd5ce28b514E', symObjAddr: 0x4BA0, symBinAddr: 0xBC510, symSize: 0x230 }
  - { offsetInCU: 0x1C9E1, offset: 0x32813E, size: 0x8, addend: 0x0, symName: '__ZN4core3ptr46drop_in_place$LT$syn..generics..ConstParam$GT$17h847551b4d11dedb8E', symObjAddr: 0x4DD0, symBinAddr: 0xBC740, symSize: 0x150 }
  - { offsetInCU: 0x1CE2E, offset: 0x32858B, size: 0x8, addend: 0x0, symName: '__ZN4core3ptr47drop_in_place$LT$syn..path..GenericArgument$GT$17ha0f8621278069bfaE', symObjAddr: 0x4F20, symBinAddr: 0xBC890, symSize: 0x4A0 }
  - { offsetInCU: 0x1DF34, offset: 0x329691, size: 0x8, addend: 0x0, symName: '__ZN4core3ptr49drop_in_place$LT$syn..generics..LifetimeParam$GT$17hd8de96c71b63fc49E', symObjAddr: 0x53C0, symBinAddr: 0xBCD30, symSize: 0xF0 }
  - { offsetInCU: 0x1E317, offset: 0x329A74, size: 0x8, addend: 0x0, symName: '__ZN4core3ptr50drop_in_place$LT$syn..generics..TypeParamBound$GT$17hc0b3a8451b112484E', symObjAddr: 0x54B0, symBinAddr: 0xBCE20, symSize: 0x180 }
  - { offsetInCU: 0x1E761, offset: 0x329EBE, size: 0x8, addend: 0x0, symName: '__ZN4core3ptr58drop_in_place$LT$alloc..vec..Vec$LT$syn..expr..Arm$GT$$GT$17ha6d87cf8cb2f8625E', symObjAddr: 0x5630, symBinAddr: 0xBCFA0, symSize: 0xD0 }
  - { offsetInCU: 0x1EA21, offset: 0x32A17E, size: 0x8, addend: 0x0, symName: '__ZN4core3ptr59drop_in_place$LT$alloc..boxed..Box$LT$syn..pat..Pat$GT$$GT$17h04b5a49dc338bf9cE', symObjAddr: 0x5700, symBinAddr: 0xBD070, symSize: 0x50 }
  - { offsetInCU: 0x1EB7A, offset: 0x32A2D7, size: 0x8, addend: 0x0, symName: '__ZN4core3ptr59drop_in_place$LT$alloc..boxed..Box$LT$syn..ty..Type$GT$$GT$17hfb8a09f23f7902beE', symObjAddr: 0x5750, symBinAddr: 0xBD0C0, symSize: 0x50 }
  - { offsetInCU: 0x1ECD3, offset: 0x32A430, size: 0x8, addend: 0x0, symName: '__ZN4core3ptr61drop_in_place$LT$alloc..boxed..Box$LT$syn..expr..Expr$GT$$GT$17hfe67d291b01d4939E', symObjAddr: 0x57A0, symBinAddr: 0xBD110, symSize: 0x50 }
  - { offsetInCU: 0x1EEA8, offset: 0x32A605, size: 0x8, addend: 0x0, symName: '__ZN4core3ptr61drop_in_place$LT$syn..path..ParenthesizedGenericArguments$GT$17hc6164008a0f156caE', symObjAddr: 0x57F0, symBinAddr: 0xBD160, symSize: 0x170 }
  - { offsetInCU: 0x1F49E, offset: 0x32ABFB, size: 0x8, addend: 0x0, symName: '__ZN4core3ptr62drop_in_place$LT$syn..path..AngleBracketedGenericArguments$GT$17h0299086782c6da12E', symObjAddr: 0x5960, symBinAddr: 0xBD2D0, symSize: 0x120 }
  - { offsetInCU: 0x1F8E9, offset: 0x32B046, size: 0x8, addend: 0x0, symName: '__ZN4core3ptr63drop_in_place$LT$alloc..boxed..Box$LT$syn..lit..LitRepr$GT$$GT$17hf2595df28a7ce13bE', symObjAddr: 0x5A80, symBinAddr: 0xBD3F0, symSize: 0x60 }
  - { offsetInCU: 0x1FBF0, offset: 0x32B34D, size: 0x8, addend: 0x0, symName: '__ZN4core3ptr64drop_in_place$LT$alloc..boxed..Box$LT$syn..pat..FieldPat$GT$$GT$17hb9cdd4a04c64745aE', symObjAddr: 0x5AE0, symBinAddr: 0xBD450, symSize: 0x140 }
  - { offsetInCU: 0x202BD, offset: 0x32BA1A, size: 0x8, addend: 0x0, symName: '__ZN4core3ptr64drop_in_place$LT$alloc..boxed..Box$LT$syn..ty..BareFnArg$GT$$GT$17hdf9a99e9a3e43b93E', symObjAddr: 0x5C20, symBinAddr: 0xBD590, symSize: 0x140 }
  - { offsetInCU: 0x20812, offset: 0x32BF6F, size: 0x8, addend: 0x0, symName: '__ZN4core3ptr65drop_in_place$LT$alloc..vec..Vec$LT$proc_macro..TokenTree$GT$$GT$17h07ad17327f0607d0E', symObjAddr: 0x5D60, symBinAddr: 0xBD6D0, symSize: 0x110 }
  - { offsetInCU: 0x20C0A, offset: 0x32C367, size: 0x8, addend: 0x0, symName: '__ZN4core3ptr65drop_in_place$LT$core..option..Option$LT$syn..expr..Label$GT$$GT$17h7370f4cd7d051021E', symObjAddr: 0x5E70, symBinAddr: 0xBD7E0, symSize: 0x30 }
  - { offsetInCU: 0x20D44, offset: 0x32C4A1, size: 0x8, addend: 0x0, symName: '__ZN4core3ptr65drop_in_place$LT$core..option..Option$LT$syn..path..QSelf$GT$$GT$17h9bc6bd805f4b805bE', symObjAddr: 0x5EA0, symBinAddr: 0xBD810, symSize: 0x50 }
  - { offsetInCU: 0x20EDB, offset: 0x32C638, size: 0x8, addend: 0x0, symName: '__ZN4core3ptr66drop_in_place$LT$core..option..Option$LT$syn..pat..PatRest$GT$$GT$17h56243b82155d1306E', symObjAddr: 0x5EF0, symBinAddr: 0xBD860, symSize: 0xE0 }
  - { offsetInCU: 0x211CF, offset: 0x32C92C, size: 0x8, addend: 0x0, symName: '__ZN4core3ptr67drop_in_place$LT$alloc..boxed..Box$LT$syn..expr..FieldValue$GT$$GT$17hdb569e1e168cfcafE', symObjAddr: 0x5FD0, symBinAddr: 0xBD940, symSize: 0x140 }
  - { offsetInCU: 0x21704, offset: 0x32CE61, size: 0x8, addend: 0x0, symName: '__ZN4core3ptr68drop_in_place$LT$alloc..boxed..Box$LT$syn..path..PathSegment$GT$$GT$17h8bc236a2626e080dE', symObjAddr: 0x6110, symBinAddr: 0xBDA80, symSize: 0x1B0 }
  - { offsetInCU: 0x21E12, offset: 0x32D56F, size: 0x8, addend: 0x0, symName: '__ZN4core3ptr70drop_in_place$LT$core..option..Option$LT$syn..ty..BareVariadic$GT$$GT$17h891315fdf14c9598E', symObjAddr: 0x62C0, symBinAddr: 0xBDC30, symSize: 0x100 }
  - { offsetInCU: 0x22249, offset: 0x32D9A6, size: 0x8, addend: 0x0, symName: '__ZN4core3ptr72drop_in_place$LT$alloc..boxed..Box$LT$syn..path..GenericArgument$GT$$GT$17ha22f3de00ed22d7dE', symObjAddr: 0x63C0, symBinAddr: 0xBDD30, symSize: 0x1D0 }
  - { offsetInCU: 0x227E4, offset: 0x32DF41, size: 0x8, addend: 0x0, symName: '__ZN4core3ptr72drop_in_place$LT$core..option..Option$LT$syn..lifetime..Lifetime$GT$$GT$17h738a5902efee9f55E', symObjAddr: 0x6590, symBinAddr: 0xBDF00, symSize: 0x30 }
  - { offsetInCU: 0x228FF, offset: 0x32E05C, size: 0x8, addend: 0x0, symName: '__ZN4core3ptr73drop_in_place$LT$alloc..boxed..Box$LT$syn..generics..GenericParam$GT$$GT$17h4a82c3bd6b9e6f81E', symObjAddr: 0x65C0, symBinAddr: 0xBDF30, symSize: 0x80 }
  - { offsetInCU: 0x22A75, offset: 0x32E1D2, size: 0x8, addend: 0x0, symName: '__ZN4core3ptr75drop_in_place$LT$alloc..boxed..Box$LT$syn..generics..TypeParamBound$GT$$GT$17h47c0b9686bcdda20E', symObjAddr: 0x6640, symBinAddr: 0xBDFB0, symSize: 0xC0 }
  - { offsetInCU: 0x22DC9, offset: 0x32E526, size: 0x8, addend: 0x0, symName: '__ZN4core3ptr86drop_in_place$LT$syn..punctuated..Punctuated$LT$syn..pat..Pat$C$syn..token..Or$GT$$GT$17h028803b51a0e008cE', symObjAddr: 0x6700, symBinAddr: 0xBE070, symSize: 0x120 }
  - { offsetInCU: 0x23244, offset: 0x32E9A1, size: 0x8, addend: 0x0, symName: '__ZN4core3ptr87drop_in_place$LT$core..option..Option$LT$alloc..boxed..Box$LT$syn..pat..Pat$GT$$GT$$GT$17h47e4534cb825f5fbE', symObjAddr: 0x6820, symBinAddr: 0xBE190, symSize: 0x50 }
  - { offsetInCU: 0x233B4, offset: 0x32EB11, size: 0x8, addend: 0x0, symName: '__ZN4core3ptr87drop_in_place$LT$core..option..Option$LT$alloc..boxed..Box$LT$syn..ty..Type$GT$$GT$$GT$17hb21c4c429b95d768E', symObjAddr: 0x6870, symBinAddr: 0xBE1E0, symSize: 0x50 }
  - { offsetInCU: 0x23524, offset: 0x32EC81, size: 0x8, addend: 0x0, symName: '__ZN4core3ptr89drop_in_place$LT$core..option..Option$LT$alloc..boxed..Box$LT$syn..expr..Expr$GT$$GT$$GT$17h0b10c8a8945d61ceE', symObjAddr: 0x68C0, symBinAddr: 0xBE230, symSize: 0x50 }
  - { offsetInCU: 0x236D2, offset: 0x32EE2F, size: 0x8, addend: 0x0, symName: '__ZN4core3ptr89drop_in_place$LT$syn..punctuated..Punctuated$LT$syn..pat..Pat$C$syn..token..Comma$GT$$GT$17h0f70228e7daac378E', symObjAddr: 0x6910, symBinAddr: 0xBE280, symSize: 0x120 }
  - { offsetInCU: 0x23B64, offset: 0x32F2C1, size: 0x8, addend: 0x0, symName: '__ZN4core3ptr89drop_in_place$LT$syn..punctuated..Punctuated$LT$syn..ty..Type$C$syn..token..Comma$GT$$GT$17h0317a8a9919e8789E', symObjAddr: 0x6A30, symBinAddr: 0xBE3A0, symSize: 0x120 }
  - { offsetInCU: 0x23FDF, offset: 0x32F73C, size: 0x8, addend: 0x0, symName: '__ZN4core3ptr90drop_in_place$LT$core..option..Option$LT$syn..path..AngleBracketedGenericArguments$GT$$GT$17h9646b437ffecef94E', symObjAddr: 0x6B50, symBinAddr: 0xBE4C0, symSize: 0x130 }
  - { offsetInCU: 0x24481, offset: 0x32FBDE, size: 0x8, addend: 0x0, symName: '__ZN4core3ptr91drop_in_place$LT$syn..punctuated..Punctuated$LT$syn..expr..Expr$C$syn..token..Comma$GT$$GT$17hd3047ab334148524E', symObjAddr: 0x6C80, symBinAddr: 0xBE5F0, symSize: 0x120 }
  - { offsetInCU: 0x2490F, offset: 0x33006C, size: 0x8, addend: 0x0, symName: '__ZN4core3ptr94drop_in_place$LT$syn..punctuated..Punctuated$LT$syn..pat..FieldPat$C$syn..token..Comma$GT$$GT$17h7ace9efb18f43d12E', symObjAddr: 0x6DA0, symBinAddr: 0xBE710, symSize: 0xF0 }
  - { offsetInCU: 0x24C0E, offset: 0x33036B, size: 0x8, addend: 0x0, symName: '__ZN4core3ptr94drop_in_place$LT$syn..punctuated..Punctuated$LT$syn..ty..BareFnArg$C$syn..token..Comma$GT$$GT$17hb29c6edaabe01c76E', symObjAddr: 0x6E90, symBinAddr: 0xBE800, symSize: 0xF0 }
  - { offsetInCU: 0x24F0F, offset: 0x33066C, size: 0x8, addend: 0x0, symName: '__ZN4core3ptr96drop_in_place$LT$core..option..Option$LT$alloc..boxed..Box$LT$syn..path..PathSegment$GT$$GT$$GT$17hd919256ec958e698E', symObjAddr: 0x6F80, symBinAddr: 0xBE8F0, symSize: 0xA0 }
  - { offsetInCU: 0x2518E, offset: 0x3308EB, size: 0x8, addend: 0x0, symName: '__ZN4core3ptr97drop_in_place$LT$syn..punctuated..Punctuated$LT$syn..expr..FieldValue$C$syn..token..Comma$GT$$GT$17he241ea7a3c55d267E', symObjAddr: 0x7020, symBinAddr: 0xBE990, symSize: 0xF0 }
  - { offsetInCU: 0x2548B, offset: 0x330BE8, size: 0x8, addend: 0x0, symName: '__ZN4core3ptr98drop_in_place$LT$alloc..vec..Vec$LT$$LP$syn..path..GenericArgument$C$syn..token..Comma$RP$$GT$$GT$17ha96f98c42a71b3f5E', symObjAddr: 0x7110, symBinAddr: 0xBEA80, symSize: 0xD0 }
  - { offsetInCU: 0x257CB, offset: 0x330F28, size: 0x8, addend: 0x0, symName: '__ZN4core3ptr98drop_in_place$LT$syn..punctuated..Punctuated$LT$syn..lifetime..Lifetime$C$syn..token..Plus$GT$$GT$17hb8f4279048db7792E', symObjAddr: 0x71E0, symBinAddr: 0xBEB50, symSize: 0xD0 }
  - { offsetInCU: 0x29CC0, offset: 0x33541D, size: 0x8, addend: 0x0, symName: __ZN12serde_derive9internals8receiver16replace_receiver17hc28838da46740bc1E, symObjAddr: 0x72B0, symBinAddr: 0xBEC20, symSize: 0x810 }
  - { offsetInCU: 0x2C9B8, offset: 0x338115, size: 0x8, addend: 0x0, symName: __ZN12serde_derive9internals8receiver15ReplaceReceiver7self_ty17h46e8024a22a6ae25E, symObjAddr: 0x7AC0, symBinAddr: 0xBF430, symSize: 0x230 }
  - { offsetInCU: 0x2CFA8, offset: 0x338705, size: 0x8, addend: 0x0, symName: __ZN12serde_derive9internals8receiver15ReplaceReceiver13self_to_qself17hc2f4007ba568f0cfE, symObjAddr: 0x7CF0, symBinAddr: 0xBF660, symSize: 0x7D0 }
  - { offsetInCU: 0x2ED4D, offset: 0x33A4AA, size: 0x8, addend: 0x0, symName: __ZN12serde_derive9internals8receiver15ReplaceReceiver14visit_type_mut17h0a7b73143306a25eE, symObjAddr: 0x84C0, symBinAddr: 0xBFE30, symSize: 0x790 }
  - { offsetInCU: 0x31145, offset: 0x33C8A2, size: 0x8, addend: 0x0, symName: __ZN12serde_derive9internals8receiver15ReplaceReceiver24visit_path_arguments_mut17h69d2dc8c47c6e486E, symObjAddr: 0x8C50, symBinAddr: 0xC05C0, symSize: 0x1F0 }
  - { offsetInCU: 0x31A6F, offset: 0x33D1CC, size: 0x8, addend: 0x0, symName: __ZN12serde_derive9internals8receiver15ReplaceReceiver14visit_expr_mut17hfee541ab23ea8a88E, symObjAddr: 0x8E40, symBinAddr: 0xC07B0, symSize: 0x27C }
  - { offsetInCU: 0x1E, offset: 0x342049, size: 0x8, addend: 0x0, symName: '__ZN40_$LT$F$u20$as$u20$syn..parse..Parser$GT$14__parse_scoped17h29291f2935564614E', symObjAddr: 0x0, symBinAddr: 0xC0A30, symSize: 0x400 }
  - { offsetInCU: 0x1C49, offset: 0x343C74, size: 0x8, addend: 0x0, symName: '__ZN4core3ptr100drop_in_place$LT$core..option..Option$LT$alloc..boxed..Box$LT$syn..path..GenericArgument$GT$$GT$$GT$17h3c47f80d40da4ae4E', symObjAddr: 0x13F0, symBinAddr: 0xC1E20, symSize: 0x50 }
  - { offsetInCU: 0x1FC8, offset: 0x343FF3, size: 0x8, addend: 0x0, symName: '__ZN4core3ptr100drop_in_place$LT$syn..punctuated..Punctuated$LT$syn..path..PathSegment$C$syn..token..PathSep$GT$$GT$17hd34064dc93b0b427E', symObjAddr: 0x1440, symBinAddr: 0xC1E70, symSize: 0x270 }
  - { offsetInCU: 0x296B, offset: 0x344996, size: 0x8, addend: 0x0, symName: '__ZN4core3ptr103drop_in_place$LT$core..option..Option$LT$alloc..boxed..Box$LT$syn..generics..TypeParamBound$GT$$GT$$GT$17hb98e913f9a9fba75E', symObjAddr: 0x16B0, symBinAddr: 0xC20E0, symSize: 0x50 }
  - { offsetInCU: 0x2BB4, offset: 0x344BDF, size: 0x8, addend: 0x0, symName: '__ZN4core3ptr103drop_in_place$LT$core..option..Option$LT$alloc..boxed..Box$LT$syn..generics..WherePredicate$GT$$GT$$GT$17ha8f5afb6495c5336E', symObjAddr: 0x1700, symBinAddr: 0xC2130, symSize: 0xD0 }
  - { offsetInCU: 0x2F48, offset: 0x344F73, size: 0x8, addend: 0x0, symName: '__ZN4core3ptr103drop_in_place$LT$syn..punctuated..Punctuated$LT$syn..generics..GenericParam$C$syn..token..Comma$GT$$GT$17h706e4b03aaf6cee1E', symObjAddr: 0x17D0, symBinAddr: 0xC2200, symSize: 0xF0 }
  - { offsetInCU: 0x33E6, offset: 0x345411, size: 0x8, addend: 0x0, symName: '__ZN4core3ptr104drop_in_place$LT$syn..punctuated..Punctuated$LT$syn..generics..TypeParamBound$C$syn..token..Plus$GT$$GT$17h913c045198e2e1fdE', symObjAddr: 0x18C0, symBinAddr: 0xC22F0, symSize: 0x190 }
  - { offsetInCU: 0x3A85, offset: 0x345AB0, size: 0x8, addend: 0x0, symName: '__ZN4core3ptr34drop_in_place$LT$syn..lit..Lit$GT$17hab99994a68996a3fE', symObjAddr: 0x1A50, symBinAddr: 0xC2480, symSize: 0x120 }
  - { offsetInCU: 0x3F35, offset: 0x345F60, size: 0x8, addend: 0x0, symName: '__ZN4core3ptr34drop_in_place$LT$syn..pat..Pat$GT$17h7d887fadf2c3cc6bE', symObjAddr: 0x1B70, symBinAddr: 0xC25A0, symSize: 0x1090 }
  - { offsetInCU: 0x7F16, offset: 0x349F41, size: 0x8, addend: 0x0, symName: '__ZN4core3ptr34drop_in_place$LT$syn..ty..Type$GT$17h11a872b3c8e5eef5E', symObjAddr: 0x2C00, symBinAddr: 0xC3630, symSize: 0x4F0 }
  - { offsetInCU: 0x9459, offset: 0x34B484, size: 0x8, addend: 0x0, symName: '__ZN4core3ptr36drop_in_place$LT$syn..expr..Expr$GT$17h62bf30adc41c0fafE', symObjAddr: 0x30F0, symBinAddr: 0xC3B20, symSize: 0x27D0 }
  - { offsetInCU: 0x12B8D, offset: 0x354BB8, size: 0x8, addend: 0x0, symName: '__ZN4core3ptr36drop_in_place$LT$syn..mac..Macro$GT$17ha18d10f1233dedcaE', symObjAddr: 0x58C0, symBinAddr: 0xC62F0, symSize: 0x40 }
  - { offsetInCU: 0x12BC7, offset: 0x354BF2, size: 0x8, addend: 0x0, symName: '__ZN4core3ptr36drop_in_place$LT$syn..path..Path$GT$17hcca6c7d030660616E', symObjAddr: 0x5900, symBinAddr: 0xC6330, symSize: 0x240 }
  - { offsetInCU: 0x13561, offset: 0x35558C, size: 0x8, addend: 0x0, symName: '__ZN4core3ptr37drop_in_place$LT$syn..stmt..Block$GT$17haed62ed48b69364dE', symObjAddr: 0x5B40, symBinAddr: 0xC6570, symSize: 0xD0 }
  - { offsetInCU: 0x138D3, offset: 0x3558FE, size: 0x8, addend: 0x0, symName: '__ZN4core3ptr38drop_in_place$LT$syn..data..Fields$GT$17h514a9f3887e18379E', symObjAddr: 0x5C10, symBinAddr: 0xC6640, symSize: 0x190 }
  - { offsetInCU: 0x13DD7, offset: 0x355E02, size: 0x8, addend: 0x0, symName: '__ZN4core3ptr38drop_in_place$LT$syn..derive..Data$GT$17hd536734690a04c8dE', symObjAddr: 0x5DA0, symBinAddr: 0xC67D0, symSize: 0x1D0 }
  - { offsetInCU: 0x1447D, offset: 0x3564A8, size: 0x8, addend: 0x0, symName: '__ZN4core3ptr38drop_in_place$LT$syn..expr..Member$GT$17h594f47e3350a2be5E', symObjAddr: 0x5F70, symBinAddr: 0xC69A0, symSize: 0x30 }
  - { offsetInCU: 0x14579, offset: 0x3565A4, size: 0x8, addend: 0x0, symName: '__ZN4core3ptr38drop_in_place$LT$syn..ty..TypePath$GT$17h31304b32ced8e42aE', symObjAddr: 0x5FA0, symBinAddr: 0xC69D0, symSize: 0x70 }
  - { offsetInCU: 0x146F6, offset: 0x356721, size: 0x8, addend: 0x0, symName: '__ZN4core3ptr39drop_in_place$LT$proc_macro2..Ident$GT$17h007be8bd6a71491bE', symObjAddr: 0x6010, symBinAddr: 0xC6A40, symSize: 0x30 }
  - { offsetInCU: 0x14909, offset: 0x356934, size: 0x8, addend: 0x0, symName: '__ZN4core3ptr39drop_in_place$LT$syn..buffer..Entry$GT$17hf8a37ae2db8c8c8eE', symObjAddr: 0x6040, symBinAddr: 0xC6A70, symSize: 0xB0 }
  - { offsetInCU: 0x14C94, offset: 0x356CBF, size: 0x8, addend: 0x0, symName: '__ZN4core3ptr40drop_in_place$LT$syn..expr..ExprPath$GT$17heaa068b65b1423afE', symObjAddr: 0x60F0, symBinAddr: 0xC6B20, symSize: 0x110 }
  - { offsetInCU: 0x150C3, offset: 0x3570EE, size: 0x8, addend: 0x0, symName: '__ZN4core3ptr40drop_in_place$LT$syn..ty..ReturnType$GT$17h14f04ba862eb52f4E', symObjAddr: 0x6200, symBinAddr: 0xC6C30, symSize: 0x50 }
  - { offsetInCU: 0x15233, offset: 0x35725E, size: 0x8, addend: 0x0, symName: '__ZN4core3ptr41drop_in_place$LT$syn..expr..ExprConst$GT$17h011fcb0f1d3d0fbcE', symObjAddr: 0x6250, symBinAddr: 0xC6C80, symSize: 0x180 }
  - { offsetInCU: 0x157EC, offset: 0x357817, size: 0x8, addend: 0x0, symName: '__ZN4core3ptr44drop_in_place$LT$syn..generics..Generics$GT$17he5ddc4e21d959fbdE', symObjAddr: 0x63D0, symBinAddr: 0xC6E00, symSize: 0x40 }
  - { offsetInCU: 0x15809, offset: 0x357834, size: 0x8, addend: 0x0, symName: '__ZN4core3ptr44drop_in_place$LT$syn..lifetime..Lifetime$GT$17h81f5c412fc4e75a1E', symObjAddr: 0x6410, symBinAddr: 0xC6E40, symSize: 0x30 }
  - { offsetInCU: 0x15905, offset: 0x357930, size: 0x8, addend: 0x0, symName: '__ZN4core3ptr44drop_in_place$LT$syn..parse..ParseBuffer$GT$17h82fe204940e318b0E', symObjAddr: 0x6440, symBinAddr: 0xC6E70, symSize: 0x70 }
  - { offsetInCU: 0x15C81, offset: 0x357CAC, size: 0x8, addend: 0x0, symName: '__ZN4core3ptr45drop_in_place$LT$proc_macro2..TokenStream$GT$17h725968a5788a0c43E', symObjAddr: 0x64B0, symBinAddr: 0xC6EE0, symSize: 0x140 }
  - { offsetInCU: 0x160DD, offset: 0x358108, size: 0x8, addend: 0x0, symName: '__ZN4core3ptr45drop_in_place$LT$syn..buffer..TokenBuffer$GT$17h1ed6fa8196fb852bE', symObjAddr: 0x65F0, symBinAddr: 0xC7020, symSize: 0xC0 }
  - { offsetInCU: 0x16383, offset: 0x3583AE, size: 0x8, addend: 0x0, symName: '__ZN4core3ptr45drop_in_place$LT$syn..derive..DeriveInput$GT$17hac57d0e7f17975e6E', symObjAddr: 0x66B0, symBinAddr: 0xC70E0, symSize: 0x190 }
  - { offsetInCU: 0x1690A, offset: 0x358935, size: 0x8, addend: 0x0, symName: '__ZN4core3ptr45drop_in_place$LT$syn..generics..TypeParam$GT$17h2ddacbd5ce28b514E', symObjAddr: 0x6840, symBinAddr: 0xC7270, symSize: 0x230 }
  - { offsetInCU: 0x1714B, offset: 0x359176, size: 0x8, addend: 0x0, symName: '__ZN4core3ptr46drop_in_place$LT$syn..generics..ConstParam$GT$17h847551b4d11dedb8E', symObjAddr: 0x6A70, symBinAddr: 0xC74A0, symSize: 0x150 }
  - { offsetInCU: 0x17598, offset: 0x3595C3, size: 0x8, addend: 0x0, symName: '__ZN4core3ptr47drop_in_place$LT$syn..path..GenericArgument$GT$17ha0f8621278069bfaE', symObjAddr: 0x6BC0, symBinAddr: 0xC75F0, symSize: 0x4A0 }
  - { offsetInCU: 0x1869E, offset: 0x35A6C9, size: 0x8, addend: 0x0, symName: '__ZN4core3ptr49drop_in_place$LT$syn..generics..LifetimeParam$GT$17hd8de96c71b63fc49E', symObjAddr: 0x7060, symBinAddr: 0xC7A90, symSize: 0xF0 }
  - { offsetInCU: 0x18A81, offset: 0x35AAAC, size: 0x8, addend: 0x0, symName: '__ZN4core3ptr49drop_in_place$LT$syn..restriction..Visibility$GT$17h4e6e0125596013abE', symObjAddr: 0x7150, symBinAddr: 0xC7B80, symSize: 0x60 }
  - { offsetInCU: 0x18BF2, offset: 0x35AC1D, size: 0x8, addend: 0x0, symName: '__ZN4core3ptr50drop_in_place$LT$syn..generics..TypeParamBound$GT$17hc0b3a8451b112484E', symObjAddr: 0x71B0, symBinAddr: 0xC7BE0, symSize: 0x180 }
  - { offsetInCU: 0x1903C, offset: 0x35B067, size: 0x8, addend: 0x0, symName: '__ZN4core3ptr58drop_in_place$LT$alloc..vec..Vec$LT$syn..expr..Arm$GT$$GT$17ha6d87cf8cb2f8625E', symObjAddr: 0x7330, symBinAddr: 0xC7D60, symSize: 0xD0 }
  - { offsetInCU: 0x192FC, offset: 0x35B327, size: 0x8, addend: 0x0, symName: '__ZN4core3ptr59drop_in_place$LT$alloc..boxed..Box$LT$syn..pat..Pat$GT$$GT$17h04b5a49dc338bf9cE', symObjAddr: 0x7400, symBinAddr: 0xC7E30, symSize: 0x50 }
  - { offsetInCU: 0x19455, offset: 0x35B480, size: 0x8, addend: 0x0, symName: '__ZN4core3ptr59drop_in_place$LT$alloc..boxed..Box$LT$syn..ty..Type$GT$$GT$17hfb8a09f23f7902beE', symObjAddr: 0x7450, symBinAddr: 0xC7E80, symSize: 0x50 }
  - { offsetInCU: 0x195AE, offset: 0x35B5D9, size: 0x8, addend: 0x0, symName: '__ZN4core3ptr61drop_in_place$LT$alloc..boxed..Box$LT$syn..expr..Expr$GT$$GT$17hfe67d291b01d4939E', symObjAddr: 0x74A0, symBinAddr: 0xC7ED0, symSize: 0x50 }
  - { offsetInCU: 0x19783, offset: 0x35B7AE, size: 0x8, addend: 0x0, symName: '__ZN4core3ptr61drop_in_place$LT$syn..path..ParenthesizedGenericArguments$GT$17hc6164008a0f156caE', symObjAddr: 0x74F0, symBinAddr: 0xC7F20, symSize: 0x170 }
  - { offsetInCU: 0x19D79, offset: 0x35BDA4, size: 0x8, addend: 0x0, symName: '__ZN4core3ptr62drop_in_place$LT$syn..path..AngleBracketedGenericArguments$GT$17h0299086782c6da12E', symObjAddr: 0x7660, symBinAddr: 0xC8090, symSize: 0x120 }
  - { offsetInCU: 0x1A1C4, offset: 0x35C1EF, size: 0x8, addend: 0x0, symName: '__ZN4core3ptr63drop_in_place$LT$alloc..boxed..Box$LT$syn..lit..LitRepr$GT$$GT$17hf2595df28a7ce13bE', symObjAddr: 0x7780, symBinAddr: 0xC81B0, symSize: 0x60 }
  - { offsetInCU: 0x1A4CB, offset: 0x35C4F6, size: 0x8, addend: 0x0, symName: '__ZN4core3ptr64drop_in_place$LT$alloc..boxed..Box$LT$syn..pat..FieldPat$GT$$GT$17hb9cdd4a04c64745aE', symObjAddr: 0x77E0, symBinAddr: 0xC8210, symSize: 0x140 }
  - { offsetInCU: 0x1AB98, offset: 0x35CBC3, size: 0x8, addend: 0x0, symName: '__ZN4core3ptr64drop_in_place$LT$alloc..boxed..Box$LT$syn..ty..BareFnArg$GT$$GT$17hdf9a99e9a3e43b93E', symObjAddr: 0x7920, symBinAddr: 0xC8350, symSize: 0x140 }
  - { offsetInCU: 0x1B0ED, offset: 0x35D118, size: 0x8, addend: 0x0, symName: '__ZN4core3ptr65drop_in_place$LT$alloc..vec..Vec$LT$proc_macro..TokenTree$GT$$GT$17h07ad17327f0607d0E', symObjAddr: 0x7A60, symBinAddr: 0xC8490, symSize: 0x110 }
  - { offsetInCU: 0x1B4E5, offset: 0x35D510, size: 0x8, addend: 0x0, symName: '__ZN4core3ptr65drop_in_place$LT$core..option..Option$LT$syn..expr..Label$GT$$GT$17h7370f4cd7d051021E', symObjAddr: 0x7B70, symBinAddr: 0xC85A0, symSize: 0x30 }
  - { offsetInCU: 0x1B61F, offset: 0x35D64A, size: 0x8, addend: 0x0, symName: '__ZN4core3ptr65drop_in_place$LT$core..option..Option$LT$syn..path..QSelf$GT$$GT$17h9bc6bd805f4b805bE', symObjAddr: 0x7BA0, symBinAddr: 0xC85D0, symSize: 0x50 }
  - { offsetInCU: 0x1B7A0, offset: 0x35D7CB, size: 0x8, addend: 0x0, symName: '__ZN4core3ptr66drop_in_place$LT$core..option..Option$LT$syn..pat..PatRest$GT$$GT$17h56243b82155d1306E', symObjAddr: 0x7BF0, symBinAddr: 0xC8620, symSize: 0xE0 }
  - { offsetInCU: 0x1BA94, offset: 0x35DABF, size: 0x8, addend: 0x0, symName: '__ZN4core3ptr67drop_in_place$LT$alloc..boxed..Box$LT$syn..expr..FieldValue$GT$$GT$17hdb569e1e168cfcafE', symObjAddr: 0x7CD0, symBinAddr: 0xC8700, symSize: 0x140 }
  - { offsetInCU: 0x1BFC9, offset: 0x35DFF4, size: 0x8, addend: 0x0, symName: '__ZN4core3ptr68drop_in_place$LT$alloc..boxed..Box$LT$syn..path..PathSegment$GT$$GT$17h8bc236a2626e080dE', symObjAddr: 0x7E10, symBinAddr: 0xC8840, symSize: 0x1B0 }
  - { offsetInCU: 0x1C6D7, offset: 0x35E702, size: 0x8, addend: 0x0, symName: '__ZN4core3ptr70drop_in_place$LT$core..option..Option$LT$syn..ty..BareVariadic$GT$$GT$17h891315fdf14c9598E', symObjAddr: 0x7FC0, symBinAddr: 0xC89F0, symSize: 0x100 }
  - { offsetInCU: 0x1CB0E, offset: 0x35EB39, size: 0x8, addend: 0x0, symName: '__ZN4core3ptr72drop_in_place$LT$alloc..boxed..Box$LT$syn..path..GenericArgument$GT$$GT$17ha22f3de00ed22d7dE', symObjAddr: 0x80C0, symBinAddr: 0xC8AF0, symSize: 0x1D0 }
  - { offsetInCU: 0x1D0A9, offset: 0x35F0D4, size: 0x8, addend: 0x0, symName: '__ZN4core3ptr72drop_in_place$LT$core..option..Option$LT$syn..lifetime..Lifetime$GT$$GT$17h738a5902efee9f55E', symObjAddr: 0x8290, symBinAddr: 0xC8CC0, symSize: 0x30 }
  - { offsetInCU: 0x1D1C4, offset: 0x35F1EF, size: 0x8, addend: 0x0, symName: '__ZN4core3ptr73drop_in_place$LT$alloc..boxed..Box$LT$syn..generics..GenericParam$GT$$GT$17h4a82c3bd6b9e6f81E', symObjAddr: 0x82C0, symBinAddr: 0xC8CF0, symSize: 0x80 }
  - { offsetInCU: 0x1D33A, offset: 0x35F365, size: 0x8, addend: 0x0, symName: '__ZN4core3ptr75drop_in_place$LT$alloc..boxed..Box$LT$syn..generics..TypeParamBound$GT$$GT$17h47c0b9686bcdda20E', symObjAddr: 0x8340, symBinAddr: 0xC8D70, symSize: 0xC0 }
  - { offsetInCU: 0x1D6AD, offset: 0x35F6D8, size: 0x8, addend: 0x0, symName: '__ZN4core3ptr75drop_in_place$LT$core..option..Option$LT$syn..generics..WhereClause$GT$$GT$17ha14a8b033395cd67E', symObjAddr: 0x8400, symBinAddr: 0xC8E30, symSize: 0x100 }
  - { offsetInCU: 0x1DA64, offset: 0x35FA8F, size: 0x8, addend: 0x0, symName: '__ZN4core3ptr86drop_in_place$LT$syn..punctuated..Punctuated$LT$syn..pat..Pat$C$syn..token..Or$GT$$GT$17h028803b51a0e008cE', symObjAddr: 0x8500, symBinAddr: 0xC8F30, symSize: 0x120 }
  - { offsetInCU: 0x1DEDF, offset: 0x35FF0A, size: 0x8, addend: 0x0, symName: '__ZN4core3ptr87drop_in_place$LT$core..option..Option$LT$alloc..boxed..Box$LT$syn..pat..Pat$GT$$GT$$GT$17h47e4534cb825f5fbE', symObjAddr: 0x8620, symBinAddr: 0xC9050, symSize: 0x50 }
  - { offsetInCU: 0x1E04F, offset: 0x36007A, size: 0x8, addend: 0x0, symName: '__ZN4core3ptr87drop_in_place$LT$core..option..Option$LT$alloc..boxed..Box$LT$syn..ty..Type$GT$$GT$$GT$17hb21c4c429b95d768E', symObjAddr: 0x8670, symBinAddr: 0xC90A0, symSize: 0x50 }
  - { offsetInCU: 0x1E1BF, offset: 0x3601EA, size: 0x8, addend: 0x0, symName: '__ZN4core3ptr89drop_in_place$LT$core..option..Option$LT$alloc..boxed..Box$LT$syn..expr..Expr$GT$$GT$$GT$17h0b10c8a8945d61ceE', symObjAddr: 0x86C0, symBinAddr: 0xC90F0, symSize: 0x50 }
  - { offsetInCU: 0x1E36D, offset: 0x360398, size: 0x8, addend: 0x0, symName: '__ZN4core3ptr89drop_in_place$LT$syn..punctuated..Punctuated$LT$syn..pat..Pat$C$syn..token..Comma$GT$$GT$17h0f70228e7daac378E', symObjAddr: 0x8710, symBinAddr: 0xC9140, symSize: 0x120 }
  - { offsetInCU: 0x1E7FF, offset: 0x36082A, size: 0x8, addend: 0x0, symName: '__ZN4core3ptr89drop_in_place$LT$syn..punctuated..Punctuated$LT$syn..ty..Type$C$syn..token..Comma$GT$$GT$17h0317a8a9919e8789E', symObjAddr: 0x8830, symBinAddr: 0xC9260, symSize: 0x120 }
  - { offsetInCU: 0x1ECD7, offset: 0x360D02, size: 0x8, addend: 0x0, symName: '__ZN4core3ptr90drop_in_place$LT$core..option..Option$LT$alloc..boxed..Box$LT$syn..data..Field$GT$$GT$$GT$17h31d400183c362571E', symObjAddr: 0x8950, symBinAddr: 0xC9380, symSize: 0x1B0 }
  - { offsetInCU: 0x1F376, offset: 0x3613A1, size: 0x8, addend: 0x0, symName: '__ZN4core3ptr90drop_in_place$LT$core..option..Option$LT$syn..path..AngleBracketedGenericArguments$GT$$GT$17h9646b437ffecef94E', symObjAddr: 0x8B00, symBinAddr: 0xC9530, symSize: 0x130 }
  - { offsetInCU: 0x1F818, offset: 0x361843, size: 0x8, addend: 0x0, symName: '__ZN4core3ptr91drop_in_place$LT$syn..punctuated..Punctuated$LT$syn..expr..Expr$C$syn..token..Comma$GT$$GT$17hd3047ab334148524E', symObjAddr: 0x8C30, symBinAddr: 0xC9660, symSize: 0x120 }
  - { offsetInCU: 0x1FD22, offset: 0x361D4D, size: 0x8, addend: 0x0, symName: '__ZN4core3ptr92drop_in_place$LT$core..option..Option$LT$alloc..boxed..Box$LT$syn..data..Variant$GT$$GT$$GT$17h55fdacea6abb1afeE', symObjAddr: 0x8D50, symBinAddr: 0xC9780, symSize: 0x170 }
  - { offsetInCU: 0x202BD, offset: 0x3622E8, size: 0x8, addend: 0x0, symName: '__ZN4core3ptr94drop_in_place$LT$syn..punctuated..Punctuated$LT$syn..pat..FieldPat$C$syn..token..Comma$GT$$GT$17h7ace9efb18f43d12E', symObjAddr: 0x8EC0, symBinAddr: 0xC98F0, symSize: 0xF0 }
  - { offsetInCU: 0x205BC, offset: 0x3625E7, size: 0x8, addend: 0x0, symName: '__ZN4core3ptr94drop_in_place$LT$syn..punctuated..Punctuated$LT$syn..ty..BareFnArg$C$syn..token..Comma$GT$$GT$17hb29c6edaabe01c76E', symObjAddr: 0x8FB0, symBinAddr: 0xC99E0, symSize: 0xF0 }
  - { offsetInCU: 0x208BD, offset: 0x3628E8, size: 0x8, addend: 0x0, symName: '__ZN4core3ptr96drop_in_place$LT$core..option..Option$LT$alloc..boxed..Box$LT$syn..path..PathSegment$GT$$GT$$GT$17hd919256ec958e698E', symObjAddr: 0x90A0, symBinAddr: 0xC9AD0, symSize: 0xA0 }
  - { offsetInCU: 0x20B3C, offset: 0x362B67, size: 0x8, addend: 0x0, symName: '__ZN4core3ptr97drop_in_place$LT$syn..punctuated..Punctuated$LT$syn..expr..FieldValue$C$syn..token..Comma$GT$$GT$17he241ea7a3c55d267E', symObjAddr: 0x9140, symBinAddr: 0xC9B70, symSize: 0xF0 }
  - { offsetInCU: 0x20E39, offset: 0x362E64, size: 0x8, addend: 0x0, symName: '__ZN4core3ptr98drop_in_place$LT$alloc..vec..Vec$LT$$LP$syn..path..GenericArgument$C$syn..token..Comma$RP$$GT$$GT$17ha96f98c42a71b3f5E', symObjAddr: 0x9230, symBinAddr: 0xC9C60, symSize: 0xD0 }
  - { offsetInCU: 0x21179, offset: 0x3631A4, size: 0x8, addend: 0x0, symName: '__ZN4core3ptr98drop_in_place$LT$syn..punctuated..Punctuated$LT$syn..lifetime..Lifetime$C$syn..token..Plus$GT$$GT$17hb8f4279048db7792E', symObjAddr: 0x9300, symBinAddr: 0xC9D30, symSize: 0xC6 }
  - { offsetInCU: 0x24720, offset: 0x36674B, size: 0x8, addend: 0x0, symName: '__ZN40_$LT$F$u20$as$u20$syn..parse..Parser$GT$14__parse_scoped17h29291f2935564614E', symObjAddr: 0x0, symBinAddr: 0xC0A30, symSize: 0x400 }
  - { offsetInCU: 0x25181, offset: 0x3671AC, size: 0x8, addend: 0x0, symName: '__ZN40_$LT$F$u20$as$u20$syn..parse..Parser$GT$14__parse_scoped17ha99c8f5ebcb92232E', symObjAddr: 0x400, symBinAddr: 0xC0E30, symSize: 0x3F0 }
  - { offsetInCU: 0x25BF2, offset: 0x367C1D, size: 0x8, addend: 0x0, symName: '__ZN40_$LT$F$u20$as$u20$syn..parse..Parser$GT$14__parse_scoped17hcec3adbc47f08fafE', symObjAddr: 0x7F0, symBinAddr: 0xC1220, symSize: 0x420 }
  - { offsetInCU: 0x2666B, offset: 0x368696, size: 0x8, addend: 0x0, symName: '__ZN40_$LT$F$u20$as$u20$syn..parse..Parser$GT$6parse217h51f18ba203c61ac7E', symObjAddr: 0xC10, symBinAddr: 0xC1640, symSize: 0x380 }
  - { offsetInCU: 0x26EA6, offset: 0x368ED1, size: 0x8, addend: 0x0, symName: '__ZN40_$LT$F$u20$as$u20$syn..parse..Parser$GT$6parse217ha9963d5783e02914E', symObjAddr: 0xF90, symBinAddr: 0xC19C0, symSize: 0x460 }
  - { offsetInCU: 0x1E, offset: 0x374233, size: 0x8, addend: 0x0, symName: __ZN3syn3lit6LitStr10parse_with17h68c4c065479f5d55E, symObjAddr: 0x0, symBinAddr: 0xC9E00, symSize: 0x420 }
  - { offsetInCU: 0x1CBC, offset: 0x375ED1, size: 0x8, addend: 0x0, symName: '__ZN4core3ptr100drop_in_place$LT$core..option..Option$LT$alloc..boxed..Box$LT$syn..path..GenericArgument$GT$$GT$$GT$17h3c47f80d40da4ae4E', symObjAddr: 0x12B0, symBinAddr: 0xCB0B0, symSize: 0x50 }
  - { offsetInCU: 0x205A, offset: 0x37626F, size: 0x8, addend: 0x0, symName: '__ZN4core3ptr100drop_in_place$LT$syn..punctuated..Punctuated$LT$syn..path..PathSegment$C$syn..token..PathSep$GT$$GT$17hd34064dc93b0b427E', symObjAddr: 0x1300, symBinAddr: 0xCB100, symSize: 0x270 }
  - { offsetInCU: 0x29FD, offset: 0x376C12, size: 0x8, addend: 0x0, symName: '__ZN4core3ptr103drop_in_place$LT$core..option..Option$LT$alloc..boxed..Box$LT$syn..generics..TypeParamBound$GT$$GT$$GT$17hb98e913f9a9fba75E', symObjAddr: 0x1570, symBinAddr: 0xCB370, symSize: 0x50 }
  - { offsetInCU: 0x2C46, offset: 0x376E5B, size: 0x8, addend: 0x0, symName: '__ZN4core3ptr103drop_in_place$LT$core..option..Option$LT$alloc..boxed..Box$LT$syn..generics..WherePredicate$GT$$GT$$GT$17ha8f5afb6495c5336E', symObjAddr: 0x15C0, symBinAddr: 0xCB3C0, symSize: 0xD0 }
  - { offsetInCU: 0x2FDA, offset: 0x3771EF, size: 0x8, addend: 0x0, symName: '__ZN4core3ptr103drop_in_place$LT$syn..punctuated..Punctuated$LT$syn..generics..GenericParam$C$syn..token..Comma$GT$$GT$17h706e4b03aaf6cee1E', symObjAddr: 0x1690, symBinAddr: 0xCB490, symSize: 0xF0 }
  - { offsetInCU: 0x3478, offset: 0x37768D, size: 0x8, addend: 0x0, symName: '__ZN4core3ptr104drop_in_place$LT$syn..punctuated..Punctuated$LT$syn..generics..TypeParamBound$C$syn..token..Plus$GT$$GT$17h913c045198e2e1fdE', symObjAddr: 0x1780, symBinAddr: 0xCB580, symSize: 0x190 }
  - { offsetInCU: 0x3A5D, offset: 0x377C72, size: 0x8, addend: 0x0, symName: '__ZN4core3ptr105drop_in_place$LT$syn..punctuated..Punctuated$LT$syn..generics..WherePredicate$C$syn..token..Comma$GT$$GT$17h950b0d6851bfc4b8E', symObjAddr: 0x1910, symBinAddr: 0xCB710, symSize: 0xE0 }
  - { offsetInCU: 0x3DC1, offset: 0x377FD6, size: 0x8, addend: 0x0, symName: '__ZN4core3ptr34drop_in_place$LT$syn..lit..Lit$GT$17hab99994a68996a3fE', symObjAddr: 0x19F0, symBinAddr: 0xCB7F0, symSize: 0x120 }
  - { offsetInCU: 0x42AF, offset: 0x3784C4, size: 0x8, addend: 0x0, symName: '__ZN4core3ptr34drop_in_place$LT$syn..pat..Pat$GT$17h7d887fadf2c3cc6bE', symObjAddr: 0x1B10, symBinAddr: 0xCB910, symSize: 0x1090 }
  - { offsetInCU: 0x82AF, offset: 0x37C4C4, size: 0x8, addend: 0x0, symName: '__ZN4core3ptr34drop_in_place$LT$syn..ty..Type$GT$17h11a872b3c8e5eef5E', symObjAddr: 0x2BA0, symBinAddr: 0xCC9A0, symSize: 0x4F0 }
  - { offsetInCU: 0x97F2, offset: 0x37DA07, size: 0x8, addend: 0x0, symName: '__ZN4core3ptr36drop_in_place$LT$syn..expr..Expr$GT$17h62bf30adc41c0fafE', symObjAddr: 0x3090, symBinAddr: 0xCCE90, symSize: 0x27D0 }
  - { offsetInCU: 0x12F26, offset: 0x38713B, size: 0x8, addend: 0x0, symName: '__ZN4core3ptr36drop_in_place$LT$syn..mac..Macro$GT$17ha18d10f1233dedcaE', symObjAddr: 0x5860, symBinAddr: 0xCF660, symSize: 0x40 }
  - { offsetInCU: 0x12F60, offset: 0x387175, size: 0x8, addend: 0x0, symName: '__ZN4core3ptr36drop_in_place$LT$syn..path..Path$GT$17hcca6c7d030660616E', symObjAddr: 0x58A0, symBinAddr: 0xCF6A0, symSize: 0x240 }
  - { offsetInCU: 0x138FA, offset: 0x387B0F, size: 0x8, addend: 0x0, symName: '__ZN4core3ptr37drop_in_place$LT$syn..stmt..Block$GT$17haed62ed48b69364dE', symObjAddr: 0x5AE0, symBinAddr: 0xCF8E0, symSize: 0xD0 }
  - { offsetInCU: 0x13BD1, offset: 0x387DE6, size: 0x8, addend: 0x0, symName: '__ZN4core3ptr38drop_in_place$LT$syn..expr..Member$GT$17h594f47e3350a2be5E', symObjAddr: 0x5BB0, symBinAddr: 0xCF9B0, symSize: 0x30 }
  - { offsetInCU: 0x13CCD, offset: 0x387EE2, size: 0x8, addend: 0x0, symName: '__ZN4core3ptr39drop_in_place$LT$proc_macro2..Ident$GT$17h007be8bd6a71491bE', symObjAddr: 0x5BE0, symBinAddr: 0xCF9E0, symSize: 0x30 }
  - { offsetInCU: 0x13DAA, offset: 0x387FBF, size: 0x8, addend: 0x0, symName: '__ZN4core3ptr40drop_in_place$LT$syn..expr..ExprPath$GT$17heaa068b65b1423afE', symObjAddr: 0x5C10, symBinAddr: 0xCFA10, symSize: 0x110 }
  - { offsetInCU: 0x141D9, offset: 0x3883EE, size: 0x8, addend: 0x0, symName: '__ZN4core3ptr40drop_in_place$LT$syn..ty..ReturnType$GT$17h14f04ba862eb52f4E', symObjAddr: 0x5D20, symBinAddr: 0xCFB20, symSize: 0x50 }
  - { offsetInCU: 0x14349, offset: 0x38855E, size: 0x8, addend: 0x0, symName: '__ZN4core3ptr41drop_in_place$LT$syn..expr..ExprConst$GT$17h011fcb0f1d3d0fbcE', symObjAddr: 0x5D70, symBinAddr: 0xCFB70, symSize: 0x180 }
  - { offsetInCU: 0x14902, offset: 0x388B17, size: 0x8, addend: 0x0, symName: '__ZN4core3ptr44drop_in_place$LT$syn..lifetime..Lifetime$GT$17h81f5c412fc4e75a1E', symObjAddr: 0x5EF0, symBinAddr: 0xCFCF0, symSize: 0x30 }
  - { offsetInCU: 0x14B34, offset: 0x388D49, size: 0x8, addend: 0x0, symName: '__ZN4core3ptr45drop_in_place$LT$proc_macro2..TokenStream$GT$17h725968a5788a0c43E.llvm.15529210683465630096', symObjAddr: 0x5F20, symBinAddr: 0xCFD20, symSize: 0x140 }
  - { offsetInCU: 0x14FCE, offset: 0x3891E3, size: 0x8, addend: 0x0, symName: '__ZN4core3ptr45drop_in_place$LT$syn..generics..TypeParam$GT$17h2ddacbd5ce28b514E', symObjAddr: 0x6060, symBinAddr: 0xCFE60, symSize: 0x230 }
  - { offsetInCU: 0x1580F, offset: 0x389A24, size: 0x8, addend: 0x0, symName: '__ZN4core3ptr46drop_in_place$LT$syn..generics..ConstParam$GT$17h847551b4d11dedb8E', symObjAddr: 0x6290, symBinAddr: 0xD0090, symSize: 0x150 }
  - { offsetInCU: 0x15C5C, offset: 0x389E71, size: 0x8, addend: 0x0, symName: '__ZN4core3ptr47drop_in_place$LT$syn..path..GenericArgument$GT$17ha0f8621278069bfaE', symObjAddr: 0x63E0, symBinAddr: 0xD01E0, symSize: 0x4A0 }
  - { offsetInCU: 0x16D62, offset: 0x38AF77, size: 0x8, addend: 0x0, symName: '__ZN4core3ptr49drop_in_place$LT$syn..generics..LifetimeParam$GT$17hd8de96c71b63fc49E', symObjAddr: 0x6880, symBinAddr: 0xD0680, symSize: 0xF0 }
  - { offsetInCU: 0x17145, offset: 0x38B35A, size: 0x8, addend: 0x0, symName: '__ZN4core3ptr50drop_in_place$LT$syn..generics..TypeParamBound$GT$17hc0b3a8451b112484E', symObjAddr: 0x6970, symBinAddr: 0xD0770, symSize: 0x180 }
  - { offsetInCU: 0x1758F, offset: 0x38B7A4, size: 0x8, addend: 0x0, symName: '__ZN4core3ptr58drop_in_place$LT$alloc..vec..Vec$LT$syn..expr..Arm$GT$$GT$17ha6d87cf8cb2f8625E', symObjAddr: 0x6AF0, symBinAddr: 0xD08F0, symSize: 0xD0 }
  - { offsetInCU: 0x1784F, offset: 0x38BA64, size: 0x8, addend: 0x0, symName: '__ZN4core3ptr59drop_in_place$LT$alloc..boxed..Box$LT$syn..pat..Pat$GT$$GT$17h04b5a49dc338bf9cE', symObjAddr: 0x6BC0, symBinAddr: 0xD09C0, symSize: 0x50 }
  - { offsetInCU: 0x179A8, offset: 0x38BBBD, size: 0x8, addend: 0x0, symName: '__ZN4core3ptr59drop_in_place$LT$alloc..boxed..Box$LT$syn..ty..Type$GT$$GT$17hfb8a09f23f7902beE', symObjAddr: 0x6C10, symBinAddr: 0xD0A10, symSize: 0x50 }
  - { offsetInCU: 0x17B01, offset: 0x38BD16, size: 0x8, addend: 0x0, symName: '__ZN4core3ptr61drop_in_place$LT$alloc..boxed..Box$LT$syn..expr..Expr$GT$$GT$17hfe67d291b01d4939E', symObjAddr: 0x6C60, symBinAddr: 0xD0A60, symSize: 0x50 }
  - { offsetInCU: 0x17CD6, offset: 0x38BEEB, size: 0x8, addend: 0x0, symName: '__ZN4core3ptr61drop_in_place$LT$syn..path..ParenthesizedGenericArguments$GT$17hc6164008a0f156caE', symObjAddr: 0x6CB0, symBinAddr: 0xD0AB0, symSize: 0x170 }
  - { offsetInCU: 0x182CC, offset: 0x38C4E1, size: 0x8, addend: 0x0, symName: '__ZN4core3ptr62drop_in_place$LT$syn..path..AngleBracketedGenericArguments$GT$17h0299086782c6da12E', symObjAddr: 0x6E20, symBinAddr: 0xD0C20, symSize: 0x120 }
  - { offsetInCU: 0x18717, offset: 0x38C92C, size: 0x8, addend: 0x0, symName: '__ZN4core3ptr63drop_in_place$LT$alloc..boxed..Box$LT$syn..lit..LitRepr$GT$$GT$17hf2595df28a7ce13bE.llvm.15529210683465630096', symObjAddr: 0x6F40, symBinAddr: 0xD0D40, symSize: 0x60 }
  - { offsetInCU: 0x18A1E, offset: 0x38CC33, size: 0x8, addend: 0x0, symName: '__ZN4core3ptr64drop_in_place$LT$alloc..boxed..Box$LT$syn..pat..FieldPat$GT$$GT$17hb9cdd4a04c64745aE', symObjAddr: 0x6FA0, symBinAddr: 0xD0DA0, symSize: 0x140 }
  - { offsetInCU: 0x190EB, offset: 0x38D300, size: 0x8, addend: 0x0, symName: '__ZN4core3ptr64drop_in_place$LT$alloc..boxed..Box$LT$syn..ty..BareFnArg$GT$$GT$17hdf9a99e9a3e43b93E', symObjAddr: 0x70E0, symBinAddr: 0xD0EE0, symSize: 0x140 }
  - { offsetInCU: 0x19640, offset: 0x38D855, size: 0x8, addend: 0x0, symName: '__ZN4core3ptr65drop_in_place$LT$alloc..vec..Vec$LT$proc_macro..TokenTree$GT$$GT$17h07ad17327f0607d0E.llvm.15529210683465630096', symObjAddr: 0x7220, symBinAddr: 0xD1020, symSize: 0x110 }
  - { offsetInCU: 0x19A38, offset: 0x38DC4D, size: 0x8, addend: 0x0, symName: '__ZN4core3ptr65drop_in_place$LT$core..option..Option$LT$syn..expr..Label$GT$$GT$17h7370f4cd7d051021E', symObjAddr: 0x7330, symBinAddr: 0xD1130, symSize: 0x30 }
  - { offsetInCU: 0x19B72, offset: 0x38DD87, size: 0x8, addend: 0x0, symName: '__ZN4core3ptr65drop_in_place$LT$core..option..Option$LT$syn..path..QSelf$GT$$GT$17h9bc6bd805f4b805bE', symObjAddr: 0x7360, symBinAddr: 0xD1160, symSize: 0x50 }
  - { offsetInCU: 0x19CF3, offset: 0x38DF08, size: 0x8, addend: 0x0, symName: '__ZN4core3ptr66drop_in_place$LT$core..option..Option$LT$syn..pat..PatRest$GT$$GT$17h56243b82155d1306E', symObjAddr: 0x73B0, symBinAddr: 0xD11B0, symSize: 0xE0 }
  - { offsetInCU: 0x19FE7, offset: 0x38E1FC, size: 0x8, addend: 0x0, symName: '__ZN4core3ptr67drop_in_place$LT$alloc..boxed..Box$LT$syn..expr..FieldValue$GT$$GT$17hdb569e1e168cfcafE', symObjAddr: 0x7490, symBinAddr: 0xD1290, symSize: 0x140 }
  - { offsetInCU: 0x1A51C, offset: 0x38E731, size: 0x8, addend: 0x0, symName: '__ZN4core3ptr68drop_in_place$LT$alloc..boxed..Box$LT$syn..path..PathSegment$GT$$GT$17h8bc236a2626e080dE', symObjAddr: 0x75D0, symBinAddr: 0xD13D0, symSize: 0x1B0 }
  - { offsetInCU: 0x1AC2A, offset: 0x38EE3F, size: 0x8, addend: 0x0, symName: '__ZN4core3ptr70drop_in_place$LT$core..option..Option$LT$syn..ty..BareVariadic$GT$$GT$17h891315fdf14c9598E', symObjAddr: 0x7780, symBinAddr: 0xD1580, symSize: 0x100 }
  - { offsetInCU: 0x1B061, offset: 0x38F276, size: 0x8, addend: 0x0, symName: '__ZN4core3ptr72drop_in_place$LT$alloc..boxed..Box$LT$syn..path..GenericArgument$GT$$GT$17ha22f3de00ed22d7dE', symObjAddr: 0x7880, symBinAddr: 0xD1680, symSize: 0x1D0 }
  - { offsetInCU: 0x1B5FC, offset: 0x38F811, size: 0x8, addend: 0x0, symName: '__ZN4core3ptr72drop_in_place$LT$core..option..Option$LT$syn..lifetime..Lifetime$GT$$GT$17h738a5902efee9f55E', symObjAddr: 0x7A50, symBinAddr: 0xD1850, symSize: 0x30 }
  - { offsetInCU: 0x1B717, offset: 0x38F92C, size: 0x8, addend: 0x0, symName: '__ZN4core3ptr73drop_in_place$LT$alloc..boxed..Box$LT$syn..generics..GenericParam$GT$$GT$17h4a82c3bd6b9e6f81E', symObjAddr: 0x7A80, symBinAddr: 0xD1880, symSize: 0x80 }
  - { offsetInCU: 0x1B88D, offset: 0x38FAA2, size: 0x8, addend: 0x0, symName: '__ZN4core3ptr75drop_in_place$LT$alloc..boxed..Box$LT$syn..generics..TypeParamBound$GT$$GT$17h47c0b9686bcdda20E', symObjAddr: 0x7B00, symBinAddr: 0xD1900, symSize: 0xC0 }
  - { offsetInCU: 0x1BBE1, offset: 0x38FDF6, size: 0x8, addend: 0x0, symName: '__ZN4core3ptr86drop_in_place$LT$syn..punctuated..Punctuated$LT$syn..pat..Pat$C$syn..token..Or$GT$$GT$17h028803b51a0e008cE', symObjAddr: 0x7BC0, symBinAddr: 0xD19C0, symSize: 0x120 }
  - { offsetInCU: 0x1C05C, offset: 0x390271, size: 0x8, addend: 0x0, symName: '__ZN4core3ptr87drop_in_place$LT$core..option..Option$LT$alloc..boxed..Box$LT$syn..pat..Pat$GT$$GT$$GT$17h47e4534cb825f5fbE', symObjAddr: 0x7CE0, symBinAddr: 0xD1AE0, symSize: 0x50 }
  - { offsetInCU: 0x1C1CC, offset: 0x3903E1, size: 0x8, addend: 0x0, symName: '__ZN4core3ptr87drop_in_place$LT$core..option..Option$LT$alloc..boxed..Box$LT$syn..ty..Type$GT$$GT$$GT$17hb21c4c429b95d768E', symObjAddr: 0x7D30, symBinAddr: 0xD1B30, symSize: 0x50 }
  - { offsetInCU: 0x1C33C, offset: 0x390551, size: 0x8, addend: 0x0, symName: '__ZN4core3ptr89drop_in_place$LT$core..option..Option$LT$alloc..boxed..Box$LT$syn..expr..Expr$GT$$GT$$GT$17h0b10c8a8945d61ceE', symObjAddr: 0x7D80, symBinAddr: 0xD1B80, symSize: 0x50 }
  - { offsetInCU: 0x1C4EA, offset: 0x3906FF, size: 0x8, addend: 0x0, symName: '__ZN4core3ptr89drop_in_place$LT$syn..punctuated..Punctuated$LT$syn..pat..Pat$C$syn..token..Comma$GT$$GT$17h0f70228e7daac378E', symObjAddr: 0x7DD0, symBinAddr: 0xD1BD0, symSize: 0x120 }
  - { offsetInCU: 0x1C97C, offset: 0x390B91, size: 0x8, addend: 0x0, symName: '__ZN4core3ptr89drop_in_place$LT$syn..punctuated..Punctuated$LT$syn..ty..Type$C$syn..token..Comma$GT$$GT$17h0317a8a9919e8789E', symObjAddr: 0x7EF0, symBinAddr: 0xD1CF0, symSize: 0x120 }
  - { offsetInCU: 0x1CDF7, offset: 0x39100C, size: 0x8, addend: 0x0, symName: '__ZN4core3ptr90drop_in_place$LT$core..option..Option$LT$syn..path..AngleBracketedGenericArguments$GT$$GT$17h9646b437ffecef94E', symObjAddr: 0x8010, symBinAddr: 0xD1E10, symSize: 0x130 }
  - { offsetInCU: 0x1D299, offset: 0x3914AE, size: 0x8, addend: 0x0, symName: '__ZN4core3ptr91drop_in_place$LT$syn..punctuated..Punctuated$LT$syn..expr..Expr$C$syn..token..Comma$GT$$GT$17hd3047ab334148524E', symObjAddr: 0x8140, symBinAddr: 0xD1F40, symSize: 0x120 }
  - { offsetInCU: 0x1D727, offset: 0x39193C, size: 0x8, addend: 0x0, symName: '__ZN4core3ptr94drop_in_place$LT$syn..punctuated..Punctuated$LT$syn..pat..FieldPat$C$syn..token..Comma$GT$$GT$17h7ace9efb18f43d12E', symObjAddr: 0x8260, symBinAddr: 0xD2060, symSize: 0xF0 }
  - { offsetInCU: 0x1DA26, offset: 0x391C3B, size: 0x8, addend: 0x0, symName: '__ZN4core3ptr94drop_in_place$LT$syn..punctuated..Punctuated$LT$syn..ty..BareFnArg$C$syn..token..Comma$GT$$GT$17hb29c6edaabe01c76E', symObjAddr: 0x8350, symBinAddr: 0xD2150, symSize: 0xF0 }
  - { offsetInCU: 0x1DD27, offset: 0x391F3C, size: 0x8, addend: 0x0, symName: '__ZN4core3ptr96drop_in_place$LT$core..option..Option$LT$alloc..boxed..Box$LT$syn..path..PathSegment$GT$$GT$$GT$17hd919256ec958e698E', symObjAddr: 0x8440, symBinAddr: 0xD2240, symSize: 0xA0 }
  - { offsetInCU: 0x1DFA6, offset: 0x3921BB, size: 0x8, addend: 0x0, symName: '__ZN4core3ptr97drop_in_place$LT$syn..punctuated..Punctuated$LT$syn..expr..FieldValue$C$syn..token..Comma$GT$$GT$17he241ea7a3c55d267E', symObjAddr: 0x84E0, symBinAddr: 0xD22E0, symSize: 0xF0 }
  - { offsetInCU: 0x1E2A3, offset: 0x3924B8, size: 0x8, addend: 0x0, symName: '__ZN4core3ptr98drop_in_place$LT$alloc..vec..Vec$LT$$LP$syn..path..GenericArgument$C$syn..token..Comma$RP$$GT$$GT$17ha96f98c42a71b3f5E', symObjAddr: 0x85D0, symBinAddr: 0xD23D0, symSize: 0xD0 }
  - { offsetInCU: 0x1E5E3, offset: 0x3927F8, size: 0x8, addend: 0x0, symName: '__ZN4core3ptr98drop_in_place$LT$syn..punctuated..Punctuated$LT$syn..lifetime..Lifetime$C$syn..token..Plus$GT$$GT$17hb8f4279048db7792E', symObjAddr: 0x86A0, symBinAddr: 0xD24A0, symSize: 0xD0 }
  - { offsetInCU: 0x290A7, offset: 0x39D2BC, size: 0x8, addend: 0x0, symName: __ZN3syn3lit6LitStr10parse_with17h68c4c065479f5d55E, symObjAddr: 0x0, symBinAddr: 0xC9E00, symSize: 0x420 }
  - { offsetInCU: 0x2A56A, offset: 0x39E77F, size: 0x8, addend: 0x0, symName: __ZN3syn3lit6LitStr10parse_with17h6d623330627168fcE, symObjAddr: 0x420, symBinAddr: 0xCA220, symSize: 0x370 }
  - { offsetInCU: 0x2B134, offset: 0x39F349, size: 0x8, addend: 0x0, symName: __ZN3syn3lit6LitStr10parse_with17h8960d18cdcb2f066E, symObjAddr: 0x790, symBinAddr: 0xCA590, symSize: 0x450 }
  - { offsetInCU: 0x2BFD8, offset: 0x3A01ED, size: 0x8, addend: 0x0, symName: __ZN3syn3lit6LitStr10parse_with17h8bba42796a8a67b5E, symObjAddr: 0xBE0, symBinAddr: 0xCA9E0, symSize: 0x360 }
  - { offsetInCU: 0x2CB5C, offset: 0x3A0D71, size: 0x8, addend: 0x0, symName: __ZN3syn3lit6LitStr10parse_with17ha52c3a7f16afb67dE, symObjAddr: 0xF40, symBinAddr: 0xCAD40, symSize: 0x370 }
  - { offsetInCU: 0x2E219, offset: 0x3A242E, size: 0x8, addend: 0x0, symName: __ZN5quote9to_tokens8ToTokens17into_token_stream17hf0798c28acf40665E, symObjAddr: 0x87E0, symBinAddr: 0xD2570, symSize: 0xD2 }
  - { offsetInCU: 0x1E, offset: 0x3A4C06, size: 0x8, addend: 0x0, symName: '__ZN60_$LT$alloc..string..String$u20$as$u20$core..fmt..Display$GT$3fmt17h0d0eb46f3054e2dfE', symObjAddr: 0x0, symBinAddr: 0xD2650, symSize: 0x20 }
  - { offsetInCU: 0xC0D, offset: 0x3A57F5, size: 0x8, addend: 0x0, symName: '__ZN12serde_derive9internals5check38check_internal_tag_field_name_conflict28_$u7b$$u7b$closure$u7d$$u7d$17h94defc715ced359bE', symObjAddr: 0x1620, symBinAddr: 0xD3C70, symSize: 0x88 }
  - { offsetInCU: 0xE3A, offset: 0x3A5A22, size: 0x8, addend: 0x0, symName: __ZN12serde_derive9internals5check5check17h6e39bc9f7e72cf16E, symObjAddr: 0x20, symBinAddr: 0xD2670, symSize: 0x1600 }
  - { offsetInCU: 0x9F4E, offset: 0x3AEB36, size: 0x8, addend: 0x0, symName: '__ZN60_$LT$alloc..string..String$u20$as$u20$core..fmt..Display$GT$3fmt17h0d0eb46f3054e2dfE', symObjAddr: 0x0, symBinAddr: 0xD2650, symSize: 0x20 }
  - { offsetInCU: 0x1E, offset: 0x3B64AF, size: 0x8, addend: 0x0, symName: '__ZN5alloc3str21_$LT$impl$u20$str$GT$7replace17h40ffa8b3bc9e5354E', symObjAddr: 0x0, symBinAddr: 0xD3D00, symSize: 0x210 }
  - { offsetInCU: 0x22DD, offset: 0x3B876E, size: 0x8, addend: 0x0, symName: '__ZN80_$LT$serde_derive..internals..case..ParseError$u20$as$u20$core..fmt..Display$GT$3fmt17hb8d484ae4ba55010E', symObjAddr: 0x1900, symBinAddr: 0xD5600, symSize: 0x1EB }
  - { offsetInCU: 0x2B56, offset: 0x3B8FE7, size: 0x8, addend: 0x0, symName: '__ZN5alloc3str21_$LT$impl$u20$str$GT$7replace17h40ffa8b3bc9e5354E', symObjAddr: 0x0, symBinAddr: 0xD3D00, symSize: 0x210 }
  - { offsetInCU: 0x4246, offset: 0x3BA6D7, size: 0x8, addend: 0x0, symName: __ZN12serde_derive9internals4case10RenameRule8from_str17h124433d22a7dc98fE, symObjAddr: 0x210, symBinAddr: 0xD3F10, symSize: 0x190 }
  - { offsetInCU: 0x491E, offset: 0x3BADAF, size: 0x8, addend: 0x0, symName: __ZN12serde_derive9internals4case10RenameRule16apply_to_variant17h4f2068096b1235f6E, symObjAddr: 0x3A0, symBinAddr: 0xD40A0, symSize: 0xB10 }
  - { offsetInCU: 0x6B6D, offset: 0x3BCFFE, size: 0x8, addend: 0x0, symName: __ZN12serde_derive9internals4case10RenameRule14apply_to_field17h1a77babc8f409b4fE, symObjAddr: 0xEB0, symBinAddr: 0xD4BB0, symSize: 0xA50 }
  - { offsetInCU: 0x1E, offset: 0x3BF8A8, size: 0x8, addend: 0x0, symName: '__ZN4core3ops8function5impls79_$LT$impl$u20$core..ops..function..FnMut$LT$A$GT$$u20$for$u20$$RF$mut$u20$F$GT$8call_mut17ha8068eeab22b3b99E', symObjAddr: 0x0, symBinAddr: 0xD57F0, symSize: 0x400 }
  - { offsetInCU: 0x17EC, offset: 0x3C1076, size: 0x8, addend: 0x0, symName: __ZN12serde_derive7pretend12pretend_used17h529cd8fd5f90e820E, symObjAddr: 0x7A0, symBinAddr: 0xD5F90, symSize: 0x19D7 }
  - { offsetInCU: 0x499A, offset: 0x3C4224, size: 0x8, addend: 0x0, symName: '__ZN4core3ptr45drop_in_place$LT$proc_macro2..TokenStream$GT$17h725968a5788a0c43E', symObjAddr: 0x400, symBinAddr: 0xD5BF0, symSize: 0x140 }
  - { offsetInCU: 0x4E15, offset: 0x3C469F, size: 0x8, addend: 0x0, symName: '__ZN4core3ptr62drop_in_place$LT$alloc..vec..Vec$LT$proc_macro2..Ident$GT$$GT$17hd48d23b6f25ff074E', symObjAddr: 0x540, symBinAddr: 0xD5D30, symSize: 0x90 }
  - { offsetInCU: 0x509D, offset: 0x3C4927, size: 0x8, addend: 0x0, symName: '__ZN4core3ptr65drop_in_place$LT$alloc..vec..Vec$LT$proc_macro..TokenTree$GT$$GT$17h07ad17327f0607d0E', symObjAddr: 0x5D0, symBinAddr: 0xD5DC0, symSize: 0x110 }
  - { offsetInCU: 0x54B4, offset: 0x3C4D3E, size: 0x8, addend: 0x0, symName: '__ZN4core3ptr68drop_in_place$LT$alloc..vec..Vec$LT$proc_macro2..TokenStream$GT$$GT$17h89f8e818f58e8351E', symObjAddr: 0x6E0, symBinAddr: 0xD5ED0, symSize: 0xC0 }
  - { offsetInCU: 0x8A2F, offset: 0x3C82B9, size: 0x8, addend: 0x0, symName: '__ZN4core3ops8function5impls79_$LT$impl$u20$core..ops..function..FnMut$LT$A$GT$$u20$for$u20$$RF$mut$u20$F$GT$8call_mut17ha8068eeab22b3b99E', symObjAddr: 0x0, symBinAddr: 0xD57F0, symSize: 0x400 }
  - { offsetInCU: 0x1E, offset: 0x3D2046, size: 0x8, addend: 0x0, symName: __ZN10proc_macro6bridge6client14HandleCounters3get17h2c76d49220b98e92E, symObjAddr: 0x0, symBinAddr: 0xD7970, symSize: 0x10 }
  - { offsetInCU: 0x40, offset: 0x3D2068, size: 0x8, addend: 0x0, symName: ___rustc_proc_macro_decls_47f42c4ee3ead4ab__, symObjAddr: 0x8A00, symBinAddr: 0x345888, symSize: 0x0 }
  - { offsetInCU: 0x4F, offset: 0x3D2077, size: 0x8, addend: 0x0, symName: __ZN12serde_derive16derive_serialize17h58d11e93da0a26c8E, symObjAddr: 0x76C0, symBinAddr: 0xDF030, symSize: 0x1E0 }
  - { offsetInCU: 0x403, offset: 0x3D242B, size: 0x8, addend: 0x0, symName: __ZN12serde_derive18derive_deserialize17h93989f04e4b2c09fE, symObjAddr: 0x78A0, symBinAddr: 0xDF210, symSize: 0x1D6 }
  - { offsetInCU: 0x3E64, offset: 0x3D5E8C, size: 0x8, addend: 0x0, symName: '__ZN4core3ptr100drop_in_place$LT$core..option..Option$LT$alloc..boxed..Box$LT$syn..path..GenericArgument$GT$$GT$$GT$17h3c47f80d40da4ae4E', symObjAddr: 0x10, symBinAddr: 0xD7980, symSize: 0x50 }
  - { offsetInCU: 0x4031, offset: 0x3D6059, size: 0x8, addend: 0x0, symName: '__ZN4core3ptr102drop_in_place$LT$syn..punctuated..Punctuated$LT$syn..path..GenericArgument$C$syn..token..Comma$GT$$GT$17hfe8946443591d714E', symObjAddr: 0x60, symBinAddr: 0xD79D0, symSize: 0xF0 }
  - { offsetInCU: 0x4351, offset: 0x3D6379, size: 0x8, addend: 0x0, symName: '__ZN4core3ptr103drop_in_place$LT$core..option..Option$LT$alloc..boxed..Box$LT$syn..generics..TypeParamBound$GT$$GT$$GT$17hb98e913f9a9fba75E', symObjAddr: 0x150, symBinAddr: 0xD7AC0, symSize: 0x50 }
  - { offsetInCU: 0x4616, offset: 0x3D663E, size: 0x8, addend: 0x0, symName: '__ZN4core3ptr103drop_in_place$LT$core..option..Option$LT$alloc..boxed..Box$LT$syn..generics..WherePredicate$GT$$GT$$GT$17ha8f5afb6495c5336E', symObjAddr: 0x1A0, symBinAddr: 0xD7B10, symSize: 0xD0 }
  - { offsetInCU: 0x49AA, offset: 0x3D69D2, size: 0x8, addend: 0x0, symName: '__ZN4core3ptr103drop_in_place$LT$syn..punctuated..Punctuated$LT$syn..generics..GenericParam$C$syn..token..Comma$GT$$GT$17h706e4b03aaf6cee1E', symObjAddr: 0x270, symBinAddr: 0xD7BE0, symSize: 0xF0 }
  - { offsetInCU: 0x4EA5, offset: 0x3D6ECD, size: 0x8, addend: 0x0, symName: '__ZN4core3ptr104drop_in_place$LT$syn..punctuated..Punctuated$LT$syn..generics..TypeParamBound$C$syn..token..Plus$GT$$GT$17h913c045198e2e1fdE', symObjAddr: 0x360, symBinAddr: 0xD7CD0, symSize: 0x240 }
  - { offsetInCU: 0x57DC, offset: 0x3D7804, size: 0x8, addend: 0x0, symName: '__ZN4core3ptr34drop_in_place$LT$syn..lit..Lit$GT$17hab99994a68996a3fE', symObjAddr: 0x5A0, symBinAddr: 0xD7F10, symSize: 0x120 }
  - { offsetInCU: 0x5CCA, offset: 0x3D7CF2, size: 0x8, addend: 0x0, symName: '__ZN4core3ptr34drop_in_place$LT$syn..pat..Pat$GT$17h7d887fadf2c3cc6bE', symObjAddr: 0x6C0, symBinAddr: 0xD8030, symSize: 0xF40 }
  - { offsetInCU: 0x9790, offset: 0x3DB7B8, size: 0x8, addend: 0x0, symName: '__ZN4core3ptr34drop_in_place$LT$syn..ty..Type$GT$17h11a872b3c8e5eef5E', symObjAddr: 0x1600, symBinAddr: 0xD8F70, symSize: 0x580 }
  - { offsetInCU: 0xB019, offset: 0x3DD041, size: 0x8, addend: 0x0, symName: '__ZN4core3ptr36drop_in_place$LT$syn..expr..Expr$GT$17h62bf30adc41c0fafE', symObjAddr: 0x1B80, symBinAddr: 0xD94F0, symSize: 0x2730 }
  - { offsetInCU: 0x14479, offset: 0x3E64A1, size: 0x8, addend: 0x0, symName: '__ZN4core3ptr36drop_in_place$LT$syn..mac..Macro$GT$17ha18d10f1233dedcaE', symObjAddr: 0x42B0, symBinAddr: 0xDBC20, symSize: 0xE0 }
  - { offsetInCU: 0x14803, offset: 0x3E682B, size: 0x8, addend: 0x0, symName: '__ZN4core3ptr36drop_in_place$LT$syn..path..Path$GT$17hcca6c7d030660616E', symObjAddr: 0x4390, symBinAddr: 0xDBD00, symSize: 0x240 }
  - { offsetInCU: 0x1519D, offset: 0x3E71C5, size: 0x8, addend: 0x0, symName: '__ZN4core3ptr37drop_in_place$LT$syn..stmt..Block$GT$17haed62ed48b69364dE', symObjAddr: 0x45D0, symBinAddr: 0xDBF40, symSize: 0xD0 }
  - { offsetInCU: 0x1550F, offset: 0x3E7537, size: 0x8, addend: 0x0, symName: '__ZN4core3ptr38drop_in_place$LT$syn..data..Fields$GT$17h514a9f3887e18379E', symObjAddr: 0x46A0, symBinAddr: 0xDC010, symSize: 0x190 }
  - { offsetInCU: 0x15A13, offset: 0x3E7A3B, size: 0x8, addend: 0x0, symName: '__ZN4core3ptr38drop_in_place$LT$syn..derive..Data$GT$17hd536734690a04c8dE', symObjAddr: 0x4830, symBinAddr: 0xDC1A0, symSize: 0x1D0 }
  - { offsetInCU: 0x160F7, offset: 0x3E811F, size: 0x8, addend: 0x0, symName: '__ZN4core3ptr38drop_in_place$LT$syn..error..Error$GT$17h4794daeab7950c2fE.llvm.11389198362579685996', symObjAddr: 0x4A00, symBinAddr: 0xDC370, symSize: 0x90 }
  - { offsetInCU: 0x163A5, offset: 0x3E83CD, size: 0x8, addend: 0x0, symName: '__ZN4core3ptr38drop_in_place$LT$syn..expr..Member$GT$17h594f47e3350a2be5E', symObjAddr: 0x4A90, symBinAddr: 0xDC400, symSize: 0x30 }
  - { offsetInCU: 0x164A1, offset: 0x3E84C9, size: 0x8, addend: 0x0, symName: '__ZN4core3ptr39drop_in_place$LT$proc_macro2..Ident$GT$17h007be8bd6a71491bE', symObjAddr: 0x4AC0, symBinAddr: 0xDC430, symSize: 0x30 }
  - { offsetInCU: 0x1657E, offset: 0x3E85A6, size: 0x8, addend: 0x0, symName: '__ZN4core3ptr40drop_in_place$LT$syn..ty..ReturnType$GT$17h14f04ba862eb52f4E', symObjAddr: 0x4AF0, symBinAddr: 0xDC460, symSize: 0x50 }
  - { offsetInCU: 0x166EE, offset: 0x3E8716, size: 0x8, addend: 0x0, symName: '__ZN4core3ptr41drop_in_place$LT$syn..expr..ExprConst$GT$17h011fcb0f1d3d0fbcE', symObjAddr: 0x4B40, symBinAddr: 0xDC4B0, symSize: 0x180 }
  - { offsetInCU: 0x16CA7, offset: 0x3E8CCF, size: 0x8, addend: 0x0, symName: '__ZN4core3ptr44drop_in_place$LT$syn..generics..Generics$GT$17he5ddc4e21d959fbdE', symObjAddr: 0x4CC0, symBinAddr: 0xDC630, symSize: 0x40 }
  - { offsetInCU: 0x16CC4, offset: 0x3E8CEC, size: 0x8, addend: 0x0, symName: '__ZN4core3ptr44drop_in_place$LT$syn..lifetime..Lifetime$GT$17h81f5c412fc4e75a1E', symObjAddr: 0x4D00, symBinAddr: 0xDC670, symSize: 0x30 }
  - { offsetInCU: 0x16EF6, offset: 0x3E8F1E, size: 0x8, addend: 0x0, symName: '__ZN4core3ptr45drop_in_place$LT$proc_macro2..TokenStream$GT$17h725968a5788a0c43E', symObjAddr: 0x4D30, symBinAddr: 0xDC6A0, symSize: 0x140 }
  - { offsetInCU: 0x173CE, offset: 0x3E93F6, size: 0x8, addend: 0x0, symName: '__ZN4core3ptr45drop_in_place$LT$syn..derive..DeriveInput$GT$17hac57d0e7f17975e6E.llvm.11389198362579685996', symObjAddr: 0x4E70, symBinAddr: 0xDC7E0, symSize: 0x190 }
  - { offsetInCU: 0x17955, offset: 0x3E997D, size: 0x8, addend: 0x0, symName: '__ZN4core3ptr45drop_in_place$LT$syn..generics..TypeParam$GT$17h2ddacbd5ce28b514E', symObjAddr: 0x5000, symBinAddr: 0xDC970, symSize: 0x230 }
  - { offsetInCU: 0x18196, offset: 0x3EA1BE, size: 0x8, addend: 0x0, symName: '__ZN4core3ptr46drop_in_place$LT$syn..generics..ConstParam$GT$17h847551b4d11dedb8E', symObjAddr: 0x5230, symBinAddr: 0xDCBA0, symSize: 0x150 }
  - { offsetInCU: 0x185E3, offset: 0x3EA60B, size: 0x8, addend: 0x0, symName: '__ZN4core3ptr47drop_in_place$LT$syn..path..GenericArgument$GT$17ha0f8621278069bfaE', symObjAddr: 0x5380, symBinAddr: 0xDCCF0, symSize: 0x450 }
  - { offsetInCU: 0x19359, offset: 0x3EB381, size: 0x8, addend: 0x0, symName: '__ZN4core3ptr49drop_in_place$LT$syn..generics..LifetimeParam$GT$17hd8de96c71b63fc49E', symObjAddr: 0x57D0, symBinAddr: 0xDD140, symSize: 0xF0 }
  - { offsetInCU: 0x1973C, offset: 0x3EB764, size: 0x8, addend: 0x0, symName: '__ZN4core3ptr49drop_in_place$LT$syn..restriction..Visibility$GT$17h4e6e0125596013abE', symObjAddr: 0x58C0, symBinAddr: 0xDD230, symSize: 0x60 }
  - { offsetInCU: 0x198AD, offset: 0x3EB8D5, size: 0x8, addend: 0x0, symName: '__ZN4core3ptr50drop_in_place$LT$syn..generics..TypeParamBound$GT$17hc0b3a8451b112484E', symObjAddr: 0x5920, symBinAddr: 0xDD290, symSize: 0xA0 }
  - { offsetInCU: 0x19A13, offset: 0x3EBA3B, size: 0x8, addend: 0x0, symName: '__ZN4core3ptr58drop_in_place$LT$alloc..vec..Vec$LT$syn..expr..Arm$GT$$GT$17ha6d87cf8cb2f8625E', symObjAddr: 0x59C0, symBinAddr: 0xDD330, symSize: 0xD0 }
  - { offsetInCU: 0x19CD3, offset: 0x3EBCFB, size: 0x8, addend: 0x0, symName: '__ZN4core3ptr59drop_in_place$LT$alloc..boxed..Box$LT$syn..pat..Pat$GT$$GT$17h04b5a49dc338bf9cE', symObjAddr: 0x5A90, symBinAddr: 0xDD400, symSize: 0x50 }
  - { offsetInCU: 0x19E2C, offset: 0x3EBE54, size: 0x8, addend: 0x0, symName: '__ZN4core3ptr59drop_in_place$LT$alloc..boxed..Box$LT$syn..ty..Type$GT$$GT$17hfb8a09f23f7902beE', symObjAddr: 0x5AE0, symBinAddr: 0xDD450, symSize: 0x50 }
  - { offsetInCU: 0x19F85, offset: 0x3EBFAD, size: 0x8, addend: 0x0, symName: '__ZN4core3ptr61drop_in_place$LT$alloc..boxed..Box$LT$syn..expr..Expr$GT$$GT$17hfe67d291b01d4939E', symObjAddr: 0x5B30, symBinAddr: 0xDD4A0, symSize: 0x50 }
  - { offsetInCU: 0x1A0DE, offset: 0x3EC106, size: 0x8, addend: 0x0, symName: '__ZN4core3ptr61drop_in_place$LT$syn..path..ParenthesizedGenericArguments$GT$17hc6164008a0f156caE', symObjAddr: 0x5B80, symBinAddr: 0xDD4F0, symSize: 0x170 }
  - { offsetInCU: 0x1A6E7, offset: 0x3EC70F, size: 0x8, addend: 0x0, symName: '__ZN4core3ptr63drop_in_place$LT$alloc..boxed..Box$LT$syn..lit..LitRepr$GT$$GT$17hf2595df28a7ce13bE', symObjAddr: 0x5CF0, symBinAddr: 0xDD660, symSize: 0x60 }
  - { offsetInCU: 0x1A9EE, offset: 0x3ECA16, size: 0x8, addend: 0x0, symName: '__ZN4core3ptr64drop_in_place$LT$alloc..boxed..Box$LT$syn..pat..FieldPat$GT$$GT$17hb9cdd4a04c64745aE', symObjAddr: 0x5D50, symBinAddr: 0xDD6C0, symSize: 0x140 }
  - { offsetInCU: 0x1B0BB, offset: 0x3ED0E3, size: 0x8, addend: 0x0, symName: '__ZN4core3ptr64drop_in_place$LT$alloc..boxed..Box$LT$syn..ty..BareFnArg$GT$$GT$17hdf9a99e9a3e43b93E', symObjAddr: 0x5E90, symBinAddr: 0xDD800, symSize: 0x140 }
  - { offsetInCU: 0x1B610, offset: 0x3ED638, size: 0x8, addend: 0x0, symName: '__ZN4core3ptr65drop_in_place$LT$alloc..vec..Vec$LT$proc_macro..TokenTree$GT$$GT$17h07ad17327f0607d0E', symObjAddr: 0x5FD0, symBinAddr: 0xDD940, symSize: 0x110 }
  - { offsetInCU: 0x1BA08, offset: 0x3EDA30, size: 0x8, addend: 0x0, symName: '__ZN4core3ptr65drop_in_place$LT$core..option..Option$LT$syn..expr..Label$GT$$GT$17h7370f4cd7d051021E', symObjAddr: 0x60E0, symBinAddr: 0xDDA50, symSize: 0x30 }
  - { offsetInCU: 0x1BB42, offset: 0x3EDB6A, size: 0x8, addend: 0x0, symName: '__ZN4core3ptr66drop_in_place$LT$core..option..Option$LT$syn..pat..PatRest$GT$$GT$17h56243b82155d1306E', symObjAddr: 0x6110, symBinAddr: 0xDDA80, symSize: 0xE0 }
  - { offsetInCU: 0x1BE36, offset: 0x3EDE5E, size: 0x8, addend: 0x0, symName: '__ZN4core3ptr67drop_in_place$LT$alloc..boxed..Box$LT$syn..expr..FieldValue$GT$$GT$17hdb569e1e168cfcafE', symObjAddr: 0x61F0, symBinAddr: 0xDDB60, symSize: 0x140 }
  - { offsetInCU: 0x1C38A, offset: 0x3EE3B2, size: 0x8, addend: 0x0, symName: '__ZN4core3ptr70drop_in_place$LT$core..option..Option$LT$syn..ty..BareVariadic$GT$$GT$17h891315fdf14c9598E', symObjAddr: 0x6330, symBinAddr: 0xDDCA0, symSize: 0x100 }
  - { offsetInCU: 0x1C7C1, offset: 0x3EE7E9, size: 0x8, addend: 0x0, symName: '__ZN4core3ptr72drop_in_place$LT$alloc..boxed..Box$LT$syn..path..GenericArgument$GT$$GT$17ha22f3de00ed22d7dE', symObjAddr: 0x6430, symBinAddr: 0xDDDA0, symSize: 0x2B0 }
  - { offsetInCU: 0x1D1D2, offset: 0x3EF1FA, size: 0x8, addend: 0x0, symName: '__ZN4core3ptr72drop_in_place$LT$core..option..Option$LT$syn..lifetime..Lifetime$GT$$GT$17h738a5902efee9f55E', symObjAddr: 0x66E0, symBinAddr: 0xDE050, symSize: 0x30 }
  - { offsetInCU: 0x1D2ED, offset: 0x3EF315, size: 0x8, addend: 0x0, symName: '__ZN4core3ptr73drop_in_place$LT$alloc..boxed..Box$LT$syn..generics..GenericParam$GT$$GT$17h4a82c3bd6b9e6f81E', symObjAddr: 0x6710, symBinAddr: 0xDE080, symSize: 0x80 }
  - { offsetInCU: 0x1D463, offset: 0x3EF48B, size: 0x8, addend: 0x0, symName: '__ZN4core3ptr75drop_in_place$LT$alloc..boxed..Box$LT$syn..generics..TypeParamBound$GT$$GT$17h47c0b9686bcdda20E', symObjAddr: 0x6790, symBinAddr: 0xDE100, symSize: 0x180 }
  - { offsetInCU: 0x1DA6E, offset: 0x3EFA96, size: 0x8, addend: 0x0, symName: '__ZN4core3ptr75drop_in_place$LT$core..option..Option$LT$syn..generics..WhereClause$GT$$GT$17ha14a8b033395cd67E', symObjAddr: 0x6910, symBinAddr: 0xDE280, symSize: 0x100 }
  - { offsetInCU: 0x1DE25, offset: 0x3EFE4D, size: 0x8, addend: 0x0, symName: '__ZN4core3ptr86drop_in_place$LT$syn..punctuated..Punctuated$LT$syn..pat..Pat$C$syn..token..Or$GT$$GT$17h028803b51a0e008cE', symObjAddr: 0x6A10, symBinAddr: 0xDE380, symSize: 0x120 }
  - { offsetInCU: 0x1E2A0, offset: 0x3F02C8, size: 0x8, addend: 0x0, symName: '__ZN4core3ptr87drop_in_place$LT$core..option..Option$LT$alloc..boxed..Box$LT$syn..pat..Pat$GT$$GT$$GT$17h47e4534cb825f5fbE', symObjAddr: 0x6B30, symBinAddr: 0xDE4A0, symSize: 0x50 }
  - { offsetInCU: 0x1E410, offset: 0x3F0438, size: 0x8, addend: 0x0, symName: '__ZN4core3ptr87drop_in_place$LT$core..option..Option$LT$alloc..boxed..Box$LT$syn..ty..Type$GT$$GT$$GT$17hb21c4c429b95d768E', symObjAddr: 0x6B80, symBinAddr: 0xDE4F0, symSize: 0x50 }
  - { offsetInCU: 0x1E580, offset: 0x3F05A8, size: 0x8, addend: 0x0, symName: '__ZN4core3ptr89drop_in_place$LT$core..option..Option$LT$alloc..boxed..Box$LT$syn..expr..Expr$GT$$GT$$GT$17h0b10c8a8945d61ceE', symObjAddr: 0x6BD0, symBinAddr: 0xDE540, symSize: 0x50 }
  - { offsetInCU: 0x1E72E, offset: 0x3F0756, size: 0x8, addend: 0x0, symName: '__ZN4core3ptr89drop_in_place$LT$syn..punctuated..Punctuated$LT$syn..pat..Pat$C$syn..token..Comma$GT$$GT$17h0f70228e7daac378E', symObjAddr: 0x6C20, symBinAddr: 0xDE590, symSize: 0x120 }
  - { offsetInCU: 0x1EC1D, offset: 0x3F0C45, size: 0x8, addend: 0x0, symName: '__ZN4core3ptr90drop_in_place$LT$core..option..Option$LT$alloc..boxed..Box$LT$syn..data..Field$GT$$GT$$GT$17h31d400183c362571E', symObjAddr: 0x6D40, symBinAddr: 0xDE6B0, symSize: 0x1B0 }
  - { offsetInCU: 0x1F2FA, offset: 0x3F1322, size: 0x8, addend: 0x0, symName: '__ZN4core3ptr91drop_in_place$LT$syn..punctuated..Punctuated$LT$syn..expr..Expr$C$syn..token..Comma$GT$$GT$17hd3047ab334148524E', symObjAddr: 0x6EF0, symBinAddr: 0xDE860, symSize: 0x120 }
  - { offsetInCU: 0x1F804, offset: 0x3F182C, size: 0x8, addend: 0x0, symName: '__ZN4core3ptr92drop_in_place$LT$core..option..Option$LT$alloc..boxed..Box$LT$syn..data..Variant$GT$$GT$$GT$17h55fdacea6abb1afeE', symObjAddr: 0x7010, symBinAddr: 0xDE980, symSize: 0x170 }
  - { offsetInCU: 0x1FD9F, offset: 0x3F1DC7, size: 0x8, addend: 0x0, symName: '__ZN4core3ptr94drop_in_place$LT$syn..punctuated..Punctuated$LT$syn..pat..FieldPat$C$syn..token..Comma$GT$$GT$17h7ace9efb18f43d12E', symObjAddr: 0x7180, symBinAddr: 0xDEAF0, symSize: 0xF0 }
  - { offsetInCU: 0x2009E, offset: 0x3F20C6, size: 0x8, addend: 0x0, symName: '__ZN4core3ptr94drop_in_place$LT$syn..punctuated..Punctuated$LT$syn..ty..BareFnArg$C$syn..token..Comma$GT$$GT$17hb29c6edaabe01c76E', symObjAddr: 0x7270, symBinAddr: 0xDEBE0, symSize: 0xF0 }
  - { offsetInCU: 0x2039F, offset: 0x3F23C7, size: 0x8, addend: 0x0, symName: '__ZN4core3ptr96drop_in_place$LT$core..option..Option$LT$alloc..boxed..Box$LT$syn..path..PathSegment$GT$$GT$$GT$17hd919256ec958e698E', symObjAddr: 0x7360, symBinAddr: 0xDECD0, symSize: 0x1A0 }
  - { offsetInCU: 0x20A60, offset: 0x3F2A88, size: 0x8, addend: 0x0, symName: '__ZN4core3ptr97drop_in_place$LT$syn..punctuated..Punctuated$LT$syn..expr..FieldValue$C$syn..token..Comma$GT$$GT$17he241ea7a3c55d267E', symObjAddr: 0x7500, symBinAddr: 0xDEE70, symSize: 0xF0 }
  - { offsetInCU: 0x20DD9, offset: 0x3F2E01, size: 0x8, addend: 0x0, symName: '__ZN4core3ptr98drop_in_place$LT$syn..punctuated..Punctuated$LT$syn..lifetime..Lifetime$C$syn..token..Plus$GT$$GT$17hb8f4279048db7792E', symObjAddr: 0x75F0, symBinAddr: 0xDEF60, symSize: 0xD0 }
  - { offsetInCU: 0x21B71, offset: 0x3F3B99, size: 0x8, addend: 0x0, symName: __ZN10proc_macro6bridge6client14HandleCounters3get17h2c76d49220b98e92E, symObjAddr: 0x0, symBinAddr: 0xD7970, symSize: 0x10 }
  - { offsetInCU: 0x1E, offset: 0x3FE1D5, size: 0x8, addend: 0x0, symName: __ZN3syn11parse_quote5parse17h0d481fde756739ebE, symObjAddr: 0x0, symBinAddr: 0xDF3F0, symSize: 0x560 }
  - { offsetInCU: 0x1C3E, offset: 0x3FFDF5, size: 0x8, addend: 0x0, symName: '__ZN4core3ptr100drop_in_place$LT$core..option..Option$LT$alloc..boxed..Box$LT$syn..path..GenericArgument$GT$$GT$$GT$17h3c47f80d40da4ae4E', symObjAddr: 0x9D0, symBinAddr: 0xDFD70, symSize: 0x50 }
  - { offsetInCU: 0x1FBD, offset: 0x400174, size: 0x8, addend: 0x0, symName: '__ZN4core3ptr100drop_in_place$LT$syn..punctuated..Punctuated$LT$syn..path..PathSegment$C$syn..token..PathSep$GT$$GT$17hd34064dc93b0b427E', symObjAddr: 0xA20, symBinAddr: 0xDFDC0, symSize: 0x270 }
  - { offsetInCU: 0x2960, offset: 0x400B17, size: 0x8, addend: 0x0, symName: '__ZN4core3ptr103drop_in_place$LT$core..option..Option$LT$alloc..boxed..Box$LT$syn..generics..TypeParamBound$GT$$GT$$GT$17hb98e913f9a9fba75E', symObjAddr: 0xC90, symBinAddr: 0xE0030, symSize: 0x50 }
  - { offsetInCU: 0x2B6B, offset: 0x400D22, size: 0x8, addend: 0x0, symName: '__ZN4core3ptr103drop_in_place$LT$syn..punctuated..Punctuated$LT$syn..generics..GenericParam$C$syn..token..Comma$GT$$GT$17h706e4b03aaf6cee1E', symObjAddr: 0xCE0, symBinAddr: 0xE0080, symSize: 0xF0 }
  - { offsetInCU: 0x3047, offset: 0x4011FE, size: 0x8, addend: 0x0, symName: '__ZN4core3ptr104drop_in_place$LT$syn..punctuated..Punctuated$LT$syn..generics..TypeParamBound$C$syn..token..Plus$GT$$GT$17h913c045198e2e1fdE', symObjAddr: 0xDD0, symBinAddr: 0xE0170, symSize: 0x190 }
  - { offsetInCU: 0x36E6, offset: 0x40189D, size: 0x8, addend: 0x0, symName: '__ZN4core3ptr34drop_in_place$LT$syn..lit..Lit$GT$17hab99994a68996a3fE', symObjAddr: 0xF60, symBinAddr: 0xE0300, symSize: 0x120 }
  - { offsetInCU: 0x3B96, offset: 0x401D4D, size: 0x8, addend: 0x0, symName: '__ZN4core3ptr34drop_in_place$LT$syn..pat..Pat$GT$17h7d887fadf2c3cc6bE', symObjAddr: 0x1080, symBinAddr: 0xE0420, symSize: 0x1070 }
  - { offsetInCU: 0x7AB7, offset: 0x405C6E, size: 0x8, addend: 0x0, symName: '__ZN4core3ptr34drop_in_place$LT$syn..ty..Type$GT$17h11a872b3c8e5eef5E', symObjAddr: 0x20F0, symBinAddr: 0xE1490, symSize: 0x460 }
  - { offsetInCU: 0x8CED, offset: 0x406EA4, size: 0x8, addend: 0x0, symName: '__ZN4core3ptr36drop_in_place$LT$syn..expr..Expr$GT$17h62bf30adc41c0fafE', symObjAddr: 0x2550, symBinAddr: 0xE18F0, symSize: 0x2810 }
  - { offsetInCU: 0x12617, offset: 0x4107CE, size: 0x8, addend: 0x0, symName: '__ZN4core3ptr36drop_in_place$LT$syn..mac..Macro$GT$17ha18d10f1233dedcaE', symObjAddr: 0x4D60, symBinAddr: 0xE4100, symSize: 0x40 }
  - { offsetInCU: 0x12651, offset: 0x410808, size: 0x8, addend: 0x0, symName: '__ZN4core3ptr36drop_in_place$LT$syn..path..Path$GT$17hcca6c7d030660616E', symObjAddr: 0x4DA0, symBinAddr: 0xE4140, symSize: 0x240 }
  - { offsetInCU: 0x12FEB, offset: 0x4111A2, size: 0x8, addend: 0x0, symName: '__ZN4core3ptr37drop_in_place$LT$syn..stmt..Block$GT$17haed62ed48b69364dE', symObjAddr: 0x4FE0, symBinAddr: 0xE4380, symSize: 0xD0 }
  - { offsetInCU: 0x13300, offset: 0x4114B7, size: 0x8, addend: 0x0, symName: '__ZN4core3ptr38drop_in_place$LT$syn..error..Error$GT$17h4794daeab7950c2fE', symObjAddr: 0x50B0, symBinAddr: 0xE4450, symSize: 0x90 }
  - { offsetInCU: 0x135C1, offset: 0x411778, size: 0x8, addend: 0x0, symName: '__ZN4core3ptr38drop_in_place$LT$syn..expr..Member$GT$17h594f47e3350a2be5E', symObjAddr: 0x5140, symBinAddr: 0xE44E0, symSize: 0x30 }
  - { offsetInCU: 0x136BD, offset: 0x411874, size: 0x8, addend: 0x0, symName: '__ZN4core3ptr38drop_in_place$LT$syn..ty..TypePath$GT$17h31304b32ced8e42aE', symObjAddr: 0x5170, symBinAddr: 0xE4510, symSize: 0x70 }
  - { offsetInCU: 0x13875, offset: 0x411A2C, size: 0x8, addend: 0x0, symName: '__ZN4core3ptr39drop_in_place$LT$proc_macro2..Ident$GT$17h007be8bd6a71491bE', symObjAddr: 0x51E0, symBinAddr: 0xE4580, symSize: 0x30 }
  - { offsetInCU: 0x13A88, offset: 0x411C3F, size: 0x8, addend: 0x0, symName: '__ZN4core3ptr39drop_in_place$LT$syn..buffer..Entry$GT$17hf8a37ae2db8c8c8eE', symObjAddr: 0x5210, symBinAddr: 0xE45B0, symSize: 0xB0 }
  - { offsetInCU: 0x13E13, offset: 0x411FCA, size: 0x8, addend: 0x0, symName: '__ZN4core3ptr40drop_in_place$LT$syn..ty..ReturnType$GT$17h14f04ba862eb52f4E', symObjAddr: 0x52C0, symBinAddr: 0xE4660, symSize: 0x50 }
  - { offsetInCU: 0x13F83, offset: 0x41213A, size: 0x8, addend: 0x0, symName: '__ZN4core3ptr41drop_in_place$LT$syn..expr..ExprConst$GT$17h011fcb0f1d3d0fbcE', symObjAddr: 0x5310, symBinAddr: 0xE46B0, symSize: 0x180 }
  - { offsetInCU: 0x1453C, offset: 0x4126F3, size: 0x8, addend: 0x0, symName: '__ZN4core3ptr44drop_in_place$LT$syn..lifetime..Lifetime$GT$17h81f5c412fc4e75a1E', symObjAddr: 0x5490, symBinAddr: 0xE4830, symSize: 0x30 }
  - { offsetInCU: 0x14638, offset: 0x4127EF, size: 0x8, addend: 0x0, symName: '__ZN4core3ptr44drop_in_place$LT$syn..parse..ParseBuffer$GT$17h82fe204940e318b0E', symObjAddr: 0x54C0, symBinAddr: 0xE4860, symSize: 0x70 }
  - { offsetInCU: 0x149B4, offset: 0x412B6B, size: 0x8, addend: 0x0, symName: '__ZN4core3ptr45drop_in_place$LT$proc_macro2..TokenStream$GT$17h725968a5788a0c43E', symObjAddr: 0x5530, symBinAddr: 0xE48D0, symSize: 0x140 }
  - { offsetInCU: 0x14E10, offset: 0x412FC7, size: 0x8, addend: 0x0, symName: '__ZN4core3ptr45drop_in_place$LT$syn..buffer..TokenBuffer$GT$17h1ed6fa8196fb852bE', symObjAddr: 0x5670, symBinAddr: 0xE4A10, symSize: 0xC0 }
  - { offsetInCU: 0x15078, offset: 0x41322F, size: 0x8, addend: 0x0, symName: '__ZN4core3ptr45drop_in_place$LT$syn..generics..TypeParam$GT$17h2ddacbd5ce28b514E', symObjAddr: 0x5730, symBinAddr: 0xE4AD0, symSize: 0x230 }
  - { offsetInCU: 0x158B9, offset: 0x413A70, size: 0x8, addend: 0x0, symName: '__ZN4core3ptr46drop_in_place$LT$syn..generics..ConstParam$GT$17h847551b4d11dedb8E', symObjAddr: 0x5960, symBinAddr: 0xE4D00, symSize: 0x150 }
  - { offsetInCU: 0x15D06, offset: 0x413EBD, size: 0x8, addend: 0x0, symName: '__ZN4core3ptr47drop_in_place$LT$syn..path..GenericArgument$GT$17ha0f8621278069bfaE', symObjAddr: 0x5AB0, symBinAddr: 0xE4E50, symSize: 0x4A0 }
  - { offsetInCU: 0x16E0C, offset: 0x414FC3, size: 0x8, addend: 0x0, symName: '__ZN4core3ptr49drop_in_place$LT$syn..generics..LifetimeParam$GT$17hd8de96c71b63fc49E', symObjAddr: 0x5F50, symBinAddr: 0xE52F0, symSize: 0xF0 }
  - { offsetInCU: 0x171EF, offset: 0x4153A6, size: 0x8, addend: 0x0, symName: '__ZN4core3ptr50drop_in_place$LT$syn..generics..TypeParamBound$GT$17hc0b3a8451b112484E', symObjAddr: 0x6040, symBinAddr: 0xE53E0, symSize: 0x180 }
  - { offsetInCU: 0x17639, offset: 0x4157F0, size: 0x8, addend: 0x0, symName: '__ZN4core3ptr58drop_in_place$LT$alloc..vec..Vec$LT$syn..expr..Arm$GT$$GT$17ha6d87cf8cb2f8625E', symObjAddr: 0x61C0, symBinAddr: 0xE5560, symSize: 0xD0 }
  - { offsetInCU: 0x178F9, offset: 0x415AB0, size: 0x8, addend: 0x0, symName: '__ZN4core3ptr59drop_in_place$LT$alloc..boxed..Box$LT$syn..pat..Pat$GT$$GT$17h04b5a49dc338bf9cE', symObjAddr: 0x6290, symBinAddr: 0xE5630, symSize: 0x50 }
  - { offsetInCU: 0x17A52, offset: 0x415C09, size: 0x8, addend: 0x0, symName: '__ZN4core3ptr59drop_in_place$LT$alloc..boxed..Box$LT$syn..ty..Type$GT$$GT$17hfb8a09f23f7902beE', symObjAddr: 0x62E0, symBinAddr: 0xE5680, symSize: 0x50 }
  - { offsetInCU: 0x17BAB, offset: 0x415D62, size: 0x8, addend: 0x0, symName: '__ZN4core3ptr61drop_in_place$LT$alloc..boxed..Box$LT$syn..expr..Expr$GT$$GT$17hfe67d291b01d4939E', symObjAddr: 0x6330, symBinAddr: 0xE56D0, symSize: 0x50 }
  - { offsetInCU: 0x17D80, offset: 0x415F37, size: 0x8, addend: 0x0, symName: '__ZN4core3ptr61drop_in_place$LT$syn..path..ParenthesizedGenericArguments$GT$17hc6164008a0f156caE', symObjAddr: 0x6380, symBinAddr: 0xE5720, symSize: 0x170 }
  - { offsetInCU: 0x18376, offset: 0x41652D, size: 0x8, addend: 0x0, symName: '__ZN4core3ptr62drop_in_place$LT$syn..path..AngleBracketedGenericArguments$GT$17h0299086782c6da12E', symObjAddr: 0x64F0, symBinAddr: 0xE5890, symSize: 0x120 }
  - { offsetInCU: 0x187C1, offset: 0x416978, size: 0x8, addend: 0x0, symName: '__ZN4core3ptr63drop_in_place$LT$alloc..boxed..Box$LT$syn..lit..LitRepr$GT$$GT$17hf2595df28a7ce13bE', symObjAddr: 0x6610, symBinAddr: 0xE59B0, symSize: 0x60 }
  - { offsetInCU: 0x18AC8, offset: 0x416C7F, size: 0x8, addend: 0x0, symName: '__ZN4core3ptr64drop_in_place$LT$alloc..boxed..Box$LT$syn..pat..FieldPat$GT$$GT$17hb9cdd4a04c64745aE', symObjAddr: 0x6670, symBinAddr: 0xE5A10, symSize: 0x140 }
  - { offsetInCU: 0x19195, offset: 0x41734C, size: 0x8, addend: 0x0, symName: '__ZN4core3ptr64drop_in_place$LT$alloc..boxed..Box$LT$syn..ty..BareFnArg$GT$$GT$17hdf9a99e9a3e43b93E', symObjAddr: 0x67B0, symBinAddr: 0xE5B50, symSize: 0x140 }
  - { offsetInCU: 0x196EA, offset: 0x4178A1, size: 0x8, addend: 0x0, symName: '__ZN4core3ptr65drop_in_place$LT$alloc..vec..Vec$LT$proc_macro..TokenTree$GT$$GT$17h07ad17327f0607d0E', symObjAddr: 0x68F0, symBinAddr: 0xE5C90, symSize: 0x110 }
  - { offsetInCU: 0x19AE2, offset: 0x417C99, size: 0x8, addend: 0x0, symName: '__ZN4core3ptr65drop_in_place$LT$core..option..Option$LT$syn..expr..Label$GT$$GT$17h7370f4cd7d051021E', symObjAddr: 0x6A00, symBinAddr: 0xE5DA0, symSize: 0x30 }
  - { offsetInCU: 0x19C1C, offset: 0x417DD3, size: 0x8, addend: 0x0, symName: '__ZN4core3ptr65drop_in_place$LT$core..option..Option$LT$syn..path..QSelf$GT$$GT$17h9bc6bd805f4b805bE', symObjAddr: 0x6A30, symBinAddr: 0xE5DD0, symSize: 0x50 }
  - { offsetInCU: 0x19DB3, offset: 0x417F6A, size: 0x8, addend: 0x0, symName: '__ZN4core3ptr66drop_in_place$LT$core..option..Option$LT$syn..pat..PatRest$GT$$GT$17h56243b82155d1306E', symObjAddr: 0x6A80, symBinAddr: 0xE5E20, symSize: 0xE0 }
  - { offsetInCU: 0x1A0A7, offset: 0x41825E, size: 0x8, addend: 0x0, symName: '__ZN4core3ptr67drop_in_place$LT$alloc..boxed..Box$LT$syn..expr..FieldValue$GT$$GT$17hdb569e1e168cfcafE', symObjAddr: 0x6B60, symBinAddr: 0xE5F00, symSize: 0x140 }
  - { offsetInCU: 0x1A5DC, offset: 0x418793, size: 0x8, addend: 0x0, symName: '__ZN4core3ptr68drop_in_place$LT$alloc..boxed..Box$LT$syn..path..PathSegment$GT$$GT$17h8bc236a2626e080dE', symObjAddr: 0x6CA0, symBinAddr: 0xE6040, symSize: 0x1B0 }
  - { offsetInCU: 0x1ACEA, offset: 0x418EA1, size: 0x8, addend: 0x0, symName: '__ZN4core3ptr70drop_in_place$LT$core..option..Option$LT$syn..ty..BareVariadic$GT$$GT$17h891315fdf14c9598E', symObjAddr: 0x6E50, symBinAddr: 0xE61F0, symSize: 0x100 }
  - { offsetInCU: 0x1B121, offset: 0x4192D8, size: 0x8, addend: 0x0, symName: '__ZN4core3ptr72drop_in_place$LT$alloc..boxed..Box$LT$syn..path..GenericArgument$GT$$GT$17ha22f3de00ed22d7dE', symObjAddr: 0x6F50, symBinAddr: 0xE62F0, symSize: 0x1D0 }
  - { offsetInCU: 0x1B6BC, offset: 0x419873, size: 0x8, addend: 0x0, symName: '__ZN4core3ptr72drop_in_place$LT$core..option..Option$LT$syn..lifetime..Lifetime$GT$$GT$17h738a5902efee9f55E', symObjAddr: 0x7120, symBinAddr: 0xE64C0, symSize: 0x30 }
  - { offsetInCU: 0x1B7D7, offset: 0x41998E, size: 0x8, addend: 0x0, symName: '__ZN4core3ptr73drop_in_place$LT$alloc..boxed..Box$LT$syn..generics..GenericParam$GT$$GT$17h4a82c3bd6b9e6f81E', symObjAddr: 0x7150, symBinAddr: 0xE64F0, symSize: 0x80 }
  - { offsetInCU: 0x1B94D, offset: 0x419B04, size: 0x8, addend: 0x0, symName: '__ZN4core3ptr75drop_in_place$LT$alloc..boxed..Box$LT$syn..generics..TypeParamBound$GT$$GT$17h47c0b9686bcdda20E', symObjAddr: 0x71D0, symBinAddr: 0xE6570, symSize: 0xC0 }
  - { offsetInCU: 0x1BCA1, offset: 0x419E58, size: 0x8, addend: 0x0, symName: '__ZN4core3ptr86drop_in_place$LT$syn..punctuated..Punctuated$LT$syn..pat..Pat$C$syn..token..Or$GT$$GT$17h028803b51a0e008cE', symObjAddr: 0x7290, symBinAddr: 0xE6630, symSize: 0x120 }
  - { offsetInCU: 0x1C11C, offset: 0x41A2D3, size: 0x8, addend: 0x0, symName: '__ZN4core3ptr87drop_in_place$LT$core..option..Option$LT$alloc..boxed..Box$LT$syn..pat..Pat$GT$$GT$$GT$17h47e4534cb825f5fbE', symObjAddr: 0x73B0, symBinAddr: 0xE6750, symSize: 0x50 }
  - { offsetInCU: 0x1C28C, offset: 0x41A443, size: 0x8, addend: 0x0, symName: '__ZN4core3ptr87drop_in_place$LT$core..option..Option$LT$alloc..boxed..Box$LT$syn..ty..Type$GT$$GT$$GT$17hb21c4c429b95d768E', symObjAddr: 0x7400, symBinAddr: 0xE67A0, symSize: 0x50 }
  - { offsetInCU: 0x1C3FC, offset: 0x41A5B3, size: 0x8, addend: 0x0, symName: '__ZN4core3ptr89drop_in_place$LT$core..option..Option$LT$alloc..boxed..Box$LT$syn..expr..Expr$GT$$GT$$GT$17h0b10c8a8945d61ceE', symObjAddr: 0x7450, symBinAddr: 0xE67F0, symSize: 0x50 }
  - { offsetInCU: 0x1C5AA, offset: 0x41A761, size: 0x8, addend: 0x0, symName: '__ZN4core3ptr89drop_in_place$LT$syn..punctuated..Punctuated$LT$syn..pat..Pat$C$syn..token..Comma$GT$$GT$17h0f70228e7daac378E', symObjAddr: 0x74A0, symBinAddr: 0xE6840, symSize: 0x120 }
  - { offsetInCU: 0x1CA3C, offset: 0x41ABF3, size: 0x8, addend: 0x0, symName: '__ZN4core3ptr89drop_in_place$LT$syn..punctuated..Punctuated$LT$syn..ty..Type$C$syn..token..Comma$GT$$GT$17h0317a8a9919e8789E', symObjAddr: 0x75C0, symBinAddr: 0xE6960, symSize: 0x120 }
  - { offsetInCU: 0x1CEB7, offset: 0x41B06E, size: 0x8, addend: 0x0, symName: '__ZN4core3ptr90drop_in_place$LT$core..option..Option$LT$syn..path..AngleBracketedGenericArguments$GT$$GT$17h9646b437ffecef94E', symObjAddr: 0x76E0, symBinAddr: 0xE6A80, symSize: 0x130 }
  - { offsetInCU: 0x1D359, offset: 0x41B510, size: 0x8, addend: 0x0, symName: '__ZN4core3ptr91drop_in_place$LT$syn..punctuated..Punctuated$LT$syn..expr..Expr$C$syn..token..Comma$GT$$GT$17hd3047ab334148524E', symObjAddr: 0x7810, symBinAddr: 0xE6BB0, symSize: 0x120 }
  - { offsetInCU: 0x1D7E7, offset: 0x41B99E, size: 0x8, addend: 0x0, symName: '__ZN4core3ptr94drop_in_place$LT$syn..punctuated..Punctuated$LT$syn..pat..FieldPat$C$syn..token..Comma$GT$$GT$17h7ace9efb18f43d12E', symObjAddr: 0x7930, symBinAddr: 0xE6CD0, symSize: 0xF0 }
  - { offsetInCU: 0x1DAE6, offset: 0x41BC9D, size: 0x8, addend: 0x0, symName: '__ZN4core3ptr94drop_in_place$LT$syn..punctuated..Punctuated$LT$syn..ty..BareFnArg$C$syn..token..Comma$GT$$GT$17hb29c6edaabe01c76E', symObjAddr: 0x7A20, symBinAddr: 0xE6DC0, symSize: 0xF0 }
  - { offsetInCU: 0x1DDE7, offset: 0x41BF9E, size: 0x8, addend: 0x0, symName: '__ZN4core3ptr96drop_in_place$LT$core..option..Option$LT$alloc..boxed..Box$LT$syn..path..PathSegment$GT$$GT$$GT$17hd919256ec958e698E', symObjAddr: 0x7B10, symBinAddr: 0xE6EB0, symSize: 0xA0 }
  - { offsetInCU: 0x1E066, offset: 0x41C21D, size: 0x8, addend: 0x0, symName: '__ZN4core3ptr97drop_in_place$LT$syn..punctuated..Punctuated$LT$syn..expr..FieldValue$C$syn..token..Comma$GT$$GT$17he241ea7a3c55d267E', symObjAddr: 0x7BB0, symBinAddr: 0xE6F50, symSize: 0xF0 }
  - { offsetInCU: 0x1E363, offset: 0x41C51A, size: 0x8, addend: 0x0, symName: '__ZN4core3ptr98drop_in_place$LT$alloc..vec..Vec$LT$$LP$syn..path..GenericArgument$C$syn..token..Comma$RP$$GT$$GT$17ha96f98c42a71b3f5E', symObjAddr: 0x7CA0, symBinAddr: 0xE7040, symSize: 0xD0 }
  - { offsetInCU: 0x1E6A3, offset: 0x41C85A, size: 0x8, addend: 0x0, symName: '__ZN4core3ptr98drop_in_place$LT$syn..punctuated..Punctuated$LT$syn..lifetime..Lifetime$C$syn..token..Plus$GT$$GT$17hb8f4279048db7792E', symObjAddr: 0x7D70, symBinAddr: 0xE7110, symSize: 0xC6 }
  - { offsetInCU: 0x260E7, offset: 0x42429E, size: 0x8, addend: 0x0, symName: __ZN3syn11parse_quote5parse17h0d481fde756739ebE, symObjAddr: 0x0, symBinAddr: 0xDF3F0, symSize: 0x560 }
  - { offsetInCU: 0x26C72, offset: 0x424E29, size: 0x8, addend: 0x0, symName: __ZN3syn11parse_quote5parse17h46e01b89d8089412E, symObjAddr: 0x560, symBinAddr: 0xDF950, symSize: 0x420 }
  - { offsetInCU: 0x27494, offset: 0x42564B, size: 0x8, addend: 0x0, symName: __ZN3syn11parse_quote5parse18panic_cold_display17h78f3bbc5aa8a1841E, symObjAddr: 0x980, symBinAddr: 0x2B9FA0, symSize: 0x50 }
  - { offsetInCU: 0x1E, offset: 0x42A9C8, size: 0x8, addend: 0x0, symName: '__ZN4core3ptr100drop_in_place$LT$core..option..Option$LT$alloc..boxed..Box$LT$syn..path..GenericArgument$GT$$GT$$GT$17h3c47f80d40da4ae4E', symObjAddr: 0x0, symBinAddr: 0xE71E0, symSize: 0x50 }
  - { offsetInCU: 0x1A65, offset: 0x42C40F, size: 0x8, addend: 0x0, symName: '__ZN4core3ptr100drop_in_place$LT$core..option..Option$LT$alloc..boxed..Box$LT$syn..path..GenericArgument$GT$$GT$$GT$17h3c47f80d40da4ae4E', symObjAddr: 0x0, symBinAddr: 0xE71E0, symSize: 0x50 }
  - { offsetInCU: 0x1C32, offset: 0x42C5DC, size: 0x8, addend: 0x0, symName: '__ZN4core3ptr102drop_in_place$LT$syn..punctuated..Punctuated$LT$syn..path..GenericArgument$C$syn..token..Comma$GT$$GT$17hfe8946443591d714E', symObjAddr: 0x50, symBinAddr: 0xE7230, symSize: 0xF0 }
  - { offsetInCU: 0x1F52, offset: 0x42C8FC, size: 0x8, addend: 0x0, symName: '__ZN4core3ptr103drop_in_place$LT$core..option..Option$LT$alloc..boxed..Box$LT$syn..generics..TypeParamBound$GT$$GT$$GT$17hb98e913f9a9fba75E', symObjAddr: 0x140, symBinAddr: 0xE7320, symSize: 0x50 }
  - { offsetInCU: 0x215D, offset: 0x42CB07, size: 0x8, addend: 0x0, symName: '__ZN4core3ptr103drop_in_place$LT$syn..punctuated..Punctuated$LT$syn..generics..GenericParam$C$syn..token..Comma$GT$$GT$17h706e4b03aaf6cee1E', symObjAddr: 0x190, symBinAddr: 0xE7370, symSize: 0xF0 }
  - { offsetInCU: 0x2731, offset: 0x42D0DB, size: 0x8, addend: 0x0, symName: '__ZN4core3ptr104drop_in_place$LT$syn..punctuated..Punctuated$LT$syn..generics..TypeParamBound$C$syn..token..Plus$GT$$GT$17h913c045198e2e1fdE', symObjAddr: 0x280, symBinAddr: 0xE7460, symSize: 0x240 }
  - { offsetInCU: 0x3068, offset: 0x42DA12, size: 0x8, addend: 0x0, symName: '__ZN4core3ptr34drop_in_place$LT$syn..lit..Lit$GT$17hab99994a68996a3fE', symObjAddr: 0x4C0, symBinAddr: 0xE76A0, symSize: 0x120 }
  - { offsetInCU: 0x3556, offset: 0x42DF00, size: 0x8, addend: 0x0, symName: '__ZN4core3ptr34drop_in_place$LT$syn..pat..Pat$GT$17h7d887fadf2c3cc6bE', symObjAddr: 0x5E0, symBinAddr: 0xE77C0, symSize: 0xF40 }
  - { offsetInCU: 0x701C, offset: 0x4319C6, size: 0x8, addend: 0x0, symName: '__ZN4core3ptr34drop_in_place$LT$syn..ty..Type$GT$17h11a872b3c8e5eef5E', symObjAddr: 0x1520, symBinAddr: 0xE8700, symSize: 0x580 }
  - { offsetInCU: 0x88A5, offset: 0x43324F, size: 0x8, addend: 0x0, symName: '__ZN4core3ptr36drop_in_place$LT$syn..expr..Expr$GT$17h62bf30adc41c0fafE', symObjAddr: 0x1AA0, symBinAddr: 0xE8C80, symSize: 0x2730 }
  - { offsetInCU: 0x11D05, offset: 0x43C6AF, size: 0x8, addend: 0x0, symName: '__ZN4core3ptr36drop_in_place$LT$syn..mac..Macro$GT$17ha18d10f1233dedcaE', symObjAddr: 0x41D0, symBinAddr: 0xEB3B0, symSize: 0xE0 }
  - { offsetInCU: 0x1208F, offset: 0x43CA39, size: 0x8, addend: 0x0, symName: '__ZN4core3ptr36drop_in_place$LT$syn..path..Path$GT$17hcca6c7d030660616E.llvm.7833109275626956055', symObjAddr: 0x42B0, symBinAddr: 0xEB490, symSize: 0x240 }
  - { offsetInCU: 0x12A29, offset: 0x43D3D3, size: 0x8, addend: 0x0, symName: '__ZN4core3ptr37drop_in_place$LT$syn..stmt..Block$GT$17haed62ed48b69364dE', symObjAddr: 0x44F0, symBinAddr: 0xEB6D0, symSize: 0xD0 }
  - { offsetInCU: 0x12D00, offset: 0x43D6AA, size: 0x8, addend: 0x0, symName: '__ZN4core3ptr38drop_in_place$LT$syn..expr..Member$GT$17h594f47e3350a2be5E', symObjAddr: 0x45C0, symBinAddr: 0xEB7A0, symSize: 0x30 }
  - { offsetInCU: 0x12DFC, offset: 0x43D7A6, size: 0x8, addend: 0x0, symName: '__ZN4core3ptr39drop_in_place$LT$proc_macro2..Ident$GT$17h007be8bd6a71491bE', symObjAddr: 0x45F0, symBinAddr: 0xEB7D0, symSize: 0x30 }
  - { offsetInCU: 0x12ED9, offset: 0x43D883, size: 0x8, addend: 0x0, symName: '__ZN4core3ptr40drop_in_place$LT$syn..ty..ReturnType$GT$17h14f04ba862eb52f4E', symObjAddr: 0x4620, symBinAddr: 0xEB800, symSize: 0x50 }
  - { offsetInCU: 0x13049, offset: 0x43D9F3, size: 0x8, addend: 0x0, symName: '__ZN4core3ptr41drop_in_place$LT$syn..expr..ExprConst$GT$17h011fcb0f1d3d0fbcE', symObjAddr: 0x4670, symBinAddr: 0xEB850, symSize: 0x180 }
  - { offsetInCU: 0x13602, offset: 0x43DFAC, size: 0x8, addend: 0x0, symName: '__ZN4core3ptr44drop_in_place$LT$syn..lifetime..Lifetime$GT$17h81f5c412fc4e75a1E', symObjAddr: 0x47F0, symBinAddr: 0xEB9D0, symSize: 0x30 }
  - { offsetInCU: 0x13834, offset: 0x43E1DE, size: 0x8, addend: 0x0, symName: '__ZN4core3ptr45drop_in_place$LT$proc_macro2..TokenStream$GT$17h725968a5788a0c43E', symObjAddr: 0x4820, symBinAddr: 0xEBA00, symSize: 0x140 }
  - { offsetInCU: 0x13CCE, offset: 0x43E678, size: 0x8, addend: 0x0, symName: '__ZN4core3ptr45drop_in_place$LT$syn..generics..TypeParam$GT$17h2ddacbd5ce28b514E', symObjAddr: 0x4960, symBinAddr: 0xEBB40, symSize: 0x230 }
  - { offsetInCU: 0x1450F, offset: 0x43EEB9, size: 0x8, addend: 0x0, symName: '__ZN4core3ptr46drop_in_place$LT$syn..generics..ConstParam$GT$17h847551b4d11dedb8E', symObjAddr: 0x4B90, symBinAddr: 0xEBD70, symSize: 0x150 }
  - { offsetInCU: 0x1495C, offset: 0x43F306, size: 0x8, addend: 0x0, symName: '__ZN4core3ptr47drop_in_place$LT$syn..path..GenericArgument$GT$17ha0f8621278069bfaE', symObjAddr: 0x4CE0, symBinAddr: 0xEBEC0, symSize: 0x450 }
  - { offsetInCU: 0x156D2, offset: 0x44007C, size: 0x8, addend: 0x0, symName: '__ZN4core3ptr49drop_in_place$LT$syn..generics..LifetimeParam$GT$17hd8de96c71b63fc49E', symObjAddr: 0x5130, symBinAddr: 0xEC310, symSize: 0xF0 }
  - { offsetInCU: 0x15AB5, offset: 0x44045F, size: 0x8, addend: 0x0, symName: '__ZN4core3ptr50drop_in_place$LT$syn..generics..TypeParamBound$GT$17hc0b3a8451b112484E', symObjAddr: 0x5220, symBinAddr: 0xEC400, symSize: 0xA0 }
  - { offsetInCU: 0x15C1B, offset: 0x4405C5, size: 0x8, addend: 0x0, symName: '__ZN4core3ptr58drop_in_place$LT$alloc..vec..Vec$LT$syn..expr..Arm$GT$$GT$17ha6d87cf8cb2f8625E', symObjAddr: 0x52C0, symBinAddr: 0xEC4A0, symSize: 0xD0 }
  - { offsetInCU: 0x15EDB, offset: 0x440885, size: 0x8, addend: 0x0, symName: '__ZN4core3ptr59drop_in_place$LT$alloc..boxed..Box$LT$syn..pat..Pat$GT$$GT$17h04b5a49dc338bf9cE', symObjAddr: 0x5390, symBinAddr: 0xEC570, symSize: 0x50 }
  - { offsetInCU: 0x16034, offset: 0x4409DE, size: 0x8, addend: 0x0, symName: '__ZN4core3ptr59drop_in_place$LT$alloc..boxed..Box$LT$syn..ty..Type$GT$$GT$17hfb8a09f23f7902beE', symObjAddr: 0x53E0, symBinAddr: 0xEC5C0, symSize: 0x50 }
  - { offsetInCU: 0x1618D, offset: 0x440B37, size: 0x8, addend: 0x0, symName: '__ZN4core3ptr61drop_in_place$LT$alloc..boxed..Box$LT$syn..expr..Expr$GT$$GT$17hfe67d291b01d4939E', symObjAddr: 0x5430, symBinAddr: 0xEC610, symSize: 0x50 }
  - { offsetInCU: 0x162E6, offset: 0x440C90, size: 0x8, addend: 0x0, symName: '__ZN4core3ptr61drop_in_place$LT$syn..path..ParenthesizedGenericArguments$GT$17hc6164008a0f156caE', symObjAddr: 0x5480, symBinAddr: 0xEC660, symSize: 0x170 }
  - { offsetInCU: 0x168EF, offset: 0x441299, size: 0x8, addend: 0x0, symName: '__ZN4core3ptr63drop_in_place$LT$alloc..boxed..Box$LT$syn..lit..LitRepr$GT$$GT$17hf2595df28a7ce13bE', symObjAddr: 0x55F0, symBinAddr: 0xEC7D0, symSize: 0x60 }
  - { offsetInCU: 0x16BF6, offset: 0x4415A0, size: 0x8, addend: 0x0, symName: '__ZN4core3ptr64drop_in_place$LT$alloc..boxed..Box$LT$syn..pat..FieldPat$GT$$GT$17hb9cdd4a04c64745aE', symObjAddr: 0x5650, symBinAddr: 0xEC830, symSize: 0x140 }
  - { offsetInCU: 0x172C3, offset: 0x441C6D, size: 0x8, addend: 0x0, symName: '__ZN4core3ptr64drop_in_place$LT$alloc..boxed..Box$LT$syn..ty..BareFnArg$GT$$GT$17hdf9a99e9a3e43b93E', symObjAddr: 0x5790, symBinAddr: 0xEC970, symSize: 0x140 }
  - { offsetInCU: 0x17818, offset: 0x4421C2, size: 0x8, addend: 0x0, symName: '__ZN4core3ptr65drop_in_place$LT$alloc..vec..Vec$LT$proc_macro..TokenTree$GT$$GT$17h07ad17327f0607d0E', symObjAddr: 0x58D0, symBinAddr: 0xECAB0, symSize: 0x110 }
  - { offsetInCU: 0x17C10, offset: 0x4425BA, size: 0x8, addend: 0x0, symName: '__ZN4core3ptr65drop_in_place$LT$core..option..Option$LT$syn..expr..Label$GT$$GT$17h7370f4cd7d051021E', symObjAddr: 0x59E0, symBinAddr: 0xECBC0, symSize: 0x30 }
  - { offsetInCU: 0x17D4A, offset: 0x4426F4, size: 0x8, addend: 0x0, symName: '__ZN4core3ptr66drop_in_place$LT$core..option..Option$LT$syn..pat..PatRest$GT$$GT$17h56243b82155d1306E', symObjAddr: 0x5A10, symBinAddr: 0xECBF0, symSize: 0xE0 }
  - { offsetInCU: 0x1803E, offset: 0x4429E8, size: 0x8, addend: 0x0, symName: '__ZN4core3ptr67drop_in_place$LT$alloc..boxed..Box$LT$syn..expr..FieldValue$GT$$GT$17hdb569e1e168cfcafE', symObjAddr: 0x5AF0, symBinAddr: 0xECCD0, symSize: 0x140 }
  - { offsetInCU: 0x18592, offset: 0x442F3C, size: 0x8, addend: 0x0, symName: '__ZN4core3ptr70drop_in_place$LT$core..option..Option$LT$syn..ty..BareVariadic$GT$$GT$17h891315fdf14c9598E', symObjAddr: 0x5C30, symBinAddr: 0xECE10, symSize: 0x100 }
  - { offsetInCU: 0x189C9, offset: 0x443373, size: 0x8, addend: 0x0, symName: '__ZN4core3ptr72drop_in_place$LT$alloc..boxed..Box$LT$syn..path..GenericArgument$GT$$GT$17ha22f3de00ed22d7dE', symObjAddr: 0x5D30, symBinAddr: 0xECF10, symSize: 0x2B0 }
  - { offsetInCU: 0x193DA, offset: 0x443D84, size: 0x8, addend: 0x0, symName: '__ZN4core3ptr72drop_in_place$LT$core..option..Option$LT$syn..lifetime..Lifetime$GT$$GT$17h738a5902efee9f55E', symObjAddr: 0x5FE0, symBinAddr: 0xED1C0, symSize: 0x30 }
  - { offsetInCU: 0x194F5, offset: 0x443E9F, size: 0x8, addend: 0x0, symName: '__ZN4core3ptr73drop_in_place$LT$alloc..boxed..Box$LT$syn..generics..GenericParam$GT$$GT$17h4a82c3bd6b9e6f81E', symObjAddr: 0x6010, symBinAddr: 0xED1F0, symSize: 0x80 }
  - { offsetInCU: 0x1966B, offset: 0x444015, size: 0x8, addend: 0x0, symName: '__ZN4core3ptr75drop_in_place$LT$alloc..boxed..Box$LT$syn..generics..TypeParamBound$GT$$GT$17h47c0b9686bcdda20E', symObjAddr: 0x6090, symBinAddr: 0xED270, symSize: 0x180 }
  - { offsetInCU: 0x19C76, offset: 0x444620, size: 0x8, addend: 0x0, symName: '__ZN4core3ptr86drop_in_place$LT$syn..punctuated..Punctuated$LT$syn..pat..Pat$C$syn..token..Or$GT$$GT$17h028803b51a0e008cE', symObjAddr: 0x6240, symBinAddr: 0xED3F0, symSize: 0x120 }
  - { offsetInCU: 0x1A0F1, offset: 0x444A9B, size: 0x8, addend: 0x0, symName: '__ZN4core3ptr87drop_in_place$LT$core..option..Option$LT$alloc..boxed..Box$LT$syn..pat..Pat$GT$$GT$$GT$17h47e4534cb825f5fbE', symObjAddr: 0x6360, symBinAddr: 0xED510, symSize: 0x50 }
  - { offsetInCU: 0x1A261, offset: 0x444C0B, size: 0x8, addend: 0x0, symName: '__ZN4core3ptr87drop_in_place$LT$core..option..Option$LT$alloc..boxed..Box$LT$syn..ty..Type$GT$$GT$$GT$17hb21c4c429b95d768E', symObjAddr: 0x63B0, symBinAddr: 0xED560, symSize: 0x50 }
  - { offsetInCU: 0x1A3D1, offset: 0x444D7B, size: 0x8, addend: 0x0, symName: '__ZN4core3ptr89drop_in_place$LT$core..option..Option$LT$alloc..boxed..Box$LT$syn..expr..Expr$GT$$GT$$GT$17h0b10c8a8945d61ceE', symObjAddr: 0x6400, symBinAddr: 0xED5B0, symSize: 0x50 }
  - { offsetInCU: 0x1A57F, offset: 0x444F29, size: 0x8, addend: 0x0, symName: '__ZN4core3ptr89drop_in_place$LT$syn..punctuated..Punctuated$LT$syn..pat..Pat$C$syn..token..Comma$GT$$GT$17h0f70228e7daac378E', symObjAddr: 0x6450, symBinAddr: 0xED600, symSize: 0x120 }
  - { offsetInCU: 0x1AA4F, offset: 0x4453F9, size: 0x8, addend: 0x0, symName: '__ZN4core3ptr91drop_in_place$LT$syn..punctuated..Punctuated$LT$syn..expr..Expr$C$syn..token..Comma$GT$$GT$17hd3047ab334148524E', symObjAddr: 0x6570, symBinAddr: 0xED720, symSize: 0x120 }
  - { offsetInCU: 0x1AEDD, offset: 0x445887, size: 0x8, addend: 0x0, symName: '__ZN4core3ptr94drop_in_place$LT$syn..punctuated..Punctuated$LT$syn..pat..FieldPat$C$syn..token..Comma$GT$$GT$17h7ace9efb18f43d12E', symObjAddr: 0x6690, symBinAddr: 0xED840, symSize: 0xF0 }
  - { offsetInCU: 0x1B1DC, offset: 0x445B86, size: 0x8, addend: 0x0, symName: '__ZN4core3ptr94drop_in_place$LT$syn..punctuated..Punctuated$LT$syn..ty..BareFnArg$C$syn..token..Comma$GT$$GT$17hb29c6edaabe01c76E', symObjAddr: 0x6780, symBinAddr: 0xED930, symSize: 0xF0 }
  - { offsetInCU: 0x1B4DD, offset: 0x445E87, size: 0x8, addend: 0x0, symName: '__ZN4core3ptr96drop_in_place$LT$core..option..Option$LT$alloc..boxed..Box$LT$syn..path..PathSegment$GT$$GT$$GT$17hd919256ec958e698E', symObjAddr: 0x6870, symBinAddr: 0xEDA20, symSize: 0x1A0 }
  - { offsetInCU: 0x1BB9E, offset: 0x446548, size: 0x8, addend: 0x0, symName: '__ZN4core3ptr97drop_in_place$LT$syn..punctuated..Punctuated$LT$syn..expr..FieldValue$C$syn..token..Comma$GT$$GT$17he241ea7a3c55d267E', symObjAddr: 0x6A10, symBinAddr: 0xEDBC0, symSize: 0xF0 }
  - { offsetInCU: 0x1BF17, offset: 0x4468C1, size: 0x8, addend: 0x0, symName: '__ZN4core3ptr98drop_in_place$LT$syn..punctuated..Punctuated$LT$syn..lifetime..Lifetime$C$syn..token..Plus$GT$$GT$17hb8f4279048db7792E', symObjAddr: 0x6B00, symBinAddr: 0xEDCB0, symSize: 0xD0 }
  - { offsetInCU: 0x1EFA2, offset: 0x44994C, size: 0x8, addend: 0x0, symName: __ZN12serde_derive4this9this_type17h34ad6a54db1aff2aE, symObjAddr: 0x6BD0, symBinAddr: 0xEDD80, symSize: 0x240 }
  - { offsetInCU: 0x1F522, offset: 0x449ECC, size: 0x8, addend: 0x0, symName: __ZN12serde_derive4this10this_value17hc0f1a1c42524a90fE, symObjAddr: 0x6E10, symBinAddr: 0xEDFC0, symSize: 0x250 }
  - { offsetInCU: 0x1E, offset: 0x454605, size: 0x8, addend: 0x0, symName: '__ZN108_$LT$alloc..collections..btree..map..Iter$LT$K$C$V$GT$$u20$as$u20$core..iter..traits..iterator..Iterator$GT$4next17h073a6c4152460588E', symObjAddr: 0x0, symBinAddr: 0xEE210, symSize: 0x240 }
  - { offsetInCU: 0x4D5, offset: 0x454ABC, size: 0x8, addend: 0x0, symName: '__ZN4core3ptr140drop_in_place$LT$alloc..collections..btree..map..BTreeMap$LT$syn..lifetime..Lifetime$C$alloc..collections..btree..set_val..SetValZST$GT$$GT$17he8eba3bec44360d7E', symObjAddr: 0x470, symBinAddr: 0xEE680, symSize: 0xD0 }
  - { offsetInCU: 0x866, offset: 0x454E4D, size: 0x8, addend: 0x0, symName: '__ZN4core3ptr44drop_in_place$LT$syn..lifetime..Lifetime$GT$17h81f5c412fc4e75a1E.llvm.14400819758417015927', symObjAddr: 0x5E0, symBinAddr: 0xEE750, symSize: 0x30 }
  - { offsetInCU: 0x2F0C, offset: 0x4574F3, size: 0x8, addend: 0x0, symName: '__ZN108_$LT$alloc..collections..btree..map..Iter$LT$K$C$V$GT$$u20$as$u20$core..iter..traits..iterator..Iterator$GT$4next17h073a6c4152460588E', symObjAddr: 0x0, symBinAddr: 0xEE210, symSize: 0x240 }
  - { offsetInCU: 0x352B, offset: 0x457B12, size: 0x8, addend: 0x0, symName: '__ZN108_$LT$alloc..collections..btree..map..Iter$LT$K$C$V$GT$$u20$as$u20$core..iter..traits..iterator..Iterator$GT$4next17h7d8eb6f427c2e354E', symObjAddr: 0x240, symBinAddr: 0xEE450, symSize: 0x230 }
  - { offsetInCU: 0x3CA3, offset: 0x45828A, size: 0x8, addend: 0x0, symName: '__ZN99_$LT$alloc..collections..btree..map..BTreeMap$LT$K$C$V$C$A$GT$$u20$as$u20$core..ops..drop..Drop$GT$4drop17h0ffe90d171911f5eE', symObjAddr: 0x16C0, symBinAddr: 0xEF7D0, symSize: 0xD0 }
  - { offsetInCU: 0x3FB4, offset: 0x45859B, size: 0x8, addend: 0x0, symName: '__ZN99_$LT$alloc..collections..btree..map..BTreeMap$LT$K$C$V$C$A$GT$$u20$as$u20$core..ops..drop..Drop$GT$4drop17h2847e62a0de5bc53E', symObjAddr: 0x1790, symBinAddr: 0xEF8A0, symSize: 0xC7 }
  - { offsetInCU: 0x4947, offset: 0x458F2E, size: 0x8, addend: 0x0, symName: '__ZN96_$LT$alloc..collections..btree..map..BTreeMap$LT$K$C$V$C$A$GT$$u20$as$u20$core..clone..Clone$GT$5clone13clone_subtree17h3ea7907971e4b248E.llvm.14400819758417015927', symObjAddr: 0x1170, symBinAddr: 0xEF2E0, symSize: 0x4F0 }
  - { offsetInCU: 0x6518, offset: 0x45AAFF, size: 0x8, addend: 0x0, symName: '__ZN5alloc11collections5btree3map25BTreeMap$LT$K$C$V$C$A$GT$3get17h04a5716a09306891E', symObjAddr: 0x610, symBinAddr: 0xEE780, symSize: 0xB0 }
  - { offsetInCU: 0x6A6D, offset: 0x45B054, size: 0x8, addend: 0x0, symName: '__ZN5alloc11collections5btree3map25BTreeMap$LT$K$C$V$C$A$GT$6insert17hb76b89c507ce63f0E', symObjAddr: 0x6C0, symBinAddr: 0xEE830, symSize: 0x190 }
  - { offsetInCU: 0x70DB, offset: 0x45B6C2, size: 0x8, addend: 0x0, symName: '__ZN5alloc11collections5btree3map25BTreeMap$LT$K$C$V$C$A$GT$6insert17hdbb86bf701d7cf6dE', symObjAddr: 0x850, symBinAddr: 0xEE9C0, symSize: 0x160 }
  - { offsetInCU: 0x7689, offset: 0x45BC70, size: 0x8, addend: 0x0, symName: '__ZN5alloc11collections5btree3map25IntoIter$LT$K$C$V$C$A$GT$10dying_next17h16cf36865d64a399E.llvm.14400819758417015927', symObjAddr: 0x9B0, symBinAddr: 0xEEB20, symSize: 0x3E0 }
  - { offsetInCU: 0x80A1, offset: 0x45C688, size: 0x8, addend: 0x0, symName: '__ZN5alloc11collections5btree3map25IntoIter$LT$K$C$V$C$A$GT$10dying_next17hd69fa004cb97742fE.llvm.14400819758417015927', symObjAddr: 0xD90, symBinAddr: 0xEEF00, symSize: 0x3E0 }
  - { offsetInCU: 0x1E, offset: 0x4634BA, size: 0x8, addend: 0x0, symName: __ZN3syn4attr9Attribute15parse_args_with17h00109046683895f2E, symObjAddr: 0x0, symBinAddr: 0xEF970, symSize: 0x310 }
  - { offsetInCU: 0xB645, offset: 0x46EAE1, size: 0x8, addend: 0x0, symName: __ZN3syn4attr9Attribute15parse_args_with17h00109046683895f2E, symObjAddr: 0x0, symBinAddr: 0xEF970, symSize: 0x310 }
  - { offsetInCU: 0xC39A, offset: 0x46F836, size: 0x8, addend: 0x0, symName: __ZN3syn4attr9Attribute15parse_args_with17h11f31a0fe05947a7E, symObjAddr: 0x310, symBinAddr: 0xEFC80, symSize: 0x310 }
  - { offsetInCU: 0xD0EE, offset: 0x47058A, size: 0x8, addend: 0x0, symName: __ZN3syn4attr9Attribute15parse_args_with17hd73d9eb18a6ba016E, symObjAddr: 0x620, symBinAddr: 0xEFF90, symSize: 0x310 }
  - { offsetInCU: 0xDE1B, offset: 0x4712B7, size: 0x8, addend: 0x0, symName: __ZN3syn4attr9Attribute15parse_args_with17hefef255a67b45b2cE, symObjAddr: 0x930, symBinAddr: 0xF02A0, symSize: 0x2EB }
  - { offsetInCU: 0x15F0, offset: 0x473CE3, size: 0x8, addend: 0x0, symName: '__ZN4core3ptr100drop_in_place$LT$core..option..Option$LT$alloc..boxed..Box$LT$syn..path..GenericArgument$GT$$GT$$GT$17h3c47f80d40da4ae4E', symObjAddr: 0xA0, symBinAddr: 0xF0590, symSize: 0x50 }
  - { offsetInCU: 0x17BD, offset: 0x473EB0, size: 0x8, addend: 0x0, symName: '__ZN4core3ptr102drop_in_place$LT$syn..punctuated..Punctuated$LT$syn..path..GenericArgument$C$syn..token..Comma$GT$$GT$17hfe8946443591d714E', symObjAddr: 0xF0, symBinAddr: 0xF05E0, symSize: 0xF0 }
  - { offsetInCU: 0x1ADD, offset: 0x4741D0, size: 0x8, addend: 0x0, symName: '__ZN4core3ptr103drop_in_place$LT$core..option..Option$LT$alloc..boxed..Box$LT$syn..generics..TypeParamBound$GT$$GT$$GT$17hb98e913f9a9fba75E', symObjAddr: 0x1E0, symBinAddr: 0xF06D0, symSize: 0x50 }
  - { offsetInCU: 0x1CE8, offset: 0x4743DB, size: 0x8, addend: 0x0, symName: '__ZN4core3ptr103drop_in_place$LT$syn..punctuated..Punctuated$LT$syn..generics..GenericParam$C$syn..token..Comma$GT$$GT$17h706e4b03aaf6cee1E', symObjAddr: 0x230, symBinAddr: 0xF0720, symSize: 0xF0 }
  - { offsetInCU: 0x22BC, offset: 0x4749AF, size: 0x8, addend: 0x0, symName: '__ZN4core3ptr104drop_in_place$LT$syn..punctuated..Punctuated$LT$syn..generics..TypeParamBound$C$syn..token..Plus$GT$$GT$17h913c045198e2e1fdE', symObjAddr: 0x320, symBinAddr: 0xF0810, symSize: 0x240 }
  - { offsetInCU: 0x2BF3, offset: 0x4752E6, size: 0x8, addend: 0x0, symName: '__ZN4core3ptr34drop_in_place$LT$syn..lit..Lit$GT$17hab99994a68996a3fE', symObjAddr: 0x560, symBinAddr: 0xF0A50, symSize: 0x120 }
  - { offsetInCU: 0x30E1, offset: 0x4757D4, size: 0x8, addend: 0x0, symName: '__ZN4core3ptr34drop_in_place$LT$syn..pat..Pat$GT$17h7d887fadf2c3cc6bE', symObjAddr: 0x680, symBinAddr: 0xF0B70, symSize: 0xF40 }
  - { offsetInCU: 0x6BA7, offset: 0x47929A, size: 0x8, addend: 0x0, symName: '__ZN4core3ptr34drop_in_place$LT$syn..ty..Type$GT$17h11a872b3c8e5eef5E', symObjAddr: 0x15C0, symBinAddr: 0xF1AB0, symSize: 0x580 }
  - { offsetInCU: 0x8430, offset: 0x47AB23, size: 0x8, addend: 0x0, symName: '__ZN4core3ptr36drop_in_place$LT$syn..expr..Expr$GT$17h62bf30adc41c0fafE', symObjAddr: 0x1B40, symBinAddr: 0xF2030, symSize: 0x2730 }
  - { offsetInCU: 0x11890, offset: 0x483F83, size: 0x8, addend: 0x0, symName: '__ZN4core3ptr36drop_in_place$LT$syn..mac..Macro$GT$17ha18d10f1233dedcaE', symObjAddr: 0x4270, symBinAddr: 0xF4760, symSize: 0xE0 }
  - { offsetInCU: 0x11C1A, offset: 0x48430D, size: 0x8, addend: 0x0, symName: '__ZN4core3ptr36drop_in_place$LT$syn..path..Path$GT$17hcca6c7d030660616E.llvm.6492520695887982177', symObjAddr: 0x4350, symBinAddr: 0xF4840, symSize: 0x240 }
  - { offsetInCU: 0x125B4, offset: 0x484CA7, size: 0x8, addend: 0x0, symName: '__ZN4core3ptr37drop_in_place$LT$syn..stmt..Block$GT$17haed62ed48b69364dE', symObjAddr: 0x4590, symBinAddr: 0xF4A80, symSize: 0xD0 }
  - { offsetInCU: 0x1288B, offset: 0x484F7E, size: 0x8, addend: 0x0, symName: '__ZN4core3ptr38drop_in_place$LT$syn..expr..Member$GT$17h594f47e3350a2be5E', symObjAddr: 0x4660, symBinAddr: 0xF4B50, symSize: 0x30 }
  - { offsetInCU: 0x12987, offset: 0x48507A, size: 0x8, addend: 0x0, symName: '__ZN4core3ptr39drop_in_place$LT$proc_macro2..Ident$GT$17h007be8bd6a71491bE', symObjAddr: 0x4690, symBinAddr: 0xF4B80, symSize: 0x30 }
  - { offsetInCU: 0x12A64, offset: 0x485157, size: 0x8, addend: 0x0, symName: '__ZN4core3ptr40drop_in_place$LT$syn..ty..ReturnType$GT$17h14f04ba862eb52f4E', symObjAddr: 0x46C0, symBinAddr: 0xF4BB0, symSize: 0x50 }
  - { offsetInCU: 0x12BD4, offset: 0x4852C7, size: 0x8, addend: 0x0, symName: '__ZN4core3ptr41drop_in_place$LT$syn..expr..ExprConst$GT$17h011fcb0f1d3d0fbcE', symObjAddr: 0x4710, symBinAddr: 0xF4C00, symSize: 0x180 }
  - { offsetInCU: 0x1318D, offset: 0x485880, size: 0x8, addend: 0x0, symName: '__ZN4core3ptr44drop_in_place$LT$syn..lifetime..Lifetime$GT$17h81f5c412fc4e75a1E', symObjAddr: 0x4890, symBinAddr: 0xF4D80, symSize: 0x30 }
  - { offsetInCU: 0x133BF, offset: 0x485AB2, size: 0x8, addend: 0x0, symName: '__ZN4core3ptr45drop_in_place$LT$proc_macro2..TokenStream$GT$17h725968a5788a0c43E.llvm.6492520695887982177', symObjAddr: 0x48C0, symBinAddr: 0xF4DB0, symSize: 0x140 }
  - { offsetInCU: 0x13859, offset: 0x485F4C, size: 0x8, addend: 0x0, symName: '__ZN4core3ptr45drop_in_place$LT$syn..generics..TypeParam$GT$17h2ddacbd5ce28b514E', symObjAddr: 0x4A00, symBinAddr: 0xF4EF0, symSize: 0x230 }
  - { offsetInCU: 0x1409A, offset: 0x48678D, size: 0x8, addend: 0x0, symName: '__ZN4core3ptr46drop_in_place$LT$syn..generics..ConstParam$GT$17h847551b4d11dedb8E', symObjAddr: 0x4C30, symBinAddr: 0xF5120, symSize: 0x150 }
  - { offsetInCU: 0x144E7, offset: 0x486BDA, size: 0x8, addend: 0x0, symName: '__ZN4core3ptr47drop_in_place$LT$syn..path..GenericArgument$GT$17ha0f8621278069bfaE', symObjAddr: 0x4D80, symBinAddr: 0xF5270, symSize: 0x450 }
  - { offsetInCU: 0x1525D, offset: 0x487950, size: 0x8, addend: 0x0, symName: '__ZN4core3ptr49drop_in_place$LT$syn..generics..LifetimeParam$GT$17hd8de96c71b63fc49E', symObjAddr: 0x51D0, symBinAddr: 0xF56C0, symSize: 0xF0 }
  - { offsetInCU: 0x15640, offset: 0x487D33, size: 0x8, addend: 0x0, symName: '__ZN4core3ptr50drop_in_place$LT$syn..generics..TypeParamBound$GT$17hc0b3a8451b112484E', symObjAddr: 0x52C0, symBinAddr: 0xF57B0, symSize: 0xA0 }
  - { offsetInCU: 0x157A6, offset: 0x487E99, size: 0x8, addend: 0x0, symName: '__ZN4core3ptr58drop_in_place$LT$alloc..vec..Vec$LT$syn..expr..Arm$GT$$GT$17ha6d87cf8cb2f8625E', symObjAddr: 0x5360, symBinAddr: 0xF5850, symSize: 0xD0 }
  - { offsetInCU: 0x15A66, offset: 0x488159, size: 0x8, addend: 0x0, symName: '__ZN4core3ptr59drop_in_place$LT$alloc..boxed..Box$LT$syn..pat..Pat$GT$$GT$17h04b5a49dc338bf9cE', symObjAddr: 0x5430, symBinAddr: 0xF5920, symSize: 0x50 }
  - { offsetInCU: 0x15BBF, offset: 0x4882B2, size: 0x8, addend: 0x0, symName: '__ZN4core3ptr59drop_in_place$LT$alloc..boxed..Box$LT$syn..ty..Type$GT$$GT$17hfb8a09f23f7902beE', symObjAddr: 0x5480, symBinAddr: 0xF5970, symSize: 0x50 }
  - { offsetInCU: 0x15D18, offset: 0x48840B, size: 0x8, addend: 0x0, symName: '__ZN4core3ptr61drop_in_place$LT$alloc..boxed..Box$LT$syn..expr..Expr$GT$$GT$17hfe67d291b01d4939E', symObjAddr: 0x54D0, symBinAddr: 0xF59C0, symSize: 0x50 }
  - { offsetInCU: 0x15E71, offset: 0x488564, size: 0x8, addend: 0x0, symName: '__ZN4core3ptr61drop_in_place$LT$syn..path..ParenthesizedGenericArguments$GT$17hc6164008a0f156caE', symObjAddr: 0x5520, symBinAddr: 0xF5A10, symSize: 0x170 }
  - { offsetInCU: 0x1647A, offset: 0x488B6D, size: 0x8, addend: 0x0, symName: '__ZN4core3ptr63drop_in_place$LT$alloc..boxed..Box$LT$syn..lit..LitRepr$GT$$GT$17hf2595df28a7ce13bE', symObjAddr: 0x5690, symBinAddr: 0xF5B80, symSize: 0x60 }
  - { offsetInCU: 0x16781, offset: 0x488E74, size: 0x8, addend: 0x0, symName: '__ZN4core3ptr64drop_in_place$LT$alloc..boxed..Box$LT$syn..pat..FieldPat$GT$$GT$17hb9cdd4a04c64745aE', symObjAddr: 0x56F0, symBinAddr: 0xF5BE0, symSize: 0x140 }
  - { offsetInCU: 0x16E4E, offset: 0x489541, size: 0x8, addend: 0x0, symName: '__ZN4core3ptr64drop_in_place$LT$alloc..boxed..Box$LT$syn..ty..BareFnArg$GT$$GT$17hdf9a99e9a3e43b93E', symObjAddr: 0x5830, symBinAddr: 0xF5D20, symSize: 0x140 }
  - { offsetInCU: 0x173A3, offset: 0x489A96, size: 0x8, addend: 0x0, symName: '__ZN4core3ptr65drop_in_place$LT$alloc..vec..Vec$LT$proc_macro..TokenTree$GT$$GT$17h07ad17327f0607d0E.llvm.6492520695887982177', symObjAddr: 0x5970, symBinAddr: 0xF5E60, symSize: 0x110 }
  - { offsetInCU: 0x1779B, offset: 0x489E8E, size: 0x8, addend: 0x0, symName: '__ZN4core3ptr65drop_in_place$LT$core..option..Option$LT$syn..expr..Label$GT$$GT$17h7370f4cd7d051021E', symObjAddr: 0x5A80, symBinAddr: 0xF5F70, symSize: 0x30 }
  - { offsetInCU: 0x178D5, offset: 0x489FC8, size: 0x8, addend: 0x0, symName: '__ZN4core3ptr66drop_in_place$LT$core..option..Option$LT$syn..pat..PatRest$GT$$GT$17h56243b82155d1306E', symObjAddr: 0x5AB0, symBinAddr: 0xF5FA0, symSize: 0xE0 }
  - { offsetInCU: 0x17BC9, offset: 0x48A2BC, size: 0x8, addend: 0x0, symName: '__ZN4core3ptr67drop_in_place$LT$alloc..boxed..Box$LT$syn..expr..FieldValue$GT$$GT$17hdb569e1e168cfcafE', symObjAddr: 0x5B90, symBinAddr: 0xF6080, symSize: 0x140 }
  - { offsetInCU: 0x1811D, offset: 0x48A810, size: 0x8, addend: 0x0, symName: '__ZN4core3ptr70drop_in_place$LT$core..option..Option$LT$syn..ty..BareVariadic$GT$$GT$17h891315fdf14c9598E', symObjAddr: 0x5CD0, symBinAddr: 0xF61C0, symSize: 0x100 }
  - { offsetInCU: 0x18554, offset: 0x48AC47, size: 0x8, addend: 0x0, symName: '__ZN4core3ptr72drop_in_place$LT$alloc..boxed..Box$LT$syn..path..GenericArgument$GT$$GT$17ha22f3de00ed22d7dE', symObjAddr: 0x5DD0, symBinAddr: 0xF62C0, symSize: 0x2B0 }
  - { offsetInCU: 0x18F65, offset: 0x48B658, size: 0x8, addend: 0x0, symName: '__ZN4core3ptr72drop_in_place$LT$core..option..Option$LT$syn..lifetime..Lifetime$GT$$GT$17h738a5902efee9f55E', symObjAddr: 0x6080, symBinAddr: 0xF6570, symSize: 0x30 }
  - { offsetInCU: 0x19080, offset: 0x48B773, size: 0x8, addend: 0x0, symName: '__ZN4core3ptr73drop_in_place$LT$alloc..boxed..Box$LT$syn..generics..GenericParam$GT$$GT$17h4a82c3bd6b9e6f81E', symObjAddr: 0x60B0, symBinAddr: 0xF65A0, symSize: 0x80 }
  - { offsetInCU: 0x191F6, offset: 0x48B8E9, size: 0x8, addend: 0x0, symName: '__ZN4core3ptr75drop_in_place$LT$alloc..boxed..Box$LT$syn..generics..TypeParamBound$GT$$GT$17h47c0b9686bcdda20E', symObjAddr: 0x6130, symBinAddr: 0xF6620, symSize: 0x180 }
  - { offsetInCU: 0x197E2, offset: 0x48BED5, size: 0x8, addend: 0x0, symName: '__ZN4core3ptr86drop_in_place$LT$syn..punctuated..Punctuated$LT$syn..pat..Pat$C$syn..token..Or$GT$$GT$17h028803b51a0e008cE', symObjAddr: 0x62B0, symBinAddr: 0xF67A0, symSize: 0x120 }
  - { offsetInCU: 0x19C5D, offset: 0x48C350, size: 0x8, addend: 0x0, symName: '__ZN4core3ptr87drop_in_place$LT$core..option..Option$LT$alloc..boxed..Box$LT$syn..pat..Pat$GT$$GT$$GT$17h47e4534cb825f5fbE', symObjAddr: 0x63D0, symBinAddr: 0xF68C0, symSize: 0x50 }
  - { offsetInCU: 0x19DCD, offset: 0x48C4C0, size: 0x8, addend: 0x0, symName: '__ZN4core3ptr87drop_in_place$LT$core..option..Option$LT$alloc..boxed..Box$LT$syn..ty..Type$GT$$GT$$GT$17hb21c4c429b95d768E', symObjAddr: 0x6420, symBinAddr: 0xF6910, symSize: 0x50 }
  - { offsetInCU: 0x19F3D, offset: 0x48C630, size: 0x8, addend: 0x0, symName: '__ZN4core3ptr89drop_in_place$LT$core..option..Option$LT$alloc..boxed..Box$LT$syn..expr..Expr$GT$$GT$$GT$17h0b10c8a8945d61ceE', symObjAddr: 0x6470, symBinAddr: 0xF6960, symSize: 0x50 }
  - { offsetInCU: 0x1A0EB, offset: 0x48C7DE, size: 0x8, addend: 0x0, symName: '__ZN4core3ptr89drop_in_place$LT$syn..punctuated..Punctuated$LT$syn..pat..Pat$C$syn..token..Comma$GT$$GT$17h0f70228e7daac378E', symObjAddr: 0x64C0, symBinAddr: 0xF69B0, symSize: 0x120 }
  - { offsetInCU: 0x1A5BB, offset: 0x48CCAE, size: 0x8, addend: 0x0, symName: '__ZN4core3ptr91drop_in_place$LT$syn..punctuated..Punctuated$LT$syn..expr..Expr$C$syn..token..Comma$GT$$GT$17hd3047ab334148524E', symObjAddr: 0x65E0, symBinAddr: 0xF6AD0, symSize: 0x120 }
  - { offsetInCU: 0x1AA49, offset: 0x48D13C, size: 0x8, addend: 0x0, symName: '__ZN4core3ptr94drop_in_place$LT$syn..punctuated..Punctuated$LT$syn..pat..FieldPat$C$syn..token..Comma$GT$$GT$17h7ace9efb18f43d12E', symObjAddr: 0x6700, symBinAddr: 0xF6BF0, symSize: 0xF0 }
  - { offsetInCU: 0x1AD48, offset: 0x48D43B, size: 0x8, addend: 0x0, symName: '__ZN4core3ptr94drop_in_place$LT$syn..punctuated..Punctuated$LT$syn..ty..BareFnArg$C$syn..token..Comma$GT$$GT$17hb29c6edaabe01c76E', symObjAddr: 0x67F0, symBinAddr: 0xF6CE0, symSize: 0xF0 }
  - { offsetInCU: 0x1B049, offset: 0x48D73C, size: 0x8, addend: 0x0, symName: '__ZN4core3ptr96drop_in_place$LT$core..option..Option$LT$alloc..boxed..Box$LT$syn..path..PathSegment$GT$$GT$$GT$17hd919256ec958e698E', symObjAddr: 0x68E0, symBinAddr: 0xF6DD0, symSize: 0x1A0 }
  - { offsetInCU: 0x1B70A, offset: 0x48DDFD, size: 0x8, addend: 0x0, symName: '__ZN4core3ptr97drop_in_place$LT$syn..punctuated..Punctuated$LT$syn..expr..FieldValue$C$syn..token..Comma$GT$$GT$17he241ea7a3c55d267E', symObjAddr: 0x6A80, symBinAddr: 0xF6F70, symSize: 0xF0 }
  - { offsetInCU: 0x1BA83, offset: 0x48E176, size: 0x8, addend: 0x0, symName: '__ZN4core3ptr98drop_in_place$LT$syn..punctuated..Punctuated$LT$syn..lifetime..Lifetime$C$syn..token..Plus$GT$$GT$17hb8f4279048db7792E', symObjAddr: 0x6B70, symBinAddr: 0xF7060, symSize: 0xD0 }
  - { offsetInCU: 0x1E067, offset: 0x49075A, size: 0x8, addend: 0x0, symName: '__ZN64_$LT$syn..path..Path$u20$as$u20$core..convert..From$LT$T$GT$$GT$4from17h59bc096d7510b41fE', symObjAddr: 0x6D60, symBinAddr: 0xF71A0, symSize: 0xD0 }
  - { offsetInCU: 0x2525A, offset: 0x49794D, size: 0x8, addend: 0x0, symName: __ZN5quote9to_tokens8ToTokens15to_token_stream17hb48b19955e8202b0E, symObjAddr: 0x6C60, symBinAddr: 0xF7130, symSize: 0x0 }
  - { offsetInCU: 0x2530B, offset: 0x4979FE, size: 0x8, addend: 0x0, symName: '__ZN12serde_derive9internals6symbol113_$LT$impl$u20$core..cmp..PartialEq$LT$serde_derive..internals..symbol..Symbol$GT$$u20$for$u20$syn..path..Path$GT$2eq17h7577a232f55e8f4aE', symObjAddr: 0x6E30, symBinAddr: 0xF7270, symSize: 0xA0 }
  - { offsetInCU: 0x256D5, offset: 0x497DC8, size: 0x8, addend: 0x0, symName: '__ZN12serde_derive9internals6symbol117_$LT$impl$u20$core..cmp..PartialEq$LT$serde_derive..internals..symbol..Symbol$GT$$u20$for$u20$$RF$syn..path..Path$GT$2eq17h57fccac9d72c4b02E', symObjAddr: 0x6ED0, symBinAddr: 0xF7310, symSize: 0x9C }
  - { offsetInCU: 0x1E, offset: 0x49A81A, size: 0x8, addend: 0x0, symName: '__ZN4core3ptr100drop_in_place$LT$core..option..Option$LT$alloc..boxed..Box$LT$syn..path..GenericArgument$GT$$GT$$GT$17h3c47f80d40da4ae4E', symObjAddr: 0x0, symBinAddr: 0xF73B0, symSize: 0x50 }
  - { offsetInCU: 0x17C3, offset: 0x49BFBF, size: 0x8, addend: 0x0, symName: '__ZN4core3ptr100drop_in_place$LT$core..option..Option$LT$alloc..boxed..Box$LT$syn..path..GenericArgument$GT$$GT$$GT$17h3c47f80d40da4ae4E', symObjAddr: 0x0, symBinAddr: 0xF73B0, symSize: 0x50 }
  - { offsetInCU: 0x1B61, offset: 0x49C35D, size: 0x8, addend: 0x0, symName: '__ZN4core3ptr100drop_in_place$LT$syn..punctuated..Punctuated$LT$syn..path..PathSegment$C$syn..token..PathSep$GT$$GT$17hd34064dc93b0b427E', symObjAddr: 0x50, symBinAddr: 0xF7400, symSize: 0x270 }
  - { offsetInCU: 0x2504, offset: 0x49CD00, size: 0x8, addend: 0x0, symName: '__ZN4core3ptr103drop_in_place$LT$core..option..Option$LT$alloc..boxed..Box$LT$syn..generics..TypeParamBound$GT$$GT$$GT$17hb98e913f9a9fba75E', symObjAddr: 0x2C0, symBinAddr: 0xF7670, symSize: 0x50 }
  - { offsetInCU: 0x270F, offset: 0x49CF0B, size: 0x8, addend: 0x0, symName: '__ZN4core3ptr103drop_in_place$LT$syn..punctuated..Punctuated$LT$syn..generics..GenericParam$C$syn..token..Comma$GT$$GT$17h706e4b03aaf6cee1E', symObjAddr: 0x310, symBinAddr: 0xF76C0, symSize: 0xF0 }
  - { offsetInCU: 0x2C0A, offset: 0x49D406, size: 0x8, addend: 0x0, symName: '__ZN4core3ptr104drop_in_place$LT$syn..punctuated..Punctuated$LT$syn..generics..TypeParamBound$C$syn..token..Plus$GT$$GT$17h913c045198e2e1fdE', symObjAddr: 0x400, symBinAddr: 0xF77B0, symSize: 0x190 }
  - { offsetInCU: 0x32A9, offset: 0x49DAA5, size: 0x8, addend: 0x0, symName: '__ZN4core3ptr34drop_in_place$LT$syn..lit..Lit$GT$17hab99994a68996a3fE', symObjAddr: 0x590, symBinAddr: 0xF7940, symSize: 0x120 }
  - { offsetInCU: 0x3797, offset: 0x49DF93, size: 0x8, addend: 0x0, symName: '__ZN4core3ptr34drop_in_place$LT$syn..pat..Pat$GT$17h7d887fadf2c3cc6bE', symObjAddr: 0x6B0, symBinAddr: 0xF7A60, symSize: 0x1090 }
  - { offsetInCU: 0x7797, offset: 0x4A1F93, size: 0x8, addend: 0x0, symName: '__ZN4core3ptr34drop_in_place$LT$syn..ty..Type$GT$17h11a872b3c8e5eef5E', symObjAddr: 0x1740, symBinAddr: 0xF8AF0, symSize: 0x4F0 }
  - { offsetInCU: 0x8CDA, offset: 0x4A34D6, size: 0x8, addend: 0x0, symName: '__ZN4core3ptr36drop_in_place$LT$syn..expr..Expr$GT$17h62bf30adc41c0fafE.llvm.15489462690269666084', symObjAddr: 0x1C30, symBinAddr: 0xF8FE0, symSize: 0x27D0 }
  - { offsetInCU: 0x1240E, offset: 0x4ACC0A, size: 0x8, addend: 0x0, symName: '__ZN4core3ptr36drop_in_place$LT$syn..mac..Macro$GT$17ha18d10f1233dedcaE', symObjAddr: 0x4400, symBinAddr: 0xFB7B0, symSize: 0x40 }
  - { offsetInCU: 0x12448, offset: 0x4ACC44, size: 0x8, addend: 0x0, symName: '__ZN4core3ptr36drop_in_place$LT$syn..path..Path$GT$17hcca6c7d030660616E', symObjAddr: 0x4440, symBinAddr: 0xFB7F0, symSize: 0x240 }
  - { offsetInCU: 0x12DE2, offset: 0x4AD5DE, size: 0x8, addend: 0x0, symName: '__ZN4core3ptr37drop_in_place$LT$syn..stmt..Block$GT$17haed62ed48b69364dE', symObjAddr: 0x4680, symBinAddr: 0xFBA30, symSize: 0xD0 }
  - { offsetInCU: 0x130B9, offset: 0x4AD8B5, size: 0x8, addend: 0x0, symName: '__ZN4core3ptr38drop_in_place$LT$syn..expr..Member$GT$17h594f47e3350a2be5E', symObjAddr: 0x4750, symBinAddr: 0xFBB00, symSize: 0x30 }
  - { offsetInCU: 0x131B5, offset: 0x4AD9B1, size: 0x8, addend: 0x0, symName: '__ZN4core3ptr39drop_in_place$LT$proc_macro2..Ident$GT$17h007be8bd6a71491bE', symObjAddr: 0x4780, symBinAddr: 0xFBB30, symSize: 0x30 }
  - { offsetInCU: 0x13292, offset: 0x4ADA8E, size: 0x8, addend: 0x0, symName: '__ZN4core3ptr40drop_in_place$LT$syn..ty..ReturnType$GT$17h14f04ba862eb52f4E', symObjAddr: 0x47B0, symBinAddr: 0xFBB60, symSize: 0x50 }
  - { offsetInCU: 0x13402, offset: 0x4ADBFE, size: 0x8, addend: 0x0, symName: '__ZN4core3ptr41drop_in_place$LT$syn..expr..ExprConst$GT$17h011fcb0f1d3d0fbcE', symObjAddr: 0x4800, symBinAddr: 0xFBBB0, symSize: 0x180 }
  - { offsetInCU: 0x139BB, offset: 0x4AE1B7, size: 0x8, addend: 0x0, symName: '__ZN4core3ptr44drop_in_place$LT$syn..lifetime..Lifetime$GT$17h81f5c412fc4e75a1E', symObjAddr: 0x4980, symBinAddr: 0xFBD30, symSize: 0x30 }
  - { offsetInCU: 0x13BED, offset: 0x4AE3E9, size: 0x8, addend: 0x0, symName: '__ZN4core3ptr45drop_in_place$LT$proc_macro2..TokenStream$GT$17h725968a5788a0c43E.llvm.15489462690269666084', symObjAddr: 0x49B0, symBinAddr: 0xFBD60, symSize: 0x140 }
  - { offsetInCU: 0x14087, offset: 0x4AE883, size: 0x8, addend: 0x0, symName: '__ZN4core3ptr45drop_in_place$LT$syn..generics..TypeParam$GT$17h2ddacbd5ce28b514E', symObjAddr: 0x4AF0, symBinAddr: 0xFBEA0, symSize: 0x230 }
  - { offsetInCU: 0x148C8, offset: 0x4AF0C4, size: 0x8, addend: 0x0, symName: '__ZN4core3ptr46drop_in_place$LT$syn..generics..ConstParam$GT$17h847551b4d11dedb8E', symObjAddr: 0x4D20, symBinAddr: 0xFC0D0, symSize: 0x150 }
  - { offsetInCU: 0x14D15, offset: 0x4AF511, size: 0x8, addend: 0x0, symName: '__ZN4core3ptr47drop_in_place$LT$syn..path..GenericArgument$GT$17ha0f8621278069bfaE', symObjAddr: 0x4E70, symBinAddr: 0xFC220, symSize: 0x4A0 }
  - { offsetInCU: 0x15E1B, offset: 0x4B0617, size: 0x8, addend: 0x0, symName: '__ZN4core3ptr49drop_in_place$LT$syn..generics..LifetimeParam$GT$17hd8de96c71b63fc49E', symObjAddr: 0x5310, symBinAddr: 0xFC6C0, symSize: 0xF0 }
  - { offsetInCU: 0x161FE, offset: 0x4B09FA, size: 0x8, addend: 0x0, symName: '__ZN4core3ptr50drop_in_place$LT$syn..generics..TypeParamBound$GT$17hc0b3a8451b112484E', symObjAddr: 0x5400, symBinAddr: 0xFC7B0, symSize: 0x180 }
  - { offsetInCU: 0x16648, offset: 0x4B0E44, size: 0x8, addend: 0x0, symName: '__ZN4core3ptr58drop_in_place$LT$alloc..vec..Vec$LT$syn..expr..Arm$GT$$GT$17ha6d87cf8cb2f8625E', symObjAddr: 0x5580, symBinAddr: 0xFC930, symSize: 0xD0 }
  - { offsetInCU: 0x16908, offset: 0x4B1104, size: 0x8, addend: 0x0, symName: '__ZN4core3ptr59drop_in_place$LT$alloc..boxed..Box$LT$syn..pat..Pat$GT$$GT$17h04b5a49dc338bf9cE', symObjAddr: 0x5650, symBinAddr: 0xFCA00, symSize: 0x50 }
  - { offsetInCU: 0x16A61, offset: 0x4B125D, size: 0x8, addend: 0x0, symName: '__ZN4core3ptr59drop_in_place$LT$alloc..boxed..Box$LT$syn..ty..Type$GT$$GT$17hfb8a09f23f7902beE', symObjAddr: 0x56A0, symBinAddr: 0xFCA50, symSize: 0x50 }
  - { offsetInCU: 0x16BBA, offset: 0x4B13B6, size: 0x8, addend: 0x0, symName: '__ZN4core3ptr61drop_in_place$LT$alloc..boxed..Box$LT$syn..expr..Expr$GT$$GT$17hfe67d291b01d4939E', symObjAddr: 0x56F0, symBinAddr: 0xFCAA0, symSize: 0x50 }
  - { offsetInCU: 0x16D8F, offset: 0x4B158B, size: 0x8, addend: 0x0, symName: '__ZN4core3ptr61drop_in_place$LT$syn..path..ParenthesizedGenericArguments$GT$17hc6164008a0f156caE', symObjAddr: 0x5740, symBinAddr: 0xFCAF0, symSize: 0x170 }
  - { offsetInCU: 0x17385, offset: 0x4B1B81, size: 0x8, addend: 0x0, symName: '__ZN4core3ptr62drop_in_place$LT$syn..path..AngleBracketedGenericArguments$GT$17h0299086782c6da12E', symObjAddr: 0x58B0, symBinAddr: 0xFCC60, symSize: 0x120 }
  - { offsetInCU: 0x177D0, offset: 0x4B1FCC, size: 0x8, addend: 0x0, symName: '__ZN4core3ptr63drop_in_place$LT$alloc..boxed..Box$LT$syn..lit..LitRepr$GT$$GT$17hf2595df28a7ce13bE', symObjAddr: 0x59D0, symBinAddr: 0xFCD80, symSize: 0x60 }
  - { offsetInCU: 0x17AD7, offset: 0x4B22D3, size: 0x8, addend: 0x0, symName: '__ZN4core3ptr64drop_in_place$LT$alloc..boxed..Box$LT$syn..pat..FieldPat$GT$$GT$17hb9cdd4a04c64745aE', symObjAddr: 0x5A30, symBinAddr: 0xFCDE0, symSize: 0x140 }
  - { offsetInCU: 0x181A4, offset: 0x4B29A0, size: 0x8, addend: 0x0, symName: '__ZN4core3ptr64drop_in_place$LT$alloc..boxed..Box$LT$syn..ty..BareFnArg$GT$$GT$17hdf9a99e9a3e43b93E', symObjAddr: 0x5B70, symBinAddr: 0xFCF20, symSize: 0x140 }
  - { offsetInCU: 0x186F9, offset: 0x4B2EF5, size: 0x8, addend: 0x0, symName: '__ZN4core3ptr65drop_in_place$LT$alloc..vec..Vec$LT$proc_macro..TokenTree$GT$$GT$17h07ad17327f0607d0E.llvm.15489462690269666084', symObjAddr: 0x5CB0, symBinAddr: 0xFD060, symSize: 0x110 }
  - { offsetInCU: 0x18AF1, offset: 0x4B32ED, size: 0x8, addend: 0x0, symName: '__ZN4core3ptr65drop_in_place$LT$core..option..Option$LT$syn..expr..Label$GT$$GT$17h7370f4cd7d051021E', symObjAddr: 0x5DC0, symBinAddr: 0xFD170, symSize: 0x30 }
  - { offsetInCU: 0x18C2B, offset: 0x4B3427, size: 0x8, addend: 0x0, symName: '__ZN4core3ptr66drop_in_place$LT$core..option..Option$LT$syn..pat..PatRest$GT$$GT$17h56243b82155d1306E', symObjAddr: 0x5DF0, symBinAddr: 0xFD1A0, symSize: 0xE0 }
  - { offsetInCU: 0x18F1F, offset: 0x4B371B, size: 0x8, addend: 0x0, symName: '__ZN4core3ptr67drop_in_place$LT$alloc..boxed..Box$LT$syn..expr..FieldValue$GT$$GT$17hdb569e1e168cfcafE', symObjAddr: 0x5ED0, symBinAddr: 0xFD280, symSize: 0x140 }
  - { offsetInCU: 0x19454, offset: 0x4B3C50, size: 0x8, addend: 0x0, symName: '__ZN4core3ptr68drop_in_place$LT$alloc..boxed..Box$LT$syn..path..PathSegment$GT$$GT$17h8bc236a2626e080dE', symObjAddr: 0x6010, symBinAddr: 0xFD3C0, symSize: 0x1B0 }
  - { offsetInCU: 0x19B62, offset: 0x4B435E, size: 0x8, addend: 0x0, symName: '__ZN4core3ptr70drop_in_place$LT$core..option..Option$LT$syn..ty..BareVariadic$GT$$GT$17h891315fdf14c9598E', symObjAddr: 0x61C0, symBinAddr: 0xFD570, symSize: 0x100 }
  - { offsetInCU: 0x19F99, offset: 0x4B4795, size: 0x8, addend: 0x0, symName: '__ZN4core3ptr72drop_in_place$LT$alloc..boxed..Box$LT$syn..path..GenericArgument$GT$$GT$17ha22f3de00ed22d7dE', symObjAddr: 0x62C0, symBinAddr: 0xFD670, symSize: 0x1D0 }
  - { offsetInCU: 0x1A534, offset: 0x4B4D30, size: 0x8, addend: 0x0, symName: '__ZN4core3ptr72drop_in_place$LT$core..option..Option$LT$syn..lifetime..Lifetime$GT$$GT$17h738a5902efee9f55E', symObjAddr: 0x6490, symBinAddr: 0xFD840, symSize: 0x30 }
  - { offsetInCU: 0x1A64F, offset: 0x4B4E4B, size: 0x8, addend: 0x0, symName: '__ZN4core3ptr73drop_in_place$LT$alloc..boxed..Box$LT$syn..generics..GenericParam$GT$$GT$17h4a82c3bd6b9e6f81E', symObjAddr: 0x64C0, symBinAddr: 0xFD870, symSize: 0x80 }
  - { offsetInCU: 0x1A7C5, offset: 0x4B4FC1, size: 0x8, addend: 0x0, symName: '__ZN4core3ptr75drop_in_place$LT$alloc..boxed..Box$LT$syn..generics..TypeParamBound$GT$$GT$17h47c0b9686bcdda20E', symObjAddr: 0x6540, symBinAddr: 0xFD8F0, symSize: 0xC0 }
  - { offsetInCU: 0x1AB19, offset: 0x4B5315, size: 0x8, addend: 0x0, symName: '__ZN4core3ptr86drop_in_place$LT$syn..punctuated..Punctuated$LT$syn..pat..Pat$C$syn..token..Or$GT$$GT$17h028803b51a0e008cE', symObjAddr: 0x6600, symBinAddr: 0xFD9B0, symSize: 0x120 }
  - { offsetInCU: 0x1AF94, offset: 0x4B5790, size: 0x8, addend: 0x0, symName: '__ZN4core3ptr87drop_in_place$LT$core..option..Option$LT$alloc..boxed..Box$LT$syn..pat..Pat$GT$$GT$$GT$17h47e4534cb825f5fbE', symObjAddr: 0x6720, symBinAddr: 0xFDAD0, symSize: 0x50 }
  - { offsetInCU: 0x1B104, offset: 0x4B5900, size: 0x8, addend: 0x0, symName: '__ZN4core3ptr87drop_in_place$LT$core..option..Option$LT$alloc..boxed..Box$LT$syn..ty..Type$GT$$GT$$GT$17hb21c4c429b95d768E', symObjAddr: 0x6770, symBinAddr: 0xFDB20, symSize: 0x50 }
  - { offsetInCU: 0x1B274, offset: 0x4B5A70, size: 0x8, addend: 0x0, symName: '__ZN4core3ptr89drop_in_place$LT$core..option..Option$LT$alloc..boxed..Box$LT$syn..expr..Expr$GT$$GT$$GT$17h0b10c8a8945d61ceE', symObjAddr: 0x67C0, symBinAddr: 0xFDB70, symSize: 0x50 }
  - { offsetInCU: 0x1B422, offset: 0x4B5C1E, size: 0x8, addend: 0x0, symName: '__ZN4core3ptr89drop_in_place$LT$syn..punctuated..Punctuated$LT$syn..pat..Pat$C$syn..token..Comma$GT$$GT$17h0f70228e7daac378E', symObjAddr: 0x6810, symBinAddr: 0xFDBC0, symSize: 0x120 }
  - { offsetInCU: 0x1B8B4, offset: 0x4B60B0, size: 0x8, addend: 0x0, symName: '__ZN4core3ptr89drop_in_place$LT$syn..punctuated..Punctuated$LT$syn..ty..Type$C$syn..token..Comma$GT$$GT$17h0317a8a9919e8789E', symObjAddr: 0x6930, symBinAddr: 0xFDCE0, symSize: 0x120 }
  - { offsetInCU: 0x1BD2F, offset: 0x4B652B, size: 0x8, addend: 0x0, symName: '__ZN4core3ptr90drop_in_place$LT$core..option..Option$LT$syn..path..AngleBracketedGenericArguments$GT$$GT$17h9646b437ffecef94E', symObjAddr: 0x6A50, symBinAddr: 0xFDE00, symSize: 0x130 }
  - { offsetInCU: 0x1C1D1, offset: 0x4B69CD, size: 0x8, addend: 0x0, symName: '__ZN4core3ptr91drop_in_place$LT$syn..punctuated..Punctuated$LT$syn..expr..Expr$C$syn..token..Comma$GT$$GT$17hd3047ab334148524E', symObjAddr: 0x6B80, symBinAddr: 0xFDF30, symSize: 0x120 }
  - { offsetInCU: 0x1C65F, offset: 0x4B6E5B, size: 0x8, addend: 0x0, symName: '__ZN4core3ptr94drop_in_place$LT$syn..punctuated..Punctuated$LT$syn..pat..FieldPat$C$syn..token..Comma$GT$$GT$17h7ace9efb18f43d12E', symObjAddr: 0x6CA0, symBinAddr: 0xFE050, symSize: 0xF0 }
  - { offsetInCU: 0x1C95E, offset: 0x4B715A, size: 0x8, addend: 0x0, symName: '__ZN4core3ptr94drop_in_place$LT$syn..punctuated..Punctuated$LT$syn..ty..BareFnArg$C$syn..token..Comma$GT$$GT$17hb29c6edaabe01c76E', symObjAddr: 0x6D90, symBinAddr: 0xFE140, symSize: 0xF0 }
  - { offsetInCU: 0x1CC5F, offset: 0x4B745B, size: 0x8, addend: 0x0, symName: '__ZN4core3ptr96drop_in_place$LT$core..option..Option$LT$alloc..boxed..Box$LT$syn..path..PathSegment$GT$$GT$$GT$17hd919256ec958e698E', symObjAddr: 0x6E80, symBinAddr: 0xFE230, symSize: 0xA0 }
  - { offsetInCU: 0x1CEDE, offset: 0x4B76DA, size: 0x8, addend: 0x0, symName: '__ZN4core3ptr97drop_in_place$LT$syn..punctuated..Punctuated$LT$syn..expr..FieldValue$C$syn..token..Comma$GT$$GT$17he241ea7a3c55d267E', symObjAddr: 0x6F20, symBinAddr: 0xFE2D0, symSize: 0xF0 }
  - { offsetInCU: 0x1D1DB, offset: 0x4B79D7, size: 0x8, addend: 0x0, symName: '__ZN4core3ptr98drop_in_place$LT$alloc..vec..Vec$LT$$LP$syn..path..GenericArgument$C$syn..token..Comma$RP$$GT$$GT$17ha96f98c42a71b3f5E', symObjAddr: 0x7010, symBinAddr: 0xFE3C0, symSize: 0xD0 }
  - { offsetInCU: 0x1D51B, offset: 0x4B7D17, size: 0x8, addend: 0x0, symName: '__ZN4core3ptr98drop_in_place$LT$syn..punctuated..Punctuated$LT$syn..lifetime..Lifetime$C$syn..token..Plus$GT$$GT$17hb8f4279048db7792E', symObjAddr: 0x70E0, symBinAddr: 0xFE490, symSize: 0xD0 }
  - { offsetInCU: 0x1E, offset: 0x4C3203, size: 0x8, addend: 0x0, symName: '__ZN44_$LT$$RF$T$u20$as$u20$core..fmt..Display$GT$3fmt17he9c2f06c585ba4c8E', symObjAddr: 0x0, symBinAddr: 0xFE560, symSize: 0x10 }
  - { offsetInCU: 0x35, offset: 0x4C321A, size: 0x8, addend: 0x0, symName: _anon.3200701beee53a72cf2564313b2f9c25.0.llvm.15207809626444809577, symObjAddr: 0x8D0, symBinAddr: 0x3459B8, symSize: 0x0 }
  - { offsetInCU: 0x1A3, offset: 0x4C3388, size: 0x8, addend: 0x0, symName: '__ZN58_$LT$alloc..string..String$u20$as$u20$core..fmt..Write$GT$10write_char17h04bc467bd68a934bE.llvm.15207809626444809577', symObjAddr: 0x3C0, symBinAddr: 0xFE900, symSize: 0x140 }
  - { offsetInCU: 0x5A8, offset: 0x4C378D, size: 0x8, addend: 0x0, symName: '__ZN58_$LT$alloc..string..String$u20$as$u20$core..fmt..Write$GT$9write_str17h46a93205c3443fbaE.llvm.15207809626444809577', symObjAddr: 0x500, symBinAddr: 0xFEA40, symSize: 0x60 }
  - { offsetInCU: 0xEEE, offset: 0x4C40D3, size: 0x8, addend: 0x0, symName: '__ZN4core3ptr42drop_in_place$LT$alloc..string..String$GT$17h74ff1bf250fa5c97E.llvm.15207809626444809577', symObjAddr: 0x10, symBinAddr: 0xFE570, symSize: 0x20 }
  - { offsetInCU: 0x112C, offset: 0x4C4311, size: 0x8, addend: 0x0, symName: '__ZN4core3ptr45drop_in_place$LT$proc_macro2..TokenStream$GT$17h725968a5788a0c43E.llvm.15207809626444809577', symObjAddr: 0x30, symBinAddr: 0xFE590, symSize: 0x140 }
  - { offsetInCU: 0x1588, offset: 0x4C476D, size: 0x8, addend: 0x0, symName: '__ZN4core3ptr65drop_in_place$LT$alloc..vec..Vec$LT$proc_macro..TokenTree$GT$$GT$17h07ad17327f0607d0E.llvm.15207809626444809577', symObjAddr: 0x170, symBinAddr: 0xFE6D0, symSize: 0x110 }
  - { offsetInCU: 0x1B51, offset: 0x4C4D36, size: 0x8, addend: 0x0, symName: '__ZN44_$LT$$RF$T$u20$as$u20$core..fmt..Display$GT$3fmt17he9c2f06c585ba4c8E', symObjAddr: 0x0, symBinAddr: 0xFE560, symSize: 0x10 }
  - { offsetInCU: 0x1B9D, offset: 0x4C4D82, size: 0x8, addend: 0x0, symName: '__ZN53_$LT$core..fmt..Error$u20$as$u20$core..fmt..Debug$GT$3fmt17h03dc662ab152f3aeE.llvm.15207809626444809577', symObjAddr: 0x2A0, symBinAddr: 0xFE7E0, symSize: 0x20 }
  - { offsetInCU: 0x2160, offset: 0x4C5345, size: 0x8, addend: 0x0, symName: '__ZN71_$LT$core..hash..sip..Hasher$LT$S$GT$$u20$as$u20$core..hash..Hasher$GT$5write17h5d13dd6863358405E.llvm.15207809626444809577', symObjAddr: 0x660, symBinAddr: 0xFEAA0, symSize: 0x1D8 }
  - { offsetInCU: 0x2D80, offset: 0x4C5F65, size: 0x8, addend: 0x0, symName: _anon.3200701beee53a72cf2564313b2f9c25.4.llvm.15207809626444809577, symObjAddr: 0x918, symBinAddr: 0x345A00, symSize: 0x0 }
  - { offsetInCU: 0x3647, offset: 0x4C682C, size: 0x8, addend: 0x0, symName: '__ZN55_$LT$proc_macro2..Ident$u20$as$u20$core..hash..Hash$GT$4hash17h569d92b176b063b7E', symObjAddr: 0x2C0, symBinAddr: 0xFE800, symSize: 0x100 }
  - { offsetInCU: 0xE25, offset: 0x4C84B7, size: 0x8, addend: 0x0, symName: '__ZN4core3ptr39drop_in_place$LT$proc_macro2..Ident$GT$17h007be8bd6a71491bE', symObjAddr: 0x80, symBinAddr: 0xFECE0, symSize: 0x30 }
  - { offsetInCU: 0x150C, offset: 0x4C8B9E, size: 0x8, addend: 0x0, symName: __ZN4core3ops8function6FnOnce9call_once17h18fafe2b3f737b70E.llvm.13291619934087821229, symObjAddr: 0x20, symBinAddr: 0xFEC80, symSize: 0x60 }
  - { offsetInCU: 0x28D0, offset: 0x4C9F62, size: 0x8, addend: 0x0, symName: '__ZN9hashbrown3map28HashMap$LT$K$C$V$C$S$C$A$GT$6insert17h8e504eaf307e3371E', symObjAddr: 0x180, symBinAddr: 0xFED10, symSize: 0x1F7 }
  - { offsetInCU: 0x1E, offset: 0x4CAFCA, size: 0x8, addend: 0x0, symName: __ZN3syn5error4new217h02a9e13103f28506E, symObjAddr: 0x0, symBinAddr: 0xFEF10, symSize: 0x100 }
  - { offsetInCU: 0x35, offset: 0x4CAFE1, size: 0x8, addend: 0x0, symName: _anon.71d8b51b9192339c74f416669b6c0a77.0.llvm.14940009362911743233, symObjAddr: 0xF90, symBinAddr: 0x345A40, symSize: 0x0 }
  - { offsetInCU: 0x23E, offset: 0x4CB1EA, size: 0x8, addend: 0x0, symName: '__ZN58_$LT$alloc..string..String$u20$as$u20$core..fmt..Write$GT$10write_char17h04bc467bd68a934bE.llvm.14940009362911743233', symObjAddr: 0xCA0, symBinAddr: 0xFFAB0, symSize: 0x140 }
  - { offsetInCU: 0x644, offset: 0x4CB5F0, size: 0x8, addend: 0x0, symName: '__ZN58_$LT$alloc..string..String$u20$as$u20$core..fmt..Write$GT$9write_str17h46a93205c3443fbaE.llvm.14940009362911743233', symObjAddr: 0xDE0, symBinAddr: 0xFFBF0, symSize: 0x5B }
  - { offsetInCU: 0x16B8, offset: 0x4CC664, size: 0x8, addend: 0x0, symName: '__ZN4core3ptr38drop_in_place$LT$syn..error..Error$GT$17h4794daeab7950c2fE.llvm.14940009362911743233', symObjAddr: 0x980, symBinAddr: 0xFF790, symSize: 0x90 }
  - { offsetInCU: 0x1966, offset: 0x4CC912, size: 0x8, addend: 0x0, symName: '__ZN4core3ptr42drop_in_place$LT$alloc..string..String$GT$17h74ff1bf250fa5c97E.llvm.14940009362911743233', symObjAddr: 0xA10, symBinAddr: 0xFF820, symSize: 0x20 }
  - { offsetInCU: 0x1BA4, offset: 0x4CCB50, size: 0x8, addend: 0x0, symName: '__ZN4core3ptr45drop_in_place$LT$proc_macro2..TokenStream$GT$17h725968a5788a0c43E.llvm.14940009362911743233', symObjAddr: 0xA30, symBinAddr: 0xFF840, symSize: 0x140 }
  - { offsetInCU: 0x2000, offset: 0x4CCFAC, size: 0x8, addend: 0x0, symName: '__ZN4core3ptr65drop_in_place$LT$alloc..vec..Vec$LT$proc_macro..TokenTree$GT$$GT$17h07ad17327f0607d0E.llvm.14940009362911743233', symObjAddr: 0xB70, symBinAddr: 0xFF980, symSize: 0x110 }
  - { offsetInCU: 0x2756, offset: 0x4CD702, size: 0x8, addend: 0x0, symName: '__ZN53_$LT$core..fmt..Error$u20$as$u20$core..fmt..Debug$GT$3fmt17h03dc662ab152f3aeE.llvm.14940009362911743233', symObjAddr: 0xC80, symBinAddr: 0xFFA90, symSize: 0x20 }
  - { offsetInCU: 0x2D40, offset: 0x4CDCEC, size: 0x8, addend: 0x0, symName: _anon.71d8b51b9192339c74f416669b6c0a77.4.llvm.14940009362911743233, symObjAddr: 0xFD8, symBinAddr: 0x345A88, symSize: 0x0 }
  - { offsetInCU: 0x375B, offset: 0x4CE707, size: 0x8, addend: 0x0, symName: __ZN3syn5error4new217h02a9e13103f28506E, symObjAddr: 0x0, symBinAddr: 0xFEF10, symSize: 0x100 }
  - { offsetInCU: 0x3981, offset: 0x4CE92D, size: 0x8, addend: 0x0, symName: __ZN3syn5error4new217h0a9b2cd1167ff48bE, symObjAddr: 0x100, symBinAddr: 0xFF010, symSize: 0xF0 }
  - { offsetInCU: 0x41EB, offset: 0x4CF197, size: 0x8, addend: 0x0, symName: __ZN3syn5error5Error11new_spanned17h2009659b2be541f3E, symObjAddr: 0x270, symBinAddr: 0xFF100, symSize: 0x130 }
  - { offsetInCU: 0x4402, offset: 0x4CF3AE, size: 0x8, addend: 0x0, symName: __ZN3syn5error5Error11new_spanned17h306423a8b9519b76E, symObjAddr: 0x3A0, symBinAddr: 0xFF230, symSize: 0xB0 }
  - { offsetInCU: 0x4708, offset: 0x4CF6B4, size: 0x8, addend: 0x0, symName: __ZN3syn5error5Error11new_spanned17h74e63f6b4302c367E, symObjAddr: 0x450, symBinAddr: 0xFF2E0, symSize: 0x1B0 }
  - { offsetInCU: 0x4B5C, offset: 0x4CFB08, size: 0x8, addend: 0x0, symName: __ZN3syn5error5Error11new_spanned17hdd429222e98b3759E, symObjAddr: 0x600, symBinAddr: 0xFF490, symSize: 0x120 }
  - { offsetInCU: 0x4D8A, offset: 0x4CFD36, size: 0x8, addend: 0x0, symName: __ZN3syn5error5Error3new17h765448956eb140e8E, symObjAddr: 0x720, symBinAddr: 0xFF5B0, symSize: 0xF0 }
  - { offsetInCU: 0x5109, offset: 0x4D00B5, size: 0x8, addend: 0x0, symName: __ZN3syn5error5Error3new17h8c21baee4dbc6656E, symObjAddr: 0x810, symBinAddr: 0xFF6A0, symSize: 0xF0 }
  - { offsetInCU: 0x1E, offset: 0x4D104F, size: 0x8, addend: 0x0, symName: '__ZN4core3str21_$LT$impl$u20$str$GT$18trim_start_matches17h361356c07c43aa42E', symObjAddr: 0x0, symBinAddr: 0xFFC50, symSize: 0x451 }
  - { offsetInCU: 0x4F8, offset: 0x4D1529, size: 0x8, addend: 0x0, symName: '__ZN4core3str21_$LT$impl$u20$str$GT$18trim_start_matches17h361356c07c43aa42E', symObjAddr: 0x0, symBinAddr: 0xFFC50, symSize: 0x451 }
  - { offsetInCU: 0x1E, offset: 0x4D24FA, size: 0x8, addend: 0x0, symName: '__ZN4core3ptr73drop_in_place$LT$core..cell..UnsafeCell$LT$syn..parse..Unexpected$GT$$GT$17h2e222f6750aeca52E.llvm.8744840506192043963', symObjAddr: 0x0, symBinAddr: 0x1000B0, symSize: 0x50 }
  - { offsetInCU: 0xB7D, offset: 0x4D3059, size: 0x8, addend: 0x0, symName: '__ZN4core3ptr73drop_in_place$LT$core..cell..UnsafeCell$LT$syn..parse..Unexpected$GT$$GT$17h2e222f6750aeca52E.llvm.8744840506192043963', symObjAddr: 0x0, symBinAddr: 0x1000B0, symSize: 0x50 }
  - { offsetInCU: 0x171C, offset: 0x4D3BF8, size: 0x8, addend: 0x0, symName: '__ZN68_$LT$alloc..rc..Rc$LT$T$C$A$GT$$u20$as$u20$core..ops..drop..Drop$GT$4drop17hbc37ff115a490527E', symObjAddr: 0x100, symBinAddr: 0x100100, symSize: 0xE0 }
  - { offsetInCU: 0x1C3D, offset: 0x4D4119, size: 0x8, addend: 0x0, symName: '__ZN68_$LT$alloc..rc..Rc$LT$T$C$A$GT$$u20$as$u20$core..ops..drop..Drop$GT$4drop17hf889c97a328b84a4E', symObjAddr: 0x1E0, symBinAddr: 0x1001E0, symSize: 0x40 }
  - { offsetInCU: 0x2149, offset: 0x4D4625, size: 0x8, addend: 0x0, symName: '__ZN80_$LT$alloc..rc..UniqueRcUninit$LT$T$C$A$GT$$u20$as$u20$core..ops..drop..Drop$GT$4drop17h4995dc4f8f6c9cb9E', symObjAddr: 0x220, symBinAddr: 0x100220, symSize: 0x4F }
  - { offsetInCU: 0x7AF, offset: 0x4D5825, size: 0x8, addend: 0x0, symName: '__ZN68_$LT$$RF$str$u20$as$u20$proc_macro..bridge..rpc..Encode$LT$S$GT$$GT$6encode17hec6330b26ed43874E', symObjAddr: 0x80, symBinAddr: 0x100270, symSize: 0x230 }
  - { offsetInCU: 0x1E, offset: 0x4D5E83, size: 0x8, addend: 0x0, symName: '__ZN44_$LT$$RF$T$u20$as$u20$core..fmt..Display$GT$3fmt17he55e27e0f7b58d8bE', symObjAddr: 0x0, symBinAddr: 0x1004A0, symSize: 0x20 }
  - { offsetInCU: 0xC8, offset: 0x4D5F2D, size: 0x8, addend: 0x0, symName: '__ZN58_$LT$alloc..string..String$u20$as$u20$core..fmt..Write$GT$10write_char17h04bc467bd68a934bE', symObjAddr: 0x60, symBinAddr: 0x100500, symSize: 0x140 }
  - { offsetInCU: 0x4CD, offset: 0x4D6332, size: 0x8, addend: 0x0, symName: '__ZN58_$LT$alloc..string..String$u20$as$u20$core..fmt..Write$GT$9write_str17h46a93205c3443fbaE', symObjAddr: 0x1A0, symBinAddr: 0x100640, symSize: 0x5B }
  - { offsetInCU: 0xAF1, offset: 0x4D6956, size: 0x8, addend: 0x0, symName: '__ZN4core3ptr42drop_in_place$LT$alloc..string..String$GT$17h74ff1bf250fa5c97E', symObjAddr: 0x40, symBinAddr: 0x1004E0, symSize: 0x20 }
  - { offsetInCU: 0xE93, offset: 0x4D6CF8, size: 0x8, addend: 0x0, symName: '__ZN44_$LT$$RF$T$u20$as$u20$core..fmt..Display$GT$3fmt17he55e27e0f7b58d8bE', symObjAddr: 0x0, symBinAddr: 0x1004A0, symSize: 0x20 }
  - { offsetInCU: 0xF48, offset: 0x4D6DAD, size: 0x8, addend: 0x0, symName: __ZN4core3fmt5Write9write_fmt17h529d321f9c32c4a6E, symObjAddr: 0x20, symBinAddr: 0x1004C0, symSize: 0x20 }
  - { offsetInCU: 0x491, offset: 0x4D7C95, size: 0x8, addend: 0x0, symName: __ZN10proc_macro6bridge6client10run_client17h07fb352f6cc86ed2E, symObjAddr: 0x190, symBinAddr: 0x1006A0, symSize: 0x2E0 }
  - { offsetInCU: 0xB6B, offset: 0x4D836F, size: 0x8, addend: 0x0, symName: __ZN10proc_macro6bridge6client10run_client17h973a68c5159553f9E, symObjAddr: 0x470, symBinAddr: 0x100980, symSize: 0x2DB }
  - { offsetInCU: 0x1E, offset: 0x4DA1FB, size: 0x8, addend: 0x0, symName: '__ZN126_$LT$proc_macro2..fallback..TokenStream$u20$as$u20$core..iter..traits..collect..FromIterator$LT$proc_macro2..TokenTree$GT$$GT$9from_iter17hb1638ced29db841cE', symObjAddr: 0x0, symBinAddr: 0x100C60, symSize: 0x200 }
  - { offsetInCU: 0x872, offset: 0x4DAA4F, size: 0x8, addend: 0x0, symName: '__ZN126_$LT$proc_macro2..fallback..TokenStream$u20$as$u20$core..iter..traits..collect..FromIterator$LT$proc_macro2..TokenTree$GT$$GT$9from_iter17hb1638ced29db841cE', symObjAddr: 0x0, symBinAddr: 0x100C60, symSize: 0x200 }
  - { offsetInCU: 0x10AE, offset: 0x4DB28B, size: 0x8, addend: 0x0, symName: '__ZN78_$LT$proc_macro2..fallback..Ident$u20$as$u20$core..cmp..PartialEq$LT$T$GT$$GT$2eq17ha03c9bac3d00667aE', symObjAddr: 0x260, symBinAddr: 0x100EC0, symSize: 0x72 }
  - { offsetInCU: 0x1B99, offset: 0x4DBD76, size: 0x8, addend: 0x0, symName: '__ZN4core3ptr165drop_in_place$LT$core..iter..adapters..map..Map$LT$proc_macro2..token_stream..IntoIter$C$serde_derive..internals..respan..respan..$u7b$$u7b$closure$u7d$$u7d$$GT$$GT$17hb51d3ae1bd2e09d2E.llvm.9241135737932832835', symObjAddr: 0x200, symBinAddr: 0x100E60, symSize: 0x20 }
  - { offsetInCU: 0x1C9A, offset: 0x4DBE77, size: 0x8, addend: 0x0, symName: '__ZN4core3ptr55drop_in_place$LT$proc_macro2..fallback..TokenStream$GT$17h230b3b74202da4b4E.llvm.9241135737932832835', symObjAddr: 0x220, symBinAddr: 0x100E80, symSize: 0x40 }
  - { offsetInCU: 0x1E, offset: 0x4DD7B2, size: 0x8, addend: 0x0, symName: __ZN4core4hash11BuildHasher8hash_one17hbb6821f9e19faf5dE, symObjAddr: 0x0, symBinAddr: 0x100F40, symSize: 0x143 }
  - { offsetInCU: 0x241, offset: 0x4DD9D5, size: 0x8, addend: 0x0, symName: __ZN4core4hash11BuildHasher8hash_one17hbb6821f9e19faf5dE, symObjAddr: 0x0, symBinAddr: 0x100F40, symSize: 0x143 }
  - { offsetInCU: 0x434, offset: 0x4DEE17, size: 0x8, addend: 0x0, symName: '__ZN4core3ptr44drop_in_place$LT$syn..lifetime..Lifetime$GT$17h81f5c412fc4e75a1E.llvm.15828145254530661365', symObjAddr: 0x20, symBinAddr: 0x101090, symSize: 0x30 }
  - { offsetInCU: 0x11E3, offset: 0x4DFBC6, size: 0x8, addend: 0x0, symName: '__ZN5alloc11collections5btree3map5entry28VacantEntry$LT$K$C$V$C$A$GT$6insert17ha74a18affe24a0f9E', symObjAddr: 0x50, symBinAddr: 0x1010C0, symSize: 0x120 }
  - { offsetInCU: 0x1644, offset: 0x4E0027, size: 0x8, addend: 0x0, symName: '__ZN5alloc11collections5btree3map5entry28VacantEntry$LT$K$C$V$C$A$GT$6insert17hbd1eda064ae8cf85E', symObjAddr: 0x170, symBinAddr: 0x1011E0, symSize: 0x110 }
  - { offsetInCU: 0x1E, offset: 0x4E188B, size: 0x8, addend: 0x0, symName: __ZN3std9panicking11begin_panic17h44d4b8c51ba8f6e7E, symObjAddr: 0x0, symBinAddr: 0x2B9FF0, symSize: 0x20 }
  - { offsetInCU: 0x7A7, offset: 0x4E2014, size: 0x8, addend: 0x0, symName: __ZN3std9panicking11begin_panic17h44d4b8c51ba8f6e7E, symObjAddr: 0x0, symBinAddr: 0x2B9FF0, symSize: 0x20 }
  - { offsetInCU: 0x803, offset: 0x4E2070, size: 0x8, addend: 0x0, symName: '__ZN84_$LT$std..panicking..begin_panic..Payload$LT$A$GT$$u20$as$u20$core..fmt..Display$GT$3fmt17heb9b4444032b0dd0E', symObjAddr: 0x20, symBinAddr: 0x1012F0, symSize: 0x40 }
  - { offsetInCU: 0x870, offset: 0x4E20DD, size: 0x8, addend: 0x0, symName: '__ZN91_$LT$std..panicking..begin_panic..Payload$LT$A$GT$$u20$as$u20$core..panic..PanicPayload$GT$3get17h9a4b27674839508cE', symObjAddr: 0x60, symBinAddr: 0x101330, symSize: 0x20 }
  - { offsetInCU: 0x8A8, offset: 0x4E2115, size: 0x8, addend: 0x0, symName: '__ZN91_$LT$std..panicking..begin_panic..Payload$LT$A$GT$$u20$as$u20$core..panic..PanicPayload$GT$8take_box17h2003dadc71af026bE', symObjAddr: 0x80, symBinAddr: 0x101350, symSize: 0x5F }
  - { offsetInCU: 0x1E, offset: 0x4E2666, size: 0x8, addend: 0x0, symName: '__ZN4core3ops8function5impls80_$LT$impl$u20$core..ops..function..FnOnce$LT$A$GT$$u20$for$u20$$RF$mut$u20$F$GT$9call_once17hd5f0eded7b333addE', symObjAddr: 0x0, symBinAddr: 0x1013B0, symSize: 0x140 }
  - { offsetInCU: 0x3BE, offset: 0x4E2A06, size: 0x8, addend: 0x0, symName: '__ZN4core3ptr73drop_in_place$LT$alloc..vec..Vec$LT$syn..generics..WherePredicate$GT$$GT$17h0052c17cbfe03aaeE.llvm.9050203357942890342', symObjAddr: 0x140, symBinAddr: 0x1014F0, symSize: 0xC4 }
  - { offsetInCU: 0x8F7, offset: 0x4E2F3F, size: 0x8, addend: 0x0, symName: '__ZN4core3ops8function5impls80_$LT$impl$u20$core..ops..function..FnOnce$LT$A$GT$$u20$for$u20$$RF$mut$u20$F$GT$9call_once17hd5f0eded7b333addE', symObjAddr: 0x0, symBinAddr: 0x1013B0, symSize: 0x140 }
  - { offsetInCU: 0x1E, offset: 0x4ECC45, size: 0x8, addend: 0x0, symName: '__ZN4core3ptr43drop_in_place$LT$proc_macro2..TokenTree$GT$17hfc5c5bf9a9e0ef9cE.llvm.10645450132101349152', symObjAddr: 0x0, symBinAddr: 0x1015C0, symSize: 0xB0 }
  - { offsetInCU: 0x1002, offset: 0x4EDC29, size: 0x8, addend: 0x0, symName: '__ZN4core3ptr43drop_in_place$LT$proc_macro2..TokenTree$GT$17hfc5c5bf9a9e0ef9cE.llvm.10645450132101349152', symObjAddr: 0x0, symBinAddr: 0x1015C0, symSize: 0xB0 }
  - { offsetInCU: 0x1CD9, offset: 0x4EE900, size: 0x8, addend: 0x0, symName: __ZN12serde_derive9internals6respan12respan_token17h03a55f7d3304b27bE, symObjAddr: 0x1A0, symBinAddr: 0x101670, symSize: 0x211 }
  - { offsetInCU: 0x1E, offset: 0x4EF129, size: 0x8, addend: 0x0, symName: '__ZN10proc_macro6bridge100_$LT$impl$u20$proc_macro..bridge..rpc..Encode$LT$S$GT$$u20$for$u20$core..option..Option$LT$T$GT$$GT$6encode17h5222d21793705455E', symObjAddr: 0x0, symBinAddr: 0x101890, symSize: 0x350 }
  - { offsetInCU: 0x355, offset: 0x4EF460, size: 0x8, addend: 0x0, symName: '__ZN10proc_macro6bridge100_$LT$impl$u20$proc_macro..bridge..rpc..Encode$LT$S$GT$$u20$for$u20$core..option..Option$LT$T$GT$$GT$6encode17h5222d21793705455E', symObjAddr: 0x0, symBinAddr: 0x101890, symSize: 0x350 }
  - { offsetInCU: 0x8FC, offset: 0x4EFA07, size: 0x8, addend: 0x0, symName: '__ZN10proc_macro6bridge100_$LT$impl$u20$proc_macro..bridge..rpc..Encode$LT$S$GT$$u20$for$u20$core..option..Option$LT$T$GT$$GT$6encode17hcf9469508e0abc32E', symObjAddr: 0x350, symBinAddr: 0x101BE0, symSize: 0x240 }
  - { offsetInCU: 0xCBD, offset: 0x4F0EAB, size: 0x8, addend: 0x0, symName: '__ZN4core3ptr165drop_in_place$LT$core..iter..adapters..map..Map$LT$proc_macro2..token_stream..IntoIter$C$serde_derive..internals..respan..respan..$u7b$$u7b$closure$u7d$$u7d$$GT$$GT$17hb51d3ae1bd2e09d2E.llvm.7728610202219548266', symObjAddr: 0xB0, symBinAddr: 0x101E20, symSize: 0x20 }
  - { offsetInCU: 0x1E, offset: 0x4F153A, size: 0x8, addend: 0x0, symName: '__ZN4core3ptr45drop_in_place$LT$proc_macro2..TokenStream$GT$17h725968a5788a0c43E', symObjAddr: 0x0, symBinAddr: 0x101E40, symSize: 0x140 }
  - { offsetInCU: 0x1286, offset: 0x4F27A2, size: 0x8, addend: 0x0, symName: '__ZN4core3ptr45drop_in_place$LT$proc_macro2..TokenStream$GT$17h725968a5788a0c43E', symObjAddr: 0x0, symBinAddr: 0x101E40, symSize: 0x140 }
  - { offsetInCU: 0x16E2, offset: 0x4F2BFE, size: 0x8, addend: 0x0, symName: '__ZN4core3ptr65drop_in_place$LT$alloc..vec..Vec$LT$proc_macro..TokenTree$GT$$GT$17h07ad17327f0607d0E', symObjAddr: 0x140, symBinAddr: 0x101F80, symSize: 0x110 }
  - { offsetInCU: 0x97FC, offset: 0x4FAD18, size: 0x8, addend: 0x0, symName: __ZN12serde_derive5dummy13wrap_in_const17hc785cd1911219d11E, symObjAddr: 0x250, symBinAddr: 0x102090, symSize: 0x590 }
  - { offsetInCU: 0xCCB, offset: 0x4FBED3, size: 0x8, addend: 0x0, symName: '__ZN4core3ptr45drop_in_place$LT$proc_macro2..TokenStream$GT$17h725968a5788a0c43E.llvm.16214529579145767396', symObjAddr: 0xA0, symBinAddr: 0x102620, symSize: 0x140 }
  - { offsetInCU: 0x1127, offset: 0x4FC32F, size: 0x8, addend: 0x0, symName: '__ZN4core3ptr65drop_in_place$LT$alloc..vec..Vec$LT$proc_macro..TokenTree$GT$$GT$17h07ad17327f0607d0E.llvm.16214529579145767396', symObjAddr: 0x1E0, symBinAddr: 0x102760, symSize: 0x110 }
  - { offsetInCU: 0x1E, offset: 0x4FCF18, size: 0x8, addend: 0x0, symName: '__ZN10proc_macro6bridge104_$LT$impl$u20$proc_macro..bridge..rpc..Encode$LT$S$GT$$u20$for$u20$core..result..Result$LT$T$C$E$GT$$GT$6encode17h350f634ac42787e3E', symObjAddr: 0x0, symBinAddr: 0x102870, symSize: 0x300 }
  - { offsetInCU: 0x149, offset: 0x4FD043, size: 0x8, addend: 0x0, symName: '__ZN10proc_macro6bridge104_$LT$impl$u20$proc_macro..bridge..rpc..Encode$LT$S$GT$$u20$for$u20$core..result..Result$LT$T$C$E$GT$$GT$6encode17h350f634ac42787e3E', symObjAddr: 0x0, symBinAddr: 0x102870, symSize: 0x300 }
  - { offsetInCU: 0x5E6, offset: 0x4FD4E0, size: 0x8, addend: 0x0, symName: '__ZN10proc_macro6bridge104_$LT$impl$u20$proc_macro..bridge..rpc..Encode$LT$S$GT$$u20$for$u20$core..result..Result$LT$T$C$E$GT$$GT$6encode17hee679bc663cb6f45E', symObjAddr: 0x300, symBinAddr: 0x102B70, symSize: 0x280 }
  - { offsetInCU: 0x29, offset: 0x4FE1A9, size: 0x8, addend: 0x0, symName: _anon.7071173dfc4dfb517eb72d82cebbda0a.3.llvm.2718217775483055672, symObjAddr: 0x100, symBinAddr: 0x345BD0, symSize: 0x0 }
  - { offsetInCU: 0x1E, offset: 0x4FE254, size: 0x8, addend: 0x0, symName: '__ZN4core3ptr45drop_in_place$LT$proc_macro2..TokenStream$GT$17h725968a5788a0c43E.llvm.13327649715193446032', symObjAddr: 0x0, symBinAddr: 0x102DF0, symSize: 0x140 }
  - { offsetInCU: 0x1286, offset: 0x4FF4BC, size: 0x8, addend: 0x0, symName: '__ZN4core3ptr45drop_in_place$LT$proc_macro2..TokenStream$GT$17h725968a5788a0c43E.llvm.13327649715193446032', symObjAddr: 0x0, symBinAddr: 0x102DF0, symSize: 0x140 }
  - { offsetInCU: 0x16E2, offset: 0x4FF918, size: 0x8, addend: 0x0, symName: '__ZN4core3ptr65drop_in_place$LT$alloc..vec..Vec$LT$proc_macro..TokenTree$GT$$GT$17h07ad17327f0607d0E.llvm.13327649715193446032', symObjAddr: 0x140, symBinAddr: 0x102F30, symSize: 0x110 }
  - { offsetInCU: 0x4742, offset: 0x502978, size: 0x8, addend: 0x0, symName: __ZN5quote9to_tokens8ToTokens17into_token_stream17h40840372ad4eada8E, symObjAddr: 0x250, symBinAddr: 0x103040, symSize: 0x70 }
  - { offsetInCU: 0x1E, offset: 0x507DED, size: 0x8, addend: 0x0, symName: '__ZN114_$LT$proc_macro..TokenStream$u20$as$u20$core..iter..traits..collect..FromIterator$LT$proc_macro..TokenTree$GT$$GT$9from_iter17hd85edbe37926a598E', symObjAddr: 0x0, symBinAddr: 0x1030B0, symSize: 0xE0 }
  - { offsetInCU: 0x571, offset: 0x508340, size: 0x8, addend: 0x0, symName: '__ZN114_$LT$proc_macro..TokenStream$u20$as$u20$core..iter..traits..collect..FromIterator$LT$proc_macro..TokenTree$GT$$GT$9from_iter17hd85edbe37926a598E', symObjAddr: 0x0, symBinAddr: 0x1030B0, symSize: 0xE0 }
  - { offsetInCU: 0x107D, offset: 0x508E4C, size: 0x8, addend: 0x0, symName: '__ZN4core3ptr243drop_in_place$LT$core..iter..adapters..map..Map$LT$core..iter..adapters..map..Map$LT$proc_macro2..token_stream..IntoIter$C$serde_derive..internals..respan..respan..$u7b$$u7b$closure$u7d$$u7d$$GT$$C$proc_macro2..imp..into_compiler_token$GT$$GT$17h9a2c36134602fcccE.llvm.8992307460049646577', symObjAddr: 0xE0, symBinAddr: 0x103190, symSize: 0x20 }
  - { offsetInCU: 0x11BC, offset: 0x508F8B, size: 0x8, addend: 0x0, symName: '__ZN4core3ptr50drop_in_place$LT$proc_macro..ConcatTreesHelper$GT$17h82e1d25e5ec2f602E.llvm.8992307460049646577', symObjAddr: 0x100, symBinAddr: 0x1031B0, symSize: 0x107 }
  - { offsetInCU: 0x1E, offset: 0x509CDD, size: 0x8, addend: 0x0, symName: '__ZN4core3ptr45drop_in_place$LT$proc_macro2..TokenStream$GT$17h725968a5788a0c43E.llvm.3555280356338289701', symObjAddr: 0x0, symBinAddr: 0x1032C0, symSize: 0x140 }
  - { offsetInCU: 0xB2C, offset: 0x50A7EB, size: 0x8, addend: 0x0, symName: '__ZN4core3ptr45drop_in_place$LT$proc_macro2..TokenStream$GT$17h725968a5788a0c43E.llvm.3555280356338289701', symObjAddr: 0x0, symBinAddr: 0x1032C0, symSize: 0x140 }
  - { offsetInCU: 0xF88, offset: 0x50AC47, size: 0x8, addend: 0x0, symName: '__ZN4core3ptr65drop_in_place$LT$alloc..vec..Vec$LT$proc_macro..TokenTree$GT$$GT$17h07ad17327f0607d0E.llvm.3555280356338289701', symObjAddr: 0x140, symBinAddr: 0x103400, symSize: 0x110 }
  - { offsetInCU: 0x1E, offset: 0x50B9DD, size: 0x8, addend: 0x0, symName: '__ZN44_$LT$$RF$T$u20$as$u20$core..fmt..Display$GT$3fmt17hf20effc33bef2b11E', symObjAddr: 0x0, symBinAddr: 0x103510, symSize: 0x10 }
  - { offsetInCU: 0x64, offset: 0x50BA23, size: 0x8, addend: 0x0, symName: '__ZN44_$LT$$RF$T$u20$as$u20$core..fmt..Display$GT$3fmt17hf20effc33bef2b11E', symObjAddr: 0x0, symBinAddr: 0x103510, symSize: 0x10 }
  - { offsetInCU: 0x360, offset: 0x50BD1F, size: 0x8, addend: 0x0, symName: '__ZN4core3ptr45drop_in_place$LT$proc_macro2..TokenStream$GT$17h725968a5788a0c43E.llvm.17054671881617763604', symObjAddr: 0x10, symBinAddr: 0x103520, symSize: 0x140 }
  - { offsetInCU: 0x7BC, offset: 0x50C17B, size: 0x8, addend: 0x0, symName: '__ZN4core3ptr65drop_in_place$LT$alloc..vec..Vec$LT$proc_macro..TokenTree$GT$$GT$17h07ad17327f0607d0E.llvm.17054671881617763604', symObjAddr: 0x150, symBinAddr: 0x103660, symSize: 0x110 }
  - { offsetInCU: 0x1E, offset: 0x50D92F, size: 0x8, addend: 0x0, symName: '__ZN75_$LT$serde_derive..fragment..Expr$u20$as$u20$quote..to_tokens..ToTokens$GT$9to_tokens17hb7dbccd890ce1adeE', symObjAddr: 0x0, symBinAddr: 0x103770, symSize: 0xB0 }
  - { offsetInCU: 0xAD, offset: 0x50D9BE, size: 0x8, addend: 0x0, symName: '__ZN75_$LT$serde_derive..fragment..Expr$u20$as$u20$quote..to_tokens..ToTokens$GT$9to_tokens17hb7dbccd890ce1adeE', symObjAddr: 0x0, symBinAddr: 0x103770, symSize: 0xB0 }
  - { offsetInCU: 0x1A6, offset: 0x50DAB7, size: 0x8, addend: 0x0, symName: '__ZN76_$LT$serde_derive..fragment..Match$u20$as$u20$quote..to_tokens..ToTokens$GT$9to_tokens17he976fdf741d3fd28E', symObjAddr: 0xC0, symBinAddr: 0x103820, symSize: 0xB9 }
  - { offsetInCU: 0x1E, offset: 0x50ED28, size: 0x8, addend: 0x0, symName: '__ZN4core3ptr45drop_in_place$LT$proc_macro2..TokenStream$GT$17h725968a5788a0c43E.llvm.2386962279387738398', symObjAddr: 0x0, symBinAddr: 0x1038E0, symSize: 0x140 }
  - { offsetInCU: 0xB2C, offset: 0x50F836, size: 0x8, addend: 0x0, symName: '__ZN4core3ptr45drop_in_place$LT$proc_macro2..TokenStream$GT$17h725968a5788a0c43E.llvm.2386962279387738398', symObjAddr: 0x0, symBinAddr: 0x1038E0, symSize: 0x140 }
  - { offsetInCU: 0xF88, offset: 0x50FC92, size: 0x8, addend: 0x0, symName: '__ZN4core3ptr65drop_in_place$LT$alloc..vec..Vec$LT$proc_macro..TokenTree$GT$$GT$17h07ad17327f0607d0E.llvm.2386962279387738398', symObjAddr: 0x140, symBinAddr: 0x103A20, symSize: 0x110 }
  - { offsetInCU: 0x1E, offset: 0x510A21, size: 0x8, addend: 0x0, symName: __ZN10proc_macro6bridge14selfless_reify31reify_to_extern_c_fn_hrt_bridge7wrapper17h33c4b8a3ae0a3a90E, symObjAddr: 0x0, symBinAddr: 0x103B30, symSize: 0x30 }
  - { offsetInCU: 0x1CF, offset: 0x510BD2, size: 0x8, addend: 0x0, symName: __ZN10proc_macro6bridge14selfless_reify31reify_to_extern_c_fn_hrt_bridge7wrapper17h33c4b8a3ae0a3a90E, symObjAddr: 0x0, symBinAddr: 0x103B30, symSize: 0x30 }
  - { offsetInCU: 0x247, offset: 0x510C4A, size: 0x8, addend: 0x0, symName: __ZN10proc_macro6bridge14selfless_reify31reify_to_extern_c_fn_hrt_bridge7wrapper17ha7c9f93be87b1af6E, symObjAddr: 0x30, symBinAddr: 0x103B60, symSize: 0x25 }
  - { offsetInCU: 0x1E, offset: 0x510EA0, size: 0x8, addend: 0x0, symName: '__ZN44_$LT$$RF$T$u20$as$u20$core..fmt..Display$GT$3fmt17h14c07c549194e2c6E', symObjAddr: 0x0, symBinAddr: 0x103B90, symSize: 0x17 }
  - { offsetInCU: 0x64, offset: 0x510EE6, size: 0x8, addend: 0x0, symName: '__ZN44_$LT$$RF$T$u20$as$u20$core..fmt..Display$GT$3fmt17h14c07c549194e2c6E', symObjAddr: 0x0, symBinAddr: 0x103B90, symSize: 0x17 }
  - { offsetInCU: 0x1E, offset: 0x511150, size: 0x8, addend: 0x0, symName: '__ZN77_$LT$$LP$A$C$B$RP$$u20$as$u20$proc_macro..bridge..rpc..DecodeMut$LT$S$GT$$GT$6decode17hc3813e80c81d0632E', symObjAddr: 0x0, symBinAddr: 0x103BB0, symSize: 0xCA }
  - { offsetInCU: 0xB4, offset: 0x5111E6, size: 0x8, addend: 0x0, symName: '__ZN77_$LT$$LP$A$C$B$RP$$u20$as$u20$proc_macro..bridge..rpc..DecodeMut$LT$S$GT$$GT$6decode17hc3813e80c81d0632E', symObjAddr: 0x0, symBinAddr: 0x103BB0, symSize: 0xCA }
  - { offsetInCU: 0x1E, offset: 0x512452, size: 0x8, addend: 0x0, symName: __ZN3std3sys9backtrace26__rust_end_short_backtrace17hb7d3e4ccee7e1bd6E, symObjAddr: 0x0, symBinAddr: 0x103C80, symSize: 0x10 }
  - { offsetInCU: 0x66, offset: 0x51249A, size: 0x8, addend: 0x0, symName: '__ZN3std9panicking11begin_panic28_$u7b$$u7b$closure$u7d$$u7d$17h7b04cbf3d44010fcE', symObjAddr: 0x10, symBinAddr: 0x103C90, symSize: 0x40 }
  - { offsetInCU: 0xD7, offset: 0x51250B, size: 0x8, addend: 0x0, symName: __ZN3std3sys9backtrace26__rust_end_short_backtrace17hb7d3e4ccee7e1bd6E, symObjAddr: 0x0, symBinAddr: 0x103C80, symSize: 0x10 }
  - { offsetInCU: 0x1BA, offset: 0x5125EE, size: 0x8, addend: 0x0, symName: __ZN4core5panic12PanicPayload6as_str17h76eb08bd945b3416E, symObjAddr: 0x50, symBinAddr: 0x103CD0, symSize: 0x8 }
  - { offsetInCU: 0x1E, offset: 0x5126A3, size: 0x8, addend: 0x0, symName: '__ZN36_$LT$T$u20$as$u20$core..any..Any$GT$7type_id17h92233d8b7231ed73E', symObjAddr: 0x0, symBinAddr: 0x103CE0, symSize: 0x1A }
  - { offsetInCU: 0x3A, offset: 0x5126BF, size: 0x8, addend: 0x0, symName: '__ZN36_$LT$T$u20$as$u20$core..any..Any$GT$7type_id17h92233d8b7231ed73E', symObjAddr: 0x0, symBinAddr: 0x103CE0, symSize: 0x1A }
  - { offsetInCU: 0x1E, offset: 0x512790, size: 0x8, addend: 0x0, symName: '__ZN78_$LT$serde_derive..internals..symbol..Symbol$u20$as$u20$core..fmt..Display$GT$3fmt17hde1935000c9594ffE', symObjAddr: 0x0, symBinAddr: 0x103D00, symSize: 0x17 }
  - { offsetInCU: 0x1C3, offset: 0x512935, size: 0x8, addend: 0x0, symName: '__ZN78_$LT$serde_derive..internals..symbol..Symbol$u20$as$u20$core..fmt..Display$GT$3fmt17hde1935000c9594ffE', symObjAddr: 0x0, symBinAddr: 0x103D00, symSize: 0x17 }
  - { offsetInCU: 0x1E, offset: 0x512A5B, size: 0x8, addend: 0x0, symName: '__ZN86_$LT$quote..__private..IdentFragmentAdapter$LT$T$GT$$u20$as$u20$core..fmt..Display$GT$3fmt17h6b75b2d3d39b13adE', symObjAddr: 0x0, symBinAddr: 0x103D20, symSize: 0xD }
  - { offsetInCU: 0x77, offset: 0x512AB4, size: 0x8, addend: 0x0, symName: '__ZN86_$LT$quote..__private..IdentFragmentAdapter$LT$T$GT$$u20$as$u20$core..fmt..Display$GT$3fmt17h6b75b2d3d39b13adE', symObjAddr: 0x0, symBinAddr: 0x103D20, symSize: 0xD }
  - { offsetInCU: 0x4FCF, offset: 0x517D6D, size: 0x8, addend: 0x0, symName: '__ZN3syn4item7parsing63_$LT$impl$u20$syn..parse..Parse$u20$for$u20$syn..item..Item$GT$5parse17h80cf7aab904a267aE', symObjAddr: 0xCD50, symBinAddr: 0x10FB70, symSize: 0x190 }
  - { offsetInCU: 0x555B, offset: 0x5182F9, size: 0x8, addend: 0x0, symName: '__ZN3syn4item7parsing68_$LT$impl$u20$syn..parse..Parse$u20$for$u20$syn..item..ItemMacro$GT$5parse17hc5bb9427f98c7017E', symObjAddr: 0xCEE0, symBinAddr: 0x10FD00, symSize: 0x6B0 }
  - { offsetInCU: 0x61E9, offset: 0x518F87, size: 0x8, addend: 0x0, symName: '__ZN3syn4item7parsing74_$LT$impl$u20$syn..parse..Parse$u20$for$u20$syn..item..ItemExternCrate$GT$5parse17h6d46d67dd87b398fE', symObjAddr: 0xD590, symBinAddr: 0x1103B0, symSize: 0x910 }
  - { offsetInCU: 0x75A9, offset: 0x51A347, size: 0x8, addend: 0x0, symName: '__ZN3syn4item7parsing75_$LT$impl$u20$syn..parse..Parse$u20$for$u20$syn..item..StaticMutability$GT$5parse17h60646f4bbad23fa9E', symObjAddr: 0x1E6F0, symBinAddr: 0x11AE30, symSize: 0xA0 }
  - { offsetInCU: 0x775A, offset: 0x51A4F8, size: 0x8, addend: 0x0, symName: '__ZN3syn4item7parsing68_$LT$impl$u20$syn..parse..Parse$u20$for$u20$syn..item..Signature$GT$5parse17h055acddcceb01c9aE', symObjAddr: 0xF690, symBinAddr: 0x110CC0, symSize: 0xA90 }
  - { offsetInCU: 0x86FC, offset: 0x51B49A, size: 0x8, addend: 0x0, symName: '__ZN3syn4item7parsing67_$LT$impl$u20$syn..parse..Parse$u20$for$u20$syn..item..Receiver$GT$5parse17h7c38822b1e4d7a06E', symObjAddr: 0x10630, symBinAddr: 0x111750, symSize: 0xA20 }
  - { offsetInCU: 0x98BA, offset: 0x51C658, size: 0x8, addend: 0x0, symName: '__ZN3syn4item7parsing66_$LT$impl$u20$syn..parse..Parse$u20$for$u20$syn..item..ItemMod$GT$5parse17h216506bc1f5b0b64E', symObjAddr: 0x11050, symBinAddr: 0x112170, symSize: 0xD80 }
  - { offsetInCU: 0xB619, offset: 0x51E3B7, size: 0x8, addend: 0x0, symName: '__ZN3syn4item7parsing73_$LT$impl$u20$syn..parse..Parse$u20$for$u20$syn..item..ItemForeignMod$GT$5parse17ha80c1978f8841fabE', symObjAddr: 0x11DD0, symBinAddr: 0x112EF0, symSize: 0x720 }
  - { offsetInCU: 0xC9F1, offset: 0x51F78F, size: 0x8, addend: 0x0, symName: '__ZN3syn4item7parsing70_$LT$impl$u20$syn..parse..Parse$u20$for$u20$syn..item..ForeignItem$GT$5parse17hae52281c277c1a2fE', symObjAddr: 0x124F0, symBinAddr: 0x113610, symSize: 0x19B0 }
  - { offsetInCU: 0x10EC0, offset: 0x523C5E, size: 0x8, addend: 0x0, symName: '__ZN3syn4item7parsing69_$LT$impl$u20$syn..parse..Parse$u20$for$u20$syn..item..ItemStruct$GT$5parse17h5f37d45d0509ea74E', symObjAddr: 0x160C0, symBinAddr: 0x114FC0, symSize: 0x720 }
  - { offsetInCU: 0x119AD, offset: 0x52474B, size: 0x8, addend: 0x0, symName: '__ZN3syn4item7parsing67_$LT$impl$u20$syn..parse..Parse$u20$for$u20$syn..item..ItemEnum$GT$5parse17hcfc041400e96f868E', symObjAddr: 0x167E0, symBinAddr: 0x1156E0, symSize: 0x720 }
  - { offsetInCU: 0x1249C, offset: 0x52523A, size: 0x8, addend: 0x0, symName: '__ZN3syn4item7parsing68_$LT$impl$u20$syn..parse..Parse$u20$for$u20$syn..item..ItemUnion$GT$5parse17h3bd0150048f99936E', symObjAddr: 0x16F00, symBinAddr: 0x115E00, symSize: 0x710 }
  - { offsetInCU: 0x12F7F, offset: 0x525D1D, size: 0x8, addend: 0x0, symName: '__ZN3syn4item7parsing68_$LT$impl$u20$syn..parse..Parse$u20$for$u20$syn..item..ItemTrait$GT$5parse17hba3917e64180f729E', symObjAddr: 0x17610, symBinAddr: 0x116510, symSize: 0x630 }
  - { offsetInCU: 0x13CA6, offset: 0x526A44, size: 0x8, addend: 0x0, symName: '__ZN3syn4item7parsing68_$LT$impl$u20$syn..parse..Parse$u20$for$u20$syn..item..TraitItem$GT$5parse17h5e01dedab6d196dfE', symObjAddr: 0x17DA0, symBinAddr: 0x116B40, symSize: 0x1B80 }
  - { offsetInCU: 0x1989B, offset: 0x52C639, size: 0x8, addend: 0x0, symName: '__ZN3syn4item7parsing70_$LT$impl$u20$syn..parse..Parse$u20$for$u20$syn..item..TraitItemFn$GT$5parse17h386721044cd912e3E', symObjAddr: 0x1A250, symBinAddr: 0x1186C0, symSize: 0x850 }
  - { offsetInCU: 0x1AECE, offset: 0x52DC6C, size: 0x8, addend: 0x0, symName: '__ZN3syn4item7parsing67_$LT$impl$u20$syn..parse..Parse$u20$for$u20$syn..item..ImplItem$GT$5parse17h6b1c6f6f70b03df2E', symObjAddr: 0x1B350, symBinAddr: 0x118F10, symSize: 0x1BE0 }
  - { offsetInCU: 0x204C9, offset: 0x533267, size: 0x8, addend: 0x0, symName: '__ZN3syn4item7parsing72_$LT$impl$u20$syn..parse..Parse$u20$for$u20$syn..item..ImplItemMacro$GT$5parse17h34a4a0c85418b70aE', symObjAddr: 0x1E3B0, symBinAddr: 0x11AAF0, symSize: 0x0 }
  - { offsetInCU: 0x20B95, offset: 0x533933, size: 0x8, addend: 0x0, symName: '__ZN3syn4item8printing83_$LT$impl$u20$quote..to_tokens..ToTokens$u20$for$u20$syn..item..ItemExternCrate$GT$9to_tokens17hfe36bc772e4277a0E', symObjAddr: 0x1E790, symBinAddr: 0x11AED0, symSize: 0x250 }
  - { offsetInCU: 0x21151, offset: 0x533EEF, size: 0x8, addend: 0x0, symName: '__ZN3syn4item8printing78_$LT$impl$u20$quote..to_tokens..ToTokens$u20$for$u20$syn..item..ItemStatic$GT$9to_tokens17hbc3d5375fc6c771cE', symObjAddr: 0x1EB70, symBinAddr: 0x11B120, symSize: 0x220 }
  - { offsetInCU: 0x21687, offset: 0x534425, size: 0x8, addend: 0x0, symName: '__ZN3syn4item8printing75_$LT$impl$u20$quote..to_tokens..ToTokens$u20$for$u20$syn..item..ItemMod$GT$9to_tokens17h0200f7c6912b0a1cE', symObjAddr: 0x1F050, symBinAddr: 0x11B340, symSize: 0x230 }
  - { offsetInCU: 0x21B83, offset: 0x534921, size: 0x8, addend: 0x0, symName: '__ZN3syn4item8printing76_$LT$impl$u20$quote..to_tokens..ToTokens$u20$for$u20$syn..item..ItemType$GT$9to_tokens17he708c67807a0f5e7E', symObjAddr: 0x1F440, symBinAddr: 0x11B570, symSize: 0x1C0 }
  - { offsetInCU: 0x21EE2, offset: 0x534C80, size: 0x8, addend: 0x0, symName: '__ZN3syn4item8printing76_$LT$impl$u20$quote..to_tokens..ToTokens$u20$for$u20$syn..item..ItemEnum$GT$9to_tokens17h182a12d3a154632dE', symObjAddr: 0x1F600, symBinAddr: 0x11B730, symSize: 0x180 }
  - { offsetInCU: 0x221C7, offset: 0x534F65, size: 0x8, addend: 0x0, symName: '__ZN3syn4item8printing78_$LT$impl$u20$quote..to_tokens..ToTokens$u20$for$u20$syn..item..ItemStruct$GT$9to_tokens17h8172cc7233ca8fbeE', symObjAddr: 0x1F780, symBinAddr: 0x11B8B0, symSize: 0x220 }
  - { offsetInCU: 0x225AD, offset: 0x53534B, size: 0x8, addend: 0x0, symName: '__ZN3syn4item8printing77_$LT$impl$u20$quote..to_tokens..ToTokens$u20$for$u20$syn..item..ItemUnion$GT$9to_tokens17h6c795ad402d2a166E', symObjAddr: 0x1F9A0, symBinAddr: 0x11BAD0, symSize: 0x180 }
  - { offsetInCU: 0x228B8, offset: 0x535656, size: 0x8, addend: 0x0, symName: '__ZN3syn4item8printing77_$LT$impl$u20$quote..to_tokens..ToTokens$u20$for$u20$syn..item..ItemTrait$GT$9to_tokens17h8121c5f1327add6eE', symObjAddr: 0x1FB20, symBinAddr: 0x11BC50, symSize: 0x320 }
  - { offsetInCU: 0x23305, offset: 0x5360A3, size: 0x8, addend: 0x0, symName: '__ZN3syn4item8printing82_$LT$impl$u20$quote..to_tokens..ToTokens$u20$for$u20$syn..item..ItemTraitAlias$GT$9to_tokens17hc5f43bf815c68949E', symObjAddr: 0x1FE40, symBinAddr: 0x11BF70, symSize: 0x330 }
  - { offsetInCU: 0x23BDC, offset: 0x53697A, size: 0x8, addend: 0x0, symName: '__ZN3syn4item8printing76_$LT$impl$u20$quote..to_tokens..ToTokens$u20$for$u20$syn..item..ItemImpl$GT$9to_tokens17h0c3a9ddae74c937dE', symObjAddr: 0x20170, symBinAddr: 0x11C2A0, symSize: 0x340 }
  - { offsetInCU: 0x24429, offset: 0x5371C7, size: 0x8, addend: 0x0, symName: '__ZN3syn4item8printing77_$LT$impl$u20$quote..to_tokens..ToTokens$u20$for$u20$syn..item..ItemMacro$GT$9to_tokens17haec818905d80644fE', symObjAddr: 0x204B0, symBinAddr: 0x11C5E0, symSize: 0x190 }
  - { offsetInCU: 0x2485D, offset: 0x5375FB, size: 0x8, addend: 0x0, symName: '__ZN3syn4item8printing82_$LT$impl$u20$quote..to_tokens..ToTokens$u20$for$u20$syn..item..TraitItemConst$GT$9to_tokens17h76e791416bf823d1E', symObjAddr: 0x20790, symBinAddr: 0x11C770, symSize: 0x1C0 }
  - { offsetInCU: 0x24BF4, offset: 0x537992, size: 0x8, addend: 0x0, symName: '__ZN3syn4item8printing81_$LT$impl$u20$quote..to_tokens..ToTokens$u20$for$u20$syn..item..TraitItemType$GT$9to_tokens17hbe42b3bab95c6768E', symObjAddr: 0x20AB0, symBinAddr: 0x11C930, symSize: 0x240 }
  - { offsetInCU: 0x25038, offset: 0x537DD6, size: 0x8, addend: 0x0, symName: '__ZN3syn4item8printing81_$LT$impl$u20$quote..to_tokens..ToTokens$u20$for$u20$syn..item..ImplItemConst$GT$9to_tokens17hdd48b33068953141E', symObjAddr: 0x20CF0, symBinAddr: 0x11CB70, symSize: 0x240 }
  - { offsetInCU: 0x254F0, offset: 0x53828E, size: 0x8, addend: 0x0, symName: '__ZN3syn4item8printing80_$LT$impl$u20$quote..to_tokens..ToTokens$u20$for$u20$syn..item..ImplItemType$GT$9to_tokens17hbce09990808c878cE', symObjAddr: 0x21090, symBinAddr: 0x11CDB0, symSize: 0x230 }
  - { offsetInCU: 0x259DE, offset: 0x53877C, size: 0x8, addend: 0x0, symName: '__ZN3syn4item8printing85_$LT$impl$u20$quote..to_tokens..ToTokens$u20$for$u20$syn..item..ForeignItemStatic$GT$9to_tokens17h378f5a1dfc9fdf33E', symObjAddr: 0x214C0, symBinAddr: 0x11CFE0, symSize: 0x200 }
  - { offsetInCU: 0x25E68, offset: 0x538C06, size: 0x8, addend: 0x0, symName: '__ZN3syn4item8printing83_$LT$impl$u20$quote..to_tokens..ToTokens$u20$for$u20$syn..item..ForeignItemType$GT$9to_tokens17h4ed6b28f8ddb36b2E', symObjAddr: 0x216C0, symBinAddr: 0x11D1E0, symSize: 0x190 }
  - { offsetInCU: 0x26175, offset: 0x538F13, size: 0x8, addend: 0x0, symName: '__ZN3syn4item8printing77_$LT$impl$u20$quote..to_tokens..ToTokens$u20$for$u20$syn..item..Signature$GT$9to_tokens17h487e336073ff52a3E', symObjAddr: 0x21850, symBinAddr: 0x11D370, symSize: 0x330 }
  - { offsetInCU: 0x2694C, offset: 0x5396EA, size: 0x8, addend: 0x0, symName: '__ZN3syn4item8printing76_$LT$impl$u20$quote..to_tokens..ToTokens$u20$for$u20$syn..item..Receiver$GT$9to_tokens17h0593f180191f94a9E', symObjAddr: 0x21B80, symBinAddr: 0x11D6A0, symSize: 0x2E0 }
  - { offsetInCU: 0x270FB, offset: 0x539E99, size: 0x8, addend: 0x0, symName: '__ZN3syn4item8printing76_$LT$impl$u20$quote..to_tokens..ToTokens$u20$for$u20$syn..item..Variadic$GT$9to_tokens17h5d9696317f3ad996E', symObjAddr: 0x21E60, symBinAddr: 0x11D980, symSize: 0x130 }
  - { offsetInCU: 0x27412, offset: 0x53A1B0, size: 0x8, addend: 0x0, symName: '__ZN62_$LT$syn..item..Item$u20$as$u20$quote..to_tokens..ToTokens$GT$9to_tokens17he7e69ecbc61b7b2cE', symObjAddr: 0x22010, symBinAddr: 0x11DAB0, symSize: 0x730 }
  - { offsetInCU: 0x2828C, offset: 0x53B02A, size: 0x8, addend: 0x0, symName: '__ZN65_$LT$syn..item..UseTree$u20$as$u20$quote..to_tokens..ToTokens$GT$9to_tokens17hee39f883784acb47E', symObjAddr: 0x22740, symBinAddr: 0x11E1E0, symSize: 0x310 }
  - { offsetInCU: 0x28B41, offset: 0x53B8DF, size: 0x8, addend: 0x0, symName: '__ZN69_$LT$syn..item..ForeignItem$u20$as$u20$quote..to_tokens..ToTokens$GT$9to_tokens17hb7bfc5d782828218E', symObjAddr: 0x22A50, symBinAddr: 0x11E4F0, symSize: 0x250 }
  - { offsetInCU: 0x28F66, offset: 0x53BD04, size: 0x8, addend: 0x0, symName: '__ZN67_$LT$syn..item..TraitItem$u20$as$u20$quote..to_tokens..ToTokens$GT$9to_tokens17h9010403c8466e854E', symObjAddr: 0x22CA0, symBinAddr: 0x11E740, symSize: 0x2B0 }
  - { offsetInCU: 0x293FA, offset: 0x53C198, size: 0x8, addend: 0x0, symName: '__ZN66_$LT$syn..item..ImplItem$u20$as$u20$quote..to_tokens..ToTokens$GT$9to_tokens17h9ce4fd01d680c33dE', symObjAddr: 0x22F50, symBinAddr: 0x11E9F0, symSize: 0x2E0 }
  - { offsetInCU: 0x2A096, offset: 0x53CE34, size: 0x8, addend: 0x0, symName: '__ZN3syn3gen5clone67_$LT$impl$u20$core..clone..Clone$u20$for$u20$syn..item..UseTree$GT$5clone17he4721d92d6223b97E', symObjAddr: 0x28540, symBinAddr: 0x123AA0, symSize: 0x2A0 }
  - { offsetInCU: 0x2A77A, offset: 0x53D518, size: 0x8, addend: 0x0, symName: '__ZN3syn3gen5clone71_$LT$impl$u20$core..clone..Clone$u20$for$u20$syn..item..ForeignItem$GT$5clone17hee3f13bdccecaf04E', symObjAddr: 0x23290, symBinAddr: 0x11ECD0, symSize: 0x2A0 }
  - { offsetInCU: 0x2AB58, offset: 0x53D8F6, size: 0x8, addend: 0x0, symName: '__ZN3syn3gen5clone77_$LT$impl$u20$core..clone..Clone$u20$for$u20$syn..item..ForeignItemStatic$GT$5clone17h1c013599a1b7e0d2E', symObjAddr: 0x23620, symBinAddr: 0x11EF70, symSize: 0x1E0 }
  - { offsetInCU: 0x2AFF9, offset: 0x53DD97, size: 0x8, addend: 0x0, symName: '__ZN3syn3gen5clone75_$LT$impl$u20$core..clone..Clone$u20$for$u20$syn..item..ForeignItemType$GT$5clone17h39c42a7ed9f93bc7E', symObjAddr: 0x23800, symBinAddr: 0x11F150, symSize: 0x290 }
  - { offsetInCU: 0x2B33A, offset: 0x53E0D8, size: 0x8, addend: 0x0, symName: '__ZN3syn3gen5clone68_$LT$impl$u20$core..clone..Clone$u20$for$u20$syn..item..ImplItem$GT$5clone17hfcffd5bef6db6eefE', symObjAddr: 0x23A90, symBinAddr: 0x11F3E0, symSize: 0x1E0 }
  - { offsetInCU: 0x2B67B, offset: 0x53E419, size: 0x8, addend: 0x0, symName: '__ZN3syn3gen5clone73_$LT$impl$u20$core..clone..Clone$u20$for$u20$syn..item..ImplItemConst$GT$5clone17hcba22f66f4790359E', symObjAddr: 0x23C70, symBinAddr: 0x11F5C0, symSize: 0x3C0 }
  - { offsetInCU: 0x2BA39, offset: 0x53E7D7, size: 0x8, addend: 0x0, symName: '__ZN3syn3gen5clone70_$LT$impl$u20$core..clone..Clone$u20$for$u20$syn..item..ImplItemFn$GT$5clone17hfa99a17b751a231eE', symObjAddr: 0x24030, symBinAddr: 0x11F980, symSize: 0x170 }
  - { offsetInCU: 0x2BAE6, offset: 0x53E884, size: 0x8, addend: 0x0, symName: '__ZN3syn3gen5clone72_$LT$impl$u20$core..clone..Clone$u20$for$u20$syn..item..ImplItemType$GT$5clone17h0cbe501e4ceb9fa6E', symObjAddr: 0x24230, symBinAddr: 0x11FAF0, symSize: 0x360 }
  - { offsetInCU: 0x2BE9B, offset: 0x53EC39, size: 0x8, addend: 0x0, symName: '__ZN3syn3gen5clone64_$LT$impl$u20$core..clone..Clone$u20$for$u20$syn..item..Item$GT$5clone17h88393b98a180baddE', symObjAddr: 0x24590, symBinAddr: 0x11FE50, symSize: 0x3C0 }
  - { offsetInCU: 0x2C3EF, offset: 0x53F18D, size: 0x8, addend: 0x0, symName: '__ZN3syn3gen5clone69_$LT$impl$u20$core..clone..Clone$u20$for$u20$syn..item..ItemConst$GT$5clone17h625d5dfdf97f0db7E', symObjAddr: 0x24950, symBinAddr: 0x120210, symSize: 0x410 }
  - { offsetInCU: 0x2CB9B, offset: 0x53F939, size: 0x8, addend: 0x0, symName: '__ZN3syn3gen5clone68_$LT$impl$u20$core..clone..Clone$u20$for$u20$syn..item..ItemEnum$GT$5clone17hcbd28186f3af1a48E', symObjAddr: 0x24D60, symBinAddr: 0x120620, symSize: 0x320 }
  - { offsetInCU: 0x2CE9F, offset: 0x53FC3D, size: 0x8, addend: 0x0, symName: '__ZN3syn3gen5clone75_$LT$impl$u20$core..clone..Clone$u20$for$u20$syn..item..ItemExternCrate$GT$5clone17heae6e2f0373fe0bbE', symObjAddr: 0x25080, symBinAddr: 0x120940, symSize: 0x1A0 }
  - { offsetInCU: 0x2D1B4, offset: 0x53FF52, size: 0x8, addend: 0x0, symName: '__ZN3syn3gen5clone66_$LT$impl$u20$core..clone..Clone$u20$for$u20$syn..item..ItemFn$GT$5clone17h4e6ff2347c0f748eE', symObjAddr: 0x25220, symBinAddr: 0x120AE0, symSize: 0x190 }
  - { offsetInCU: 0x2D44C, offset: 0x5401EA, size: 0x8, addend: 0x0, symName: '__ZN3syn3gen5clone68_$LT$impl$u20$core..clone..Clone$u20$for$u20$syn..item..ItemImpl$GT$5clone17hd2b1c2db65c8a4ebE', symObjAddr: 0x25490, symBinAddr: 0x120C70, symSize: 0x470 }
  - { offsetInCU: 0x2D91F, offset: 0x5406BD, size: 0x8, addend: 0x0, symName: '__ZN3syn3gen5clone69_$LT$impl$u20$core..clone..Clone$u20$for$u20$syn..item..ItemMacro$GT$5clone17h7d6f56f137cac903E', symObjAddr: 0x25900, symBinAddr: 0x1210E0, symSize: 0x120 }
  - { offsetInCU: 0x2DB5B, offset: 0x5408F9, size: 0x8, addend: 0x0, symName: '__ZN3syn3gen5clone67_$LT$impl$u20$core..clone..Clone$u20$for$u20$syn..item..ItemMod$GT$5clone17h08b706d9debac69fE', symObjAddr: 0x25A20, symBinAddr: 0x121200, symSize: 0x200 }
  - { offsetInCU: 0x2DE22, offset: 0x540BC0, size: 0x8, addend: 0x0, symName: '__ZN3syn3gen5clone70_$LT$impl$u20$core..clone..Clone$u20$for$u20$syn..item..ItemStatic$GT$5clone17h7d89c79988a48493E', symObjAddr: 0x25C20, symBinAddr: 0x121400, symSize: 0x290 }
  - { offsetInCU: 0x2E4F3, offset: 0x541291, size: 0x8, addend: 0x0, symName: '__ZN3syn3gen5clone70_$LT$impl$u20$core..clone..Clone$u20$for$u20$syn..item..ItemStruct$GT$5clone17h25082ded106363f3E', symObjAddr: 0x25EB0, symBinAddr: 0x121690, symSize: 0x3D0 }
  - { offsetInCU: 0x2E908, offset: 0x5416A6, size: 0x8, addend: 0x0, symName: '__ZN3syn3gen5clone69_$LT$impl$u20$core..clone..Clone$u20$for$u20$syn..item..ItemTrait$GT$5clone17ha34a4241e37415ecE', symObjAddr: 0x26280, symBinAddr: 0x121A60, symSize: 0x3E0 }
  - { offsetInCU: 0x2EC98, offset: 0x541A36, size: 0x8, addend: 0x0, symName: '__ZN3syn3gen5clone74_$LT$impl$u20$core..clone..Clone$u20$for$u20$syn..item..ItemTraitAlias$GT$5clone17hef59f8a644aff956E', symObjAddr: 0x26660, symBinAddr: 0x121E40, symSize: 0x320 }
  - { offsetInCU: 0x2EFF8, offset: 0x541D96, size: 0x8, addend: 0x0, symName: '__ZN3syn3gen5clone68_$LT$impl$u20$core..clone..Clone$u20$for$u20$syn..item..ItemType$GT$5clone17h2cc3a1af26227a5bE', symObjAddr: 0x26980, symBinAddr: 0x122160, symSize: 0x350 }
  - { offsetInCU: 0x2F574, offset: 0x542312, size: 0x8, addend: 0x0, symName: '__ZN3syn3gen5clone69_$LT$impl$u20$core..clone..Clone$u20$for$u20$syn..item..ItemUnion$GT$5clone17h9499aeac8cc94731E', symObjAddr: 0x26CD0, symBinAddr: 0x1224B0, symSize: 0x340 }
  - { offsetInCU: 0x2F8C2, offset: 0x542660, size: 0x8, addend: 0x0, symName: '__ZN3syn3gen5clone67_$LT$impl$u20$core..clone..Clone$u20$for$u20$syn..item..ItemUse$GT$5clone17h83cf32ef390bdd8aE', symObjAddr: 0x27010, symBinAddr: 0x1227F0, symSize: 0x130 }
  - { offsetInCU: 0x2F982, offset: 0x542720, size: 0x8, addend: 0x0, symName: '__ZN3syn3gen5clone68_$LT$impl$u20$core..clone..Clone$u20$for$u20$syn..item..Receiver$GT$5clone17h3f91689b2c338982E', symObjAddr: 0x27140, symBinAddr: 0x122920, symSize: 0x1B0 }
  - { offsetInCU: 0x2FD97, offset: 0x542B35, size: 0x8, addend: 0x0, symName: '__ZN3syn3gen5clone69_$LT$impl$u20$core..clone..Clone$u20$for$u20$syn..item..Signature$GT$5clone17hf28c97c0572e4c68E', symObjAddr: 0x272F0, symBinAddr: 0x122AD0, symSize: 0x5A0 }
  - { offsetInCU: 0x3054F, offset: 0x5432ED, size: 0x8, addend: 0x0, symName: '__ZN3syn3gen5clone69_$LT$impl$u20$core..clone..Clone$u20$for$u20$syn..item..TraitItem$GT$5clone17hd22c218447a047bfE', symObjAddr: 0x27890, symBinAddr: 0x123070, symSize: 0x1E0 }
  - { offsetInCU: 0x30890, offset: 0x54362E, size: 0x8, addend: 0x0, symName: '__ZN3syn3gen5clone74_$LT$impl$u20$core..clone..Clone$u20$for$u20$syn..item..TraitItemConst$GT$5clone17he22a2ce3bf5c1704E', symObjAddr: 0x27A70, symBinAddr: 0x123250, symSize: 0x370 }
  - { offsetInCU: 0x30C58, offset: 0x5439F6, size: 0x8, addend: 0x0, symName: '__ZN3syn3gen5clone71_$LT$impl$u20$core..clone..Clone$u20$for$u20$syn..item..TraitItemFn$GT$5clone17h7ac8fc7a77eb5240E', symObjAddr: 0x27DE0, symBinAddr: 0x1235C0, symSize: 0x150 }
  - { offsetInCU: 0x30D4A, offset: 0x543AE8, size: 0x8, addend: 0x0, symName: '__ZN3syn3gen5clone73_$LT$impl$u20$core..clone..Clone$u20$for$u20$syn..item..TraitItemType$GT$5clone17h83742b5ed183cb22E', symObjAddr: 0x27F30, symBinAddr: 0x123710, symSize: 0x390 }
  - { offsetInCU: 0x31109, offset: 0x543EA7, size: 0x8, addend: 0x0, symName: '__ZN3syn3gen5clone68_$LT$impl$u20$core..clone..Clone$u20$for$u20$syn..item..Variadic$GT$5clone17h397fcedc25d54663E', symObjAddr: 0x287E0, symBinAddr: 0x123D40, symSize: 0x110 }
  - { offsetInCU: 0x33B4D, offset: 0x5468EB, size: 0x8, addend: 0x0, symName: '__ZN4core3ptr100drop_in_place$LT$core..option..Option$LT$alloc..boxed..Box$LT$syn..path..GenericArgument$GT$$GT$$GT$17h3a7c44b9e57fe410E', symObjAddr: 0x6C0, symBinAddr: 0x1040D0, symSize: 0x50 }
  - { offsetInCU: 0x33E6F, offset: 0x546C0D, size: 0x8, addend: 0x0, symName: '__ZN4core3ptr100drop_in_place$LT$syn..punctuated..Punctuated$LT$syn..path..PathSegment$C$syn..token..PathSep$GT$$GT$17he41ef64147139591E', symObjAddr: 0x710, symBinAddr: 0x104120, symSize: 0x2B0 }
  - { offsetInCU: 0x34925, offset: 0x5476C3, size: 0x8, addend: 0x0, symName: '__ZN4core3ptr103drop_in_place$LT$core..option..Option$LT$alloc..boxed..Box$LT$syn..generics..TypeParamBound$GT$$GT$$GT$17hb14e4384a768542bE', symObjAddr: 0x9C0, symBinAddr: 0x1043D0, symSize: 0x50 }
  - { offsetInCU: 0x34B6E, offset: 0x54790C, size: 0x8, addend: 0x0, symName: '__ZN4core3ptr103drop_in_place$LT$core..option..Option$LT$alloc..boxed..Box$LT$syn..generics..WherePredicate$GT$$GT$$GT$17he190813f4819c5dbE', symObjAddr: 0xA10, symBinAddr: 0x104420, symSize: 0xD0 }
  - { offsetInCU: 0x34F02, offset: 0x547CA0, size: 0x8, addend: 0x0, symName: '__ZN4core3ptr103drop_in_place$LT$syn..punctuated..Punctuated$LT$syn..generics..GenericParam$C$syn..token..Comma$GT$$GT$17h0c6077a988036760E', symObjAddr: 0xAE0, symBinAddr: 0x1044F0, symSize: 0xF0 }
  - { offsetInCU: 0x353A0, offset: 0x54813E, size: 0x8, addend: 0x0, symName: '__ZN4core3ptr104drop_in_place$LT$syn..punctuated..Punctuated$LT$syn..generics..TypeParamBound$C$syn..token..Plus$GT$$GT$17h724e4d9d1d65061aE', symObjAddr: 0xBD0, symBinAddr: 0x1045E0, symSize: 0x190 }
  - { offsetInCU: 0x359E2, offset: 0x548780, size: 0x8, addend: 0x0, symName: '__ZN4core3ptr107drop_in_place$LT$$LP$syn..restriction..Visibility$C$core..option..Option$LT$syn..token..Default$GT$$RP$$GT$17h7dbdeb5ac6957065E', symObjAddr: 0xD60, symBinAddr: 0x104770, symSize: 0x60 }
  - { offsetInCU: 0x35B9F, offset: 0x54893D, size: 0x8, addend: 0x0, symName: '__ZN4core3ptr115drop_in_place$LT$core..option..Option$LT$$LP$alloc..boxed..Box$LT$syn..pat..Pat$GT$$C$syn..token..Colon$RP$$GT$$GT$17h787822396d5dcd7bE', symObjAddr: 0xDC0, symBinAddr: 0x1047D0, symSize: 0x50 }
  - { offsetInCU: 0x35D71, offset: 0x548B0F, size: 0x8, addend: 0x0, symName: '__ZN4core3ptr115drop_in_place$LT$core..option..Option$LT$$LP$syn..token..Brace$C$alloc..vec..Vec$LT$syn..item..Item$GT$$RP$$GT$$GT$17h4f61046186bbd7c9E', symObjAddr: 0xE10, symBinAddr: 0x104820, symSize: 0xD0 }
  - { offsetInCU: 0x36088, offset: 0x548E26, size: 0x8, addend: 0x0, symName: '__ZN4core3ptr126drop_in_place$LT$core..option..Option$LT$$LP$syn..token..And$C$core..option..Option$LT$syn..lifetime..Lifetime$GT$$RP$$GT$$GT$17h45c5d73e12cdf6f0E', symObjAddr: 0xEE0, symBinAddr: 0x1048F0, symSize: 0x30 }
  - { offsetInCU: 0x36336, offset: 0x5490D4, size: 0x8, addend: 0x0, symName: '__ZN4core3ptr34drop_in_place$LT$syn..lit..Lit$GT$17hd64dde89a262341dE', symObjAddr: 0xF90, symBinAddr: 0x104920, symSize: 0x120 }
  - { offsetInCU: 0x36805, offset: 0x5495A3, size: 0x8, addend: 0x0, symName: '__ZN4core3ptr34drop_in_place$LT$syn..pat..Pat$GT$17hf88887878261d63cE', symObjAddr: 0x10B0, symBinAddr: 0x104A40, symSize: 0x1100 }
  - { offsetInCU: 0x3ADE3, offset: 0x54DB81, size: 0x8, addend: 0x0, symName: '__ZN4core3ptr34drop_in_place$LT$syn..ty..Type$GT$17ha80dd29b0f9d4a3fE', symObjAddr: 0x21B0, symBinAddr: 0x105B40, symSize: 0x510 }
  - { offsetInCU: 0x3C45B, offset: 0x54F1F9, size: 0x8, addend: 0x0, symName: '__ZN4core3ptr36drop_in_place$LT$syn..expr..Expr$GT$17h10f573b40ddd212cE', symObjAddr: 0x26C0, symBinAddr: 0x106050, symSize: 0x2840 }
  - { offsetInCU: 0x46976, offset: 0x559714, size: 0x8, addend: 0x0, symName: '__ZN4core3ptr36drop_in_place$LT$syn..item..Item$GT$17haa59cf9e39ab8cebE', symObjAddr: 0x4F00, symBinAddr: 0x108890, symSize: 0x1940 }
  - { offsetInCU: 0x4CD39, offset: 0x55FAD7, size: 0x8, addend: 0x0, symName: '__ZN4core3ptr36drop_in_place$LT$syn..mac..Macro$GT$17hc3b30a7a8a34cc2dE', symObjAddr: 0x6840, symBinAddr: 0x10A1D0, symSize: 0x40 }
  - { offsetInCU: 0x4CD73, offset: 0x55FB11, size: 0x8, addend: 0x0, symName: '__ZN4core3ptr36drop_in_place$LT$syn..path..Path$GT$17h75c74a97d5f0a03bE', symObjAddr: 0x6880, symBinAddr: 0x10A210, symSize: 0x280 }
  - { offsetInCU: 0x4D820, offset: 0x5605BE, size: 0x8, addend: 0x0, symName: '__ZN4core3ptr37drop_in_place$LT$syn..stmt..Block$GT$17h6fc3254d5688f2c3E', symObjAddr: 0x6B00, symBinAddr: 0x10A490, symSize: 0xD0 }
  - { offsetInCU: 0x4DB16, offset: 0x5608B4, size: 0x8, addend: 0x0, symName: '__ZN4core3ptr38drop_in_place$LT$syn..data..Fields$GT$17h79840861dd1f691dE', symObjAddr: 0x6BD0, symBinAddr: 0x10A560, symSize: 0x190 }
  - { offsetInCU: 0x4DF60, offset: 0x560CFE, size: 0x8, addend: 0x0, symName: '__ZN4core3ptr38drop_in_place$LT$syn..expr..Member$GT$17h6b0cf84594ce6bceE', symObjAddr: 0x6D60, symBinAddr: 0x10A6F0, symSize: 0x30 }
  - { offsetInCU: 0x4E05C, offset: 0x560DFA, size: 0x8, addend: 0x0, symName: '__ZN4core3ptr38drop_in_place$LT$syn..pat..PatType$GT$17h835dce85ba90235eE.llvm.18308377727791997679', symObjAddr: 0x6D90, symBinAddr: 0x10A720, symSize: 0x140 }
  - { offsetInCU: 0x4E607, offset: 0x5613A5, size: 0x8, addend: 0x0, symName: '__ZN4core3ptr39drop_in_place$LT$proc_macro2..Ident$GT$17ha28fef9769e267d9E', symObjAddr: 0x6ED0, symBinAddr: 0x10A860, symSize: 0x30 }
  - { offsetInCU: 0x4E760, offset: 0x5614FE, size: 0x8, addend: 0x0, symName: '__ZN4core3ptr39drop_in_place$LT$syn..item..UseTree$GT$17h7288572c631f954aE', symObjAddr: 0x6F70, symBinAddr: 0x10A890, symSize: 0xE0 }
  - { offsetInCU: 0x4EB64, offset: 0x561902, size: 0x8, addend: 0x0, symName: '__ZN4core3ptr40drop_in_place$LT$syn..item..ImplItem$GT$17h98907b2080b0ccb0E', symObjAddr: 0x7050, symBinAddr: 0x10A970, symSize: 0x4D0 }
  - { offsetInCU: 0x4F998, offset: 0x562736, size: 0x8, addend: 0x0, symName: '__ZN4core3ptr40drop_in_place$LT$syn..item..Receiver$GT$17h5e68a437c3b8e574E.llvm.18308377727791997679', symObjAddr: 0x7520, symBinAddr: 0x10AE40, symSize: 0x130 }
  - { offsetInCU: 0x4FF83, offset: 0x562D21, size: 0x8, addend: 0x0, symName: '__ZN4core3ptr40drop_in_place$LT$syn..item..Variadic$GT$17hf9d4ebdb0f5e723aE', symObjAddr: 0x7660, symBinAddr: 0x10AF70, symSize: 0x120 }
  - { offsetInCU: 0x50408, offset: 0x5631A6, size: 0x8, addend: 0x0, symName: '__ZN4core3ptr40drop_in_place$LT$syn..ty..ReturnType$GT$17h035a612e322b6510E', symObjAddr: 0x7780, symBinAddr: 0x10B090, symSize: 0x50 }
  - { offsetInCU: 0x50578, offset: 0x563316, size: 0x8, addend: 0x0, symName: '__ZN4core3ptr41drop_in_place$LT$syn..expr..ExprConst$GT$17hbfe19d5d621e6836E', symObjAddr: 0x77D0, symBinAddr: 0x10B0E0, symSize: 0x180 }
  - { offsetInCU: 0x50B84, offset: 0x563922, size: 0x8, addend: 0x0, symName: '__ZN4core3ptr41drop_in_place$LT$syn..item..Signature$GT$17h41f785211ad8eb02E', symObjAddr: 0x7950, symBinAddr: 0x10B260, symSize: 0x180 }
  - { offsetInCU: 0x51274, offset: 0x564012, size: 0x8, addend: 0x0, symName: '__ZN4core3ptr41drop_in_place$LT$syn..item..TraitItem$GT$17hc74edaa948c160a2E', symObjAddr: 0x7AD0, symBinAddr: 0x10B3E0, symSize: 0x5F0 }
  - { offsetInCU: 0x52464, offset: 0x565202, size: 0x8, addend: 0x0, symName: '__ZN4core3ptr42drop_in_place$LT$syn..item..ImplItemFn$GT$17haf8f89161f0a8aa1E', symObjAddr: 0x8110, symBinAddr: 0x10B9D0, symSize: 0x200 }
  - { offsetInCU: 0x52BCC, offset: 0x56596A, size: 0x8, addend: 0x0, symName: '__ZN4core3ptr43drop_in_place$LT$syn..data..FieldsNamed$GT$17h56bef6f151514865E', symObjAddr: 0x8310, symBinAddr: 0x10BBD0, symSize: 0xE0 }
  - { offsetInCU: 0x52F6E, offset: 0x565D0C, size: 0x8, addend: 0x0, symName: '__ZN4core3ptr43drop_in_place$LT$syn..item..ForeignItem$GT$17h8033abfc56dac52fE', symObjAddr: 0x83F0, symBinAddr: 0x10BCB0, symSize: 0x520 }
  - { offsetInCU: 0x5431A, offset: 0x5670B8, size: 0x8, addend: 0x0, symName: '__ZN4core3ptr44drop_in_place$LT$syn..generics..Generics$GT$17h671de917167f8b66E', symObjAddr: 0x8910, symBinAddr: 0x10C1D0, symSize: 0x40 }
  - { offsetInCU: 0x54337, offset: 0x5670D5, size: 0x8, addend: 0x0, symName: '__ZN4core3ptr44drop_in_place$LT$syn..lifetime..Lifetime$GT$17he37fa474f03de7b1E', symObjAddr: 0x8950, symBinAddr: 0x10C210, symSize: 0x30 }
  - { offsetInCU: 0x544AF, offset: 0x56724D, size: 0x8, addend: 0x0, symName: '__ZN4core3ptr44drop_in_place$LT$syn..parse..ParseBuffer$GT$17hf792ff20095efc35E.llvm.18308377727791997679', symObjAddr: 0x8980, symBinAddr: 0x10C240, symSize: 0x70 }
  - { offsetInCU: 0x548C6, offset: 0x567664, size: 0x8, addend: 0x0, symName: '__ZN4core3ptr45drop_in_place$LT$proc_macro2..TokenStream$GT$17h76e8e68015f4924dE', symObjAddr: 0x89F0, symBinAddr: 0x10C2B0, symSize: 0x140 }
  - { offsetInCU: 0x54D60, offset: 0x567AFE, size: 0x8, addend: 0x0, symName: '__ZN4core3ptr45drop_in_place$LT$syn..generics..TypeParam$GT$17h188a459c1380ac75E', symObjAddr: 0x8B30, symBinAddr: 0x10C3F0, symSize: 0x230 }
  - { offsetInCU: 0x555D5, offset: 0x568373, size: 0x8, addend: 0x0, symName: '__ZN4core3ptr46drop_in_place$LT$syn..generics..ConstParam$GT$17h7a9b900b2b88bfcdE', symObjAddr: 0x8D60, symBinAddr: 0x10C620, symSize: 0x150 }
  - { offsetInCU: 0x55A56, offset: 0x5687F4, size: 0x8, addend: 0x0, symName: '__ZN4core3ptr47drop_in_place$LT$syn..path..GenericArgument$GT$17h593f06d6ca9a94d2E', symObjAddr: 0x8EB0, symBinAddr: 0x10C770, symSize: 0x4A0 }
  - { offsetInCU: 0x56B5C, offset: 0x5698FA, size: 0x8, addend: 0x0, symName: '__ZN4core3ptr49drop_in_place$LT$syn..generics..LifetimeParam$GT$17h3a8835ab294bfd16E', symObjAddr: 0x9350, symBinAddr: 0x10CC10, symSize: 0xF0 }
  - { offsetInCU: 0x56F73, offset: 0x569D11, size: 0x8, addend: 0x0, symName: '__ZN4core3ptr49drop_in_place$LT$syn..restriction..Visibility$GT$17h3e52b998838defb1E', symObjAddr: 0x9440, symBinAddr: 0x10CD00, symSize: 0x60 }
  - { offsetInCU: 0x570E8, offset: 0x569E86, size: 0x8, addend: 0x0, symName: '__ZN4core3ptr50drop_in_place$LT$syn..generics..TypeParamBound$GT$17h81b4325b5900604dE', symObjAddr: 0x94A0, symBinAddr: 0x10CD60, symSize: 0x1C0 }
  - { offsetInCU: 0x57664, offset: 0x56A402, size: 0x8, addend: 0x0, symName: '__ZN4core3ptr58drop_in_place$LT$alloc..vec..Vec$LT$syn..expr..Arm$GT$$GT$17hff9224aadf2233b8E', symObjAddr: 0x96A0, symBinAddr: 0x10CF20, symSize: 0xD0 }
  - { offsetInCU: 0x57924, offset: 0x56A6C2, size: 0x8, addend: 0x0, symName: '__ZN4core3ptr59drop_in_place$LT$alloc..boxed..Box$LT$syn..pat..Pat$GT$$GT$17h622b0c1db21c0742E', symObjAddr: 0x9770, symBinAddr: 0x10CFF0, symSize: 0x50 }
  - { offsetInCU: 0x57A7D, offset: 0x56A81B, size: 0x8, addend: 0x0, symName: '__ZN4core3ptr59drop_in_place$LT$alloc..boxed..Box$LT$syn..ty..Type$GT$$GT$17hde45fa887dd8b605E', symObjAddr: 0x97C0, symBinAddr: 0x10D040, symSize: 0x50 }
  - { offsetInCU: 0x57BD6, offset: 0x56A974, size: 0x8, addend: 0x0, symName: '__ZN4core3ptr59drop_in_place$LT$alloc..vec..Vec$LT$syn..item..Item$GT$$GT$17h8590e8c8e196c3c2E', symObjAddr: 0x9810, symBinAddr: 0x10D090, symSize: 0xD0 }
  - { offsetInCU: 0x57E96, offset: 0x56AC34, size: 0x8, addend: 0x0, symName: '__ZN4core3ptr59drop_in_place$LT$alloc..vec..Vec$LT$syn..stmt..Stmt$GT$$GT$17h6cf3e54f41bc03bdE', symObjAddr: 0x98E0, symBinAddr: 0x10D160, symSize: 0xD0 }
  - { offsetInCU: 0x58156, offset: 0x56AEF4, size: 0x8, addend: 0x0, symName: '__ZN4core3ptr61drop_in_place$LT$alloc..boxed..Box$LT$syn..expr..Expr$GT$$GT$17hbb42293869113942E', symObjAddr: 0x99B0, symBinAddr: 0x10D230, symSize: 0x50 }
  - { offsetInCU: 0x5832B, offset: 0x56B0C9, size: 0x8, addend: 0x0, symName: '__ZN4core3ptr61drop_in_place$LT$syn..path..ParenthesizedGenericArguments$GT$17h6b1731382637937fE', symObjAddr: 0x9A70, symBinAddr: 0x10D280, symSize: 0x170 }
  - { offsetInCU: 0x58921, offset: 0x56B6BF, size: 0x8, addend: 0x0, symName: '__ZN4core3ptr62drop_in_place$LT$alloc..boxed..Box$LT$syn..stmt..Block$GT$$GT$17h21dcb5adf0237a12E', symObjAddr: 0x9BE0, symBinAddr: 0x10D3F0, symSize: 0xE0 }
  - { offsetInCU: 0x58D33, offset: 0x56BAD1, size: 0x8, addend: 0x0, symName: '__ZN4core3ptr62drop_in_place$LT$syn..path..AngleBracketedGenericArguments$GT$17hf8fa172f007a1473E', symObjAddr: 0x9CC0, symBinAddr: 0x10D4D0, symSize: 0x120 }
  - { offsetInCU: 0x5917E, offset: 0x56BF1C, size: 0x8, addend: 0x0, symName: '__ZN4core3ptr63drop_in_place$LT$alloc..boxed..Box$LT$syn..lit..LitRepr$GT$$GT$17h6e3a82ea4de7b84cE', symObjAddr: 0x9DE0, symBinAddr: 0x10D5F0, symSize: 0x60 }
  - { offsetInCU: 0x59447, offset: 0x56C1E5, size: 0x8, addend: 0x0, symName: '__ZN4core3ptr63drop_in_place$LT$alloc..vec..Vec$LT$syn..item..ImplItem$GT$$GT$17hc51fca07e67d35aeE', symObjAddr: 0x9E40, symBinAddr: 0x10D650, symSize: 0x80 }
  - { offsetInCU: 0x5971E, offset: 0x56C4BC, size: 0x8, addend: 0x0, symName: '__ZN4core3ptr64drop_in_place$LT$alloc..boxed..Box$LT$syn..item..UseTree$GT$$GT$17he4d7024582150632E', symObjAddr: 0x9EC0, symBinAddr: 0x10D6D0, symSize: 0xF0 }
  - { offsetInCU: 0x59C39, offset: 0x56C9D7, size: 0x8, addend: 0x0, symName: '__ZN4core3ptr64drop_in_place$LT$alloc..boxed..Box$LT$syn..pat..FieldPat$GT$$GT$17hbf8f4867d84bd25dE', symObjAddr: 0x9FB0, symBinAddr: 0x10D7C0, symSize: 0x140 }
  - { offsetInCU: 0x5A33A, offset: 0x56D0D8, size: 0x8, addend: 0x0, symName: '__ZN4core3ptr64drop_in_place$LT$alloc..boxed..Box$LT$syn..ty..BareFnArg$GT$$GT$17h6be6354eb1d1364dE', symObjAddr: 0xA0F0, symBinAddr: 0x10D900, symSize: 0x140 }
  - { offsetInCU: 0x5A8C3, offset: 0x56D661, size: 0x8, addend: 0x0, symName: '__ZN4core3ptr64drop_in_place$LT$alloc..vec..Vec$LT$syn..attr..Attribute$GT$$GT$17he33e25539d5885aeE', symObjAddr: 0xA230, symBinAddr: 0x10DA40, symSize: 0xD0 }
  - { offsetInCU: 0x5ABB7, offset: 0x56D955, size: 0x8, addend: 0x0, symName: '__ZN4core3ptr64drop_in_place$LT$alloc..vec..Vec$LT$syn..item..TraitItem$GT$$GT$17hff1cc01ccae80d7aE', symObjAddr: 0xA300, symBinAddr: 0x10DB10, symSize: 0x80 }
  - { offsetInCU: 0x5AE6F, offset: 0x56DC0D, size: 0x8, addend: 0x0, symName: '__ZN4core3ptr65drop_in_place$LT$alloc..vec..Vec$LT$proc_macro..TokenTree$GT$$GT$17h8abd81f8596dbc59E', symObjAddr: 0xA380, symBinAddr: 0x10DB90, symSize: 0x110 }
  - { offsetInCU: 0x5B267, offset: 0x56E005, size: 0x8, addend: 0x0, symName: '__ZN4core3ptr65drop_in_place$LT$core..option..Option$LT$syn..expr..Label$GT$$GT$17hac599686b33ef364E', symObjAddr: 0xA490, symBinAddr: 0x10DCA0, symSize: 0x30 }
  - { offsetInCU: 0x5B3A1, offset: 0x56E13F, size: 0x8, addend: 0x0, symName: '__ZN4core3ptr65drop_in_place$LT$core..option..Option$LT$syn..stmt..Block$GT$$GT$17h74f2551ed24e2d27E', symObjAddr: 0xA4C0, symBinAddr: 0x10DCD0, symSize: 0xD0 }
  - { offsetInCU: 0x5B676, offset: 0x56E414, size: 0x8, addend: 0x0, symName: '__ZN4core3ptr66drop_in_place$LT$alloc..vec..Vec$LT$syn..item..ForeignItem$GT$$GT$17h1f176e04eaf5e0dfE', symObjAddr: 0xA590, symBinAddr: 0x10DDA0, symSize: 0x80 }
  - { offsetInCU: 0x5B92E, offset: 0x56E6CC, size: 0x8, addend: 0x0, symName: '__ZN4core3ptr66drop_in_place$LT$core..option..Option$LT$syn..pat..PatRest$GT$$GT$17hd5bb3bc28aa78ac1E', symObjAddr: 0xA610, symBinAddr: 0x10DE20, symSize: 0xE0 }
  - { offsetInCU: 0x5BC56, offset: 0x56E9F4, size: 0x8, addend: 0x0, symName: '__ZN4core3ptr67drop_in_place$LT$alloc..boxed..Box$LT$syn..expr..FieldValue$GT$$GT$17hbbcf67a9d5e9863cE', symObjAddr: 0xA6F0, symBinAddr: 0x10DF00, symSize: 0x140 }
  - { offsetInCU: 0x5C1BF, offset: 0x56EF5D, size: 0x8, addend: 0x0, symName: '__ZN4core3ptr67drop_in_place$LT$core..option..Option$LT$proc_macro2..Ident$GT$$GT$17h430b2bec25099623E', symObjAddr: 0xA830, symBinAddr: 0x10E040, symSize: 0x30 }
  - { offsetInCU: 0x5C2BB, offset: 0x56F059, size: 0x8, addend: 0x0, symName: '__ZN4core3ptr68drop_in_place$LT$alloc..boxed..Box$LT$syn..path..PathSegment$GT$$GT$17h99aaf90b3262bc1eE', symObjAddr: 0xA860, symBinAddr: 0x10E070, symSize: 0x1B0 }
  - { offsetInCU: 0x5C9C9, offset: 0x56F767, size: 0x8, addend: 0x0, symName: '__ZN4core3ptr70drop_in_place$LT$core..option..Option$LT$syn..ty..BareVariadic$GT$$GT$17h79a19250e9f043b1E', symObjAddr: 0xAA30, symBinAddr: 0x10E220, symSize: 0x100 }
  - { offsetInCU: 0x5CE34, offset: 0x56FBD2, size: 0x8, addend: 0x0, symName: '__ZN4core3ptr72drop_in_place$LT$alloc..boxed..Box$LT$syn..path..GenericArgument$GT$$GT$17hfd308d374af4273dE', symObjAddr: 0xAB30, symBinAddr: 0x10E320, symSize: 0x1D0 }
  - { offsetInCU: 0x5D3CF, offset: 0x57016D, size: 0x8, addend: 0x0, symName: '__ZN4core3ptr72drop_in_place$LT$core..option..Option$LT$syn..lifetime..Lifetime$GT$$GT$17h49cce6f02f9c0590E', symObjAddr: 0xAD00, symBinAddr: 0x10E4F0, symSize: 0x30 }
  - { offsetInCU: 0x5D4EA, offset: 0x570288, size: 0x8, addend: 0x0, symName: '__ZN4core3ptr73drop_in_place$LT$alloc..boxed..Box$LT$syn..generics..GenericParam$GT$$GT$17ha26d5d145af4b203E', symObjAddr: 0xAD30, symBinAddr: 0x10E520, symSize: 0x80 }
  - { offsetInCU: 0x5D660, offset: 0x5703FE, size: 0x8, addend: 0x0, symName: '__ZN4core3ptr75drop_in_place$LT$alloc..boxed..Box$LT$syn..generics..TypeParamBound$GT$$GT$17h129a4e927e5eb81bE', symObjAddr: 0xADB0, symBinAddr: 0x10E5A0, symSize: 0xC0 }
  - { offsetInCU: 0x5D9D3, offset: 0x570771, size: 0x8, addend: 0x0, symName: '__ZN4core3ptr75drop_in_place$LT$core..option..Option$LT$syn..generics..WhereClause$GT$$GT$17haaf63f327098cdccE', symObjAddr: 0xAE70, symBinAddr: 0x10E660, symSize: 0x90 }
  - { offsetInCU: 0x5DCC7, offset: 0x570A65, size: 0x8, addend: 0x0, symName: '__ZN4core3ptr86drop_in_place$LT$syn..punctuated..Punctuated$LT$syn..pat..Pat$C$syn..token..Or$GT$$GT$17h9cc6b5f7b6d3a555E', symObjAddr: 0xAF00, symBinAddr: 0x10E6F0, symSize: 0x120 }
  - { offsetInCU: 0x5E142, offset: 0x570EE0, size: 0x8, addend: 0x0, symName: '__ZN4core3ptr87drop_in_place$LT$core..option..Option$LT$alloc..boxed..Box$LT$syn..pat..Pat$GT$$GT$$GT$17h51cd48973d96c411E', symObjAddr: 0xB040, symBinAddr: 0x10E810, symSize: 0x50 }
  - { offsetInCU: 0x5E2B2, offset: 0x571050, size: 0x8, addend: 0x0, symName: '__ZN4core3ptr87drop_in_place$LT$core..option..Option$LT$alloc..boxed..Box$LT$syn..ty..Type$GT$$GT$$GT$17h103a25a4a7d7374eE', symObjAddr: 0xB090, symBinAddr: 0x10E860, symSize: 0x50 }
  - { offsetInCU: 0x5E422, offset: 0x5711C0, size: 0x8, addend: 0x0, symName: '__ZN4core3ptr89drop_in_place$LT$core..option..Option$LT$alloc..boxed..Box$LT$syn..expr..Expr$GT$$GT$$GT$17h9e02509cb2345d44E', symObjAddr: 0xB100, symBinAddr: 0x10E8B0, symSize: 0x50 }
  - { offsetInCU: 0x5E5D0, offset: 0x57136E, size: 0x8, addend: 0x0, symName: '__ZN4core3ptr89drop_in_place$LT$syn..punctuated..Punctuated$LT$syn..pat..Pat$C$syn..token..Comma$GT$$GT$17hd3a83c36827f210aE', symObjAddr: 0xB150, symBinAddr: 0x10E900, symSize: 0x120 }
  - { offsetInCU: 0x5EA62, offset: 0x571800, size: 0x8, addend: 0x0, symName: '__ZN4core3ptr89drop_in_place$LT$syn..punctuated..Punctuated$LT$syn..ty..Type$C$syn..token..Comma$GT$$GT$17he030c4b7f24a5848E', symObjAddr: 0xB270, symBinAddr: 0x10EA20, symSize: 0x120 }
  - { offsetInCU: 0x5EF1B, offset: 0x571CB9, size: 0x8, addend: 0x0, symName: '__ZN4core3ptr90drop_in_place$LT$core..option..Option$LT$alloc..boxed..Box$LT$syn..data..Field$GT$$GT$$GT$17h9f1aee8cd56c6727E', symObjAddr: 0xB390, symBinAddr: 0x10EB40, symSize: 0x1B0 }
  - { offsetInCU: 0x5F616, offset: 0x5723B4, size: 0x8, addend: 0x0, symName: '__ZN4core3ptr90drop_in_place$LT$core..option..Option$LT$alloc..boxed..Box$LT$syn..item..FnArg$GT$$GT$$GT$17h8635495a730dc0bfE', symObjAddr: 0xB540, symBinAddr: 0x10ECF0, symSize: 0x70 }
  - { offsetInCU: 0x5F790, offset: 0x57252E, size: 0x8, addend: 0x0, symName: '__ZN4core3ptr90drop_in_place$LT$core..option..Option$LT$syn..path..AngleBracketedGenericArguments$GT$$GT$17ha307713a95a0671eE', symObjAddr: 0xB5B0, symBinAddr: 0x10ED60, symSize: 0x130 }
  - { offsetInCU: 0x5FC32, offset: 0x5729D0, size: 0x8, addend: 0x0, symName: '__ZN4core3ptr91drop_in_place$LT$syn..punctuated..Punctuated$LT$syn..expr..Expr$C$syn..token..Comma$GT$$GT$17h6f261e8f470c81f2E', symObjAddr: 0xB6E0, symBinAddr: 0x10EE90, symSize: 0x120 }
  - { offsetInCU: 0x600C0, offset: 0x572E5E, size: 0x8, addend: 0x0, symName: '__ZN4core3ptr92drop_in_place$LT$core..option..Option$LT$$LP$syn..token..As$C$proc_macro2..Ident$RP$$GT$$GT$17h12a88945917fa9dbE', symObjAddr: 0xB800, symBinAddr: 0x10EFB0, symSize: 0x30 }
  - { offsetInCU: 0x60219, offset: 0x572FB7, size: 0x8, addend: 0x0, symName: '__ZN4core3ptr92drop_in_place$LT$core..option..Option$LT$alloc..boxed..Box$LT$syn..data..Variant$GT$$GT$$GT$17hb65f9b5d99f448afE', symObjAddr: 0xB830, symBinAddr: 0x10EFE0, symSize: 0x170 }
  - { offsetInCU: 0x60845, offset: 0x5735E3, size: 0x8, addend: 0x0, symName: '__ZN4core3ptr92drop_in_place$LT$syn..punctuated..Punctuated$LT$syn..item..FnArg$C$syn..token..Comma$GT$$GT$17h7de33e77eabaea82E', symObjAddr: 0xB9A0, symBinAddr: 0x10F150, symSize: 0x140 }
  - { offsetInCU: 0x60CC2, offset: 0x573A60, size: 0x8, addend: 0x0, symName: '__ZN4core3ptr94drop_in_place$LT$syn..punctuated..Punctuated$LT$syn..data..Variant$C$syn..token..Comma$GT$$GT$17h310cd79aba4529ccE', symObjAddr: 0xBAE0, symBinAddr: 0x10F290, symSize: 0xE0 }
  - { offsetInCU: 0x61022, offset: 0x573DC0, size: 0x8, addend: 0x0, symName: '__ZN4core3ptr94drop_in_place$LT$syn..punctuated..Punctuated$LT$syn..item..UseTree$C$syn..token..Comma$GT$$GT$17h6236871345889df7E', symObjAddr: 0xBBC0, symBinAddr: 0x10F370, symSize: 0xF0 }
  - { offsetInCU: 0x61368, offset: 0x574106, size: 0x8, addend: 0x0, symName: '__ZN4core3ptr94drop_in_place$LT$syn..punctuated..Punctuated$LT$syn..pat..FieldPat$C$syn..token..Comma$GT$$GT$17h43ec25af986ef674E', symObjAddr: 0xBCB0, symBinAddr: 0x10F460, symSize: 0xF0 }
  - { offsetInCU: 0x61667, offset: 0x574405, size: 0x8, addend: 0x0, symName: '__ZN4core3ptr94drop_in_place$LT$syn..punctuated..Punctuated$LT$syn..ty..BareFnArg$C$syn..token..Comma$GT$$GT$17h7ba4c699ee390ebaE', symObjAddr: 0xBDA0, symBinAddr: 0x10F550, symSize: 0xF0 }
  - { offsetInCU: 0x61968, offset: 0x574706, size: 0x8, addend: 0x0, symName: '__ZN4core3ptr96drop_in_place$LT$core..option..Option$LT$alloc..boxed..Box$LT$syn..path..PathSegment$GT$$GT$$GT$17h5de12a5a0f9e9ef9E', symObjAddr: 0xBE90, symBinAddr: 0x10F640, symSize: 0xA0 }
  - { offsetInCU: 0x61BE7, offset: 0x574985, size: 0x8, addend: 0x0, symName: '__ZN4core3ptr97drop_in_place$LT$syn..punctuated..Punctuated$LT$syn..expr..FieldValue$C$syn..token..Comma$GT$$GT$17hf58d0a9a09266ab3E', symObjAddr: 0xBF30, symBinAddr: 0x10F6E0, symSize: 0xF0 }
  - { offsetInCU: 0x61EE4, offset: 0x574C82, size: 0x8, addend: 0x0, symName: '__ZN4core3ptr98drop_in_place$LT$alloc..vec..Vec$LT$$LP$syn..path..GenericArgument$C$syn..token..Comma$RP$$GT$$GT$17h0dee282a026d5a38E', symObjAddr: 0xC020, symBinAddr: 0x10F7D0, symSize: 0xD0 }
  - { offsetInCU: 0x62224, offset: 0x574FC2, size: 0x8, addend: 0x0, symName: '__ZN4core3ptr98drop_in_place$LT$syn..punctuated..Punctuated$LT$syn..lifetime..Lifetime$C$syn..token..Plus$GT$$GT$17h600c2b78f78fd2b9E', symObjAddr: 0xC0F0, symBinAddr: 0x10F8A0, symSize: 0xD0 }
  - { offsetInCU: 0x68F60, offset: 0x57BCFE, size: 0x8, addend: 0x0, symName: '__ZN48_$LT$T$u20$as$u20$core..clone..CloneToUninit$GT$15clone_to_uninit17h4081700a47491491E', symObjAddr: 0x300, symBinAddr: 0x103D70, symSize: 0x360 }
  - { offsetInCU: 0x7024F, offset: 0x582FED, size: 0x8, addend: 0x0, symName: '__ZN5alloc3vec16Vec$LT$T$C$A$GT$15append_elements17h17d0f6dcdaba10bcE', symObjAddr: 0xC230, symBinAddr: 0x10F970, symSize: 0x70 }
  - { offsetInCU: 0x704A5, offset: 0x583243, size: 0x8, addend: 0x0, symName: __ZN3syn4item4Item13replace_attrs17h0529b41fa0d8dba2E, symObjAddr: 0xCB80, symBinAddr: 0x10F9E0, symSize: 0x190 }
  - { offsetInCU: 0x1E, offset: 0x591673, size: 0x8, addend: 0x0, symName: '__ZN4core3ptr100drop_in_place$LT$alloc..vec..Vec$LT$$LP$syn..generics..TypeParamBound$C$syn..token..Plus$RP$$GT$$GT$17hea181150e4b37806E.llvm.991277207215265740', symObjAddr: 0x0, symBinAddr: 0x123E50, symSize: 0xD0 }
  - { offsetInCU: 0x130F, offset: 0x592964, size: 0x8, addend: 0x0, symName: '__ZN111_$LT$syn..punctuated..PrivateIter$LT$T$C$P$GT$$u20$as$u20$core..iter..traits..exact_size..ExactSizeIterator$GT$3len17h50a0616fbc194d0cE.llvm.991277207215265740', symObjAddr: 0x10550, symBinAddr: 0x130B60, symSize: 0x0 }
  - { offsetInCU: 0x13FE, offset: 0x592A53, size: 0x8, addend: 0x0, symName: '__ZN111_$LT$syn..punctuated..PrivateIter$LT$T$C$P$GT$$u20$as$u20$core..iter..traits..exact_size..ExactSizeIterator$GT$3len17hd03ac3201b3cfde6E.llvm.991277207215265740', symObjAddr: 0x105D0, symBinAddr: 0x130B90, symSize: 0x0 }
  - { offsetInCU: 0x16ED, offset: 0x592D42, size: 0x8, addend: 0x0, symName: '__ZN115_$LT$syn..punctuated..PrivateIter$LT$T$C$P$GT$$u20$as$u20$core..iter..traits..double_ended..DoubleEndedIterator$GT$9next_back17h7f4f61270a4204d7E.llvm.991277207215265740', symObjAddr: 0x104C0, symBinAddr: 0x130B00, symSize: 0x0 }
  - { offsetInCU: 0x199D, offset: 0x592FF2, size: 0x8, addend: 0x0, symName: '__ZN115_$LT$syn..punctuated..PrivateIter$LT$T$C$P$GT$$u20$as$u20$core..iter..traits..double_ended..DoubleEndedIterator$GT$9next_back17ha17ab53f0e146145E.llvm.991277207215265740', symObjAddr: 0x10520, symBinAddr: 0x130B30, symSize: 0x0 }
  - { offsetInCU: 0x1E79, offset: 0x5934CE, size: 0x8, addend: 0x0, symName: '__ZN100_$LT$syn..punctuated..PrivateIter$LT$T$C$P$GT$$u20$as$u20$core..iter..traits..iterator..Iterator$GT$4next17h2a509a6c34848c4aE.llvm.991277207215265740', symObjAddr: 0x103D0, symBinAddr: 0x130A40, symSize: 0x0 }
  - { offsetInCU: 0x212A, offset: 0x59377F, size: 0x8, addend: 0x0, symName: '__ZN100_$LT$syn..punctuated..PrivateIter$LT$T$C$P$GT$$u20$as$u20$core..iter..traits..iterator..Iterator$GT$4next17h5eda91cdb09673d1E.llvm.991277207215265740', symObjAddr: 0x10400, symBinAddr: 0x130A70, symSize: 0x0 }
  - { offsetInCU: 0x23B7, offset: 0x593A0C, size: 0x8, addend: 0x0, symName: '__ZN100_$LT$syn..punctuated..PrivateIter$LT$T$C$P$GT$$u20$as$u20$core..iter..traits..iterator..Iterator$GT$4next17h63cbef55dd3a9f53E.llvm.991277207215265740', symObjAddr: 0x10430, symBinAddr: 0x130AA0, symSize: 0x30 }
  - { offsetInCU: 0x2644, offset: 0x593C99, size: 0x8, addend: 0x0, symName: '__ZN100_$LT$syn..punctuated..PrivateIter$LT$T$C$P$GT$$u20$as$u20$core..iter..traits..iterator..Iterator$GT$4next17h6b4639ca1419e80fE.llvm.991277207215265740', symObjAddr: 0x10460, symBinAddr: 0x130AD0, symSize: 0x30 }
  - { offsetInCU: 0x2D94, offset: 0x5943E9, size: 0x8, addend: 0x0, symName: '__ZN79_$LT$syn..punctuated..Punctuated$LT$T$C$P$GT$$u20$as$u20$core..clone..Clone$GT$5clone17h123489863670ef82E', symObjAddr: 0xCAC0, symBinAddr: 0x12F830, symSize: 0x150 }
  - { offsetInCU: 0x3067, offset: 0x5946BC, size: 0x8, addend: 0x0, symName: '__ZN79_$LT$syn..punctuated..Punctuated$LT$T$C$P$GT$$u20$as$u20$core..clone..Clone$GT$5clone17h22992bcace29f499E', symObjAddr: 0xCC10, symBinAddr: 0x12F980, symSize: 0xE0 }
  - { offsetInCU: 0x32EE, offset: 0x594943, size: 0x8, addend: 0x0, symName: '__ZN79_$LT$syn..punctuated..Punctuated$LT$T$C$P$GT$$u20$as$u20$core..clone..Clone$GT$5clone17h2892afd7277887d8E', symObjAddr: 0xCCF0, symBinAddr: 0x12FA60, symSize: 0xE0 }
  - { offsetInCU: 0x3575, offset: 0x594BCA, size: 0x8, addend: 0x0, symName: '__ZN79_$LT$syn..punctuated..Punctuated$LT$T$C$P$GT$$u20$as$u20$core..clone..Clone$GT$5clone17h4f35f72a65007a75E', symObjAddr: 0xCDD0, symBinAddr: 0x12FB40, symSize: 0xC0 }
  - { offsetInCU: 0x37A4, offset: 0x594DF9, size: 0x8, addend: 0x0, symName: '__ZN79_$LT$syn..punctuated..Punctuated$LT$T$C$P$GT$$u20$as$u20$core..clone..Clone$GT$5clone17h5b87dcc40d8ae16cE', symObjAddr: 0xCE90, symBinAddr: 0x12FC00, symSize: 0xE0 }
  - { offsetInCU: 0x3A2B, offset: 0x595080, size: 0x8, addend: 0x0, symName: '__ZN79_$LT$syn..punctuated..Punctuated$LT$T$C$P$GT$$u20$as$u20$core..clone..Clone$GT$5clone17h5e7cb3171b95369bE', symObjAddr: 0xCF70, symBinAddr: 0x12FCE0, symSize: 0xC0 }
  - { offsetInCU: 0x3C59, offset: 0x5952AE, size: 0x8, addend: 0x0, symName: '__ZN79_$LT$syn..punctuated..Punctuated$LT$T$C$P$GT$$u20$as$u20$core..clone..Clone$GT$5clone17h71b1884f4462d97bE', symObjAddr: 0xD030, symBinAddr: 0x12FDA0, symSize: 0xE0 }
  - { offsetInCU: 0x3EE0, offset: 0x595535, size: 0x8, addend: 0x0, symName: '__ZN79_$LT$syn..punctuated..Punctuated$LT$T$C$P$GT$$u20$as$u20$core..clone..Clone$GT$5clone17h795b6e9f94c0c96cE', symObjAddr: 0xD110, symBinAddr: 0x12FE80, symSize: 0xE0 }
  - { offsetInCU: 0x4167, offset: 0x5957BC, size: 0x8, addend: 0x0, symName: '__ZN79_$LT$syn..punctuated..Punctuated$LT$T$C$P$GT$$u20$as$u20$core..clone..Clone$GT$5clone17h7b959744e3d5b8dbE', symObjAddr: 0xD1F0, symBinAddr: 0x12FF60, symSize: 0x110 }
  - { offsetInCU: 0x4424, offset: 0x595A79, size: 0x8, addend: 0x0, symName: '__ZN79_$LT$syn..punctuated..Punctuated$LT$T$C$P$GT$$u20$as$u20$core..clone..Clone$GT$5clone17h8ecfcac09434508eE', symObjAddr: 0xD3E0, symBinAddr: 0x130070, symSize: 0x180 }
  - { offsetInCU: 0x47F6, offset: 0x595E4B, size: 0x8, addend: 0x0, symName: '__ZN79_$LT$syn..punctuated..Punctuated$LT$T$C$P$GT$$u20$as$u20$core..clone..Clone$GT$5clone17ha7ab2dd954c80b81E', symObjAddr: 0xD560, symBinAddr: 0x1301F0, symSize: 0xE0 }
  - { offsetInCU: 0x4A7C, offset: 0x5960D1, size: 0x8, addend: 0x0, symName: '__ZN79_$LT$syn..punctuated..Punctuated$LT$T$C$P$GT$$u20$as$u20$core..clone..Clone$GT$5clone17hc80da0ae5e8a9a5aE', symObjAddr: 0xD640, symBinAddr: 0x1302D0, symSize: 0x110 }
  - { offsetInCU: 0x4F03, offset: 0x596558, size: 0x8, addend: 0x0, symName: '__ZN138_$LT$syn..punctuated..Punctuated$LT$T$C$P$GT$$u20$as$u20$core..iter..traits..collect..Extend$LT$syn..punctuated..Pair$LT$T$C$P$GT$$GT$$GT$6extend17hd3a7828e12a2fa09E', symObjAddr: 0xF2D0, symBinAddr: 0x1303E0, symSize: 0x3A0 }
  - { offsetInCU: 0x5459, offset: 0x596AAE, size: 0x8, addend: 0x0, symName: '__ZN102_$LT$syn..punctuated..Punctuated$LT$T$C$P$GT$$u20$as$u20$core..iter..traits..collect..IntoIterator$GT$9into_iter17h9fd0831bc615f074E', symObjAddr: 0xF940, symBinAddr: 0x130780, symSize: 0x2C0 }
  - { offsetInCU: 0x6B0F, offset: 0x598164, size: 0x8, addend: 0x0, symName: '__ZN57_$LT$I$u20$as$u20$syn..punctuated..IterTrait$LT$T$GT$$GT$9clone_box17hc37750fcf967705cE.llvm.991277207215265740', symObjAddr: 0x10720, symBinAddr: 0x130BC0, symSize: 0x60 }
  - { offsetInCU: 0x6D22, offset: 0x598377, size: 0x8, addend: 0x0, symName: '__ZN97_$LT$syn..punctuated..Punctuated$LT$T$C$P$GT$$u20$as$u20$core..ops..index..Index$LT$usize$GT$$GT$5index17h20cbc4df05d7c9eaE', symObjAddr: 0x10780, symBinAddr: 0x130C20, symSize: 0x50 }
  - { offsetInCU: 0x6ECC, offset: 0x598521, size: 0x8, addend: 0x0, symName: '__ZN3syn10punctuated8printing91_$LT$impl$u20$quote..to_tokens..ToTokens$u20$for$u20$syn..punctuated..Pair$LT$T$C$P$GT$$GT$9to_tokens17h6dc2c5660e354e29E', symObjAddr: 0x110C0, symBinAddr: 0x130F40, symSize: 0xD0 }
  - { offsetInCU: 0x7096, offset: 0x5986EB, size: 0x8, addend: 0x0, symName: '__ZN3syn10punctuated8printing91_$LT$impl$u20$quote..to_tokens..ToTokens$u20$for$u20$syn..punctuated..Pair$LT$T$C$P$GT$$GT$9to_tokens17hc2518142b17a3489E', symObjAddr: 0x11360, symBinAddr: 0x131010, symSize: 0xF3 }
  - { offsetInCU: 0x727F, offset: 0x5988D4, size: 0x8, addend: 0x0, symName: '__ZN3syn10punctuated8printing97_$LT$impl$u20$quote..to_tokens..ToTokens$u20$for$u20$syn..punctuated..Punctuated$LT$T$C$P$GT$$GT$9to_tokens17h060d1d80f541d446E', symObjAddr: 0x10820, symBinAddr: 0x130C70, symSize: 0x150 }
  - { offsetInCU: 0x77C4, offset: 0x598E19, size: 0x8, addend: 0x0, symName: '__ZN3syn10punctuated8printing97_$LT$impl$u20$quote..to_tokens..ToTokens$u20$for$u20$syn..punctuated..Punctuated$LT$T$C$P$GT$$GT$9to_tokens17h7327b9d2fa65c2baE', symObjAddr: 0x10B90, symBinAddr: 0x130DC0, symSize: 0x180 }
  - { offsetInCU: 0xF075, offset: 0x5A06CA, size: 0x8, addend: 0x0, symName: '__ZN4core3ptr100drop_in_place$LT$alloc..vec..Vec$LT$$LP$syn..generics..TypeParamBound$C$syn..token..Plus$RP$$GT$$GT$17hea181150e4b37806E.llvm.991277207215265740', symObjAddr: 0x0, symBinAddr: 0x123E50, symSize: 0xD0 }
  - { offsetInCU: 0xF354, offset: 0x5A09A9, size: 0x8, addend: 0x0, symName: '__ZN4core3ptr100drop_in_place$LT$core..option..Option$LT$alloc..boxed..Box$LT$syn..path..GenericArgument$GT$$GT$$GT$17h3a7c44b9e57fe410E.llvm.991277207215265740', symObjAddr: 0xD0, symBinAddr: 0x123F20, symSize: 0x50 }
  - { offsetInCU: 0xF540, offset: 0x5A0B95, size: 0x8, addend: 0x0, symName: '__ZN4core3ptr100drop_in_place$LT$syn..punctuated..Punctuated$LT$syn..path..PathSegment$C$syn..token..PathSep$GT$$GT$17he41ef64147139591E', symObjAddr: 0x120, symBinAddr: 0x123F70, symSize: 0x150 }
  - { offsetInCU: 0xFAA4, offset: 0x5A10F9, size: 0x8, addend: 0x0, symName: '__ZN4core3ptr101drop_in_place$LT$alloc..vec..Vec$LT$$LP$syn..generics..WherePredicate$C$syn..token..Comma$RP$$GT$$GT$17h480aa68a207f67a8E.llvm.991277207215265740', symObjAddr: 0x270, symBinAddr: 0x1240C0, symSize: 0x60 }
  - { offsetInCU: 0xFD47, offset: 0x5A139C, size: 0x8, addend: 0x0, symName: '__ZN4core3ptr102drop_in_place$LT$syn..punctuated..Punctuated$LT$syn..path..GenericArgument$C$syn..token..Comma$GT$$GT$17h8b1978399cfff48bE', symObjAddr: 0x2D0, symBinAddr: 0x124120, symSize: 0xF0 }
  - { offsetInCU: 0x10067, offset: 0x5A16BC, size: 0x8, addend: 0x0, symName: '__ZN4core3ptr103drop_in_place$LT$core..option..Option$LT$alloc..boxed..Box$LT$syn..generics..TypeParamBound$GT$$GT$$GT$17hb14e4384a768542bE.llvm.991277207215265740', symObjAddr: 0x3C0, symBinAddr: 0x124210, symSize: 0x50 }
  - { offsetInCU: 0x10272, offset: 0x5A18C7, size: 0x8, addend: 0x0, symName: '__ZN4core3ptr103drop_in_place$LT$syn..punctuated..Punctuated$LT$syn..generics..GenericParam$C$syn..token..Comma$GT$$GT$17h0c6077a988036760E.llvm.991277207215265740', symObjAddr: 0x410, symBinAddr: 0x124260, symSize: 0xF0 }
  - { offsetInCU: 0x107CA, offset: 0x5A1E1F, size: 0x8, addend: 0x0, symName: '__ZN4core3ptr104drop_in_place$LT$syn..punctuated..Punctuated$LT$syn..generics..TypeParamBound$C$syn..token..Plus$GT$$GT$17h724e4d9d1d65061aE.llvm.991277207215265740', symObjAddr: 0x500, symBinAddr: 0x124350, symSize: 0x190 }
  - { offsetInCU: 0x10DED, offset: 0x5A2442, size: 0x8, addend: 0x0, symName: '__ZN4core3ptr126drop_in_place$LT$core..option..Option$LT$$LP$syn..token..And$C$core..option..Option$LT$syn..lifetime..Lifetime$GT$$RP$$GT$$GT$17h45c5d73e12cdf6f0E', symObjAddr: 0x690, symBinAddr: 0x1244E0, symSize: 0x30 }
  - { offsetInCU: 0x11000, offset: 0x5A2655, size: 0x8, addend: 0x0, symName: '__ZN4core3ptr34drop_in_place$LT$syn..lit..Lit$GT$17hd64dde89a262341dE', symObjAddr: 0x6C0, symBinAddr: 0x124510, symSize: 0x120 }
  - { offsetInCU: 0x1150D, offset: 0x5A2B62, size: 0x8, addend: 0x0, symName: '__ZN4core3ptr34drop_in_place$LT$syn..pat..Pat$GT$17hf88887878261d63cE.llvm.991277207215265740', symObjAddr: 0x7E0, symBinAddr: 0x124630, symSize: 0x1100 }
  - { offsetInCU: 0x15B86, offset: 0x5A71DB, size: 0x8, addend: 0x0, symName: '__ZN4core3ptr34drop_in_place$LT$syn..ty..Type$GT$17ha80dd29b0f9d4a3fE.llvm.991277207215265740', symObjAddr: 0x18E0, symBinAddr: 0x125730, symSize: 0x520 }
  - { offsetInCU: 0x171FB, offset: 0x5A8850, size: 0x8, addend: 0x0, symName: '__ZN4core3ptr36drop_in_place$LT$syn..expr..Expr$GT$17h10f573b40ddd212cE.llvm.991277207215265740', symObjAddr: 0x1E00, symBinAddr: 0x125C50, symSize: 0x2830 }
  - { offsetInCU: 0x212FE, offset: 0x5B2953, size: 0x8, addend: 0x0, symName: '__ZN4core3ptr36drop_in_place$LT$syn..mac..Macro$GT$17hc3b30a7a8a34cc2dE', symObjAddr: 0x4630, symBinAddr: 0x128480, symSize: 0x40 }
  - { offsetInCU: 0x21338, offset: 0x5B298D, size: 0x8, addend: 0x0, symName: '__ZN4core3ptr36drop_in_place$LT$syn..path..Path$GT$17h75c74a97d5f0a03bE.llvm.991277207215265740', symObjAddr: 0x4670, symBinAddr: 0x1284C0, symSize: 0x110 }
  - { offsetInCU: 0x2175A, offset: 0x5B2DAF, size: 0x8, addend: 0x0, symName: '__ZN4core3ptr37drop_in_place$LT$syn..data..Field$GT$17hb03070569ab32babE.llvm.991277207215265740', symObjAddr: 0x4780, symBinAddr: 0x1285D0, symSize: 0x140 }
  - { offsetInCU: 0x21BAE, offset: 0x5B3203, size: 0x8, addend: 0x0, symName: '__ZN4core3ptr37drop_in_place$LT$syn..item..FnArg$GT$17h470fdeee5cba5e3aE.llvm.991277207215265740', symObjAddr: 0x48C0, symBinAddr: 0x128710, symSize: 0x230 }
  - { offsetInCU: 0x224C8, offset: 0x5B3B1D, size: 0x8, addend: 0x0, symName: '__ZN4core3ptr37drop_in_place$LT$syn..stmt..Block$GT$17h6fc3254d5688f2c3E', symObjAddr: 0x4AF0, symBinAddr: 0x128940, symSize: 0xD0 }
  - { offsetInCU: 0x2279F, offset: 0x5B3DF4, size: 0x8, addend: 0x0, symName: '__ZN4core3ptr38drop_in_place$LT$syn..expr..Member$GT$17h6b0cf84594ce6bceE.llvm.991277207215265740', symObjAddr: 0x4BC0, symBinAddr: 0x128A10, symSize: 0x30 }
  - { offsetInCU: 0x2289B, offset: 0x5B3EF0, size: 0x8, addend: 0x0, symName: '__ZN4core3ptr39drop_in_place$LT$proc_macro2..Ident$GT$17ha28fef9769e267d9E.llvm.991277207215265740', symObjAddr: 0x4BF0, symBinAddr: 0x128A40, symSize: 0x30 }
  - { offsetInCU: 0x229D5, offset: 0x5B402A, size: 0x8, addend: 0x0, symName: '__ZN4core3ptr39drop_in_place$LT$syn..data..Variant$GT$17h92766dd8637b4069E', symObjAddr: 0x4C20, symBinAddr: 0x128A70, symSize: 0x150 }
  - { offsetInCU: 0x22F7C, offset: 0x5B45D1, size: 0x8, addend: 0x0, symName: '__ZN4core3ptr39drop_in_place$LT$syn..item..UseTree$GT$17h7288572c631f954aE.llvm.991277207215265740', symObjAddr: 0x4D70, symBinAddr: 0x128BC0, symSize: 0x1E0 }
  - { offsetInCU: 0x236CC, offset: 0x5B4D21, size: 0x8, addend: 0x0, symName: '__ZN4core3ptr39drop_in_place$LT$syn..pat..FieldPat$GT$17he93d151251e1075bE.llvm.991277207215265740', symObjAddr: 0x4F50, symBinAddr: 0x128DA0, symSize: 0x120 }
  - { offsetInCU: 0x23C66, offset: 0x5B52BB, size: 0x8, addend: 0x0, symName: '__ZN4core3ptr39drop_in_place$LT$syn..ty..BareFnArg$GT$17h06523caf0a2ebe3aE.llvm.991277207215265740', symObjAddr: 0x5070, symBinAddr: 0x128EC0, symSize: 0x110 }
  - { offsetInCU: 0x24089, offset: 0x5B56DE, size: 0x8, addend: 0x0, symName: '__ZN4core3ptr40drop_in_place$LT$syn..ty..ReturnType$GT$17h035a612e322b6510E', symObjAddr: 0x5180, symBinAddr: 0x128FD0, symSize: 0x50 }
  - { offsetInCU: 0x241F9, offset: 0x5B584E, size: 0x8, addend: 0x0, symName: '__ZN4core3ptr41drop_in_place$LT$syn..expr..ExprConst$GT$17hbfe19d5d621e6836E', symObjAddr: 0x51D0, symBinAddr: 0x129020, symSize: 0x180 }
  - { offsetInCU: 0x247E6, offset: 0x5B5E3B, size: 0x8, addend: 0x0, symName: '__ZN4core3ptr42drop_in_place$LT$syn..expr..FieldValue$GT$17heed77b5eea8beaa5E.llvm.991277207215265740', symObjAddr: 0x5350, symBinAddr: 0x1291A0, symSize: 0x110 }
  - { offsetInCU: 0x24C27, offset: 0x5B627C, size: 0x8, addend: 0x0, symName: '__ZN4core3ptr43drop_in_place$LT$syn..path..PathSegment$GT$17h903332e979944cf4E.llvm.991277207215265740', symObjAddr: 0x5460, symBinAddr: 0x1292B0, symSize: 0x190 }
  - { offsetInCU: 0x2518B, offset: 0x5B67E0, size: 0x8, addend: 0x0, symName: '__ZN4core3ptr44drop_in_place$LT$syn..lifetime..Lifetime$GT$17he37fa474f03de7b1E.llvm.991277207215265740', symObjAddr: 0x55F0, symBinAddr: 0x129440, symSize: 0x30 }
  - { offsetInCU: 0x253BD, offset: 0x5B6A12, size: 0x8, addend: 0x0, symName: '__ZN4core3ptr45drop_in_place$LT$proc_macro2..TokenStream$GT$17h76e8e68015f4924dE.llvm.991277207215265740', symObjAddr: 0x5620, symBinAddr: 0x129470, symSize: 0x140 }
  - { offsetInCU: 0x25857, offset: 0x5B6EAC, size: 0x8, addend: 0x0, symName: '__ZN4core3ptr45drop_in_place$LT$syn..generics..TypeParam$GT$17h188a459c1380ac75E.llvm.991277207215265740', symObjAddr: 0x5760, symBinAddr: 0x1295B0, symSize: 0x230 }
  - { offsetInCU: 0x260CC, offset: 0x5B7721, size: 0x8, addend: 0x0, symName: '__ZN4core3ptr46drop_in_place$LT$syn..generics..ConstParam$GT$17h7a9b900b2b88bfcdE.llvm.991277207215265740', symObjAddr: 0x5990, symBinAddr: 0x1297E0, symSize: 0x150 }
  - { offsetInCU: 0x2654D, offset: 0x5B7BA2, size: 0x8, addend: 0x0, symName: '__ZN4core3ptr47drop_in_place$LT$syn..path..GenericArgument$GT$17h593f06d6ca9a94d2E.llvm.991277207215265740', symObjAddr: 0x5AE0, symBinAddr: 0x129930, symSize: 0x450 }
  - { offsetInCU: 0x272C3, offset: 0x5B8918, size: 0x8, addend: 0x0, symName: '__ZN4core3ptr48drop_in_place$LT$syn..generics..GenericParam$GT$17hd6859d95c1b7c168E.llvm.991277207215265740', symObjAddr: 0x5F30, symBinAddr: 0x129D80, symSize: 0x40 }
  - { offsetInCU: 0x272E0, offset: 0x5B8935, size: 0x8, addend: 0x0, symName: '__ZN4core3ptr49drop_in_place$LT$syn..generics..LifetimeParam$GT$17h3a8835ab294bfd16E.llvm.991277207215265740', symObjAddr: 0x5F70, symBinAddr: 0x129DC0, symSize: 0xF0 }
  - { offsetInCU: 0x27735, offset: 0x5B8D8A, size: 0x8, addend: 0x0, symName: '__ZN4core3ptr49drop_in_place$LT$syn..restriction..Visibility$GT$17h3e52b998838defb1E', symObjAddr: 0x6060, symBinAddr: 0x129EB0, symSize: 0x150 }
  - { offsetInCU: 0x27C9E, offset: 0x5B92F3, size: 0x8, addend: 0x0, symName: '__ZN4core3ptr50drop_in_place$LT$syn..generics..TypeParamBound$GT$17h81b4325b5900604dE.llvm.991277207215265740', symObjAddr: 0x61B0, symBinAddr: 0x12A000, symSize: 0x1C0 }
  - { offsetInCU: 0x28239, offset: 0x5B988E, size: 0x8, addend: 0x0, symName: '__ZN4core3ptr50drop_in_place$LT$syn..generics..WherePredicate$GT$17h1dcd41fbf166681cE.llvm.991277207215265740', symObjAddr: 0x6370, symBinAddr: 0x12A1C0, symSize: 0xA0 }
  - { offsetInCU: 0x283DD, offset: 0x5B9A32, size: 0x8, addend: 0x0, symName: '__ZN4core3ptr58drop_in_place$LT$alloc..vec..Vec$LT$syn..expr..Arm$GT$$GT$17hff9224aadf2233b8E', symObjAddr: 0x6410, symBinAddr: 0x12A260, symSize: 0xD0 }
  - { offsetInCU: 0x2869D, offset: 0x5B9CF2, size: 0x8, addend: 0x0, symName: '__ZN4core3ptr59drop_in_place$LT$alloc..boxed..Box$LT$syn..pat..Pat$GT$$GT$17h622b0c1db21c0742E.llvm.991277207215265740', symObjAddr: 0x64E0, symBinAddr: 0x12A330, symSize: 0x50 }
  - { offsetInCU: 0x287F6, offset: 0x5B9E4B, size: 0x8, addend: 0x0, symName: '__ZN4core3ptr59drop_in_place$LT$alloc..boxed..Box$LT$syn..ty..Type$GT$$GT$17hde45fa887dd8b605E.llvm.991277207215265740', symObjAddr: 0x6530, symBinAddr: 0x12A380, symSize: 0x50 }
  - { offsetInCU: 0x2894F, offset: 0x5B9FA4, size: 0x8, addend: 0x0, symName: '__ZN4core3ptr61drop_in_place$LT$alloc..boxed..Box$LT$syn..expr..Expr$GT$$GT$17hbb42293869113942E.llvm.991277207215265740', symObjAddr: 0x6650, symBinAddr: 0x12A3D0, symSize: 0x50 }
  - { offsetInCU: 0x28B24, offset: 0x5BA179, size: 0x8, addend: 0x0, symName: '__ZN4core3ptr61drop_in_place$LT$syn..path..ParenthesizedGenericArguments$GT$17h6b1731382637937fE.llvm.991277207215265740', symObjAddr: 0x66A0, symBinAddr: 0x12A420, symSize: 0x170 }
  - { offsetInCU: 0x2912D, offset: 0x5BA782, size: 0x8, addend: 0x0, symName: '__ZN4core3ptr63drop_in_place$LT$alloc..boxed..Box$LT$syn..lit..LitRepr$GT$$GT$17h6e3a82ea4de7b84cE', symObjAddr: 0x68B0, symBinAddr: 0x12A590, symSize: 0x60 }
  - { offsetInCU: 0x293F6, offset: 0x5BAA4B, size: 0x8, addend: 0x0, symName: '__ZN4core3ptr64drop_in_place$LT$alloc..boxed..Box$LT$syn..item..UseTree$GT$$GT$17he4d7024582150632E', symObjAddr: 0x6960, symBinAddr: 0x12A5F0, symSize: 0x50 }
  - { offsetInCU: 0x2956E, offset: 0x5BABC3, size: 0x8, addend: 0x0, symName: '__ZN4core3ptr64drop_in_place$LT$alloc..boxed..Box$LT$syn..pat..FieldPat$GT$$GT$17hbf8f4867d84bd25dE', symObjAddr: 0x69B0, symBinAddr: 0x12A640, symSize: 0x140 }
  - { offsetInCU: 0x29C31, offset: 0x5BB286, size: 0x8, addend: 0x0, symName: '__ZN4core3ptr64drop_in_place$LT$alloc..boxed..Box$LT$syn..ty..BareFnArg$GT$$GT$17h6be6354eb1d1364dE', symObjAddr: 0x6AF0, symBinAddr: 0x12A780, symSize: 0x140 }
  - { offsetInCU: 0x2A1BA, offset: 0x5BB80F, size: 0x8, addend: 0x0, symName: '__ZN4core3ptr65drop_in_place$LT$alloc..vec..Vec$LT$proc_macro..TokenTree$GT$$GT$17h8abd81f8596dbc59E.llvm.991277207215265740', symObjAddr: 0x6C30, symBinAddr: 0x12A8C0, symSize: 0x110 }
  - { offsetInCU: 0x2A5B2, offset: 0x5BBC07, size: 0x8, addend: 0x0, symName: '__ZN4core3ptr65drop_in_place$LT$core..option..Option$LT$syn..expr..Label$GT$$GT$17hac599686b33ef364E', symObjAddr: 0x6D40, symBinAddr: 0x12A9D0, symSize: 0x30 }
  - { offsetInCU: 0x2A6EC, offset: 0x5BBD41, size: 0x8, addend: 0x0, symName: '__ZN4core3ptr66drop_in_place$LT$core..option..Option$LT$syn..pat..PatRest$GT$$GT$17hd5bb3bc28aa78ac1E', symObjAddr: 0x6D70, symBinAddr: 0x12AA00, symSize: 0xE0 }
  - { offsetInCU: 0x2AA14, offset: 0x5BC069, size: 0x8, addend: 0x0, symName: '__ZN4core3ptr67drop_in_place$LT$alloc..boxed..Box$LT$syn..expr..FieldValue$GT$$GT$17hbbcf67a9d5e9863cE', symObjAddr: 0x6E50, symBinAddr: 0x12AAE0, symSize: 0x140 }
  - { offsetInCU: 0x2AF9C, offset: 0x5BC5F1, size: 0x8, addend: 0x0, symName: '__ZN4core3ptr70drop_in_place$LT$core..option..Option$LT$syn..ty..BareVariadic$GT$$GT$17h79a19250e9f043b1E', symObjAddr: 0x7030, symBinAddr: 0x12AC20, symSize: 0x100 }
  - { offsetInCU: 0x2B407, offset: 0x5BCA5C, size: 0x8, addend: 0x0, symName: '__ZN4core3ptr72drop_in_place$LT$alloc..boxed..Box$LT$syn..path..GenericArgument$GT$$GT$17hfd308d374af4273dE', symObjAddr: 0x7130, symBinAddr: 0x12AD20, symSize: 0x2B0 }
  - { offsetInCU: 0x2BE18, offset: 0x5BD46D, size: 0x8, addend: 0x0, symName: '__ZN4core3ptr73drop_in_place$LT$alloc..boxed..Box$LT$syn..generics..GenericParam$GT$$GT$17ha26d5d145af4b203E.llvm.991277207215265740', symObjAddr: 0x73E0, symBinAddr: 0x12AFD0, symSize: 0x80 }
  - { offsetInCU: 0x2BFAD, offset: 0x5BD602, size: 0x8, addend: 0x0, symName: '__ZN4core3ptr73drop_in_place$LT$alloc..vec..Vec$LT$syn..generics..TypeParamBound$GT$$GT$17h559d22d805be3033E.llvm.991277207215265740', symObjAddr: 0x7460, symBinAddr: 0x12B050, symSize: 0xC0 }
  - { offsetInCU: 0x2C27E, offset: 0x5BD8D3, size: 0x8, addend: 0x0, symName: '__ZN4core3ptr75drop_in_place$LT$alloc..boxed..Box$LT$syn..generics..TypeParamBound$GT$$GT$17h129a4e927e5eb81bE', symObjAddr: 0x7520, symBinAddr: 0x12B110, symSize: 0xC0 }
  - { offsetInCU: 0x2C575, offset: 0x5BDBCA, size: 0x8, addend: 0x0, symName: '__ZN4core3ptr76drop_in_place$LT$$LP$syn..generics..GenericParam$C$syn..token..Comma$RP$$GT$17hfa938bd7ff9e78c2E.llvm.991277207215265740', symObjAddr: 0x7630, symBinAddr: 0x12B1D0, symSize: 0x40 }
  - { offsetInCU: 0x2C5E3, offset: 0x5BDC38, size: 0x8, addend: 0x0, symName: '__ZN4core3ptr82drop_in_place$LT$alloc..vec..Vec$LT$$LP$syn..pat..Pat$C$syn..token..Or$RP$$GT$$GT$17h1f0f428d7b2d8011E.llvm.991277207215265740', symObjAddr: 0x7740, symBinAddr: 0x12B210, symSize: 0x0 }
  - { offsetInCU: 0x2C8DB, offset: 0x5BDF30, size: 0x8, addend: 0x0, symName: '__ZN4core3ptr85drop_in_place$LT$alloc..vec..Vec$LT$$LP$syn..ty..Type$C$syn..token..Comma$RP$$GT$$GT$17h0cf4844ea7ad9568E.llvm.991277207215265740', symObjAddr: 0x7810, symBinAddr: 0x12B2E0, symSize: 0xD0 }
  - { offsetInCU: 0x2CC0D, offset: 0x5BE262, size: 0x8, addend: 0x0, symName: '__ZN4core3ptr86drop_in_place$LT$syn..punctuated..Punctuated$LT$syn..pat..Pat$C$syn..token..Or$GT$$GT$17h9cc6b5f7b6d3a555E', symObjAddr: 0x78E0, symBinAddr: 0x12B3B0, symSize: 0x120 }
  - { offsetInCU: 0x2D0A7, offset: 0x5BE6FC, size: 0x8, addend: 0x0, symName: '__ZN4core3ptr87drop_in_place$LT$alloc..vec..Vec$LT$$LP$syn..expr..Expr$C$syn..token..Comma$RP$$GT$$GT$17hd1036fba4025974bE.llvm.991277207215265740', symObjAddr: 0x7A00, symBinAddr: 0x12B4D0, symSize: 0xD0 }
  - { offsetInCU: 0x2D39B, offset: 0x5BE9F0, size: 0x8, addend: 0x0, symName: '__ZN4core3ptr87drop_in_place$LT$core..option..Option$LT$alloc..boxed..Box$LT$syn..pat..Pat$GT$$GT$$GT$17h51cd48973d96c411E', symObjAddr: 0x7AD0, symBinAddr: 0x12B5A0, symSize: 0x50 }
  - { offsetInCU: 0x2D50B, offset: 0x5BEB60, size: 0x8, addend: 0x0, symName: '__ZN4core3ptr87drop_in_place$LT$core..option..Option$LT$alloc..boxed..Box$LT$syn..ty..Type$GT$$GT$$GT$17h103a25a4a7d7374eE.llvm.991277207215265740', symObjAddr: 0x7B20, symBinAddr: 0x12B5F0, symSize: 0x50 }
  - { offsetInCU: 0x2D69A, offset: 0x5BECEF, size: 0x8, addend: 0x0, symName: '__ZN4core3ptr88drop_in_place$LT$alloc..vec..Vec$LT$$LP$syn..data..Field$C$syn..token..Comma$RP$$GT$$GT$17h066c67d26ce3e154E.llvm.991277207215265740', symObjAddr: 0x7B70, symBinAddr: 0x12B640, symSize: 0xD0 }
  - { offsetInCU: 0x2D9B1, offset: 0x5BF006, size: 0x8, addend: 0x0, symName: '__ZN4core3ptr88drop_in_place$LT$alloc..vec..Vec$LT$$LP$syn..item..FnArg$C$syn..token..Comma$RP$$GT$$GT$17he8d49cd20c575884E.llvm.991277207215265740', symObjAddr: 0x7C40, symBinAddr: 0x12B710, symSize: 0xD0 }
  - { offsetInCU: 0x2DCB0, offset: 0x5BF305, size: 0x8, addend: 0x0, symName: '__ZN4core3ptr89drop_in_place$LT$core..option..Option$LT$alloc..boxed..Box$LT$syn..expr..Expr$GT$$GT$$GT$17h9e02509cb2345d44E', symObjAddr: 0x7D10, symBinAddr: 0x12B7E0, symSize: 0x50 }
  - { offsetInCU: 0x2DE5E, offset: 0x5BF4B3, size: 0x8, addend: 0x0, symName: '__ZN4core3ptr89drop_in_place$LT$syn..punctuated..Punctuated$LT$syn..pat..Pat$C$syn..token..Comma$GT$$GT$17hd3a83c36827f210aE', symObjAddr: 0x7D60, symBinAddr: 0x12B830, symSize: 0x120 }
  - { offsetInCU: 0x2E2F0, offset: 0x5BF945, size: 0x8, addend: 0x0, symName: '__ZN4core3ptr89drop_in_place$LT$syn..punctuated..Punctuated$LT$syn..ty..Type$C$syn..token..Comma$GT$$GT$17he030c4b7f24a5848E.llvm.991277207215265740', symObjAddr: 0x7E80, symBinAddr: 0x12B950, symSize: 0x120 }
  - { offsetInCU: 0x2E78A, offset: 0x5BFDDF, size: 0x8, addend: 0x0, symName: '__ZN4core3ptr90drop_in_place$LT$alloc..vec..Vec$LT$$LP$syn..data..Variant$C$syn..token..Comma$RP$$GT$$GT$17h3ac8ecccf673c389E.llvm.991277207215265740', symObjAddr: 0x7FA0, symBinAddr: 0x12BA70, symSize: 0xD0 }
  - { offsetInCU: 0x2EA7E, offset: 0x5C00D3, size: 0x8, addend: 0x0, symName: '__ZN4core3ptr90drop_in_place$LT$alloc..vec..Vec$LT$$LP$syn..item..UseTree$C$syn..token..Comma$RP$$GT$$GT$17h1e4fface25e12fe6E.llvm.991277207215265740', symObjAddr: 0x8070, symBinAddr: 0x12BB40, symSize: 0xD0 }
  - { offsetInCU: 0x2ED74, offset: 0x5C03C9, size: 0x8, addend: 0x0, symName: '__ZN4core3ptr90drop_in_place$LT$alloc..vec..Vec$LT$$LP$syn..pat..FieldPat$C$syn..token..Comma$RP$$GT$$GT$17h4d0a520927a96123E.llvm.991277207215265740', symObjAddr: 0x8140, symBinAddr: 0x12BC10, symSize: 0xD0 }
  - { offsetInCU: 0x2F036, offset: 0x5C068B, size: 0x8, addend: 0x0, symName: '__ZN4core3ptr90drop_in_place$LT$alloc..vec..Vec$LT$$LP$syn..ty..BareFnArg$C$syn..token..Comma$RP$$GT$$GT$17h86271563b6e0e7d6E.llvm.991277207215265740', symObjAddr: 0x8210, symBinAddr: 0x12BCE0, symSize: 0xD0 }
  - { offsetInCU: 0x2F319, offset: 0x5C096E, size: 0x8, addend: 0x0, symName: '__ZN4core3ptr90drop_in_place$LT$core..option..Option$LT$alloc..boxed..Box$LT$syn..data..Field$GT$$GT$$GT$17h9f1aee8cd56c6727E.llvm.991277207215265740', symObjAddr: 0x82E0, symBinAddr: 0x12BDB0, symSize: 0x50 }
  - { offsetInCU: 0x2F49B, offset: 0x5C0AF0, size: 0x8, addend: 0x0, symName: '__ZN4core3ptr91drop_in_place$LT$syn..punctuated..Punctuated$LT$syn..expr..Expr$C$syn..token..Comma$GT$$GT$17h6f261e8f470c81f2E.llvm.991277207215265740', symObjAddr: 0x8330, symBinAddr: 0x12BE00, symSize: 0x120 }
  - { offsetInCU: 0x2F948, offset: 0x5C0F9D, size: 0x8, addend: 0x0, symName: '__ZN4core3ptr92drop_in_place$LT$core..option..Option$LT$alloc..boxed..Box$LT$syn..data..Variant$GT$$GT$$GT$17hb65f9b5d99f448afE', symObjAddr: 0x8450, symBinAddr: 0x12BF20, symSize: 0x50 }
  - { offsetInCU: 0x2FAE9, offset: 0x5C113E, size: 0x8, addend: 0x0, symName: '__ZN4core3ptr92drop_in_place$LT$syn..punctuated..Punctuated$LT$syn..data..Field$C$syn..token..Comma$GT$$GT$17hf8968831c552f88dE', symObjAddr: 0x84A0, symBinAddr: 0x12BF70, symSize: 0x120 }
  - { offsetInCU: 0x2FF5B, offset: 0x5C15B0, size: 0x8, addend: 0x0, symName: '__ZN4core3ptr93drop_in_place$LT$alloc..vec..Vec$LT$$LP$syn..expr..FieldValue$C$syn..token..Comma$RP$$GT$$GT$17hf889827bae7d8b64E.llvm.991277207215265740', symObjAddr: 0x85C0, symBinAddr: 0x12C090, symSize: 0xD0 }
  - { offsetInCU: 0x3023A, offset: 0x5C188F, size: 0x8, addend: 0x0, symName: '__ZN4core3ptr94drop_in_place$LT$alloc..vec..Vec$LT$$LP$syn..lifetime..Lifetime$C$syn..token..Plus$RP$$GT$$GT$17h446c63e6d8248f75E.llvm.991277207215265740', symObjAddr: 0x8690, symBinAddr: 0x12C160, symSize: 0x90 }
  - { offsetInCU: 0x3051C, offset: 0x5C1B71, size: 0x8, addend: 0x0, symName: '__ZN4core3ptr94drop_in_place$LT$syn..punctuated..Punctuated$LT$syn..data..Variant$C$syn..token..Comma$GT$$GT$17h310cd79aba4529ccE', symObjAddr: 0x8720, symBinAddr: 0x12C1F0, symSize: 0x120 }
  - { offsetInCU: 0x3098A, offset: 0x5C1FDF, size: 0x8, addend: 0x0, symName: '__ZN4core3ptr94drop_in_place$LT$syn..punctuated..Punctuated$LT$syn..pat..FieldPat$C$syn..token..Comma$GT$$GT$17h43ec25af986ef674E', symObjAddr: 0x8840, symBinAddr: 0x12C310, symSize: 0xF0 }
  - { offsetInCU: 0x30C89, offset: 0x5C22DE, size: 0x8, addend: 0x0, symName: '__ZN4core3ptr94drop_in_place$LT$syn..punctuated..Punctuated$LT$syn..ty..BareFnArg$C$syn..token..Comma$GT$$GT$17h7ba4c699ee390ebaE', symObjAddr: 0x8930, symBinAddr: 0x12C400, symSize: 0xF0 }
  - { offsetInCU: 0x30F8A, offset: 0x5C25DF, size: 0x8, addend: 0x0, symName: '__ZN4core3ptr95drop_in_place$LT$core..option..Option$LT$$LP$proc_macro2..Ident$C$syn..token..Colon$RP$$GT$$GT$17h59fe297999aa3329E.llvm.991277207215265740', symObjAddr: 0x8A20, symBinAddr: 0x12C4F0, symSize: 0x30 }
  - { offsetInCU: 0x310A5, offset: 0x5C26FA, size: 0x8, addend: 0x0, symName: '__ZN4core3ptr96drop_in_place$LT$alloc..vec..Vec$LT$$LP$syn..path..PathSegment$C$syn..token..PathSep$RP$$GT$$GT$17h69d97f03bb66469bE.llvm.991277207215265740', symObjAddr: 0x8A50, symBinAddr: 0x12C520, symSize: 0x100 }
  - { offsetInCU: 0x31499, offset: 0x5C2AEE, size: 0x8, addend: 0x0, symName: '__ZN4core3ptr96drop_in_place$LT$core..option..Option$LT$alloc..boxed..Box$LT$syn..path..PathSegment$GT$$GT$$GT$17h5de12a5a0f9e9ef9E.llvm.991277207215265740', symObjAddr: 0x8B50, symBinAddr: 0x12C620, symSize: 0x1A0 }
