---
triple:          'x86_64-apple-darwin'
binary-path:     "/Users/justinlanouette/Chaos/ChaöS-Token/hello_world/target/release/deps/libsyn_derive-2dfc96ba336982fd.dylib"
relocations:
  - { offsetInCU: 0x1E, offset: 0x1E, size: 0x8, addend: 0x0, symName: __ZN10proc_macro6bridge6client14HandleCounters3get17h2c76d49220b98e92E, symObjAddr: 0x0, symBinAddr: 0xA00, symSize: 0x10 }
  - { offsetInCU: 0x40, offset: 0x40, size: 0x8, addend: 0x0, symName: ___rustc_proc_macro_decls_9338758a67f67f21__, symObjAddr: 0xD3A0, symBinAddr: 0x2582F8, symSize: 0x0 }
  - { offsetInCU: 0x438, offset: 0x438, size: 0x8, addend: 0x0, symName: __ZN10syn_derive18derive_parse_inner17h2ad7c07027b972ccE, symObjAddr: 0x73F0, symBinAddr: 0x7DF0, symSize: 0x12A0 }
  - { offsetInCU: 0x1E10, offset: 0x1E10, size: 0x8, addend: 0x0, symName: __ZN10syn_derive19derive_tokens_inner17h1f3cdc3b27183fbbE, symObjAddr: 0x8690, symBinAddr: 0x9090, symSize: 0xCB0 }
  - { offsetInCU: 0x2B63, offset: 0x2B63, size: 0x8, addend: 0x0, symName: __ZN10syn_derive19derive_parse_fields17h02521dbbd0073a8dE, symObjAddr: 0x9340, symBinAddr: 0x9D40, symSize: 0xED0 }
  - { offsetInCU: 0x446E, offset: 0x446E, size: 0x8, addend: 0x0, symName: __ZN10syn_derive20derive_tokens_fields17hc31c3c9f0dd9efa3E, symObjAddr: 0xA210, symBinAddr: 0xAC10, symSize: 0x590 }
  - { offsetInCU: 0x4D15, offset: 0x4D15, size: 0x8, addend: 0x0, symName: __ZN10syn_derive26derive_tokens_fields_inner17h21ae11d6ef843712E, symObjAddr: 0xA7A0, symBinAddr: 0xB1A0, symSize: 0x1380 }
  - { offsetInCU: 0xB3A8, offset: 0xB3A8, size: 0x8, addend: 0x0, symName: '__ZN4core3ptr100drop_in_place$LT$core..option..Option$LT$alloc..boxed..Box$LT$syn..path..GenericArgument$GT$$GT$$GT$17h902496fc3bcf60efE', symObjAddr: 0xA10, symBinAddr: 0x1410, symSize: 0x50 }
  - { offsetInCU: 0xB6CA, offset: 0xB6CA, size: 0x8, addend: 0x0, symName: '__ZN4core3ptr100drop_in_place$LT$syn..punctuated..Punctuated$LT$syn..path..PathSegment$C$syn..token..PathSep$GT$$GT$17h9d25f07ee335103eE', symObjAddr: 0xA60, symBinAddr: 0x1460, symSize: 0x270 }
  - { offsetInCU: 0xC06D, offset: 0xC06D, size: 0x8, addend: 0x0, symName: '__ZN4core3ptr103drop_in_place$LT$core..option..Option$LT$alloc..boxed..Box$LT$syn..generics..TypeParamBound$GT$$GT$$GT$17h6b41aad38627fbd5E', symObjAddr: 0xCD0, symBinAddr: 0x16D0, symSize: 0x50 }
  - { offsetInCU: 0xC2B6, offset: 0xC2B6, size: 0x8, addend: 0x0, symName: '__ZN4core3ptr103drop_in_place$LT$core..option..Option$LT$alloc..boxed..Box$LT$syn..generics..WherePredicate$GT$$GT$$GT$17hdab477d215ff20acE', symObjAddr: 0xD20, symBinAddr: 0x1720, symSize: 0xD0 }
  - { offsetInCU: 0xC64A, offset: 0xC64A, size: 0x8, addend: 0x0, symName: '__ZN4core3ptr103drop_in_place$LT$syn..punctuated..Punctuated$LT$syn..generics..GenericParam$C$syn..token..Comma$GT$$GT$17hae5366231be58816E', symObjAddr: 0xDF0, symBinAddr: 0x17F0, symSize: 0xF0 }
  - { offsetInCU: 0xCAE8, offset: 0xCAE8, size: 0x8, addend: 0x0, symName: '__ZN4core3ptr104drop_in_place$LT$syn..punctuated..Punctuated$LT$syn..generics..TypeParamBound$C$syn..token..Plus$GT$$GT$17hd7472dab50e62f55E', symObjAddr: 0xEE0, symBinAddr: 0x18E0, symSize: 0x190 }
  - { offsetInCU: 0xD1A6, offset: 0xD1A6, size: 0x8, addend: 0x0, symName: '__ZN4core3ptr295drop_in_place$LT$core..iter..adapters..peekable..Peekable$LT$core..iter..adapters..map..Map$LT$core..iter..adapters..enumerate..Enumerate$LT$core..iter..adapters..cloned..Cloned$LT$syn..punctuated..Iter$LT$syn..data..Field$GT$$GT$$GT$$C$syn_derive..named..$u7b$$u7b$closure$u7d$$u7d$$GT$$GT$$GT$17h32cdd7c2ee30f49bE', symObjAddr: 0x1070, symBinAddr: 0x1A70, symSize: 0x60 }
  - { offsetInCU: 0xD3CD, offset: 0xD3CD, size: 0x8, addend: 0x0, symName: '__ZN4core3ptr34drop_in_place$LT$syn..lit..Lit$GT$17hb1ccf3569411b06aE', symObjAddr: 0x10D0, symBinAddr: 0x1AD0, symSize: 0x120 }
  - { offsetInCU: 0xD8BB, offset: 0xD8BB, size: 0x8, addend: 0x0, symName: '__ZN4core3ptr34drop_in_place$LT$syn..pat..Pat$GT$17h7359e8df337abba9E', symObjAddr: 0x11F0, symBinAddr: 0x1BF0, symSize: 0xBC0 }
  - { offsetInCU: 0x1106E, offset: 0x1106E, size: 0x8, addend: 0x0, symName: '__ZN4core3ptr34drop_in_place$LT$syn..ty..Type$GT$17h47ceaa73a19fc5d6E', symObjAddr: 0x1DB0, symBinAddr: 0x27B0, symSize: 0x4F0 }
  - { offsetInCU: 0x125B1, offset: 0x125B1, size: 0x8, addend: 0x0, symName: '__ZN4core3ptr36drop_in_place$LT$syn..expr..Expr$GT$17he1ae49cdf5ed6135E', symObjAddr: 0x22A0, symBinAddr: 0x2CA0, symSize: 0x1C60 }
  - { offsetInCU: 0x1AAD2, offset: 0x1AAD2, size: 0x8, addend: 0x0, symName: '__ZN4core3ptr36drop_in_place$LT$syn..mac..Macro$GT$17h2f7c278ba3ae8f94E', symObjAddr: 0x3F00, symBinAddr: 0x4900, symSize: 0x40 }
  - { offsetInCU: 0x1AB0C, offset: 0x1AB0C, size: 0x8, addend: 0x0, symName: '__ZN4core3ptr36drop_in_place$LT$syn..path..Path$GT$17ha1c4977077779d63E', symObjAddr: 0x3F40, symBinAddr: 0x4940, symSize: 0x240 }
  - { offsetInCU: 0x1B522, offset: 0x1B522, size: 0x8, addend: 0x0, symName: '__ZN4core3ptr37drop_in_place$LT$syn..data..Field$GT$17h78c76793f85f7022E', symObjAddr: 0x4180, symBinAddr: 0x4B80, symSize: 0x120 }
  - { offsetInCU: 0x1B9D8, offset: 0x1B9D8, size: 0x8, addend: 0x0, symName: '__ZN4core3ptr37drop_in_place$LT$syn..stmt..Block$GT$17h02427aaa95397c91E', symObjAddr: 0x42A0, symBinAddr: 0x4CA0, symSize: 0xD0 }
  - { offsetInCU: 0x1BD69, offset: 0x1BD69, size: 0x8, addend: 0x0, symName: '__ZN4core3ptr38drop_in_place$LT$syn..derive..Data$GT$17h56ad88af971ccf0fE', symObjAddr: 0x4370, symBinAddr: 0x4D70, symSize: 0x130 }
  - { offsetInCU: 0x1C0F1, offset: 0x1C0F1, size: 0x8, addend: 0x0, symName: '__ZN4core3ptr38drop_in_place$LT$syn..expr..Member$GT$17h107a8d7caaee36f8E', symObjAddr: 0x44A0, symBinAddr: 0x4EA0, symSize: 0x30 }
  - { offsetInCU: 0x1C1ED, offset: 0x1C1ED, size: 0x8, addend: 0x0, symName: '__ZN4core3ptr39drop_in_place$LT$proc_macro2..Ident$GT$17h33e9ef7d7cb9a26bE', symObjAddr: 0x44D0, symBinAddr: 0x4ED0, symSize: 0x30 }
  - { offsetInCU: 0x1C400, offset: 0x1C400, size: 0x8, addend: 0x0, symName: '__ZN4core3ptr39drop_in_place$LT$syn..buffer..Entry$GT$17h361cd84811d66e7eE', symObjAddr: 0x4500, symBinAddr: 0x4F00, symSize: 0xB0 }
  - { offsetInCU: 0x1C78B, offset: 0x1C78B, size: 0x8, addend: 0x0, symName: '__ZN4core3ptr40drop_in_place$LT$syn..ty..ReturnType$GT$17h60dcaacf955109c8E', symObjAddr: 0x45B0, symBinAddr: 0x4FB0, symSize: 0x50 }
  - { offsetInCU: 0x1C8FB, offset: 0x1C8FB, size: 0x8, addend: 0x0, symName: '__ZN4core3ptr41drop_in_place$LT$syn..expr..ExprConst$GT$17he2d746c7666e6b25E', symObjAddr: 0x4600, symBinAddr: 0x5000, symSize: 0x120 }
  - { offsetInCU: 0x1CE27, offset: 0x1CE27, size: 0x8, addend: 0x0, symName: '__ZN4core3ptr42drop_in_place$LT$syn_derive..FieldAttr$GT$17h4c5bf50eb55391f5E', symObjAddr: 0x4720, symBinAddr: 0x5120, symSize: 0x60 }
  - { offsetInCU: 0x1CE47, offset: 0x1CE47, size: 0x8, addend: 0x0, symName: '__ZN4core3ptr42drop_in_place$LT$syn_derive..FieldAttr$GT$17h4c5bf50eb55391f5E', symObjAddr: 0x4720, symBinAddr: 0x5120, symSize: 0x60 }
  - { offsetInCU: 0x1D029, offset: 0x1D029, size: 0x8, addend: 0x0, symName: '__ZN4core3ptr44drop_in_place$LT$syn..generics..Generics$GT$17hc013cc1b2e65796fE', symObjAddr: 0x4780, symBinAddr: 0x5180, symSize: 0x40 }
  - { offsetInCU: 0x1D046, offset: 0x1D046, size: 0x8, addend: 0x0, symName: '__ZN4core3ptr44drop_in_place$LT$syn..lifetime..Lifetime$GT$17h2ce55e67d3006872E', symObjAddr: 0x47C0, symBinAddr: 0x51C0, symSize: 0x30 }
  - { offsetInCU: 0x1D142, offset: 0x1D142, size: 0x8, addend: 0x0, symName: '__ZN4core3ptr44drop_in_place$LT$syn..parse..ParseBuffer$GT$17h6fbd62c13fccd3f9E', symObjAddr: 0x47F0, symBinAddr: 0x51F0, symSize: 0x70 }
  - { offsetInCU: 0x1D4BE, offset: 0x1D4BE, size: 0x8, addend: 0x0, symName: '__ZN4core3ptr45drop_in_place$LT$proc_macro2..TokenStream$GT$17he3fed67fc3446852E', symObjAddr: 0x4860, symBinAddr: 0x5260, symSize: 0x140 }
  - { offsetInCU: 0x1D907, offset: 0x1D907, size: 0x8, addend: 0x0, symName: '__ZN4core3ptr45drop_in_place$LT$syn..buffer..TokenBuffer$GT$17h087c798578459e23E', symObjAddr: 0x49A0, symBinAddr: 0x53A0, symSize: 0xC0 }
  - { offsetInCU: 0x1DB50, offset: 0x1DB50, size: 0x8, addend: 0x0, symName: '__ZN4core3ptr45drop_in_place$LT$syn..derive..DeriveInput$GT$17ha0e9a10761ab54a8E', symObjAddr: 0x4A60, symBinAddr: 0x5460, symSize: 0x150 }
  - { offsetInCU: 0x1E03B, offset: 0x1E03B, size: 0x8, addend: 0x0, symName: '__ZN4core3ptr45drop_in_place$LT$syn..generics..TypeParam$GT$17hca468ed302d5e883E', symObjAddr: 0x4BB0, symBinAddr: 0x55B0, symSize: 0x1E0 }
  - { offsetInCU: 0x1E7F0, offset: 0x1E7F0, size: 0x8, addend: 0x0, symName: '__ZN4core3ptr46drop_in_place$LT$syn..generics..ConstParam$GT$17ha9ac9d2cac900636E', symObjAddr: 0x4D90, symBinAddr: 0x5790, symSize: 0x100 }
  - { offsetInCU: 0x1EBB1, offset: 0x1EBB1, size: 0x8, addend: 0x0, symName: '__ZN4core3ptr47drop_in_place$LT$syn..path..GenericArgument$GT$17h7f35b3c2de13390bE', symObjAddr: 0x4E90, symBinAddr: 0x5890, symSize: 0x4A0 }
  - { offsetInCU: 0x1FCB7, offset: 0x1FCB7, size: 0x8, addend: 0x0, symName: '__ZN4core3ptr49drop_in_place$LT$syn..generics..LifetimeParam$GT$17h0833c6043bd53bc9E', symObjAddr: 0x5330, symBinAddr: 0x5D30, symSize: 0x90 }
  - { offsetInCU: 0x2000D, offset: 0x2000D, size: 0x8, addend: 0x0, symName: '__ZN4core3ptr49drop_in_place$LT$syn..restriction..Visibility$GT$17h1c088815e0d6b137E', symObjAddr: 0x53C0, symBinAddr: 0x5DC0, symSize: 0x60 }
  - { offsetInCU: 0x2017E, offset: 0x2017E, size: 0x8, addend: 0x0, symName: '__ZN4core3ptr50drop_in_place$LT$syn..generics..TypeParamBound$GT$17h14769d483d51829aE', symObjAddr: 0x5420, symBinAddr: 0x5E20, symSize: 0x180 }
  - { offsetInCU: 0x205C8, offset: 0x205C8, size: 0x8, addend: 0x0, symName: '__ZN4core3ptr58drop_in_place$LT$alloc..vec..Vec$LT$syn..expr..Arm$GT$$GT$17h9b48120322e1ea95E', symObjAddr: 0x55A0, symBinAddr: 0x5FA0, symSize: 0xD0 }
  - { offsetInCU: 0x20888, offset: 0x20888, size: 0x8, addend: 0x0, symName: '__ZN4core3ptr59drop_in_place$LT$alloc..boxed..Box$LT$syn..pat..Pat$GT$$GT$17h913d3979e02b0380E', symObjAddr: 0x5670, symBinAddr: 0x6070, symSize: 0x50 }
  - { offsetInCU: 0x209E1, offset: 0x209E1, size: 0x8, addend: 0x0, symName: '__ZN4core3ptr59drop_in_place$LT$alloc..boxed..Box$LT$syn..ty..Type$GT$$GT$17hff7f57a7bf846fc3E', symObjAddr: 0x56C0, symBinAddr: 0x60C0, symSize: 0x50 }
  - { offsetInCU: 0x20B3A, offset: 0x20B3A, size: 0x8, addend: 0x0, symName: '__ZN4core3ptr61drop_in_place$LT$alloc..boxed..Box$LT$syn..expr..Expr$GT$$GT$17h29440043cdc5b7bfE', symObjAddr: 0x5710, symBinAddr: 0x6110, symSize: 0x50 }
  - { offsetInCU: 0x20D0F, offset: 0x20D0F, size: 0x8, addend: 0x0, symName: '__ZN4core3ptr61drop_in_place$LT$syn..path..ParenthesizedGenericArguments$GT$17h33c2e534d9ec2d1dE', symObjAddr: 0x5760, symBinAddr: 0x6160, symSize: 0x170 }
  - { offsetInCU: 0x21305, offset: 0x21305, size: 0x8, addend: 0x0, symName: '__ZN4core3ptr62drop_in_place$LT$syn..path..AngleBracketedGenericArguments$GT$17h72f8b187cda232d5E', symObjAddr: 0x58D0, symBinAddr: 0x62D0, symSize: 0x120 }
  - { offsetInCU: 0x21750, offset: 0x21750, size: 0x8, addend: 0x0, symName: '__ZN4core3ptr63drop_in_place$LT$alloc..boxed..Box$LT$syn..lit..LitRepr$GT$$GT$17hf7828cb6a3955ff9E', symObjAddr: 0x59F0, symBinAddr: 0x63F0, symSize: 0x60 }
  - { offsetInCU: 0x21A38, offset: 0x21A38, size: 0x8, addend: 0x0, symName: '__ZN4core3ptr64drop_in_place$LT$alloc..boxed..Box$LT$syn..pat..FieldPat$GT$$GT$17h464c3ad6b191f456E', symObjAddr: 0x5A50, symBinAddr: 0x6450, symSize: 0x100 }
  - { offsetInCU: 0x22088, offset: 0x22088, size: 0x8, addend: 0x0, symName: '__ZN4core3ptr64drop_in_place$LT$alloc..boxed..Box$LT$syn..ty..BareFnArg$GT$$GT$17h5694a1f19b0e259eE', symObjAddr: 0x5B50, symBinAddr: 0x6550, symSize: 0xF0 }
  - { offsetInCU: 0x22551, offset: 0x22551, size: 0x8, addend: 0x0, symName: '__ZN4core3ptr65drop_in_place$LT$alloc..vec..Vec$LT$proc_macro..TokenTree$GT$$GT$17h221fedaf9965a430E', symObjAddr: 0x5C40, symBinAddr: 0x6640, symSize: 0x110 }
  - { offsetInCU: 0x22949, offset: 0x22949, size: 0x8, addend: 0x0, symName: '__ZN4core3ptr65drop_in_place$LT$core..option..Option$LT$syn..expr..Label$GT$$GT$17he0dc54c732444ae2E', symObjAddr: 0x5D50, symBinAddr: 0x6750, symSize: 0x30 }
  - { offsetInCU: 0x22A83, offset: 0x22A83, size: 0x8, addend: 0x0, symName: '__ZN4core3ptr66drop_in_place$LT$core..option..Option$LT$syn..pat..PatRest$GT$$GT$17ha5a01c0c262ef320E', symObjAddr: 0x5D80, symBinAddr: 0x6780, symSize: 0x80 }
  - { offsetInCU: 0x22CFF, offset: 0x22CFF, size: 0x8, addend: 0x0, symName: '__ZN4core3ptr67drop_in_place$LT$alloc..boxed..Box$LT$syn..expr..FieldValue$GT$$GT$17h6b30f10c221cfdb2E', symObjAddr: 0x5E00, symBinAddr: 0x6800, symSize: 0xF0 }
  - { offsetInCU: 0x231A8, offset: 0x231A8, size: 0x8, addend: 0x0, symName: '__ZN4core3ptr68drop_in_place$LT$alloc..boxed..Box$LT$syn..path..PathSegment$GT$$GT$17hcc4af483daf42554E', symObjAddr: 0x5EF0, symBinAddr: 0x68F0, symSize: 0x1B0 }
  - { offsetInCU: 0x238B6, offset: 0x238B6, size: 0x8, addend: 0x0, symName: '__ZN4core3ptr70drop_in_place$LT$core..option..Option$LT$syn..ty..BareVariadic$GT$$GT$17h086dd0da10d1997dE', symObjAddr: 0x60A0, symBinAddr: 0x6AA0, symSize: 0xA0 }
  - { offsetInCU: 0x23C5E, offset: 0x23C5E, size: 0x8, addend: 0x0, symName: '__ZN4core3ptr72drop_in_place$LT$alloc..boxed..Box$LT$syn..path..GenericArgument$GT$$GT$17h4574b81d16b6551fE', symObjAddr: 0x6140, symBinAddr: 0x6B40, symSize: 0x1D0 }
  - { offsetInCU: 0x241F9, offset: 0x241F9, size: 0x8, addend: 0x0, symName: '__ZN4core3ptr72drop_in_place$LT$core..option..Option$LT$syn..lifetime..Lifetime$GT$$GT$17h82838cf67b070eb1E', symObjAddr: 0x6310, symBinAddr: 0x6D10, symSize: 0x30 }
  - { offsetInCU: 0x24314, offset: 0x24314, size: 0x8, addend: 0x0, symName: '__ZN4core3ptr73drop_in_place$LT$alloc..boxed..Box$LT$syn..generics..GenericParam$GT$$GT$17hef52862666ef632bE', symObjAddr: 0x6340, symBinAddr: 0x6D40, symSize: 0x80 }
  - { offsetInCU: 0x2448A, offset: 0x2448A, size: 0x8, addend: 0x0, symName: '__ZN4core3ptr75drop_in_place$LT$alloc..boxed..Box$LT$syn..generics..TypeParamBound$GT$$GT$17h3bc4a83ac7001746E', symObjAddr: 0x63C0, symBinAddr: 0x6DC0, symSize: 0xC0 }
  - { offsetInCU: 0x247FD, offset: 0x247FD, size: 0x8, addend: 0x0, symName: '__ZN4core3ptr75drop_in_place$LT$core..option..Option$LT$syn..generics..WhereClause$GT$$GT$17hf725124c80644f6bE', symObjAddr: 0x6480, symBinAddr: 0x6E80, symSize: 0x90 }
  - { offsetInCU: 0x24AF1, offset: 0x24AF1, size: 0x8, addend: 0x0, symName: '__ZN4core3ptr86drop_in_place$LT$syn..punctuated..Punctuated$LT$syn..pat..Pat$C$syn..token..Or$GT$$GT$17h6e5a3d57d68a4f42E', symObjAddr: 0x6510, symBinAddr: 0x6F10, symSize: 0x120 }
  - { offsetInCU: 0x24F6C, offset: 0x24F6C, size: 0x8, addend: 0x0, symName: '__ZN4core3ptr87drop_in_place$LT$core..option..Option$LT$alloc..boxed..Box$LT$syn..pat..Pat$GT$$GT$$GT$17h971d1a8979b5c3acE', symObjAddr: 0x6630, symBinAddr: 0x7030, symSize: 0x50 }
  - { offsetInCU: 0x250DC, offset: 0x250DC, size: 0x8, addend: 0x0, symName: '__ZN4core3ptr87drop_in_place$LT$core..option..Option$LT$alloc..boxed..Box$LT$syn..ty..Type$GT$$GT$$GT$17hd50f5fde669883c6E', symObjAddr: 0x6680, symBinAddr: 0x7080, symSize: 0x50 }
  - { offsetInCU: 0x2526B, offset: 0x2526B, size: 0x8, addend: 0x0, symName: '__ZN4core3ptr89drop_in_place$LT$$LP$syn..expr..Member$C$syn_derive..FieldAttr$C$syn..data..Field$RP$$GT$17hb128f459b8c58553E', symObjAddr: 0x66D0, symBinAddr: 0x70D0, symSize: 0xA0 }
  - { offsetInCU: 0x25581, offset: 0x25581, size: 0x8, addend: 0x0, symName: '__ZN4core3ptr89drop_in_place$LT$core..option..Option$LT$alloc..boxed..Box$LT$syn..expr..Expr$GT$$GT$$GT$17h3a2e7b4c2e1e147bE', symObjAddr: 0x6770, symBinAddr: 0x7170, symSize: 0x50 }
  - { offsetInCU: 0x2572F, offset: 0x2572F, size: 0x8, addend: 0x0, symName: '__ZN4core3ptr89drop_in_place$LT$syn..punctuated..Punctuated$LT$syn..pat..Pat$C$syn..token..Comma$GT$$GT$17h8c96c487d05be04aE', symObjAddr: 0x67C0, symBinAddr: 0x71C0, symSize: 0x120 }
  - { offsetInCU: 0x25BC1, offset: 0x25BC1, size: 0x8, addend: 0x0, symName: '__ZN4core3ptr89drop_in_place$LT$syn..punctuated..Punctuated$LT$syn..ty..Type$C$syn..token..Comma$GT$$GT$17h64b50b1d5d2d93ffE', symObjAddr: 0x68E0, symBinAddr: 0x72E0, symSize: 0x120 }
  - { offsetInCU: 0x2605B, offset: 0x2605B, size: 0x8, addend: 0x0, symName: '__ZN4core3ptr90drop_in_place$LT$core..option..Option$LT$alloc..boxed..Box$LT$syn..data..Field$GT$$GT$$GT$17h5a1c9c52d7ba32e6E', symObjAddr: 0x6A00, symBinAddr: 0x7400, symSize: 0x50 }
  - { offsetInCU: 0x261BE, offset: 0x261BE, size: 0x8, addend: 0x0, symName: '__ZN4core3ptr90drop_in_place$LT$core..option..Option$LT$syn..path..AngleBracketedGenericArguments$GT$$GT$17hcbdded873e6623ceE', symObjAddr: 0x6A50, symBinAddr: 0x7450, symSize: 0x130 }
  - { offsetInCU: 0x26660, offset: 0x26660, size: 0x8, addend: 0x0, symName: '__ZN4core3ptr91drop_in_place$LT$syn..punctuated..Punctuated$LT$syn..expr..Expr$C$syn..token..Comma$GT$$GT$17h563634c74cd05d53E', symObjAddr: 0x6B80, symBinAddr: 0x7580, symSize: 0x120 }
  - { offsetInCU: 0x26B6A, offset: 0x26B6A, size: 0x8, addend: 0x0, symName: '__ZN4core3ptr92drop_in_place$LT$core..option..Option$LT$alloc..boxed..Box$LT$syn..data..Variant$GT$$GT$$GT$17ha72051dbb5e875a6E', symObjAddr: 0x6CA0, symBinAddr: 0x76A0, symSize: 0x120 }
  - { offsetInCU: 0x27110, offset: 0x27110, size: 0x8, addend: 0x0, symName: '__ZN4core3ptr92drop_in_place$LT$syn..punctuated..Punctuated$LT$syn..data..Field$C$syn..token..Comma$GT$$GT$17h3f21e668669f2f9aE', symObjAddr: 0x6DC0, symBinAddr: 0x77C0, symSize: 0x120 }
  - { offsetInCU: 0x27582, offset: 0x27582, size: 0x8, addend: 0x0, symName: '__ZN4core3ptr94drop_in_place$LT$syn..punctuated..Punctuated$LT$syn..pat..FieldPat$C$syn..token..Comma$GT$$GT$17h7b4e4a7ea240f530E', symObjAddr: 0x6EE0, symBinAddr: 0x78E0, symSize: 0xF0 }
  - { offsetInCU: 0x27881, offset: 0x27881, size: 0x8, addend: 0x0, symName: '__ZN4core3ptr94drop_in_place$LT$syn..punctuated..Punctuated$LT$syn..ty..BareFnArg$C$syn..token..Comma$GT$$GT$17h68c2fcf6a8a1f668E', symObjAddr: 0x6FD0, symBinAddr: 0x79D0, symSize: 0xF0 }
  - { offsetInCU: 0x27B82, offset: 0x27B82, size: 0x8, addend: 0x0, symName: '__ZN4core3ptr96drop_in_place$LT$core..option..Option$LT$alloc..boxed..Box$LT$syn..path..PathSegment$GT$$GT$$GT$17h6c41ebc14073cbbfE', symObjAddr: 0x70C0, symBinAddr: 0x7AC0, symSize: 0xA0 }
  - { offsetInCU: 0x27E01, offset: 0x27E01, size: 0x8, addend: 0x0, symName: '__ZN4core3ptr97drop_in_place$LT$syn..punctuated..Punctuated$LT$syn..expr..FieldValue$C$syn..token..Comma$GT$$GT$17hcc5ef78a22176d9dE', symObjAddr: 0x7160, symBinAddr: 0x7B60, symSize: 0xF0 }
  - { offsetInCU: 0x280FE, offset: 0x280FE, size: 0x8, addend: 0x0, symName: '__ZN4core3ptr98drop_in_place$LT$alloc..vec..Vec$LT$$LP$syn..path..GenericArgument$C$syn..token..Comma$RP$$GT$$GT$17h476460f9b73e3ba3E', symObjAddr: 0x7250, symBinAddr: 0x7C50, symSize: 0xD0 }
  - { offsetInCU: 0x2843E, offset: 0x2843E, size: 0x8, addend: 0x0, symName: '__ZN4core3ptr98drop_in_place$LT$syn..punctuated..Punctuated$LT$syn..lifetime..Lifetime$C$syn..token..Plus$GT$$GT$17h16305e47cc41acd9E', symObjAddr: 0x7320, symBinAddr: 0x7D20, symSize: 0xD0 }
  - { offsetInCU: 0x29051, offset: 0x29051, size: 0x8, addend: 0x0, symName: '__ZN4core3ops8function5impls80_$LT$impl$u20$core..ops..function..FnOnce$LT$A$GT$$u20$for$u20$$RF$mut$u20$F$GT$9call_once17h6d40c94c9dccc019E', symObjAddr: 0x700, symBinAddr: 0x1100, symSize: 0x310 }
  - { offsetInCU: 0x2A7F5, offset: 0x2A7F5, size: 0x8, addend: 0x0, symName: __ZN10proc_macro6bridge6client14HandleCounters3get17h2c76d49220b98e92E, symObjAddr: 0x0, symBinAddr: 0xA00, symSize: 0x10 }
  - { offsetInCU: 0x2AAEB, offset: 0x2AAEB, size: 0x8, addend: 0x0, symName: '__ZN40_$LT$F$u20$as$u20$syn..parse..Parser$GT$14__parse_scoped17hbf1fd33cbf302605E', symObjAddr: 0x10, symBinAddr: 0xA10, symSize: 0x6F0 }
  - { offsetInCU: 0x1E, offset: 0x38C86, size: 0x8, addend: 0x0, symName: '__ZN48_$LT$T$u20$as$u20$core..clone..CloneToUninit$GT$15clone_to_uninit17h70df6b01b1830030E', symObjAddr: 0x0, symBinAddr: 0xC520, symSize: 0x330 }
  - { offsetInCU: 0x1A27, offset: 0x3A68F, size: 0x8, addend: 0x0, symName: '__ZN4core3ptr100drop_in_place$LT$core..option..Option$LT$alloc..boxed..Box$LT$syn..path..GenericArgument$GT$$GT$$GT$17h902496fc3bcf60efE', symObjAddr: 0x330, symBinAddr: 0xC850, symSize: 0x50 }
  - { offsetInCU: 0x1D68, offset: 0x3A9D0, size: 0x8, addend: 0x0, symName: '__ZN4core3ptr100drop_in_place$LT$syn..punctuated..Punctuated$LT$syn..path..PathSegment$C$syn..token..PathSep$GT$$GT$17h9d25f07ee335103eE.llvm.12338395431768996945', symObjAddr: 0x380, symBinAddr: 0xC8A0, symSize: 0x1C0 }
  - { offsetInCU: 0x2425, offset: 0x3B08D, size: 0x8, addend: 0x0, symName: '__ZN4core3ptr101drop_in_place$LT$core..option..Option$LT$alloc..boxed..Box$LT$syn..generics..GenericParam$GT$$GT$$GT$17h77d4ae18731ef20eE', symObjAddr: 0x540, symBinAddr: 0xCA60, symSize: 0x50 }
  - { offsetInCU: 0x2611, offset: 0x3B279, size: 0x8, addend: 0x0, symName: '__ZN4core3ptr102drop_in_place$LT$syn..punctuated..Punctuated$LT$syn..path..GenericArgument$C$syn..token..Comma$GT$$GT$17hd67cddccf5496b2aE.llvm.12338395431768996945', symObjAddr: 0x590, symBinAddr: 0xCAB0, symSize: 0xF0 }
  - { offsetInCU: 0x2938, offset: 0x3B5A0, size: 0x8, addend: 0x0, symName: '__ZN4core3ptr103drop_in_place$LT$core..option..Option$LT$alloc..boxed..Box$LT$syn..generics..TypeParamBound$GT$$GT$$GT$17h6b41aad38627fbd5E', symObjAddr: 0x680, symBinAddr: 0xCBA0, symSize: 0x50 }
  - { offsetInCU: 0x2AC7, offset: 0x3B72F, size: 0x8, addend: 0x0, symName: '__ZN4core3ptr103drop_in_place$LT$core..option..Option$LT$alloc..boxed..Box$LT$syn..generics..WherePredicate$GT$$GT$$GT$17hdab477d215ff20acE', symObjAddr: 0x6D0, symBinAddr: 0xCBF0, symSize: 0x50 }
  - { offsetInCU: 0x2CF1, offset: 0x3B959, size: 0x8, addend: 0x0, symName: '__ZN4core3ptr103drop_in_place$LT$syn..punctuated..Punctuated$LT$syn..generics..GenericParam$C$syn..token..Comma$GT$$GT$17hae5366231be58816E', symObjAddr: 0x720, symBinAddr: 0xCC40, symSize: 0x1A0 }
  - { offsetInCU: 0x3317, offset: 0x3BF7F, size: 0x8, addend: 0x0, symName: '__ZN4core3ptr104drop_in_place$LT$syn..punctuated..Punctuated$LT$syn..generics..TypeParamBound$C$syn..token..Plus$GT$$GT$17hd7472dab50e62f55E.llvm.12338395431768996945', symObjAddr: 0x8C0, symBinAddr: 0xCDE0, symSize: 0x310 }
  - { offsetInCU: 0x410D, offset: 0x3CD75, size: 0x8, addend: 0x0, symName: '__ZN4core3ptr105drop_in_place$LT$syn..punctuated..Punctuated$LT$syn..generics..WherePredicate$C$syn..token..Comma$GT$$GT$17hc0106a002ddb57abE', symObjAddr: 0xBD0, symBinAddr: 0xD0F0, symSize: 0x1A0 }
  - { offsetInCU: 0x481C, offset: 0x3D484, size: 0x8, addend: 0x0, symName: '__ZN4core3ptr116drop_in_place$LT$core..option..Option$LT$$LP$syn..token..Else$C$alloc..boxed..Box$LT$syn..expr..Expr$GT$$RP$$GT$$GT$17h320f628c28a8a176E', symObjAddr: 0xD70, symBinAddr: 0xD290, symSize: 0x50 }
  - { offsetInCU: 0x49E1, offset: 0x3D649, size: 0x8, addend: 0x0, symName: '__ZN4core3ptr126drop_in_place$LT$core..option..Option$LT$$LP$syn..token..And$C$core..option..Option$LT$syn..lifetime..Lifetime$GT$$RP$$GT$$GT$17h6b19c2c381c7215aE', symObjAddr: 0xDC0, symBinAddr: 0xD2E0, symSize: 0x30 }
  - { offsetInCU: 0x4C70, offset: 0x3D8D8, size: 0x8, addend: 0x0, symName: '__ZN4core3ptr33drop_in_place$LT$syn..ty..Abi$GT$17h20ffc492fe41ef53E', symObjAddr: 0xDF0, symBinAddr: 0xD310, symSize: 0x70 }
  - { offsetInCU: 0x4C8C, offset: 0x3D8F4, size: 0x8, addend: 0x0, symName: '__ZN4core3ptr33drop_in_place$LT$syn..ty..Abi$GT$17h20ffc492fe41ef53E', symObjAddr: 0xDF0, symBinAddr: 0xD310, symSize: 0x70 }
  - { offsetInCU: 0x4F64, offset: 0x3DBCC, size: 0x8, addend: 0x0, symName: '__ZN4core3ptr34drop_in_place$LT$syn..lit..Lit$GT$17hb1ccf3569411b06aE', symObjAddr: 0xE60, symBinAddr: 0xD380, symSize: 0x120 }
  - { offsetInCU: 0x5471, offset: 0x3E0D9, size: 0x8, addend: 0x0, symName: '__ZN4core3ptr34drop_in_place$LT$syn..pat..Pat$GT$17h7359e8df337abba9E.llvm.12338395431768996945', symObjAddr: 0xF80, symBinAddr: 0xD4A0, symSize: 0x1110 }
  - { offsetInCU: 0x99E6, offset: 0x4264E, size: 0x8, addend: 0x0, symName: '__ZN4core3ptr34drop_in_place$LT$syn..ty..Type$GT$17h47ceaa73a19fc5d6E.llvm.12338395431768996945', symObjAddr: 0x2090, symBinAddr: 0xE5B0, symSize: 0x510 }
  - { offsetInCU: 0xAA35, offset: 0x4369D, size: 0x8, addend: 0x0, symName: '__ZN4core3ptr35drop_in_place$LT$syn..expr..Arm$GT$17h891845093a236f97E.llvm.12338395431768996945', symObjAddr: 0x25A0, symBinAddr: 0xEAC0, symSize: 0x170 }
  - { offsetInCU: 0xB031, offset: 0x43C99, size: 0x8, addend: 0x0, symName: '__ZN4core3ptr36drop_in_place$LT$syn..attr..Meta$GT$17he748441eaa87c6baE.llvm.12338395431768996945', symObjAddr: 0x2710, symBinAddr: 0xEC30, symSize: 0x220 }
  - { offsetInCU: 0xBBCA, offset: 0x44832, size: 0x8, addend: 0x0, symName: '__ZN4core3ptr36drop_in_place$LT$syn..expr..Expr$GT$17he1ae49cdf5ed6135E.llvm.12338395431768996945', symObjAddr: 0x2930, symBinAddr: 0xEE50, symSize: 0x2830 }
  - { offsetInCU: 0x16219, offset: 0x4EE81, size: 0x8, addend: 0x0, symName: '__ZN4core3ptr36drop_in_place$LT$syn..item..Item$GT$17hda953c479366718aE', symObjAddr: 0x5160, symBinAddr: 0x11680, symSize: 0x18F0 }
  - { offsetInCU: 0x1C971, offset: 0x555D9, size: 0x8, addend: 0x0, symName: '__ZN4core3ptr36drop_in_place$LT$syn..mac..Macro$GT$17h2f7c278ba3ae8f94E', symObjAddr: 0x6A50, symBinAddr: 0x12F70, symSize: 0x40 }
  - { offsetInCU: 0x1C9AB, offset: 0x55613, size: 0x8, addend: 0x0, symName: '__ZN4core3ptr36drop_in_place$LT$syn..path..Path$GT$17ha1c4977077779d63E.llvm.12338395431768996945', symObjAddr: 0x6A90, symBinAddr: 0x12FB0, symSize: 0x180 }
  - { offsetInCU: 0x1CFB6, offset: 0x55C1E, size: 0x8, addend: 0x0, symName: '__ZN4core3ptr36drop_in_place$LT$syn..stmt..Stmt$GT$17h74796bfce73d988bE.llvm.12338395431768996945', symObjAddr: 0x6C10, symBinAddr: 0x13130, symSize: 0x2D0 }
  - { offsetInCU: 0x1D904, offset: 0x5656C, size: 0x8, addend: 0x0, symName: '__ZN4core3ptr37drop_in_place$LT$syn..data..Field$GT$17h78c76793f85f7022E.llvm.12338395431768996945', symObjAddr: 0x6EE0, symBinAddr: 0x13400, symSize: 0x190 }
  - { offsetInCU: 0x1DEC0, offset: 0x56B28, size: 0x8, addend: 0x0, symName: '__ZN4core3ptr37drop_in_place$LT$syn..item..FnArg$GT$17h7992d424dcec1b6fE', symObjAddr: 0x7070, symBinAddr: 0x13590, symSize: 0x230 }
  - { offsetInCU: 0x1E7D7, offset: 0x5743F, size: 0x8, addend: 0x0, symName: '__ZN4core3ptr37drop_in_place$LT$syn..stmt..Block$GT$17h02427aaa95397c91E', symObjAddr: 0x72A0, symBinAddr: 0x137C0, symSize: 0xD0 }
  - { offsetInCU: 0x1EAB5, offset: 0x5771D, size: 0x8, addend: 0x0, symName: '__ZN4core3ptr38drop_in_place$LT$syn..expr..Member$GT$17h107a8d7caaee36f8E.llvm.12338395431768996945', symObjAddr: 0x7370, symBinAddr: 0x13890, symSize: 0x30 }
  - { offsetInCU: 0x1EBB1, offset: 0x57819, size: 0x8, addend: 0x0, symName: '__ZN4core3ptr38drop_in_place$LT$syn..pat..PatType$GT$17h9ef61fe54f5adbd6E', symObjAddr: 0x73A0, symBinAddr: 0x138C0, symSize: 0x140 }
  - { offsetInCU: 0x1F12F, offset: 0x57D97, size: 0x8, addend: 0x0, symName: '__ZN4core3ptr39drop_in_place$LT$proc_macro2..Ident$GT$17h33e9ef7d7cb9a26bE.llvm.12338395431768996945', symObjAddr: 0x74E0, symBinAddr: 0x13A00, symSize: 0x30 }
  - { offsetInCU: 0x1F269, offset: 0x57ED1, size: 0x8, addend: 0x0, symName: '__ZN4core3ptr39drop_in_place$LT$syn..data..Variant$GT$17h0f8631d954b55108E.llvm.12338395431768996945', symObjAddr: 0x7510, symBinAddr: 0x13A30, symSize: 0x2F0 }
  - { offsetInCU: 0x1FED0, offset: 0x58B38, size: 0x8, addend: 0x0, symName: '__ZN4core3ptr39drop_in_place$LT$syn..item..UseTree$GT$17h52013764ecb56835E', symObjAddr: 0x7800, symBinAddr: 0x13D20, symSize: 0x1E0 }
  - { offsetInCU: 0x20629, offset: 0x59291, size: 0x8, addend: 0x0, symName: '__ZN4core3ptr40drop_in_place$LT$syn..item..ImplItem$GT$17h2bac51c9d646b595E', symObjAddr: 0x79E0, symBinAddr: 0x13F00, symSize: 0x190 }
  - { offsetInCU: 0x2097E, offset: 0x595E6, size: 0x8, addend: 0x0, symName: '__ZN4core3ptr40drop_in_place$LT$syn..item..Receiver$GT$17h1b806d465982ac04E', symObjAddr: 0x7B70, symBinAddr: 0x14090, symSize: 0x130 }
  - { offsetInCU: 0x20F48, offset: 0x59BB0, size: 0x8, addend: 0x0, symName: '__ZN4core3ptr40drop_in_place$LT$syn..item..Variadic$GT$17h6678fa06578d346cE', symObjAddr: 0x7CA0, symBinAddr: 0x141C0, symSize: 0x120 }
  - { offsetInCU: 0x213B7, offset: 0x5A01F, size: 0x8, addend: 0x0, symName: '__ZN4core3ptr40drop_in_place$LT$syn..ty..ReturnType$GT$17h60dcaacf955109c8E.llvm.12338395431768996945', symObjAddr: 0x7DC0, symBinAddr: 0x142E0, symSize: 0x50 }
  - { offsetInCU: 0x21546, offset: 0x5A1AE, size: 0x8, addend: 0x0, symName: '__ZN4core3ptr41drop_in_place$LT$syn..attr..Attribute$GT$17hbf4cad2d17f59802E.llvm.12338395431768996945', symObjAddr: 0x7E10, symBinAddr: 0x14330, symSize: 0x160 }
  - { offsetInCU: 0x21A58, offset: 0x5A6C0, size: 0x8, addend: 0x0, symName: '__ZN4core3ptr41drop_in_place$LT$syn..item..Signature$GT$17he933a8b349629d79E', symObjAddr: 0x7F70, symBinAddr: 0x14490, symSize: 0x270 }
  - { offsetInCU: 0x2256D, offset: 0x5B1D5, size: 0x8, addend: 0x0, symName: '__ZN4core3ptr41drop_in_place$LT$syn..item..TraitItem$GT$17h35c18f2e750c7fc0E', symObjAddr: 0x81E0, symBinAddr: 0x14700, symSize: 0x330 }
  - { offsetInCU: 0x22EAF, offset: 0x5BB17, size: 0x8, addend: 0x0, symName: '__ZN4core3ptr42drop_in_place$LT$syn..item..ImplItemFn$GT$17h8287f2fac8179e04E', symObjAddr: 0x8510, symBinAddr: 0x14A30, symSize: 0x230 }
  - { offsetInCU: 0x2363E, offset: 0x5C2A6, size: 0x8, addend: 0x0, symName: '__ZN4core3ptr42drop_in_place$LT$syn..path..Constraint$GT$17h771e1a273f58e02cE', symObjAddr: 0x8740, symBinAddr: 0x14C60, symSize: 0x160 }
  - { offsetInCU: 0x23D0D, offset: 0x5C975, size: 0x8, addend: 0x0, symName: '__ZN4core3ptr43drop_in_place$LT$proc_macro2..TokenTree$GT$17hd0797a3d37d6e6afE.llvm.12338395431768996945', symObjAddr: 0x88A0, symBinAddr: 0x14DC0, symSize: 0x180 }
  - { offsetInCU: 0x24553, offset: 0x5D1BB, size: 0x8, addend: 0x0, symName: '__ZN4core3ptr43drop_in_place$LT$syn..data..FieldsNamed$GT$17hb5a5ecadba3e2ad9E', symObjAddr: 0x8A20, symBinAddr: 0x14F40, symSize: 0x120 }
  - { offsetInCU: 0x24A17, offset: 0x5D67F, size: 0x8, addend: 0x0, symName: '__ZN4core3ptr43drop_in_place$LT$syn..item..ForeignItem$GT$17h72b2e0f1a80944b1E', symObjAddr: 0x8B40, symBinAddr: 0x15060, symSize: 0x2B0 }
  - { offsetInCU: 0x25265, offset: 0x5DECD, size: 0x8, addend: 0x0, symName: '__ZN4core3ptr43drop_in_place$LT$syn..path..PathSegment$GT$17h397a253cd9d119b3E.llvm.12338395431768996945', symObjAddr: 0x8DF0, symBinAddr: 0x15310, symSize: 0x190 }
  - { offsetInCU: 0x25825, offset: 0x5E48D, size: 0x8, addend: 0x0, symName: '__ZN4core3ptr44drop_in_place$LT$syn..generics..Generics$GT$17hc013cc1b2e65796fE', symObjAddr: 0x8F80, symBinAddr: 0x154A0, symSize: 0x240 }
  - { offsetInCU: 0x26166, offset: 0x5EDCE, size: 0x8, addend: 0x0, symName: '__ZN4core3ptr44drop_in_place$LT$syn..item..ImplItemType$GT$17h3a34cce67996b735E', symObjAddr: 0x91C0, symBinAddr: 0x156E0, symSize: 0x1F0 }
  - { offsetInCU: 0x26745, offset: 0x5F3AD, size: 0x8, addend: 0x0, symName: '__ZN4core3ptr44drop_in_place$LT$syn..lifetime..Lifetime$GT$17h2ce55e67d3006872E.llvm.12338395431768996945', symObjAddr: 0x93B0, symBinAddr: 0x158D0, symSize: 0x30 }
  - { offsetInCU: 0x2689E, offset: 0x5F506, size: 0x8, addend: 0x0, symName: '__ZN4core3ptr45drop_in_place$LT$proc_macro2..TokenStream$GT$17he3fed67fc3446852E.llvm.12338395431768996945', symObjAddr: 0x93E0, symBinAddr: 0x15900, symSize: 0x70 }
  - { offsetInCU: 0x269F2, offset: 0x5F65A, size: 0x8, addend: 0x0, symName: '__ZN4core3ptr45drop_in_place$LT$syn..generics..TypeParam$GT$17hca468ed302d5e883E.llvm.12338395431768996945', symObjAddr: 0x9450, symBinAddr: 0x15970, symSize: 0x140 }
  - { offsetInCU: 0x26E26, offset: 0x5FA8E, size: 0x8, addend: 0x0, symName: '__ZN4core3ptr45drop_in_place$LT$syn..item..ImplItemConst$GT$17he2f2cb848323bfccE', symObjAddr: 0x9590, symBinAddr: 0x15AB0, symSize: 0x210 }
  - { offsetInCU: 0x27443, offset: 0x600AB, size: 0x8, addend: 0x0, symName: '__ZN4core3ptr45drop_in_place$LT$syn..item..TraitItemType$GT$17h101ebdb9148772f5E', symObjAddr: 0x97A0, symBinAddr: 0x15CC0, symSize: 0x290 }
  - { offsetInCU: 0x27D79, offset: 0x609E1, size: 0x8, addend: 0x0, symName: '__ZN4core3ptr46drop_in_place$LT$syn..generics..ConstParam$GT$17ha9ac9d2cac900636E.llvm.12338395431768996945', symObjAddr: 0x9A30, symBinAddr: 0x15F50, symSize: 0x150 }
  - { offsetInCU: 0x281A7, offset: 0x60E0F, size: 0x8, addend: 0x0, symName: '__ZN4core3ptr46drop_in_place$LT$syn..item..TraitItemConst$GT$17h3b0d9b3f8704a017E', symObjAddr: 0x9B80, symBinAddr: 0x160A0, symSize: 0x1B0 }
  - { offsetInCU: 0x28654, offset: 0x612BC, size: 0x8, addend: 0x0, symName: '__ZN4core3ptr47drop_in_place$LT$syn..generics..WhereClause$GT$17h1dde2f5c918da3bbE', symObjAddr: 0x9D30, symBinAddr: 0x16250, symSize: 0x120 }
  - { offsetInCU: 0x28ADA, offset: 0x61742, size: 0x8, addend: 0x0, symName: '__ZN4core3ptr47drop_in_place$LT$syn..item..ForeignItemType$GT$17h87de5b5f77eae6a8E', symObjAddr: 0x9E50, symBinAddr: 0x16370, symSize: 0x1B0 }
  - { offsetInCU: 0x29114, offset: 0x61D7C, size: 0x8, addend: 0x0, symName: '__ZN4core3ptr47drop_in_place$LT$syn..path..GenericArgument$GT$17h7f35b3c2de13390bE', symObjAddr: 0xA000, symBinAddr: 0x16520, symSize: 0x4A0 }
  - { offsetInCU: 0x2A2F2, offset: 0x62F5A, size: 0x8, addend: 0x0, symName: '__ZN4core3ptr48drop_in_place$LT$syn..generics..GenericParam$GT$17ha19a7fec5b9ca74fE', symObjAddr: 0xA4A0, symBinAddr: 0x169C0, symSize: 0x150 }
  - { offsetInCU: 0x2A718, offset: 0x63380, size: 0x8, addend: 0x0, symName: '__ZN4core3ptr49drop_in_place$LT$syn..generics..LifetimeParam$GT$17h0833c6043bd53bc9E.llvm.12338395431768996945', symObjAddr: 0xA5F0, symBinAddr: 0x16B10, symSize: 0xF0 }
  - { offsetInCU: 0x2AB23, offset: 0x6378B, size: 0x8, addend: 0x0, symName: '__ZN4core3ptr49drop_in_place$LT$syn..generics..PredicateType$GT$17h5a2a218a43dbf16fE.llvm.12338395431768996945', symObjAddr: 0xA6E0, symBinAddr: 0x16C00, symSize: 0x250 }
  - { offsetInCU: 0x2B43F, offset: 0x640A7, size: 0x8, addend: 0x0, symName: '__ZN4core3ptr49drop_in_place$LT$syn..item..ForeignItemStatic$GT$17h2c43607712d3b833E', symObjAddr: 0xA930, symBinAddr: 0x16E50, symSize: 0x190 }
  - { offsetInCU: 0x2BB2C, offset: 0x64794, size: 0x8, addend: 0x0, symName: '__ZN4core3ptr50drop_in_place$LT$$u5b$syn..item..ImplItem$u5d$$GT$17h7e23f151dd30f115E', symObjAddr: 0xAAC0, symBinAddr: 0x16FE0, symSize: 0x310 }
  - { offsetInCU: 0x2BF3D, offset: 0x64BA5, size: 0x8, addend: 0x0, symName: '__ZN4core3ptr50drop_in_place$LT$syn..generics..BoundLifetimes$GT$17h1488fb42a85a1eb7E', symObjAddr: 0xADD0, symBinAddr: 0x172F0, symSize: 0x120 }
  - { offsetInCU: 0x2C3BF, offset: 0x65027, size: 0x8, addend: 0x0, symName: '__ZN4core3ptr50drop_in_place$LT$syn..generics..TypeParamBound$GT$17h14769d483d51829aE', symObjAddr: 0xAEF0, symBinAddr: 0x17410, symSize: 0xA0 }
  - { offsetInCU: 0x2C544, offset: 0x651AC, size: 0x8, addend: 0x0, symName: '__ZN4core3ptr50drop_in_place$LT$syn..generics..WherePredicate$GT$17haba4d48a42643149E', symObjAddr: 0xAF90, symBinAddr: 0x174B0, symSize: 0xA0 }
  - { offsetInCU: 0x2C6F4, offset: 0x6535C, size: 0x8, addend: 0x0, symName: '__ZN4core3ptr51drop_in_place$LT$$u5b$syn..item..TraitItem$u5d$$GT$17hd52a87975a80a028E', symObjAddr: 0xB030, symBinAddr: 0x17550, symSize: 0x650 }
  - { offsetInCU: 0x2D1CE, offset: 0x65E36, size: 0x8, addend: 0x0, symName: '__ZN4core3ptr52drop_in_place$LT$syn..restriction..VisRestricted$GT$17h67d54e844f862a4eE', symObjAddr: 0xB680, symBinAddr: 0x17BA0, symSize: 0x100 }
  - { offsetInCU: 0x2D672, offset: 0x662DA, size: 0x8, addend: 0x0, symName: '__ZN4core3ptr53drop_in_place$LT$$u5b$syn..item..ForeignItem$u5d$$GT$17h982fce62a069eeaaE', symObjAddr: 0xB780, symBinAddr: 0x17CA0, symSize: 0x670 }
  - { offsetInCU: 0x2E2E0, offset: 0x66F48, size: 0x8, addend: 0x0, symName: '__ZN4core3ptr58drop_in_place$LT$alloc..vec..Vec$LT$syn..expr..Arm$GT$$GT$17h9b48120322e1ea95E', symObjAddr: 0xBDF0, symBinAddr: 0x18310, symSize: 0xD0 }
  - { offsetInCU: 0x2E5A7, offset: 0x6720F, size: 0x8, addend: 0x0, symName: '__ZN4core3ptr59drop_in_place$LT$alloc..boxed..Box$LT$syn..pat..Pat$GT$$GT$17h913d3979e02b0380E.llvm.12338395431768996945', symObjAddr: 0xBEC0, symBinAddr: 0x183E0, symSize: 0x50 }
  - { offsetInCU: 0x2E700, offset: 0x67368, size: 0x8, addend: 0x0, symName: '__ZN4core3ptr59drop_in_place$LT$alloc..boxed..Box$LT$syn..ty..Type$GT$$GT$17hff7f57a7bf846fc3E', symObjAddr: 0xBF10, symBinAddr: 0x18430, symSize: 0x50 }
  - { offsetInCU: 0x2E859, offset: 0x674C1, size: 0x8, addend: 0x0, symName: '__ZN4core3ptr59drop_in_place$LT$alloc..vec..Vec$LT$syn..item..Item$GT$$GT$17h0a0007ee01a1d79bE', symObjAddr: 0xBF60, symBinAddr: 0x18480, symSize: 0xD0 }
  - { offsetInCU: 0x2EB20, offset: 0x67788, size: 0x8, addend: 0x0, symName: '__ZN4core3ptr61drop_in_place$LT$alloc..boxed..Box$LT$syn..expr..Expr$GT$$GT$17h29440043cdc5b7bfE', symObjAddr: 0xC030, symBinAddr: 0x18550, symSize: 0x50 }
  - { offsetInCU: 0x2EC79, offset: 0x678E1, size: 0x8, addend: 0x0, symName: '__ZN4core3ptr61drop_in_place$LT$alloc..boxed..Box$LT$syn..path..Path$GT$$GT$17he1782f172cb6c42bE', symObjAddr: 0xC080, symBinAddr: 0x185A0, symSize: 0x50 }
  - { offsetInCU: 0x2EEE7, offset: 0x67B4F, size: 0x8, addend: 0x0, symName: '__ZN4core3ptr61drop_in_place$LT$proc_macro_error..diagnostic..Diagnostic$GT$17h5317350bf1741c4bE.llvm.12338395431768996945', symObjAddr: 0xC0D0, symBinAddr: 0x185F0, symSize: 0xF0 }
  - { offsetInCU: 0x2F568, offset: 0x681D0, size: 0x8, addend: 0x0, symName: '__ZN4core3ptr61drop_in_place$LT$syn..path..ParenthesizedGenericArguments$GT$17h33c2e534d9ec2d1dE.llvm.12338395431768996945', symObjAddr: 0xC1C0, symBinAddr: 0x186E0, symSize: 0x170 }
  - { offsetInCU: 0x2FB65, offset: 0x687CD, size: 0x8, addend: 0x0, symName: '__ZN4core3ptr62drop_in_place$LT$alloc..boxed..Box$LT$syn..data..Field$GT$$GT$17h1a421af1f330bfa4E', symObjAddr: 0xC330, symBinAddr: 0x18850, symSize: 0x50 }
  - { offsetInCU: 0x2FCDD, offset: 0x68945, size: 0x8, addend: 0x0, symName: '__ZN4core3ptr62drop_in_place$LT$alloc..boxed..Box$LT$syn..item..FnArg$GT$$GT$17hc73a563806ef492bE', symObjAddr: 0xC380, symBinAddr: 0x188A0, symSize: 0x60 }
  - { offsetInCU: 0x2FE53, offset: 0x68ABB, size: 0x8, addend: 0x0, symName: '__ZN4core3ptr62drop_in_place$LT$alloc..boxed..Box$LT$syn..stmt..Block$GT$$GT$17hdbec9158418fc3b6E', symObjAddr: 0xC3E0, symBinAddr: 0x18900, symSize: 0xE0 }
  - { offsetInCU: 0x3026C, offset: 0x68ED4, size: 0x8, addend: 0x0, symName: '__ZN4core3ptr62drop_in_place$LT$syn..path..AngleBracketedGenericArguments$GT$17h72f8b187cda232d5E.llvm.12338395431768996945', symObjAddr: 0xC4C0, symBinAddr: 0x189E0, symSize: 0x120 }
  - { offsetInCU: 0x306F2, offset: 0x6935A, size: 0x8, addend: 0x0, symName: '__ZN4core3ptr63drop_in_place$LT$alloc..vec..Vec$LT$syn..item..ImplItem$GT$$GT$17h3df90e62edb77714E', symObjAddr: 0xC5E0, symBinAddr: 0x18B00, symSize: 0x80 }
  - { offsetInCU: 0x309AA, offset: 0x69612, size: 0x8, addend: 0x0, symName: '__ZN4core3ptr64drop_in_place$LT$alloc..boxed..Box$LT$syn..data..Variant$GT$$GT$17h23c6eba0aa79faacE', symObjAddr: 0xC660, symBinAddr: 0x18B80, symSize: 0x50 }
  - { offsetInCU: 0x30B03, offset: 0x6976B, size: 0x8, addend: 0x0, symName: '__ZN4core3ptr64drop_in_place$LT$alloc..boxed..Box$LT$syn..item..UseTree$GT$$GT$17hb910bdf5b4cc98a7E', symObjAddr: 0xC6B0, symBinAddr: 0x18BD0, symSize: 0x50 }
  - { offsetInCU: 0x30C9A, offset: 0x69902, size: 0x8, addend: 0x0, symName: '__ZN4core3ptr64drop_in_place$LT$alloc..boxed..Box$LT$syn..pat..FieldPat$GT$$GT$17h464c3ad6b191f456E', symObjAddr: 0xC700, symBinAddr: 0x18C20, symSize: 0x140 }
  - { offsetInCU: 0x31364, offset: 0x69FCC, size: 0x8, addend: 0x0, symName: '__ZN4core3ptr64drop_in_place$LT$alloc..boxed..Box$LT$syn..ty..BareFnArg$GT$$GT$17h5694a1f19b0e259eE', symObjAddr: 0xC840, symBinAddr: 0x18D60, symSize: 0x140 }
  - { offsetInCU: 0x318F7, offset: 0x6A55F, size: 0x8, addend: 0x0, symName: '__ZN4core3ptr64drop_in_place$LT$alloc..vec..Vec$LT$syn..attr..Attribute$GT$$GT$17h99920346ba93500eE', symObjAddr: 0xC980, symBinAddr: 0x18EA0, symSize: 0xD0 }
  - { offsetInCU: 0x31BF2, offset: 0x6A85A, size: 0x8, addend: 0x0, symName: '__ZN4core3ptr64drop_in_place$LT$alloc..vec..Vec$LT$syn..item..TraitItem$GT$$GT$17h255c9c15ca9e494eE', symObjAddr: 0xCA50, symBinAddr: 0x18F70, symSize: 0x80 }
  - { offsetInCU: 0x31EAA, offset: 0x6AB12, size: 0x8, addend: 0x0, symName: '__ZN4core3ptr65drop_in_place$LT$$LP$syn..item..FnArg$C$syn..token..Comma$RP$$GT$17hd396f26cf9ef9544E', symObjAddr: 0xCAD0, symBinAddr: 0x18FF0, symSize: 0x20 }
  - { offsetInCU: 0x31F43, offset: 0x6ABAB, size: 0x8, addend: 0x0, symName: '__ZN4core3ptr65drop_in_place$LT$alloc..vec..Vec$LT$proc_macro..TokenTree$GT$$GT$17h221fedaf9965a430E.llvm.12338395431768996945', symObjAddr: 0xCAF0, symBinAddr: 0x19010, symSize: 0x110 }
  - { offsetInCU: 0x32355, offset: 0x6AFBD, size: 0x8, addend: 0x0, symName: '__ZN4core3ptr65drop_in_place$LT$core..option..Option$LT$syn..expr..Label$GT$$GT$17he0dc54c732444ae2E', symObjAddr: 0xCC00, symBinAddr: 0x19120, symSize: 0x30 }
  - { offsetInCU: 0x3248F, offset: 0x6B0F7, size: 0x8, addend: 0x0, symName: '__ZN4core3ptr65drop_in_place$LT$core..option..Option$LT$syn..stmt..Block$GT$$GT$17h8752e67751d12fddE', symObjAddr: 0xCC30, symBinAddr: 0x19150, symSize: 0xD0 }
  - { offsetInCU: 0x32783, offset: 0x6B3EB, size: 0x8, addend: 0x0, symName: '__ZN4core3ptr66drop_in_place$LT$alloc..vec..Vec$LT$proc_macro2..TokenTree$GT$$GT$17hf1648f9d85240969E', symObjAddr: 0xCD00, symBinAddr: 0x19220, symSize: 0xC0 }
  - { offsetInCU: 0x32A5B, offset: 0x6B6C3, size: 0x8, addend: 0x0, symName: '__ZN4core3ptr66drop_in_place$LT$alloc..vec..Vec$LT$syn..item..ForeignItem$GT$$GT$17hc996525c2111f99aE', symObjAddr: 0xCDC0, symBinAddr: 0x192E0, symSize: 0x80 }
  - { offsetInCU: 0x32D13, offset: 0x6B97B, size: 0x8, addend: 0x0, symName: '__ZN4core3ptr67drop_in_place$LT$$LP$syn..pat..FieldPat$C$syn..token..Comma$RP$$GT$17h45abccc840669f3dE.llvm.12338395431768996945', symObjAddr: 0xCE40, symBinAddr: 0x19360, symSize: 0x120 }
  - { offsetInCU: 0x332A8, offset: 0x6BF10, size: 0x8, addend: 0x0, symName: '__ZN4core3ptr67drop_in_place$LT$$LP$syn..ty..BareFnArg$C$syn..token..Comma$RP$$GT$17h3a71eecf2aad3a50E.llvm.12338395431768996945', symObjAddr: 0xCF60, symBinAddr: 0x19480, symSize: 0x110 }
  - { offsetInCU: 0x33726, offset: 0x6C38E, size: 0x8, addend: 0x0, symName: '__ZN4core3ptr67drop_in_place$LT$alloc..boxed..Box$LT$syn..expr..FieldValue$GT$$GT$17h6b30f10c221cfdb2E', symObjAddr: 0xD070, symBinAddr: 0x19590, symSize: 0x140 }
  - { offsetInCU: 0x33C99, offset: 0x6C901, size: 0x8, addend: 0x0, symName: '__ZN4core3ptr68drop_in_place$LT$alloc..boxed..Box$LT$syn..path..PathSegment$GT$$GT$17hcc4af483daf42554E', symObjAddr: 0xD1B0, symBinAddr: 0x196D0, symSize: 0xF0 }
  - { offsetInCU: 0x3409B, offset: 0x6CD03, size: 0x8, addend: 0x0, symName: '__ZN4core3ptr69drop_in_place$LT$core..option..Option$LT$syn..stmt..LocalInit$GT$$GT$17hed98f987655f1d00E', symObjAddr: 0xD2A0, symBinAddr: 0x197C0, symSize: 0xC0 }
  - { offsetInCU: 0x343BF, offset: 0x6D027, size: 0x8, addend: 0x0, symName: '__ZN4core3ptr70drop_in_place$LT$$LP$syn..expr..FieldValue$C$syn..token..Comma$RP$$GT$17hcdbf045b0641d2acE.llvm.12338395431768996945', symObjAddr: 0xD360, symBinAddr: 0x19880, symSize: 0x110 }
  - { offsetInCU: 0x347FE, offset: 0x6D466, size: 0x8, addend: 0x0, symName: '__ZN4core3ptr70drop_in_place$LT$core..option..Option$LT$syn..ty..BareVariadic$GT$$GT$17h086dd0da10d1997dE', symObjAddr: 0xD470, symBinAddr: 0x19990, symSize: 0x100 }
  - { offsetInCU: 0x34C5D, offset: 0x6D8C5, size: 0x8, addend: 0x0, symName: '__ZN4core3ptr72drop_in_place$LT$alloc..boxed..Box$LT$syn..path..GenericArgument$GT$$GT$17h4574b81d16b6551fE.llvm.12338395431768996945', symObjAddr: 0xD570, symBinAddr: 0x19A90, symSize: 0x180 }
  - { offsetInCU: 0x350E9, offset: 0x6DD51, size: 0x8, addend: 0x0, symName: '__ZN4core3ptr73drop_in_place$LT$$LP$syn..path..PathSegment$C$syn..token..PathSep$RP$$GT$17hef3fc572ff15ada1E.llvm.12338395431768996945', symObjAddr: 0xD6F0, symBinAddr: 0x19C10, symSize: 0xD0 }
  - { offsetInCU: 0x353AC, offset: 0x6E014, size: 0x8, addend: 0x0, symName: '__ZN4core3ptr73drop_in_place$LT$alloc..boxed..Box$LT$syn..generics..GenericParam$GT$$GT$17hef52862666ef632bE', symObjAddr: 0xD7C0, symBinAddr: 0x19CE0, symSize: 0x80 }
  - { offsetInCU: 0x35522, offset: 0x6E18A, size: 0x8, addend: 0x0, symName: '__ZN4core3ptr75drop_in_place$LT$$LP$syn..path..GenericArgument$C$syn..token..Comma$RP$$GT$17hebb991ba95d0de90E.llvm.12338395431768996945', symObjAddr: 0xD840, symBinAddr: 0x19D60, symSize: 0x180 }
  - { offsetInCU: 0x35876, offset: 0x6E4DE, size: 0x8, addend: 0x0, symName: '__ZN4core3ptr75drop_in_place$LT$alloc..boxed..Box$LT$syn..generics..TypeParamBound$GT$$GT$17h3bc4a83ac7001746E', symObjAddr: 0xD9C0, symBinAddr: 0x19EE0, symSize: 0x180 }
  - { offsetInCU: 0x35E23, offset: 0x6EA8B, size: 0x8, addend: 0x0, symName: '__ZN4core3ptr75drop_in_place$LT$alloc..boxed..Box$LT$syn..generics..WherePredicate$GT$$GT$17h487f4421ce02b1e2E', symObjAddr: 0xDB40, symBinAddr: 0x1A060, symSize: 0x80 }
  - { offsetInCU: 0x360BA, offset: 0x6ED22, size: 0x8, addend: 0x0, symName: '__ZN4core3ptr76drop_in_place$LT$$LP$syn..generics..GenericParam$C$syn..token..Comma$RP$$GT$17he3c193b7101bba19E.llvm.12338395431768996945', symObjAddr: 0xDBC0, symBinAddr: 0x1A0E0, symSize: 0x40 }
  - { offsetInCU: 0x360F6, offset: 0x6ED5E, size: 0x8, addend: 0x0, symName: '__ZN4core3ptr77drop_in_place$LT$$LP$syn..generics..TypeParamBound$C$syn..token..Plus$RP$$GT$17hfbc18ddc3b4403f6E.llvm.12338395431768996945', symObjAddr: 0xDC00, symBinAddr: 0x1A120, symSize: 0x180 }
  - { offsetInCU: 0x36575, offset: 0x6F1DD, size: 0x8, addend: 0x0, symName: '__ZN4core3ptr78drop_in_place$LT$$LP$syn..generics..WherePredicate$C$syn..token..Comma$RP$$GT$17hf41eac0fb74b0582E.llvm.12338395431768996945', symObjAddr: 0xDD80, symBinAddr: 0x1A2A0, symSize: 0x60 }
  - { offsetInCU: 0x366D2, offset: 0x6F33A, size: 0x8, addend: 0x0, symName: '__ZN4core3ptr86drop_in_place$LT$$LP$syn..token..If$C$alloc..boxed..Box$LT$syn..expr..Expr$GT$$RP$$GT$17h66c726aa4600e868E', symObjAddr: 0xDDE0, symBinAddr: 0x1A300, symSize: 0x50 }
  - { offsetInCU: 0x368E5, offset: 0x6F54D, size: 0x8, addend: 0x0, symName: '__ZN4core3ptr86drop_in_place$LT$syn..punctuated..Punctuated$LT$syn..pat..Pat$C$syn..token..Or$GT$$GT$17h6e5a3d57d68a4f42E', symObjAddr: 0xDE30, symBinAddr: 0x1A350, symSize: 0x120 }
  - { offsetInCU: 0x36D7E, offset: 0x6F9E6, size: 0x8, addend: 0x0, symName: '__ZN4core3ptr87drop_in_place$LT$$LP$alloc..boxed..Box$LT$syn..pat..Pat$GT$$C$syn..token..Colon$RP$$GT$17h4cee2c886ca4bdffE', symObjAddr: 0xDF50, symBinAddr: 0x1A470, symSize: 0x50 }
  - { offsetInCU: 0x36EF6, offset: 0x6FB5E, size: 0x8, addend: 0x0, symName: '__ZN4core3ptr87drop_in_place$LT$core..option..Option$LT$alloc..boxed..Box$LT$syn..ty..Type$GT$$GT$$GT$17hd50f5fde669883c6E', symObjAddr: 0xDFA0, symBinAddr: 0x1A4C0, symSize: 0x50 }
  - { offsetInCU: 0x37066, offset: 0x6FCCE, size: 0x8, addend: 0x0, symName: '__ZN4core3ptr89drop_in_place$LT$core..option..Option$LT$alloc..boxed..Box$LT$syn..expr..Expr$GT$$GT$$GT$17h3a2e7b4c2e1e147bE', symObjAddr: 0xDFF0, symBinAddr: 0x1A510, symSize: 0x50 }
  - { offsetInCU: 0x371D6, offset: 0x6FE3E, size: 0x8, addend: 0x0, symName: '__ZN4core3ptr89drop_in_place$LT$syn..punctuated..Punctuated$LT$syn..ty..Type$C$syn..token..Comma$GT$$GT$17h64b50b1d5d2d93ffE.llvm.12338395431768996945', symObjAddr: 0xE040, symBinAddr: 0x1A560, symSize: 0x120 }
  - { offsetInCU: 0x37658, offset: 0x702C0, size: 0x8, addend: 0x0, symName: '__ZN4core3ptr90drop_in_place$LT$core..option..Option$LT$alloc..boxed..Box$LT$syn..data..Field$GT$$GT$$GT$17h5a1c9c52d7ba32e6E', symObjAddr: 0xE160, symBinAddr: 0x1A680, symSize: 0x50 }
  - { offsetInCU: 0x377C8, offset: 0x70430, size: 0x8, addend: 0x0, symName: '__ZN4core3ptr90drop_in_place$LT$core..option..Option$LT$alloc..boxed..Box$LT$syn..item..FnArg$GT$$GT$$GT$17h6211a7dbcd5aab74E', symObjAddr: 0xE1B0, symBinAddr: 0x1A6D0, symSize: 0x50 }
  - { offsetInCU: 0x37938, offset: 0x705A0, size: 0x8, addend: 0x0, symName: '__ZN4core3ptr90drop_in_place$LT$core..option..Option$LT$syn..path..AngleBracketedGenericArguments$GT$$GT$17hcbdded873e6623ceE', symObjAddr: 0xE200, symBinAddr: 0x1A720, symSize: 0x130 }
  - { offsetInCU: 0x37E53, offset: 0x70ABB, size: 0x8, addend: 0x0, symName: '__ZN4core3ptr91drop_in_place$LT$syn..punctuated..Punctuated$LT$syn..expr..Expr$C$syn..token..Comma$GT$$GT$17h563634c74cd05d53E', symObjAddr: 0xE330, symBinAddr: 0x1A850, symSize: 0x120 }
  - { offsetInCU: 0x382E8, offset: 0x70F50, size: 0x8, addend: 0x0, symName: '__ZN4core3ptr92drop_in_place$LT$core..option..Option$LT$$LP$syn..token..As$C$proc_macro2..Ident$RP$$GT$$GT$17he0815dba069bc2cdE', symObjAddr: 0xE450, symBinAddr: 0x1A970, symSize: 0x30 }
  - { offsetInCU: 0x38403, offset: 0x7106B, size: 0x8, addend: 0x0, symName: '__ZN4core3ptr92drop_in_place$LT$syn..punctuated..Punctuated$LT$syn..data..Field$C$syn..token..Comma$GT$$GT$17h3f21e668669f2f9aE', symObjAddr: 0xE480, symBinAddr: 0x1A9A0, symSize: 0x120 }
  - { offsetInCU: 0x38889, offset: 0x714F1, size: 0x8, addend: 0x0, symName: '__ZN4core3ptr92drop_in_place$LT$syn..punctuated..Punctuated$LT$syn..item..FnArg$C$syn..token..Comma$GT$$GT$17he61d8a11c0ec2e48E', symObjAddr: 0xE5A0, symBinAddr: 0x1AAC0, symSize: 0x150 }
  - { offsetInCU: 0x38DD4, offset: 0x71A3C, size: 0x8, addend: 0x0, symName: '__ZN4core3ptr94drop_in_place$LT$syn..punctuated..Punctuated$LT$syn..data..Variant$C$syn..token..Comma$GT$$GT$17heb24a3f55e270d26E', symObjAddr: 0xE6F0, symBinAddr: 0x1AC10, symSize: 0x120 }
  - { offsetInCU: 0x392E5, offset: 0x71F4D, size: 0x8, addend: 0x0, symName: '__ZN4core3ptr94drop_in_place$LT$syn..punctuated..Punctuated$LT$syn..pat..FieldPat$C$syn..token..Comma$GT$$GT$17h7b4e4a7ea240f530E', symObjAddr: 0xE810, symBinAddr: 0x1AD30, symSize: 0xF0 }
  - { offsetInCU: 0x3967A, offset: 0x722E2, size: 0x8, addend: 0x0, symName: '__ZN4core3ptr94drop_in_place$LT$syn..punctuated..Punctuated$LT$syn..ty..BareFnArg$C$syn..token..Comma$GT$$GT$17h68c2fcf6a8a1f668E', symObjAddr: 0xE900, symBinAddr: 0x1AE20, symSize: 0xF0 }
  - { offsetInCU: 0x39995, offset: 0x725FD, size: 0x8, addend: 0x0, symName: '__ZN4core3ptr95drop_in_place$LT$core..option..Option$LT$$LP$proc_macro2..Ident$C$syn..token..Colon$RP$$GT$$GT$17h2ab6eea1def72095E.llvm.12338395431768996945', symObjAddr: 0xE9F0, symBinAddr: 0x1AF10, symSize: 0x30 }
  - { offsetInCU: 0x39AB0, offset: 0x72718, size: 0x8, addend: 0x0, symName: '__ZN4core3ptr96drop_in_place$LT$core..option..Option$LT$alloc..boxed..Box$LT$syn..path..PathSegment$GT$$GT$$GT$17h6c41ebc14073cbbfE.llvm.12338395431768996945', symObjAddr: 0xEA20, symBinAddr: 0x1AF40, symSize: 0xA0 }
  - { offsetInCU: 0x39DCA, offset: 0x72A32, size: 0x8, addend: 0x0, symName: '__ZN4core3ptr97drop_in_place$LT$syn..punctuated..Punctuated$LT$syn..expr..FieldValue$C$syn..token..Comma$GT$$GT$17hcc5ef78a22176d9dE', symObjAddr: 0xEB10, symBinAddr: 0x1AFE0, symSize: 0xF0 }
  - { offsetInCU: 0x3A0E1, offset: 0x72D49, size: 0x8, addend: 0x0, symName: '__ZN4core3ptr98drop_in_place$LT$alloc..vec..Vec$LT$$LP$syn..path..GenericArgument$C$syn..token..Comma$RP$$GT$$GT$17h476460f9b73e3ba3E', symObjAddr: 0xEC00, symBinAddr: 0x1B0D0, symSize: 0xD0 }
  - { offsetInCU: 0x3A47B, offset: 0x730E3, size: 0x8, addend: 0x0, symName: '__ZN4core3ptr98drop_in_place$LT$syn..punctuated..Punctuated$LT$syn..lifetime..Lifetime$C$syn..token..Plus$GT$$GT$17h16305e47cc41acd9E.llvm.12338395431768996945', symObjAddr: 0xECD0, symBinAddr: 0x1B1A0, symSize: 0xD0 }
  - { offsetInCU: 0x3CD7F, offset: 0x759E7, size: 0x8, addend: 0x0, symName: '__ZN48_$LT$T$u20$as$u20$core..clone..CloneToUninit$GT$15clone_to_uninit17h70df6b01b1830030E', symObjAddr: 0x0, symBinAddr: 0xC520, symSize: 0x330 }
  - { offsetInCU: 0x3E6BE, offset: 0x77326, size: 0x8, addend: 0x0, symName: '__ZN67_$LT$alloc..vec..Vec$LT$T$C$A$GT$$u20$as$u20$core..clone..Clone$GT$5clone17h2e3a94813a2a2acaE', symObjAddr: 0xEDA0, symBinAddr: 0x1B270, symSize: 0x240 }
  - { offsetInCU: 0x3FAC1, offset: 0x78729, size: 0x8, addend: 0x0, symName: '__ZN70_$LT$alloc..vec..Vec$LT$T$C$A$GT$$u20$as$u20$core..ops..drop..Drop$GT$4drop17h69a34915ab615768E', symObjAddr: 0xF4F0, symBinAddr: 0x1B4B0, symSize: 0xB0 }
  - { offsetInCU: 0x3FC3C, offset: 0x788A4, size: 0x8, addend: 0x0, symName: '__ZN70_$LT$alloc..vec..Vec$LT$T$C$A$GT$$u20$as$u20$core..ops..drop..Drop$GT$4drop17h99d5ba9dbff5093aE', symObjAddr: 0xF6A0, symBinAddr: 0x1B560, symSize: 0x100 }
  - { offsetInCU: 0x3FCD2, offset: 0x7893A, size: 0x8, addend: 0x0, symName: '__ZN70_$LT$alloc..vec..Vec$LT$T$C$A$GT$$u20$as$u20$core..ops..drop..Drop$GT$4drop17h9b831eaf6614e432E', symObjAddr: 0xF7A0, symBinAddr: 0x1B660, symSize: 0xB0 }
  - { offsetInCU: 0x1E, offset: 0x8398D, size: 0x8, addend: 0x0, symName: '__ZN40_$LT$F$u20$as$u20$syn..parse..Parser$GT$14__parse_scoped17h013b092297644c39E', symObjAddr: 0x0, symBinAddr: 0x1B710, symSize: 0xE50 }
  - { offsetInCU: 0x1C9C, offset: 0x8560B, size: 0x8, addend: 0x0, symName: '__ZN4core3ptr100drop_in_place$LT$core..option..Option$LT$alloc..boxed..Box$LT$syn..path..GenericArgument$GT$$GT$$GT$17h902496fc3bcf60efE', symObjAddr: 0x2670, symBinAddr: 0x1DD80, symSize: 0x50 }
  - { offsetInCU: 0x1E69, offset: 0x857D8, size: 0x8, addend: 0x0, symName: '__ZN4core3ptr102drop_in_place$LT$syn..punctuated..Punctuated$LT$syn..path..GenericArgument$C$syn..token..Comma$GT$$GT$17hd67cddccf5496b2aE', symObjAddr: 0x26C0, symBinAddr: 0x1DDD0, symSize: 0xF0 }
  - { offsetInCU: 0x2189, offset: 0x85AF8, size: 0x8, addend: 0x0, symName: '__ZN4core3ptr103drop_in_place$LT$core..option..Option$LT$alloc..boxed..Box$LT$syn..generics..TypeParamBound$GT$$GT$$GT$17h6b41aad38627fbd5E', symObjAddr: 0x27B0, symBinAddr: 0x1DEC0, symSize: 0x50 }
  - { offsetInCU: 0x2394, offset: 0x85D03, size: 0x8, addend: 0x0, symName: '__ZN4core3ptr103drop_in_place$LT$syn..punctuated..Punctuated$LT$syn..generics..GenericParam$C$syn..token..Comma$GT$$GT$17hae5366231be58816E', symObjAddr: 0x2800, symBinAddr: 0x1DF10, symSize: 0xF0 }
  - { offsetInCU: 0x28EC, offset: 0x8625B, size: 0x8, addend: 0x0, symName: '__ZN4core3ptr104drop_in_place$LT$syn..punctuated..Punctuated$LT$syn..generics..TypeParamBound$C$syn..token..Plus$GT$$GT$17hd7472dab50e62f55E', symObjAddr: 0x28F0, symBinAddr: 0x1E000, symSize: 0x240 }
  - { offsetInCU: 0x3223, offset: 0x86B92, size: 0x8, addend: 0x0, symName: '__ZN4core3ptr34drop_in_place$LT$syn..lit..Lit$GT$17hb1ccf3569411b06aE', symObjAddr: 0x2B30, symBinAddr: 0x1E240, symSize: 0x120 }
  - { offsetInCU: 0x3711, offset: 0x87080, size: 0x8, addend: 0x0, symName: '__ZN4core3ptr34drop_in_place$LT$syn..pat..Pat$GT$17h7359e8df337abba9E', symObjAddr: 0x2C50, symBinAddr: 0x1E360, symSize: 0xA90 }
  - { offsetInCU: 0x698A, offset: 0x8A2F9, size: 0x8, addend: 0x0, symName: '__ZN4core3ptr34drop_in_place$LT$syn..ty..Type$GT$17h47ceaa73a19fc5d6E', symObjAddr: 0x36E0, symBinAddr: 0x1EDF0, symSize: 0x580 }
  - { offsetInCU: 0x8213, offset: 0x8BB82, size: 0x8, addend: 0x0, symName: '__ZN4core3ptr36drop_in_place$LT$syn..expr..Expr$GT$17he1ae49cdf5ed6135E', symObjAddr: 0x3C60, symBinAddr: 0x1F370, symSize: 0x1BA0 }
  - { offsetInCU: 0x10460, offset: 0x93DCF, size: 0x8, addend: 0x0, symName: '__ZN4core3ptr36drop_in_place$LT$syn..mac..Macro$GT$17h2f7c278ba3ae8f94E', symObjAddr: 0x5800, symBinAddr: 0x20F10, symSize: 0xE0 }
  - { offsetInCU: 0x107EA, offset: 0x94159, size: 0x8, addend: 0x0, symName: '__ZN4core3ptr36drop_in_place$LT$syn..path..Path$GT$17ha1c4977077779d63E', symObjAddr: 0x58E0, symBinAddr: 0x20FF0, symSize: 0x240 }
  - { offsetInCU: 0x11184, offset: 0x94AF3, size: 0x8, addend: 0x0, symName: '__ZN4core3ptr37drop_in_place$LT$syn..stmt..Block$GT$17h02427aaa95397c91E', symObjAddr: 0x5B20, symBinAddr: 0x21230, symSize: 0xD0 }
  - { offsetInCU: 0x1145B, offset: 0x94DCA, size: 0x8, addend: 0x0, symName: '__ZN4core3ptr38drop_in_place$LT$syn..expr..Member$GT$17h107a8d7caaee36f8E', symObjAddr: 0x5BF0, symBinAddr: 0x21300, symSize: 0x30 }
  - { offsetInCU: 0x11557, offset: 0x94EC6, size: 0x8, addend: 0x0, symName: '__ZN4core3ptr39drop_in_place$LT$proc_macro2..Ident$GT$17h33e9ef7d7cb9a26bE', symObjAddr: 0x5C20, symBinAddr: 0x21330, symSize: 0x30 }
  - { offsetInCU: 0x1176A, offset: 0x950D9, size: 0x8, addend: 0x0, symName: '__ZN4core3ptr39drop_in_place$LT$syn..buffer..Entry$GT$17h361cd84811d66e7eE', symObjAddr: 0x5C50, symBinAddr: 0x21360, symSize: 0xB0 }
  - { offsetInCU: 0x11AF5, offset: 0x95464, size: 0x8, addend: 0x0, symName: '__ZN4core3ptr40drop_in_place$LT$syn..ty..ReturnType$GT$17h60dcaacf955109c8E', symObjAddr: 0x5D00, symBinAddr: 0x21410, symSize: 0x50 }
  - { offsetInCU: 0x11C65, offset: 0x955D4, size: 0x8, addend: 0x0, symName: '__ZN4core3ptr41drop_in_place$LT$syn..expr..ExprConst$GT$17he2d746c7666e6b25E', symObjAddr: 0x5D50, symBinAddr: 0x21460, symSize: 0x120 }
  - { offsetInCU: 0x12191, offset: 0x95B00, size: 0x8, addend: 0x0, symName: '__ZN4core3ptr44drop_in_place$LT$syn..lifetime..Lifetime$GT$17h2ce55e67d3006872E', symObjAddr: 0x5E70, symBinAddr: 0x21580, symSize: 0x30 }
  - { offsetInCU: 0x1228D, offset: 0x95BFC, size: 0x8, addend: 0x0, symName: '__ZN4core3ptr44drop_in_place$LT$syn..parse..ParseBuffer$GT$17h6fbd62c13fccd3f9E', symObjAddr: 0x5EA0, symBinAddr: 0x215B0, symSize: 0x70 }
  - { offsetInCU: 0x12609, offset: 0x95F78, size: 0x8, addend: 0x0, symName: '__ZN4core3ptr45drop_in_place$LT$proc_macro2..TokenStream$GT$17he3fed67fc3446852E', symObjAddr: 0x5F10, symBinAddr: 0x21620, symSize: 0x140 }
  - { offsetInCU: 0x12A65, offset: 0x963D4, size: 0x8, addend: 0x0, symName: '__ZN4core3ptr45drop_in_place$LT$syn..buffer..TokenBuffer$GT$17h087c798578459e23E', symObjAddr: 0x6050, symBinAddr: 0x21760, symSize: 0xC0 }
  - { offsetInCU: 0x12CCD, offset: 0x9663C, size: 0x8, addend: 0x0, symName: '__ZN4core3ptr45drop_in_place$LT$syn..generics..TypeParam$GT$17hca468ed302d5e883E', symObjAddr: 0x6110, symBinAddr: 0x21820, symSize: 0x1E0 }
  - { offsetInCU: 0x13463, offset: 0x96DD2, size: 0x8, addend: 0x0, symName: '__ZN4core3ptr46drop_in_place$LT$syn..generics..ConstParam$GT$17ha9ac9d2cac900636E', symObjAddr: 0x62F0, symBinAddr: 0x21A00, symSize: 0x100 }
  - { offsetInCU: 0x13824, offset: 0x97193, size: 0x8, addend: 0x0, symName: '__ZN4core3ptr47drop_in_place$LT$syn..path..GenericArgument$GT$17h7f35b3c2de13390bE', symObjAddr: 0x63F0, symBinAddr: 0x21B00, symSize: 0x450 }
  - { offsetInCU: 0x1459A, offset: 0x97F09, size: 0x8, addend: 0x0, symName: '__ZN4core3ptr49drop_in_place$LT$syn..generics..LifetimeParam$GT$17h0833c6043bd53bc9E', symObjAddr: 0x6840, symBinAddr: 0x21F50, symSize: 0x90 }
  - { offsetInCU: 0x148F0, offset: 0x9825F, size: 0x8, addend: 0x0, symName: '__ZN4core3ptr50drop_in_place$LT$syn..generics..TypeParamBound$GT$17h14769d483d51829aE', symObjAddr: 0x68D0, symBinAddr: 0x21FE0, symSize: 0xA0 }
  - { offsetInCU: 0x14A56, offset: 0x983C5, size: 0x8, addend: 0x0, symName: '__ZN4core3ptr58drop_in_place$LT$alloc..vec..Vec$LT$syn..expr..Arm$GT$$GT$17h9b48120322e1ea95E', symObjAddr: 0x6970, symBinAddr: 0x22080, symSize: 0xD0 }
  - { offsetInCU: 0x14D16, offset: 0x98685, size: 0x8, addend: 0x0, symName: '__ZN4core3ptr59drop_in_place$LT$alloc..boxed..Box$LT$syn..pat..Pat$GT$$GT$17h913d3979e02b0380E', symObjAddr: 0x6A40, symBinAddr: 0x22150, symSize: 0x50 }
  - { offsetInCU: 0x14E6F, offset: 0x987DE, size: 0x8, addend: 0x0, symName: '__ZN4core3ptr59drop_in_place$LT$alloc..boxed..Box$LT$syn..ty..Type$GT$$GT$17hff7f57a7bf846fc3E', symObjAddr: 0x6A90, symBinAddr: 0x221A0, symSize: 0x50 }
  - { offsetInCU: 0x14FC8, offset: 0x98937, size: 0x8, addend: 0x0, symName: '__ZN4core3ptr61drop_in_place$LT$alloc..boxed..Box$LT$syn..expr..Expr$GT$$GT$17h29440043cdc5b7bfE', symObjAddr: 0x6AE0, symBinAddr: 0x221F0, symSize: 0x50 }
  - { offsetInCU: 0x15121, offset: 0x98A90, size: 0x8, addend: 0x0, symName: '__ZN4core3ptr61drop_in_place$LT$syn..path..ParenthesizedGenericArguments$GT$17h33c2e534d9ec2d1dE', symObjAddr: 0x6B30, symBinAddr: 0x22240, symSize: 0x170 }
  - { offsetInCU: 0x1572A, offset: 0x99099, size: 0x8, addend: 0x0, symName: '__ZN4core3ptr63drop_in_place$LT$alloc..boxed..Box$LT$syn..lit..LitRepr$GT$$GT$17hf7828cb6a3955ff9E', symObjAddr: 0x6CA0, symBinAddr: 0x223B0, symSize: 0x60 }
  - { offsetInCU: 0x15A31, offset: 0x993A0, size: 0x8, addend: 0x0, symName: '__ZN4core3ptr64drop_in_place$LT$alloc..boxed..Box$LT$syn..pat..FieldPat$GT$$GT$17h464c3ad6b191f456E', symObjAddr: 0x6D00, symBinAddr: 0x22410, symSize: 0x100 }
  - { offsetInCU: 0x16081, offset: 0x999F0, size: 0x8, addend: 0x0, symName: '__ZN4core3ptr64drop_in_place$LT$alloc..boxed..Box$LT$syn..ty..BareFnArg$GT$$GT$17h5694a1f19b0e259eE', symObjAddr: 0x6E00, symBinAddr: 0x22510, symSize: 0xF0 }
  - { offsetInCU: 0x1654A, offset: 0x99EB9, size: 0x8, addend: 0x0, symName: '__ZN4core3ptr65drop_in_place$LT$alloc..vec..Vec$LT$proc_macro..TokenTree$GT$$GT$17h221fedaf9965a430E', symObjAddr: 0x6EF0, symBinAddr: 0x22600, symSize: 0x110 }
  - { offsetInCU: 0x16942, offset: 0x9A2B1, size: 0x8, addend: 0x0, symName: '__ZN4core3ptr65drop_in_place$LT$core..option..Option$LT$syn..expr..Label$GT$$GT$17he0dc54c732444ae2E', symObjAddr: 0x7000, symBinAddr: 0x22710, symSize: 0x30 }
  - { offsetInCU: 0x16A7C, offset: 0x9A3EB, size: 0x8, addend: 0x0, symName: '__ZN4core3ptr66drop_in_place$LT$core..option..Option$LT$syn..pat..PatRest$GT$$GT$17ha5a01c0c262ef320E', symObjAddr: 0x7030, symBinAddr: 0x22740, symSize: 0x80 }
  - { offsetInCU: 0x16CF8, offset: 0x9A667, size: 0x8, addend: 0x0, symName: '__ZN4core3ptr67drop_in_place$LT$alloc..boxed..Box$LT$syn..expr..FieldValue$GT$$GT$17h6b30f10c221cfdb2E', symObjAddr: 0x70B0, symBinAddr: 0x227C0, symSize: 0xF0 }
  - { offsetInCU: 0x171C0, offset: 0x9AB2F, size: 0x8, addend: 0x0, symName: '__ZN4core3ptr70drop_in_place$LT$core..option..Option$LT$syn..ty..BareVariadic$GT$$GT$17h086dd0da10d1997dE', symObjAddr: 0x71A0, symBinAddr: 0x228B0, symSize: 0xA0 }
  - { offsetInCU: 0x17568, offset: 0x9AED7, size: 0x8, addend: 0x0, symName: '__ZN4core3ptr72drop_in_place$LT$alloc..boxed..Box$LT$syn..path..GenericArgument$GT$$GT$17h4574b81d16b6551fE', symObjAddr: 0x7240, symBinAddr: 0x22950, symSize: 0x2B0 }
  - { offsetInCU: 0x17F79, offset: 0x9B8E8, size: 0x8, addend: 0x0, symName: '__ZN4core3ptr72drop_in_place$LT$core..option..Option$LT$syn..lifetime..Lifetime$GT$$GT$17h82838cf67b070eb1E', symObjAddr: 0x74F0, symBinAddr: 0x22C00, symSize: 0x30 }
  - { offsetInCU: 0x18094, offset: 0x9BA03, size: 0x8, addend: 0x0, symName: '__ZN4core3ptr73drop_in_place$LT$alloc..boxed..Box$LT$syn..generics..GenericParam$GT$$GT$17hef52862666ef632bE', symObjAddr: 0x7520, symBinAddr: 0x22C30, symSize: 0x80 }
  - { offsetInCU: 0x1820A, offset: 0x9BB79, size: 0x8, addend: 0x0, symName: '__ZN4core3ptr75drop_in_place$LT$alloc..boxed..Box$LT$syn..generics..TypeParamBound$GT$$GT$17h3bc4a83ac7001746E', symObjAddr: 0x75A0, symBinAddr: 0x22CB0, symSize: 0x180 }
  - { offsetInCU: 0x187F6, offset: 0x9C165, size: 0x8, addend: 0x0, symName: '__ZN4core3ptr86drop_in_place$LT$syn..punctuated..Punctuated$LT$syn..pat..Pat$C$syn..token..Or$GT$$GT$17h6e5a3d57d68a4f42E', symObjAddr: 0x7720, symBinAddr: 0x22E30, symSize: 0x120 }
  - { offsetInCU: 0x18C71, offset: 0x9C5E0, size: 0x8, addend: 0x0, symName: '__ZN4core3ptr87drop_in_place$LT$core..option..Option$LT$alloc..boxed..Box$LT$syn..pat..Pat$GT$$GT$$GT$17h971d1a8979b5c3acE', symObjAddr: 0x7840, symBinAddr: 0x22F50, symSize: 0x50 }
  - { offsetInCU: 0x18DE1, offset: 0x9C750, size: 0x8, addend: 0x0, symName: '__ZN4core3ptr87drop_in_place$LT$core..option..Option$LT$alloc..boxed..Box$LT$syn..ty..Type$GT$$GT$$GT$17hd50f5fde669883c6E', symObjAddr: 0x7890, symBinAddr: 0x22FA0, symSize: 0x50 }
  - { offsetInCU: 0x18F51, offset: 0x9C8C0, size: 0x8, addend: 0x0, symName: '__ZN4core3ptr89drop_in_place$LT$core..option..Option$LT$alloc..boxed..Box$LT$syn..expr..Expr$GT$$GT$$GT$17h3a2e7b4c2e1e147bE', symObjAddr: 0x78E0, symBinAddr: 0x22FF0, symSize: 0x50 }
  - { offsetInCU: 0x190FF, offset: 0x9CA6E, size: 0x8, addend: 0x0, symName: '__ZN4core3ptr89drop_in_place$LT$syn..punctuated..Punctuated$LT$syn..pat..Pat$C$syn..token..Comma$GT$$GT$17h8c96c487d05be04aE', symObjAddr: 0x7930, symBinAddr: 0x23040, symSize: 0x120 }
  - { offsetInCU: 0x195CF, offset: 0x9CF3E, size: 0x8, addend: 0x0, symName: '__ZN4core3ptr91drop_in_place$LT$syn..punctuated..Punctuated$LT$syn..expr..Expr$C$syn..token..Comma$GT$$GT$17h563634c74cd05d53E', symObjAddr: 0x7A50, symBinAddr: 0x23160, symSize: 0x120 }
  - { offsetInCU: 0x19A5D, offset: 0x9D3CC, size: 0x8, addend: 0x0, symName: '__ZN4core3ptr94drop_in_place$LT$syn..punctuated..Punctuated$LT$syn..pat..FieldPat$C$syn..token..Comma$GT$$GT$17h7b4e4a7ea240f530E', symObjAddr: 0x7B70, symBinAddr: 0x23280, symSize: 0xF0 }
  - { offsetInCU: 0x19D5C, offset: 0x9D6CB, size: 0x8, addend: 0x0, symName: '__ZN4core3ptr94drop_in_place$LT$syn..punctuated..Punctuated$LT$syn..ty..BareFnArg$C$syn..token..Comma$GT$$GT$17h68c2fcf6a8a1f668E', symObjAddr: 0x7C60, symBinAddr: 0x23370, symSize: 0xF0 }
  - { offsetInCU: 0x1A05D, offset: 0x9D9CC, size: 0x8, addend: 0x0, symName: '__ZN4core3ptr96drop_in_place$LT$core..option..Option$LT$alloc..boxed..Box$LT$syn..path..PathSegment$GT$$GT$$GT$17h6c41ebc14073cbbfE', symObjAddr: 0x7D50, symBinAddr: 0x23460, symSize: 0x1A0 }
  - { offsetInCU: 0x1A71E, offset: 0x9E08D, size: 0x8, addend: 0x0, symName: '__ZN4core3ptr97drop_in_place$LT$syn..punctuated..Punctuated$LT$syn..expr..FieldValue$C$syn..token..Comma$GT$$GT$17hcc5ef78a22176d9dE', symObjAddr: 0x7EF0, symBinAddr: 0x23600, symSize: 0xF0 }
  - { offsetInCU: 0x1AA97, offset: 0x9E406, size: 0x8, addend: 0x0, symName: '__ZN4core3ptr98drop_in_place$LT$syn..punctuated..Punctuated$LT$syn..lifetime..Lifetime$C$syn..token..Plus$GT$$GT$17h16305e47cc41acd9E', symObjAddr: 0x7FE0, symBinAddr: 0x236F0, symSize: 0xC6 }
  - { offsetInCU: 0x1E498, offset: 0xA1E07, size: 0x8, addend: 0x0, symName: '__ZN40_$LT$F$u20$as$u20$syn..parse..Parser$GT$14__parse_scoped17h013b092297644c39E', symObjAddr: 0x0, symBinAddr: 0x1B710, symSize: 0xE50 }
  - { offsetInCU: 0x1FE5F, offset: 0xA37CE, size: 0x8, addend: 0x0, symName: '__ZN40_$LT$F$u20$as$u20$syn..parse..Parser$GT$14__parse_scoped17h161be9c02f7d029fE', symObjAddr: 0xE50, symBinAddr: 0x1C560, symSize: 0x6B0 }
  - { offsetInCU: 0x211B3, offset: 0xA4B22, size: 0x8, addend: 0x0, symName: '__ZN40_$LT$F$u20$as$u20$syn..parse..Parser$GT$14__parse_scoped17h23656e41cfed078bE', symObjAddr: 0x1500, symBinAddr: 0x1CC10, symSize: 0x980 }
  - { offsetInCU: 0x23490, offset: 0xA6DFF, size: 0x8, addend: 0x0, symName: '__ZN40_$LT$F$u20$as$u20$syn..parse..Parser$GT$6parse217hf8168a9270fa72a4E', symObjAddr: 0x1E80, symBinAddr: 0x1D590, symSize: 0x7F0 }
  - { offsetInCU: 0x1E, offset: 0xB35B1, size: 0x8, addend: 0x0, symName: __ZN5alloc7raw_vec11finish_grow17h41a6e45268ee4bcdE.llvm.15178108467436091622, symObjAddr: 0x0, symBinAddr: 0x237C0, symSize: 0xA0 }
  - { offsetInCU: 0x198C, offset: 0xB4F1F, size: 0x8, addend: 0x0, symName: __ZN5alloc7raw_vec11finish_grow17h41a6e45268ee4bcdE.llvm.15178108467436091622, symObjAddr: 0x0, symBinAddr: 0x237C0, symSize: 0xA0 }
  - { offsetInCU: 0x1E89, offset: 0xB541C, size: 0x8, addend: 0x0, symName: '__ZN5alloc7raw_vec19RawVec$LT$T$C$A$GT$7reserve21do_reserve_and_handle17h54a555130a5c0f12E', symObjAddr: 0x2C0, symBinAddr: 0x1F2460, symSize: 0xA0 }
  - { offsetInCU: 0x2892, offset: 0xB5E25, size: 0x8, addend: 0x0, symName: '__ZN5alloc7raw_vec19RawVec$LT$T$C$A$GT$8grow_one17h4e883557f8d7e046E', symObjAddr: 0x360, symBinAddr: 0x23860, symSize: 0xA0 }
  - { offsetInCU: 0x2D26, offset: 0xB62B9, size: 0x8, addend: 0x0, symName: '__ZN5alloc7raw_vec19RawVec$LT$T$C$A$GT$8grow_one17h7a1cba3192fd0e6fE', symObjAddr: 0x400, symBinAddr: 0x23900, symSize: 0xC0 }
  - { offsetInCU: 0x1E, offset: 0xB6630, size: 0x8, addend: 0x0, symName: '__ZN40_$LT$F$u20$as$u20$syn..parse..Parser$GT$14__parse_scoped17h92f986fb515f73ffE', symObjAddr: 0x0, symBinAddr: 0x239C0, symSize: 0x400 }
  - { offsetInCU: 0x1B2D, offset: 0xB813F, size: 0x8, addend: 0x0, symName: '__ZN4core3ptr100drop_in_place$LT$core..option..Option$LT$alloc..boxed..Box$LT$syn..path..GenericArgument$GT$$GT$$GT$17h902496fc3bcf60efE', symObjAddr: 0x780, symBinAddr: 0x24140, symSize: 0x50 }
  - { offsetInCU: 0x1ECB, offset: 0xB84DD, size: 0x8, addend: 0x0, symName: '__ZN4core3ptr100drop_in_place$LT$syn..punctuated..Punctuated$LT$syn..path..PathSegment$C$syn..token..PathSep$GT$$GT$17h9d25f07ee335103eE', symObjAddr: 0x7D0, symBinAddr: 0x24190, symSize: 0x270 }
  - { offsetInCU: 0x286E, offset: 0xB8E80, size: 0x8, addend: 0x0, symName: '__ZN4core3ptr103drop_in_place$LT$core..option..Option$LT$alloc..boxed..Box$LT$syn..generics..TypeParamBound$GT$$GT$$GT$17h6b41aad38627fbd5E', symObjAddr: 0xA40, symBinAddr: 0x24400, symSize: 0x50 }
  - { offsetInCU: 0x2AB7, offset: 0xB90C9, size: 0x8, addend: 0x0, symName: '__ZN4core3ptr103drop_in_place$LT$core..option..Option$LT$alloc..boxed..Box$LT$syn..generics..WherePredicate$GT$$GT$$GT$17hdab477d215ff20acE', symObjAddr: 0xA90, symBinAddr: 0x24450, symSize: 0xD0 }
  - { offsetInCU: 0x2E4B, offset: 0xB945D, size: 0x8, addend: 0x0, symName: '__ZN4core3ptr103drop_in_place$LT$syn..punctuated..Punctuated$LT$syn..generics..GenericParam$C$syn..token..Comma$GT$$GT$17hae5366231be58816E', symObjAddr: 0xB60, symBinAddr: 0x24520, symSize: 0xF0 }
  - { offsetInCU: 0x32E9, offset: 0xB98FB, size: 0x8, addend: 0x0, symName: '__ZN4core3ptr104drop_in_place$LT$syn..punctuated..Punctuated$LT$syn..generics..TypeParamBound$C$syn..token..Plus$GT$$GT$17hd7472dab50e62f55E', symObjAddr: 0xC50, symBinAddr: 0x24610, symSize: 0x190 }
  - { offsetInCU: 0x3988, offset: 0xB9F9A, size: 0x8, addend: 0x0, symName: '__ZN4core3ptr34drop_in_place$LT$syn..lit..Lit$GT$17hb1ccf3569411b06aE', symObjAddr: 0xDE0, symBinAddr: 0x247A0, symSize: 0x120 }
  - { offsetInCU: 0x3E76, offset: 0xBA488, size: 0x8, addend: 0x0, symName: '__ZN4core3ptr34drop_in_place$LT$syn..pat..Pat$GT$17h7359e8df337abba9E', symObjAddr: 0xF00, symBinAddr: 0x248C0, symSize: 0xBC0 }
  - { offsetInCU: 0x7629, offset: 0xBDC3B, size: 0x8, addend: 0x0, symName: '__ZN4core3ptr34drop_in_place$LT$syn..ty..Type$GT$17h47ceaa73a19fc5d6E', symObjAddr: 0x1AC0, symBinAddr: 0x25480, symSize: 0x4F0 }
  - { offsetInCU: 0x8B6C, offset: 0xBF17E, size: 0x8, addend: 0x0, symName: '__ZN4core3ptr36drop_in_place$LT$syn..expr..Expr$GT$17he1ae49cdf5ed6135E', symObjAddr: 0x1FB0, symBinAddr: 0x25970, symSize: 0x1C60 }
  - { offsetInCU: 0x1108D, offset: 0xC769F, size: 0x8, addend: 0x0, symName: '__ZN4core3ptr36drop_in_place$LT$syn..mac..Macro$GT$17h2f7c278ba3ae8f94E', symObjAddr: 0x3C10, symBinAddr: 0x275D0, symSize: 0x40 }
  - { offsetInCU: 0x110C7, offset: 0xC76D9, size: 0x8, addend: 0x0, symName: '__ZN4core3ptr36drop_in_place$LT$syn..path..Path$GT$17ha1c4977077779d63E', symObjAddr: 0x3C50, symBinAddr: 0x27610, symSize: 0x240 }
  - { offsetInCU: 0x11A61, offset: 0xC8073, size: 0x8, addend: 0x0, symName: '__ZN4core3ptr37drop_in_place$LT$syn..stmt..Block$GT$17h02427aaa95397c91E', symObjAddr: 0x3E90, symBinAddr: 0x27850, symSize: 0xD0 }
  - { offsetInCU: 0x11DD3, offset: 0xC83E5, size: 0x8, addend: 0x0, symName: '__ZN4core3ptr38drop_in_place$LT$syn..data..Fields$GT$17hbdae05890a636938E', symObjAddr: 0x3F60, symBinAddr: 0x27920, symSize: 0x190 }
  - { offsetInCU: 0x122D7, offset: 0xC88E9, size: 0x8, addend: 0x0, symName: '__ZN4core3ptr38drop_in_place$LT$syn..derive..Data$GT$17h56ad88af971ccf0fE', symObjAddr: 0x40F0, symBinAddr: 0x27AB0, symSize: 0x1D0 }
  - { offsetInCU: 0x1297D, offset: 0xC8F8F, size: 0x8, addend: 0x0, symName: '__ZN4core3ptr38drop_in_place$LT$syn..expr..Member$GT$17h107a8d7caaee36f8E', symObjAddr: 0x42C0, symBinAddr: 0x27C80, symSize: 0x30 }
  - { offsetInCU: 0x12A79, offset: 0xC908B, size: 0x8, addend: 0x0, symName: '__ZN4core3ptr39drop_in_place$LT$proc_macro2..Ident$GT$17h33e9ef7d7cb9a26bE', symObjAddr: 0x42F0, symBinAddr: 0x27CB0, symSize: 0x30 }
  - { offsetInCU: 0x12C8C, offset: 0xC929E, size: 0x8, addend: 0x0, symName: '__ZN4core3ptr39drop_in_place$LT$syn..buffer..Entry$GT$17h361cd84811d66e7eE', symObjAddr: 0x4320, symBinAddr: 0x27CE0, symSize: 0xB0 }
  - { offsetInCU: 0x13017, offset: 0xC9629, size: 0x8, addend: 0x0, symName: '__ZN4core3ptr40drop_in_place$LT$syn..ty..ReturnType$GT$17h60dcaacf955109c8E', symObjAddr: 0x43D0, symBinAddr: 0x27D90, symSize: 0x50 }
  - { offsetInCU: 0x13187, offset: 0xC9799, size: 0x8, addend: 0x0, symName: '__ZN4core3ptr41drop_in_place$LT$syn..expr..ExprConst$GT$17he2d746c7666e6b25E', symObjAddr: 0x4420, symBinAddr: 0x27DE0, symSize: 0x120 }
  - { offsetInCU: 0x136B3, offset: 0xC9CC5, size: 0x8, addend: 0x0, symName: '__ZN4core3ptr44drop_in_place$LT$syn..generics..Generics$GT$17hc013cc1b2e65796fE', symObjAddr: 0x4540, symBinAddr: 0x27F00, symSize: 0x40 }
  - { offsetInCU: 0x136D0, offset: 0xC9CE2, size: 0x8, addend: 0x0, symName: '__ZN4core3ptr44drop_in_place$LT$syn..lifetime..Lifetime$GT$17h2ce55e67d3006872E', symObjAddr: 0x4580, symBinAddr: 0x27F40, symSize: 0x30 }
  - { offsetInCU: 0x137CC, offset: 0xC9DDE, size: 0x8, addend: 0x0, symName: '__ZN4core3ptr44drop_in_place$LT$syn..parse..ParseBuffer$GT$17h6fbd62c13fccd3f9E', symObjAddr: 0x45B0, symBinAddr: 0x27F70, symSize: 0x70 }
  - { offsetInCU: 0x13B48, offset: 0xCA15A, size: 0x8, addend: 0x0, symName: '__ZN4core3ptr45drop_in_place$LT$proc_macro2..TokenStream$GT$17he3fed67fc3446852E', symObjAddr: 0x4620, symBinAddr: 0x27FE0, symSize: 0x140 }
  - { offsetInCU: 0x13FA4, offset: 0xCA5B6, size: 0x8, addend: 0x0, symName: '__ZN4core3ptr45drop_in_place$LT$syn..buffer..TokenBuffer$GT$17h087c798578459e23E', symObjAddr: 0x4760, symBinAddr: 0x28120, symSize: 0xC0 }
  - { offsetInCU: 0x1424A, offset: 0xCA85C, size: 0x8, addend: 0x0, symName: '__ZN4core3ptr45drop_in_place$LT$syn..derive..DeriveInput$GT$17ha0e9a10761ab54a8E', symObjAddr: 0x4820, symBinAddr: 0x281E0, symSize: 0x150 }
  - { offsetInCU: 0x14735, offset: 0xCAD47, size: 0x8, addend: 0x0, symName: '__ZN4core3ptr45drop_in_place$LT$syn..generics..TypeParam$GT$17hca468ed302d5e883E', symObjAddr: 0x4970, symBinAddr: 0x28330, symSize: 0x1E0 }
  - { offsetInCU: 0x14EEA, offset: 0xCB4FC, size: 0x8, addend: 0x0, symName: '__ZN4core3ptr46drop_in_place$LT$syn..generics..ConstParam$GT$17ha9ac9d2cac900636E', symObjAddr: 0x4B50, symBinAddr: 0x28510, symSize: 0x100 }
  - { offsetInCU: 0x152AB, offset: 0xCB8BD, size: 0x8, addend: 0x0, symName: '__ZN4core3ptr47drop_in_place$LT$syn..path..GenericArgument$GT$17h7f35b3c2de13390bE', symObjAddr: 0x4C50, symBinAddr: 0x28610, symSize: 0x4A0 }
  - { offsetInCU: 0x163B1, offset: 0xCC9C3, size: 0x8, addend: 0x0, symName: '__ZN4core3ptr49drop_in_place$LT$syn..generics..LifetimeParam$GT$17h0833c6043bd53bc9E', symObjAddr: 0x50F0, symBinAddr: 0x28AB0, symSize: 0x90 }
  - { offsetInCU: 0x16707, offset: 0xCCD19, size: 0x8, addend: 0x0, symName: '__ZN4core3ptr49drop_in_place$LT$syn..restriction..Visibility$GT$17h1c088815e0d6b137E', symObjAddr: 0x5180, symBinAddr: 0x28B40, symSize: 0x60 }
  - { offsetInCU: 0x16878, offset: 0xCCE8A, size: 0x8, addend: 0x0, symName: '__ZN4core3ptr50drop_in_place$LT$syn..generics..TypeParamBound$GT$17h14769d483d51829aE', symObjAddr: 0x51E0, symBinAddr: 0x28BA0, symSize: 0x180 }
  - { offsetInCU: 0x16CC2, offset: 0xCD2D4, size: 0x8, addend: 0x0, symName: '__ZN4core3ptr58drop_in_place$LT$alloc..vec..Vec$LT$syn..expr..Arm$GT$$GT$17h9b48120322e1ea95E', symObjAddr: 0x5360, symBinAddr: 0x28D20, symSize: 0xD0 }
  - { offsetInCU: 0x16F82, offset: 0xCD594, size: 0x8, addend: 0x0, symName: '__ZN4core3ptr59drop_in_place$LT$alloc..boxed..Box$LT$syn..pat..Pat$GT$$GT$17h913d3979e02b0380E', symObjAddr: 0x5430, symBinAddr: 0x28DF0, symSize: 0x50 }
  - { offsetInCU: 0x170DB, offset: 0xCD6ED, size: 0x8, addend: 0x0, symName: '__ZN4core3ptr59drop_in_place$LT$alloc..boxed..Box$LT$syn..ty..Type$GT$$GT$17hff7f57a7bf846fc3E', symObjAddr: 0x5480, symBinAddr: 0x28E40, symSize: 0x50 }
  - { offsetInCU: 0x17234, offset: 0xCD846, size: 0x8, addend: 0x0, symName: '__ZN4core3ptr61drop_in_place$LT$alloc..boxed..Box$LT$syn..expr..Expr$GT$$GT$17h29440043cdc5b7bfE', symObjAddr: 0x54D0, symBinAddr: 0x28E90, symSize: 0x50 }
  - { offsetInCU: 0x17409, offset: 0xCDA1B, size: 0x8, addend: 0x0, symName: '__ZN4core3ptr61drop_in_place$LT$syn..path..ParenthesizedGenericArguments$GT$17h33c2e534d9ec2d1dE', symObjAddr: 0x5520, symBinAddr: 0x28EE0, symSize: 0x170 }
  - { offsetInCU: 0x179FF, offset: 0xCE011, size: 0x8, addend: 0x0, symName: '__ZN4core3ptr62drop_in_place$LT$syn..path..AngleBracketedGenericArguments$GT$17h72f8b187cda232d5E', symObjAddr: 0x5690, symBinAddr: 0x29050, symSize: 0x120 }
  - { offsetInCU: 0x17E4A, offset: 0xCE45C, size: 0x8, addend: 0x0, symName: '__ZN4core3ptr63drop_in_place$LT$alloc..boxed..Box$LT$syn..lit..LitRepr$GT$$GT$17hf7828cb6a3955ff9E', symObjAddr: 0x57B0, symBinAddr: 0x29170, symSize: 0x60 }
  - { offsetInCU: 0x18151, offset: 0xCE763, size: 0x8, addend: 0x0, symName: '__ZN4core3ptr64drop_in_place$LT$alloc..boxed..Box$LT$syn..pat..FieldPat$GT$$GT$17h464c3ad6b191f456E', symObjAddr: 0x5810, symBinAddr: 0x291D0, symSize: 0x100 }
  - { offsetInCU: 0x187A1, offset: 0xCEDB3, size: 0x8, addend: 0x0, symName: '__ZN4core3ptr64drop_in_place$LT$alloc..boxed..Box$LT$syn..ty..BareFnArg$GT$$GT$17h5694a1f19b0e259eE', symObjAddr: 0x5910, symBinAddr: 0x292D0, symSize: 0xF0 }
  - { offsetInCU: 0x18C6A, offset: 0xCF27C, size: 0x8, addend: 0x0, symName: '__ZN4core3ptr65drop_in_place$LT$alloc..vec..Vec$LT$proc_macro..TokenTree$GT$$GT$17h221fedaf9965a430E', symObjAddr: 0x5A00, symBinAddr: 0x293C0, symSize: 0x110 }
  - { offsetInCU: 0x19062, offset: 0xCF674, size: 0x8, addend: 0x0, symName: '__ZN4core3ptr65drop_in_place$LT$core..option..Option$LT$syn..expr..Label$GT$$GT$17he0dc54c732444ae2E', symObjAddr: 0x5B10, symBinAddr: 0x294D0, symSize: 0x30 }
  - { offsetInCU: 0x1919C, offset: 0xCF7AE, size: 0x8, addend: 0x0, symName: '__ZN4core3ptr66drop_in_place$LT$core..option..Option$LT$syn..pat..PatRest$GT$$GT$17ha5a01c0c262ef320E', symObjAddr: 0x5B40, symBinAddr: 0x29500, symSize: 0x80 }
  - { offsetInCU: 0x19418, offset: 0xCFA2A, size: 0x8, addend: 0x0, symName: '__ZN4core3ptr67drop_in_place$LT$alloc..boxed..Box$LT$syn..expr..FieldValue$GT$$GT$17h6b30f10c221cfdb2E', symObjAddr: 0x5BC0, symBinAddr: 0x29580, symSize: 0xF0 }
  - { offsetInCU: 0x198C1, offset: 0xCFED3, size: 0x8, addend: 0x0, symName: '__ZN4core3ptr68drop_in_place$LT$alloc..boxed..Box$LT$syn..path..PathSegment$GT$$GT$17hcc4af483daf42554E', symObjAddr: 0x5CB0, symBinAddr: 0x29670, symSize: 0x1B0 }
  - { offsetInCU: 0x19FCF, offset: 0xD05E1, size: 0x8, addend: 0x0, symName: '__ZN4core3ptr70drop_in_place$LT$core..option..Option$LT$syn..ty..BareVariadic$GT$$GT$17h086dd0da10d1997dE', symObjAddr: 0x5E60, symBinAddr: 0x29820, symSize: 0xA0 }
  - { offsetInCU: 0x1A377, offset: 0xD0989, size: 0x8, addend: 0x0, symName: '__ZN4core3ptr72drop_in_place$LT$alloc..boxed..Box$LT$syn..path..GenericArgument$GT$$GT$17h4574b81d16b6551fE', symObjAddr: 0x5F00, symBinAddr: 0x298C0, symSize: 0x1D0 }
  - { offsetInCU: 0x1A912, offset: 0xD0F24, size: 0x8, addend: 0x0, symName: '__ZN4core3ptr72drop_in_place$LT$core..option..Option$LT$syn..lifetime..Lifetime$GT$$GT$17h82838cf67b070eb1E', symObjAddr: 0x60D0, symBinAddr: 0x29A90, symSize: 0x30 }
  - { offsetInCU: 0x1AA2D, offset: 0xD103F, size: 0x8, addend: 0x0, symName: '__ZN4core3ptr73drop_in_place$LT$alloc..boxed..Box$LT$syn..generics..GenericParam$GT$$GT$17hef52862666ef632bE', symObjAddr: 0x6100, symBinAddr: 0x29AC0, symSize: 0x80 }
  - { offsetInCU: 0x1ABA3, offset: 0xD11B5, size: 0x8, addend: 0x0, symName: '__ZN4core3ptr75drop_in_place$LT$alloc..boxed..Box$LT$syn..generics..TypeParamBound$GT$$GT$17h3bc4a83ac7001746E', symObjAddr: 0x6180, symBinAddr: 0x29B40, symSize: 0xC0 }
  - { offsetInCU: 0x1AF16, offset: 0xD1528, size: 0x8, addend: 0x0, symName: '__ZN4core3ptr75drop_in_place$LT$core..option..Option$LT$syn..generics..WhereClause$GT$$GT$17hf725124c80644f6bE', symObjAddr: 0x6240, symBinAddr: 0x29C00, symSize: 0x90 }
  - { offsetInCU: 0x1B20A, offset: 0xD181C, size: 0x8, addend: 0x0, symName: '__ZN4core3ptr86drop_in_place$LT$syn..punctuated..Punctuated$LT$syn..pat..Pat$C$syn..token..Or$GT$$GT$17h6e5a3d57d68a4f42E', symObjAddr: 0x62D0, symBinAddr: 0x29C90, symSize: 0x120 }
  - { offsetInCU: 0x1B685, offset: 0xD1C97, size: 0x8, addend: 0x0, symName: '__ZN4core3ptr87drop_in_place$LT$core..option..Option$LT$alloc..boxed..Box$LT$syn..pat..Pat$GT$$GT$$GT$17h971d1a8979b5c3acE', symObjAddr: 0x63F0, symBinAddr: 0x29DB0, symSize: 0x50 }
  - { offsetInCU: 0x1B7F5, offset: 0xD1E07, size: 0x8, addend: 0x0, symName: '__ZN4core3ptr87drop_in_place$LT$core..option..Option$LT$alloc..boxed..Box$LT$syn..ty..Type$GT$$GT$$GT$17hd50f5fde669883c6E', symObjAddr: 0x6440, symBinAddr: 0x29E00, symSize: 0x50 }
  - { offsetInCU: 0x1B965, offset: 0xD1F77, size: 0x8, addend: 0x0, symName: '__ZN4core3ptr89drop_in_place$LT$core..option..Option$LT$alloc..boxed..Box$LT$syn..expr..Expr$GT$$GT$$GT$17h3a2e7b4c2e1e147bE', symObjAddr: 0x6490, symBinAddr: 0x29E50, symSize: 0x50 }
  - { offsetInCU: 0x1BB13, offset: 0xD2125, size: 0x8, addend: 0x0, symName: '__ZN4core3ptr89drop_in_place$LT$syn..punctuated..Punctuated$LT$syn..pat..Pat$C$syn..token..Comma$GT$$GT$17h8c96c487d05be04aE', symObjAddr: 0x64E0, symBinAddr: 0x29EA0, symSize: 0x120 }
  - { offsetInCU: 0x1BFA5, offset: 0xD25B7, size: 0x8, addend: 0x0, symName: '__ZN4core3ptr89drop_in_place$LT$syn..punctuated..Punctuated$LT$syn..ty..Type$C$syn..token..Comma$GT$$GT$17h64b50b1d5d2d93ffE', symObjAddr: 0x6600, symBinAddr: 0x29FC0, symSize: 0x120 }
  - { offsetInCU: 0x1C47D, offset: 0xD2A8F, size: 0x8, addend: 0x0, symName: '__ZN4core3ptr90drop_in_place$LT$core..option..Option$LT$alloc..boxed..Box$LT$syn..data..Field$GT$$GT$$GT$17h5a1c9c52d7ba32e6E', symObjAddr: 0x6720, symBinAddr: 0x2A0E0, symSize: 0x160 }
  - { offsetInCU: 0x1CA90, offset: 0xD30A2, size: 0x8, addend: 0x0, symName: '__ZN4core3ptr90drop_in_place$LT$core..option..Option$LT$syn..path..AngleBracketedGenericArguments$GT$$GT$17hcbdded873e6623ceE', symObjAddr: 0x6880, symBinAddr: 0x2A240, symSize: 0x130 }
  - { offsetInCU: 0x1CF32, offset: 0xD3544, size: 0x8, addend: 0x0, symName: '__ZN4core3ptr91drop_in_place$LT$syn..punctuated..Punctuated$LT$syn..expr..Expr$C$syn..token..Comma$GT$$GT$17h563634c74cd05d53E', symObjAddr: 0x69B0, symBinAddr: 0x2A370, symSize: 0x120 }
  - { offsetInCU: 0x1D43C, offset: 0xD3A4E, size: 0x8, addend: 0x0, symName: '__ZN4core3ptr92drop_in_place$LT$core..option..Option$LT$alloc..boxed..Box$LT$syn..data..Variant$GT$$GT$$GT$17ha72051dbb5e875a6E', symObjAddr: 0x6AD0, symBinAddr: 0x2A490, symSize: 0x120 }
  - { offsetInCU: 0x1D94B, offset: 0xD3F5D, size: 0x8, addend: 0x0, symName: '__ZN4core3ptr94drop_in_place$LT$syn..punctuated..Punctuated$LT$syn..pat..FieldPat$C$syn..token..Comma$GT$$GT$17h7b4e4a7ea240f530E', symObjAddr: 0x6BF0, symBinAddr: 0x2A5B0, symSize: 0xF0 }
  - { offsetInCU: 0x1DC4A, offset: 0xD425C, size: 0x8, addend: 0x0, symName: '__ZN4core3ptr94drop_in_place$LT$syn..punctuated..Punctuated$LT$syn..ty..BareFnArg$C$syn..token..Comma$GT$$GT$17h68c2fcf6a8a1f668E', symObjAddr: 0x6CE0, symBinAddr: 0x2A6A0, symSize: 0xF0 }
  - { offsetInCU: 0x1DF4B, offset: 0xD455D, size: 0x8, addend: 0x0, symName: '__ZN4core3ptr96drop_in_place$LT$core..option..Option$LT$alloc..boxed..Box$LT$syn..path..PathSegment$GT$$GT$$GT$17h6c41ebc14073cbbfE', symObjAddr: 0x6DD0, symBinAddr: 0x2A790, symSize: 0xA0 }
  - { offsetInCU: 0x1E1CA, offset: 0xD47DC, size: 0x8, addend: 0x0, symName: '__ZN4core3ptr97drop_in_place$LT$syn..punctuated..Punctuated$LT$syn..expr..FieldValue$C$syn..token..Comma$GT$$GT$17hcc5ef78a22176d9dE', symObjAddr: 0x6E70, symBinAddr: 0x2A830, symSize: 0xF0 }
  - { offsetInCU: 0x1E4C7, offset: 0xD4AD9, size: 0x8, addend: 0x0, symName: '__ZN4core3ptr98drop_in_place$LT$alloc..vec..Vec$LT$$LP$syn..path..GenericArgument$C$syn..token..Comma$RP$$GT$$GT$17h476460f9b73e3ba3E', symObjAddr: 0x6F60, symBinAddr: 0x2A920, symSize: 0xD0 }
  - { offsetInCU: 0x1E807, offset: 0xD4E19, size: 0x8, addend: 0x0, symName: '__ZN4core3ptr98drop_in_place$LT$syn..punctuated..Punctuated$LT$syn..lifetime..Lifetime$C$syn..token..Plus$GT$$GT$17h16305e47cc41acd9E', symObjAddr: 0x7030, symBinAddr: 0x2A9F0, symSize: 0xC6 }
  - { offsetInCU: 0x216E5, offset: 0xD7CF7, size: 0x8, addend: 0x0, symName: '__ZN40_$LT$F$u20$as$u20$syn..parse..Parser$GT$14__parse_scoped17h92f986fb515f73ffE', symObjAddr: 0x0, symBinAddr: 0x239C0, symSize: 0x400 }
  - { offsetInCU: 0x22146, offset: 0xD8758, size: 0x8, addend: 0x0, symName: '__ZN40_$LT$F$u20$as$u20$syn..parse..Parser$GT$6parse217h0b83e911b12a68f3E', symObjAddr: 0x400, symBinAddr: 0x23DC0, symSize: 0x380 }
  - { offsetInCU: 0x1E, offset: 0xE3384, size: 0x8, addend: 0x0, symName: '__ZN100_$LT$syn..punctuated..PrivateIter$LT$T$C$P$GT$$u20$as$u20$core..iter..traits..iterator..Iterator$GT$4next17h930480dd95d23044E.llvm.6272839705972973980', symObjAddr: 0x0, symBinAddr: 0x2AAC0, symSize: 0x30 }
  - { offsetInCU: 0x4EB, offset: 0xE3851, size: 0x8, addend: 0x0, symName: '__ZN100_$LT$syn..punctuated..PrivateIter$LT$T$C$P$GT$$u20$as$u20$core..iter..traits..iterator..Iterator$GT$4next17h930480dd95d23044E.llvm.6272839705972973980', symObjAddr: 0x0, symBinAddr: 0x2AAC0, symSize: 0x30 }
  - { offsetInCU: 0x1E, offset: 0xED39E, size: 0x8, addend: 0x0, symName: __ZN3syn4attr9Attribute15parse_args_with17h077ea67fbc493aedE, symObjAddr: 0x0, symBinAddr: 0x2AAF0, symSize: 0x2E0 }
  - { offsetInCU: 0xA72F, offset: 0xF7AAF, size: 0x8, addend: 0x0, symName: __ZN3syn4attr9Attribute15parse_args_with17h077ea67fbc493aedE, symObjAddr: 0x0, symBinAddr: 0x2AAF0, symSize: 0x2E0 }
  - { offsetInCU: 0xB4CE, offset: 0xF884E, size: 0x8, addend: 0x0, symName: __ZN3syn4attr9Attribute15parse_args_with17h37dd3d24559de16aE, symObjAddr: 0x2E0, symBinAddr: 0x2ADD0, symSize: 0x2F0 }
  - { offsetInCU: 0xC203, offset: 0xF9583, size: 0x8, addend: 0x0, symName: __ZN3syn4attr9Attribute15parse_args_with17h97039dca2b379489E, symObjAddr: 0x5D0, symBinAddr: 0x2B0C0, symSize: 0x310 }
  - { offsetInCU: 0xCF38, offset: 0xFA2B8, size: 0x8, addend: 0x0, symName: __ZN3syn4attr9Attribute15parse_args_with17h9ed273c8d4fb3064E, symObjAddr: 0x8E0, symBinAddr: 0x2B3D0, symSize: 0x310 }
  - { offsetInCU: 0xDC6D, offset: 0xFAFED, size: 0x8, addend: 0x0, symName: __ZN3syn4attr9Attribute15parse_args_with17hee31cbec51198862E, symObjAddr: 0xBF0, symBinAddr: 0x2B6E0, symSize: 0x302 }
  - { offsetInCU: 0x1E, offset: 0xFC44A, size: 0x8, addend: 0x0, symName: __ZN3syn11parse_quote5parse17h8bf2fa0a5cd1668dE, symObjAddr: 0x0, symBinAddr: 0x2B9F0, symSize: 0x410 }
  - { offsetInCU: 0x1C1F, offset: 0xFE04B, size: 0x8, addend: 0x0, symName: '__ZN4core3ptr100drop_in_place$LT$core..option..Option$LT$alloc..boxed..Box$LT$syn..path..GenericArgument$GT$$GT$$GT$17h902496fc3bcf60efE', symObjAddr: 0x880, symBinAddr: 0x2C220, symSize: 0x50 }
  - { offsetInCU: 0x1DEC, offset: 0xFE218, size: 0x8, addend: 0x0, symName: '__ZN4core3ptr102drop_in_place$LT$syn..punctuated..Punctuated$LT$syn..path..GenericArgument$C$syn..token..Comma$GT$$GT$17hd67cddccf5496b2aE', symObjAddr: 0x8D0, symBinAddr: 0x2C270, symSize: 0xF0 }
  - { offsetInCU: 0x210C, offset: 0xFE538, size: 0x8, addend: 0x0, symName: '__ZN4core3ptr103drop_in_place$LT$core..option..Option$LT$alloc..boxed..Box$LT$syn..generics..TypeParamBound$GT$$GT$$GT$17h6b41aad38627fbd5E', symObjAddr: 0x9C0, symBinAddr: 0x2C360, symSize: 0x50 }
  - { offsetInCU: 0x2317, offset: 0xFE743, size: 0x8, addend: 0x0, symName: '__ZN4core3ptr103drop_in_place$LT$syn..punctuated..Punctuated$LT$syn..generics..GenericParam$C$syn..token..Comma$GT$$GT$17hae5366231be58816E', symObjAddr: 0xA10, symBinAddr: 0x2C3B0, symSize: 0xF0 }
  - { offsetInCU: 0x286F, offset: 0xFEC9B, size: 0x8, addend: 0x0, symName: '__ZN4core3ptr104drop_in_place$LT$syn..punctuated..Punctuated$LT$syn..generics..TypeParamBound$C$syn..token..Plus$GT$$GT$17hd7472dab50e62f55E', symObjAddr: 0xB00, symBinAddr: 0x2C4A0, symSize: 0x240 }
  - { offsetInCU: 0x31A6, offset: 0xFF5D2, size: 0x8, addend: 0x0, symName: '__ZN4core3ptr34drop_in_place$LT$syn..lit..Lit$GT$17hb1ccf3569411b06aE', symObjAddr: 0xD40, symBinAddr: 0x2C6E0, symSize: 0x120 }
  - { offsetInCU: 0x3694, offset: 0xFFAC0, size: 0x8, addend: 0x0, symName: '__ZN4core3ptr34drop_in_place$LT$syn..pat..Pat$GT$17h7359e8df337abba9E', symObjAddr: 0xE60, symBinAddr: 0x2C800, symSize: 0xA90 }
  - { offsetInCU: 0x690D, offset: 0x102D39, size: 0x8, addend: 0x0, symName: '__ZN4core3ptr34drop_in_place$LT$syn..ty..Type$GT$17h47ceaa73a19fc5d6E', symObjAddr: 0x18F0, symBinAddr: 0x2D290, symSize: 0x580 }
  - { offsetInCU: 0x8196, offset: 0x1045C2, size: 0x8, addend: 0x0, symName: '__ZN4core3ptr36drop_in_place$LT$syn..expr..Expr$GT$17he1ae49cdf5ed6135E', symObjAddr: 0x1E70, symBinAddr: 0x2D810, symSize: 0x1BA0 }
  - { offsetInCU: 0x103E3, offset: 0x10C80F, size: 0x8, addend: 0x0, symName: '__ZN4core3ptr36drop_in_place$LT$syn..mac..Macro$GT$17h2f7c278ba3ae8f94E', symObjAddr: 0x3A10, symBinAddr: 0x2F3B0, symSize: 0xE0 }
  - { offsetInCU: 0x1076D, offset: 0x10CB99, size: 0x8, addend: 0x0, symName: '__ZN4core3ptr36drop_in_place$LT$syn..path..Path$GT$17ha1c4977077779d63E', symObjAddr: 0x3AF0, symBinAddr: 0x2F490, symSize: 0x240 }
  - { offsetInCU: 0x11107, offset: 0x10D533, size: 0x8, addend: 0x0, symName: '__ZN4core3ptr37drop_in_place$LT$syn..stmt..Block$GT$17h02427aaa95397c91E', symObjAddr: 0x3D30, symBinAddr: 0x2F6D0, symSize: 0xD0 }
  - { offsetInCU: 0x1141C, offset: 0x10D848, size: 0x8, addend: 0x0, symName: '__ZN4core3ptr38drop_in_place$LT$syn..error..Error$GT$17h45914e4072eb53a1E', symObjAddr: 0x3E00, symBinAddr: 0x2F7A0, symSize: 0x90 }
  - { offsetInCU: 0x116DD, offset: 0x10DB09, size: 0x8, addend: 0x0, symName: '__ZN4core3ptr38drop_in_place$LT$syn..expr..Member$GT$17h107a8d7caaee36f8E', symObjAddr: 0x3E90, symBinAddr: 0x2F830, symSize: 0x30 }
  - { offsetInCU: 0x117D9, offset: 0x10DC05, size: 0x8, addend: 0x0, symName: '__ZN4core3ptr39drop_in_place$LT$proc_macro2..Ident$GT$17h33e9ef7d7cb9a26bE', symObjAddr: 0x3EC0, symBinAddr: 0x2F860, symSize: 0x30 }
  - { offsetInCU: 0x119EC, offset: 0x10DE18, size: 0x8, addend: 0x0, symName: '__ZN4core3ptr39drop_in_place$LT$syn..buffer..Entry$GT$17h361cd84811d66e7eE', symObjAddr: 0x3EF0, symBinAddr: 0x2F890, symSize: 0xB0 }
  - { offsetInCU: 0x11D77, offset: 0x10E1A3, size: 0x8, addend: 0x0, symName: '__ZN4core3ptr40drop_in_place$LT$syn..ty..ReturnType$GT$17h60dcaacf955109c8E', symObjAddr: 0x3FA0, symBinAddr: 0x2F940, symSize: 0x50 }
  - { offsetInCU: 0x11EE7, offset: 0x10E313, size: 0x8, addend: 0x0, symName: '__ZN4core3ptr41drop_in_place$LT$syn..expr..ExprConst$GT$17he2d746c7666e6b25E', symObjAddr: 0x3FF0, symBinAddr: 0x2F990, symSize: 0x120 }
  - { offsetInCU: 0x12413, offset: 0x10E83F, size: 0x8, addend: 0x0, symName: '__ZN4core3ptr44drop_in_place$LT$syn..lifetime..Lifetime$GT$17h2ce55e67d3006872E', symObjAddr: 0x4110, symBinAddr: 0x2FAB0, symSize: 0x30 }
  - { offsetInCU: 0x1250F, offset: 0x10E93B, size: 0x8, addend: 0x0, symName: '__ZN4core3ptr44drop_in_place$LT$syn..parse..ParseBuffer$GT$17h6fbd62c13fccd3f9E', symObjAddr: 0x4140, symBinAddr: 0x2FAE0, symSize: 0x70 }
  - { offsetInCU: 0x1288B, offset: 0x10ECB7, size: 0x8, addend: 0x0, symName: '__ZN4core3ptr45drop_in_place$LT$proc_macro2..TokenStream$GT$17he3fed67fc3446852E', symObjAddr: 0x41B0, symBinAddr: 0x2FB50, symSize: 0x140 }
  - { offsetInCU: 0x12CE7, offset: 0x10F113, size: 0x8, addend: 0x0, symName: '__ZN4core3ptr45drop_in_place$LT$syn..buffer..TokenBuffer$GT$17h087c798578459e23E', symObjAddr: 0x42F0, symBinAddr: 0x2FC90, symSize: 0xC0 }
  - { offsetInCU: 0x12F4F, offset: 0x10F37B, size: 0x8, addend: 0x0, symName: '__ZN4core3ptr45drop_in_place$LT$syn..generics..TypeParam$GT$17hca468ed302d5e883E', symObjAddr: 0x43B0, symBinAddr: 0x2FD50, symSize: 0x1E0 }
  - { offsetInCU: 0x13704, offset: 0x10FB30, size: 0x8, addend: 0x0, symName: '__ZN4core3ptr46drop_in_place$LT$syn..generics..ConstParam$GT$17ha9ac9d2cac900636E', symObjAddr: 0x4590, symBinAddr: 0x2FF30, symSize: 0x100 }
  - { offsetInCU: 0x13AC5, offset: 0x10FEF1, size: 0x8, addend: 0x0, symName: '__ZN4core3ptr47drop_in_place$LT$syn..path..GenericArgument$GT$17h7f35b3c2de13390bE', symObjAddr: 0x4690, symBinAddr: 0x30030, symSize: 0x450 }
  - { offsetInCU: 0x1483B, offset: 0x110C67, size: 0x8, addend: 0x0, symName: '__ZN4core3ptr49drop_in_place$LT$syn..generics..LifetimeParam$GT$17h0833c6043bd53bc9E', symObjAddr: 0x4AE0, symBinAddr: 0x30480, symSize: 0x90 }
  - { offsetInCU: 0x14B91, offset: 0x110FBD, size: 0x8, addend: 0x0, symName: '__ZN4core3ptr50drop_in_place$LT$syn..generics..TypeParamBound$GT$17h14769d483d51829aE', symObjAddr: 0x4B70, symBinAddr: 0x30510, symSize: 0xA0 }
  - { offsetInCU: 0x14CF7, offset: 0x111123, size: 0x8, addend: 0x0, symName: '__ZN4core3ptr58drop_in_place$LT$alloc..vec..Vec$LT$syn..expr..Arm$GT$$GT$17h9b48120322e1ea95E', symObjAddr: 0x4C10, symBinAddr: 0x305B0, symSize: 0xD0 }
  - { offsetInCU: 0x14FB7, offset: 0x1113E3, size: 0x8, addend: 0x0, symName: '__ZN4core3ptr59drop_in_place$LT$alloc..boxed..Box$LT$syn..pat..Pat$GT$$GT$17h913d3979e02b0380E', symObjAddr: 0x4CE0, symBinAddr: 0x30680, symSize: 0x50 }
  - { offsetInCU: 0x15110, offset: 0x11153C, size: 0x8, addend: 0x0, symName: '__ZN4core3ptr59drop_in_place$LT$alloc..boxed..Box$LT$syn..ty..Type$GT$$GT$17hff7f57a7bf846fc3E', symObjAddr: 0x4D30, symBinAddr: 0x306D0, symSize: 0x50 }
  - { offsetInCU: 0x15269, offset: 0x111695, size: 0x8, addend: 0x0, symName: '__ZN4core3ptr61drop_in_place$LT$alloc..boxed..Box$LT$syn..expr..Expr$GT$$GT$17h29440043cdc5b7bfE', symObjAddr: 0x4D80, symBinAddr: 0x30720, symSize: 0x50 }
  - { offsetInCU: 0x153C2, offset: 0x1117EE, size: 0x8, addend: 0x0, symName: '__ZN4core3ptr61drop_in_place$LT$syn..path..ParenthesizedGenericArguments$GT$17h33c2e534d9ec2d1dE', symObjAddr: 0x4DD0, symBinAddr: 0x30770, symSize: 0x170 }
  - { offsetInCU: 0x159CB, offset: 0x111DF7, size: 0x8, addend: 0x0, symName: '__ZN4core3ptr63drop_in_place$LT$alloc..boxed..Box$LT$syn..lit..LitRepr$GT$$GT$17hf7828cb6a3955ff9E', symObjAddr: 0x4F40, symBinAddr: 0x308E0, symSize: 0x60 }
  - { offsetInCU: 0x15CD2, offset: 0x1120FE, size: 0x8, addend: 0x0, symName: '__ZN4core3ptr64drop_in_place$LT$alloc..boxed..Box$LT$syn..pat..FieldPat$GT$$GT$17h464c3ad6b191f456E', symObjAddr: 0x4FA0, symBinAddr: 0x30940, symSize: 0x100 }
  - { offsetInCU: 0x16322, offset: 0x11274E, size: 0x8, addend: 0x0, symName: '__ZN4core3ptr64drop_in_place$LT$alloc..boxed..Box$LT$syn..ty..BareFnArg$GT$$GT$17h5694a1f19b0e259eE', symObjAddr: 0x50A0, symBinAddr: 0x30A40, symSize: 0xF0 }
  - { offsetInCU: 0x167EB, offset: 0x112C17, size: 0x8, addend: 0x0, symName: '__ZN4core3ptr65drop_in_place$LT$alloc..vec..Vec$LT$proc_macro..TokenTree$GT$$GT$17h221fedaf9965a430E', symObjAddr: 0x5190, symBinAddr: 0x30B30, symSize: 0x110 }
  - { offsetInCU: 0x16BE3, offset: 0x11300F, size: 0x8, addend: 0x0, symName: '__ZN4core3ptr65drop_in_place$LT$core..option..Option$LT$syn..expr..Label$GT$$GT$17he0dc54c732444ae2E', symObjAddr: 0x52A0, symBinAddr: 0x30C40, symSize: 0x30 }
  - { offsetInCU: 0x16D1D, offset: 0x113149, size: 0x8, addend: 0x0, symName: '__ZN4core3ptr66drop_in_place$LT$core..option..Option$LT$syn..pat..PatRest$GT$$GT$17ha5a01c0c262ef320E', symObjAddr: 0x52D0, symBinAddr: 0x30C70, symSize: 0x80 }
  - { offsetInCU: 0x16F99, offset: 0x1133C5, size: 0x8, addend: 0x0, symName: '__ZN4core3ptr67drop_in_place$LT$alloc..boxed..Box$LT$syn..expr..FieldValue$GT$$GT$17h6b30f10c221cfdb2E', symObjAddr: 0x5350, symBinAddr: 0x30CF0, symSize: 0xF0 }
  - { offsetInCU: 0x17461, offset: 0x11388D, size: 0x8, addend: 0x0, symName: '__ZN4core3ptr70drop_in_place$LT$core..option..Option$LT$syn..ty..BareVariadic$GT$$GT$17h086dd0da10d1997dE', symObjAddr: 0x5440, symBinAddr: 0x30DE0, symSize: 0xA0 }
  - { offsetInCU: 0x17809, offset: 0x113C35, size: 0x8, addend: 0x0, symName: '__ZN4core3ptr72drop_in_place$LT$alloc..boxed..Box$LT$syn..path..GenericArgument$GT$$GT$17h4574b81d16b6551fE', symObjAddr: 0x54E0, symBinAddr: 0x30E80, symSize: 0x2B0 }
  - { offsetInCU: 0x1821A, offset: 0x114646, size: 0x8, addend: 0x0, symName: '__ZN4core3ptr72drop_in_place$LT$core..option..Option$LT$syn..lifetime..Lifetime$GT$$GT$17h82838cf67b070eb1E', symObjAddr: 0x5790, symBinAddr: 0x31130, symSize: 0x30 }
  - { offsetInCU: 0x18335, offset: 0x114761, size: 0x8, addend: 0x0, symName: '__ZN4core3ptr73drop_in_place$LT$alloc..boxed..Box$LT$syn..generics..GenericParam$GT$$GT$17hef52862666ef632bE', symObjAddr: 0x57C0, symBinAddr: 0x31160, symSize: 0x80 }
  - { offsetInCU: 0x184AB, offset: 0x1148D7, size: 0x8, addend: 0x0, symName: '__ZN4core3ptr75drop_in_place$LT$alloc..boxed..Box$LT$syn..generics..TypeParamBound$GT$$GT$17h3bc4a83ac7001746E', symObjAddr: 0x5840, symBinAddr: 0x311E0, symSize: 0x180 }
  - { offsetInCU: 0x18A97, offset: 0x114EC3, size: 0x8, addend: 0x0, symName: '__ZN4core3ptr86drop_in_place$LT$syn..punctuated..Punctuated$LT$syn..pat..Pat$C$syn..token..Or$GT$$GT$17h6e5a3d57d68a4f42E', symObjAddr: 0x59C0, symBinAddr: 0x31360, symSize: 0x120 }
  - { offsetInCU: 0x18F12, offset: 0x11533E, size: 0x8, addend: 0x0, symName: '__ZN4core3ptr87drop_in_place$LT$core..option..Option$LT$alloc..boxed..Box$LT$syn..pat..Pat$GT$$GT$$GT$17h971d1a8979b5c3acE', symObjAddr: 0x5AE0, symBinAddr: 0x31480, symSize: 0x50 }
  - { offsetInCU: 0x19082, offset: 0x1154AE, size: 0x8, addend: 0x0, symName: '__ZN4core3ptr87drop_in_place$LT$core..option..Option$LT$alloc..boxed..Box$LT$syn..ty..Type$GT$$GT$$GT$17hd50f5fde669883c6E', symObjAddr: 0x5B30, symBinAddr: 0x314D0, symSize: 0x50 }
  - { offsetInCU: 0x191F2, offset: 0x11561E, size: 0x8, addend: 0x0, symName: '__ZN4core3ptr89drop_in_place$LT$core..option..Option$LT$alloc..boxed..Box$LT$syn..expr..Expr$GT$$GT$$GT$17h3a2e7b4c2e1e147bE', symObjAddr: 0x5B80, symBinAddr: 0x31520, symSize: 0x50 }
  - { offsetInCU: 0x193A0, offset: 0x1157CC, size: 0x8, addend: 0x0, symName: '__ZN4core3ptr89drop_in_place$LT$syn..punctuated..Punctuated$LT$syn..pat..Pat$C$syn..token..Comma$GT$$GT$17h8c96c487d05be04aE', symObjAddr: 0x5BD0, symBinAddr: 0x31570, symSize: 0x120 }
  - { offsetInCU: 0x19870, offset: 0x115C9C, size: 0x8, addend: 0x0, symName: '__ZN4core3ptr91drop_in_place$LT$syn..punctuated..Punctuated$LT$syn..expr..Expr$C$syn..token..Comma$GT$$GT$17h563634c74cd05d53E', symObjAddr: 0x5CF0, symBinAddr: 0x31690, symSize: 0x120 }
  - { offsetInCU: 0x19CFE, offset: 0x11612A, size: 0x8, addend: 0x0, symName: '__ZN4core3ptr94drop_in_place$LT$syn..punctuated..Punctuated$LT$syn..pat..FieldPat$C$syn..token..Comma$GT$$GT$17h7b4e4a7ea240f530E', symObjAddr: 0x5E10, symBinAddr: 0x317B0, symSize: 0xF0 }
  - { offsetInCU: 0x19FFD, offset: 0x116429, size: 0x8, addend: 0x0, symName: '__ZN4core3ptr94drop_in_place$LT$syn..punctuated..Punctuated$LT$syn..ty..BareFnArg$C$syn..token..Comma$GT$$GT$17h68c2fcf6a8a1f668E', symObjAddr: 0x5F00, symBinAddr: 0x318A0, symSize: 0xF0 }
  - { offsetInCU: 0x1A2FE, offset: 0x11672A, size: 0x8, addend: 0x0, symName: '__ZN4core3ptr96drop_in_place$LT$core..option..Option$LT$alloc..boxed..Box$LT$syn..path..PathSegment$GT$$GT$$GT$17h6c41ebc14073cbbfE', symObjAddr: 0x5FF0, symBinAddr: 0x31990, symSize: 0x1A0 }
  - { offsetInCU: 0x1A9BF, offset: 0x116DEB, size: 0x8, addend: 0x0, symName: '__ZN4core3ptr97drop_in_place$LT$syn..punctuated..Punctuated$LT$syn..expr..FieldValue$C$syn..token..Comma$GT$$GT$17hcc5ef78a22176d9dE', symObjAddr: 0x6190, symBinAddr: 0x31B30, symSize: 0xF0 }
  - { offsetInCU: 0x1AD38, offset: 0x117164, size: 0x8, addend: 0x0, symName: '__ZN4core3ptr98drop_in_place$LT$syn..punctuated..Punctuated$LT$syn..lifetime..Lifetime$C$syn..token..Plus$GT$$GT$17h16305e47cc41acd9E', symObjAddr: 0x6280, symBinAddr: 0x31C20, symSize: 0xC6 }
  - { offsetInCU: 0x1DD22, offset: 0x11A14E, size: 0x8, addend: 0x0, symName: __ZN3syn11parse_quote5parse17h8bf2fa0a5cd1668dE, symObjAddr: 0x0, symBinAddr: 0x2B9F0, symSize: 0x410 }
  - { offsetInCU: 0x1E80A, offset: 0x11AC36, size: 0x8, addend: 0x0, symName: __ZN3syn11parse_quote5parse17he0d324224f3fc672E, symObjAddr: 0x410, symBinAddr: 0x2BE00, symSize: 0x420 }
  - { offsetInCU: 0x1F02D, offset: 0x11B459, size: 0x8, addend: 0x0, symName: __ZN3syn11parse_quote5parse18panic_cold_display17hbdb4a92178faa080E, symObjAddr: 0x830, symBinAddr: 0x1F2500, symSize: 0x50 }
  - { offsetInCU: 0x1E, offset: 0x12511C, size: 0x8, addend: 0x0, symName: '__ZN4core3ptr100drop_in_place$LT$core..option..Option$LT$alloc..boxed..Box$LT$syn..path..GenericArgument$GT$$GT$$GT$17h902496fc3bcf60efE', symObjAddr: 0x0, symBinAddr: 0x31CF0, symSize: 0x50 }
  - { offsetInCU: 0x180B, offset: 0x126909, size: 0x8, addend: 0x0, symName: '__ZN4core3ptr100drop_in_place$LT$core..option..Option$LT$alloc..boxed..Box$LT$syn..path..GenericArgument$GT$$GT$$GT$17h902496fc3bcf60efE', symObjAddr: 0x0, symBinAddr: 0x31CF0, symSize: 0x50 }
  - { offsetInCU: 0x19D8, offset: 0x126AD6, size: 0x8, addend: 0x0, symName: '__ZN4core3ptr102drop_in_place$LT$syn..punctuated..Punctuated$LT$syn..path..GenericArgument$C$syn..token..Comma$GT$$GT$17hd67cddccf5496b2aE', symObjAddr: 0x50, symBinAddr: 0x31D40, symSize: 0xF0 }
  - { offsetInCU: 0x1CF8, offset: 0x126DF6, size: 0x8, addend: 0x0, symName: '__ZN4core3ptr103drop_in_place$LT$core..option..Option$LT$alloc..boxed..Box$LT$syn..generics..TypeParamBound$GT$$GT$$GT$17h6b41aad38627fbd5E', symObjAddr: 0x140, symBinAddr: 0x31E30, symSize: 0x50 }
  - { offsetInCU: 0x1F03, offset: 0x127001, size: 0x8, addend: 0x0, symName: '__ZN4core3ptr103drop_in_place$LT$syn..punctuated..Punctuated$LT$syn..generics..GenericParam$C$syn..token..Comma$GT$$GT$17hae5366231be58816E', symObjAddr: 0x190, symBinAddr: 0x31E80, symSize: 0xF0 }
  - { offsetInCU: 0x24D7, offset: 0x1275D5, size: 0x8, addend: 0x0, symName: '__ZN4core3ptr104drop_in_place$LT$syn..punctuated..Punctuated$LT$syn..generics..TypeParamBound$C$syn..token..Plus$GT$$GT$17hd7472dab50e62f55E', symObjAddr: 0x280, symBinAddr: 0x31F70, symSize: 0x240 }
  - { offsetInCU: 0x2E0E, offset: 0x127F0C, size: 0x8, addend: 0x0, symName: '__ZN4core3ptr34drop_in_place$LT$syn..lit..Lit$GT$17hb1ccf3569411b06aE', symObjAddr: 0x4C0, symBinAddr: 0x321B0, symSize: 0x120 }
  - { offsetInCU: 0x32FC, offset: 0x1283FA, size: 0x8, addend: 0x0, symName: '__ZN4core3ptr34drop_in_place$LT$syn..pat..Pat$GT$17h7359e8df337abba9E', symObjAddr: 0x5E0, symBinAddr: 0x322D0, symSize: 0xA90 }
  - { offsetInCU: 0x6575, offset: 0x12B673, size: 0x8, addend: 0x0, symName: '__ZN4core3ptr34drop_in_place$LT$syn..ty..Type$GT$17h47ceaa73a19fc5d6E', symObjAddr: 0x1070, symBinAddr: 0x32D60, symSize: 0x580 }
  - { offsetInCU: 0x7DFE, offset: 0x12CEFC, size: 0x8, addend: 0x0, symName: '__ZN4core3ptr36drop_in_place$LT$syn..expr..Expr$GT$17he1ae49cdf5ed6135E', symObjAddr: 0x15F0, symBinAddr: 0x332E0, symSize: 0x1BA0 }
  - { offsetInCU: 0x1004B, offset: 0x135149, size: 0x8, addend: 0x0, symName: '__ZN4core3ptr36drop_in_place$LT$syn..mac..Macro$GT$17h2f7c278ba3ae8f94E', symObjAddr: 0x3190, symBinAddr: 0x34E80, symSize: 0xE0 }
  - { offsetInCU: 0x103D5, offset: 0x1354D3, size: 0x8, addend: 0x0, symName: '__ZN4core3ptr36drop_in_place$LT$syn..path..Path$GT$17ha1c4977077779d63E', symObjAddr: 0x3270, symBinAddr: 0x34F60, symSize: 0x240 }
  - { offsetInCU: 0x10DEB, offset: 0x135EE9, size: 0x8, addend: 0x0, symName: '__ZN4core3ptr37drop_in_place$LT$syn..data..Field$GT$17h78c76793f85f7022E.llvm.6678018727064701510', symObjAddr: 0x34B0, symBinAddr: 0x351A0, symSize: 0x120 }
  - { offsetInCU: 0x112A1, offset: 0x13639F, size: 0x8, addend: 0x0, symName: '__ZN4core3ptr37drop_in_place$LT$syn..stmt..Block$GT$17h02427aaa95397c91E', symObjAddr: 0x35D0, symBinAddr: 0x352C0, symSize: 0xD0 }
  - { offsetInCU: 0x11578, offset: 0x136676, size: 0x8, addend: 0x0, symName: '__ZN4core3ptr38drop_in_place$LT$syn..expr..Member$GT$17h107a8d7caaee36f8E', symObjAddr: 0x36A0, symBinAddr: 0x35390, symSize: 0x30 }
  - { offsetInCU: 0x11674, offset: 0x136772, size: 0x8, addend: 0x0, symName: '__ZN4core3ptr39drop_in_place$LT$proc_macro2..Ident$GT$17h33e9ef7d7cb9a26bE', symObjAddr: 0x36D0, symBinAddr: 0x353C0, symSize: 0x30 }
  - { offsetInCU: 0x11751, offset: 0x13684F, size: 0x8, addend: 0x0, symName: '__ZN4core3ptr40drop_in_place$LT$syn..ty..ReturnType$GT$17h60dcaacf955109c8E', symObjAddr: 0x3700, symBinAddr: 0x353F0, symSize: 0x50 }
  - { offsetInCU: 0x118C1, offset: 0x1369BF, size: 0x8, addend: 0x0, symName: '__ZN4core3ptr41drop_in_place$LT$syn..expr..ExprConst$GT$17he2d746c7666e6b25E', symObjAddr: 0x3750, symBinAddr: 0x35440, symSize: 0x120 }
  - { offsetInCU: 0x11DED, offset: 0x136EEB, size: 0x8, addend: 0x0, symName: '__ZN4core3ptr44drop_in_place$LT$syn..lifetime..Lifetime$GT$17h2ce55e67d3006872E', symObjAddr: 0x3870, symBinAddr: 0x35560, symSize: 0x30 }
  - { offsetInCU: 0x1201F, offset: 0x13711D, size: 0x8, addend: 0x0, symName: '__ZN4core3ptr45drop_in_place$LT$proc_macro2..TokenStream$GT$17he3fed67fc3446852E', symObjAddr: 0x38A0, symBinAddr: 0x35590, symSize: 0x140 }
  - { offsetInCU: 0x124B9, offset: 0x1375B7, size: 0x8, addend: 0x0, symName: '__ZN4core3ptr45drop_in_place$LT$syn..generics..TypeParam$GT$17hca468ed302d5e883E', symObjAddr: 0x39E0, symBinAddr: 0x356D0, symSize: 0x1E0 }
  - { offsetInCU: 0x12C6E, offset: 0x137D6C, size: 0x8, addend: 0x0, symName: '__ZN4core3ptr46drop_in_place$LT$syn..generics..ConstParam$GT$17ha9ac9d2cac900636E', symObjAddr: 0x3BC0, symBinAddr: 0x358B0, symSize: 0x100 }
  - { offsetInCU: 0x1302F, offset: 0x13812D, size: 0x8, addend: 0x0, symName: '__ZN4core3ptr47drop_in_place$LT$syn..path..GenericArgument$GT$17h7f35b3c2de13390bE', symObjAddr: 0x3CC0, symBinAddr: 0x359B0, symSize: 0x450 }
  - { offsetInCU: 0x13DA5, offset: 0x138EA3, size: 0x8, addend: 0x0, symName: '__ZN4core3ptr49drop_in_place$LT$syn..generics..LifetimeParam$GT$17h0833c6043bd53bc9E', symObjAddr: 0x4110, symBinAddr: 0x35E00, symSize: 0x90 }
  - { offsetInCU: 0x140FB, offset: 0x1391F9, size: 0x8, addend: 0x0, symName: '__ZN4core3ptr49drop_in_place$LT$syn..restriction..Visibility$GT$17h1c088815e0d6b137E', symObjAddr: 0x41A0, symBinAddr: 0x35E90, symSize: 0x60 }
  - { offsetInCU: 0x1426C, offset: 0x13936A, size: 0x8, addend: 0x0, symName: '__ZN4core3ptr50drop_in_place$LT$syn..generics..TypeParamBound$GT$17h14769d483d51829aE', symObjAddr: 0x4200, symBinAddr: 0x35EF0, symSize: 0xA0 }
  - { offsetInCU: 0x143D2, offset: 0x1394D0, size: 0x8, addend: 0x0, symName: '__ZN4core3ptr58drop_in_place$LT$alloc..vec..Vec$LT$syn..expr..Arm$GT$$GT$17h9b48120322e1ea95E', symObjAddr: 0x42A0, symBinAddr: 0x35F90, symSize: 0xD0 }
  - { offsetInCU: 0x14692, offset: 0x139790, size: 0x8, addend: 0x0, symName: '__ZN4core3ptr59drop_in_place$LT$alloc..boxed..Box$LT$syn..pat..Pat$GT$$GT$17h913d3979e02b0380E', symObjAddr: 0x4370, symBinAddr: 0x36060, symSize: 0x50 }
  - { offsetInCU: 0x147EB, offset: 0x1398E9, size: 0x8, addend: 0x0, symName: '__ZN4core3ptr59drop_in_place$LT$alloc..boxed..Box$LT$syn..ty..Type$GT$$GT$17hff7f57a7bf846fc3E', symObjAddr: 0x43C0, symBinAddr: 0x360B0, symSize: 0x50 }
  - { offsetInCU: 0x14944, offset: 0x139A42, size: 0x8, addend: 0x0, symName: '__ZN4core3ptr61drop_in_place$LT$alloc..boxed..Box$LT$syn..expr..Expr$GT$$GT$17h29440043cdc5b7bfE', symObjAddr: 0x4410, symBinAddr: 0x36100, symSize: 0x50 }
  - { offsetInCU: 0x14A9D, offset: 0x139B9B, size: 0x8, addend: 0x0, symName: '__ZN4core3ptr61drop_in_place$LT$syn..path..ParenthesizedGenericArguments$GT$17h33c2e534d9ec2d1dE', symObjAddr: 0x4460, symBinAddr: 0x36150, symSize: 0x170 }
  - { offsetInCU: 0x150A6, offset: 0x13A1A4, size: 0x8, addend: 0x0, symName: '__ZN4core3ptr63drop_in_place$LT$alloc..boxed..Box$LT$syn..lit..LitRepr$GT$$GT$17hf7828cb6a3955ff9E', symObjAddr: 0x45D0, symBinAddr: 0x362C0, symSize: 0x60 }
  - { offsetInCU: 0x153AD, offset: 0x13A4AB, size: 0x8, addend: 0x0, symName: '__ZN4core3ptr64drop_in_place$LT$alloc..boxed..Box$LT$syn..pat..FieldPat$GT$$GT$17h464c3ad6b191f456E', symObjAddr: 0x4630, symBinAddr: 0x36320, symSize: 0x100 }
  - { offsetInCU: 0x159FD, offset: 0x13AAFB, size: 0x8, addend: 0x0, symName: '__ZN4core3ptr64drop_in_place$LT$alloc..boxed..Box$LT$syn..ty..BareFnArg$GT$$GT$17h5694a1f19b0e259eE', symObjAddr: 0x4730, symBinAddr: 0x36420, symSize: 0xF0 }
  - { offsetInCU: 0x15EC6, offset: 0x13AFC4, size: 0x8, addend: 0x0, symName: '__ZN4core3ptr65drop_in_place$LT$alloc..vec..Vec$LT$proc_macro..TokenTree$GT$$GT$17h221fedaf9965a430E', symObjAddr: 0x4820, symBinAddr: 0x36510, symSize: 0x110 }
  - { offsetInCU: 0x162BE, offset: 0x13B3BC, size: 0x8, addend: 0x0, symName: '__ZN4core3ptr65drop_in_place$LT$core..option..Option$LT$syn..expr..Label$GT$$GT$17he0dc54c732444ae2E', symObjAddr: 0x4930, symBinAddr: 0x36620, symSize: 0x30 }
  - { offsetInCU: 0x163F8, offset: 0x13B4F6, size: 0x8, addend: 0x0, symName: '__ZN4core3ptr66drop_in_place$LT$core..option..Option$LT$syn..pat..PatRest$GT$$GT$17ha5a01c0c262ef320E', symObjAddr: 0x4960, symBinAddr: 0x36650, symSize: 0x80 }
  - { offsetInCU: 0x16674, offset: 0x13B772, size: 0x8, addend: 0x0, symName: '__ZN4core3ptr67drop_in_place$LT$alloc..boxed..Box$LT$syn..expr..FieldValue$GT$$GT$17h6b30f10c221cfdb2E', symObjAddr: 0x49E0, symBinAddr: 0x366D0, symSize: 0xF0 }
  - { offsetInCU: 0x16B3C, offset: 0x13BC3A, size: 0x8, addend: 0x0, symName: '__ZN4core3ptr70drop_in_place$LT$core..option..Option$LT$syn..ty..BareVariadic$GT$$GT$17h086dd0da10d1997dE', symObjAddr: 0x4AD0, symBinAddr: 0x367C0, symSize: 0xA0 }
  - { offsetInCU: 0x16EE4, offset: 0x13BFE2, size: 0x8, addend: 0x0, symName: '__ZN4core3ptr72drop_in_place$LT$alloc..boxed..Box$LT$syn..path..GenericArgument$GT$$GT$17h4574b81d16b6551fE', symObjAddr: 0x4B70, symBinAddr: 0x36860, symSize: 0x2B0 }
  - { offsetInCU: 0x178F5, offset: 0x13C9F3, size: 0x8, addend: 0x0, symName: '__ZN4core3ptr72drop_in_place$LT$core..option..Option$LT$syn..lifetime..Lifetime$GT$$GT$17h82838cf67b070eb1E', symObjAddr: 0x4E20, symBinAddr: 0x36B10, symSize: 0x30 }
  - { offsetInCU: 0x17A10, offset: 0x13CB0E, size: 0x8, addend: 0x0, symName: '__ZN4core3ptr73drop_in_place$LT$alloc..boxed..Box$LT$syn..generics..GenericParam$GT$$GT$17hef52862666ef632bE', symObjAddr: 0x4E50, symBinAddr: 0x36B40, symSize: 0x80 }
  - { offsetInCU: 0x17B86, offset: 0x13CC84, size: 0x8, addend: 0x0, symName: '__ZN4core3ptr75drop_in_place$LT$alloc..boxed..Box$LT$syn..generics..TypeParamBound$GT$$GT$17h3bc4a83ac7001746E', symObjAddr: 0x4ED0, symBinAddr: 0x36BC0, symSize: 0x180 }
  - { offsetInCU: 0x18172, offset: 0x13D270, size: 0x8, addend: 0x0, symName: '__ZN4core3ptr86drop_in_place$LT$syn..punctuated..Punctuated$LT$syn..pat..Pat$C$syn..token..Or$GT$$GT$17h6e5a3d57d68a4f42E', symObjAddr: 0x5050, symBinAddr: 0x36D40, symSize: 0x120 }
  - { offsetInCU: 0x185ED, offset: 0x13D6EB, size: 0x8, addend: 0x0, symName: '__ZN4core3ptr87drop_in_place$LT$core..option..Option$LT$alloc..boxed..Box$LT$syn..pat..Pat$GT$$GT$$GT$17h971d1a8979b5c3acE', symObjAddr: 0x5170, symBinAddr: 0x36E60, symSize: 0x50 }
  - { offsetInCU: 0x1875D, offset: 0x13D85B, size: 0x8, addend: 0x0, symName: '__ZN4core3ptr87drop_in_place$LT$core..option..Option$LT$alloc..boxed..Box$LT$syn..ty..Type$GT$$GT$$GT$17hd50f5fde669883c6E', symObjAddr: 0x51C0, symBinAddr: 0x36EB0, symSize: 0x50 }
  - { offsetInCU: 0x188EC, offset: 0x13D9EA, size: 0x8, addend: 0x0, symName: '__ZN4core3ptr89drop_in_place$LT$$LP$syn..expr..Member$C$syn_derive..FieldAttr$C$syn..data..Field$RP$$GT$17hb128f459b8c58553E.llvm.6678018727064701510', symObjAddr: 0x5210, symBinAddr: 0x36F00, symSize: 0xA0 }
  - { offsetInCU: 0x18C02, offset: 0x13DD00, size: 0x8, addend: 0x0, symName: '__ZN4core3ptr89drop_in_place$LT$core..option..Option$LT$alloc..boxed..Box$LT$syn..expr..Expr$GT$$GT$$GT$17h3a2e7b4c2e1e147bE', symObjAddr: 0x52B0, symBinAddr: 0x36FA0, symSize: 0x50 }
  - { offsetInCU: 0x18DB0, offset: 0x13DEAE, size: 0x8, addend: 0x0, symName: '__ZN4core3ptr89drop_in_place$LT$syn..punctuated..Punctuated$LT$syn..pat..Pat$C$syn..token..Comma$GT$$GT$17h8c96c487d05be04aE', symObjAddr: 0x5300, symBinAddr: 0x36FF0, symSize: 0x120 }
  - { offsetInCU: 0x19280, offset: 0x13E37E, size: 0x8, addend: 0x0, symName: '__ZN4core3ptr91drop_in_place$LT$syn..punctuated..Punctuated$LT$syn..expr..Expr$C$syn..token..Comma$GT$$GT$17h563634c74cd05d53E', symObjAddr: 0x5420, symBinAddr: 0x37110, symSize: 0x120 }
  - { offsetInCU: 0x1970E, offset: 0x13E80C, size: 0x8, addend: 0x0, symName: '__ZN4core3ptr94drop_in_place$LT$syn..punctuated..Punctuated$LT$syn..pat..FieldPat$C$syn..token..Comma$GT$$GT$17h7b4e4a7ea240f530E', symObjAddr: 0x5540, symBinAddr: 0x37230, symSize: 0xF0 }
  - { offsetInCU: 0x19A0D, offset: 0x13EB0B, size: 0x8, addend: 0x0, symName: '__ZN4core3ptr94drop_in_place$LT$syn..punctuated..Punctuated$LT$syn..ty..BareFnArg$C$syn..token..Comma$GT$$GT$17h68c2fcf6a8a1f668E', symObjAddr: 0x5630, symBinAddr: 0x37320, symSize: 0xF0 }
  - { offsetInCU: 0x19D0E, offset: 0x13EE0C, size: 0x8, addend: 0x0, symName: '__ZN4core3ptr96drop_in_place$LT$core..option..Option$LT$alloc..boxed..Box$LT$syn..path..PathSegment$GT$$GT$$GT$17h6c41ebc14073cbbfE', symObjAddr: 0x5720, symBinAddr: 0x37410, symSize: 0x1A0 }
  - { offsetInCU: 0x1A3CF, offset: 0x13F4CD, size: 0x8, addend: 0x0, symName: '__ZN4core3ptr97drop_in_place$LT$syn..punctuated..Punctuated$LT$syn..expr..FieldValue$C$syn..token..Comma$GT$$GT$17hcc5ef78a22176d9dE', symObjAddr: 0x58C0, symBinAddr: 0x375B0, symSize: 0xF0 }
  - { offsetInCU: 0x1A748, offset: 0x13F846, size: 0x8, addend: 0x0, symName: '__ZN4core3ptr98drop_in_place$LT$syn..punctuated..Punctuated$LT$syn..lifetime..Lifetime$C$syn..token..Plus$GT$$GT$17h16305e47cc41acd9E', symObjAddr: 0x59B0, symBinAddr: 0x376A0, symSize: 0xD0 }
  - { offsetInCU: 0x24926, offset: 0x149A24, size: 0x8, addend: 0x0, symName: '__ZN4core4iter8adapters8peekable17Peekable$LT$I$GT$7next_if17h7f1986200034187cE', symObjAddr: 0x5A80, symBinAddr: 0x37770, symSize: 0x1ED }
  - { offsetInCU: 0x1E, offset: 0x14BA59, size: 0x8, addend: 0x0, symName: __ZN16proc_macro_error11entry_point17h07770574b6dd0845E, symObjAddr: 0x0, symBinAddr: 0x37960, symSize: 0x460 }
  - { offsetInCU: 0x796, offset: 0x14C1D1, size: 0x8, addend: 0x0, symName: '__ZN16proc_macro_error11entry_point28_$u7b$$u7b$closure$u7d$$u7d$17h1d3cf279821566b2E', symObjAddr: 0x8C0, symBinAddr: 0x38220, symSize: 0x330 }
  - { offsetInCU: 0xDE4, offset: 0x14C81F, size: 0x8, addend: 0x0, symName: __ZN16proc_macro_error11entry_point17h07770574b6dd0845E, symObjAddr: 0x0, symBinAddr: 0x37960, symSize: 0x460 }
  - { offsetInCU: 0x1BF9, offset: 0x14D634, size: 0x8, addend: 0x0, symName: __ZN16proc_macro_error11entry_point17hed3a89ea017fbfbbE, symObjAddr: 0x460, symBinAddr: 0x37DC0, symSize: 0x460 }
  - { offsetInCU: 0x40EA, offset: 0x14FB25, size: 0x8, addend: 0x0, symName: '__ZN4core3ptr38drop_in_place$LT$syn..error..Error$GT$17h45914e4072eb53a1E', symObjAddr: 0xBF0, symBinAddr: 0x38550, symSize: 0x90 }
  - { offsetInCU: 0x4471, offset: 0x14FEAC, size: 0x8, addend: 0x0, symName: '__ZN4core3ptr45drop_in_place$LT$proc_macro2..TokenStream$GT$17he3fed67fc3446852E', symObjAddr: 0xC80, symBinAddr: 0x385E0, symSize: 0x140 }
  - { offsetInCU: 0x48CD, offset: 0x150308, size: 0x8, addend: 0x0, symName: '__ZN4core3ptr65drop_in_place$LT$alloc..vec..Vec$LT$proc_macro..TokenTree$GT$$GT$17h221fedaf9965a430E', symObjAddr: 0xDC0, symBinAddr: 0x38720, symSize: 0x110 }
  - { offsetInCU: 0x4CC5, offset: 0x150700, size: 0x8, addend: 0x0, symName: '__ZN4core3ptr84drop_in_place$LT$alloc..vec..Vec$LT$proc_macro_error..diagnostic..Diagnostic$GT$$GT$17hfd8b68d403cc2875E', symObjAddr: 0xED0, symBinAddr: 0x38830, symSize: 0xC0 }
  - { offsetInCU: 0x4F83, offset: 0x1509BE, size: 0x8, addend: 0x0, symName: '__ZN4core3ptr91drop_in_place$LT$alloc..boxed..Box$LT$dyn$u20$core..any..Any$u2b$core..marker..Send$GT$$GT$17h65aa3f610f006630E', symObjAddr: 0xF90, symBinAddr: 0x388F0, symSize: 0x67 }
  - { offsetInCU: 0x1E, offset: 0x15B549, size: 0x8, addend: 0x0, symName: '__ZN4core3ptr73drop_in_place$LT$core..cell..UnsafeCell$LT$syn..parse..Unexpected$GT$$GT$17h5104a9b05448e0d0E.llvm.6155317424967106055', symObjAddr: 0x0, symBinAddr: 0x38960, symSize: 0x50 }
  - { offsetInCU: 0xB7D, offset: 0x15C0A8, size: 0x8, addend: 0x0, symName: '__ZN4core3ptr73drop_in_place$LT$core..cell..UnsafeCell$LT$syn..parse..Unexpected$GT$$GT$17h5104a9b05448e0d0E.llvm.6155317424967106055', symObjAddr: 0x0, symBinAddr: 0x38960, symSize: 0x50 }
  - { offsetInCU: 0x171C, offset: 0x15CC47, size: 0x8, addend: 0x0, symName: '__ZN68_$LT$alloc..rc..Rc$LT$T$C$A$GT$$u20$as$u20$core..ops..drop..Drop$GT$4drop17h15661045f8abc8a2E', symObjAddr: 0x100, symBinAddr: 0x389B0, symSize: 0x40 }
  - { offsetInCU: 0x1990, offset: 0x15CEBB, size: 0x8, addend: 0x0, symName: '__ZN68_$LT$alloc..rc..Rc$LT$T$C$A$GT$$u20$as$u20$core..ops..drop..Drop$GT$4drop17h53532050f76e3801E', symObjAddr: 0x140, symBinAddr: 0x389F0, symSize: 0xE0 }
  - { offsetInCU: 0x2149, offset: 0x15D674, size: 0x8, addend: 0x0, symName: '__ZN80_$LT$alloc..rc..UniqueRcUninit$LT$T$C$A$GT$$u20$as$u20$core..ops..drop..Drop$GT$4drop17h6aae7f27090c872cE', symObjAddr: 0x220, symBinAddr: 0x38AD0, symSize: 0x4F }
  - { offsetInCU: 0x1E, offset: 0x15E0E5, size: 0x8, addend: 0x0, symName: __ZN3syn5error4new217h5e2e95d0ad04f206E, symObjAddr: 0x0, symBinAddr: 0x38B20, symSize: 0x100 }
  - { offsetInCU: 0x35, offset: 0x15E0FC, size: 0x8, addend: 0x0, symName: _anon.24d2e85eae167f1cab72a310ccea9789.0.llvm.11908699342518432473, symObjAddr: 0x8C0, symBinAddr: 0x2583F8, symSize: 0x0 }
  - { offsetInCU: 0x1D6, offset: 0x15E29D, size: 0x8, addend: 0x0, symName: '__ZN58_$LT$alloc..string..String$u20$as$u20$core..fmt..Write$GT$10write_char17h04bc467bd68a934bE.llvm.11908699342518432473', symObjAddr: 0x430, symBinAddr: 0x38ED0, symSize: 0x140 }
  - { offsetInCU: 0x5DC, offset: 0x15E6A3, size: 0x8, addend: 0x0, symName: '__ZN58_$LT$alloc..string..String$u20$as$u20$core..fmt..Write$GT$9write_str17h46a93205c3443fbaE.llvm.11908699342518432473', symObjAddr: 0x570, symBinAddr: 0x39010, symSize: 0x60 }
  - { offsetInCU: 0x1380, offset: 0x15F447, size: 0x8, addend: 0x0, symName: '__ZN4core3ptr38drop_in_place$LT$syn..error..Error$GT$17h45914e4072eb53a1E.llvm.11908699342518432473', symObjAddr: 0x360, symBinAddr: 0x38E00, symSize: 0x90 }
  - { offsetInCU: 0x162E, offset: 0x15F6F5, size: 0x8, addend: 0x0, symName: '__ZN4core3ptr42drop_in_place$LT$alloc..string..String$GT$17h4befb579cf745957E.llvm.11908699342518432473', symObjAddr: 0x3F0, symBinAddr: 0x38E90, symSize: 0x20 }
  - { offsetInCU: 0x1A7D, offset: 0x15FB44, size: 0x8, addend: 0x0, symName: '__ZN53_$LT$core..fmt..Error$u20$as$u20$core..fmt..Debug$GT$3fmt17h03dc662ab152f3aeE.llvm.11908699342518432473', symObjAddr: 0x410, symBinAddr: 0x38EB0, symSize: 0x20 }
  - { offsetInCU: 0x1FA4, offset: 0x16006B, size: 0x8, addend: 0x0, symName: _anon.24d2e85eae167f1cab72a310ccea9789.4.llvm.11908699342518432473, symObjAddr: 0x908, symBinAddr: 0x258440, symSize: 0x0 }
  - { offsetInCU: 0x2126, offset: 0x1601ED, size: 0x8, addend: 0x0, symName: __ZN3syn5error4new217h5e2e95d0ad04f206E, symObjAddr: 0x0, symBinAddr: 0x38B20, symSize: 0x100 }
  - { offsetInCU: 0x2770, offset: 0x160837, size: 0x8, addend: 0x0, symName: __ZN3syn5error5Error3new17h5ea5d7d3f3a1d0cfE, symObjAddr: 0x180, symBinAddr: 0x38C20, symSize: 0xF0 }
  - { offsetInCU: 0x2AF2, offset: 0x160BB9, size: 0x8, addend: 0x0, symName: __ZN3syn5error5Error3new17h7f5c24ad02eb40f0E, symObjAddr: 0x270, symBinAddr: 0x38D10, symSize: 0xF0 }
  - { offsetInCU: 0x30A7, offset: 0x16116E, size: 0x8, addend: 0x0, symName: '__ZN54_$LT$syn..error..Error$u20$as$u20$syn_derive..Emit$GT$4emit17hc647d6f2da1ed3b6E', symObjAddr: 0x5D0, symBinAddr: 0x39070, symSize: 0x274 }
  - { offsetInCU: 0x7AF, offset: 0x162CF5, size: 0x8, addend: 0x0, symName: '__ZN68_$LT$$RF$str$u20$as$u20$proc_macro..bridge..rpc..Encode$LT$S$GT$$GT$6encode17h63e13a13d1d3f4f9E', symObjAddr: 0x80, symBinAddr: 0x392F0, symSize: 0x230 }
  - { offsetInCU: 0x1E, offset: 0x163354, size: 0x8, addend: 0x0, symName: '__ZN120_$LT$proc_macro2..fallback..TokenStream$u20$as$u20$core..iter..traits..collect..Extend$LT$proc_macro2..TokenTree$GT$$GT$6extend17h7d5fa08e0215ed04E', symObjAddr: 0x0, symBinAddr: 0x39520, symSize: 0x280 }
  - { offsetInCU: 0x9AC, offset: 0x163CE2, size: 0x8, addend: 0x0, symName: '__ZN120_$LT$proc_macro2..fallback..TokenStream$u20$as$u20$core..iter..traits..collect..Extend$LT$proc_macro2..TokenTree$GT$$GT$6extend17h7d5fa08e0215ed04E', symObjAddr: 0x0, symBinAddr: 0x39520, symSize: 0x280 }
  - { offsetInCU: 0x1B84, offset: 0x164EBA, size: 0x8, addend: 0x0, symName: '__ZN4core3ptr45drop_in_place$LT$proc_macro2..TokenStream$GT$17he3fed67fc3446852E', symObjAddr: 0x280, symBinAddr: 0x397A0, symSize: 0x140 }
  - { offsetInCU: 0x1FE0, offset: 0x165316, size: 0x8, addend: 0x0, symName: '__ZN4core3ptr56drop_in_place$LT$proc_macro2..token_stream..IntoIter$GT$17he8e33f9bc7e51e09E', symObjAddr: 0x3C0, symBinAddr: 0x398E0, symSize: 0x20 }
  - { offsetInCU: 0x2090, offset: 0x1653C6, size: 0x8, addend: 0x0, symName: '__ZN4core3ptr65drop_in_place$LT$alloc..vec..Vec$LT$proc_macro..TokenTree$GT$$GT$17h221fedaf9965a430E', symObjAddr: 0x3E0, symBinAddr: 0x39900, symSize: 0x110 }
  - { offsetInCU: 0x491, offset: 0x167558, size: 0x8, addend: 0x0, symName: __ZN10proc_macro6bridge6client10run_client17h0cb1f6981d292ea2E, symObjAddr: 0x190, symBinAddr: 0x39A10, symSize: 0x2E0 }
  - { offsetInCU: 0xB87, offset: 0x167C4E, size: 0x8, addend: 0x0, symName: __ZN10proc_macro6bridge6client10run_client17h6f9ba31868f5a58bE, symObjAddr: 0x470, symBinAddr: 0x39CF0, symSize: 0x2DD }
  - { offsetInCU: 0x1E, offset: 0x169B4E, size: 0x8, addend: 0x0, symName: __ZN4core3fmt5Write9write_fmt17h4ec2700dae675e03E, symObjAddr: 0x0, symBinAddr: 0x39FD0, symSize: 0x20 }
  - { offsetInCU: 0x98, offset: 0x169BC8, size: 0x8, addend: 0x0, symName: '__ZN58_$LT$alloc..string..String$u20$as$u20$core..fmt..Write$GT$10write_char17h04bc467bd68a934bE', symObjAddr: 0x40, symBinAddr: 0x3A010, symSize: 0x140 }
  - { offsetInCU: 0x49D, offset: 0x169FCD, size: 0x8, addend: 0x0, symName: '__ZN58_$LT$alloc..string..String$u20$as$u20$core..fmt..Write$GT$9write_str17h46a93205c3443fbaE', symObjAddr: 0x180, symBinAddr: 0x3A150, symSize: 0x5B }
  - { offsetInCU: 0xAC1, offset: 0x16A5F1, size: 0x8, addend: 0x0, symName: '__ZN4core3ptr42drop_in_place$LT$alloc..string..String$GT$17h4befb579cf745957E', symObjAddr: 0x20, symBinAddr: 0x39FF0, symSize: 0x20 }
  - { offsetInCU: 0xE54, offset: 0x16A984, size: 0x8, addend: 0x0, symName: __ZN4core3fmt5Write9write_fmt17h4ec2700dae675e03E, symObjAddr: 0x0, symBinAddr: 0x39FD0, symSize: 0x20 }
  - { offsetInCU: 0x1E, offset: 0x16B43A, size: 0x8, addend: 0x0, symName: '__ZN4core3ptr43drop_in_place$LT$proc_macro2..TokenTree$GT$17hd0797a3d37d6e6afE.llvm.1779330139198045755', symObjAddr: 0x0, symBinAddr: 0x3A1B0, symSize: 0xB0 }
  - { offsetInCU: 0xF36, offset: 0x16C352, size: 0x8, addend: 0x0, symName: '__ZN4core3ptr43drop_in_place$LT$proc_macro2..TokenTree$GT$17hd0797a3d37d6e6afE.llvm.1779330139198045755', symObjAddr: 0x0, symBinAddr: 0x3A1B0, symSize: 0xB0 }
  - { offsetInCU: 0x1BF6, offset: 0x16D012, size: 0x8, addend: 0x0, symName: '__ZN86_$LT$alloc..vec..into_iter..IntoIter$LT$T$C$A$GT$$u20$as$u20$core..ops..drop..Drop$GT$4drop17ha4007594b21bec65E', symObjAddr: 0xB0, symBinAddr: 0x3A260, symSize: 0x110 }
  - { offsetInCU: 0x1FEC, offset: 0x16D408, size: 0x8, addend: 0x0, symName: '__ZN86_$LT$alloc..vec..into_iter..IntoIter$LT$T$C$A$GT$$u20$as$u20$core..ops..drop..Drop$GT$4drop17hec9370ec4c9d7944E', symObjAddr: 0x1C0, symBinAddr: 0x3A370, symSize: 0xCD }
  - { offsetInCU: 0x1E, offset: 0x16E070, size: 0x8, addend: 0x0, symName: '__ZN10proc_macro6bridge100_$LT$impl$u20$proc_macro..bridge..rpc..Encode$LT$S$GT$$u20$for$u20$core..option..Option$LT$T$GT$$GT$6encode17h6d466c0724fc88edE', symObjAddr: 0x0, symBinAddr: 0x3A440, symSize: 0x350 }
  - { offsetInCU: 0x312, offset: 0x16E364, size: 0x8, addend: 0x0, symName: '__ZN4core3ptr45drop_in_place$LT$proc_macro2..TokenStream$GT$17he3fed67fc3446852E.llvm.5281461785164809945', symObjAddr: 0x590, symBinAddr: 0x3A9D0, symSize: 0x140 }
  - { offsetInCU: 0x76E, offset: 0x16E7C0, size: 0x8, addend: 0x0, symName: '__ZN4core3ptr65drop_in_place$LT$alloc..vec..Vec$LT$proc_macro..TokenTree$GT$$GT$17h221fedaf9965a430E.llvm.5281461785164809945', symObjAddr: 0x6D0, symBinAddr: 0x3AB10, symSize: 0x110 }
  - { offsetInCU: 0xF46, offset: 0x16EF98, size: 0x8, addend: 0x0, symName: '__ZN10proc_macro6bridge100_$LT$impl$u20$proc_macro..bridge..rpc..Encode$LT$S$GT$$u20$for$u20$core..option..Option$LT$T$GT$$GT$6encode17h6d466c0724fc88edE', symObjAddr: 0x0, symBinAddr: 0x3A440, symSize: 0x350 }
  - { offsetInCU: 0x14EF, offset: 0x16F541, size: 0x8, addend: 0x0, symName: '__ZN10proc_macro6bridge100_$LT$impl$u20$proc_macro..bridge..rpc..Encode$LT$S$GT$$u20$for$u20$core..option..Option$LT$T$GT$$GT$6encode17hac0ba48adf65a5d2E', symObjAddr: 0x350, symBinAddr: 0x3A790, symSize: 0x240 }
  - { offsetInCU: 0x1E, offset: 0x170C92, size: 0x8, addend: 0x0, symName: '__ZN115_$LT$proc_macro2..imp..TokenStream$u20$as$u20$core..iter..traits..collect..Extend$LT$proc_macro2..TokenTree$GT$$GT$6extend17h8a5b5f9897aa1339E', symObjAddr: 0x0, symBinAddr: 0x3AC20, symSize: 0x110 }
  - { offsetInCU: 0x78B, offset: 0x1713FF, size: 0x8, addend: 0x0, symName: '__ZN115_$LT$proc_macro2..imp..TokenStream$u20$as$u20$core..iter..traits..collect..Extend$LT$proc_macro2..TokenTree$GT$$GT$6extend17h8a5b5f9897aa1339E', symObjAddr: 0x0, symBinAddr: 0x3AC20, symSize: 0x110 }
  - { offsetInCU: 0x1675, offset: 0x1722E9, size: 0x8, addend: 0x0, symName: '__ZN4core3ptr56drop_in_place$LT$proc_macro2..token_stream..IntoIter$GT$17he8e33f9bc7e51e09E.llvm.13492767277422399179', symObjAddr: 0x130, symBinAddr: 0x3AD30, symSize: 0x20 }
  - { offsetInCU: 0x1E, offset: 0x1726AF, size: 0x8, addend: 0x0, symName: '__ZN10proc_macro6bridge104_$LT$impl$u20$proc_macro..bridge..rpc..Encode$LT$S$GT$$u20$for$u20$core..result..Result$LT$T$C$E$GT$$GT$6encode17h1764514c1957103cE', symObjAddr: 0x0, symBinAddr: 0x3AD50, symSize: 0x300 }
  - { offsetInCU: 0x149, offset: 0x1727DA, size: 0x8, addend: 0x0, symName: '__ZN10proc_macro6bridge104_$LT$impl$u20$proc_macro..bridge..rpc..Encode$LT$S$GT$$u20$for$u20$core..result..Result$LT$T$C$E$GT$$GT$6encode17h1764514c1957103cE', symObjAddr: 0x0, symBinAddr: 0x3AD50, symSize: 0x300 }
  - { offsetInCU: 0x5E7, offset: 0x172C78, size: 0x8, addend: 0x0, symName: '__ZN10proc_macro6bridge104_$LT$impl$u20$proc_macro..bridge..rpc..Encode$LT$S$GT$$u20$for$u20$core..result..Result$LT$T$C$E$GT$$GT$6encode17he157a291c6273d2cE', symObjAddr: 0x300, symBinAddr: 0x3B050, symSize: 0x280 }
  - { offsetInCU: 0x1E, offset: 0x173935, size: 0x8, addend: 0x0, symName: '__ZN4core3ptr45drop_in_place$LT$proc_macro2..TokenStream$GT$17he3fed67fc3446852E.llvm.3473082487014616510', symObjAddr: 0x0, symBinAddr: 0x3B2D0, symSize: 0x140 }
  - { offsetInCU: 0xB2C, offset: 0x174443, size: 0x8, addend: 0x0, symName: '__ZN4core3ptr45drop_in_place$LT$proc_macro2..TokenStream$GT$17he3fed67fc3446852E.llvm.3473082487014616510', symObjAddr: 0x0, symBinAddr: 0x3B2D0, symSize: 0x140 }
  - { offsetInCU: 0xF88, offset: 0x17489F, size: 0x8, addend: 0x0, symName: '__ZN4core3ptr65drop_in_place$LT$alloc..vec..Vec$LT$proc_macro..TokenTree$GT$$GT$17h221fedaf9965a430E.llvm.3473082487014616510', symObjAddr: 0x140, symBinAddr: 0x3B410, symSize: 0x110 }
  - { offsetInCU: 0x1E, offset: 0x17562E, size: 0x8, addend: 0x0, symName: '__ZN4core3ptr45drop_in_place$LT$proc_macro2..TokenStream$GT$17he3fed67fc3446852E.llvm.15072641824363671579', symObjAddr: 0x0, symBinAddr: 0x3B520, symSize: 0x140 }
  - { offsetInCU: 0xB2C, offset: 0x17613C, size: 0x8, addend: 0x0, symName: '__ZN4core3ptr45drop_in_place$LT$proc_macro2..TokenStream$GT$17he3fed67fc3446852E.llvm.15072641824363671579', symObjAddr: 0x0, symBinAddr: 0x3B520, symSize: 0x140 }
  - { offsetInCU: 0xF88, offset: 0x176598, size: 0x8, addend: 0x0, symName: '__ZN4core3ptr65drop_in_place$LT$alloc..vec..Vec$LT$proc_macro..TokenTree$GT$$GT$17h221fedaf9965a430E.llvm.15072641824363671579', symObjAddr: 0x140, symBinAddr: 0x3B660, symSize: 0x110 }
  - { offsetInCU: 0xA6E, offset: 0x177D77, size: 0x8, addend: 0x0, symName: '__ZN4core3ptr45drop_in_place$LT$proc_macro2..TokenStream$GT$17he3fed67fc3446852E.llvm.2828824929480428055', symObjAddr: 0xA0, symBinAddr: 0x3B770, symSize: 0x140 }
  - { offsetInCU: 0xECA, offset: 0x1781D3, size: 0x8, addend: 0x0, symName: '__ZN4core3ptr65drop_in_place$LT$alloc..vec..Vec$LT$proc_macro..TokenTree$GT$$GT$17h221fedaf9965a430E.llvm.2828824929480428055', symObjAddr: 0x1E0, symBinAddr: 0x3B8B0, symSize: 0x110 }
  - { offsetInCU: 0x1E, offset: 0x1791BC, size: 0x8, addend: 0x0, symName: '__ZN4core3ptr45drop_in_place$LT$proc_macro2..TokenStream$GT$17he3fed67fc3446852E.llvm.15260292894945471738', symObjAddr: 0x0, symBinAddr: 0x3B9C0, symSize: 0x140 }
  - { offsetInCU: 0xB2C, offset: 0x179CCA, size: 0x8, addend: 0x0, symName: '__ZN4core3ptr45drop_in_place$LT$proc_macro2..TokenStream$GT$17he3fed67fc3446852E.llvm.15260292894945471738', symObjAddr: 0x0, symBinAddr: 0x3B9C0, symSize: 0x140 }
  - { offsetInCU: 0xF88, offset: 0x17A126, size: 0x8, addend: 0x0, symName: '__ZN4core3ptr65drop_in_place$LT$alloc..vec..Vec$LT$proc_macro..TokenTree$GT$$GT$17h221fedaf9965a430E.llvm.15260292894945471738', symObjAddr: 0x140, symBinAddr: 0x3BB00, symSize: 0x110 }
  - { offsetInCU: 0x1E, offset: 0x17AEB5, size: 0x8, addend: 0x0, symName: __ZN10proc_macro6bridge14selfless_reify31reify_to_extern_c_fn_hrt_bridge7wrapper17hd20e00cb1a73ef29E, symObjAddr: 0x0, symBinAddr: 0x3BC10, symSize: 0x30 }
  - { offsetInCU: 0x1CF, offset: 0x17B066, size: 0x8, addend: 0x0, symName: __ZN10proc_macro6bridge14selfless_reify31reify_to_extern_c_fn_hrt_bridge7wrapper17hd20e00cb1a73ef29E, symObjAddr: 0x0, symBinAddr: 0x3BC10, symSize: 0x30 }
  - { offsetInCU: 0x248, offset: 0x17B0DF, size: 0x8, addend: 0x0, symName: __ZN10proc_macro6bridge14selfless_reify31reify_to_extern_c_fn_hrt_bridge7wrapper17hf6f1a7798986f3beE, symObjAddr: 0x30, symBinAddr: 0x3BC40, symSize: 0x25 }
  - { offsetInCU: 0x1E, offset: 0x17B335, size: 0x8, addend: 0x0, symName: '__ZN77_$LT$$LP$A$C$B$RP$$u20$as$u20$proc_macro..bridge..rpc..DecodeMut$LT$S$GT$$GT$6decode17h2f06ef3ef5bed068E', symObjAddr: 0x0, symBinAddr: 0x3BC70, symSize: 0xCA }
  - { offsetInCU: 0xB4, offset: 0x17B3CB, size: 0x8, addend: 0x0, symName: '__ZN77_$LT$$LP$A$C$B$RP$$u20$as$u20$proc_macro..bridge..rpc..DecodeMut$LT$S$GT$$GT$6decode17h2f06ef3ef5bed068E', symObjAddr: 0x0, symBinAddr: 0x3BC70, symSize: 0xCA }
  - { offsetInCU: 0x1E, offset: 0x17C634, size: 0x8, addend: 0x0, symName: __ZN5alloc7raw_vec11finish_grow17he2a018ac7fc378cfE.llvm.1660543566101188115, symObjAddr: 0x0, symBinAddr: 0x3BD80, symSize: 0xA0 }
  - { offsetInCU: 0x1D37, offset: 0x17E34D, size: 0x8, addend: 0x0, symName: __ZN5alloc7raw_vec11finish_grow17he2a018ac7fc378cfE.llvm.1660543566101188115, symObjAddr: 0x0, symBinAddr: 0x3BD80, symSize: 0xA0 }
  - { offsetInCU: 0x216F, offset: 0x17E785, size: 0x8, addend: 0x0, symName: '__ZN5alloc7raw_vec19RawVec$LT$T$C$A$GT$7reserve21do_reserve_and_handle17h1ade40acafe33ed7E', symObjAddr: 0x160, symBinAddr: 0x1F2550, symSize: 0xA0 }
  - { offsetInCU: 0x246A, offset: 0x17EA80, size: 0x8, addend: 0x0, symName: '__ZN5alloc7raw_vec19RawVec$LT$T$C$A$GT$7reserve21do_reserve_and_handle17h61a7ba965ad745afE', symObjAddr: 0x200, symBinAddr: 0x1F25F0, symSize: 0xB0 }
  - { offsetInCU: 0x32A2, offset: 0x17F8B8, size: 0x8, addend: 0x0, symName: '__ZN5alloc7raw_vec19RawVec$LT$T$C$A$GT$8grow_one17h4457be03c84ef13eE', symObjAddr: 0x2B0, symBinAddr: 0x3BE20, symSize: 0xA0 }
  - { offsetInCU: 0x3750, offset: 0x17FD66, size: 0x8, addend: 0x0, symName: '__ZN5alloc7raw_vec19RawVec$LT$T$C$A$GT$8grow_one17h6454abd3bca2077aE', symObjAddr: 0x350, symBinAddr: 0x3BEC0, symSize: 0xC0 }
  - { offsetInCU: 0x3C31, offset: 0x180247, size: 0x8, addend: 0x0, symName: '__ZN5alloc7raw_vec19RawVec$LT$T$C$A$GT$8grow_one17h9e0a3e813cb5d66dE', symObjAddr: 0x410, symBinAddr: 0x3BF80, symSize: 0xC0 }
  - { offsetInCU: 0x1E, offset: 0x1805FE, size: 0x8, addend: 0x0, symName: '__ZN48_$LT$T$u20$as$u20$core..clone..CloneToUninit$GT$15clone_to_uninit17h6105eaf2c6aca0b9E', symObjAddr: 0x0, symBinAddr: 0x3C040, symSize: 0x330 }
  - { offsetInCU: 0xEF2, offset: 0x1814D2, size: 0x8, addend: 0x0, symName: '__ZN4core3ptr43drop_in_place$LT$proc_macro2..TokenTree$GT$17h6954326c32dfb2ceE.llvm.13399439320550662891', symObjAddr: 0x330, symBinAddr: 0x3C370, symSize: 0x180 }
  - { offsetInCU: 0x17D3, offset: 0x181DB3, size: 0x8, addend: 0x0, symName: '__ZN4core3ptr55drop_in_place$LT$proc_macro..diagnostic..Diagnostic$GT$17h0bd0a8fbfbb2aff9E.llvm.13399439320550662891', symObjAddr: 0x4B0, symBinAddr: 0x3C4F0, symSize: 0x100 }
  - { offsetInCU: 0x1D15, offset: 0x1822F5, size: 0x8, addend: 0x0, symName: '__ZN4core3ptr66drop_in_place$LT$alloc..vec..Vec$LT$proc_macro2..TokenTree$GT$$GT$17hd2ca789e1f3932f6E', symObjAddr: 0x5B0, symBinAddr: 0x3C5F0, symSize: 0xC0 }
  - { offsetInCU: 0x2069, offset: 0x182649, size: 0x8, addend: 0x0, symName: '__ZN4core3ptr863drop_in_place$LT$core..iter..adapters..flatten..Flatten$LT$core..iter..adapters..map..Map$LT$core..iter..adapters..map..Map$LT$core..iter..adapters..map..Map$LT$core..slice..iter..Iter$LT$$LP$proc_macro_error..SpanRange$C$alloc..string..String$RP$$GT$$C$$LT$proc_macro_error..diagnostic..Diagnostic$u20$as$u20$quote..to_tokens..ToTokens$GT$..to_tokens..$u7b$$u7b$closure$u7d$$u7d$$GT$$C$$LT$proc_macro2..TokenStream$u20$as$u20$core..iter..traits..collect..Extend$LT$proc_macro2..TokenStream$GT$$GT$..extend$LT$core..iter..adapters..map..Map$LT$core..slice..iter..Iter$LT$$LP$proc_macro_error..SpanRange$C$alloc..string..String$RP$$GT$$C$$LT$proc_macro_error..diagnostic..Diagnostic$u20$as$u20$quote..to_tokens..ToTokens$GT$..to_tokens..$u7b$$u7b$closure$u7d$$u7d$$GT$$GT$..$u7b$$u7b$closure$u7d$$u7d$$GT$$C$proc_macro2..imp..TokenStream..unwrap_stable$GT$$GT$$GT$17h8f74949cb505d7ecE', symObjAddr: 0x740, symBinAddr: 0x3C6B0, symSize: 0x60 }
  - { offsetInCU: 0x3226, offset: 0x183806, size: 0x8, addend: 0x0, symName: '__ZN48_$LT$T$u20$as$u20$core..clone..CloneToUninit$GT$15clone_to_uninit17h6105eaf2c6aca0b9E', symObjAddr: 0x0, symBinAddr: 0x3C040, symSize: 0x330 }
  - { offsetInCU: 0x3E06, offset: 0x1843E6, size: 0x8, addend: 0x0, symName: '__ZN70_$LT$alloc..vec..Vec$LT$T$C$A$GT$$u20$as$u20$core..ops..drop..Drop$GT$4drop17h47d7f8a05c422c5dE', symObjAddr: 0x820, symBinAddr: 0x3C710, symSize: 0x80 }
  - { offsetInCU: 0x3FC5, offset: 0x1845A5, size: 0x8, addend: 0x0, symName: '__ZN97_$LT$alloc..vec..Vec$LT$T$C$A$GT$$u20$as$u20$alloc..vec..spec_extend..SpecExtend$LT$T$C$I$GT$$GT$11spec_extend17h973311ad1a4e4aa4E', symObjAddr: 0xA80, symBinAddr: 0x3C790, symSize: 0x30F }
  - { offsetInCU: 0x9D5, offset: 0x188691, size: 0x8, addend: 0x0, symName: '__ZN87_$LT$proc_macro_error..diagnostic..Diagnostic$u20$as$u20$quote..to_tokens..ToTokens$GT$9to_tokens14diag_to_tokens17hf2bf53729dff7e16E', symObjAddr: 0xE40, symBinAddr: 0x3CF20, symSize: 0x540 }
  - { offsetInCU: 0x2718, offset: 0x18A3D4, size: 0x8, addend: 0x0, symName: '__ZN87_$LT$proc_macro_error..diagnostic..Diagnostic$u20$as$u20$quote..to_tokens..ToTokens$GT$9to_tokens17h2b673df4c7c8d706E', symObjAddr: 0xD80, symBinAddr: 0x3CE60, symSize: 0xC0 }
  - { offsetInCU: 0x3179, offset: 0x18AE35, size: 0x8, addend: 0x0, symName: '__ZN4core3ptr45drop_in_place$LT$proc_macro2..TokenStream$GT$17h315b0151e82c5933E', symObjAddr: 0x40, symBinAddr: 0x3CAA0, symSize: 0x140 }
  - { offsetInCU: 0x36AE, offset: 0x18B36A, size: 0x8, addend: 0x0, symName: '__ZN4core3ptr61drop_in_place$LT$proc_macro_error..diagnostic..Diagnostic$GT$17h79f7b956e7678a48E', symObjAddr: 0x180, symBinAddr: 0x3CBE0, symSize: 0xF0 }
  - { offsetInCU: 0x3D3B, offset: 0x18B9F7, size: 0x8, addend: 0x0, symName: '__ZN4core3ptr65drop_in_place$LT$alloc..vec..Vec$LT$proc_macro..TokenTree$GT$$GT$17he5aa1e330bd60b56E', symObjAddr: 0x270, symBinAddr: 0x3CCD0, symSize: 0x110 }
  - { offsetInCU: 0x4EAF, offset: 0x18CB6B, size: 0x8, addend: 0x0, symName: __ZN16proc_macro_error10diagnostic10Diagnostic4emit17hc8ba3e8af4eaf73cE, symObjAddr: 0xA60, symBinAddr: 0x3CDE0, symSize: 0x80 }
  - { offsetInCU: 0xAF8, offset: 0x18F3BC, size: 0x8, addend: 0x0, symName: '__ZN4core3ptr162drop_in_place$LT$std..sys..thread_local..native..lazy..State$LT$core..cell..RefCell$LT$core..option..Option$LT$proc_macro2..TokenStream$GT$$GT$$C$$LP$$RP$$GT$$GT$17h102e16ffc494ca9eE.llvm.5010074420851847691', symObjAddr: 0x1F0, symBinAddr: 0x3D4C0, symSize: 0x180 }
  - { offsetInCU: 0xF9E, offset: 0x18F862, size: 0x8, addend: 0x0, symName: '__ZN4core3ptr65drop_in_place$LT$alloc..vec..Vec$LT$proc_macro..TokenTree$GT$$GT$17he5aa1e330bd60b56E.llvm.5010074420851847691', symObjAddr: 0x370, symBinAddr: 0x3D640, symSize: 0x110 }
  - { offsetInCU: 0x1450, offset: 0x18FD14, size: 0x8, addend: 0x0, symName: '__ZN4core3ptr81drop_in_place$LT$core..result..Result$LT$$LP$$RP$$C$std..io..error..Error$GT$$GT$17h58201db9224bece8E', symObjAddr: 0x480, symBinAddr: 0x3D750, symSize: 0xA0 }
  - { offsetInCU: 0x18BA, offset: 0x19017E, size: 0x8, addend: 0x0, symName: '__ZN4core3ptr82drop_in_place$LT$std..sys..thread_local..abort_on_dtor_unwind..DtorUnwindGuard$GT$17hc26857ee597184f9E', symObjAddr: 0x520, symBinAddr: 0x3D7F0, symSize: 0x49 }
  - { offsetInCU: 0x25D7, offset: 0x190E9B, size: 0x8, addend: 0x0, symName: __ZN3std3sys12thread_local6native4lazy7destroy17h9fe7f0500a49a31aE.llvm.5010074420851847691, symObjAddr: 0x190, symBinAddr: 0x3D460, symSize: 0x60 }
  - { offsetInCU: 0x3693, offset: 0x191F57, size: 0x8, addend: 0x0, symName: '__ZN3std3sys12thread_local6native4lazy20Storage$LT$T$C$D$GT$10initialize17h1edd58868ef20512E', symObjAddr: 0x30, symBinAddr: 0x1F26A0, symSize: 0x120 }
  - { offsetInCU: 0x1E, offset: 0x1929B2, size: 0x8, addend: 0x0, symName: __ZN4core3fmt5Write10write_char17h28cf1bb63a014414E, symObjAddr: 0x0, symBinAddr: 0x3D840, symSize: 0xE0 }
  - { offsetInCU: 0x89, offset: 0x192A1D, size: 0x8, addend: 0x0, symName: '__ZN80_$LT$std..io..Write..write_fmt..Adapter$LT$T$GT$$u20$as$u20$core..fmt..Write$GT$9write_str17hbd7602cea5158349E', symObjAddr: 0x1B0, symBinAddr: 0x3D9F0, symSize: 0xC1 }
  - { offsetInCU: 0xE7E, offset: 0x193812, size: 0x8, addend: 0x0, symName: '__ZN4core3ptr97drop_in_place$LT$std..io..Write..write_fmt..Adapter$LT$std..sys..pal..unix..stdio..Stderr$GT$$GT$17h960e4903d8740475E', symObjAddr: 0x100, symBinAddr: 0x3D940, symSize: 0xB0 }
  - { offsetInCU: 0x14C8, offset: 0x193E5C, size: 0x8, addend: 0x0, symName: __ZN4core3fmt5Write10write_char17h28cf1bb63a014414E, symObjAddr: 0x0, symBinAddr: 0x3D840, symSize: 0xE0 }
  - { offsetInCU: 0x1613, offset: 0x193FA7, size: 0x8, addend: 0x0, symName: __ZN4core3fmt5Write9write_fmt17h5030b434bbf4406fE, symObjAddr: 0xE0, symBinAddr: 0x3D920, symSize: 0x20 }
  - { offsetInCU: 0xF7E, offset: 0x1956B2, size: 0x8, addend: 0x0, symName: '__ZN4core3ptr43drop_in_place$LT$proc_macro2..TokenTree$GT$17h6954326c32dfb2ceE.llvm.10207522403153013869', symObjAddr: 0x20, symBinAddr: 0x3DAC0, symSize: 0xB0 }
  - { offsetInCU: 0x1E17, offset: 0x19654B, size: 0x8, addend: 0x0, symName: '__ZN86_$LT$alloc..vec..into_iter..IntoIter$LT$T$C$A$GT$$u20$as$u20$core..ops..drop..Drop$GT$4drop17h29b6b40d07c07c6bE', symObjAddr: 0xF0, symBinAddr: 0x3DB70, symSize: 0xA0 }
  - { offsetInCU: 0x2129, offset: 0x19685D, size: 0x8, addend: 0x0, symName: '__ZN86_$LT$alloc..vec..into_iter..IntoIter$LT$T$C$A$GT$$u20$as$u20$core..ops..drop..Drop$GT$4drop17hb26ca7b012edfb39E', symObjAddr: 0x190, symBinAddr: 0x3DC10, symSize: 0x80 }
  - { offsetInCU: 0x23D3, offset: 0x196B07, size: 0x8, addend: 0x0, symName: '__ZN86_$LT$alloc..vec..into_iter..IntoIter$LT$T$C$A$GT$$u20$as$u20$core..ops..drop..Drop$GT$4drop17he833b7c49168371bE', symObjAddr: 0x210, symBinAddr: 0x3DC90, symSize: 0x110 }
  - { offsetInCU: 0x27C9, offset: 0x196EFD, size: 0x8, addend: 0x0, symName: '__ZN86_$LT$alloc..vec..into_iter..IntoIter$LT$T$C$A$GT$$u20$as$u20$core..ops..drop..Drop$GT$4drop17hfeec943da453e527E', symObjAddr: 0x320, symBinAddr: 0x3DDA0, symSize: 0xCD }
  - { offsetInCU: 0x1E, offset: 0x198339, size: 0x8, addend: 0x0, symName: '__ZN4core3ptr103drop_in_place$LT$alloc..vec..Vec$LT$$LP$proc_macro_error..SpanRange$C$alloc..string..String$RP$$GT$$GT$17hf46283174779e5b7E', symObjAddr: 0x0, symBinAddr: 0x3DE70, symSize: 0x80 }
  - { offsetInCU: 0x382, offset: 0x19869D, size: 0x8, addend: 0x0, symName: __ZN16proc_macro_error3imp7cleanup17hf7ebed99d3d9eeeaE, symObjAddr: 0x250, symBinAddr: 0x3E030, symSize: 0x50 }
  - { offsetInCU: 0x600, offset: 0x19891B, size: 0x8, addend: 0x0, symName: __ZN16proc_macro_error3imp15emit_diagnostic17hefc7810c23dfd383E, symObjAddr: 0x2A0, symBinAddr: 0x3E080, symSize: 0x83C }
  - { offsetInCU: 0x192D, offset: 0x199C48, size: 0x8, addend: 0x0, symName: '__ZN4core3ptr103drop_in_place$LT$alloc..vec..Vec$LT$$LP$proc_macro_error..SpanRange$C$alloc..string..String$RP$$GT$$GT$17hf46283174779e5b7E', symObjAddr: 0x0, symBinAddr: 0x3DE70, symSize: 0x80 }
  - { offsetInCU: 0x1C19, offset: 0x199F34, size: 0x8, addend: 0x0, symName: '__ZN4core3ptr178drop_in_place$LT$alloc..vec..Vec$LT$$LP$proc_macro_error..diagnostic..SuggestionKind$C$alloc..string..String$C$core..option..Option$LT$proc_macro_error..SpanRange$GT$$RP$$GT$$GT$17hec057a675f57909cE', symObjAddr: 0x80, symBinAddr: 0x3DEF0, symSize: 0x90 }
  - { offsetInCU: 0x20A0, offset: 0x19A3BB, size: 0x8, addend: 0x0, symName: '__ZN4core3ptr55drop_in_place$LT$proc_macro..diagnostic..Diagnostic$GT$17h0bd0a8fbfbb2aff9E', symObjAddr: 0x110, symBinAddr: 0x3DF80, symSize: 0xB0 }
  - { offsetInCU: 0x1E, offset: 0x19D086, size: 0x8, addend: 0x0, symName: __ZN3std2io5Write9write_all17h52b3a3d3e40121afE, symObjAddr: 0x0, symBinAddr: 0x3E8C0, symSize: 0x1B0 }
  - { offsetInCU: 0x35, offset: 0x19D09D, size: 0x8, addend: 0x0, symName: _anon.b1fa53233752a97a013fe46c0633def6.6.llvm.31322287201054758, symObjAddr: 0x4D0, symBinAddr: 0x258558, symSize: 0x0 }
  - { offsetInCU: 0xE8, offset: 0x19D150, size: 0x8, addend: 0x0, symName: __ZN3std2io5Write9write_all17h52b3a3d3e40121afE, symObjAddr: 0x0, symBinAddr: 0x3E8C0, symSize: 0x1B0 }
  - { offsetInCU: 0x736, offset: 0x19D79E, size: 0x8, addend: 0x0, symName: __ZN3std2io5Write9write_fmt17h9d202c69a28e0978E, symObjAddr: 0x1B0, symBinAddr: 0x3EA70, symSize: 0x130 }
  - { offsetInCU: 0x1CB3, offset: 0x19ED1B, size: 0x8, addend: 0x0, symName: '__ZN4core3ptr97drop_in_place$LT$std..io..Write..write_fmt..Adapter$LT$std..sys..pal..unix..stdio..Stderr$GT$$GT$17h960e4903d8740475E.llvm.31322287201054758', symObjAddr: 0x2E0, symBinAddr: 0x3EBA0, symSize: 0xA1 }
  - { offsetInCU: 0x1392, offset: 0x1A106C, size: 0x8, addend: 0x0, symName: '__ZN68_$LT$alloc..rc..Rc$LT$T$C$A$GT$$u20$as$u20$core..ops..drop..Drop$GT$4drop17h5b75bbbdd7ae65e4E', symObjAddr: 0xB0, symBinAddr: 0x3EC50, symSize: 0xE0 }
  - { offsetInCU: 0x18B9, offset: 0x1A1593, size: 0x8, addend: 0x0, symName: '__ZN80_$LT$alloc..rc..UniqueRcUninit$LT$T$C$A$GT$$u20$as$u20$core..ops..drop..Drop$GT$4drop17h6acbdbf63a1ac42aE', symObjAddr: 0x190, symBinAddr: 0x3ED30, symSize: 0x4F }
  - { offsetInCU: 0x1E, offset: 0x1A1E89, size: 0x8, addend: 0x0, symName: '__ZN120_$LT$proc_macro2..fallback..TokenStream$u20$as$u20$core..iter..traits..collect..Extend$LT$proc_macro2..TokenTree$GT$$GT$6extend17h4a8c6327fa99f50aE', symObjAddr: 0x0, symBinAddr: 0x3ED80, symSize: 0x100 }
  - { offsetInCU: 0xA53, offset: 0x1A28BE, size: 0x8, addend: 0x0, symName: '__ZN120_$LT$proc_macro2..fallback..TokenStream$u20$as$u20$core..iter..traits..collect..Extend$LT$proc_macro2..TokenTree$GT$$GT$6extend17h4a8c6327fa99f50aE', symObjAddr: 0x0, symBinAddr: 0x3ED80, symSize: 0x100 }
  - { offsetInCU: 0x1308, offset: 0x1A3173, size: 0x8, addend: 0x0, symName: '__ZN4core3ptr45drop_in_place$LT$proc_macro2..TokenStream$GT$17h315b0151e82c5933E.llvm.1624265653910066399', symObjAddr: 0x150, symBinAddr: 0x3EE80, symSize: 0x140 }
  - { offsetInCU: 0x1764, offset: 0x1A35CF, size: 0x8, addend: 0x0, symName: '__ZN4core3ptr56drop_in_place$LT$proc_macro2..token_stream..IntoIter$GT$17h50910c637199a637E.llvm.1624265653910066399', symObjAddr: 0x290, symBinAddr: 0x3EFC0, symSize: 0x20 }
  - { offsetInCU: 0x1814, offset: 0x1A367F, size: 0x8, addend: 0x0, symName: '__ZN4core3ptr65drop_in_place$LT$alloc..vec..Vec$LT$proc_macro..TokenTree$GT$$GT$17he5aa1e330bd60b56E.llvm.1624265653910066399', symObjAddr: 0x2B0, symBinAddr: 0x3EFE0, symSize: 0x110 }
  - { offsetInCU: 0x2E02, offset: 0x1A4C6D, size: 0x8, addend: 0x0, symName: '__ZN5alloc2rc15Rc$LT$T$C$A$GT$8make_mut17h772ef5ab46b5402eE.llvm.1624265653910066399', symObjAddr: 0x3C0, symBinAddr: 0x3F0F0, symSize: 0x1A1 }
  - { offsetInCU: 0x375, offset: 0x1A62CE, size: 0x8, addend: 0x0, symName: __ZN16proc_macro_error5dummy7cleanup17h025c9a77e3cef86cE, symObjAddr: 0x630, symBinAddr: 0x3F2A0, symSize: 0xB1 }
  - { offsetInCU: 0x1E, offset: 0x1A7F59, size: 0x8, addend: 0x0, symName: __ZN3std9panicking11begin_panic17h143eb27251e0722cE, symObjAddr: 0x0, symBinAddr: 0x1F27C0, symSize: 0x20 }
  - { offsetInCU: 0x7A7, offset: 0x1A86E2, size: 0x8, addend: 0x0, symName: __ZN3std9panicking11begin_panic17h143eb27251e0722cE, symObjAddr: 0x0, symBinAddr: 0x1F27C0, symSize: 0x20 }
  - { offsetInCU: 0x803, offset: 0x1A873E, size: 0x8, addend: 0x0, symName: '__ZN84_$LT$std..panicking..begin_panic..Payload$LT$A$GT$$u20$as$u20$core..fmt..Display$GT$3fmt17h82cd9403a3aed9e1E', symObjAddr: 0x70, symBinAddr: 0x3F360, symSize: 0x40 }
  - { offsetInCU: 0x870, offset: 0x1A87AB, size: 0x8, addend: 0x0, symName: '__ZN91_$LT$std..panicking..begin_panic..Payload$LT$A$GT$$u20$as$u20$core..panic..PanicPayload$GT$3get17h17cd081a0e41f9aaE', symObjAddr: 0xB0, symBinAddr: 0x3F3A0, symSize: 0x20 }
  - { offsetInCU: 0x8A8, offset: 0x1A87E3, size: 0x8, addend: 0x0, symName: '__ZN91_$LT$std..panicking..begin_panic..Payload$LT$A$GT$$u20$as$u20$core..panic..PanicPayload$GT$8take_box17he56a957a0e420fcfE', symObjAddr: 0xF0, symBinAddr: 0x3F3C0, symSize: 0x60 }
  - { offsetInCU: 0x1E, offset: 0x1A8D34, size: 0x8, addend: 0x0, symName: __ZN10proc_macro10diagnostic10Diagnostic10span_error17hf313244efc003fb4E, symObjAddr: 0x0, symBinAddr: 0x3F420, symSize: 0x110 }
  - { offsetInCU: 0x4AC, offset: 0x1A91C2, size: 0x8, addend: 0x0, symName: '__ZN4core3ptr55drop_in_place$LT$proc_macro..diagnostic..Diagnostic$GT$17h0bd0a8fbfbb2aff9E.llvm.15098038761835679695', symObjAddr: 0x5B0, symBinAddr: 0x3F750, symSize: 0xB0 }
  - { offsetInCU: 0xD41, offset: 0x1A9A57, size: 0x8, addend: 0x0, symName: __ZN10proc_macro10diagnostic10Diagnostic10span_error17hf313244efc003fb4E, symObjAddr: 0x0, symBinAddr: 0x3F420, symSize: 0x110 }
  - { offsetInCU: 0xF7B, offset: 0x1A9C91, size: 0x8, addend: 0x0, symName: __ZN10proc_macro10diagnostic10Diagnostic9span_help17ha6887cc12d0e6641E, symObjAddr: 0x370, symBinAddr: 0x3F530, symSize: 0x110 }
  - { offsetInCU: 0x11B5, offset: 0x1A9ECB, size: 0x8, addend: 0x0, symName: __ZN10proc_macro10diagnostic10Diagnostic9span_note17h9d634984227a67f5E, symObjAddr: 0x480, symBinAddr: 0x3F640, symSize: 0x110 }
  - { offsetInCU: 0x1E, offset: 0x1AA48D, size: 0x8, addend: 0x0, symName: '__ZN115_$LT$proc_macro2..imp..TokenStream$u20$as$u20$core..iter..traits..collect..Extend$LT$proc_macro2..TokenTree$GT$$GT$6extend17h071841ef89903b93E', symObjAddr: 0x0, symBinAddr: 0x3F800, symSize: 0x110 }
  - { offsetInCU: 0x78B, offset: 0x1AABFA, size: 0x8, addend: 0x0, symName: '__ZN115_$LT$proc_macro2..imp..TokenStream$u20$as$u20$core..iter..traits..collect..Extend$LT$proc_macro2..TokenTree$GT$$GT$6extend17h071841ef89903b93E', symObjAddr: 0x0, symBinAddr: 0x3F800, symSize: 0x110 }
  - { offsetInCU: 0x1630, offset: 0x1ABA9F, size: 0x8, addend: 0x0, symName: '__ZN4core3ptr56drop_in_place$LT$proc_macro2..token_stream..IntoIter$GT$17h50910c637199a637E.llvm.13064322546804564241', symObjAddr: 0x1D0, symBinAddr: 0x3F910, symSize: 0x1C }
  - { offsetInCU: 0x1E, offset: 0x1ABE79, size: 0x8, addend: 0x0, symName: '__ZN110_$LT$proc_macro..TokenStream$u20$as$u20$core..iter..traits..collect..Extend$LT$proc_macro..TokenStream$GT$$GT$6extend17h07534793c26ccaecE', symObjAddr: 0x0, symBinAddr: 0x3F930, symSize: 0xF0 }
  - { offsetInCU: 0x72, offset: 0x1ABECD, size: 0x8, addend: 0x0, symName: '__ZN110_$LT$proc_macro..TokenStream$u20$as$u20$core..iter..traits..collect..Extend$LT$proc_macro..TokenStream$GT$$GT$6extend17h07534793c26ccaecE', symObjAddr: 0x0, symBinAddr: 0x3F930, symSize: 0xF0 }
  - { offsetInCU: 0x64B, offset: 0x1AC4A6, size: 0x8, addend: 0x0, symName: '__ZN4core3ptr52drop_in_place$LT$proc_macro..ConcatStreamsHelper$GT$17hb7cfd5911b93d91bE.llvm.11380124718235907445', symObjAddr: 0xF0, symBinAddr: 0x3FA20, symSize: 0xBE }
  - { offsetInCU: 0x1E, offset: 0x1AE39F, size: 0x8, addend: 0x0, symName: __ZN3std3sys9backtrace26__rust_end_short_backtrace17hc73c8e246d1710d6E, symObjAddr: 0x0, symBinAddr: 0x3FAE0, symSize: 0x10 }
  - { offsetInCU: 0x66, offset: 0x1AE3E7, size: 0x8, addend: 0x0, symName: '__ZN3std9panicking11begin_panic28_$u7b$$u7b$closure$u7d$$u7d$17h8e2394537f57a051E', symObjAddr: 0x50, symBinAddr: 0x3FAF0, symSize: 0x40 }
  - { offsetInCU: 0xD7, offset: 0x1AE458, size: 0x8, addend: 0x0, symName: __ZN3std3sys9backtrace26__rust_end_short_backtrace17hc73c8e246d1710d6E, symObjAddr: 0x0, symBinAddr: 0x3FAE0, symSize: 0x10 }
  - { offsetInCU: 0x18D, offset: 0x1AE50E, size: 0x8, addend: 0x0, symName: __ZN4core5panic12PanicPayload6as_str17hffd74fd187e65a0cE, symObjAddr: 0xA0, symBinAddr: 0x3FB30, symSize: 0x8 }
  - { offsetInCU: 0x1E, offset: 0x1AE5F1, size: 0x8, addend: 0x0, symName: '__ZN36_$LT$T$u20$as$u20$core..any..Any$GT$7type_id17h0b51aec34e5c4c3bE', symObjAddr: 0x0, symBinAddr: 0x3FB40, symSize: 0x1A }
  - { offsetInCU: 0x3A, offset: 0x1AE60D, size: 0x8, addend: 0x0, symName: '__ZN36_$LT$T$u20$as$u20$core..any..Any$GT$7type_id17h0b51aec34e5c4c3bE', symObjAddr: 0x0, symBinAddr: 0x3FB40, symSize: 0x1A }
  - { offsetInCU: 0x4FCF, offset: 0x1B3690, size: 0x8, addend: 0x0, symName: '__ZN3syn4item7parsing63_$LT$impl$u20$syn..parse..Parse$u20$for$u20$syn..item..Item$GT$5parse17h80cf7aab904a267aE', symObjAddr: 0xCD50, symBinAddr: 0x4B960, symSize: 0x190 }
  - { offsetInCU: 0x555D, offset: 0x1B3C1E, size: 0x8, addend: 0x0, symName: '__ZN3syn4item7parsing68_$LT$impl$u20$syn..parse..Parse$u20$for$u20$syn..item..ItemMacro$GT$5parse17hc5bb9427f98c7017E', symObjAddr: 0xCEE0, symBinAddr: 0x4BAF0, symSize: 0x6B0 }
  - { offsetInCU: 0x61EB, offset: 0x1B48AC, size: 0x8, addend: 0x0, symName: '__ZN3syn4item7parsing74_$LT$impl$u20$syn..parse..Parse$u20$for$u20$syn..item..ItemExternCrate$GT$5parse17h6d46d67dd87b398fE', symObjAddr: 0xD590, symBinAddr: 0x4C1A0, symSize: 0x910 }
  - { offsetInCU: 0x75AC, offset: 0x1B5C6D, size: 0x8, addend: 0x0, symName: '__ZN3syn4item7parsing75_$LT$impl$u20$syn..parse..Parse$u20$for$u20$syn..item..StaticMutability$GT$5parse17h60646f4bbad23fa9E', symObjAddr: 0x1E6F0, symBinAddr: 0x56C20, symSize: 0xA0 }
  - { offsetInCU: 0x775D, offset: 0x1B5E1E, size: 0x8, addend: 0x0, symName: '__ZN3syn4item7parsing68_$LT$impl$u20$syn..parse..Parse$u20$for$u20$syn..item..Signature$GT$5parse17h055acddcceb01c9aE', symObjAddr: 0xF690, symBinAddr: 0x4CAB0, symSize: 0xA90 }
  - { offsetInCU: 0x86FF, offset: 0x1B6DC0, size: 0x8, addend: 0x0, symName: '__ZN3syn4item7parsing67_$LT$impl$u20$syn..parse..Parse$u20$for$u20$syn..item..Receiver$GT$5parse17h7c38822b1e4d7a06E', symObjAddr: 0x10630, symBinAddr: 0x4D540, symSize: 0xA20 }
  - { offsetInCU: 0x98BE, offset: 0x1B7F7F, size: 0x8, addend: 0x0, symName: '__ZN3syn4item7parsing66_$LT$impl$u20$syn..parse..Parse$u20$for$u20$syn..item..ItemMod$GT$5parse17h216506bc1f5b0b64E', symObjAddr: 0x11050, symBinAddr: 0x4DF60, symSize: 0xD80 }
  - { offsetInCU: 0xB61E, offset: 0x1B9CDF, size: 0x8, addend: 0x0, symName: '__ZN3syn4item7parsing73_$LT$impl$u20$syn..parse..Parse$u20$for$u20$syn..item..ItemForeignMod$GT$5parse17ha80c1978f8841fabE', symObjAddr: 0x11DD0, symBinAddr: 0x4ECE0, symSize: 0x720 }
  - { offsetInCU: 0xC9F6, offset: 0x1BB0B7, size: 0x8, addend: 0x0, symName: '__ZN3syn4item7parsing70_$LT$impl$u20$syn..parse..Parse$u20$for$u20$syn..item..ForeignItem$GT$5parse17hae52281c277c1a2fE', symObjAddr: 0x124F0, symBinAddr: 0x4F400, symSize: 0x19B0 }
  - { offsetInCU: 0x10EC4, offset: 0x1BF585, size: 0x8, addend: 0x0, symName: '__ZN3syn4item7parsing69_$LT$impl$u20$syn..parse..Parse$u20$for$u20$syn..item..ItemStruct$GT$5parse17h5f37d45d0509ea74E', symObjAddr: 0x160C0, symBinAddr: 0x50DB0, symSize: 0x720 }
  - { offsetInCU: 0x119B0, offset: 0x1C0071, size: 0x8, addend: 0x0, symName: '__ZN3syn4item7parsing67_$LT$impl$u20$syn..parse..Parse$u20$for$u20$syn..item..ItemEnum$GT$5parse17hcfc041400e96f868E', symObjAddr: 0x167E0, symBinAddr: 0x514D0, symSize: 0x720 }
  - { offsetInCU: 0x1249F, offset: 0x1C0B60, size: 0x8, addend: 0x0, symName: '__ZN3syn4item7parsing68_$LT$impl$u20$syn..parse..Parse$u20$for$u20$syn..item..ItemUnion$GT$5parse17h3bd0150048f99936E', symObjAddr: 0x16F00, symBinAddr: 0x51BF0, symSize: 0x710 }
  - { offsetInCU: 0x12F82, offset: 0x1C1643, size: 0x8, addend: 0x0, symName: '__ZN3syn4item7parsing68_$LT$impl$u20$syn..parse..Parse$u20$for$u20$syn..item..ItemTrait$GT$5parse17hba3917e64180f729E', symObjAddr: 0x17610, symBinAddr: 0x52300, symSize: 0x630 }
  - { offsetInCU: 0x13CAA, offset: 0x1C236B, size: 0x8, addend: 0x0, symName: '__ZN3syn4item7parsing68_$LT$impl$u20$syn..parse..Parse$u20$for$u20$syn..item..TraitItem$GT$5parse17h5e01dedab6d196dfE', symObjAddr: 0x17DA0, symBinAddr: 0x52930, symSize: 0x1B80 }
  - { offsetInCU: 0x198A3, offset: 0x1C7F64, size: 0x8, addend: 0x0, symName: '__ZN3syn4item7parsing70_$LT$impl$u20$syn..parse..Parse$u20$for$u20$syn..item..TraitItemFn$GT$5parse17h386721044cd912e3E', symObjAddr: 0x1A250, symBinAddr: 0x544B0, symSize: 0x850 }
  - { offsetInCU: 0x1AED6, offset: 0x1C9597, size: 0x8, addend: 0x0, symName: '__ZN3syn4item7parsing67_$LT$impl$u20$syn..parse..Parse$u20$for$u20$syn..item..ImplItem$GT$5parse17h6b1c6f6f70b03df2E', symObjAddr: 0x1B350, symBinAddr: 0x54D00, symSize: 0x1BE0 }
  - { offsetInCU: 0x204D4, offset: 0x1CEB95, size: 0x8, addend: 0x0, symName: '__ZN3syn4item7parsing72_$LT$impl$u20$syn..parse..Parse$u20$for$u20$syn..item..ImplItemMacro$GT$5parse17h34a4a0c85418b70aE', symObjAddr: 0x1E3B0, symBinAddr: 0x568E0, symSize: 0x0 }
  - { offsetInCU: 0x20BA1, offset: 0x1CF262, size: 0x8, addend: 0x0, symName: '__ZN3syn4item8printing83_$LT$impl$u20$quote..to_tokens..ToTokens$u20$for$u20$syn..item..ItemExternCrate$GT$9to_tokens17hfe36bc772e4277a0E', symObjAddr: 0x1E790, symBinAddr: 0x56CC0, symSize: 0x250 }
  - { offsetInCU: 0x2115D, offset: 0x1CF81E, size: 0x8, addend: 0x0, symName: '__ZN3syn4item8printing78_$LT$impl$u20$quote..to_tokens..ToTokens$u20$for$u20$syn..item..ItemStatic$GT$9to_tokens17hbc3d5375fc6c771cE', symObjAddr: 0x1EB70, symBinAddr: 0x56F10, symSize: 0x220 }
  - { offsetInCU: 0x21693, offset: 0x1CFD54, size: 0x8, addend: 0x0, symName: '__ZN3syn4item8printing75_$LT$impl$u20$quote..to_tokens..ToTokens$u20$for$u20$syn..item..ItemMod$GT$9to_tokens17h0200f7c6912b0a1cE', symObjAddr: 0x1F050, symBinAddr: 0x57130, symSize: 0x230 }
  - { offsetInCU: 0x21B8F, offset: 0x1D0250, size: 0x8, addend: 0x0, symName: '__ZN3syn4item8printing76_$LT$impl$u20$quote..to_tokens..ToTokens$u20$for$u20$syn..item..ItemType$GT$9to_tokens17he708c67807a0f5e7E', symObjAddr: 0x1F440, symBinAddr: 0x57360, symSize: 0x1C0 }
  - { offsetInCU: 0x21EEE, offset: 0x1D05AF, size: 0x8, addend: 0x0, symName: '__ZN3syn4item8printing76_$LT$impl$u20$quote..to_tokens..ToTokens$u20$for$u20$syn..item..ItemEnum$GT$9to_tokens17h182a12d3a154632dE', symObjAddr: 0x1F600, symBinAddr: 0x57520, symSize: 0x180 }
  - { offsetInCU: 0x221D3, offset: 0x1D0894, size: 0x8, addend: 0x0, symName: '__ZN3syn4item8printing78_$LT$impl$u20$quote..to_tokens..ToTokens$u20$for$u20$syn..item..ItemStruct$GT$9to_tokens17h8172cc7233ca8fbeE', symObjAddr: 0x1F780, symBinAddr: 0x576A0, symSize: 0x220 }
  - { offsetInCU: 0x225B8, offset: 0x1D0C79, size: 0x8, addend: 0x0, symName: '__ZN3syn4item8printing77_$LT$impl$u20$quote..to_tokens..ToTokens$u20$for$u20$syn..item..ItemUnion$GT$9to_tokens17h6c795ad402d2a166E', symObjAddr: 0x1F9A0, symBinAddr: 0x578C0, symSize: 0x180 }
  - { offsetInCU: 0x228C3, offset: 0x1D0F84, size: 0x8, addend: 0x0, symName: '__ZN3syn4item8printing77_$LT$impl$u20$quote..to_tokens..ToTokens$u20$for$u20$syn..item..ItemTrait$GT$9to_tokens17h8121c5f1327add6eE', symObjAddr: 0x1FB20, symBinAddr: 0x57A40, symSize: 0x320 }
  - { offsetInCU: 0x23310, offset: 0x1D19D1, size: 0x8, addend: 0x0, symName: '__ZN3syn4item8printing82_$LT$impl$u20$quote..to_tokens..ToTokens$u20$for$u20$syn..item..ItemTraitAlias$GT$9to_tokens17hc5f43bf815c68949E', symObjAddr: 0x1FE40, symBinAddr: 0x57D60, symSize: 0x330 }
  - { offsetInCU: 0x23BE6, offset: 0x1D22A7, size: 0x8, addend: 0x0, symName: '__ZN3syn4item8printing76_$LT$impl$u20$quote..to_tokens..ToTokens$u20$for$u20$syn..item..ItemImpl$GT$9to_tokens17h0c3a9ddae74c937dE', symObjAddr: 0x20170, symBinAddr: 0x58090, symSize: 0x340 }
  - { offsetInCU: 0x24433, offset: 0x1D2AF4, size: 0x8, addend: 0x0, symName: '__ZN3syn4item8printing77_$LT$impl$u20$quote..to_tokens..ToTokens$u20$for$u20$syn..item..ItemMacro$GT$9to_tokens17haec818905d80644fE', symObjAddr: 0x204B0, symBinAddr: 0x583D0, symSize: 0x190 }
  - { offsetInCU: 0x24867, offset: 0x1D2F28, size: 0x8, addend: 0x0, symName: '__ZN3syn4item8printing82_$LT$impl$u20$quote..to_tokens..ToTokens$u20$for$u20$syn..item..TraitItemConst$GT$9to_tokens17h76e791416bf823d1E', symObjAddr: 0x20790, symBinAddr: 0x58560, symSize: 0x1C0 }
  - { offsetInCU: 0x24BFE, offset: 0x1D32BF, size: 0x8, addend: 0x0, symName: '__ZN3syn4item8printing81_$LT$impl$u20$quote..to_tokens..ToTokens$u20$for$u20$syn..item..TraitItemType$GT$9to_tokens17hbe42b3bab95c6768E', symObjAddr: 0x20AB0, symBinAddr: 0x58720, symSize: 0x240 }
  - { offsetInCU: 0x25042, offset: 0x1D3703, size: 0x8, addend: 0x0, symName: '__ZN3syn4item8printing81_$LT$impl$u20$quote..to_tokens..ToTokens$u20$for$u20$syn..item..ImplItemConst$GT$9to_tokens17hdd48b33068953141E', symObjAddr: 0x20CF0, symBinAddr: 0x58960, symSize: 0x240 }
  - { offsetInCU: 0x254FA, offset: 0x1D3BBB, size: 0x8, addend: 0x0, symName: '__ZN3syn4item8printing80_$LT$impl$u20$quote..to_tokens..ToTokens$u20$for$u20$syn..item..ImplItemType$GT$9to_tokens17hbce09990808c878cE', symObjAddr: 0x21090, symBinAddr: 0x58BA0, symSize: 0x230 }
  - { offsetInCU: 0x259E8, offset: 0x1D40A9, size: 0x8, addend: 0x0, symName: '__ZN3syn4item8printing85_$LT$impl$u20$quote..to_tokens..ToTokens$u20$for$u20$syn..item..ForeignItemStatic$GT$9to_tokens17h378f5a1dfc9fdf33E', symObjAddr: 0x214C0, symBinAddr: 0x58DD0, symSize: 0x200 }
  - { offsetInCU: 0x25E72, offset: 0x1D4533, size: 0x8, addend: 0x0, symName: '__ZN3syn4item8printing83_$LT$impl$u20$quote..to_tokens..ToTokens$u20$for$u20$syn..item..ForeignItemType$GT$9to_tokens17h4ed6b28f8ddb36b2E', symObjAddr: 0x216C0, symBinAddr: 0x58FD0, symSize: 0x190 }
  - { offsetInCU: 0x2617F, offset: 0x1D4840, size: 0x8, addend: 0x0, symName: '__ZN3syn4item8printing77_$LT$impl$u20$quote..to_tokens..ToTokens$u20$for$u20$syn..item..Signature$GT$9to_tokens17h487e336073ff52a3E', symObjAddr: 0x21850, symBinAddr: 0x59160, symSize: 0x330 }
  - { offsetInCU: 0x26956, offset: 0x1D5017, size: 0x8, addend: 0x0, symName: '__ZN3syn4item8printing76_$LT$impl$u20$quote..to_tokens..ToTokens$u20$for$u20$syn..item..Receiver$GT$9to_tokens17h0593f180191f94a9E', symObjAddr: 0x21B80, symBinAddr: 0x59490, symSize: 0x2E0 }
  - { offsetInCU: 0x27105, offset: 0x1D57C6, size: 0x8, addend: 0x0, symName: '__ZN3syn4item8printing76_$LT$impl$u20$quote..to_tokens..ToTokens$u20$for$u20$syn..item..Variadic$GT$9to_tokens17h5d9696317f3ad996E', symObjAddr: 0x21E60, symBinAddr: 0x59770, symSize: 0x130 }
  - { offsetInCU: 0x2741C, offset: 0x1D5ADD, size: 0x8, addend: 0x0, symName: '__ZN62_$LT$syn..item..Item$u20$as$u20$quote..to_tokens..ToTokens$GT$9to_tokens17he7e69ecbc61b7b2cE', symObjAddr: 0x22010, symBinAddr: 0x598A0, symSize: 0x730 }
  - { offsetInCU: 0x28296, offset: 0x1D6957, size: 0x8, addend: 0x0, symName: '__ZN65_$LT$syn..item..UseTree$u20$as$u20$quote..to_tokens..ToTokens$GT$9to_tokens17hee39f883784acb47E', symObjAddr: 0x22740, symBinAddr: 0x59FD0, symSize: 0x310 }
  - { offsetInCU: 0x28B4C, offset: 0x1D720D, size: 0x8, addend: 0x0, symName: '__ZN69_$LT$syn..item..ForeignItem$u20$as$u20$quote..to_tokens..ToTokens$GT$9to_tokens17hb7bfc5d782828218E', symObjAddr: 0x22A50, symBinAddr: 0x5A2E0, symSize: 0x250 }
  - { offsetInCU: 0x28F71, offset: 0x1D7632, size: 0x8, addend: 0x0, symName: '__ZN67_$LT$syn..item..TraitItem$u20$as$u20$quote..to_tokens..ToTokens$GT$9to_tokens17h9010403c8466e854E', symObjAddr: 0x22CA0, symBinAddr: 0x5A530, symSize: 0x2B0 }
  - { offsetInCU: 0x29405, offset: 0x1D7AC6, size: 0x8, addend: 0x0, symName: '__ZN66_$LT$syn..item..ImplItem$u20$as$u20$quote..to_tokens..ToTokens$GT$9to_tokens17h9ce4fd01d680c33dE', symObjAddr: 0x22F50, symBinAddr: 0x5A7E0, symSize: 0x2E0 }
  - { offsetInCU: 0x2A0A1, offset: 0x1D8762, size: 0x8, addend: 0x0, symName: '__ZN3syn3gen5clone67_$LT$impl$u20$core..clone..Clone$u20$for$u20$syn..item..UseTree$GT$5clone17he4721d92d6223b97E', symObjAddr: 0x28540, symBinAddr: 0x5F890, symSize: 0x2A0 }
  - { offsetInCU: 0x2A785, offset: 0x1D8E46, size: 0x8, addend: 0x0, symName: '__ZN3syn3gen5clone71_$LT$impl$u20$core..clone..Clone$u20$for$u20$syn..item..ForeignItem$GT$5clone17hee3f13bdccecaf04E', symObjAddr: 0x23290, symBinAddr: 0x5AAC0, symSize: 0x2A0 }
  - { offsetInCU: 0x2AB64, offset: 0x1D9225, size: 0x8, addend: 0x0, symName: '__ZN3syn3gen5clone77_$LT$impl$u20$core..clone..Clone$u20$for$u20$syn..item..ForeignItemStatic$GT$5clone17h1c013599a1b7e0d2E', symObjAddr: 0x23620, symBinAddr: 0x5AD60, symSize: 0x1E0 }
  - { offsetInCU: 0x2B005, offset: 0x1D96C6, size: 0x8, addend: 0x0, symName: '__ZN3syn3gen5clone75_$LT$impl$u20$core..clone..Clone$u20$for$u20$syn..item..ForeignItemType$GT$5clone17h39c42a7ed9f93bc7E', symObjAddr: 0x23800, symBinAddr: 0x5AF40, symSize: 0x290 }
  - { offsetInCU: 0x2B346, offset: 0x1D9A07, size: 0x8, addend: 0x0, symName: '__ZN3syn3gen5clone68_$LT$impl$u20$core..clone..Clone$u20$for$u20$syn..item..ImplItem$GT$5clone17hfcffd5bef6db6eefE', symObjAddr: 0x23A90, symBinAddr: 0x5B1D0, symSize: 0x1E0 }
  - { offsetInCU: 0x2B688, offset: 0x1D9D49, size: 0x8, addend: 0x0, symName: '__ZN3syn3gen5clone73_$LT$impl$u20$core..clone..Clone$u20$for$u20$syn..item..ImplItemConst$GT$5clone17hcba22f66f4790359E', symObjAddr: 0x23C70, symBinAddr: 0x5B3B0, symSize: 0x3C0 }
  - { offsetInCU: 0x2BA46, offset: 0x1DA107, size: 0x8, addend: 0x0, symName: '__ZN3syn3gen5clone70_$LT$impl$u20$core..clone..Clone$u20$for$u20$syn..item..ImplItemFn$GT$5clone17hfa99a17b751a231eE', symObjAddr: 0x24030, symBinAddr: 0x5B770, symSize: 0x170 }
  - { offsetInCU: 0x2BAF3, offset: 0x1DA1B4, size: 0x8, addend: 0x0, symName: '__ZN3syn3gen5clone72_$LT$impl$u20$core..clone..Clone$u20$for$u20$syn..item..ImplItemType$GT$5clone17h0cbe501e4ceb9fa6E', symObjAddr: 0x24230, symBinAddr: 0x5B8E0, symSize: 0x360 }
  - { offsetInCU: 0x2BEA8, offset: 0x1DA569, size: 0x8, addend: 0x0, symName: '__ZN3syn3gen5clone64_$LT$impl$u20$core..clone..Clone$u20$for$u20$syn..item..Item$GT$5clone17h88393b98a180baddE', symObjAddr: 0x24590, symBinAddr: 0x5BC40, symSize: 0x3C0 }
  - { offsetInCU: 0x2C3FD, offset: 0x1DAABE, size: 0x8, addend: 0x0, symName: '__ZN3syn3gen5clone69_$LT$impl$u20$core..clone..Clone$u20$for$u20$syn..item..ItemConst$GT$5clone17h625d5dfdf97f0db7E', symObjAddr: 0x24950, symBinAddr: 0x5C000, symSize: 0x410 }
  - { offsetInCU: 0x2CBA9, offset: 0x1DB26A, size: 0x8, addend: 0x0, symName: '__ZN3syn3gen5clone68_$LT$impl$u20$core..clone..Clone$u20$for$u20$syn..item..ItemEnum$GT$5clone17hcbd28186f3af1a48E', symObjAddr: 0x24D60, symBinAddr: 0x5C410, symSize: 0x320 }
  - { offsetInCU: 0x2CEAD, offset: 0x1DB56E, size: 0x8, addend: 0x0, symName: '__ZN3syn3gen5clone75_$LT$impl$u20$core..clone..Clone$u20$for$u20$syn..item..ItemExternCrate$GT$5clone17heae6e2f0373fe0bbE', symObjAddr: 0x25080, symBinAddr: 0x5C730, symSize: 0x1A0 }
  - { offsetInCU: 0x2D1C2, offset: 0x1DB883, size: 0x8, addend: 0x0, symName: '__ZN3syn3gen5clone66_$LT$impl$u20$core..clone..Clone$u20$for$u20$syn..item..ItemFn$GT$5clone17h4e6ff2347c0f748eE', symObjAddr: 0x25220, symBinAddr: 0x5C8D0, symSize: 0x190 }
  - { offsetInCU: 0x2D45A, offset: 0x1DBB1B, size: 0x8, addend: 0x0, symName: '__ZN3syn3gen5clone68_$LT$impl$u20$core..clone..Clone$u20$for$u20$syn..item..ItemImpl$GT$5clone17hd2b1c2db65c8a4ebE', symObjAddr: 0x25490, symBinAddr: 0x5CA60, symSize: 0x470 }
  - { offsetInCU: 0x2D92D, offset: 0x1DBFEE, size: 0x8, addend: 0x0, symName: '__ZN3syn3gen5clone69_$LT$impl$u20$core..clone..Clone$u20$for$u20$syn..item..ItemMacro$GT$5clone17h7d6f56f137cac903E', symObjAddr: 0x25900, symBinAddr: 0x5CED0, symSize: 0x120 }
  - { offsetInCU: 0x2DB69, offset: 0x1DC22A, size: 0x8, addend: 0x0, symName: '__ZN3syn3gen5clone67_$LT$impl$u20$core..clone..Clone$u20$for$u20$syn..item..ItemMod$GT$5clone17h08b706d9debac69fE', symObjAddr: 0x25A20, symBinAddr: 0x5CFF0, symSize: 0x200 }
  - { offsetInCU: 0x2DE30, offset: 0x1DC4F1, size: 0x8, addend: 0x0, symName: '__ZN3syn3gen5clone70_$LT$impl$u20$core..clone..Clone$u20$for$u20$syn..item..ItemStatic$GT$5clone17h7d89c79988a48493E', symObjAddr: 0x25C20, symBinAddr: 0x5D1F0, symSize: 0x290 }
  - { offsetInCU: 0x2E501, offset: 0x1DCBC2, size: 0x8, addend: 0x0, symName: '__ZN3syn3gen5clone70_$LT$impl$u20$core..clone..Clone$u20$for$u20$syn..item..ItemStruct$GT$5clone17h25082ded106363f3E', symObjAddr: 0x25EB0, symBinAddr: 0x5D480, symSize: 0x3D0 }
  - { offsetInCU: 0x2E916, offset: 0x1DCFD7, size: 0x8, addend: 0x0, symName: '__ZN3syn3gen5clone69_$LT$impl$u20$core..clone..Clone$u20$for$u20$syn..item..ItemTrait$GT$5clone17ha34a4241e37415ecE', symObjAddr: 0x26280, symBinAddr: 0x5D850, symSize: 0x3E0 }
  - { offsetInCU: 0x2ECA6, offset: 0x1DD367, size: 0x8, addend: 0x0, symName: '__ZN3syn3gen5clone74_$LT$impl$u20$core..clone..Clone$u20$for$u20$syn..item..ItemTraitAlias$GT$5clone17hef59f8a644aff956E', symObjAddr: 0x26660, symBinAddr: 0x5DC30, symSize: 0x320 }
  - { offsetInCU: 0x2F006, offset: 0x1DD6C7, size: 0x8, addend: 0x0, symName: '__ZN3syn3gen5clone68_$LT$impl$u20$core..clone..Clone$u20$for$u20$syn..item..ItemType$GT$5clone17h2cc3a1af26227a5bE', symObjAddr: 0x26980, symBinAddr: 0x5DF50, symSize: 0x350 }
  - { offsetInCU: 0x2F582, offset: 0x1DDC43, size: 0x8, addend: 0x0, symName: '__ZN3syn3gen5clone69_$LT$impl$u20$core..clone..Clone$u20$for$u20$syn..item..ItemUnion$GT$5clone17h9499aeac8cc94731E', symObjAddr: 0x26CD0, symBinAddr: 0x5E2A0, symSize: 0x340 }
  - { offsetInCU: 0x2F8D0, offset: 0x1DDF91, size: 0x8, addend: 0x0, symName: '__ZN3syn3gen5clone67_$LT$impl$u20$core..clone..Clone$u20$for$u20$syn..item..ItemUse$GT$5clone17h83cf32ef390bdd8aE', symObjAddr: 0x27010, symBinAddr: 0x5E5E0, symSize: 0x130 }
  - { offsetInCU: 0x2F990, offset: 0x1DE051, size: 0x8, addend: 0x0, symName: '__ZN3syn3gen5clone68_$LT$impl$u20$core..clone..Clone$u20$for$u20$syn..item..Receiver$GT$5clone17h3f91689b2c338982E', symObjAddr: 0x27140, symBinAddr: 0x5E710, symSize: 0x1B0 }
  - { offsetInCU: 0x2FDA5, offset: 0x1DE466, size: 0x8, addend: 0x0, symName: '__ZN3syn3gen5clone69_$LT$impl$u20$core..clone..Clone$u20$for$u20$syn..item..Signature$GT$5clone17hf28c97c0572e4c68E', symObjAddr: 0x272F0, symBinAddr: 0x5E8C0, symSize: 0x5A0 }
  - { offsetInCU: 0x3055D, offset: 0x1DEC1E, size: 0x8, addend: 0x0, symName: '__ZN3syn3gen5clone69_$LT$impl$u20$core..clone..Clone$u20$for$u20$syn..item..TraitItem$GT$5clone17hd22c218447a047bfE', symObjAddr: 0x27890, symBinAddr: 0x5EE60, symSize: 0x1E0 }
  - { offsetInCU: 0x3089F, offset: 0x1DEF60, size: 0x8, addend: 0x0, symName: '__ZN3syn3gen5clone74_$LT$impl$u20$core..clone..Clone$u20$for$u20$syn..item..TraitItemConst$GT$5clone17he22a2ce3bf5c1704E', symObjAddr: 0x27A70, symBinAddr: 0x5F040, symSize: 0x370 }
  - { offsetInCU: 0x30C67, offset: 0x1DF328, size: 0x8, addend: 0x0, symName: '__ZN3syn3gen5clone71_$LT$impl$u20$core..clone..Clone$u20$for$u20$syn..item..TraitItemFn$GT$5clone17h7ac8fc7a77eb5240E', symObjAddr: 0x27DE0, symBinAddr: 0x5F3B0, symSize: 0x150 }
  - { offsetInCU: 0x30D59, offset: 0x1DF41A, size: 0x8, addend: 0x0, symName: '__ZN3syn3gen5clone73_$LT$impl$u20$core..clone..Clone$u20$for$u20$syn..item..TraitItemType$GT$5clone17h83742b5ed183cb22E', symObjAddr: 0x27F30, symBinAddr: 0x5F500, symSize: 0x390 }
  - { offsetInCU: 0x31118, offset: 0x1DF7D9, size: 0x8, addend: 0x0, symName: '__ZN3syn3gen5clone68_$LT$impl$u20$core..clone..Clone$u20$for$u20$syn..item..Variadic$GT$5clone17h397fcedc25d54663E', symObjAddr: 0x287E0, symBinAddr: 0x5FB30, symSize: 0x110 }
  - { offsetInCU: 0x33B5C, offset: 0x1E221D, size: 0x8, addend: 0x0, symName: '__ZN4core3ptr100drop_in_place$LT$core..option..Option$LT$alloc..boxed..Box$LT$syn..path..GenericArgument$GT$$GT$$GT$17h3a7c44b9e57fe410E', symObjAddr: 0x6C0, symBinAddr: 0x3FEC0, symSize: 0x50 }
  - { offsetInCU: 0x33E7E, offset: 0x1E253F, size: 0x8, addend: 0x0, symName: '__ZN4core3ptr100drop_in_place$LT$syn..punctuated..Punctuated$LT$syn..path..PathSegment$C$syn..token..PathSep$GT$$GT$17he41ef64147139591E', symObjAddr: 0x710, symBinAddr: 0x3FF10, symSize: 0x2B0 }
  - { offsetInCU: 0x34934, offset: 0x1E2FF5, size: 0x8, addend: 0x0, symName: '__ZN4core3ptr103drop_in_place$LT$core..option..Option$LT$alloc..boxed..Box$LT$syn..generics..TypeParamBound$GT$$GT$$GT$17hb14e4384a768542bE', symObjAddr: 0x9C0, symBinAddr: 0x401C0, symSize: 0x50 }
  - { offsetInCU: 0x34B7D, offset: 0x1E323E, size: 0x8, addend: 0x0, symName: '__ZN4core3ptr103drop_in_place$LT$core..option..Option$LT$alloc..boxed..Box$LT$syn..generics..WherePredicate$GT$$GT$$GT$17he190813f4819c5dbE', symObjAddr: 0xA10, symBinAddr: 0x40210, symSize: 0xD0 }
  - { offsetInCU: 0x34F11, offset: 0x1E35D2, size: 0x8, addend: 0x0, symName: '__ZN4core3ptr103drop_in_place$LT$syn..punctuated..Punctuated$LT$syn..generics..GenericParam$C$syn..token..Comma$GT$$GT$17h0c6077a988036760E', symObjAddr: 0xAE0, symBinAddr: 0x402E0, symSize: 0xF0 }
  - { offsetInCU: 0x353AF, offset: 0x1E3A70, size: 0x8, addend: 0x0, symName: '__ZN4core3ptr104drop_in_place$LT$syn..punctuated..Punctuated$LT$syn..generics..TypeParamBound$C$syn..token..Plus$GT$$GT$17h724e4d9d1d65061aE', symObjAddr: 0xBD0, symBinAddr: 0x403D0, symSize: 0x190 }
  - { offsetInCU: 0x359F1, offset: 0x1E40B2, size: 0x8, addend: 0x0, symName: '__ZN4core3ptr107drop_in_place$LT$$LP$syn..restriction..Visibility$C$core..option..Option$LT$syn..token..Default$GT$$RP$$GT$17h7dbdeb5ac6957065E', symObjAddr: 0xD60, symBinAddr: 0x40560, symSize: 0x60 }
  - { offsetInCU: 0x35BAE, offset: 0x1E426F, size: 0x8, addend: 0x0, symName: '__ZN4core3ptr115drop_in_place$LT$core..option..Option$LT$$LP$alloc..boxed..Box$LT$syn..pat..Pat$GT$$C$syn..token..Colon$RP$$GT$$GT$17h787822396d5dcd7bE', symObjAddr: 0xDC0, symBinAddr: 0x405C0, symSize: 0x50 }
  - { offsetInCU: 0x35D80, offset: 0x1E4441, size: 0x8, addend: 0x0, symName: '__ZN4core3ptr115drop_in_place$LT$core..option..Option$LT$$LP$syn..token..Brace$C$alloc..vec..Vec$LT$syn..item..Item$GT$$RP$$GT$$GT$17h4f61046186bbd7c9E', symObjAddr: 0xE10, symBinAddr: 0x40610, symSize: 0xD0 }
  - { offsetInCU: 0x36097, offset: 0x1E4758, size: 0x8, addend: 0x0, symName: '__ZN4core3ptr126drop_in_place$LT$core..option..Option$LT$$LP$syn..token..And$C$core..option..Option$LT$syn..lifetime..Lifetime$GT$$RP$$GT$$GT$17h45c5d73e12cdf6f0E', symObjAddr: 0xEE0, symBinAddr: 0x406E0, symSize: 0x30 }
  - { offsetInCU: 0x36345, offset: 0x1E4A06, size: 0x8, addend: 0x0, symName: '__ZN4core3ptr34drop_in_place$LT$syn..lit..Lit$GT$17hd64dde89a262341dE', symObjAddr: 0xF90, symBinAddr: 0x40710, symSize: 0x120 }
  - { offsetInCU: 0x36814, offset: 0x1E4ED5, size: 0x8, addend: 0x0, symName: '__ZN4core3ptr34drop_in_place$LT$syn..pat..Pat$GT$17hf88887878261d63cE', symObjAddr: 0x10B0, symBinAddr: 0x40830, symSize: 0x1100 }
  - { offsetInCU: 0x3ADF2, offset: 0x1E94B3, size: 0x8, addend: 0x0, symName: '__ZN4core3ptr34drop_in_place$LT$syn..ty..Type$GT$17ha80dd29b0f9d4a3fE', symObjAddr: 0x21B0, symBinAddr: 0x41930, symSize: 0x510 }
  - { offsetInCU: 0x3C46A, offset: 0x1EAB2B, size: 0x8, addend: 0x0, symName: '__ZN4core3ptr36drop_in_place$LT$syn..expr..Expr$GT$17h10f573b40ddd212cE', symObjAddr: 0x26C0, symBinAddr: 0x41E40, symSize: 0x2840 }
  - { offsetInCU: 0x46985, offset: 0x1F5046, size: 0x8, addend: 0x0, symName: '__ZN4core3ptr36drop_in_place$LT$syn..item..Item$GT$17haa59cf9e39ab8cebE', symObjAddr: 0x4F00, symBinAddr: 0x44680, symSize: 0x1940 }
  - { offsetInCU: 0x4CD48, offset: 0x1FB409, size: 0x8, addend: 0x0, symName: '__ZN4core3ptr36drop_in_place$LT$syn..mac..Macro$GT$17hc3b30a7a8a34cc2dE', symObjAddr: 0x6840, symBinAddr: 0x45FC0, symSize: 0x40 }
  - { offsetInCU: 0x4CD82, offset: 0x1FB443, size: 0x8, addend: 0x0, symName: '__ZN4core3ptr36drop_in_place$LT$syn..path..Path$GT$17h75c74a97d5f0a03bE', symObjAddr: 0x6880, symBinAddr: 0x46000, symSize: 0x280 }
  - { offsetInCU: 0x4D82F, offset: 0x1FBEF0, size: 0x8, addend: 0x0, symName: '__ZN4core3ptr37drop_in_place$LT$syn..stmt..Block$GT$17h6fc3254d5688f2c3E', symObjAddr: 0x6B00, symBinAddr: 0x46280, symSize: 0xD0 }
  - { offsetInCU: 0x4DB25, offset: 0x1FC1E6, size: 0x8, addend: 0x0, symName: '__ZN4core3ptr38drop_in_place$LT$syn..data..Fields$GT$17h79840861dd1f691dE', symObjAddr: 0x6BD0, symBinAddr: 0x46350, symSize: 0x190 }
  - { offsetInCU: 0x4DF6F, offset: 0x1FC630, size: 0x8, addend: 0x0, symName: '__ZN4core3ptr38drop_in_place$LT$syn..expr..Member$GT$17h6b0cf84594ce6bceE', symObjAddr: 0x6D60, symBinAddr: 0x464E0, symSize: 0x30 }
  - { offsetInCU: 0x4E06B, offset: 0x1FC72C, size: 0x8, addend: 0x0, symName: '__ZN4core3ptr38drop_in_place$LT$syn..pat..PatType$GT$17h835dce85ba90235eE.llvm.18308377727791997679', symObjAddr: 0x6D90, symBinAddr: 0x46510, symSize: 0x140 }
  - { offsetInCU: 0x4E616, offset: 0x1FCCD7, size: 0x8, addend: 0x0, symName: '__ZN4core3ptr39drop_in_place$LT$proc_macro2..Ident$GT$17ha28fef9769e267d9E', symObjAddr: 0x6ED0, symBinAddr: 0x46650, symSize: 0x30 }
  - { offsetInCU: 0x4E76F, offset: 0x1FCE30, size: 0x8, addend: 0x0, symName: '__ZN4core3ptr39drop_in_place$LT$syn..item..UseTree$GT$17h7288572c631f954aE', symObjAddr: 0x6F70, symBinAddr: 0x46680, symSize: 0xE0 }
  - { offsetInCU: 0x4EB73, offset: 0x1FD234, size: 0x8, addend: 0x0, symName: '__ZN4core3ptr40drop_in_place$LT$syn..item..ImplItem$GT$17h98907b2080b0ccb0E', symObjAddr: 0x7050, symBinAddr: 0x46760, symSize: 0x4D0 }
  - { offsetInCU: 0x4F9A7, offset: 0x1FE068, size: 0x8, addend: 0x0, symName: '__ZN4core3ptr40drop_in_place$LT$syn..item..Receiver$GT$17h5e68a437c3b8e574E.llvm.18308377727791997679', symObjAddr: 0x7520, symBinAddr: 0x46C30, symSize: 0x130 }
  - { offsetInCU: 0x4FF92, offset: 0x1FE653, size: 0x8, addend: 0x0, symName: '__ZN4core3ptr40drop_in_place$LT$syn..item..Variadic$GT$17hf9d4ebdb0f5e723aE', symObjAddr: 0x7660, symBinAddr: 0x46D60, symSize: 0x120 }
  - { offsetInCU: 0x50417, offset: 0x1FEAD8, size: 0x8, addend: 0x0, symName: '__ZN4core3ptr40drop_in_place$LT$syn..ty..ReturnType$GT$17h035a612e322b6510E', symObjAddr: 0x7780, symBinAddr: 0x46E80, symSize: 0x50 }
  - { offsetInCU: 0x50587, offset: 0x1FEC48, size: 0x8, addend: 0x0, symName: '__ZN4core3ptr41drop_in_place$LT$syn..expr..ExprConst$GT$17hbfe19d5d621e6836E', symObjAddr: 0x77D0, symBinAddr: 0x46ED0, symSize: 0x180 }
  - { offsetInCU: 0x50B93, offset: 0x1FF254, size: 0x8, addend: 0x0, symName: '__ZN4core3ptr41drop_in_place$LT$syn..item..Signature$GT$17h41f785211ad8eb02E', symObjAddr: 0x7950, symBinAddr: 0x47050, symSize: 0x180 }
  - { offsetInCU: 0x51283, offset: 0x1FF944, size: 0x8, addend: 0x0, symName: '__ZN4core3ptr41drop_in_place$LT$syn..item..TraitItem$GT$17hc74edaa948c160a2E', symObjAddr: 0x7AD0, symBinAddr: 0x471D0, symSize: 0x5F0 }
  - { offsetInCU: 0x52473, offset: 0x200B34, size: 0x8, addend: 0x0, symName: '__ZN4core3ptr42drop_in_place$LT$syn..item..ImplItemFn$GT$17haf8f89161f0a8aa1E', symObjAddr: 0x8110, symBinAddr: 0x477C0, symSize: 0x200 }
  - { offsetInCU: 0x52BDB, offset: 0x20129C, size: 0x8, addend: 0x0, symName: '__ZN4core3ptr43drop_in_place$LT$syn..data..FieldsNamed$GT$17h56bef6f151514865E', symObjAddr: 0x8310, symBinAddr: 0x479C0, symSize: 0xE0 }
  - { offsetInCU: 0x52F7D, offset: 0x20163E, size: 0x8, addend: 0x0, symName: '__ZN4core3ptr43drop_in_place$LT$syn..item..ForeignItem$GT$17h8033abfc56dac52fE', symObjAddr: 0x83F0, symBinAddr: 0x47AA0, symSize: 0x520 }
  - { offsetInCU: 0x54329, offset: 0x2029EA, size: 0x8, addend: 0x0, symName: '__ZN4core3ptr44drop_in_place$LT$syn..generics..Generics$GT$17h671de917167f8b66E', symObjAddr: 0x8910, symBinAddr: 0x47FC0, symSize: 0x40 }
  - { offsetInCU: 0x54346, offset: 0x202A07, size: 0x8, addend: 0x0, symName: '__ZN4core3ptr44drop_in_place$LT$syn..lifetime..Lifetime$GT$17he37fa474f03de7b1E', symObjAddr: 0x8950, symBinAddr: 0x48000, symSize: 0x30 }
  - { offsetInCU: 0x544BE, offset: 0x202B7F, size: 0x8, addend: 0x0, symName: '__ZN4core3ptr44drop_in_place$LT$syn..parse..ParseBuffer$GT$17hf792ff20095efc35E.llvm.18308377727791997679', symObjAddr: 0x8980, symBinAddr: 0x48030, symSize: 0x70 }
  - { offsetInCU: 0x548D5, offset: 0x202F96, size: 0x8, addend: 0x0, symName: '__ZN4core3ptr45drop_in_place$LT$proc_macro2..TokenStream$GT$17h76e8e68015f4924dE', symObjAddr: 0x89F0, symBinAddr: 0x480A0, symSize: 0x140 }
  - { offsetInCU: 0x54D6F, offset: 0x203430, size: 0x8, addend: 0x0, symName: '__ZN4core3ptr45drop_in_place$LT$syn..generics..TypeParam$GT$17h188a459c1380ac75E', symObjAddr: 0x8B30, symBinAddr: 0x481E0, symSize: 0x230 }
  - { offsetInCU: 0x555E4, offset: 0x203CA5, size: 0x8, addend: 0x0, symName: '__ZN4core3ptr46drop_in_place$LT$syn..generics..ConstParam$GT$17h7a9b900b2b88bfcdE', symObjAddr: 0x8D60, symBinAddr: 0x48410, symSize: 0x150 }
  - { offsetInCU: 0x55A65, offset: 0x204126, size: 0x8, addend: 0x0, symName: '__ZN4core3ptr47drop_in_place$LT$syn..path..GenericArgument$GT$17h593f06d6ca9a94d2E', symObjAddr: 0x8EB0, symBinAddr: 0x48560, symSize: 0x4A0 }
  - { offsetInCU: 0x56B6B, offset: 0x20522C, size: 0x8, addend: 0x0, symName: '__ZN4core3ptr49drop_in_place$LT$syn..generics..LifetimeParam$GT$17h3a8835ab294bfd16E', symObjAddr: 0x9350, symBinAddr: 0x48A00, symSize: 0xF0 }
  - { offsetInCU: 0x56F82, offset: 0x205643, size: 0x8, addend: 0x0, symName: '__ZN4core3ptr49drop_in_place$LT$syn..restriction..Visibility$GT$17h3e52b998838defb1E', symObjAddr: 0x9440, symBinAddr: 0x48AF0, symSize: 0x60 }
  - { offsetInCU: 0x570F7, offset: 0x2057B8, size: 0x8, addend: 0x0, symName: '__ZN4core3ptr50drop_in_place$LT$syn..generics..TypeParamBound$GT$17h81b4325b5900604dE', symObjAddr: 0x94A0, symBinAddr: 0x48B50, symSize: 0x1C0 }
  - { offsetInCU: 0x57673, offset: 0x205D34, size: 0x8, addend: 0x0, symName: '__ZN4core3ptr58drop_in_place$LT$alloc..vec..Vec$LT$syn..expr..Arm$GT$$GT$17hff9224aadf2233b8E', symObjAddr: 0x96A0, symBinAddr: 0x48D10, symSize: 0xD0 }
  - { offsetInCU: 0x57933, offset: 0x205FF4, size: 0x8, addend: 0x0, symName: '__ZN4core3ptr59drop_in_place$LT$alloc..boxed..Box$LT$syn..pat..Pat$GT$$GT$17h622b0c1db21c0742E', symObjAddr: 0x9770, symBinAddr: 0x48DE0, symSize: 0x50 }
  - { offsetInCU: 0x57A8C, offset: 0x20614D, size: 0x8, addend: 0x0, symName: '__ZN4core3ptr59drop_in_place$LT$alloc..boxed..Box$LT$syn..ty..Type$GT$$GT$17hde45fa887dd8b605E', symObjAddr: 0x97C0, symBinAddr: 0x48E30, symSize: 0x50 }
  - { offsetInCU: 0x57BE5, offset: 0x2062A6, size: 0x8, addend: 0x0, symName: '__ZN4core3ptr59drop_in_place$LT$alloc..vec..Vec$LT$syn..item..Item$GT$$GT$17h8590e8c8e196c3c2E', symObjAddr: 0x9810, symBinAddr: 0x48E80, symSize: 0xD0 }
  - { offsetInCU: 0x57EA5, offset: 0x206566, size: 0x8, addend: 0x0, symName: '__ZN4core3ptr59drop_in_place$LT$alloc..vec..Vec$LT$syn..stmt..Stmt$GT$$GT$17h6cf3e54f41bc03bdE', symObjAddr: 0x98E0, symBinAddr: 0x48F50, symSize: 0xD0 }
  - { offsetInCU: 0x58165, offset: 0x206826, size: 0x8, addend: 0x0, symName: '__ZN4core3ptr61drop_in_place$LT$alloc..boxed..Box$LT$syn..expr..Expr$GT$$GT$17hbb42293869113942E', symObjAddr: 0x99B0, symBinAddr: 0x49020, symSize: 0x50 }
  - { offsetInCU: 0x5833A, offset: 0x2069FB, size: 0x8, addend: 0x0, symName: '__ZN4core3ptr61drop_in_place$LT$syn..path..ParenthesizedGenericArguments$GT$17h6b1731382637937fE', symObjAddr: 0x9A70, symBinAddr: 0x49070, symSize: 0x170 }
  - { offsetInCU: 0x58930, offset: 0x206FF1, size: 0x8, addend: 0x0, symName: '__ZN4core3ptr62drop_in_place$LT$alloc..boxed..Box$LT$syn..stmt..Block$GT$$GT$17h21dcb5adf0237a12E', symObjAddr: 0x9BE0, symBinAddr: 0x491E0, symSize: 0xE0 }
  - { offsetInCU: 0x58D42, offset: 0x207403, size: 0x8, addend: 0x0, symName: '__ZN4core3ptr62drop_in_place$LT$syn..path..AngleBracketedGenericArguments$GT$17hf8fa172f007a1473E', symObjAddr: 0x9CC0, symBinAddr: 0x492C0, symSize: 0x120 }
  - { offsetInCU: 0x5918D, offset: 0x20784E, size: 0x8, addend: 0x0, symName: '__ZN4core3ptr63drop_in_place$LT$alloc..boxed..Box$LT$syn..lit..LitRepr$GT$$GT$17h6e3a82ea4de7b84cE', symObjAddr: 0x9DE0, symBinAddr: 0x493E0, symSize: 0x60 }
  - { offsetInCU: 0x59456, offset: 0x207B17, size: 0x8, addend: 0x0, symName: '__ZN4core3ptr63drop_in_place$LT$alloc..vec..Vec$LT$syn..item..ImplItem$GT$$GT$17hc51fca07e67d35aeE', symObjAddr: 0x9E40, symBinAddr: 0x49440, symSize: 0x80 }
  - { offsetInCU: 0x5972D, offset: 0x207DEE, size: 0x8, addend: 0x0, symName: '__ZN4core3ptr64drop_in_place$LT$alloc..boxed..Box$LT$syn..item..UseTree$GT$$GT$17he4d7024582150632E', symObjAddr: 0x9EC0, symBinAddr: 0x494C0, symSize: 0xF0 }
  - { offsetInCU: 0x59C48, offset: 0x208309, size: 0x8, addend: 0x0, symName: '__ZN4core3ptr64drop_in_place$LT$alloc..boxed..Box$LT$syn..pat..FieldPat$GT$$GT$17hbf8f4867d84bd25dE', symObjAddr: 0x9FB0, symBinAddr: 0x495B0, symSize: 0x140 }
  - { offsetInCU: 0x5A349, offset: 0x208A0A, size: 0x8, addend: 0x0, symName: '__ZN4core3ptr64drop_in_place$LT$alloc..boxed..Box$LT$syn..ty..BareFnArg$GT$$GT$17h6be6354eb1d1364dE', symObjAddr: 0xA0F0, symBinAddr: 0x496F0, symSize: 0x140 }
  - { offsetInCU: 0x5A8D2, offset: 0x208F93, size: 0x8, addend: 0x0, symName: '__ZN4core3ptr64drop_in_place$LT$alloc..vec..Vec$LT$syn..attr..Attribute$GT$$GT$17he33e25539d5885aeE', symObjAddr: 0xA230, symBinAddr: 0x49830, symSize: 0xD0 }
  - { offsetInCU: 0x5ABC6, offset: 0x209287, size: 0x8, addend: 0x0, symName: '__ZN4core3ptr64drop_in_place$LT$alloc..vec..Vec$LT$syn..item..TraitItem$GT$$GT$17hff1cc01ccae80d7aE', symObjAddr: 0xA300, symBinAddr: 0x49900, symSize: 0x80 }
  - { offsetInCU: 0x5AE7E, offset: 0x20953F, size: 0x8, addend: 0x0, symName: '__ZN4core3ptr65drop_in_place$LT$alloc..vec..Vec$LT$proc_macro..TokenTree$GT$$GT$17h8abd81f8596dbc59E', symObjAddr: 0xA380, symBinAddr: 0x49980, symSize: 0x110 }
  - { offsetInCU: 0x5B276, offset: 0x209937, size: 0x8, addend: 0x0, symName: '__ZN4core3ptr65drop_in_place$LT$core..option..Option$LT$syn..expr..Label$GT$$GT$17hac599686b33ef364E', symObjAddr: 0xA490, symBinAddr: 0x49A90, symSize: 0x30 }
  - { offsetInCU: 0x5B3B0, offset: 0x209A71, size: 0x8, addend: 0x0, symName: '__ZN4core3ptr65drop_in_place$LT$core..option..Option$LT$syn..stmt..Block$GT$$GT$17h74f2551ed24e2d27E', symObjAddr: 0xA4C0, symBinAddr: 0x49AC0, symSize: 0xD0 }
  - { offsetInCU: 0x5B685, offset: 0x209D46, size: 0x8, addend: 0x0, symName: '__ZN4core3ptr66drop_in_place$LT$alloc..vec..Vec$LT$syn..item..ForeignItem$GT$$GT$17h1f176e04eaf5e0dfE', symObjAddr: 0xA590, symBinAddr: 0x49B90, symSize: 0x80 }
  - { offsetInCU: 0x5B93D, offset: 0x209FFE, size: 0x8, addend: 0x0, symName: '__ZN4core3ptr66drop_in_place$LT$core..option..Option$LT$syn..pat..PatRest$GT$$GT$17hd5bb3bc28aa78ac1E', symObjAddr: 0xA610, symBinAddr: 0x49C10, symSize: 0xE0 }
  - { offsetInCU: 0x5BC65, offset: 0x20A326, size: 0x8, addend: 0x0, symName: '__ZN4core3ptr67drop_in_place$LT$alloc..boxed..Box$LT$syn..expr..FieldValue$GT$$GT$17hbbcf67a9d5e9863cE', symObjAddr: 0xA6F0, symBinAddr: 0x49CF0, symSize: 0x140 }
  - { offsetInCU: 0x5C1CE, offset: 0x20A88F, size: 0x8, addend: 0x0, symName: '__ZN4core3ptr67drop_in_place$LT$core..option..Option$LT$proc_macro2..Ident$GT$$GT$17h430b2bec25099623E', symObjAddr: 0xA830, symBinAddr: 0x49E30, symSize: 0x30 }
  - { offsetInCU: 0x5C2CA, offset: 0x20A98B, size: 0x8, addend: 0x0, symName: '__ZN4core3ptr68drop_in_place$LT$alloc..boxed..Box$LT$syn..path..PathSegment$GT$$GT$17h99aaf90b3262bc1eE', symObjAddr: 0xA860, symBinAddr: 0x49E60, symSize: 0x1B0 }
  - { offsetInCU: 0x5C9D8, offset: 0x20B099, size: 0x8, addend: 0x0, symName: '__ZN4core3ptr70drop_in_place$LT$core..option..Option$LT$syn..ty..BareVariadic$GT$$GT$17h79a19250e9f043b1E', symObjAddr: 0xAA30, symBinAddr: 0x4A010, symSize: 0x100 }
  - { offsetInCU: 0x5CE43, offset: 0x20B504, size: 0x8, addend: 0x0, symName: '__ZN4core3ptr72drop_in_place$LT$alloc..boxed..Box$LT$syn..path..GenericArgument$GT$$GT$17hfd308d374af4273dE', symObjAddr: 0xAB30, symBinAddr: 0x4A110, symSize: 0x1D0 }
  - { offsetInCU: 0x5D3DE, offset: 0x20BA9F, size: 0x8, addend: 0x0, symName: '__ZN4core3ptr72drop_in_place$LT$core..option..Option$LT$syn..lifetime..Lifetime$GT$$GT$17h49cce6f02f9c0590E', symObjAddr: 0xAD00, symBinAddr: 0x4A2E0, symSize: 0x30 }
  - { offsetInCU: 0x5D4F9, offset: 0x20BBBA, size: 0x8, addend: 0x0, symName: '__ZN4core3ptr73drop_in_place$LT$alloc..boxed..Box$LT$syn..generics..GenericParam$GT$$GT$17ha26d5d145af4b203E', symObjAddr: 0xAD30, symBinAddr: 0x4A310, symSize: 0x80 }
  - { offsetInCU: 0x5D66F, offset: 0x20BD30, size: 0x8, addend: 0x0, symName: '__ZN4core3ptr75drop_in_place$LT$alloc..boxed..Box$LT$syn..generics..TypeParamBound$GT$$GT$17h129a4e927e5eb81bE', symObjAddr: 0xADB0, symBinAddr: 0x4A390, symSize: 0xC0 }
  - { offsetInCU: 0x5D9E2, offset: 0x20C0A3, size: 0x8, addend: 0x0, symName: '__ZN4core3ptr75drop_in_place$LT$core..option..Option$LT$syn..generics..WhereClause$GT$$GT$17haaf63f327098cdccE', symObjAddr: 0xAE70, symBinAddr: 0x4A450, symSize: 0x90 }
  - { offsetInCU: 0x5DCD6, offset: 0x20C397, size: 0x8, addend: 0x0, symName: '__ZN4core3ptr86drop_in_place$LT$syn..punctuated..Punctuated$LT$syn..pat..Pat$C$syn..token..Or$GT$$GT$17h9cc6b5f7b6d3a555E', symObjAddr: 0xAF00, symBinAddr: 0x4A4E0, symSize: 0x120 }
  - { offsetInCU: 0x5E151, offset: 0x20C812, size: 0x8, addend: 0x0, symName: '__ZN4core3ptr87drop_in_place$LT$core..option..Option$LT$alloc..boxed..Box$LT$syn..pat..Pat$GT$$GT$$GT$17h51cd48973d96c411E', symObjAddr: 0xB040, symBinAddr: 0x4A600, symSize: 0x50 }
  - { offsetInCU: 0x5E2C1, offset: 0x20C982, size: 0x8, addend: 0x0, symName: '__ZN4core3ptr87drop_in_place$LT$core..option..Option$LT$alloc..boxed..Box$LT$syn..ty..Type$GT$$GT$$GT$17h103a25a4a7d7374eE', symObjAddr: 0xB090, symBinAddr: 0x4A650, symSize: 0x50 }
  - { offsetInCU: 0x5E431, offset: 0x20CAF2, size: 0x8, addend: 0x0, symName: '__ZN4core3ptr89drop_in_place$LT$core..option..Option$LT$alloc..boxed..Box$LT$syn..expr..Expr$GT$$GT$$GT$17h9e02509cb2345d44E', symObjAddr: 0xB100, symBinAddr: 0x4A6A0, symSize: 0x50 }
  - { offsetInCU: 0x5E5DF, offset: 0x20CCA0, size: 0x8, addend: 0x0, symName: '__ZN4core3ptr89drop_in_place$LT$syn..punctuated..Punctuated$LT$syn..pat..Pat$C$syn..token..Comma$GT$$GT$17hd3a83c36827f210aE', symObjAddr: 0xB150, symBinAddr: 0x4A6F0, symSize: 0x120 }
  - { offsetInCU: 0x5EA71, offset: 0x20D132, size: 0x8, addend: 0x0, symName: '__ZN4core3ptr89drop_in_place$LT$syn..punctuated..Punctuated$LT$syn..ty..Type$C$syn..token..Comma$GT$$GT$17he030c4b7f24a5848E', symObjAddr: 0xB270, symBinAddr: 0x4A810, symSize: 0x120 }
  - { offsetInCU: 0x5EF2A, offset: 0x20D5EB, size: 0x8, addend: 0x0, symName: '__ZN4core3ptr90drop_in_place$LT$core..option..Option$LT$alloc..boxed..Box$LT$syn..data..Field$GT$$GT$$GT$17h9f1aee8cd56c6727E', symObjAddr: 0xB390, symBinAddr: 0x4A930, symSize: 0x1B0 }
  - { offsetInCU: 0x5F625, offset: 0x20DCE6, size: 0x8, addend: 0x0, symName: '__ZN4core3ptr90drop_in_place$LT$core..option..Option$LT$alloc..boxed..Box$LT$syn..item..FnArg$GT$$GT$$GT$17h8635495a730dc0bfE', symObjAddr: 0xB540, symBinAddr: 0x4AAE0, symSize: 0x70 }
  - { offsetInCU: 0x5F79F, offset: 0x20DE60, size: 0x8, addend: 0x0, symName: '__ZN4core3ptr90drop_in_place$LT$core..option..Option$LT$syn..path..AngleBracketedGenericArguments$GT$$GT$17ha307713a95a0671eE', symObjAddr: 0xB5B0, symBinAddr: 0x4AB50, symSize: 0x130 }
  - { offsetInCU: 0x5FC41, offset: 0x20E302, size: 0x8, addend: 0x0, symName: '__ZN4core3ptr91drop_in_place$LT$syn..punctuated..Punctuated$LT$syn..expr..Expr$C$syn..token..Comma$GT$$GT$17h6f261e8f470c81f2E', symObjAddr: 0xB6E0, symBinAddr: 0x4AC80, symSize: 0x120 }
  - { offsetInCU: 0x600CF, offset: 0x20E790, size: 0x8, addend: 0x0, symName: '__ZN4core3ptr92drop_in_place$LT$core..option..Option$LT$$LP$syn..token..As$C$proc_macro2..Ident$RP$$GT$$GT$17h12a88945917fa9dbE', symObjAddr: 0xB800, symBinAddr: 0x4ADA0, symSize: 0x30 }
  - { offsetInCU: 0x60228, offset: 0x20E8E9, size: 0x8, addend: 0x0, symName: '__ZN4core3ptr92drop_in_place$LT$core..option..Option$LT$alloc..boxed..Box$LT$syn..data..Variant$GT$$GT$$GT$17hb65f9b5d99f448afE', symObjAddr: 0xB830, symBinAddr: 0x4ADD0, symSize: 0x170 }
  - { offsetInCU: 0x60854, offset: 0x20EF15, size: 0x8, addend: 0x0, symName: '__ZN4core3ptr92drop_in_place$LT$syn..punctuated..Punctuated$LT$syn..item..FnArg$C$syn..token..Comma$GT$$GT$17h7de33e77eabaea82E', symObjAddr: 0xB9A0, symBinAddr: 0x4AF40, symSize: 0x140 }
  - { offsetInCU: 0x60CD1, offset: 0x20F392, size: 0x8, addend: 0x0, symName: '__ZN4core3ptr94drop_in_place$LT$syn..punctuated..Punctuated$LT$syn..data..Variant$C$syn..token..Comma$GT$$GT$17h310cd79aba4529ccE', symObjAddr: 0xBAE0, symBinAddr: 0x4B080, symSize: 0xE0 }
  - { offsetInCU: 0x61031, offset: 0x20F6F2, size: 0x8, addend: 0x0, symName: '__ZN4core3ptr94drop_in_place$LT$syn..punctuated..Punctuated$LT$syn..item..UseTree$C$syn..token..Comma$GT$$GT$17h6236871345889df7E', symObjAddr: 0xBBC0, symBinAddr: 0x4B160, symSize: 0xF0 }
  - { offsetInCU: 0x61377, offset: 0x20FA38, size: 0x8, addend: 0x0, symName: '__ZN4core3ptr94drop_in_place$LT$syn..punctuated..Punctuated$LT$syn..pat..FieldPat$C$syn..token..Comma$GT$$GT$17h43ec25af986ef674E', symObjAddr: 0xBCB0, symBinAddr: 0x4B250, symSize: 0xF0 }
  - { offsetInCU: 0x61676, offset: 0x20FD37, size: 0x8, addend: 0x0, symName: '__ZN4core3ptr94drop_in_place$LT$syn..punctuated..Punctuated$LT$syn..ty..BareFnArg$C$syn..token..Comma$GT$$GT$17h7ba4c699ee390ebaE', symObjAddr: 0xBDA0, symBinAddr: 0x4B340, symSize: 0xF0 }
  - { offsetInCU: 0x61977, offset: 0x210038, size: 0x8, addend: 0x0, symName: '__ZN4core3ptr96drop_in_place$LT$core..option..Option$LT$alloc..boxed..Box$LT$syn..path..PathSegment$GT$$GT$$GT$17h5de12a5a0f9e9ef9E', symObjAddr: 0xBE90, symBinAddr: 0x4B430, symSize: 0xA0 }
  - { offsetInCU: 0x61BF6, offset: 0x2102B7, size: 0x8, addend: 0x0, symName: '__ZN4core3ptr97drop_in_place$LT$syn..punctuated..Punctuated$LT$syn..expr..FieldValue$C$syn..token..Comma$GT$$GT$17hf58d0a9a09266ab3E', symObjAddr: 0xBF30, symBinAddr: 0x4B4D0, symSize: 0xF0 }
  - { offsetInCU: 0x61EF3, offset: 0x2105B4, size: 0x8, addend: 0x0, symName: '__ZN4core3ptr98drop_in_place$LT$alloc..vec..Vec$LT$$LP$syn..path..GenericArgument$C$syn..token..Comma$RP$$GT$$GT$17h0dee282a026d5a38E', symObjAddr: 0xC020, symBinAddr: 0x4B5C0, symSize: 0xD0 }
  - { offsetInCU: 0x62233, offset: 0x2108F4, size: 0x8, addend: 0x0, symName: '__ZN4core3ptr98drop_in_place$LT$syn..punctuated..Punctuated$LT$syn..lifetime..Lifetime$C$syn..token..Plus$GT$$GT$17h600c2b78f78fd2b9E', symObjAddr: 0xC0F0, symBinAddr: 0x4B690, symSize: 0xD0 }
  - { offsetInCU: 0x68F6F, offset: 0x217630, size: 0x8, addend: 0x0, symName: '__ZN48_$LT$T$u20$as$u20$core..clone..CloneToUninit$GT$15clone_to_uninit17h4081700a47491491E', symObjAddr: 0x300, symBinAddr: 0x3FB60, symSize: 0x360 }
  - { offsetInCU: 0x7025E, offset: 0x21E91F, size: 0x8, addend: 0x0, symName: '__ZN5alloc3vec16Vec$LT$T$C$A$GT$15append_elements17h17d0f6dcdaba10bcE', symObjAddr: 0xC230, symBinAddr: 0x4B760, symSize: 0x70 }
  - { offsetInCU: 0x704B4, offset: 0x21EB75, size: 0x8, addend: 0x0, symName: __ZN3syn4item4Item13replace_attrs17h0529b41fa0d8dba2E, symObjAddr: 0xCB80, symBinAddr: 0x4B7D0, symSize: 0x190 }
  - { offsetInCU: 0x1E, offset: 0x22CF3C, size: 0x8, addend: 0x0, symName: '__ZN4core3ptr100drop_in_place$LT$alloc..vec..Vec$LT$$LP$syn..generics..TypeParamBound$C$syn..token..Plus$RP$$GT$$GT$17hea181150e4b37806E.llvm.991277207215265740', symObjAddr: 0x0, symBinAddr: 0x5FC40, symSize: 0xD0 }
  - { offsetInCU: 0x12A9, offset: 0x22E1C7, size: 0x8, addend: 0x0, symName: '__ZN111_$LT$syn..punctuated..PrivateIter$LT$T$C$P$GT$$u20$as$u20$core..iter..traits..exact_size..ExactSizeIterator$GT$3len17hd03ac3201b3cfde6E.llvm.991277207215265740', symObjAddr: 0x105D0, symBinAddr: 0x6C6B0, symSize: 0x0 }
  - { offsetInCU: 0x1488, offset: 0x22E3A6, size: 0x8, addend: 0x0, symName: '__ZN115_$LT$syn..punctuated..PrivateIter$LT$T$C$P$GT$$u20$as$u20$core..iter..traits..double_ended..DoubleEndedIterator$GT$9next_back17h7f4f61270a4204d7E.llvm.991277207215265740', symObjAddr: 0x104C0, symBinAddr: 0x6C680, symSize: 0x0 }
  - { offsetInCU: 0x1903, offset: 0x22E821, size: 0x8, addend: 0x0, symName: '__ZN100_$LT$syn..punctuated..PrivateIter$LT$T$C$P$GT$$u20$as$u20$core..iter..traits..iterator..Iterator$GT$4next17h2a509a6c34848c4aE.llvm.991277207215265740', symObjAddr: 0x103D0, symBinAddr: 0x6C5F0, symSize: 0x0 }
  - { offsetInCU: 0x1BB6, offset: 0x22EAD4, size: 0x8, addend: 0x0, symName: '__ZN100_$LT$syn..punctuated..PrivateIter$LT$T$C$P$GT$$u20$as$u20$core..iter..traits..iterator..Iterator$GT$4next17h63cbef55dd3a9f53E.llvm.991277207215265740', symObjAddr: 0x10430, symBinAddr: 0x6C620, symSize: 0x30 }
  - { offsetInCU: 0x1E44, offset: 0x22ED62, size: 0x8, addend: 0x0, symName: '__ZN100_$LT$syn..punctuated..PrivateIter$LT$T$C$P$GT$$u20$as$u20$core..iter..traits..iterator..Iterator$GT$4next17h6b4639ca1419e80fE.llvm.991277207215265740', symObjAddr: 0x10460, symBinAddr: 0x6C650, symSize: 0x30 }
  - { offsetInCU: 0x2595, offset: 0x22F4B3, size: 0x8, addend: 0x0, symName: '__ZN79_$LT$syn..punctuated..Punctuated$LT$T$C$P$GT$$u20$as$u20$core..clone..Clone$GT$5clone17h123489863670ef82E', symObjAddr: 0xCAC0, symBinAddr: 0x6B3E0, symSize: 0x150 }
  - { offsetInCU: 0x2868, offset: 0x22F786, size: 0x8, addend: 0x0, symName: '__ZN79_$LT$syn..punctuated..Punctuated$LT$T$C$P$GT$$u20$as$u20$core..clone..Clone$GT$5clone17h22992bcace29f499E', symObjAddr: 0xCC10, symBinAddr: 0x6B530, symSize: 0xE0 }
  - { offsetInCU: 0x2AEF, offset: 0x22FA0D, size: 0x8, addend: 0x0, symName: '__ZN79_$LT$syn..punctuated..Punctuated$LT$T$C$P$GT$$u20$as$u20$core..clone..Clone$GT$5clone17h2892afd7277887d8E', symObjAddr: 0xCCF0, symBinAddr: 0x6B610, symSize: 0xE0 }
  - { offsetInCU: 0x2D76, offset: 0x22FC94, size: 0x8, addend: 0x0, symName: '__ZN79_$LT$syn..punctuated..Punctuated$LT$T$C$P$GT$$u20$as$u20$core..clone..Clone$GT$5clone17h4f35f72a65007a75E', symObjAddr: 0xCDD0, symBinAddr: 0x6B6F0, symSize: 0xC0 }
  - { offsetInCU: 0x2FA5, offset: 0x22FEC3, size: 0x8, addend: 0x0, symName: '__ZN79_$LT$syn..punctuated..Punctuated$LT$T$C$P$GT$$u20$as$u20$core..clone..Clone$GT$5clone17h5b87dcc40d8ae16cE', symObjAddr: 0xCE90, symBinAddr: 0x6B7B0, symSize: 0xE0 }
  - { offsetInCU: 0x322C, offset: 0x23014A, size: 0x8, addend: 0x0, symName: '__ZN79_$LT$syn..punctuated..Punctuated$LT$T$C$P$GT$$u20$as$u20$core..clone..Clone$GT$5clone17h5e7cb3171b95369bE', symObjAddr: 0xCF70, symBinAddr: 0x6B890, symSize: 0xC0 }
  - { offsetInCU: 0x345A, offset: 0x230378, size: 0x8, addend: 0x0, symName: '__ZN79_$LT$syn..punctuated..Punctuated$LT$T$C$P$GT$$u20$as$u20$core..clone..Clone$GT$5clone17h71b1884f4462d97bE', symObjAddr: 0xD030, symBinAddr: 0x6B950, symSize: 0xE0 }
  - { offsetInCU: 0x36E1, offset: 0x2305FF, size: 0x8, addend: 0x0, symName: '__ZN79_$LT$syn..punctuated..Punctuated$LT$T$C$P$GT$$u20$as$u20$core..clone..Clone$GT$5clone17h795b6e9f94c0c96cE', symObjAddr: 0xD110, symBinAddr: 0x6BA30, symSize: 0xE0 }
  - { offsetInCU: 0x3968, offset: 0x230886, size: 0x8, addend: 0x0, symName: '__ZN79_$LT$syn..punctuated..Punctuated$LT$T$C$P$GT$$u20$as$u20$core..clone..Clone$GT$5clone17h7b959744e3d5b8dbE', symObjAddr: 0xD1F0, symBinAddr: 0x6BB10, symSize: 0x110 }
  - { offsetInCU: 0x3C25, offset: 0x230B43, size: 0x8, addend: 0x0, symName: '__ZN79_$LT$syn..punctuated..Punctuated$LT$T$C$P$GT$$u20$as$u20$core..clone..Clone$GT$5clone17h8ecfcac09434508eE', symObjAddr: 0xD3E0, symBinAddr: 0x6BC20, symSize: 0x180 }
  - { offsetInCU: 0x3FF7, offset: 0x230F15, size: 0x8, addend: 0x0, symName: '__ZN79_$LT$syn..punctuated..Punctuated$LT$T$C$P$GT$$u20$as$u20$core..clone..Clone$GT$5clone17ha7ab2dd954c80b81E', symObjAddr: 0xD560, symBinAddr: 0x6BDA0, symSize: 0xE0 }
  - { offsetInCU: 0x427D, offset: 0x23119B, size: 0x8, addend: 0x0, symName: '__ZN79_$LT$syn..punctuated..Punctuated$LT$T$C$P$GT$$u20$as$u20$core..clone..Clone$GT$5clone17hc80da0ae5e8a9a5aE', symObjAddr: 0xD640, symBinAddr: 0x6BE80, symSize: 0x110 }
  - { offsetInCU: 0x4704, offset: 0x231622, size: 0x8, addend: 0x0, symName: '__ZN138_$LT$syn..punctuated..Punctuated$LT$T$C$P$GT$$u20$as$u20$core..iter..traits..collect..Extend$LT$syn..punctuated..Pair$LT$T$C$P$GT$$GT$$GT$6extend17hd3a7828e12a2fa09E', symObjAddr: 0xF2D0, symBinAddr: 0x6BF90, symSize: 0x3A0 }
  - { offsetInCU: 0x4C5A, offset: 0x231B78, size: 0x8, addend: 0x0, symName: '__ZN102_$LT$syn..punctuated..Punctuated$LT$T$C$P$GT$$u20$as$u20$core..iter..traits..collect..IntoIterator$GT$9into_iter17h9fd0831bc615f074E', symObjAddr: 0xF940, symBinAddr: 0x6C330, symSize: 0x2C0 }
  - { offsetInCU: 0x630A, offset: 0x233228, size: 0x8, addend: 0x0, symName: '__ZN57_$LT$I$u20$as$u20$syn..punctuated..IterTrait$LT$T$GT$$GT$9clone_box17hbe556fca14490948E.llvm.991277207215265740', symObjAddr: 0x106C0, symBinAddr: 0x6C6E0, symSize: 0x60 }
  - { offsetInCU: 0x651D, offset: 0x23343B, size: 0x8, addend: 0x0, symName: '__ZN97_$LT$syn..punctuated..Punctuated$LT$T$C$P$GT$$u20$as$u20$core..ops..index..Index$LT$usize$GT$$GT$5index17h20cbc4df05d7c9eaE', symObjAddr: 0x10780, symBinAddr: 0x6C740, symSize: 0x50 }
  - { offsetInCU: 0x66C7, offset: 0x2335E5, size: 0x8, addend: 0x0, symName: '__ZN3syn10punctuated8printing91_$LT$impl$u20$quote..to_tokens..ToTokens$u20$for$u20$syn..punctuated..Pair$LT$T$C$P$GT$$GT$9to_tokens17h6dc2c5660e354e29E', symObjAddr: 0x110C0, symBinAddr: 0x6CA60, symSize: 0xD0 }
  - { offsetInCU: 0x6890, offset: 0x2337AE, size: 0x8, addend: 0x0, symName: '__ZN3syn10punctuated8printing91_$LT$impl$u20$quote..to_tokens..ToTokens$u20$for$u20$syn..punctuated..Pair$LT$T$C$P$GT$$GT$9to_tokens17hc2518142b17a3489E', symObjAddr: 0x11360, symBinAddr: 0x6CB30, symSize: 0xF3 }
  - { offsetInCU: 0x6A78, offset: 0x233996, size: 0x8, addend: 0x0, symName: '__ZN3syn10punctuated8printing97_$LT$impl$u20$quote..to_tokens..ToTokens$u20$for$u20$syn..punctuated..Punctuated$LT$T$C$P$GT$$GT$9to_tokens17h060d1d80f541d446E', symObjAddr: 0x10820, symBinAddr: 0x6C790, symSize: 0x150 }
  - { offsetInCU: 0x6FBE, offset: 0x233EDC, size: 0x8, addend: 0x0, symName: '__ZN3syn10punctuated8printing97_$LT$impl$u20$quote..to_tokens..ToTokens$u20$for$u20$syn..punctuated..Punctuated$LT$T$C$P$GT$$GT$9to_tokens17h7327b9d2fa65c2baE', symObjAddr: 0x10B90, symBinAddr: 0x6C8E0, symSize: 0x180 }
  - { offsetInCU: 0xE7BE, offset: 0x23B6DC, size: 0x8, addend: 0x0, symName: '__ZN4core3ptr100drop_in_place$LT$alloc..vec..Vec$LT$$LP$syn..generics..TypeParamBound$C$syn..token..Plus$RP$$GT$$GT$17hea181150e4b37806E.llvm.991277207215265740', symObjAddr: 0x0, symBinAddr: 0x5FC40, symSize: 0xD0 }
  - { offsetInCU: 0xEA9D, offset: 0x23B9BB, size: 0x8, addend: 0x0, symName: '__ZN4core3ptr100drop_in_place$LT$core..option..Option$LT$alloc..boxed..Box$LT$syn..path..GenericArgument$GT$$GT$$GT$17h3a7c44b9e57fe410E.llvm.991277207215265740', symObjAddr: 0xD0, symBinAddr: 0x5FD10, symSize: 0x50 }
  - { offsetInCU: 0xEC89, offset: 0x23BBA7, size: 0x8, addend: 0x0, symName: '__ZN4core3ptr100drop_in_place$LT$syn..punctuated..Punctuated$LT$syn..path..PathSegment$C$syn..token..PathSep$GT$$GT$17he41ef64147139591E', symObjAddr: 0x120, symBinAddr: 0x5FD60, symSize: 0x150 }
  - { offsetInCU: 0xF1ED, offset: 0x23C10B, size: 0x8, addend: 0x0, symName: '__ZN4core3ptr101drop_in_place$LT$alloc..vec..Vec$LT$$LP$syn..generics..WherePredicate$C$syn..token..Comma$RP$$GT$$GT$17h480aa68a207f67a8E.llvm.991277207215265740', symObjAddr: 0x270, symBinAddr: 0x5FEB0, symSize: 0x60 }
  - { offsetInCU: 0xF490, offset: 0x23C3AE, size: 0x8, addend: 0x0, symName: '__ZN4core3ptr102drop_in_place$LT$syn..punctuated..Punctuated$LT$syn..path..GenericArgument$C$syn..token..Comma$GT$$GT$17h8b1978399cfff48bE', symObjAddr: 0x2D0, symBinAddr: 0x5FF10, symSize: 0xF0 }
  - { offsetInCU: 0xF7B0, offset: 0x23C6CE, size: 0x8, addend: 0x0, symName: '__ZN4core3ptr103drop_in_place$LT$core..option..Option$LT$alloc..boxed..Box$LT$syn..generics..TypeParamBound$GT$$GT$$GT$17hb14e4384a768542bE.llvm.991277207215265740', symObjAddr: 0x3C0, symBinAddr: 0x60000, symSize: 0x50 }
  - { offsetInCU: 0xF9BB, offset: 0x23C8D9, size: 0x8, addend: 0x0, symName: '__ZN4core3ptr103drop_in_place$LT$syn..punctuated..Punctuated$LT$syn..generics..GenericParam$C$syn..token..Comma$GT$$GT$17h0c6077a988036760E.llvm.991277207215265740', symObjAddr: 0x410, symBinAddr: 0x60050, symSize: 0xF0 }
  - { offsetInCU: 0xFF13, offset: 0x23CE31, size: 0x8, addend: 0x0, symName: '__ZN4core3ptr104drop_in_place$LT$syn..punctuated..Punctuated$LT$syn..generics..TypeParamBound$C$syn..token..Plus$GT$$GT$17h724e4d9d1d65061aE.llvm.991277207215265740', symObjAddr: 0x500, symBinAddr: 0x60140, symSize: 0x190 }
  - { offsetInCU: 0x10536, offset: 0x23D454, size: 0x8, addend: 0x0, symName: '__ZN4core3ptr126drop_in_place$LT$core..option..Option$LT$$LP$syn..token..And$C$core..option..Option$LT$syn..lifetime..Lifetime$GT$$RP$$GT$$GT$17h45c5d73e12cdf6f0E', symObjAddr: 0x690, symBinAddr: 0x602D0, symSize: 0x30 }
  - { offsetInCU: 0x10749, offset: 0x23D667, size: 0x8, addend: 0x0, symName: '__ZN4core3ptr34drop_in_place$LT$syn..lit..Lit$GT$17hd64dde89a262341dE', symObjAddr: 0x6C0, symBinAddr: 0x60300, symSize: 0x120 }
  - { offsetInCU: 0x10C56, offset: 0x23DB74, size: 0x8, addend: 0x0, symName: '__ZN4core3ptr34drop_in_place$LT$syn..pat..Pat$GT$17hf88887878261d63cE.llvm.991277207215265740', symObjAddr: 0x7E0, symBinAddr: 0x60420, symSize: 0x1100 }
  - { offsetInCU: 0x152CF, offset: 0x2421ED, size: 0x8, addend: 0x0, symName: '__ZN4core3ptr34drop_in_place$LT$syn..ty..Type$GT$17ha80dd29b0f9d4a3fE.llvm.991277207215265740', symObjAddr: 0x18E0, symBinAddr: 0x61520, symSize: 0x520 }
  - { offsetInCU: 0x16944, offset: 0x243862, size: 0x8, addend: 0x0, symName: '__ZN4core3ptr36drop_in_place$LT$syn..expr..Expr$GT$17h10f573b40ddd212cE.llvm.991277207215265740', symObjAddr: 0x1E00, symBinAddr: 0x61A40, symSize: 0x2830 }
  - { offsetInCU: 0x20A47, offset: 0x24D965, size: 0x8, addend: 0x0, symName: '__ZN4core3ptr36drop_in_place$LT$syn..mac..Macro$GT$17hc3b30a7a8a34cc2dE', symObjAddr: 0x4630, symBinAddr: 0x64270, symSize: 0x40 }
  - { offsetInCU: 0x20A81, offset: 0x24D99F, size: 0x8, addend: 0x0, symName: '__ZN4core3ptr36drop_in_place$LT$syn..path..Path$GT$17h75c74a97d5f0a03bE.llvm.991277207215265740', symObjAddr: 0x4670, symBinAddr: 0x642B0, symSize: 0x110 }
  - { offsetInCU: 0x20EA3, offset: 0x24DDC1, size: 0x8, addend: 0x0, symName: '__ZN4core3ptr37drop_in_place$LT$syn..data..Field$GT$17hb03070569ab32babE.llvm.991277207215265740', symObjAddr: 0x4780, symBinAddr: 0x643C0, symSize: 0x140 }
  - { offsetInCU: 0x212F7, offset: 0x24E215, size: 0x8, addend: 0x0, symName: '__ZN4core3ptr37drop_in_place$LT$syn..item..FnArg$GT$17h470fdeee5cba5e3aE.llvm.991277207215265740', symObjAddr: 0x48C0, symBinAddr: 0x64500, symSize: 0x230 }
  - { offsetInCU: 0x21C11, offset: 0x24EB2F, size: 0x8, addend: 0x0, symName: '__ZN4core3ptr37drop_in_place$LT$syn..stmt..Block$GT$17h6fc3254d5688f2c3E', symObjAddr: 0x4AF0, symBinAddr: 0x64730, symSize: 0xD0 }
  - { offsetInCU: 0x21EE8, offset: 0x24EE06, size: 0x8, addend: 0x0, symName: '__ZN4core3ptr38drop_in_place$LT$syn..expr..Member$GT$17h6b0cf84594ce6bceE.llvm.991277207215265740', symObjAddr: 0x4BC0, symBinAddr: 0x64800, symSize: 0x30 }
  - { offsetInCU: 0x21FE4, offset: 0x24EF02, size: 0x8, addend: 0x0, symName: '__ZN4core3ptr39drop_in_place$LT$proc_macro2..Ident$GT$17ha28fef9769e267d9E.llvm.991277207215265740', symObjAddr: 0x4BF0, symBinAddr: 0x64830, symSize: 0x30 }
  - { offsetInCU: 0x2211E, offset: 0x24F03C, size: 0x8, addend: 0x0, symName: '__ZN4core3ptr39drop_in_place$LT$syn..data..Variant$GT$17h92766dd8637b4069E', symObjAddr: 0x4C20, symBinAddr: 0x64860, symSize: 0x150 }
  - { offsetInCU: 0x226C5, offset: 0x24F5E3, size: 0x8, addend: 0x0, symName: '__ZN4core3ptr39drop_in_place$LT$syn..item..UseTree$GT$17h7288572c631f954aE.llvm.991277207215265740', symObjAddr: 0x4D70, symBinAddr: 0x649B0, symSize: 0x1E0 }
  - { offsetInCU: 0x22E15, offset: 0x24FD33, size: 0x8, addend: 0x0, symName: '__ZN4core3ptr39drop_in_place$LT$syn..pat..FieldPat$GT$17he93d151251e1075bE.llvm.991277207215265740', symObjAddr: 0x4F50, symBinAddr: 0x64B90, symSize: 0x120 }
  - { offsetInCU: 0x233AF, offset: 0x2502CD, size: 0x8, addend: 0x0, symName: '__ZN4core3ptr39drop_in_place$LT$syn..ty..BareFnArg$GT$17h06523caf0a2ebe3aE.llvm.991277207215265740', symObjAddr: 0x5070, symBinAddr: 0x64CB0, symSize: 0x110 }
  - { offsetInCU: 0x237D2, offset: 0x2506F0, size: 0x8, addend: 0x0, symName: '__ZN4core3ptr40drop_in_place$LT$syn..ty..ReturnType$GT$17h035a612e322b6510E', symObjAddr: 0x5180, symBinAddr: 0x64DC0, symSize: 0x50 }
  - { offsetInCU: 0x23942, offset: 0x250860, size: 0x8, addend: 0x0, symName: '__ZN4core3ptr41drop_in_place$LT$syn..expr..ExprConst$GT$17hbfe19d5d621e6836E', symObjAddr: 0x51D0, symBinAddr: 0x64E10, symSize: 0x180 }
  - { offsetInCU: 0x23F2F, offset: 0x250E4D, size: 0x8, addend: 0x0, symName: '__ZN4core3ptr42drop_in_place$LT$syn..expr..FieldValue$GT$17heed77b5eea8beaa5E.llvm.991277207215265740', symObjAddr: 0x5350, symBinAddr: 0x64F90, symSize: 0x110 }
  - { offsetInCU: 0x24370, offset: 0x25128E, size: 0x8, addend: 0x0, symName: '__ZN4core3ptr43drop_in_place$LT$syn..path..PathSegment$GT$17h903332e979944cf4E.llvm.991277207215265740', symObjAddr: 0x5460, symBinAddr: 0x650A0, symSize: 0x190 }
  - { offsetInCU: 0x248D4, offset: 0x2517F2, size: 0x8, addend: 0x0, symName: '__ZN4core3ptr44drop_in_place$LT$syn..lifetime..Lifetime$GT$17he37fa474f03de7b1E.llvm.991277207215265740', symObjAddr: 0x55F0, symBinAddr: 0x65230, symSize: 0x30 }
  - { offsetInCU: 0x24B06, offset: 0x251A24, size: 0x8, addend: 0x0, symName: '__ZN4core3ptr45drop_in_place$LT$proc_macro2..TokenStream$GT$17h76e8e68015f4924dE.llvm.991277207215265740', symObjAddr: 0x5620, symBinAddr: 0x65260, symSize: 0x140 }
  - { offsetInCU: 0x24FA0, offset: 0x251EBE, size: 0x8, addend: 0x0, symName: '__ZN4core3ptr45drop_in_place$LT$syn..generics..TypeParam$GT$17h188a459c1380ac75E.llvm.991277207215265740', symObjAddr: 0x5760, symBinAddr: 0x653A0, symSize: 0x230 }
  - { offsetInCU: 0x25815, offset: 0x252733, size: 0x8, addend: 0x0, symName: '__ZN4core3ptr46drop_in_place$LT$syn..generics..ConstParam$GT$17h7a9b900b2b88bfcdE.llvm.991277207215265740', symObjAddr: 0x5990, symBinAddr: 0x655D0, symSize: 0x150 }
  - { offsetInCU: 0x25C96, offset: 0x252BB4, size: 0x8, addend: 0x0, symName: '__ZN4core3ptr47drop_in_place$LT$syn..path..GenericArgument$GT$17h593f06d6ca9a94d2E.llvm.991277207215265740', symObjAddr: 0x5AE0, symBinAddr: 0x65720, symSize: 0x450 }
  - { offsetInCU: 0x26A0C, offset: 0x25392A, size: 0x8, addend: 0x0, symName: '__ZN4core3ptr48drop_in_place$LT$syn..generics..GenericParam$GT$17hd6859d95c1b7c168E.llvm.991277207215265740', symObjAddr: 0x5F30, symBinAddr: 0x65B70, symSize: 0x40 }
  - { offsetInCU: 0x26A29, offset: 0x253947, size: 0x8, addend: 0x0, symName: '__ZN4core3ptr49drop_in_place$LT$syn..generics..LifetimeParam$GT$17h3a8835ab294bfd16E.llvm.991277207215265740', symObjAddr: 0x5F70, symBinAddr: 0x65BB0, symSize: 0xF0 }
  - { offsetInCU: 0x26E7E, offset: 0x253D9C, size: 0x8, addend: 0x0, symName: '__ZN4core3ptr49drop_in_place$LT$syn..restriction..Visibility$GT$17h3e52b998838defb1E', symObjAddr: 0x6060, symBinAddr: 0x65CA0, symSize: 0x150 }
  - { offsetInCU: 0x273E7, offset: 0x254305, size: 0x8, addend: 0x0, symName: '__ZN4core3ptr50drop_in_place$LT$syn..generics..TypeParamBound$GT$17h81b4325b5900604dE.llvm.991277207215265740', symObjAddr: 0x61B0, symBinAddr: 0x65DF0, symSize: 0x1C0 }
  - { offsetInCU: 0x27982, offset: 0x2548A0, size: 0x8, addend: 0x0, symName: '__ZN4core3ptr50drop_in_place$LT$syn..generics..WherePredicate$GT$17h1dcd41fbf166681cE.llvm.991277207215265740', symObjAddr: 0x6370, symBinAddr: 0x65FB0, symSize: 0xA0 }
  - { offsetInCU: 0x27B26, offset: 0x254A44, size: 0x8, addend: 0x0, symName: '__ZN4core3ptr58drop_in_place$LT$alloc..vec..Vec$LT$syn..expr..Arm$GT$$GT$17hff9224aadf2233b8E', symObjAddr: 0x6410, symBinAddr: 0x66050, symSize: 0xD0 }
  - { offsetInCU: 0x27DE6, offset: 0x254D04, size: 0x8, addend: 0x0, symName: '__ZN4core3ptr59drop_in_place$LT$alloc..boxed..Box$LT$syn..pat..Pat$GT$$GT$17h622b0c1db21c0742E.llvm.991277207215265740', symObjAddr: 0x64E0, symBinAddr: 0x66120, symSize: 0x50 }
  - { offsetInCU: 0x27F3F, offset: 0x254E5D, size: 0x8, addend: 0x0, symName: '__ZN4core3ptr59drop_in_place$LT$alloc..boxed..Box$LT$syn..ty..Type$GT$$GT$17hde45fa887dd8b605E.llvm.991277207215265740', symObjAddr: 0x6530, symBinAddr: 0x66170, symSize: 0x50 }
  - { offsetInCU: 0x28098, offset: 0x254FB6, size: 0x8, addend: 0x0, symName: '__ZN4core3ptr61drop_in_place$LT$alloc..boxed..Box$LT$syn..expr..Expr$GT$$GT$17hbb42293869113942E.llvm.991277207215265740', symObjAddr: 0x6650, symBinAddr: 0x661C0, symSize: 0x50 }
  - { offsetInCU: 0x2826D, offset: 0x25518B, size: 0x8, addend: 0x0, symName: '__ZN4core3ptr61drop_in_place$LT$syn..path..ParenthesizedGenericArguments$GT$17h6b1731382637937fE.llvm.991277207215265740', symObjAddr: 0x66A0, symBinAddr: 0x66210, symSize: 0x170 }
  - { offsetInCU: 0x28876, offset: 0x255794, size: 0x8, addend: 0x0, symName: '__ZN4core3ptr63drop_in_place$LT$alloc..boxed..Box$LT$syn..lit..LitRepr$GT$$GT$17h6e3a82ea4de7b84cE', symObjAddr: 0x68B0, symBinAddr: 0x66380, symSize: 0x60 }
  - { offsetInCU: 0x28B3F, offset: 0x255A5D, size: 0x8, addend: 0x0, symName: '__ZN4core3ptr64drop_in_place$LT$alloc..boxed..Box$LT$syn..item..UseTree$GT$$GT$17he4d7024582150632E', symObjAddr: 0x6960, symBinAddr: 0x663E0, symSize: 0x50 }
  - { offsetInCU: 0x28CB7, offset: 0x255BD5, size: 0x8, addend: 0x0, symName: '__ZN4core3ptr64drop_in_place$LT$alloc..boxed..Box$LT$syn..pat..FieldPat$GT$$GT$17hbf8f4867d84bd25dE', symObjAddr: 0x69B0, symBinAddr: 0x66430, symSize: 0x140 }
  - { offsetInCU: 0x2937A, offset: 0x256298, size: 0x8, addend: 0x0, symName: '__ZN4core3ptr64drop_in_place$LT$alloc..boxed..Box$LT$syn..ty..BareFnArg$GT$$GT$17h6be6354eb1d1364dE', symObjAddr: 0x6AF0, symBinAddr: 0x66570, symSize: 0x140 }
  - { offsetInCU: 0x29903, offset: 0x256821, size: 0x8, addend: 0x0, symName: '__ZN4core3ptr65drop_in_place$LT$alloc..vec..Vec$LT$proc_macro..TokenTree$GT$$GT$17h8abd81f8596dbc59E.llvm.991277207215265740', symObjAddr: 0x6C30, symBinAddr: 0x666B0, symSize: 0x110 }
  - { offsetInCU: 0x29CFB, offset: 0x256C19, size: 0x8, addend: 0x0, symName: '__ZN4core3ptr65drop_in_place$LT$core..option..Option$LT$syn..expr..Label$GT$$GT$17hac599686b33ef364E', symObjAddr: 0x6D40, symBinAddr: 0x667C0, symSize: 0x30 }
  - { offsetInCU: 0x29E35, offset: 0x256D53, size: 0x8, addend: 0x0, symName: '__ZN4core3ptr66drop_in_place$LT$core..option..Option$LT$syn..pat..PatRest$GT$$GT$17hd5bb3bc28aa78ac1E', symObjAddr: 0x6D70, symBinAddr: 0x667F0, symSize: 0xE0 }
  - { offsetInCU: 0x2A15D, offset: 0x25707B, size: 0x8, addend: 0x0, symName: '__ZN4core3ptr67drop_in_place$LT$alloc..boxed..Box$LT$syn..expr..FieldValue$GT$$GT$17hbbcf67a9d5e9863cE', symObjAddr: 0x6E50, symBinAddr: 0x668D0, symSize: 0x140 }
  - { offsetInCU: 0x2A6E5, offset: 0x257603, size: 0x8, addend: 0x0, symName: '__ZN4core3ptr70drop_in_place$LT$core..option..Option$LT$syn..ty..BareVariadic$GT$$GT$17h79a19250e9f043b1E', symObjAddr: 0x7030, symBinAddr: 0x66A10, symSize: 0x100 }
  - { offsetInCU: 0x2AB50, offset: 0x257A6E, size: 0x8, addend: 0x0, symName: '__ZN4core3ptr72drop_in_place$LT$alloc..boxed..Box$LT$syn..path..GenericArgument$GT$$GT$17hfd308d374af4273dE', symObjAddr: 0x7130, symBinAddr: 0x66B10, symSize: 0x2B0 }
  - { offsetInCU: 0x2B561, offset: 0x25847F, size: 0x8, addend: 0x0, symName: '__ZN4core3ptr73drop_in_place$LT$alloc..boxed..Box$LT$syn..generics..GenericParam$GT$$GT$17ha26d5d145af4b203E.llvm.991277207215265740', symObjAddr: 0x73E0, symBinAddr: 0x66DC0, symSize: 0x80 }
  - { offsetInCU: 0x2B6F6, offset: 0x258614, size: 0x8, addend: 0x0, symName: '__ZN4core3ptr73drop_in_place$LT$alloc..vec..Vec$LT$syn..generics..TypeParamBound$GT$$GT$17h559d22d805be3033E.llvm.991277207215265740', symObjAddr: 0x7460, symBinAddr: 0x66E40, symSize: 0xC0 }
  - { offsetInCU: 0x2B9C7, offset: 0x2588E5, size: 0x8, addend: 0x0, symName: '__ZN4core3ptr75drop_in_place$LT$alloc..boxed..Box$LT$syn..generics..TypeParamBound$GT$$GT$17h129a4e927e5eb81bE', symObjAddr: 0x7520, symBinAddr: 0x66F00, symSize: 0xC0 }
  - { offsetInCU: 0x2BCBE, offset: 0x258BDC, size: 0x8, addend: 0x0, symName: '__ZN4core3ptr76drop_in_place$LT$$LP$syn..generics..GenericParam$C$syn..token..Comma$RP$$GT$17hfa938bd7ff9e78c2E.llvm.991277207215265740', symObjAddr: 0x7630, symBinAddr: 0x66FC0, symSize: 0x40 }
  - { offsetInCU: 0x2BD2C, offset: 0x258C4A, size: 0x8, addend: 0x0, symName: '__ZN4core3ptr82drop_in_place$LT$alloc..vec..Vec$LT$$LP$syn..pat..Pat$C$syn..token..Or$RP$$GT$$GT$17h1f0f428d7b2d8011E.llvm.991277207215265740', symObjAddr: 0x7740, symBinAddr: 0x67000, symSize: 0x0 }
  - { offsetInCU: 0x2C024, offset: 0x258F42, size: 0x8, addend: 0x0, symName: '__ZN4core3ptr85drop_in_place$LT$alloc..vec..Vec$LT$$LP$syn..ty..Type$C$syn..token..Comma$RP$$GT$$GT$17h0cf4844ea7ad9568E.llvm.991277207215265740', symObjAddr: 0x7810, symBinAddr: 0x670D0, symSize: 0xD0 }
  - { offsetInCU: 0x2C356, offset: 0x259274, size: 0x8, addend: 0x0, symName: '__ZN4core3ptr86drop_in_place$LT$syn..punctuated..Punctuated$LT$syn..pat..Pat$C$syn..token..Or$GT$$GT$17h9cc6b5f7b6d3a555E', symObjAddr: 0x78E0, symBinAddr: 0x671A0, symSize: 0x120 }
  - { offsetInCU: 0x2C7F0, offset: 0x25970E, size: 0x8, addend: 0x0, symName: '__ZN4core3ptr87drop_in_place$LT$alloc..vec..Vec$LT$$LP$syn..expr..Expr$C$syn..token..Comma$RP$$GT$$GT$17hd1036fba4025974bE.llvm.991277207215265740', symObjAddr: 0x7A00, symBinAddr: 0x672C0, symSize: 0xD0 }
  - { offsetInCU: 0x2CAE4, offset: 0x259A02, size: 0x8, addend: 0x0, symName: '__ZN4core3ptr87drop_in_place$LT$core..option..Option$LT$alloc..boxed..Box$LT$syn..pat..Pat$GT$$GT$$GT$17h51cd48973d96c411E', symObjAddr: 0x7AD0, symBinAddr: 0x67390, symSize: 0x50 }
  - { offsetInCU: 0x2CC54, offset: 0x259B72, size: 0x8, addend: 0x0, symName: '__ZN4core3ptr87drop_in_place$LT$core..option..Option$LT$alloc..boxed..Box$LT$syn..ty..Type$GT$$GT$$GT$17h103a25a4a7d7374eE.llvm.991277207215265740', symObjAddr: 0x7B20, symBinAddr: 0x673E0, symSize: 0x50 }
  - { offsetInCU: 0x2CDE3, offset: 0x259D01, size: 0x8, addend: 0x0, symName: '__ZN4core3ptr88drop_in_place$LT$alloc..vec..Vec$LT$$LP$syn..data..Field$C$syn..token..Comma$RP$$GT$$GT$17h066c67d26ce3e154E.llvm.991277207215265740', symObjAddr: 0x7B70, symBinAddr: 0x67430, symSize: 0xD0 }
  - { offsetInCU: 0x2D0FA, offset: 0x25A018, size: 0x8, addend: 0x0, symName: '__ZN4core3ptr88drop_in_place$LT$alloc..vec..Vec$LT$$LP$syn..item..FnArg$C$syn..token..Comma$RP$$GT$$GT$17he8d49cd20c575884E.llvm.991277207215265740', symObjAddr: 0x7C40, symBinAddr: 0x67500, symSize: 0xD0 }
  - { offsetInCU: 0x2D3F9, offset: 0x25A317, size: 0x8, addend: 0x0, symName: '__ZN4core3ptr89drop_in_place$LT$core..option..Option$LT$alloc..boxed..Box$LT$syn..expr..Expr$GT$$GT$$GT$17h9e02509cb2345d44E', symObjAddr: 0x7D10, symBinAddr: 0x675D0, symSize: 0x50 }
  - { offsetInCU: 0x2D5A7, offset: 0x25A4C5, size: 0x8, addend: 0x0, symName: '__ZN4core3ptr89drop_in_place$LT$syn..punctuated..Punctuated$LT$syn..pat..Pat$C$syn..token..Comma$GT$$GT$17hd3a83c36827f210aE', symObjAddr: 0x7D60, symBinAddr: 0x67620, symSize: 0x120 }
  - { offsetInCU: 0x2DA39, offset: 0x25A957, size: 0x8, addend: 0x0, symName: '__ZN4core3ptr89drop_in_place$LT$syn..punctuated..Punctuated$LT$syn..ty..Type$C$syn..token..Comma$GT$$GT$17he030c4b7f24a5848E.llvm.991277207215265740', symObjAddr: 0x7E80, symBinAddr: 0x67740, symSize: 0x120 }
  - { offsetInCU: 0x2DED3, offset: 0x25ADF1, size: 0x8, addend: 0x0, symName: '__ZN4core3ptr90drop_in_place$LT$alloc..vec..Vec$LT$$LP$syn..data..Variant$C$syn..token..Comma$RP$$GT$$GT$17h3ac8ecccf673c389E.llvm.991277207215265740', symObjAddr: 0x7FA0, symBinAddr: 0x67860, symSize: 0xD0 }
  - { offsetInCU: 0x2E1C7, offset: 0x25B0E5, size: 0x8, addend: 0x0, symName: '__ZN4core3ptr90drop_in_place$LT$alloc..vec..Vec$LT$$LP$syn..item..UseTree$C$syn..token..Comma$RP$$GT$$GT$17h1e4fface25e12fe6E.llvm.991277207215265740', symObjAddr: 0x8070, symBinAddr: 0x67930, symSize: 0xD0 }
  - { offsetInCU: 0x2E4BD, offset: 0x25B3DB, size: 0x8, addend: 0x0, symName: '__ZN4core3ptr90drop_in_place$LT$alloc..vec..Vec$LT$$LP$syn..pat..FieldPat$C$syn..token..Comma$RP$$GT$$GT$17h4d0a520927a96123E.llvm.991277207215265740', symObjAddr: 0x8140, symBinAddr: 0x67A00, symSize: 0xD0 }
  - { offsetInCU: 0x2E77F, offset: 0x25B69D, size: 0x8, addend: 0x0, symName: '__ZN4core3ptr90drop_in_place$LT$alloc..vec..Vec$LT$$LP$syn..ty..BareFnArg$C$syn..token..Comma$RP$$GT$$GT$17h86271563b6e0e7d6E.llvm.991277207215265740', symObjAddr: 0x8210, symBinAddr: 0x67AD0, symSize: 0xD0 }
  - { offsetInCU: 0x2EA62, offset: 0x25B980, size: 0x8, addend: 0x0, symName: '__ZN4core3ptr90drop_in_place$LT$core..option..Option$LT$alloc..boxed..Box$LT$syn..data..Field$GT$$GT$$GT$17h9f1aee8cd56c6727E.llvm.991277207215265740', symObjAddr: 0x82E0, symBinAddr: 0x67BA0, symSize: 0x50 }
  - { offsetInCU: 0x2EBE4, offset: 0x25BB02, size: 0x8, addend: 0x0, symName: '__ZN4core3ptr91drop_in_place$LT$syn..punctuated..Punctuated$LT$syn..expr..Expr$C$syn..token..Comma$GT$$GT$17h6f261e8f470c81f2E.llvm.991277207215265740', symObjAddr: 0x8330, symBinAddr: 0x67BF0, symSize: 0x120 }
  - { offsetInCU: 0x2F091, offset: 0x25BFAF, size: 0x8, addend: 0x0, symName: '__ZN4core3ptr92drop_in_place$LT$core..option..Option$LT$alloc..boxed..Box$LT$syn..data..Variant$GT$$GT$$GT$17hb65f9b5d99f448afE', symObjAddr: 0x8450, symBinAddr: 0x67D10, symSize: 0x50 }
  - { offsetInCU: 0x2F232, offset: 0x25C150, size: 0x8, addend: 0x0, symName: '__ZN4core3ptr92drop_in_place$LT$syn..punctuated..Punctuated$LT$syn..data..Field$C$syn..token..Comma$GT$$GT$17hf8968831c552f88dE', symObjAddr: 0x84A0, symBinAddr: 0x67D60, symSize: 0x120 }
  - { offsetInCU: 0x2F6A4, offset: 0x25C5C2, size: 0x8, addend: 0x0, symName: '__ZN4core3ptr93drop_in_place$LT$alloc..vec..Vec$LT$$LP$syn..expr..FieldValue$C$syn..token..Comma$RP$$GT$$GT$17hf889827bae7d8b64E.llvm.991277207215265740', symObjAddr: 0x85C0, symBinAddr: 0x67E80, symSize: 0xD0 }
  - { offsetInCU: 0x2F983, offset: 0x25C8A1, size: 0x8, addend: 0x0, symName: '__ZN4core3ptr94drop_in_place$LT$alloc..vec..Vec$LT$$LP$syn..lifetime..Lifetime$C$syn..token..Plus$RP$$GT$$GT$17h446c63e6d8248f75E.llvm.991277207215265740', symObjAddr: 0x8690, symBinAddr: 0x67F50, symSize: 0x90 }
  - { offsetInCU: 0x2FC65, offset: 0x25CB83, size: 0x8, addend: 0x0, symName: '__ZN4core3ptr94drop_in_place$LT$syn..punctuated..Punctuated$LT$syn..data..Variant$C$syn..token..Comma$GT$$GT$17h310cd79aba4529ccE', symObjAddr: 0x8720, symBinAddr: 0x67FE0, symSize: 0x120 }
  - { offsetInCU: 0x300D3, offset: 0x25CFF1, size: 0x8, addend: 0x0, symName: '__ZN4core3ptr94drop_in_place$LT$syn..punctuated..Punctuated$LT$syn..pat..FieldPat$C$syn..token..Comma$GT$$GT$17h43ec25af986ef674E', symObjAddr: 0x8840, symBinAddr: 0x68100, symSize: 0xF0 }
  - { offsetInCU: 0x303D2, offset: 0x25D2F0, size: 0x8, addend: 0x0, symName: '__ZN4core3ptr94drop_in_place$LT$syn..punctuated..Punctuated$LT$syn..ty..BareFnArg$C$syn..token..Comma$GT$$GT$17h7ba4c699ee390ebaE', symObjAddr: 0x8930, symBinAddr: 0x681F0, symSize: 0xF0 }
  - { offsetInCU: 0x306D3, offset: 0x25D5F1, size: 0x8, addend: 0x0, symName: '__ZN4core3ptr95drop_in_place$LT$core..option..Option$LT$$LP$proc_macro2..Ident$C$syn..token..Colon$RP$$GT$$GT$17h59fe297999aa3329E.llvm.991277207215265740', symObjAddr: 0x8A20, symBinAddr: 0x682E0, symSize: 0x30 }
  - { offsetInCU: 0x307EE, offset: 0x25D70C, size: 0x8, addend: 0x0, symName: '__ZN4core3ptr96drop_in_place$LT$alloc..vec..Vec$LT$$LP$syn..path..PathSegment$C$syn..token..PathSep$RP$$GT$$GT$17h69d97f03bb66469bE.llvm.991277207215265740', symObjAddr: 0x8A50, symBinAddr: 0x68310, symSize: 0x100 }
  - { offsetInCU: 0x30BE2, offset: 0x25DB00, size: 0x8, addend: 0x0, symName: '__ZN4core3ptr96drop_in_place$LT$core..option..Option$LT$alloc..boxed..Box$LT$syn..path..PathSegment$GT$$GT$$GT$17h5de12a5a0f9e9ef9E.llvm.991277207215265740', symObjAddr: 0x8B50, symBinAddr: 0x68410, symSize: 0x1A0 }
  - { offsetInCU: 0x312C2, offset: 0x25E1E0, size: 0x8, addend: 0x0, symName: '__ZN4core3ptr97drop_in_place$LT$syn..punctuated..Punctuated$LT$syn..expr..FieldValue$C$syn..token..Comma$GT$$GT$17hf58d0a9a09266ab3E', symObjAddr: 0x8D40, symBinAddr: 0x685B0, symSize: 0xF0 }
  - { offsetInCU: 0x315BF, offset: 0x25E4DD, size: 0x8, addend: 0x0, symName: '__ZN4core3ptr98drop_in_place$LT$alloc..vec..Vec$LT$$LP$syn..path..GenericArgument$C$syn..token..Comma$RP$$GT$$GT$17h0dee282a026d5a38E.llvm.991277207215265740', symObjAddr: 0x8E30, symBinAddr: 0x686A0, symSize: 0xD0 }
  - { offsetInCU: 0x318C1, offset: 0x25E7DF, size: 0x8, addend: 0x0, symName: '__ZN4core3ptr98drop_in_place$LT$syn..punctuated..Punctuated$LT$syn..lifetime..Lifetime$C$syn..token..Plus$GT$$GT$17h600c2b78f78fd2b9E.llvm.991277207215265740', symObjAddr: 0x8F00, symBinAddr: 0x68770, symSize: 0xD0 }
  - { offsetInCU: 0x31D35, offset: 0x25EC53, size: 0x8, addend: 0x0, symName: '__ZN4core3ptr99drop_in_place$LT$alloc..vec..Vec$LT$$LP$syn..generics..GenericParam$C$syn..token..Comma$RP$$GT$$GT$17haeaa257234ab8b89E.llvm.991277207215265740', symObjAddr: 0x8FD0, symBinAddr: 0x68840, symSize: 0x60 }
  - { offsetInCU: 0x31FE0, offset: 0x25EEFE, size: 0x8, addend: 0x0, symName: '__ZN4core3ptr99drop_in_place$LT$syn..punctuated..IntoPairs$LT$syn..path..PathSegment$C$syn..token..PathSep$GT$$GT$17h7bc58557d0a760d7E', symObjAddr: 0x9030, symBinAddr: 0x688A0, symSize: 0x60 }
  - { offsetInCU: 0x39A3E, offset: 0x26695C, size: 0x8, addend: 0x0, symName: __ZN4core4iter6traits10exact_size17ExactSizeIterator8is_empty17h1a227f857cbffbf0E.llvm.991277207215265740, symObjAddr: 0x90F0, symBinAddr: 0x68900, symSize: 0x0 }
  - { offsetInCU: 0x39BB7, offset: 0x266AD5, size: 0x8, addend: 0x0, symName: __ZN4core4iter6traits12double_ended19DoubleEndedIterator15advance_back_by17h8a4e4fb504e13f9aE.llvm.991277207215265740, symObjAddr: 0x9240, symBinAddr: 0x68930, symSize: 0x0 }
  - { offsetInCU: 0x39E27, offset: 0x266D45, size: 0x8, addend: 0x0, symName: __ZN4core4iter6traits12double_ended19DoubleEndedIterator8nth_back17h012b67c1856b5774E.llvm.991277207215265740, symObjAddr: 0x9330, symBinAddr: 0x689B0, symSize: 0x0 }
  - { offsetInCU: 0x3A2D6, offset: 0x2671F4, size: 0x8, addend: 0x0, symName: __ZN4core4iter6traits8iterator8Iterator10advance_by17h3d527f137a6d7fdfE.llvm.991277207215265740, symObjAddr: 0x95B0, symBinAddr: 0x68A50, symSize: 0x0 }
  - { offsetInCU: 0x3A63C, offset: 0x26755A, size: 0x8, addend: 0x0, symName: __ZN4core4iter6traits8iterator8Iterator3nth17h1e8866c786c3aeccE.llvm.991277207215265740, symObjAddr: 0x9760, symBinAddr: 0x68AC0, symSize: 0x0 }
  - { offsetInCU: 0x3ABFE, offset: 0x267B1C, size: 0x8, addend: 0x0, symName: __ZN4core4iter6traits8iterator8Iterator9size_hint17h01b8df23581c5177E.llvm.991277207215265740, symObjAddr: 0x9960, symBinAddr: 0x68B40, symSize: 0x0 }
  - { offsetInCU: 0x3FCD8, offset: 0x26CBF6, size: 0x8, addend: 0x0, symName: _anon.13e9612c7f1e77365c13ade4b7a3f6db.8.llvm.991277207215265740, symObjAddr: 0x13228, symBinAddr: 0x258770, symSize: 0x0 }
  - { offsetInCU: 0x41FA5, offset: 0x26EEC3, size: 0x8, addend: 0x0, symName: '__ZN3syn10punctuated23Punctuated$LT$T$C$P$GT$10push_value17h2697ae8d07ed6279E', symObjAddr: 0xA040, symBinAddr: 0x68B60, symSize: 0x0 }
  - { offsetInCU: 0x42205, offset: 0x26F123, size: 0x8, addend: 0x0, symName: '__ZN3syn10punctuated23Punctuated$LT$T$C$P$GT$10push_value17h45c7a985809b3219E', symObjAddr: 0xA140, symBinAddr: 0x68C60, symSize: 0x110 }
  - { offsetInCU: 0x4256F, offset: 0x26F48D, size: 0x8, addend: 0x0, symName: '__ZN3syn10punctuated23Punctuated$LT$T$C$P$GT$10push_value17h473f367d939ee38aE', symObjAddr: 0xA250, symBinAddr: 0x68D70, symSize: 0x100 }
  - { offsetInCU: 0x427CE, offset: 0x26F6EC, size: 0x8, addend: 0x0, symName: '__ZN3syn10punctuated23Punctuated$LT$T$C$P$GT$10push_value17h4975d8317d65554cE', symObjAddr: 0xA350, symBinAddr: 0x68E70, symSize: 0x100 }
  - { offsetInCU: 0x42A48, offset: 0x26F966, size: 0x8, addend: 0x0, symName: '__ZN3syn10punctuated23Punctuated$LT$T$C$P$GT$10push_value17h56f029a21ae32372E', symObjAddr: 0xA450, symBinAddr: 0x68F70, symSize: 0x100 }
  - { offsetInCU: 0x42CA8, offset: 0x26FBC6, size: 0x8, addend: 0x0, symName: '__ZN3syn10punctuated23Punctuated$LT$T$C$P$GT$10push_value17h63a58ef4bac63b37E', symObjAddr: 0xA550, symBinAddr: 0x69070, symSize: 0x100 }
  - { offsetInCU: 0x42F08, offset: 0x26FE26, size: 0x8, addend: 0x0, symName: '__ZN3syn10punctuated23Punctuated$LT$T$C$P$GT$10push_value17h7a3a23979d9f27d8E', symObjAddr: 0xA650, symBinAddr: 0x69170, symSize: 0x100 }
  - { offsetInCU: 0x43168, offset: 0x270086, size: 0x8, addend: 0x0, symName: '__ZN3syn10punctuated23Punctuated$LT$T$C$P$GT$10push_value17h7b8b7e7a7cc7f473E', symObjAddr: 0xA750, symBinAddr: 0x69270, symSize: 0x100 }
  - { offsetInCU: 0x433BB, offset: 0x2702D9, size: 0x8, addend: 0x0, symName: '__ZN3syn10punctuated23Punctuated$LT$T$C$P$GT$10push_value17h93661bd9a728ecd1E', symObjAddr: 0xA850, symBinAddr: 0x69370, symSize: 0x100 }
  - { offsetInCU: 0x43628, offset: 0x270546, size: 0x8, addend: 0x0, symName: '__ZN3syn10punctuated23Punctuated$LT$T$C$P$GT$10push_value17hb6a278bfa99a1718E', symObjAddr: 0xA950, symBinAddr: 0x69470, symSize: 0xD0 }
  - { offsetInCU: 0x43887, offset: 0x2707A5, size: 0x8, addend: 0x0, symName: '__ZN3syn10punctuated23Punctuated$LT$T$C$P$GT$10push_value17hc6035201a10f0061E', symObjAddr: 0xAA20, symBinAddr: 0x69540, symSize: 0xF0 }
  - { offsetInCU: 0x43AE6, offset: 0x270A04, size: 0x8, addend: 0x0, symName: '__ZN3syn10punctuated23Punctuated$LT$T$C$P$GT$10push_value17hd429ee0060d42f76E', symObjAddr: 0xAB10, symBinAddr: 0x69630, symSize: 0xF0 }
  - { offsetInCU: 0x43D45, offset: 0x270C63, size: 0x8, addend: 0x0, symName: '__ZN3syn10punctuated23Punctuated$LT$T$C$P$GT$10push_value17hdab02e89b3ba5c00E', symObjAddr: 0xAC00, symBinAddr: 0x69720, symSize: 0x100 }
  - { offsetInCU: 0x43FCD, offset: 0x270EEB, size: 0x8, addend: 0x0, symName: '__ZN3syn10punctuated23Punctuated$LT$T$C$P$GT$10push_punct17h06896b7cca64befbE', symObjAddr: 0xAD00, symBinAddr: 0x69820, symSize: 0x110 }
  - { offsetInCU: 0x443CA, offset: 0x2712E8, size: 0x8, addend: 0x0, symName: '__ZN3syn10punctuated23Punctuated$LT$T$C$P$GT$10push_punct17h0e6070274da9870bE', symObjAddr: 0xAE10, symBinAddr: 0x69930, symSize: 0x120 }
  - { offsetInCU: 0x447C7, offset: 0x2716E5, size: 0x8, addend: 0x0, symName: '__ZN3syn10punctuated23Punctuated$LT$T$C$P$GT$10push_punct17h24286cd6641c5efeE', symObjAddr: 0xAF30, symBinAddr: 0x69A50, symSize: 0xF0 }
  - { offsetInCU: 0x44BC4, offset: 0x271AE2, size: 0x8, addend: 0x0, symName: '__ZN3syn10punctuated23Punctuated$LT$T$C$P$GT$10push_punct17h27450a552d2ea5c7E', symObjAddr: 0xB020, symBinAddr: 0x69B40, symSize: 0x110 }
  - { offsetInCU: 0x44FCE, offset: 0x271EEC, size: 0x8, addend: 0x0, symName: '__ZN3syn10punctuated23Punctuated$LT$T$C$P$GT$10push_punct17h44bfb8b49b59ff15E', symObjAddr: 0xB130, symBinAddr: 0x69C50, symSize: 0x110 }
  - { offsetInCU: 0x453CB, offset: 0x2722E9, size: 0x8, addend: 0x0, symName: '__ZN3syn10punctuated23Punctuated$LT$T$C$P$GT$10push_punct17h7ab9900f429df4d2E', symObjAddr: 0xB240, symBinAddr: 0x69D60, symSize: 0x110 }
  - { offsetInCU: 0x457BB, offset: 0x2726D9, size: 0x8, addend: 0x0, symName: '__ZN3syn10punctuated23Punctuated$LT$T$C$P$GT$10push_punct17h9e503a1a499ffaa4E', symObjAddr: 0xB350, symBinAddr: 0x69E70, symSize: 0x110 }
  - { offsetInCU: 0x45BE6, offset: 0x272B04, size: 0x8, addend: 0x0, symName: '__ZN3syn10punctuated23Punctuated$LT$T$C$P$GT$10push_punct17haecab6c445d3d0a0E', symObjAddr: 0xB460, symBinAddr: 0x69F80, symSize: 0x140 }
  - { offsetInCU: 0x46136, offset: 0x273054, size: 0x8, addend: 0x0, symName: '__ZN3syn10punctuated23Punctuated$LT$T$C$P$GT$10push_punct17hb0efd3086160dde8E', symObjAddr: 0xB5A0, symBinAddr: 0x6A0C0, symSize: 0xF0 }
  - { offsetInCU: 0x46533, offset: 0x273451, size: 0x8, addend: 0x0, symName: '__ZN3syn10punctuated23Punctuated$LT$T$C$P$GT$10push_punct17hdafa07dad0c325a7E', symObjAddr: 0xB690, symBinAddr: 0x6A1B0, symSize: 0x110 }
  - { offsetInCU: 0x4694A, offset: 0x273868, size: 0x8, addend: 0x0, symName: '__ZN3syn10punctuated23Punctuated$LT$T$C$P$GT$10push_punct17hdd359bad1ebfd945E', symObjAddr: 0xB7A0, symBinAddr: 0x6A2C0, symSize: 0x110 }
  - { offsetInCU: 0x46D47, offset: 0x273C65, size: 0x8, addend: 0x0, symName: '__ZN3syn10punctuated23Punctuated$LT$T$C$P$GT$10push_punct17he61ebefe1fbd6233E', symObjAddr: 0xB8B0, symBinAddr: 0x6A3D0, symSize: 0x110 }
  - { offsetInCU: 0x47144, offset: 0x274062, size: 0x8, addend: 0x0, symName: '__ZN3syn10punctuated23Punctuated$LT$T$C$P$GT$10push_punct17hedabbd3c35f4a750E', symObjAddr: 0xB9C0, symBinAddr: 0x6A4E0, symSize: 0x110 }
  - { offsetInCU: 0x47541, offset: 0x27445F, size: 0x8, addend: 0x0, symName: '__ZN3syn10punctuated23Punctuated$LT$T$C$P$GT$10push_punct17hfa5ffee47f85172bE', symObjAddr: 0xBAD0, symBinAddr: 0x6A5F0, symSize: 0x110 }
  - { offsetInCU: 0x4793E, offset: 0x27485C, size: 0x8, addend: 0x0, symName: '__ZN3syn10punctuated23Punctuated$LT$T$C$P$GT$10push_punct17hff6cad691140237dE', symObjAddr: 0xBBE0, symBinAddr: 0x6A700, symSize: 0x120 }
  - { offsetInCU: 0x47DD4, offset: 0x274CF2, size: 0x8, addend: 0x0, symName: '__ZN3syn10punctuated23Punctuated$LT$T$C$P$GT$3pop17h6c6e5aa8da1faf58E', symObjAddr: 0xBD00, symBinAddr: 0x6A820, symSize: 0xA0 }
  - { offsetInCU: 0x481DC, offset: 0x2750FA, size: 0x8, addend: 0x0, symName: '__ZN3syn10punctuated23Punctuated$LT$T$C$P$GT$4push17hdc36ad8613c26a5bE', symObjAddr: 0xBDA0, symBinAddr: 0x6A8C0, symSize: 0x170 }
  - { offsetInCU: 0x48590, offset: 0x2754AE, size: 0x8, addend: 0x0, symName: '__ZN3syn10punctuated23Punctuated$LT$T$C$P$GT$21parse_terminated_with17h19cf4460b97e8380E', symObjAddr: 0xBF10, symBinAddr: 0x6AA30, symSize: 0x200 }
  - { offsetInCU: 0x48B89, offset: 0x275AA7, size: 0x8, addend: 0x0, symName: '__ZN3syn10punctuated23Punctuated$LT$T$C$P$GT$21parse_terminated_with17h804f2bc7bf3e5193E', symObjAddr: 0xC310, symBinAddr: 0x6AC30, symSize: 0x3D0 }
  - { offsetInCU: 0x4962D, offset: 0x27654B, size: 0x8, addend: 0x0, symName: '__ZN3syn10punctuated23Punctuated$LT$T$C$P$GT$21parse_terminated_with17h88338cd3dff110dcE', symObjAddr: 0xC6E0, symBinAddr: 0x6B000, symSize: 0x3E0 }
  - { offsetInCU: 0x2D53, offset: 0x2803B6, size: 0x8, addend: 0x0, symName: '__ZN3syn4expr7parsing63_$LT$impl$u20$syn..parse..Parse$u20$for$u20$syn..expr..Expr$GT$5parse17h2dd32c2563b281f1E', symObjAddr: 0x9380, symBinAddr: 0x748F0, symSize: 0xF0 }
  - { offsetInCU: 0x2E03, offset: 0x280466, size: 0x8, addend: 0x0, symName: '__ZN3syn4expr7parsing66_$LT$impl$u20$syn..parse..Parse$u20$for$u20$syn..expr..ExprLit$GT$5parse17h037323e67b33f4e0E', symObjAddr: 0x9D40, symBinAddr: 0x749E0, symSize: 0xF0 }
  - { offsetInCU: 0x2EF4, offset: 0x280557, size: 0x8, addend: 0x0, symName: '__ZN3syn4expr7parsing65_$LT$impl$u20$syn..parse..Parse$u20$for$u20$syn..expr..ExprIf$GT$5parse17h057f7aac17b81ecfE', symObjAddr: 0x9E70, symBinAddr: 0x74AD0, symSize: 0x10D0 }
  - { offsetInCU: 0x5858, offset: 0x282EBB, size: 0x8, addend: 0x0, symName: '__ZN3syn4expr7parsing68_$LT$impl$u20$syn..parse..Parse$u20$for$u20$syn..expr..ExprInfer$GT$5parse17hee2966860a129500E', symObjAddr: 0xAF40, symBinAddr: 0x75BA0, symSize: 0x190 }
  - { offsetInCU: 0x5C48, offset: 0x2832AB, size: 0x8, addend: 0x0, symName: '__ZN3syn4expr7parsing70_$LT$impl$u20$syn..parse..Parse$u20$for$u20$syn..expr..ExprForLoop$GT$5parse17hedfbb0907538a2b3E', symObjAddr: 0xB0D0, symBinAddr: 0x75D30, symSize: 0xAE0 }
  - { offsetInCU: 0x6CAC, offset: 0x28430F, size: 0x8, addend: 0x0, symName: '__ZN3syn4expr7parsing67_$LT$impl$u20$syn..parse..Parse$u20$for$u20$syn..expr..ExprLoop$GT$5parse17h7ed0d5dbbb60f303E', symObjAddr: 0xBBB0, symBinAddr: 0x76810, symSize: 0x670 }
  - { offsetInCU: 0x7B1B, offset: 0x28517E, size: 0x8, addend: 0x0, symName: '__ZN3syn4expr7parsing68_$LT$impl$u20$syn..parse..Parse$u20$for$u20$syn..expr..ExprMatch$GT$5parse17h34519e3f1e766752E', symObjAddr: 0xC220, symBinAddr: 0x76E80, symSize: 0x870 }
  - { offsetInCU: 0x8A4F, offset: 0x2860B2, size: 0x8, addend: 0x0, symName: '__ZN3syn4expr7parsing69_$LT$impl$u20$syn..parse..Parse$u20$for$u20$syn..expr..ExprReturn$GT$5parse17hc1b56b8a902787dbE', symObjAddr: 0xCDA0, symBinAddr: 0x776F0, symSize: 0x120 }
  - { offsetInCU: 0x8C33, offset: 0x286296, size: 0x8, addend: 0x0, symName: '__ZN3syn4expr7parsing71_$LT$impl$u20$syn..parse..Parse$u20$for$u20$syn..expr..ExprTryBlock$GT$5parse17h57d58ae4f0ae4d64E', symObjAddr: 0xCEC0, symBinAddr: 0x77810, symSize: 0x140 }
  - { offsetInCU: 0x8DB3, offset: 0x286416, size: 0x8, addend: 0x0, symName: '__ZN3syn4expr7parsing68_$LT$impl$u20$syn..parse..Parse$u20$for$u20$syn..expr..ExprYield$GT$5parse17h1274dc253af9a55dE', symObjAddr: 0xD000, symBinAddr: 0x77950, symSize: 0x120 }
  - { offsetInCU: 0x8F97, offset: 0x2865FA, size: 0x8, addend: 0x0, symName: '__ZN3syn4expr7parsing68_$LT$impl$u20$syn..parse..Parse$u20$for$u20$syn..expr..ExprAsync$GT$5parse17h1b9426392ef89a9dE', symObjAddr: 0xD120, symBinAddr: 0x77A70, symSize: 0x1E0 }
  - { offsetInCU: 0x9299, offset: 0x2868FC, size: 0x8, addend: 0x0, symName: '__ZN3syn4expr7parsing68_$LT$impl$u20$syn..parse..Parse$u20$for$u20$syn..expr..ExprWhile$GT$5parse17h632c2901c80fa142E', symObjAddr: 0xD300, symBinAddr: 0x77C50, symSize: 0x940 }
  - { offsetInCU: 0xA12C, offset: 0x28778F, size: 0x8, addend: 0x0, symName: '__ZN3syn4expr7parsing68_$LT$impl$u20$syn..parse..Parse$u20$for$u20$syn..expr..ExprConst$GT$5parse17h3cb83d630e04595bE', symObjAddr: 0xDC40, symBinAddr: 0x78590, symSize: 0x480 }
  - { offsetInCU: 0xA961, offset: 0x287FC4, size: 0x8, addend: 0x0, symName: '__ZN3syn4expr7parsing64_$LT$impl$u20$syn..parse..Parse$u20$for$u20$syn..expr..Label$GT$5parse17hef86b1bab95aa7abE', symObjAddr: 0xE0C0, symBinAddr: 0x78A10, symSize: 0x240 }
  - { offsetInCU: 0xAE21, offset: 0x288484, size: 0x8, addend: 0x0, symName: '__ZN3syn4expr7parsing71_$LT$impl$u20$syn..parse..Parse$u20$for$u20$syn..expr..ExprContinue$GT$5parse17h63c6d49ae369ea01E', symObjAddr: 0xE300, symBinAddr: 0x78C50, symSize: 0x1B0 }
  - { offsetInCU: 0xAFA2, offset: 0x288605, size: 0x8, addend: 0x0, symName: '__ZN3syn4expr7parsing69_$LT$impl$u20$syn..parse..Parse$u20$for$u20$syn..expr..FieldValue$GT$5parse17hcbc1792fb9342612E', symObjAddr: 0xE4B0, symBinAddr: 0x78E00, symSize: 0x670 }
  - { offsetInCU: 0xBA34, offset: 0x289097, size: 0x8, addend: 0x0, symName: '__ZN3syn4expr7parsing69_$LT$impl$u20$syn..parse..Parse$u20$for$u20$syn..expr..ExprUnsafe$GT$5parse17hd34f309eaaaddbf9E', symObjAddr: 0xEC40, symBinAddr: 0x79470, symSize: 0x480 }
  - { offsetInCU: 0xC269, offset: 0x2898CC, size: 0x8, addend: 0x0, symName: '__ZN3syn4expr7parsing68_$LT$impl$u20$syn..parse..Parse$u20$for$u20$syn..expr..ExprBlock$GT$5parse17h61a2a565a082b026E', symObjAddr: 0xF0C0, symBinAddr: 0x798F0, symSize: 0x620 }
  - { offsetInCU: 0xD0C4, offset: 0x28A727, size: 0x8, addend: 0x0, symName: '__ZN3syn4expr7parsing70_$LT$impl$u20$syn..parse..Parse$u20$for$u20$syn..expr..RangeLimits$GT$5parse17hafc71f8b1811b3d4E', symObjAddr: 0xF6E0, symBinAddr: 0x79F10, symSize: 0x2F0 }
  - { offsetInCU: 0xDD42, offset: 0x28B3A5, size: 0x8, addend: 0x0, symName: '__ZN3syn4expr7parsing67_$LT$impl$u20$syn..parse..Parse$u20$for$u20$syn..expr..ExprPath$GT$5parse17hcfacd5d2290fdd20E', symObjAddr: 0xFD70, symBinAddr: 0x7A5A0, symSize: 0x240 }
  - { offsetInCU: 0xE186, offset: 0x28B7E9, size: 0x8, addend: 0x0, symName: '__ZN3syn4expr7parsing65_$LT$impl$u20$syn..parse..Parse$u20$for$u20$syn..expr..Member$GT$5parse17h207aacc2d4c7579fE', symObjAddr: 0xFFB0, symBinAddr: 0x7A7E0, symSize: 0xE0 }
  - { offsetInCU: 0xE3F7, offset: 0x28BA5A, size: 0x8, addend: 0x0, symName: '__ZN3syn4expr7parsing62_$LT$impl$u20$syn..parse..Parse$u20$for$u20$syn..expr..Arm$GT$5parse17h512532f6f815234dE', symObjAddr: 0x10090, symBinAddr: 0x7A8C0, symSize: 0xA10 }
  - { offsetInCU: 0xF319, offset: 0x28C97C, size: 0x8, addend: 0x0, symName: '__ZN3syn4expr7parsing64_$LT$impl$u20$syn..parse..Parse$u20$for$u20$syn..expr..Index$GT$5parse17h5b2fe44bac761272E', symObjAddr: 0x10AA0, symBinAddr: 0x7B2D0, symSize: 0x180 }
  - { offsetInCU: 0xF9EA, offset: 0x28D04D, size: 0x8, addend: 0x0, symName: '__ZN3syn4expr8printing77_$LT$impl$u20$quote..to_tokens..ToTokens$u20$for$u20$syn..expr..ExprAsync$GT$9to_tokens17h7671d28113e1e04eE', symObjAddr: 0x10CC0, symBinAddr: 0x7B450, symSize: 0x160 }
  - { offsetInCU: 0x10075, offset: 0x28D6D8, size: 0x8, addend: 0x0, symName: '__ZN3syn4expr8printing77_$LT$impl$u20$quote..to_tokens..ToTokens$u20$for$u20$syn..expr..ExprBlock$GT$9to_tokens17h25103e38a45e4c1aE', symObjAddr: 0x10E40, symBinAddr: 0x7B5B0, symSize: 0xF0 }
  - { offsetInCU: 0x105DD, offset: 0x28DC40, size: 0x8, addend: 0x0, symName: '__ZN3syn4expr8printing79_$LT$impl$u20$quote..to_tokens..ToTokens$u20$for$u20$syn..expr..ExprClosure$GT$9to_tokens17h22aefaf35f6b4a17E', symObjAddr: 0x10F60, symBinAddr: 0x7B6A0, symSize: 0x400 }
  - { offsetInCU: 0x11328, offset: 0x28E98B, size: 0x8, addend: 0x0, symName: '__ZN3syn4expr8printing77_$LT$impl$u20$quote..to_tokens..ToTokens$u20$for$u20$syn..expr..ExprConst$GT$9to_tokens17hfc10e9b463dc8ee9E', symObjAddr: 0x11360, symBinAddr: 0x7BAA0, symSize: 0xF0 }
  - { offsetInCU: 0x117A6, offset: 0x28EE09, size: 0x8, addend: 0x0, symName: '__ZN3syn4expr8printing80_$LT$impl$u20$quote..to_tokens..ToTokens$u20$for$u20$syn..expr..ExprContinue$GT$9to_tokens17h5bfb9035b6328620E', symObjAddr: 0x11450, symBinAddr: 0x7BB90, symSize: 0x130 }
  - { offsetInCU: 0x11D8A, offset: 0x28F3ED, size: 0x8, addend: 0x0, symName: '__ZN3syn4expr8printing79_$LT$impl$u20$quote..to_tokens..ToTokens$u20$for$u20$syn..expr..ExprForLoop$GT$9to_tokens17h240fbce8573b3e2aE', symObjAddr: 0x11590, symBinAddr: 0x7BCC0, symSize: 0x240 }
  - { offsetInCU: 0x12642, offset: 0x28FCA5, size: 0x8, addend: 0x0, symName: '__ZN3syn4expr8printing74_$LT$impl$u20$quote..to_tokens..ToTokens$u20$for$u20$syn..expr..ExprIf$GT$9to_tokens17hf717ea11b1d1406aE', symObjAddr: 0x11860, symBinAddr: 0x7BF00, symSize: 0x330 }
  - { offsetInCU: 0x132AF, offset: 0x290912, size: 0x8, addend: 0x0, symName: '__ZN3syn4expr8printing77_$LT$impl$u20$quote..to_tokens..ToTokens$u20$for$u20$syn..expr..ExprInfer$GT$9to_tokens17h66f2f3192152ee7bE', symObjAddr: 0x11BA0, symBinAddr: 0x7C230, symSize: 0xE0 }
  - { offsetInCU: 0x13757, offset: 0x290DBA, size: 0x8, addend: 0x0, symName: '__ZN3syn4expr8printing76_$LT$impl$u20$quote..to_tokens..ToTokens$u20$for$u20$syn..expr..ExprLoop$GT$9to_tokens17h32916f0a6a52df29E', symObjAddr: 0x11D20, symBinAddr: 0x7C310, symSize: 0x160 }
  - { offsetInCU: 0x13EF9, offset: 0x29155C, size: 0x8, addend: 0x0, symName: '__ZN3syn4expr8printing78_$LT$impl$u20$quote..to_tokens..ToTokens$u20$for$u20$syn..expr..ExprStruct$GT$9to_tokens17h5b9d34ef7b745589E', symObjAddr: 0x12260, symBinAddr: 0x7C470, symSize: 0xA0 }
  - { offsetInCU: 0x14284, offset: 0x2918E7, size: 0x8, addend: 0x0, symName: '__ZN3syn4expr8printing80_$LT$impl$u20$quote..to_tokens..ToTokens$u20$for$u20$syn..expr..ExprTryBlock$GT$9to_tokens17h21b1a3e7eeb0a009E', symObjAddr: 0x12310, symBinAddr: 0x7C510, symSize: 0xF0 }
  - { offsetInCU: 0x14782, offset: 0x291DE5, size: 0x8, addend: 0x0, symName: '__ZN3syn4expr8printing78_$LT$impl$u20$quote..to_tokens..ToTokens$u20$for$u20$syn..expr..ExprUnsafe$GT$9to_tokens17h4dfc36d6c64a764dE', symObjAddr: 0x124A0, symBinAddr: 0x7C600, symSize: 0xF0 }
  - { offsetInCU: 0x14C5A, offset: 0x2922BD, size: 0x8, addend: 0x0, symName: '__ZN3syn4expr8printing71_$LT$impl$u20$quote..to_tokens..ToTokens$u20$for$u20$syn..expr..Arm$GT$9to_tokens17hb5881eaa41e95cfeE', symObjAddr: 0x12770, symBinAddr: 0x7C6F0, symSize: 0x180 }
  - { offsetInCU: 0x15058, offset: 0x2926BB, size: 0x8, addend: 0x0, symName: '__ZN3syn4expr8printing74_$LT$impl$u20$quote..to_tokens..ToTokens$u20$for$u20$syn..expr..Member$GT$9to_tokens17h4e2d160d172ed775E', symObjAddr: 0x12BC0, symBinAddr: 0x7CAC0, symSize: 0xC0 }
  - { offsetInCU: 0x15325, offset: 0x292988, size: 0x8, addend: 0x0, symName: '__ZN3syn4expr8printing73_$LT$impl$u20$quote..to_tokens..ToTokens$u20$for$u20$syn..expr..Index$GT$9to_tokens17haee545b63dff3b6aE', symObjAddr: 0x12A90, symBinAddr: 0x7CA10, symSize: 0xB0 }
  - { offsetInCU: 0x15578, offset: 0x292BDB, size: 0x8, addend: 0x0, symName: '__ZN3syn4expr8printing78_$LT$impl$u20$quote..to_tokens..ToTokens$u20$for$u20$syn..expr..FieldValue$GT$9to_tokens17heb932e58796058afE', symObjAddr: 0x128F0, symBinAddr: 0x7C870, symSize: 0x1A0 }
  - { offsetInCU: 0x15BDD, offset: 0x293240, size: 0x8, addend: 0x0, symName: '__ZN62_$LT$syn..expr..Expr$u20$as$u20$quote..to_tokens..ToTokens$GT$9to_tokens17h591e04bab5b62929E', symObjAddr: 0x12D00, symBinAddr: 0x7CB80, symSize: 0x22C0 }
  - { offsetInCU: 0x217AF, offset: 0x29EE12, size: 0x8, addend: 0x0, symName: '__ZN3syn3gen5clone63_$LT$impl$u20$core..clone..Clone$u20$for$u20$syn..expr..Arm$GT$5clone17h731a332d9e810dfbE', symObjAddr: 0x174C0, symBinAddr: 0x7EE40, symSize: 0x1F0 }
  - { offsetInCU: 0x22104, offset: 0x29F767, size: 0x8, addend: 0x0, symName: '__ZN3syn3gen5clone64_$LT$impl$u20$core..clone..Clone$u20$for$u20$syn..expr..Expr$GT$5clone17hd0fbb57decae682fE', symObjAddr: 0x176B0, symBinAddr: 0x7F030, symSize: 0x1DF0 }
  - { offsetInCU: 0x25DD5, offset: 0x2A3438, size: 0x8, addend: 0x0, symName: '__ZN3syn3gen5clone69_$LT$impl$u20$core..clone..Clone$u20$for$u20$syn..expr..ExprBlock$GT$5clone17hc672c8361322b75dE', symObjAddr: 0x199C0, symBinAddr: 0x80E20, symSize: 0x140 }
  - { offsetInCU: 0x260AB, offset: 0x2A370E, size: 0x8, addend: 0x0, symName: '__ZN3syn3gen5clone69_$LT$impl$u20$core..clone..Clone$u20$for$u20$syn..expr..ExprBreak$GT$5clone17h7bd0ca0880b96178E', symObjAddr: 0x19B00, symBinAddr: 0x80F60, symSize: 0x1A0 }
  - { offsetInCU: 0x2655C, offset: 0x2A3BBF, size: 0x8, addend: 0x0, symName: '__ZN3syn3gen5clone71_$LT$impl$u20$core..clone..Clone$u20$for$u20$syn..expr..ExprClosure$GT$5clone17h793550ac36ec18ecE', symObjAddr: 0x19F50, symBinAddr: 0x81100, symSize: 0x380 }
  - { offsetInCU: 0x26C27, offset: 0x2A428A, size: 0x8, addend: 0x0, symName: '__ZN3syn3gen5clone71_$LT$impl$u20$core..clone..Clone$u20$for$u20$syn..expr..ExprForLoop$GT$5clone17h43600741ac808a48E', symObjAddr: 0x1A590, symBinAddr: 0x81480, symSize: 0x2A0 }
  - { offsetInCU: 0x27380, offset: 0x2A49E3, size: 0x8, addend: 0x0, symName: '__ZN3syn3gen5clone66_$LT$impl$u20$core..clone..Clone$u20$for$u20$syn..expr..ExprIf$GT$5clone17h1d1ef5ce5034df51E', symObjAddr: 0x1A910, symBinAddr: 0x81720, symSize: 0x1E0 }
  - { offsetInCU: 0x2789F, offset: 0x2A4F02, size: 0x8, addend: 0x0, symName: '__ZN3syn3gen5clone68_$LT$impl$u20$core..clone..Clone$u20$for$u20$syn..expr..ExprLoop$GT$5clone17h5ec892bf07c52e97E', symObjAddr: 0x1AE90, symBinAddr: 0x81900, symSize: 0x150 }
  - { offsetInCU: 0x27BA3, offset: 0x2A5206, size: 0x8, addend: 0x0, symName: '__ZN3syn3gen5clone69_$LT$impl$u20$core..clone..Clone$u20$for$u20$syn..expr..ExprMatch$GT$5clone17ha5b2779974051841E', symObjAddr: 0x1B070, symBinAddr: 0x81A50, symSize: 0x140 }
  - { offsetInCU: 0x27E2B, offset: 0x2A548E, size: 0x8, addend: 0x0, symName: '__ZN3syn3gen5clone74_$LT$impl$u20$core..clone..Clone$u20$for$u20$syn..expr..ExprMethodCall$GT$5clone17h4d51c2e74302fd51E', symObjAddr: 0x1B1B0, symBinAddr: 0x81B90, symSize: 0x3A0 }
  - { offsetInCU: 0x28532, offset: 0x2A5B95, size: 0x8, addend: 0x0, symName: '__ZN3syn3gen5clone68_$LT$impl$u20$core..clone..Clone$u20$for$u20$syn..expr..ExprPath$GT$5clone17h5e066ec238ed93d5E', symObjAddr: 0x1B630, symBinAddr: 0x81F30, symSize: 0x1B0 }
  - { offsetInCU: 0x2889F, offset: 0x2A5F02, size: 0x8, addend: 0x0, symName: '__ZN3syn3gen5clone69_$LT$impl$u20$core..clone..Clone$u20$for$u20$syn..expr..ExprRange$GT$5clone17h9227c42eb2ce8610E', symObjAddr: 0x1B7E0, symBinAddr: 0x820E0, symSize: 0x1A0 }
  - { offsetInCU: 0x28DAB, offset: 0x2A640E, size: 0x8, addend: 0x0, symName: '__ZN3syn3gen5clone70_$LT$impl$u20$core..clone..Clone$u20$for$u20$syn..expr..ExprStruct$GT$5clone17h182ae561ae6d6028E', symObjAddr: 0x1BC00, symBinAddr: 0x82280, symSize: 0x390 }
  - { offsetInCU: 0x295F2, offset: 0x2A6C55, size: 0x8, addend: 0x0, symName: '__ZN3syn3gen5clone69_$LT$impl$u20$core..clone..Clone$u20$for$u20$syn..expr..ExprWhile$GT$5clone17hc9698df3873ae4b0E', symObjAddr: 0x1C150, symBinAddr: 0x82610, symSize: 0x200 }
  - { offsetInCU: 0x29B1B, offset: 0x2A717E, size: 0x8, addend: 0x0, symName: '__ZN3syn3gen5clone70_$LT$impl$u20$core..clone..Clone$u20$for$u20$syn..expr..FieldValue$GT$5clone17he5e5e61c3443e293E', symObjAddr: 0x1C440, symBinAddr: 0x82810, symSize: 0x150 }
  - { offsetInCU: 0x2BE5B, offset: 0x2A94BE, size: 0x8, addend: 0x0, symName: '__ZN4core3ptr100drop_in_place$LT$core..option..Option$LT$alloc..boxed..Box$LT$syn..path..GenericArgument$GT$$GT$$GT$17h3a7c44b9e57fe410E', symObjAddr: 0x1D0, symBinAddr: 0x6CC30, symSize: 0x50 }
  - { offsetInCU: 0x2C1F9, offset: 0x2A985C, size: 0x8, addend: 0x0, symName: '__ZN4core3ptr100drop_in_place$LT$syn..punctuated..Punctuated$LT$syn..path..PathSegment$C$syn..token..PathSep$GT$$GT$17he41ef64147139591E', symObjAddr: 0x220, symBinAddr: 0x6CC80, symSize: 0x2B0 }
  - { offsetInCU: 0x2CCAF, offset: 0x2AA312, size: 0x8, addend: 0x0, symName: '__ZN4core3ptr103drop_in_place$LT$core..option..Option$LT$alloc..boxed..Box$LT$syn..generics..TypeParamBound$GT$$GT$$GT$17hb14e4384a768542bE', symObjAddr: 0x4D0, symBinAddr: 0x6CF30, symSize: 0x50 }
  - { offsetInCU: 0x2CEBA, offset: 0x2AA51D, size: 0x8, addend: 0x0, symName: '__ZN4core3ptr103drop_in_place$LT$syn..punctuated..Punctuated$LT$syn..generics..GenericParam$C$syn..token..Comma$GT$$GT$17h0c6077a988036760E', symObjAddr: 0x520, symBinAddr: 0x6CF80, symSize: 0xF0 }
  - { offsetInCU: 0x2D3B5, offset: 0x2AAA18, size: 0x8, addend: 0x0, symName: '__ZN4core3ptr104drop_in_place$LT$syn..punctuated..Punctuated$LT$syn..generics..TypeParamBound$C$syn..token..Plus$GT$$GT$17h724e4d9d1d65061aE', symObjAddr: 0x610, symBinAddr: 0x6D070, symSize: 0x190 }
  - { offsetInCU: 0x2D9D8, offset: 0x2AB03B, size: 0x8, addend: 0x0, symName: '__ZN4core3ptr114drop_in_place$LT$core..option..Option$LT$$LP$syn..token..If$C$alloc..boxed..Box$LT$syn..expr..Expr$GT$$RP$$GT$$GT$17h65df04de8e20ab0aE.llvm.3179342279309578476', symObjAddr: 0x7A0, symBinAddr: 0x6D200, symSize: 0x0 }
  - { offsetInCU: 0x2DC07, offset: 0x2AB26A, size: 0x8, addend: 0x0, symName: '__ZN4core3ptr34drop_in_place$LT$syn..lit..Lit$GT$17hd64dde89a262341dE.llvm.3179342279309578476', symObjAddr: 0x7F0, symBinAddr: 0x6D250, symSize: 0x130 }
  - { offsetInCU: 0x2E140, offset: 0x2AB7A3, size: 0x8, addend: 0x0, symName: '__ZN4core3ptr34drop_in_place$LT$syn..pat..Pat$GT$17hf88887878261d63cE.llvm.3179342279309578476', symObjAddr: 0x920, symBinAddr: 0x6D380, symSize: 0x1100 }
  - { offsetInCU: 0x327B9, offset: 0x2AFE1C, size: 0x8, addend: 0x0, symName: '__ZN4core3ptr34drop_in_place$LT$syn..ty..Type$GT$17ha80dd29b0f9d4a3fE.llvm.3179342279309578476', symObjAddr: 0x1A20, symBinAddr: 0x6E480, symSize: 0x520 }
  - { offsetInCU: 0x3387D, offset: 0x2B0EE0, size: 0x8, addend: 0x0, symName: '__ZN4core3ptr35drop_in_place$LT$syn..expr..Arm$GT$17hd729aea1406305a9E', symObjAddr: 0x1F40, symBinAddr: 0x6E9A0, symSize: 0x160 }
  - { offsetInCU: 0x34336, offset: 0x2B1999, size: 0x8, addend: 0x0, symName: '__ZN4core3ptr36drop_in_place$LT$syn..expr..Expr$GT$17h10f573b40ddd212cE.llvm.3179342279309578476', symObjAddr: 0x20A0, symBinAddr: 0x6EB00, symSize: 0x2550 }
  - { offsetInCU: 0x3D74D, offset: 0x2BADB0, size: 0x8, addend: 0x0, symName: '__ZN4core3ptr36drop_in_place$LT$syn..mac..Macro$GT$17hc3b30a7a8a34cc2dE.llvm.3179342279309578476', symObjAddr: 0x45F0, symBinAddr: 0x71050, symSize: 0x40 }
  - { offsetInCU: 0x3D787, offset: 0x2BADEA, size: 0x8, addend: 0x0, symName: '__ZN4core3ptr36drop_in_place$LT$syn..path..Path$GT$17h75c74a97d5f0a03bE.llvm.3179342279309578476', symObjAddr: 0x4630, symBinAddr: 0x71090, symSize: 0x280 }
  - { offsetInCU: 0x3E272, offset: 0x2BB8D5, size: 0x8, addend: 0x0, symName: '__ZN4core3ptr37drop_in_place$LT$syn..lit..LitInt$GT$17hb1d9c894162666f0E.llvm.3179342279309578476', symObjAddr: 0x48B0, symBinAddr: 0x71310, symSize: 0x70 }
  - { offsetInCU: 0x3E603, offset: 0x2BBC66, size: 0x8, addend: 0x0, symName: '__ZN4core3ptr37drop_in_place$LT$syn..stmt..Block$GT$17h6fc3254d5688f2c3E.llvm.3179342279309578476', symObjAddr: 0x4920, symBinAddr: 0x71380, symSize: 0xD0 }
  - { offsetInCU: 0x3E918, offset: 0x2BBF7B, size: 0x8, addend: 0x0, symName: '__ZN4core3ptr38drop_in_place$LT$syn..expr..ExprIf$GT$17ha8d3c2042f45d05fE', symObjAddr: 0x49F0, symBinAddr: 0x71450, symSize: 0x200 }
  - { offsetInCU: 0x3F1D4, offset: 0x2BC837, size: 0x8, addend: 0x0, symName: '__ZN4core3ptr38drop_in_place$LT$syn..expr..Member$GT$17h6b0cf84594ce6bceE.llvm.3179342279309578476', symObjAddr: 0x4BF0, symBinAddr: 0x71650, symSize: 0x30 }
  - { offsetInCU: 0x3F2D0, offset: 0x2BC933, size: 0x8, addend: 0x0, symName: '__ZN4core3ptr39drop_in_place$LT$proc_macro2..Ident$GT$17ha28fef9769e267d9E.llvm.3179342279309578476', symObjAddr: 0x4C20, symBinAddr: 0x71680, symSize: 0x30 }
  - { offsetInCU: 0x3F3AD, offset: 0x2BCA10, size: 0x8, addend: 0x0, symName: '__ZN4core3ptr40drop_in_place$LT$syn..ty..ReturnType$GT$17h035a612e322b6510E.llvm.3179342279309578476', symObjAddr: 0x4FB0, symBinAddr: 0x716B0, symSize: 0x50 }
  - { offsetInCU: 0x3F51D, offset: 0x2BCB80, size: 0x8, addend: 0x0, symName: '__ZN4core3ptr41drop_in_place$LT$syn..expr..ExprConst$GT$17hbfe19d5d621e6836E', symObjAddr: 0x5030, symBinAddr: 0x71700, symSize: 0x180 }
  - { offsetInCU: 0x3FB29, offset: 0x2BD18C, size: 0x8, addend: 0x0, symName: '__ZN4core3ptr44drop_in_place$LT$syn..lifetime..Lifetime$GT$17he37fa474f03de7b1E', symObjAddr: 0x58E0, symBinAddr: 0x71880, symSize: 0x30 }
  - { offsetInCU: 0x3FCA1, offset: 0x2BD304, size: 0x8, addend: 0x0, symName: '__ZN4core3ptr44drop_in_place$LT$syn..parse..ParseBuffer$GT$17hf792ff20095efc35E', symObjAddr: 0x5910, symBinAddr: 0x718B0, symSize: 0x70 }
  - { offsetInCU: 0x400B8, offset: 0x2BD71B, size: 0x8, addend: 0x0, symName: '__ZN4core3ptr45drop_in_place$LT$proc_macro2..TokenStream$GT$17h76e8e68015f4924dE.llvm.3179342279309578476', symObjAddr: 0x5980, symBinAddr: 0x71920, symSize: 0x140 }
  - { offsetInCU: 0x40552, offset: 0x2BDBB5, size: 0x8, addend: 0x0, symName: '__ZN4core3ptr45drop_in_place$LT$syn..generics..TypeParam$GT$17h188a459c1380ac75E', symObjAddr: 0x5AC0, symBinAddr: 0x71A60, symSize: 0x230 }
  - { offsetInCU: 0x40E24, offset: 0x2BE487, size: 0x8, addend: 0x0, symName: '__ZN4core3ptr46drop_in_place$LT$syn..expr..ExprMethodCall$GT$17hcac390ae151688a0E', symObjAddr: 0x5CF0, symBinAddr: 0x71C90, symSize: 0x340 }
  - { offsetInCU: 0x41C71, offset: 0x2BF2D4, size: 0x8, addend: 0x0, symName: '__ZN4core3ptr46drop_in_place$LT$syn..generics..ConstParam$GT$17h7a9b900b2b88bfcdE', symObjAddr: 0x6030, symBinAddr: 0x71FD0, symSize: 0x150 }
  - { offsetInCU: 0x4216E, offset: 0x2BF7D1, size: 0x8, addend: 0x0, symName: '__ZN4core3ptr47drop_in_place$LT$syn..path..GenericArgument$GT$17h593f06d6ca9a94d2E', symObjAddr: 0x61B0, symBinAddr: 0x72120, symSize: 0x4A0 }
  - { offsetInCU: 0x43274, offset: 0x2C08D7, size: 0x8, addend: 0x0, symName: '__ZN4core3ptr49drop_in_place$LT$syn..generics..LifetimeParam$GT$17h3a8835ab294bfd16E', symObjAddr: 0x6650, symBinAddr: 0x725C0, symSize: 0xF0 }
  - { offsetInCU: 0x4368B, offset: 0x2C0CEE, size: 0x8, addend: 0x0, symName: '__ZN4core3ptr50drop_in_place$LT$syn..generics..TypeParamBound$GT$17h81b4325b5900604dE', symObjAddr: 0x6740, symBinAddr: 0x726B0, symSize: 0x1C0 }
  - { offsetInCU: 0x43BE8, offset: 0x2C124B, size: 0x8, addend: 0x0, symName: '__ZN4core3ptr58drop_in_place$LT$alloc..vec..Vec$LT$syn..expr..Arm$GT$$GT$17hff9224aadf2233b8E.llvm.3179342279309578476', symObjAddr: 0x6900, symBinAddr: 0x72870, symSize: 0xD0 }
  - { offsetInCU: 0x43EA8, offset: 0x2C150B, size: 0x8, addend: 0x0, symName: '__ZN4core3ptr59drop_in_place$LT$alloc..boxed..Box$LT$syn..pat..Pat$GT$$GT$17h622b0c1db21c0742E.llvm.3179342279309578476', symObjAddr: 0x69D0, symBinAddr: 0x72940, symSize: 0x50 }
  - { offsetInCU: 0x44001, offset: 0x2C1664, size: 0x8, addend: 0x0, symName: '__ZN4core3ptr59drop_in_place$LT$alloc..boxed..Box$LT$syn..ty..Type$GT$$GT$17hde45fa887dd8b605E.llvm.3179342279309578476', symObjAddr: 0x6A20, symBinAddr: 0x72990, symSize: 0x50 }
  - { offsetInCU: 0x4415A, offset: 0x2C17BD, size: 0x8, addend: 0x0, symName: '__ZN4core3ptr59drop_in_place$LT$alloc..vec..Vec$LT$syn..stmt..Stmt$GT$$GT$17h6cf3e54f41bc03bdE', symObjAddr: 0x6A70, symBinAddr: 0x729E0, symSize: 0xD0 }
  - { offsetInCU: 0x4441A, offset: 0x2C1A7D, size: 0x8, addend: 0x0, symName: '__ZN4core3ptr61drop_in_place$LT$alloc..boxed..Box$LT$syn..expr..Expr$GT$$GT$17hbb42293869113942E.llvm.3179342279309578476', symObjAddr: 0x6B40, symBinAddr: 0x72AB0, symSize: 0x50 }
  - { offsetInCU: 0x44592, offset: 0x2C1BF5, size: 0x8, addend: 0x0, symName: '__ZN4core3ptr61drop_in_place$LT$alloc..vec..Vec$LT$syn..expr..ExprIf$GT$$GT$17h974b97c8babb35d3E', symObjAddr: 0x6B90, symBinAddr: 0x72B00, symSize: 0xD0 }
  - { offsetInCU: 0x448D0, offset: 0x2C1F33, size: 0x8, addend: 0x0, symName: '__ZN4core3ptr61drop_in_place$LT$syn..path..ParenthesizedGenericArguments$GT$17h6b1731382637937fE', symObjAddr: 0x6C60, symBinAddr: 0x72BD0, symSize: 0x170 }
  - { offsetInCU: 0x44EC6, offset: 0x2C2529, size: 0x8, addend: 0x0, symName: '__ZN4core3ptr62drop_in_place$LT$syn..path..AngleBracketedGenericArguments$GT$17hf8fa172f007a1473E', symObjAddr: 0x6DD0, symBinAddr: 0x72D40, symSize: 0x120 }
  - { offsetInCU: 0x45311, offset: 0x2C2974, size: 0x8, addend: 0x0, symName: '__ZN4core3ptr63drop_in_place$LT$alloc..boxed..Box$LT$syn..lit..LitRepr$GT$$GT$17h6e3a82ea4de7b84cE', symObjAddr: 0x6EF0, symBinAddr: 0x72E60, symSize: 0x60 }
  - { offsetInCU: 0x455F9, offset: 0x2C2C5C, size: 0x8, addend: 0x0, symName: '__ZN4core3ptr64drop_in_place$LT$alloc..boxed..Box$LT$syn..pat..FieldPat$GT$$GT$17hbf8f4867d84bd25dE', symObjAddr: 0x6F50, symBinAddr: 0x72EC0, symSize: 0x140 }
  - { offsetInCU: 0x45CFA, offset: 0x2C335D, size: 0x8, addend: 0x0, symName: '__ZN4core3ptr64drop_in_place$LT$alloc..boxed..Box$LT$syn..ty..BareFnArg$GT$$GT$17h6be6354eb1d1364dE', symObjAddr: 0x7090, symBinAddr: 0x73000, symSize: 0x140 }
  - { offsetInCU: 0x46283, offset: 0x2C38E6, size: 0x8, addend: 0x0, symName: '__ZN4core3ptr64drop_in_place$LT$alloc..vec..Vec$LT$syn..attr..Attribute$GT$$GT$17he33e25539d5885aeE.llvm.3179342279309578476', symObjAddr: 0x71D0, symBinAddr: 0x73140, symSize: 0xD0 }
  - { offsetInCU: 0x46577, offset: 0x2C3BDA, size: 0x8, addend: 0x0, symName: '__ZN4core3ptr65drop_in_place$LT$alloc..vec..Vec$LT$proc_macro..TokenTree$GT$$GT$17h8abd81f8596dbc59E.llvm.3179342279309578476', symObjAddr: 0x72A0, symBinAddr: 0x73210, symSize: 0x110 }
  - { offsetInCU: 0x4696F, offset: 0x2C3FD2, size: 0x8, addend: 0x0, symName: '__ZN4core3ptr65drop_in_place$LT$core..option..Option$LT$syn..expr..Label$GT$$GT$17hac599686b33ef364E.llvm.3179342279309578476', symObjAddr: 0x73B0, symBinAddr: 0x73320, symSize: 0x30 }
  - { offsetInCU: 0x46AA9, offset: 0x2C410C, size: 0x8, addend: 0x0, symName: '__ZN4core3ptr65drop_in_place$LT$core..option..Option$LT$syn..path..QSelf$GT$$GT$17h0b8dd5cda5f2cd6bE.llvm.3179342279309578476', symObjAddr: 0x73E0, symBinAddr: 0x73350, symSize: 0x50 }
  - { offsetInCU: 0x46C40, offset: 0x2C42A3, size: 0x8, addend: 0x0, symName: '__ZN4core3ptr66drop_in_place$LT$core..option..Option$LT$syn..pat..PatRest$GT$$GT$17hd5bb3bc28aa78ac1E', symObjAddr: 0x7430, symBinAddr: 0x733A0, symSize: 0xE0 }
  - { offsetInCU: 0x46F68, offset: 0x2C45CB, size: 0x8, addend: 0x0, symName: '__ZN4core3ptr67drop_in_place$LT$alloc..boxed..Box$LT$syn..expr..FieldValue$GT$$GT$17hbbcf67a9d5e9863cE', symObjAddr: 0x7510, symBinAddr: 0x73480, symSize: 0x140 }
  - { offsetInCU: 0x474D1, offset: 0x2C4B34, size: 0x8, addend: 0x0, symName: '__ZN4core3ptr68drop_in_place$LT$alloc..boxed..Box$LT$syn..path..PathSegment$GT$$GT$17h99aaf90b3262bc1eE', symObjAddr: 0x7650, symBinAddr: 0x735C0, symSize: 0x1B0 }
  - { offsetInCU: 0x47BDF, offset: 0x2C5242, size: 0x8, addend: 0x0, symName: '__ZN4core3ptr70drop_in_place$LT$core..option..Option$LT$syn..ty..BareVariadic$GT$$GT$17h79a19250e9f043b1E', symObjAddr: 0x7800, symBinAddr: 0x73770, symSize: 0x100 }
  - { offsetInCU: 0x4804A, offset: 0x2C56AD, size: 0x8, addend: 0x0, symName: '__ZN4core3ptr72drop_in_place$LT$alloc..boxed..Box$LT$syn..path..GenericArgument$GT$$GT$17hfd308d374af4273dE', symObjAddr: 0x7900, symBinAddr: 0x73870, symSize: 0x1D0 }
  - { offsetInCU: 0x485E5, offset: 0x2C5C48, size: 0x8, addend: 0x0, symName: '__ZN4core3ptr72drop_in_place$LT$core..option..Option$LT$syn..lifetime..Lifetime$GT$$GT$17h49cce6f02f9c0590E.llvm.3179342279309578476', symObjAddr: 0x7AD0, symBinAddr: 0x73A40, symSize: 0x30 }
  - { offsetInCU: 0x48700, offset: 0x2C5D63, size: 0x8, addend: 0x0, symName: '__ZN4core3ptr73drop_in_place$LT$alloc..boxed..Box$LT$syn..generics..GenericParam$GT$$GT$17ha26d5d145af4b203E', symObjAddr: 0x7B00, symBinAddr: 0x73A70, symSize: 0x80 }
  - { offsetInCU: 0x48876, offset: 0x2C5ED9, size: 0x8, addend: 0x0, symName: '__ZN4core3ptr75drop_in_place$LT$alloc..boxed..Box$LT$syn..generics..TypeParamBound$GT$$GT$17h129a4e927e5eb81bE', symObjAddr: 0x7B80, symBinAddr: 0x73AF0, symSize: 0xC0 }
  - { offsetInCU: 0x48BCA, offset: 0x2C622D, size: 0x8, addend: 0x0, symName: '__ZN4core3ptr86drop_in_place$LT$syn..punctuated..Punctuated$LT$syn..pat..Pat$C$syn..token..Or$GT$$GT$17h9cc6b5f7b6d3a555E', symObjAddr: 0x7C60, symBinAddr: 0x73BB0, symSize: 0x120 }
  - { offsetInCU: 0x49045, offset: 0x2C66A8, size: 0x8, addend: 0x0, symName: '__ZN4core3ptr87drop_in_place$LT$core..option..Option$LT$alloc..boxed..Box$LT$syn..pat..Pat$GT$$GT$$GT$17h51cd48973d96c411E', symObjAddr: 0x7D80, symBinAddr: 0x73CD0, symSize: 0x50 }
  - { offsetInCU: 0x491B5, offset: 0x2C6818, size: 0x8, addend: 0x0, symName: '__ZN4core3ptr87drop_in_place$LT$core..option..Option$LT$alloc..boxed..Box$LT$syn..ty..Type$GT$$GT$$GT$17h103a25a4a7d7374eE', symObjAddr: 0x7DD0, symBinAddr: 0x73D20, symSize: 0x50 }
  - { offsetInCU: 0x49325, offset: 0x2C6988, size: 0x8, addend: 0x0, symName: '__ZN4core3ptr88drop_in_place$LT$$LP$syn..token..Else$C$alloc..boxed..Box$LT$syn..expr..Expr$GT$$RP$$GT$17ha4aa82534fb17f55E', symObjAddr: 0x7E20, symBinAddr: 0x73D70, symSize: 0x50 }
  - { offsetInCU: 0x4949D, offset: 0x2C6B00, size: 0x8, addend: 0x0, symName: '__ZN4core3ptr89drop_in_place$LT$core..option..Option$LT$alloc..boxed..Box$LT$syn..expr..Expr$GT$$GT$$GT$17h9e02509cb2345d44E.llvm.3179342279309578476', symObjAddr: 0x7E70, symBinAddr: 0x73DC0, symSize: 0x50 }
  - { offsetInCU: 0x4964B, offset: 0x2C6CAE, size: 0x8, addend: 0x0, symName: '__ZN4core3ptr89drop_in_place$LT$syn..punctuated..Punctuated$LT$syn..pat..Pat$C$syn..token..Comma$GT$$GT$17hd3a83c36827f210aE.llvm.3179342279309578476', symObjAddr: 0x7EC0, symBinAddr: 0x73E10, symSize: 0x120 }
  - { offsetInCU: 0x49ADD, offset: 0x2C7140, size: 0x8, addend: 0x0, symName: '__ZN4core3ptr89drop_in_place$LT$syn..punctuated..Punctuated$LT$syn..ty..Type$C$syn..token..Comma$GT$$GT$17he030c4b7f24a5848E', symObjAddr: 0x7FE0, symBinAddr: 0x73F30, symSize: 0x120 }
  - { offsetInCU: 0x49F58, offset: 0x2C75BB, size: 0x8, addend: 0x0, symName: '__ZN4core3ptr90drop_in_place$LT$core..option..Option$LT$syn..path..AngleBracketedGenericArguments$GT$$GT$17ha307713a95a0671eE.llvm.3179342279309578476', symObjAddr: 0x8100, symBinAddr: 0x74050, symSize: 0x130 }
  - { offsetInCU: 0x4A3BC, offset: 0x2C7A1F, size: 0x8, addend: 0x0, symName: '__ZN4core3ptr91drop_in_place$LT$syn..punctuated..Punctuated$LT$syn..expr..Expr$C$syn..token..Comma$GT$$GT$17h6f261e8f470c81f2E.llvm.3179342279309578476', symObjAddr: 0x8230, symBinAddr: 0x74180, symSize: 0x120 }
  - { offsetInCU: 0x4A837, offset: 0x2C7E9A, size: 0x8, addend: 0x0, symName: '__ZN4core3ptr94drop_in_place$LT$syn..punctuated..Punctuated$LT$syn..pat..FieldPat$C$syn..token..Comma$GT$$GT$17h43ec25af986ef674E', symObjAddr: 0x8350, symBinAddr: 0x742A0, symSize: 0xF0 }
  - { offsetInCU: 0x4AB36, offset: 0x2C8199, size: 0x8, addend: 0x0, symName: '__ZN4core3ptr94drop_in_place$LT$syn..punctuated..Punctuated$LT$syn..ty..BareFnArg$C$syn..token..Comma$GT$$GT$17h7ba4c699ee390ebaE', symObjAddr: 0x8440, symBinAddr: 0x74390, symSize: 0xF0 }
  - { offsetInCU: 0x4AE37, offset: 0x2C849A, size: 0x8, addend: 0x0, symName: '__ZN4core3ptr95drop_in_place$LT$core..option..Option$LT$$LP$proc_macro2..Ident$C$syn..token..Colon$RP$$GT$$GT$17h59fe297999aa3329E', symObjAddr: 0x8530, symBinAddr: 0x74480, symSize: 0x30 }
  - { offsetInCU: 0x4AF52, offset: 0x2C85B5, size: 0x8, addend: 0x0, symName: '__ZN4core3ptr96drop_in_place$LT$core..option..Option$LT$alloc..boxed..Box$LT$syn..path..PathSegment$GT$$GT$$GT$17h5de12a5a0f9e9ef9E', symObjAddr: 0x8560, symBinAddr: 0x744B0, symSize: 0xA0 }
  - { offsetInCU: 0x4B1D1, offset: 0x2C8834, size: 0x8, addend: 0x0, symName: '__ZN4core3ptr97drop_in_place$LT$syn..punctuated..Punctuated$LT$syn..expr..FieldValue$C$syn..token..Comma$GT$$GT$17hf58d0a9a09266ab3E.llvm.3179342279309578476', symObjAddr: 0x8600, symBinAddr: 0x74550, symSize: 0xF0 }
  - { offsetInCU: 0x4B54A, offset: 0x2C8BAD, size: 0x8, addend: 0x0, symName: '__ZN4core3ptr98drop_in_place$LT$syn..punctuated..Punctuated$LT$syn..lifetime..Lifetime$C$syn..token..Plus$GT$$GT$17h600c2b78f78fd2b9E', symObjAddr: 0x86F0, symBinAddr: 0x74640, symSize: 0xD0 }
  - { offsetInCU: 0x51884, offset: 0x2CEEE7, size: 0x8, addend: 0x0, symName: __ZN5alloc5alloc15exchange_malloc17h9a87608d0224859dE, symObjAddr: 0x87E0, symBinAddr: 0x74710, symSize: 0x40 }
  - { offsetInCU: 0x5382B, offset: 0x2D0E8E, size: 0x8, addend: 0x0, symName: '__ZN69_$LT$alloc..boxed..Box$LT$T$C$A$GT$$u20$as$u20$core..clone..Clone$GT$5clone17h4fb5c51762622d36E', symObjAddr: 0x8E30, symBinAddr: 0x74750, symSize: 0x90 }
  - { offsetInCU: 0x554FC, offset: 0x2D2B5F, size: 0x8, addend: 0x0, symName: __ZN3syn4expr4Expr13replace_attrs17h81659526e8109ac8E, symObjAddr: 0x9180, symBinAddr: 0x747E0, symSize: 0x110 }
  - { offsetInCU: 0x567C6, offset: 0x2D3E29, size: 0x8, addend: 0x0, symName: '__ZN3syn4expr7parsing40_$LT$impl$u20$syn..expr..RangeLimits$GT$14parse_obsolete17he8a69cc7d9cd98eeE', symObjAddr: 0xF9D0, symBinAddr: 0x7A200, symSize: 0x3A0 }
  - { offsetInCU: 0x1834, offset: 0x2E28C7, size: 0x8, addend: 0x0, symName: '__ZN4core3ptr100drop_in_place$LT$alloc..vec..Vec$LT$$LP$syn..generics..TypeParamBound$C$syn..token..Plus$RP$$GT$$GT$17hea181150e4b37806E.llvm.14025449986115119833', symObjAddr: 0x5D0, symBinAddr: 0x82DB0, symSize: 0xD0 }
  - { offsetInCU: 0x1B4E, offset: 0x2E2BE1, size: 0x8, addend: 0x0, symName: '__ZN4core3ptr100drop_in_place$LT$core..option..Option$LT$alloc..boxed..Box$LT$syn..path..GenericArgument$GT$$GT$$GT$17h3a7c44b9e57fe410E', symObjAddr: 0x6A0, symBinAddr: 0x82E80, symSize: 0x50 }
  - { offsetInCU: 0x1D1B, offset: 0x2E2DAE, size: 0x8, addend: 0x0, symName: '__ZN4core3ptr101drop_in_place$LT$alloc..vec..Vec$LT$$LP$syn..generics..WherePredicate$C$syn..token..Comma$RP$$GT$$GT$17h480aa68a207f67a8E.llvm.14025449986115119833', symObjAddr: 0x6F0, symBinAddr: 0x82ED0, symSize: 0xD0 }
  - { offsetInCU: 0x2039, offset: 0x2E30CC, size: 0x8, addend: 0x0, symName: '__ZN4core3ptr101drop_in_place$LT$core..option..Option$LT$alloc..boxed..Box$LT$syn..generics..GenericParam$GT$$GT$$GT$17h2bff155591650989E', symObjAddr: 0x7C0, symBinAddr: 0x82FA0, symSize: 0x50 }
  - { offsetInCU: 0x2225, offset: 0x2E32B8, size: 0x8, addend: 0x0, symName: '__ZN4core3ptr102drop_in_place$LT$syn..punctuated..Punctuated$LT$syn..path..GenericArgument$C$syn..token..Comma$GT$$GT$17h8b1978399cfff48bE.llvm.14025449986115119833', symObjAddr: 0x810, symBinAddr: 0x82FF0, symSize: 0xF0 }
  - { offsetInCU: 0x254C, offset: 0x2E35DF, size: 0x8, addend: 0x0, symName: '__ZN4core3ptr103drop_in_place$LT$core..option..Option$LT$alloc..boxed..Box$LT$syn..generics..TypeParamBound$GT$$GT$$GT$17hb14e4384a768542bE.llvm.14025449986115119833', symObjAddr: 0x900, symBinAddr: 0x830E0, symSize: 0x50 }
  - { offsetInCU: 0x26DB, offset: 0x2E376E, size: 0x8, addend: 0x0, symName: '__ZN4core3ptr103drop_in_place$LT$core..option..Option$LT$alloc..boxed..Box$LT$syn..generics..WherePredicate$GT$$GT$$GT$17he190813f4819c5dbE', symObjAddr: 0x950, symBinAddr: 0x83130, symSize: 0x50 }
  - { offsetInCU: 0x2905, offset: 0x2E3998, size: 0x8, addend: 0x0, symName: '__ZN4core3ptr103drop_in_place$LT$syn..punctuated..Punctuated$LT$syn..generics..GenericParam$C$syn..token..Comma$GT$$GT$17h0c6077a988036760E.llvm.14025449986115119833', symObjAddr: 0x9A0, symBinAddr: 0x83180, symSize: 0x1A0 }
  - { offsetInCU: 0x2FA7, offset: 0x2E403A, size: 0x8, addend: 0x0, symName: '__ZN4core3ptr104drop_in_place$LT$syn..punctuated..Punctuated$LT$syn..generics..TypeParamBound$C$syn..token..Plus$GT$$GT$17h724e4d9d1d65061aE.llvm.14025449986115119833', symObjAddr: 0xB40, symBinAddr: 0x83320, symSize: 0x240 }
  - { offsetInCU: 0x38E2, offset: 0x2E4975, size: 0x8, addend: 0x0, symName: '__ZN4core3ptr105drop_in_place$LT$syn..punctuated..Punctuated$LT$syn..generics..WherePredicate$C$syn..token..Comma$GT$$GT$17h18b5b213db2a676cE', symObjAddr: 0xD80, symBinAddr: 0x83560, symSize: 0x1A0 }
  - { offsetInCU: 0x3FF1, offset: 0x2E5084, size: 0x8, addend: 0x0, symName: '__ZN4core3ptr116drop_in_place$LT$core..option..Option$LT$$LP$syn..token..Else$C$alloc..boxed..Box$LT$syn..expr..Expr$GT$$RP$$GT$$GT$17h60c68b89176741daE', symObjAddr: 0xF20, symBinAddr: 0x83700, symSize: 0x50 }
  - { offsetInCU: 0x41F4, offset: 0x2E5287, size: 0x8, addend: 0x0, symName: '__ZN4core3ptr1247drop_in_place$LT$core..iter..adapters..flatten..Flatten$LT$core..iter..adapters..map..Map$LT$core..iter..adapters..map..Map$LT$core..iter..adapters..map..Map$LT$core..slice..iter..Iter$LT$syn..error..ErrorMessage$GT$$C$syn..error..ErrorMessage..to_compile_error$GT$$C$$LT$proc_macro2..TokenStream$u20$as$u20$core..iter..traits..collect..FromIterator$LT$proc_macro2..TokenStream$GT$$GT$..from_iter$LT$core..iter..adapters..map..Map$LT$core..slice..iter..Iter$LT$syn..error..ErrorMessage$GT$$C$syn..error..ErrorMessage..to_compile_error$GT$$GT$..$u7b$$u7b$closure$u7d$$u7d$$GT$$C$$LT$proc_macro2..imp..TokenStream$u20$as$u20$core..iter..traits..collect..FromIterator$LT$proc_macro2..imp..TokenStream$GT$$GT$..from_iter$LT$core..iter..adapters..map..Map$LT$core..iter..adapters..map..Map$LT$core..slice..iter..Iter$LT$syn..error..ErrorMessage$GT$$C$syn..error..ErrorMessage..to_compile_error$GT$$C$$LT$proc_macro2..TokenStream$u20$as$u20$core..iter..traits..collect..FromIterator$LT$proc_macro2..TokenStream$GT$$GT$..from_iter$LT$core..iter..adapters..map..Map$LT$core..slice..iter..Iter$LT$syn..error..ErrorMessage$GT$$C$syn..error..ErrorMessage..to_compile_error$GT$$GT$..$u7b$$u7b$closure$u7d$$u7d$$GT$$GT$..$u7b$$u7b$closure$u7d$$u7d$$GT$$GT$$GT$17hbfd06aec0e095371E', symObjAddr: 0xF70, symBinAddr: 0x83750, symSize: 0x60 }
  - { offsetInCU: 0x4378, offset: 0x2E540B, size: 0x8, addend: 0x0, symName: '__ZN4core3ptr126drop_in_place$LT$core..option..Option$LT$$LP$syn..token..And$C$core..option..Option$LT$syn..lifetime..Lifetime$GT$$RP$$GT$$GT$17h45c5d73e12cdf6f0E', symObjAddr: 0xFD0, symBinAddr: 0x837B0, symSize: 0x30 }
  - { offsetInCU: 0x4607, offset: 0x2E569A, size: 0x8, addend: 0x0, symName: '__ZN4core3ptr33drop_in_place$LT$syn..ty..Abi$GT$17h24b86e0564a98339E', symObjAddr: 0x1000, symBinAddr: 0x837E0, symSize: 0x70 }
  - { offsetInCU: 0x4623, offset: 0x2E56B6, size: 0x8, addend: 0x0, symName: '__ZN4core3ptr33drop_in_place$LT$syn..ty..Abi$GT$17h24b86e0564a98339E', symObjAddr: 0x1000, symBinAddr: 0x837E0, symSize: 0x70 }
  - { offsetInCU: 0x48FB, offset: 0x2E598E, size: 0x8, addend: 0x0, symName: '__ZN4core3ptr34drop_in_place$LT$syn..lit..Lit$GT$17hd64dde89a262341dE', symObjAddr: 0x1070, symBinAddr: 0x83850, symSize: 0x120 }
  - { offsetInCU: 0x4E27, offset: 0x2E5EBA, size: 0x8, addend: 0x0, symName: '__ZN4core3ptr34drop_in_place$LT$syn..pat..Pat$GT$17hf88887878261d63cE.llvm.14025449986115119833', symObjAddr: 0x1190, symBinAddr: 0x83970, symSize: 0x11B0 }
  - { offsetInCU: 0x96B7, offset: 0x2EA74A, size: 0x8, addend: 0x0, symName: '__ZN4core3ptr34drop_in_place$LT$syn..ty..Type$GT$17ha80dd29b0f9d4a3fE.llvm.14025449986115119833', symObjAddr: 0x2340, symBinAddr: 0x84B20, symSize: 0x510 }
  - { offsetInCU: 0xA6F9, offset: 0x2EB78C, size: 0x8, addend: 0x0, symName: '__ZN4core3ptr35drop_in_place$LT$syn..expr..Arm$GT$17hd729aea1406305a9E.llvm.14025449986115119833', symObjAddr: 0x2850, symBinAddr: 0x85030, symSize: 0x170 }
  - { offsetInCU: 0xAD67, offset: 0x2EBDFA, size: 0x8, addend: 0x0, symName: '__ZN4core3ptr36drop_in_place$LT$syn..attr..Meta$GT$17h10362c0b846e6e23E.llvm.14025449986115119833', symObjAddr: 0x29C0, symBinAddr: 0x851A0, symSize: 0x320 }
  - { offsetInCU: 0xBCDC, offset: 0x2ECD6F, size: 0x8, addend: 0x0, symName: '__ZN4core3ptr36drop_in_place$LT$syn..expr..Expr$GT$17h10f573b40ddd212cE.llvm.14025449986115119833', symObjAddr: 0x2CE0, symBinAddr: 0x854C0, symSize: 0x25E0 }
  - { offsetInCU: 0x15884, offset: 0x2F6917, size: 0x8, addend: 0x0, symName: '__ZN4core3ptr36drop_in_place$LT$syn..item..Item$GT$17haa59cf9e39ab8cebE.llvm.14025449986115119833', symObjAddr: 0x52C0, symBinAddr: 0x87AA0, symSize: 0x17C0 }
  - { offsetInCU: 0x1B2B2, offset: 0x2FC345, size: 0x8, addend: 0x0, symName: '__ZN4core3ptr36drop_in_place$LT$syn..mac..Macro$GT$17hc3b30a7a8a34cc2dE', symObjAddr: 0x6A80, symBinAddr: 0x89260, symSize: 0xE0 }
  - { offsetInCU: 0x1B61A, offset: 0x2FC6AD, size: 0x8, addend: 0x0, symName: '__ZN4core3ptr36drop_in_place$LT$syn..path..Path$GT$17h75c74a97d5f0a03bE.llvm.14025449986115119833', symObjAddr: 0x6B60, symBinAddr: 0x89340, symSize: 0x180 }
  - { offsetInCU: 0x1BC44, offset: 0x2FCCD7, size: 0x8, addend: 0x0, symName: '__ZN4core3ptr36drop_in_place$LT$syn..stmt..Stmt$GT$17hc4f94563f060e25dE.llvm.14025449986115119833', symObjAddr: 0x6CE0, symBinAddr: 0x894C0, symSize: 0x380 }
  - { offsetInCU: 0x1C89A, offset: 0x2FD92D, size: 0x8, addend: 0x0, symName: '__ZN4core3ptr37drop_in_place$LT$syn..data..Field$GT$17hb03070569ab32babE.llvm.14025449986115119833', symObjAddr: 0x7060, symBinAddr: 0x89840, symSize: 0x190 }
  - { offsetInCU: 0x1CE8A, offset: 0x2FDF1D, size: 0x8, addend: 0x0, symName: '__ZN4core3ptr37drop_in_place$LT$syn..item..FnArg$GT$17h470fdeee5cba5e3aE.llvm.14025449986115119833', symObjAddr: 0x71F0, symBinAddr: 0x899D0, symSize: 0x230 }
  - { offsetInCU: 0x1D7A1, offset: 0x2FE834, size: 0x8, addend: 0x0, symName: '__ZN4core3ptr37drop_in_place$LT$syn..stmt..Block$GT$17h6fc3254d5688f2c3E', symObjAddr: 0x7420, symBinAddr: 0x89C00, symSize: 0xD0 }
  - { offsetInCU: 0x1DA7F, offset: 0x2FEB12, size: 0x8, addend: 0x0, symName: '__ZN4core3ptr38drop_in_place$LT$syn..expr..ExprIf$GT$17ha8d3c2042f45d05fE.llvm.14025449986115119833', symObjAddr: 0x74F0, symBinAddr: 0x89CD0, symSize: 0x1B0 }
  - { offsetInCU: 0x1E359, offset: 0x2FF3EC, size: 0x8, addend: 0x0, symName: '__ZN4core3ptr38drop_in_place$LT$syn..expr..Member$GT$17h6b0cf84594ce6bceE.llvm.14025449986115119833', symObjAddr: 0x76A0, symBinAddr: 0x89E80, symSize: 0x30 }
  - { offsetInCU: 0x1E455, offset: 0x2FF4E8, size: 0x8, addend: 0x0, symName: '__ZN4core3ptr38drop_in_place$LT$syn..pat..PatType$GT$17h835dce85ba90235eE.llvm.14025449986115119833', symObjAddr: 0x76D0, symBinAddr: 0x89EB0, symSize: 0x140 }
  - { offsetInCU: 0x1EA07, offset: 0x2FFA9A, size: 0x8, addend: 0x0, symName: '__ZN4core3ptr39drop_in_place$LT$proc_macro2..Ident$GT$17ha28fef9769e267d9E.llvm.14025449986115119833', symObjAddr: 0x7810, symBinAddr: 0x89FF0, symSize: 0x30 }
  - { offsetInCU: 0x1EC1A, offset: 0x2FFCAD, size: 0x8, addend: 0x0, symName: '__ZN4core3ptr39drop_in_place$LT$syn..buffer..Entry$GT$17he93ada413d4474f7E.llvm.14025449986115119833', symObjAddr: 0x7840, symBinAddr: 0x8A020, symSize: 0xB0 }
  - { offsetInCU: 0x1F002, offset: 0x300095, size: 0x8, addend: 0x0, symName: '__ZN4core3ptr39drop_in_place$LT$syn..data..Variant$GT$17h92766dd8637b4069E.llvm.14025449986115119833', symObjAddr: 0x78F0, symBinAddr: 0x8A0D0, symSize: 0x2F0 }
  - { offsetInCU: 0x1FC9D, offset: 0x300D30, size: 0x8, addend: 0x0, symName: '__ZN4core3ptr39drop_in_place$LT$syn..item..UseTree$GT$17h7288572c631f954aE.llvm.14025449986115119833', symObjAddr: 0x7BE0, symBinAddr: 0x8A3C0, symSize: 0x1E0 }
  - { offsetInCU: 0x203F6, offset: 0x301489, size: 0x8, addend: 0x0, symName: '__ZN4core3ptr40drop_in_place$LT$syn..item..ImplItem$GT$17h98907b2080b0ccb0E', symObjAddr: 0x7DC0, symBinAddr: 0x8A5A0, symSize: 0x220 }
  - { offsetInCU: 0x20A43, offset: 0x301AD6, size: 0x8, addend: 0x0, symName: '__ZN4core3ptr40drop_in_place$LT$syn..item..Receiver$GT$17h5e68a437c3b8e574E.llvm.14025449986115119833', symObjAddr: 0x7FE0, symBinAddr: 0x8A7C0, symSize: 0x130 }
  - { offsetInCU: 0x21041, offset: 0x3020D4, size: 0x8, addend: 0x0, symName: '__ZN4core3ptr40drop_in_place$LT$syn..item..Variadic$GT$17hf9d4ebdb0f5e723aE', symObjAddr: 0x8110, symBinAddr: 0x8A8F0, symSize: 0x120 }
  - { offsetInCU: 0x214E4, offset: 0x302577, size: 0x8, addend: 0x0, symName: '__ZN4core3ptr40drop_in_place$LT$syn..ty..ReturnType$GT$17h035a612e322b6510E.llvm.14025449986115119833', symObjAddr: 0x8230, symBinAddr: 0x8AA10, symSize: 0x50 }
  - { offsetInCU: 0x217A9, offset: 0x30283C, size: 0x8, addend: 0x0, symName: '__ZN4core3ptr41drop_in_place$LT$syn..item..Signature$GT$17h41f785211ad8eb02E', symObjAddr: 0x8280, symBinAddr: 0x8AA60, symSize: 0x270 }
  - { offsetInCU: 0x222BE, offset: 0x303351, size: 0x8, addend: 0x0, symName: '__ZN4core3ptr41drop_in_place$LT$syn..item..TraitItem$GT$17hc74edaa948c160a2E', symObjAddr: 0x84F0, symBinAddr: 0x8ACD0, symSize: 0x3D0 }
  - { offsetInCU: 0x22EFC, offset: 0x303F8F, size: 0x8, addend: 0x0, symName: '__ZN4core3ptr41drop_in_place$LT$syn..stmt..LocalInit$GT$17h30b5fda37459e0baE', symObjAddr: 0x88C0, symBinAddr: 0x8B0A0, symSize: 0xC0 }
  - { offsetInCU: 0x231EC, offset: 0x30427F, size: 0x8, addend: 0x0, symName: '__ZN4core3ptr42drop_in_place$LT$syn..item..ImplItemFn$GT$17haf8f89161f0a8aa1E', symObjAddr: 0x8980, symBinAddr: 0x8B160, symSize: 0x230 }
  - { offsetInCU: 0x23990, offset: 0x304A23, size: 0x8, addend: 0x0, symName: '__ZN4core3ptr42drop_in_place$LT$syn..path..Constraint$GT$17h367871d1e7e54db0E', symObjAddr: 0x8BB0, symBinAddr: 0x8B390, symSize: 0x160 }
  - { offsetInCU: 0x23F27, offset: 0x304FBA, size: 0x8, addend: 0x0, symName: '__ZN4core3ptr43drop_in_place$LT$proc_macro2..TokenTree$GT$17h3cbee0aa221130b6E.llvm.14025449986115119833', symObjAddr: 0x8D10, symBinAddr: 0x8B4F0, symSize: 0xB0 }
  - { offsetInCU: 0x24282, offset: 0x305315, size: 0x8, addend: 0x0, symName: '__ZN4core3ptr43drop_in_place$LT$syn..data..FieldsNamed$GT$17h56bef6f151514865E', symObjAddr: 0x8DC0, symBinAddr: 0x8B5A0, symSize: 0x120 }
  - { offsetInCU: 0x24746, offset: 0x3057D9, size: 0x8, addend: 0x0, symName: '__ZN4core3ptr43drop_in_place$LT$syn..item..ForeignItem$GT$17h8033abfc56dac52fE', symObjAddr: 0x8EE0, symBinAddr: 0x8B6C0, symSize: 0x340 }
  - { offsetInCU: 0x25157, offset: 0x3061EA, size: 0x8, addend: 0x0, symName: '__ZN4core3ptr43drop_in_place$LT$syn..path..PathSegment$GT$17h903332e979944cf4E.llvm.14025449986115119833', symObjAddr: 0x9220, symBinAddr: 0x8BA00, symSize: 0x190 }
  - { offsetInCU: 0x25736, offset: 0x3067C9, size: 0x8, addend: 0x0, symName: '__ZN4core3ptr44drop_in_place$LT$syn..generics..Generics$GT$17h671de917167f8b66E', symObjAddr: 0x93B0, symBinAddr: 0x8BB90, symSize: 0x240 }
  - { offsetInCU: 0x26077, offset: 0x30710A, size: 0x8, addend: 0x0, symName: '__ZN4core3ptr44drop_in_place$LT$syn..item..ImplItemType$GT$17hb32b6c30c762cdafE', symObjAddr: 0x95F0, symBinAddr: 0x8BDD0, symSize: 0x1F0 }
  - { offsetInCU: 0x2668A, offset: 0x30771D, size: 0x8, addend: 0x0, symName: '__ZN4core3ptr44drop_in_place$LT$syn..lifetime..Lifetime$GT$17he37fa474f03de7b1E.llvm.14025449986115119833', symObjAddr: 0x97E0, symBinAddr: 0x8BFC0, symSize: 0x30 }
  - { offsetInCU: 0x267E3, offset: 0x307876, size: 0x8, addend: 0x0, symName: '__ZN4core3ptr45drop_in_place$LT$proc_macro2..TokenStream$GT$17h76e8e68015f4924dE.llvm.14025449986115119833', symObjAddr: 0x9810, symBinAddr: 0x8BFF0, symSize: 0x70 }
  - { offsetInCU: 0x2694A, offset: 0x3079DD, size: 0x8, addend: 0x0, symName: '__ZN4core3ptr45drop_in_place$LT$syn..generics..TypeParam$GT$17h188a459c1380ac75E.llvm.14025449986115119833', symObjAddr: 0x9880, symBinAddr: 0x8C060, symSize: 0x230 }
  - { offsetInCU: 0x271E8, offset: 0x30827B, size: 0x8, addend: 0x0, symName: '__ZN4core3ptr45drop_in_place$LT$syn..item..ImplItemConst$GT$17he161f4752ea1c79dE', symObjAddr: 0x9AB0, symBinAddr: 0x8C290, symSize: 0x210 }
  - { offsetInCU: 0x27839, offset: 0x3088CC, size: 0x8, addend: 0x0, symName: '__ZN4core3ptr45drop_in_place$LT$syn..item..TraitItemType$GT$17h3e36cd56ba987949E', symObjAddr: 0x9CC0, symBinAddr: 0x8C4A0, symSize: 0x290 }
  - { offsetInCU: 0x281A3, offset: 0x309236, size: 0x8, addend: 0x0, symName: '__ZN4core3ptr45drop_in_place$LT$syn..path..PathArguments$GT$17hdbc6dfac6f3334e6E.llvm.14025449986115119833', symObjAddr: 0x9F50, symBinAddr: 0x8C730, symSize: 0xB0 }
  - { offsetInCU: 0x28374, offset: 0x309407, size: 0x8, addend: 0x0, symName: '__ZN4core3ptr46drop_in_place$LT$$u5b$syn..stmt..Stmt$u5d$$GT$17h24e62e137a325f40E.llvm.14025449986115119833', symObjAddr: 0xA000, symBinAddr: 0x8C7E0, symSize: 0x2F0 }
  - { offsetInCU: 0x28A24, offset: 0x309AB7, size: 0x8, addend: 0x0, symName: '__ZN4core3ptr46drop_in_place$LT$syn..generics..ConstParam$GT$17h7a9b900b2b88bfcdE.llvm.14025449986115119833', symObjAddr: 0xA2F0, symBinAddr: 0x8CAD0, symSize: 0x150 }
  - { offsetInCU: 0x28E52, offset: 0x309EE5, size: 0x8, addend: 0x0, symName: '__ZN4core3ptr46drop_in_place$LT$syn..item..TraitItemConst$GT$17h1a851cb668e4b13cE', symObjAddr: 0xA440, symBinAddr: 0x8CC20, symSize: 0x1B0 }
  - { offsetInCU: 0x29333, offset: 0x30A3C6, size: 0x8, addend: 0x0, symName: '__ZN4core3ptr47drop_in_place$LT$syn..generics..WhereClause$GT$17h1a748a69ca415614E', symObjAddr: 0xA5F0, symBinAddr: 0x8CDD0, symSize: 0x120 }
  - { offsetInCU: 0x297B9, offset: 0x30A84C, size: 0x8, addend: 0x0, symName: '__ZN4core3ptr47drop_in_place$LT$syn..item..ForeignItemType$GT$17ha3462b8591c7bc98E', symObjAddr: 0xA710, symBinAddr: 0x8CEF0, symSize: 0x1B0 }
  - { offsetInCU: 0x29E27, offset: 0x30AEBA, size: 0x8, addend: 0x0, symName: '__ZN4core3ptr47drop_in_place$LT$syn..path..GenericArgument$GT$17h593f06d6ca9a94d2E.llvm.14025449986115119833', symObjAddr: 0xA8C0, symBinAddr: 0x8D0A0, symSize: 0x1C0 }
  - { offsetInCU: 0x2A2EB, offset: 0x30B37E, size: 0x8, addend: 0x0, symName: '__ZN4core3ptr48drop_in_place$LT$syn..generics..GenericParam$GT$17hd6859d95c1b7c168E.llvm.14025449986115119833', symObjAddr: 0xAA80, symBinAddr: 0x8D260, symSize: 0x150 }
  - { offsetInCU: 0x2A711, offset: 0x30B7A4, size: 0x8, addend: 0x0, symName: '__ZN4core3ptr49drop_in_place$LT$syn..generics..LifetimeParam$GT$17h3a8835ab294bfd16E.llvm.14025449986115119833', symObjAddr: 0xABD0, symBinAddr: 0x8D3B0, symSize: 0xF0 }
  - { offsetInCU: 0x2AB1C, offset: 0x30BBAF, size: 0x8, addend: 0x0, symName: '__ZN4core3ptr49drop_in_place$LT$syn..generics..PredicateType$GT$17h28460a55196bd45fE.llvm.14025449986115119833', symObjAddr: 0xACC0, symBinAddr: 0x8D4A0, symSize: 0x180 }
  - { offsetInCU: 0x2AFD4, offset: 0x30C067, size: 0x8, addend: 0x0, symName: '__ZN4core3ptr49drop_in_place$LT$syn..item..ForeignItemStatic$GT$17h0b4273b292bce45dE', symObjAddr: 0xAE40, symBinAddr: 0x8D620, symSize: 0x190 }
  - { offsetInCU: 0x2B6D6, offset: 0x30C769, size: 0x8, addend: 0x0, symName: '__ZN4core3ptr50drop_in_place$LT$$u5b$syn..item..ImplItem$u5d$$GT$17h9b63e3c09d4f2fecE.llvm.14025449986115119833', symObjAddr: 0xAFD0, symBinAddr: 0x8D7B0, symSize: 0x210 }
  - { offsetInCU: 0x2BA4A, offset: 0x30CADD, size: 0x8, addend: 0x0, symName: '__ZN4core3ptr50drop_in_place$LT$syn..generics..TypeParamBound$GT$17h81b4325b5900604dE.llvm.14025449986115119833', symObjAddr: 0xB1E0, symBinAddr: 0x8D9C0, symSize: 0xA0 }
  - { offsetInCU: 0x2BBCF, offset: 0x30CC62, size: 0x8, addend: 0x0, symName: '__ZN4core3ptr50drop_in_place$LT$syn..generics..WherePredicate$GT$17h1dcd41fbf166681cE.llvm.14025449986115119833', symObjAddr: 0xB280, symBinAddr: 0x8DA60, symSize: 0xA0 }
  - { offsetInCU: 0x2BD7F, offset: 0x30CE12, size: 0x8, addend: 0x0, symName: '__ZN4core3ptr51drop_in_place$LT$$u5b$syn..item..TraitItem$u5d$$GT$17hfac7130e0b19ef2eE.llvm.14025449986115119833', symObjAddr: 0xB320, symBinAddr: 0x8DB00, symSize: 0x3E0 }
  - { offsetInCU: 0x2C721, offset: 0x30D7B4, size: 0x8, addend: 0x0, symName: '__ZN4core3ptr52drop_in_place$LT$syn..restriction..VisRestricted$GT$17h3b9d7a9742b1c345E', symObjAddr: 0xB700, symBinAddr: 0x8DEE0, symSize: 0x50 }
  - { offsetInCU: 0x2C8B8, offset: 0x30D94B, size: 0x8, addend: 0x0, symName: '__ZN4core3ptr53drop_in_place$LT$$u5b$syn..item..ForeignItem$u5d$$GT$17h566f3fc649dbb42bE.llvm.14025449986115119833', symObjAddr: 0xB750, symBinAddr: 0x8DF30, symSize: 0x370 }
  - { offsetInCU: 0x2D0D6, offset: 0x30E169, size: 0x8, addend: 0x0, symName: '__ZN4core3ptr58drop_in_place$LT$alloc..vec..Vec$LT$syn..expr..Arm$GT$$GT$17hff9224aadf2233b8E.llvm.14025449986115119833', symObjAddr: 0xBAE0, symBinAddr: 0x8E2A0, symSize: 0xD0 }
  - { offsetInCU: 0x2D39D, offset: 0x30E430, size: 0x8, addend: 0x0, symName: '__ZN4core3ptr59drop_in_place$LT$alloc..boxed..Box$LT$syn..pat..Pat$GT$$GT$17h622b0c1db21c0742E.llvm.14025449986115119833', symObjAddr: 0xBBB0, symBinAddr: 0x8E370, symSize: 0x50 }
  - { offsetInCU: 0x2D4F6, offset: 0x30E589, size: 0x8, addend: 0x0, symName: '__ZN4core3ptr59drop_in_place$LT$alloc..boxed..Box$LT$syn..ty..Type$GT$$GT$17hde45fa887dd8b605E.llvm.14025449986115119833', symObjAddr: 0xBC00, symBinAddr: 0x8E3C0, symSize: 0x50 }
  - { offsetInCU: 0x2D64F, offset: 0x30E6E2, size: 0x8, addend: 0x0, symName: '__ZN4core3ptr59drop_in_place$LT$alloc..vec..Vec$LT$syn..item..Item$GT$$GT$17h8590e8c8e196c3c2E.llvm.14025449986115119833', symObjAddr: 0xBC50, symBinAddr: 0x8E410, symSize: 0xD0 }
  - { offsetInCU: 0x2D916, offset: 0x30E9A9, size: 0x8, addend: 0x0, symName: '__ZN4core3ptr59drop_in_place$LT$alloc..vec..Vec$LT$syn..stmt..Stmt$GT$$GT$17h6cf3e54f41bc03bdE.llvm.14025449986115119833', symObjAddr: 0xBD20, symBinAddr: 0x8E4E0, symSize: 0x80 }
  - { offsetInCU: 0x2DBCE, offset: 0x30EC61, size: 0x8, addend: 0x0, symName: '__ZN4core3ptr61drop_in_place$LT$alloc..boxed..Box$LT$syn..expr..Expr$GT$$GT$17hbb42293869113942E', symObjAddr: 0xBDA0, symBinAddr: 0x8E560, symSize: 0x50 }
  - { offsetInCU: 0x2DD27, offset: 0x30EDBA, size: 0x8, addend: 0x0, symName: '__ZN4core3ptr61drop_in_place$LT$alloc..boxed..Box$LT$syn..path..Path$GT$$GT$17h038a2aea8fe87c28E', symObjAddr: 0xBDF0, symBinAddr: 0x8E5B0, symSize: 0x100 }
  - { offsetInCU: 0x2E247, offset: 0x30F2DA, size: 0x8, addend: 0x0, symName: '__ZN4core3ptr61drop_in_place$LT$syn..path..ParenthesizedGenericArguments$GT$17h6b1731382637937fE', symObjAddr: 0xBEF0, symBinAddr: 0x8E6B0, symSize: 0x170 }
  - { offsetInCU: 0x2E844, offset: 0x30F8D7, size: 0x8, addend: 0x0, symName: '__ZN4core3ptr62drop_in_place$LT$alloc..boxed..Box$LT$syn..data..Field$GT$$GT$17hd46c7cc6f292f643E', symObjAddr: 0xC060, symBinAddr: 0x8E820, symSize: 0x50 }
  - { offsetInCU: 0x2E9BC, offset: 0x30FA4F, size: 0x8, addend: 0x0, symName: '__ZN4core3ptr62drop_in_place$LT$alloc..boxed..Box$LT$syn..item..FnArg$GT$$GT$17haeb55dec21588d58E', symObjAddr: 0xC0B0, symBinAddr: 0x8E870, symSize: 0x60 }
  - { offsetInCU: 0x2EB32, offset: 0x30FBC5, size: 0x8, addend: 0x0, symName: '__ZN4core3ptr62drop_in_place$LT$alloc..boxed..Box$LT$syn..stmt..Block$GT$$GT$17h21dcb5adf0237a12E', symObjAddr: 0xC110, symBinAddr: 0x8E8D0, symSize: 0xE0 }
  - { offsetInCU: 0x2EF89, offset: 0x31001C, size: 0x8, addend: 0x0, symName: '__ZN4core3ptr62drop_in_place$LT$alloc..vec..Vec$LT$syn..buffer..Entry$GT$$GT$17h17f61a784aa49e8bE.llvm.14025449986115119833', symObjAddr: 0xC1F0, symBinAddr: 0x8E9B0, symSize: 0xC0 }
  - { offsetInCU: 0x2F261, offset: 0x3102F4, size: 0x8, addend: 0x0, symName: '__ZN4core3ptr62drop_in_place$LT$syn..path..AngleBracketedGenericArguments$GT$17hf8fa172f007a1473E', symObjAddr: 0xC2B0, symBinAddr: 0x8EA70, symSize: 0x120 }
  - { offsetInCU: 0x2F6E7, offset: 0x31077A, size: 0x8, addend: 0x0, symName: '__ZN4core3ptr63drop_in_place$LT$alloc..vec..Vec$LT$syn..item..ImplItem$GT$$GT$17hc51fca07e67d35aeE.llvm.14025449986115119833', symObjAddr: 0xC3D0, symBinAddr: 0x8EB90, symSize: 0x80 }
  - { offsetInCU: 0x2F99F, offset: 0x310A32, size: 0x8, addend: 0x0, symName: '__ZN4core3ptr64drop_in_place$LT$alloc..boxed..Box$LT$syn..data..Variant$GT$$GT$17h9ea21bed4984fdbcE', symObjAddr: 0xC450, symBinAddr: 0x8EC10, symSize: 0x50 }
  - { offsetInCU: 0x2FAF8, offset: 0x310B8B, size: 0x8, addend: 0x0, symName: '__ZN4core3ptr64drop_in_place$LT$alloc..boxed..Box$LT$syn..item..UseTree$GT$$GT$17he4d7024582150632E', symObjAddr: 0xC4A0, symBinAddr: 0x8EC60, symSize: 0x50 }
  - { offsetInCU: 0x2FC8F, offset: 0x310D22, size: 0x8, addend: 0x0, symName: '__ZN4core3ptr64drop_in_place$LT$alloc..boxed..Box$LT$syn..pat..FieldPat$GT$$GT$17hbf8f4867d84bd25dE', symObjAddr: 0xC4F0, symBinAddr: 0x8ECB0, symSize: 0x140 }
  - { offsetInCU: 0x30359, offset: 0x3113EC, size: 0x8, addend: 0x0, symName: '__ZN4core3ptr64drop_in_place$LT$alloc..boxed..Box$LT$syn..ty..BareFnArg$GT$$GT$17h6be6354eb1d1364dE', symObjAddr: 0xC630, symBinAddr: 0x8EDF0, symSize: 0x140 }
  - { offsetInCU: 0x308EC, offset: 0x31197F, size: 0x8, addend: 0x0, symName: '__ZN4core3ptr64drop_in_place$LT$alloc..vec..Vec$LT$syn..attr..Attribute$GT$$GT$17he33e25539d5885aeE.llvm.14025449986115119833', symObjAddr: 0xC770, symBinAddr: 0x8EF30, symSize: 0xD0 }
  - { offsetInCU: 0x30BE7, offset: 0x311C7A, size: 0x8, addend: 0x0, symName: '__ZN4core3ptr64drop_in_place$LT$alloc..vec..Vec$LT$syn..item..TraitItem$GT$$GT$17hff1cc01ccae80d7aE.llvm.14025449986115119833', symObjAddr: 0xC840, symBinAddr: 0x8F000, symSize: 0x80 }
  - { offsetInCU: 0x30E9F, offset: 0x311F32, size: 0x8, addend: 0x0, symName: '__ZN4core3ptr65drop_in_place$LT$$LP$syn..item..FnArg$C$syn..token..Comma$RP$$GT$17heafa789770a727bbE.llvm.14025449986115119833', symObjAddr: 0xC8C0, symBinAddr: 0x8F080, symSize: 0x20 }
  - { offsetInCU: 0x30F38, offset: 0x311FCB, size: 0x8, addend: 0x0, symName: '__ZN4core3ptr65drop_in_place$LT$alloc..vec..Vec$LT$proc_macro..TokenTree$GT$$GT$17h8abd81f8596dbc59E.llvm.14025449986115119833', symObjAddr: 0xC8E0, symBinAddr: 0x8F0A0, symSize: 0x110 }
  - { offsetInCU: 0x3134A, offset: 0x3123DD, size: 0x8, addend: 0x0, symName: '__ZN4core3ptr65drop_in_place$LT$core..option..Option$LT$syn..expr..Label$GT$$GT$17hac599686b33ef364E', symObjAddr: 0xC9F0, symBinAddr: 0x8F1B0, symSize: 0x30 }
  - { offsetInCU: 0x31484, offset: 0x312517, size: 0x8, addend: 0x0, symName: '__ZN4core3ptr65drop_in_place$LT$core..option..Option$LT$syn..stmt..Block$GT$$GT$17h74f2551ed24e2d27E', symObjAddr: 0xCA20, symBinAddr: 0x8F1E0, symSize: 0xD0 }
  - { offsetInCU: 0x31797, offset: 0x31282A, size: 0x8, addend: 0x0, symName: '__ZN4core3ptr66drop_in_place$LT$alloc..vec..Vec$LT$proc_macro2..TokenTree$GT$$GT$17hddd511686bdb58d1E', symObjAddr: 0xCAF0, symBinAddr: 0x8F2B0, symSize: 0xC0 }
  - { offsetInCU: 0x31A6F, offset: 0x312B02, size: 0x8, addend: 0x0, symName: '__ZN4core3ptr66drop_in_place$LT$alloc..vec..Vec$LT$syn..item..ForeignItem$GT$$GT$17h1f176e04eaf5e0dfE.llvm.14025449986115119833', symObjAddr: 0xCBB0, symBinAddr: 0x8F370, symSize: 0x80 }
  - { offsetInCU: 0x31D27, offset: 0x312DBA, size: 0x8, addend: 0x0, symName: '__ZN4core3ptr67drop_in_place$LT$$LP$syn..pat..FieldPat$C$syn..token..Comma$RP$$GT$17h27317b85bbb0d5a5E.llvm.14025449986115119833', symObjAddr: 0xCC30, symBinAddr: 0x8F3F0, symSize: 0x120 }
  - { offsetInCU: 0x322BC, offset: 0x31334F, size: 0x8, addend: 0x0, symName: '__ZN4core3ptr67drop_in_place$LT$$LP$syn..ty..BareFnArg$C$syn..token..Comma$RP$$GT$17h983f3d51957c3a07E.llvm.14025449986115119833', symObjAddr: 0xCD50, symBinAddr: 0x8F510, symSize: 0x110 }
  - { offsetInCU: 0x3273A, offset: 0x3137CD, size: 0x8, addend: 0x0, symName: '__ZN4core3ptr67drop_in_place$LT$alloc..boxed..Box$LT$syn..expr..FieldValue$GT$$GT$17hbbcf67a9d5e9863cE', symObjAddr: 0xCE60, symBinAddr: 0x8F620, symSize: 0x140 }
  - { offsetInCU: 0x32CAD, offset: 0x313D40, size: 0x8, addend: 0x0, symName: '__ZN4core3ptr68drop_in_place$LT$alloc..boxed..Box$LT$syn..path..PathSegment$GT$$GT$17h99aaf90b3262bc1eE', symObjAddr: 0xCFA0, symBinAddr: 0x8F760, symSize: 0xF0 }
  - { offsetInCU: 0x330AF, offset: 0x314142, size: 0x8, addend: 0x0, symName: '__ZN4core3ptr69drop_in_place$LT$core..option..Option$LT$syn..stmt..LocalInit$GT$$GT$17h0978f9ea6e6b3bd1E', symObjAddr: 0xD120, symBinAddr: 0x8F850, symSize: 0xC0 }
  - { offsetInCU: 0x333D3, offset: 0x314466, size: 0x8, addend: 0x0, symName: '__ZN4core3ptr70drop_in_place$LT$$LP$syn..expr..FieldValue$C$syn..token..Comma$RP$$GT$17h7bfdad78936e9ce8E.llvm.14025449986115119833', symObjAddr: 0xD1E0, symBinAddr: 0x8F910, symSize: 0x110 }
  - { offsetInCU: 0x33812, offset: 0x3148A5, size: 0x8, addend: 0x0, symName: '__ZN4core3ptr70drop_in_place$LT$core..option..Option$LT$syn..ty..BareVariadic$GT$$GT$17h79a19250e9f043b1E', symObjAddr: 0xD2F0, symBinAddr: 0x8FA20, symSize: 0x100 }
  - { offsetInCU: 0x33C71, offset: 0x314D04, size: 0x8, addend: 0x0, symName: '__ZN4core3ptr72drop_in_place$LT$alloc..boxed..Box$LT$syn..path..GenericArgument$GT$$GT$17hfd308d374af4273dE.llvm.14025449986115119833', symObjAddr: 0xD3F0, symBinAddr: 0x8FB20, symSize: 0x190 }
  - { offsetInCU: 0x34139, offset: 0x3151CC, size: 0x8, addend: 0x0, symName: '__ZN4core3ptr73drop_in_place$LT$$LP$syn..path..PathSegment$C$syn..token..PathSep$RP$$GT$17he36d39e19c04f3acE.llvm.14025449986115119833', symObjAddr: 0xD580, symBinAddr: 0x8FCB0, symSize: 0xD0 }
  - { offsetInCU: 0x343FC, offset: 0x31548F, size: 0x8, addend: 0x0, symName: '__ZN4core3ptr73drop_in_place$LT$alloc..boxed..Box$LT$syn..generics..GenericParam$GT$$GT$17ha26d5d145af4b203E', symObjAddr: 0xD650, symBinAddr: 0x8FD80, symSize: 0x80 }
  - { offsetInCU: 0x34572, offset: 0x315605, size: 0x8, addend: 0x0, symName: '__ZN4core3ptr75drop_in_place$LT$$LP$syn..path..GenericArgument$C$syn..token..Comma$RP$$GT$17hfc5ffe6787775104E.llvm.14025449986115119833', symObjAddr: 0xD6D0, symBinAddr: 0x8FE00, symSize: 0x180 }
  - { offsetInCU: 0x34900, offset: 0x315993, size: 0x8, addend: 0x0, symName: '__ZN4core3ptr75drop_in_place$LT$alloc..boxed..Box$LT$syn..generics..TypeParamBound$GT$$GT$17h129a4e927e5eb81bE', symObjAddr: 0xD850, symBinAddr: 0x8FF80, symSize: 0x180 }
  - { offsetInCU: 0x34ECA, offset: 0x315F5D, size: 0x8, addend: 0x0, symName: '__ZN4core3ptr75drop_in_place$LT$alloc..boxed..Box$LT$syn..generics..WherePredicate$GT$$GT$17h9bdeede2dbadbeb6E', symObjAddr: 0xD9D0, symBinAddr: 0x90100, symSize: 0x80 }
  - { offsetInCU: 0x35161, offset: 0x3161F4, size: 0x8, addend: 0x0, symName: '__ZN4core3ptr76drop_in_place$LT$$LP$syn..generics..GenericParam$C$syn..token..Comma$RP$$GT$17hfa938bd7ff9e78c2E.llvm.14025449986115119833', symObjAddr: 0xDA50, symBinAddr: 0x90180, symSize: 0x40 }
  - { offsetInCU: 0x3519D, offset: 0x316230, size: 0x8, addend: 0x0, symName: '__ZN4core3ptr77drop_in_place$LT$$LP$syn..generics..TypeParamBound$C$syn..token..Plus$RP$$GT$17h900d162b03245e2aE.llvm.14025449986115119833', symObjAddr: 0xDA90, symBinAddr: 0x901C0, symSize: 0x180 }
  - { offsetInCU: 0x35639, offset: 0x3166CC, size: 0x8, addend: 0x0, symName: '__ZN4core3ptr78drop_in_place$LT$$LP$syn..generics..WherePredicate$C$syn..token..Comma$RP$$GT$17hdfe19ac5c370d71bE.llvm.14025449986115119833', symObjAddr: 0xDC10, symBinAddr: 0x90340, symSize: 0x60 }
  - { offsetInCU: 0x357F3, offset: 0x316886, size: 0x8, addend: 0x0, symName: '__ZN4core3ptr82drop_in_place$LT$alloc..vec..Vec$LT$$LP$syn..pat..Pat$C$syn..token..Or$RP$$GT$$GT$17h1f0f428d7b2d8011E.llvm.14025449986115119833', symObjAddr: 0xDC70, symBinAddr: 0x903A0, symSize: 0x0 }
  - { offsetInCU: 0x35AF2, offset: 0x316B85, size: 0x8, addend: 0x0, symName: '__ZN4core3ptr85drop_in_place$LT$alloc..vec..Vec$LT$$LP$syn..ty..Type$C$syn..token..Comma$RP$$GT$$GT$17h0cf4844ea7ad9568E.llvm.14025449986115119833', symObjAddr: 0xDD40, symBinAddr: 0x90470, symSize: 0xD0 }
  - { offsetInCU: 0x35DED, offset: 0x316E80, size: 0x8, addend: 0x0, symName: '__ZN4core3ptr86drop_in_place$LT$$LP$syn..token..If$C$alloc..boxed..Box$LT$syn..expr..Expr$GT$$RP$$GT$17hf09fe3e5c3a4feb0E', symObjAddr: 0xDE10, symBinAddr: 0x90540, symSize: 0x50 }
  - { offsetInCU: 0x35FA3, offset: 0x317036, size: 0x8, addend: 0x0, symName: '__ZN4core3ptr86drop_in_place$LT$syn..punctuated..Punctuated$LT$syn..pat..Pat$C$syn..token..Or$GT$$GT$17h9cc6b5f7b6d3a555E', symObjAddr: 0xDE60, symBinAddr: 0x90590, symSize: 0x120 }
  - { offsetInCU: 0x3643C, offset: 0x3174CF, size: 0x8, addend: 0x0, symName: '__ZN4core3ptr87drop_in_place$LT$$LP$alloc..boxed..Box$LT$syn..pat..Pat$GT$$C$syn..token..Colon$RP$$GT$17h1f05e7b69125af95E', symObjAddr: 0xDF80, symBinAddr: 0x906B0, symSize: 0x50 }
  - { offsetInCU: 0x36611, offset: 0x3176A4, size: 0x8, addend: 0x0, symName: '__ZN4core3ptr87drop_in_place$LT$alloc..vec..Vec$LT$$LP$syn..expr..Expr$C$syn..token..Comma$RP$$GT$$GT$17hd1036fba4025974bE.llvm.14025449986115119833', symObjAddr: 0xDFD0, symBinAddr: 0x90700, symSize: 0xD0 }
  - { offsetInCU: 0x3690C, offset: 0x31799F, size: 0x8, addend: 0x0, symName: '__ZN4core3ptr87drop_in_place$LT$core..option..Option$LT$alloc..boxed..Box$LT$syn..ty..Type$GT$$GT$$GT$17h103a25a4a7d7374eE', symObjAddr: 0xE0A0, symBinAddr: 0x907D0, symSize: 0x50 }
  - { offsetInCU: 0x36A7C, offset: 0x317B0F, size: 0x8, addend: 0x0, symName: '__ZN4core3ptr88drop_in_place$LT$alloc..vec..Vec$LT$$LP$syn..data..Field$C$syn..token..Comma$RP$$GT$$GT$17h066c67d26ce3e154E.llvm.14025449986115119833', symObjAddr: 0xE0F0, symBinAddr: 0x90820, symSize: 0xD0 }
  - { offsetInCU: 0x36D7B, offset: 0x317E0E, size: 0x8, addend: 0x0, symName: '__ZN4core3ptr88drop_in_place$LT$alloc..vec..Vec$LT$$LP$syn..item..FnArg$C$syn..token..Comma$RP$$GT$$GT$17he8d49cd20c575884E.llvm.14025449986115119833', symObjAddr: 0xE1C0, symBinAddr: 0x908F0, symSize: 0xC0 }
  - { offsetInCU: 0x37074, offset: 0x318107, size: 0x8, addend: 0x0, symName: '__ZN4core3ptr89drop_in_place$LT$core..option..Option$LT$alloc..boxed..Box$LT$syn..expr..Expr$GT$$GT$$GT$17h9e02509cb2345d44E', symObjAddr: 0xE280, symBinAddr: 0x909B0, symSize: 0x50 }
  - { offsetInCU: 0x371E4, offset: 0x318277, size: 0x8, addend: 0x0, symName: '__ZN4core3ptr89drop_in_place$LT$syn..punctuated..Punctuated$LT$syn..ty..Type$C$syn..token..Comma$GT$$GT$17he030c4b7f24a5848E.llvm.14025449986115119833', symObjAddr: 0xE2D0, symBinAddr: 0x90A00, symSize: 0x120 }
  - { offsetInCU: 0x376C3, offset: 0x318756, size: 0x8, addend: 0x0, symName: '__ZN4core3ptr90drop_in_place$LT$alloc..vec..Vec$LT$$LP$syn..data..Variant$C$syn..token..Comma$RP$$GT$$GT$17h3ac8ecccf673c389E.llvm.14025449986115119833', symObjAddr: 0xE3F0, symBinAddr: 0x90B20, symSize: 0xD0 }
  - { offsetInCU: 0x379BE, offset: 0x318A51, size: 0x8, addend: 0x0, symName: '__ZN4core3ptr90drop_in_place$LT$alloc..vec..Vec$LT$$LP$syn..item..UseTree$C$syn..token..Comma$RP$$GT$$GT$17h1e4fface25e12fe6E.llvm.14025449986115119833', symObjAddr: 0xE4C0, symBinAddr: 0x90BF0, symSize: 0xD0 }
  - { offsetInCU: 0x37CF9, offset: 0x318D8C, size: 0x8, addend: 0x0, symName: '__ZN4core3ptr90drop_in_place$LT$alloc..vec..Vec$LT$$LP$syn..pat..FieldPat$C$syn..token..Comma$RP$$GT$$GT$17h4d0a520927a96123E.llvm.14025449986115119833', symObjAddr: 0xE590, symBinAddr: 0x90CC0, symSize: 0xD0 }
  - { offsetInCU: 0x38000, offset: 0x319093, size: 0x8, addend: 0x0, symName: '__ZN4core3ptr90drop_in_place$LT$alloc..vec..Vec$LT$$LP$syn..ty..BareFnArg$C$syn..token..Comma$RP$$GT$$GT$17h86271563b6e0e7d6E.llvm.14025449986115119833', symObjAddr: 0xE660, symBinAddr: 0x90D90, symSize: 0xD0 }
  - { offsetInCU: 0x382CB, offset: 0x31935E, size: 0x8, addend: 0x0, symName: '__ZN4core3ptr90drop_in_place$LT$core..option..Option$LT$alloc..boxed..Box$LT$syn..data..Field$GT$$GT$$GT$17h9f1aee8cd56c6727E', symObjAddr: 0xE730, symBinAddr: 0x90E60, symSize: 0x50 }
  - { offsetInCU: 0x3843B, offset: 0x3194CE, size: 0x8, addend: 0x0, symName: '__ZN4core3ptr90drop_in_place$LT$core..option..Option$LT$alloc..boxed..Box$LT$syn..item..FnArg$GT$$GT$$GT$17h8635495a730dc0bfE', symObjAddr: 0xE780, symBinAddr: 0x90EB0, symSize: 0x50 }
  - { offsetInCU: 0x385CA, offset: 0x31965D, size: 0x8, addend: 0x0, symName: '__ZN4core3ptr91drop_in_place$LT$syn..punctuated..Punctuated$LT$syn..expr..Expr$C$syn..token..Comma$GT$$GT$17h6f261e8f470c81f2E', symObjAddr: 0xE7D0, symBinAddr: 0x90F00, symSize: 0x120 }
  - { offsetInCU: 0x38A5F, offset: 0x319AF2, size: 0x8, addend: 0x0, symName: '__ZN4core3ptr92drop_in_place$LT$core..option..Option$LT$$LP$syn..token..As$C$proc_macro2..Ident$RP$$GT$$GT$17h12a88945917fa9dbE', symObjAddr: 0xE8F0, symBinAddr: 0x91020, symSize: 0x30 }
  - { offsetInCU: 0x38B7A, offset: 0x319C0D, size: 0x8, addend: 0x0, symName: '__ZN4core3ptr92drop_in_place$LT$syn..punctuated..Punctuated$LT$syn..data..Field$C$syn..token..Comma$GT$$GT$17hf8968831c552f88dE', symObjAddr: 0xE920, symBinAddr: 0x91050, symSize: 0x120 }
  - { offsetInCU: 0x39000, offset: 0x31A093, size: 0x8, addend: 0x0, symName: '__ZN4core3ptr92drop_in_place$LT$syn..punctuated..Punctuated$LT$syn..item..FnArg$C$syn..token..Comma$GT$$GT$17h7de33e77eabaea82E', symObjAddr: 0xEA40, symBinAddr: 0x91170, symSize: 0x150 }
  - { offsetInCU: 0x394CF, offset: 0x31A562, size: 0x8, addend: 0x0, symName: '__ZN4core3ptr93drop_in_place$LT$alloc..vec..Vec$LT$$LP$syn..expr..FieldValue$C$syn..token..Comma$RP$$GT$$GT$17hf889827bae7d8b64E.llvm.14025449986115119833', symObjAddr: 0xEB90, symBinAddr: 0x912C0, symSize: 0xD0 }
  - { offsetInCU: 0x397F3, offset: 0x31A886, size: 0x8, addend: 0x0, symName: '__ZN4core3ptr94drop_in_place$LT$alloc..vec..Vec$LT$$LP$syn..lifetime..Lifetime$C$syn..token..Plus$RP$$GT$$GT$17h446c63e6d8248f75E.llvm.14025449986115119833', symObjAddr: 0xEC60, symBinAddr: 0x91390, symSize: 0x90 }
  - { offsetInCU: 0x39AF4, offset: 0x31AB87, size: 0x8, addend: 0x0, symName: '__ZN4core3ptr94drop_in_place$LT$syn..punctuated..Punctuated$LT$syn..data..Variant$C$syn..token..Comma$GT$$GT$17h310cd79aba4529ccE', symObjAddr: 0xECF0, symBinAddr: 0x91420, symSize: 0x120 }
  - { offsetInCU: 0x39FC7, offset: 0x31B05A, size: 0x8, addend: 0x0, symName: '__ZN4core3ptr94drop_in_place$LT$syn..punctuated..Punctuated$LT$syn..pat..FieldPat$C$syn..token..Comma$GT$$GT$17h43ec25af986ef674E', symObjAddr: 0xEE10, symBinAddr: 0x91540, symSize: 0xF0 }
  - { offsetInCU: 0x3A31E, offset: 0x31B3B1, size: 0x8, addend: 0x0, symName: '__ZN4core3ptr94drop_in_place$LT$syn..punctuated..Punctuated$LT$syn..ty..BareFnArg$C$syn..token..Comma$GT$$GT$17h7ba4c699ee390ebaE', symObjAddr: 0xEF00, symBinAddr: 0x91630, symSize: 0xF0 }
  - { offsetInCU: 0x3A639, offset: 0x31B6CC, size: 0x8, addend: 0x0, symName: '__ZN4core3ptr95drop_in_place$LT$core..option..Option$LT$$LP$proc_macro2..Ident$C$syn..token..Colon$RP$$GT$$GT$17h59fe297999aa3329E.llvm.14025449986115119833', symObjAddr: 0xEFF0, symBinAddr: 0x91720, symSize: 0x30 }
  - { offsetInCU: 0x3A754, offset: 0x31B7E7, size: 0x8, addend: 0x0, symName: '__ZN4core3ptr96drop_in_place$LT$alloc..vec..Vec$LT$$LP$syn..path..PathSegment$C$syn..token..PathSep$RP$$GT$$GT$17h69d97f03bb66469bE.llvm.14025449986115119833', symObjAddr: 0xF020, symBinAddr: 0x91750, symSize: 0xD0 }
  - { offsetInCU: 0x3AA51, offset: 0x31BAE4, size: 0x8, addend: 0x0, symName: '__ZN4core3ptr96drop_in_place$LT$core..option..Option$LT$alloc..boxed..Box$LT$syn..path..PathSegment$GT$$GT$$GT$17h5de12a5a0f9e9ef9E', symObjAddr: 0xF0F0, symBinAddr: 0x91820, symSize: 0xA0 }
  - { offsetInCU: 0x3AD2D, offset: 0x31BDC0, size: 0x8, addend: 0x0, symName: '__ZN4core3ptr97drop_in_place$LT$syn..punctuated..Punctuated$LT$syn..expr..FieldValue$C$syn..token..Comma$GT$$GT$17hf58d0a9a09266ab3E', symObjAddr: 0xF1E0, symBinAddr: 0x918C0, symSize: 0xF0 }
  - { offsetInCU: 0x3B044, offset: 0x31C0D7, size: 0x8, addend: 0x0, symName: '__ZN4core3ptr98drop_in_place$LT$alloc..vec..Vec$LT$$LP$syn..path..GenericArgument$C$syn..token..Comma$RP$$GT$$GT$17h0dee282a026d5a38E.llvm.14025449986115119833', symObjAddr: 0xF2D0, symBinAddr: 0x919B0, symSize: 0xD0 }
  - { offsetInCU: 0x3B381, offset: 0x31C414, size: 0x8, addend: 0x0, symName: '__ZN4core3ptr98drop_in_place$LT$syn..punctuated..Punctuated$LT$syn..lifetime..Lifetime$C$syn..token..Plus$GT$$GT$17h600c2b78f78fd2b9E.llvm.14025449986115119833', symObjAddr: 0xF3A0, symBinAddr: 0x91A80, symSize: 0xD0 }
  - { offsetInCU: 0x3B7F3, offset: 0x31C886, size: 0x8, addend: 0x0, symName: '__ZN4core3ptr99drop_in_place$LT$alloc..vec..Vec$LT$$LP$syn..generics..GenericParam$C$syn..token..Comma$RP$$GT$$GT$17haeaa257234ab8b89E.llvm.14025449986115119833', symObjAddr: 0xF470, symBinAddr: 0x91B50, symSize: 0xD0 }
  - { offsetInCU: 0x3BE95, offset: 0x31CF28, size: 0x8, addend: 0x0, symName: '__ZN42_$LT$$RF$T$u20$as$u20$core..fmt..Debug$GT$3fmt17hd75f14d0cf92e165E', symObjAddr: 0x220, symBinAddr: 0x82A00, symSize: 0x80 }
  - { offsetInCU: 0x4105E, offset: 0x3220F1, size: 0x8, addend: 0x0, symName: '__ZN48_$LT$T$u20$as$u20$core..clone..CloneToUninit$GT$15clone_to_uninit17h573d7a4ee27ed36aE', symObjAddr: 0x2A0, symBinAddr: 0x82A80, symSize: 0x330 }
  - { offsetInCU: 0x42268, offset: 0x3232FB, size: 0x8, addend: 0x0, symName: '__ZN136_$LT$alloc..vec..Vec$LT$T$C$A$GT$$u20$as$u20$alloc..vec..spec_extend..SpecExtend$LT$T$C$alloc..vec..into_iter..IntoIter$LT$T$GT$$GT$$GT$11spec_extend17hccc28cc1a2272c75E', symObjAddr: 0x100, symBinAddr: 0x82960, symSize: 0xA0 }
  - { offsetInCU: 0x42599, offset: 0x32362C, size: 0x8, addend: 0x0, symName: '__ZN97_$LT$alloc..vec..Vec$LT$T$C$A$GT$$u20$as$u20$alloc..vec..spec_extend..SpecExtend$LT$T$C$I$GT$$GT$11spec_extend17ha7b17e62345c5d54E', symObjAddr: 0x13200, symBinAddr: 0x940A0, symSize: 0x330 }
  - { offsetInCU: 0x433F2, offset: 0x324485, size: 0x8, addend: 0x0, symName: '__ZN65_$LT$alloc..vec..Vec$LT$T$C$A$GT$$u20$as$u20$core..fmt..Debug$GT$3fmt17h7df35ea0f5de10d6E', symObjAddr: 0xFA90, symBinAddr: 0x91CB0, symSize: 0x80 }
  - { offsetInCU: 0x43608, offset: 0x32469B, size: 0x8, addend: 0x0, symName: '__ZN67_$LT$alloc..vec..Vec$LT$T$C$A$GT$$u20$as$u20$core..clone..Clone$GT$5clone17h0918c192fa05002fE', symObjAddr: 0xFC70, symBinAddr: 0x91D30, symSize: 0x0 }
  - { offsetInCU: 0x43A3B, offset: 0x324ACE, size: 0x8, addend: 0x0, symName: '__ZN67_$LT$alloc..vec..Vec$LT$T$C$A$GT$$u20$as$u20$core..clone..Clone$GT$5clone17h12f34926ea9f1126E', symObjAddr: 0xFDC0, symBinAddr: 0x91E80, symSize: 0x140 }
  - { offsetInCU: 0x43E6D, offset: 0x324F00, size: 0x8, addend: 0x0, symName: '__ZN67_$LT$alloc..vec..Vec$LT$T$C$A$GT$$u20$as$u20$core..clone..Clone$GT$5clone17h198f7ad4e9731601E', symObjAddr: 0xFF00, symBinAddr: 0x91FC0, symSize: 0x150 }
  - { offsetInCU: 0x442A0, offset: 0x325333, size: 0x8, addend: 0x0, symName: '__ZN67_$LT$alloc..vec..Vec$LT$T$C$A$GT$$u20$as$u20$core..clone..Clone$GT$5clone17h1c4556f52f9d0d47E', symObjAddr: 0x10050, symBinAddr: 0x92110, symSize: 0x140 }
  - { offsetInCU: 0x4467E, offset: 0x325711, size: 0x8, addend: 0x0, symName: '__ZN67_$LT$alloc..vec..Vec$LT$T$C$A$GT$$u20$as$u20$core..clone..Clone$GT$5clone17h231253a81e7a58bbE', symObjAddr: 0x10190, symBinAddr: 0x92250, symSize: 0x140 }
  - { offsetInCU: 0x44AB1, offset: 0x325B44, size: 0x8, addend: 0x0, symName: '__ZN67_$LT$alloc..vec..Vec$LT$T$C$A$GT$$u20$as$u20$core..clone..Clone$GT$5clone17h26458e8ef80c3a9bE', symObjAddr: 0x102D0, symBinAddr: 0x92390, symSize: 0x150 }
  - { offsetInCU: 0x44EE4, offset: 0x325F77, size: 0x8, addend: 0x0, symName: '__ZN67_$LT$alloc..vec..Vec$LT$T$C$A$GT$$u20$as$u20$core..clone..Clone$GT$5clone17h2b24796f45520c7bE', symObjAddr: 0x10420, symBinAddr: 0x924E0, symSize: 0x140 }
  - { offsetInCU: 0x452C2, offset: 0x326355, size: 0x8, addend: 0x0, symName: '__ZN67_$LT$alloc..vec..Vec$LT$T$C$A$GT$$u20$as$u20$core..clone..Clone$GT$5clone17h2f79e88de7934928E', symObjAddr: 0x10560, symBinAddr: 0x92620, symSize: 0x140 }
  - { offsetInCU: 0x456A0, offset: 0x326733, size: 0x8, addend: 0x0, symName: '__ZN67_$LT$alloc..vec..Vec$LT$T$C$A$GT$$u20$as$u20$core..clone..Clone$GT$5clone17h31bc48edccfa1915E', symObjAddr: 0x106A0, symBinAddr: 0x92760, symSize: 0x240 }
  - { offsetInCU: 0x45CC1, offset: 0x326D54, size: 0x8, addend: 0x0, symName: '__ZN67_$LT$alloc..vec..Vec$LT$T$C$A$GT$$u20$as$u20$core..clone..Clone$GT$5clone17h363befc284095627E', symObjAddr: 0x108E0, symBinAddr: 0x929A0, symSize: 0x150 }
  - { offsetInCU: 0x460F4, offset: 0x327187, size: 0x8, addend: 0x0, symName: '__ZN67_$LT$alloc..vec..Vec$LT$T$C$A$GT$$u20$as$u20$core..clone..Clone$GT$5clone17h4573a12392f30b82E', symObjAddr: 0x10A30, symBinAddr: 0x92AF0, symSize: 0x1A0 }
  - { offsetInCU: 0x46580, offset: 0x327613, size: 0x8, addend: 0x0, symName: '__ZN67_$LT$alloc..vec..Vec$LT$T$C$A$GT$$u20$as$u20$core..clone..Clone$GT$5clone17h66d29e7a7f7f75a3E', symObjAddr: 0x10BD0, symBinAddr: 0x92C90, symSize: 0x140 }
  - { offsetInCU: 0x4695E, offset: 0x3279F1, size: 0x8, addend: 0x0, symName: '__ZN67_$LT$alloc..vec..Vec$LT$T$C$A$GT$$u20$as$u20$core..clone..Clone$GT$5clone17h6e06f5a531199142E', symObjAddr: 0x10D10, symBinAddr: 0x92DD0, symSize: 0x180 }
  - { offsetInCU: 0x46E37, offset: 0x327ECA, size: 0x8, addend: 0x0, symName: '__ZN67_$LT$alloc..vec..Vec$LT$T$C$A$GT$$u20$as$u20$core..clone..Clone$GT$5clone17h7130fcf6814bc045E', symObjAddr: 0x10E90, symBinAddr: 0x92F50, symSize: 0x150 }
  - { offsetInCU: 0x4726A, offset: 0x3282FD, size: 0x8, addend: 0x0, symName: '__ZN67_$LT$alloc..vec..Vec$LT$T$C$A$GT$$u20$as$u20$core..clone..Clone$GT$5clone17h7665f3814d75ccf2E', symObjAddr: 0x10FE0, symBinAddr: 0x930A0, symSize: 0x150 }
  - { offsetInCU: 0x4769D, offset: 0x328730, size: 0x8, addend: 0x0, symName: '__ZN67_$LT$alloc..vec..Vec$LT$T$C$A$GT$$u20$as$u20$core..clone..Clone$GT$5clone17h81c8c2fa81ddf714E', symObjAddr: 0x11130, symBinAddr: 0x931F0, symSize: 0x160 }
  - { offsetInCU: 0x47B11, offset: 0x328BA4, size: 0x8, addend: 0x0, symName: '__ZN67_$LT$alloc..vec..Vec$LT$T$C$A$GT$$u20$as$u20$core..clone..Clone$GT$5clone17h95e57492d3a10cc0E', symObjAddr: 0x113F0, symBinAddr: 0x93350, symSize: 0x140 }
  - { offsetInCU: 0x47EEF, offset: 0x328F82, size: 0x8, addend: 0x0, symName: '__ZN67_$LT$alloc..vec..Vec$LT$T$C$A$GT$$u20$as$u20$core..clone..Clone$GT$5clone17ha4bb515f2984f91aE', symObjAddr: 0x11530, symBinAddr: 0x93490, symSize: 0x150 }
  - { offsetInCU: 0x48322, offset: 0x3293B5, size: 0x8, addend: 0x0, symName: '__ZN67_$LT$alloc..vec..Vec$LT$T$C$A$GT$$u20$as$u20$core..clone..Clone$GT$5clone17haa8bb6b2679cb284E', symObjAddr: 0x11680, symBinAddr: 0x935E0, symSize: 0x240 }
  - { offsetInCU: 0x4891B, offset: 0x3299AE, size: 0x8, addend: 0x0, symName: '__ZN67_$LT$alloc..vec..Vec$LT$T$C$A$GT$$u20$as$u20$core..clone..Clone$GT$5clone17hbc42148281c8a2c5E', symObjAddr: 0x118C0, symBinAddr: 0x93820, symSize: 0x150 }
  - { offsetInCU: 0x48D4E, offset: 0x329DE1, size: 0x8, addend: 0x0, symName: '__ZN67_$LT$alloc..vec..Vec$LT$T$C$A$GT$$u20$as$u20$core..clone..Clone$GT$5clone17hdea0838f2711b888E', symObjAddr: 0x11A10, symBinAddr: 0x93970, symSize: 0x180 }
  - { offsetInCU: 0x49250, offset: 0x32A2E3, size: 0x8, addend: 0x0, symName: '__ZN67_$LT$alloc..vec..Vec$LT$T$C$A$GT$$u20$as$u20$core..clone..Clone$GT$5clone17he6fccb5bd9282467E', symObjAddr: 0x11B90, symBinAddr: 0x93AF0, symSize: 0x150 }
  - { offsetInCU: 0x49683, offset: 0x32A716, size: 0x8, addend: 0x0, symName: '__ZN67_$LT$alloc..vec..Vec$LT$T$C$A$GT$$u20$as$u20$core..clone..Clone$GT$5clone17hfc43050c7448a50aE', symObjAddr: 0x11CE0, symBinAddr: 0x93C40, symSize: 0x140 }
  - { offsetInCU: 0x49A61, offset: 0x32AAF4, size: 0x8, addend: 0x0, symName: '__ZN67_$LT$alloc..vec..Vec$LT$T$C$A$GT$$u20$as$u20$core..clone..Clone$GT$5clone17hffa782808f95fe1aE', symObjAddr: 0x11E20, symBinAddr: 0x93D80, symSize: 0x140 }
  - { offsetInCU: 0x4A311, offset: 0x32B3A4, size: 0x8, addend: 0x0, symName: '__ZN70_$LT$alloc..vec..Vec$LT$T$C$A$GT$$u20$as$u20$core..ops..drop..Drop$GT$4drop17h04459a2ad506febfE', symObjAddr: 0x11F60, symBinAddr: 0x93EC0, symSize: 0xB0 }
  - { offsetInCU: 0x4A373, offset: 0x32B406, size: 0x8, addend: 0x0, symName: '__ZN70_$LT$alloc..vec..Vec$LT$T$C$A$GT$$u20$as$u20$core..ops..drop..Drop$GT$4drop17h16fdfee690a97aabE', symObjAddr: 0x12150, symBinAddr: 0x93F70, symSize: 0xB0 }
  - { offsetInCU: 0x4A4EE, offset: 0x32B581, size: 0x8, addend: 0x0, symName: '__ZN70_$LT$alloc..vec..Vec$LT$T$C$A$GT$$u20$as$u20$core..ops..drop..Drop$GT$4drop17h24dac77de93830d0E', symObjAddr: 0x12330, symBinAddr: 0x94020, symSize: 0x80 }
  - { offsetInCU: 0x4F4DD, offset: 0x330570, size: 0x8, addend: 0x0, symName: '__ZN5alloc3vec16Vec$LT$T$C$A$GT$16into_boxed_slice17hf01fc5c9dc27910bE', symObjAddr: 0xF5D0, symBinAddr: 0x91C20, symSize: 0x90 }
  - { offsetInCU: 0x1E, offset: 0x344748, size: 0x8, addend: 0x0, symName: '__ZN4core3ptr100drop_in_place$LT$core..option..Option$LT$alloc..boxed..Box$LT$syn..path..GenericArgument$GT$$GT$$GT$17h3a7c44b9e57fe410E', symObjAddr: 0x0, symBinAddr: 0x943D0, symSize: 0x50 }
  - { offsetInCU: 0xA9, offset: 0x3447D3, size: 0x8, addend: 0x0, symName: '__ZN58_$LT$alloc..string..String$u20$as$u20$core..fmt..Write$GT$10write_char17h04bc467bd68a934bE', symObjAddr: 0x71C0, symBinAddr: 0x9B590, symSize: 0x140 }
  - { offsetInCU: 0x4AE, offset: 0x344BD8, size: 0x8, addend: 0x0, symName: '__ZN58_$LT$alloc..string..String$u20$as$u20$core..fmt..Write$GT$9write_str17h46a93205c3443fbaE', symObjAddr: 0x7300, symBinAddr: 0x9B6D0, symSize: 0x60 }
  - { offsetInCU: 0x1456, offset: 0x345B80, size: 0x8, addend: 0x0, symName: __ZN5alloc5alloc15exchange_malloc17h9a87608d0224859dE, symObjAddr: 0x7360, symBinAddr: 0x9B730, symSize: 0x40 }
  - { offsetInCU: 0x37FA, offset: 0x347F24, size: 0x8, addend: 0x0, symName: '__ZN4core3ptr100drop_in_place$LT$core..option..Option$LT$alloc..boxed..Box$LT$syn..path..GenericArgument$GT$$GT$$GT$17h3a7c44b9e57fe410E', symObjAddr: 0x0, symBinAddr: 0x943D0, symSize: 0x50 }
  - { offsetInCU: 0x39C7, offset: 0x3480F1, size: 0x8, addend: 0x0, symName: '__ZN4core3ptr102drop_in_place$LT$syn..punctuated..Punctuated$LT$syn..path..GenericArgument$C$syn..token..Comma$GT$$GT$17h8b1978399cfff48bE', symObjAddr: 0x50, symBinAddr: 0x94420, symSize: 0xF0 }
  - { offsetInCU: 0x3CE7, offset: 0x348411, size: 0x8, addend: 0x0, symName: '__ZN4core3ptr103drop_in_place$LT$core..option..Option$LT$alloc..boxed..Box$LT$syn..generics..TypeParamBound$GT$$GT$$GT$17hb14e4384a768542bE', symObjAddr: 0x140, symBinAddr: 0x94510, symSize: 0x50 }
  - { offsetInCU: 0x3EF2, offset: 0x34861C, size: 0x8, addend: 0x0, symName: '__ZN4core3ptr103drop_in_place$LT$syn..punctuated..Punctuated$LT$syn..generics..GenericParam$C$syn..token..Comma$GT$$GT$17h0c6077a988036760E', symObjAddr: 0x190, symBinAddr: 0x94560, symSize: 0xF0 }
  - { offsetInCU: 0x44C6, offset: 0x348BF0, size: 0x8, addend: 0x0, symName: '__ZN4core3ptr104drop_in_place$LT$syn..punctuated..Punctuated$LT$syn..generics..TypeParamBound$C$syn..token..Plus$GT$$GT$17h724e4d9d1d65061aE', symObjAddr: 0x280, symBinAddr: 0x94650, symSize: 0x260 }
  - { offsetInCU: 0x4F10, offset: 0x34963A, size: 0x8, addend: 0x0, symName: '__ZN4core3ptr34drop_in_place$LT$syn..lit..Lit$GT$17hd64dde89a262341dE', symObjAddr: 0x4E0, symBinAddr: 0x948B0, symSize: 0x120 }
  - { offsetInCU: 0x53FE, offset: 0x349B28, size: 0x8, addend: 0x0, symName: '__ZN4core3ptr34drop_in_place$LT$syn..pat..Pat$GT$17hf88887878261d63cE', symObjAddr: 0x600, symBinAddr: 0x949D0, symSize: 0xF70 }
  - { offsetInCU: 0x9317, offset: 0x34DA41, size: 0x8, addend: 0x0, symName: '__ZN4core3ptr34drop_in_place$LT$syn..ty..Type$GT$17ha80dd29b0f9d4a3fE', symObjAddr: 0x1570, symBinAddr: 0x95940, symSize: 0x5A0 }
  - { offsetInCU: 0xACB3, offset: 0x34F3DD, size: 0x8, addend: 0x0, symName: '__ZN4core3ptr36drop_in_place$LT$syn..expr..Expr$GT$17h10f573b40ddd212cE.llvm.15963643447187171253', symObjAddr: 0x1B10, symBinAddr: 0x95EE0, symSize: 0x2760 }
  - { offsetInCU: 0x149AA, offset: 0x3590D4, size: 0x8, addend: 0x0, symName: '__ZN4core3ptr36drop_in_place$LT$syn..mac..Macro$GT$17hc3b30a7a8a34cc2dE', symObjAddr: 0x4270, symBinAddr: 0x98640, symSize: 0x110 }
  - { offsetInCU: 0x14E47, offset: 0x359571, size: 0x8, addend: 0x0, symName: '__ZN4core3ptr36drop_in_place$LT$syn..path..Path$GT$17h75c74a97d5f0a03bE', symObjAddr: 0x4380, symBinAddr: 0x98750, symSize: 0x280 }
  - { offsetInCU: 0x158F4, offset: 0x35A01E, size: 0x8, addend: 0x0, symName: '__ZN4core3ptr37drop_in_place$LT$syn..stmt..Block$GT$17h6fc3254d5688f2c3E', symObjAddr: 0x4600, symBinAddr: 0x989D0, symSize: 0xD0 }
  - { offsetInCU: 0x15BCB, offset: 0x35A2F5, size: 0x8, addend: 0x0, symName: '__ZN4core3ptr38drop_in_place$LT$syn..expr..Member$GT$17h6b0cf84594ce6bceE', symObjAddr: 0x46D0, symBinAddr: 0x98AA0, symSize: 0x30 }
  - { offsetInCU: 0x15D62, offset: 0x35A48C, size: 0x8, addend: 0x0, symName: '__ZN4core3ptr38drop_in_place$LT$syn..group..Group$GT$17ha3c6933df6efe66fE', symObjAddr: 0x4700, symBinAddr: 0x98AD0, symSize: 0x70 }
  - { offsetInCU: 0x1605A, offset: 0x35A784, size: 0x8, addend: 0x0, symName: '__ZN4core3ptr39drop_in_place$LT$proc_macro2..Ident$GT$17ha28fef9769e267d9E', symObjAddr: 0x4770, symBinAddr: 0x98B40, symSize: 0x30 }
  - { offsetInCU: 0x16175, offset: 0x35A89F, size: 0x8, addend: 0x0, symName: '__ZN4core3ptr39drop_in_place$LT$syn..lit..LitFloat$GT$17h83bfdc788eb6081bE', symObjAddr: 0x47A0, symBinAddr: 0x98B70, symSize: 0x70 }
  - { offsetInCU: 0x164E7, offset: 0x35AC11, size: 0x8, addend: 0x0, symName: '__ZN4core3ptr40drop_in_place$LT$syn..expr..ExprPath$GT$17h1e579ab03db12453E', symObjAddr: 0x4810, symBinAddr: 0x98BE0, symSize: 0x110 }
  - { offsetInCU: 0x1694A, offset: 0x35B074, size: 0x8, addend: 0x0, symName: '__ZN4core3ptr40drop_in_place$LT$syn..ty..ReturnType$GT$17h035a612e322b6510E', symObjAddr: 0x4920, symBinAddr: 0x98CF0, symSize: 0x50 }
  - { offsetInCU: 0x16B17, offset: 0x35B241, size: 0x8, addend: 0x0, symName: '__ZN4core3ptr41drop_in_place$LT$syn..attr..Attribute$GT$17h326c12be3efddb0cE', symObjAddr: 0x4970, symBinAddr: 0x98D40, symSize: 0xA0 }
  - { offsetInCU: 0x16B92, offset: 0x35B2BC, size: 0x8, addend: 0x0, symName: '__ZN4core3ptr41drop_in_place$LT$syn..expr..ExprConst$GT$17hbfe19d5d621e6836E', symObjAddr: 0x4A10, symBinAddr: 0x98DE0, symSize: 0x180 }
  - { offsetInCU: 0x1717F, offset: 0x35B8A9, size: 0x8, addend: 0x0, symName: '__ZN4core3ptr42drop_in_place$LT$alloc..string..String$GT$17h9acfda4d1b128177E', symObjAddr: 0x4B90, symBinAddr: 0x98F60, symSize: 0x20 }
  - { offsetInCU: 0x17287, offset: 0x35B9B1, size: 0x8, addend: 0x0, symName: '__ZN4core3ptr44drop_in_place$LT$syn..lifetime..Lifetime$GT$17he37fa474f03de7b1E', symObjAddr: 0x4BB0, symBinAddr: 0x98F80, symSize: 0x30 }
  - { offsetInCU: 0x17383, offset: 0x35BAAD, size: 0x8, addend: 0x0, symName: '__ZN4core3ptr44drop_in_place$LT$syn..parse..ParseBuffer$GT$17hf792ff20095efc35E', symObjAddr: 0x4BE0, symBinAddr: 0x98FB0, symSize: 0x70 }
  - { offsetInCU: 0x1779A, offset: 0x35BEC4, size: 0x8, addend: 0x0, symName: '__ZN4core3ptr45drop_in_place$LT$proc_macro2..TokenStream$GT$17h76e8e68015f4924dE', symObjAddr: 0x4C50, symBinAddr: 0x99020, symSize: 0x140 }
  - { offsetInCU: 0x17C34, offset: 0x35C35E, size: 0x8, addend: 0x0, symName: '__ZN4core3ptr45drop_in_place$LT$syn..generics..TypeParam$GT$17h188a459c1380ac75E', symObjAddr: 0x4D90, symBinAddr: 0x99160, symSize: 0x230 }
  - { offsetInCU: 0x184A9, offset: 0x35CBD3, size: 0x8, addend: 0x0, symName: '__ZN4core3ptr46drop_in_place$LT$syn..generics..ConstParam$GT$17h7a9b900b2b88bfcdE', symObjAddr: 0x4FC0, symBinAddr: 0x99390, symSize: 0x150 }
  - { offsetInCU: 0x1892A, offset: 0x35D054, size: 0x8, addend: 0x0, symName: '__ZN4core3ptr47drop_in_place$LT$syn..path..GenericArgument$GT$17h593f06d6ca9a94d2E', symObjAddr: 0x5110, symBinAddr: 0x994E0, symSize: 0x450 }
  - { offsetInCU: 0x196A0, offset: 0x35DDCA, size: 0x8, addend: 0x0, symName: '__ZN4core3ptr49drop_in_place$LT$syn..generics..LifetimeParam$GT$17h3a8835ab294bfd16E', symObjAddr: 0x5560, symBinAddr: 0x99930, symSize: 0xF0 }
  - { offsetInCU: 0x19AB7, offset: 0x35E1E1, size: 0x8, addend: 0x0, symName: '__ZN4core3ptr50drop_in_place$LT$syn..generics..TypeParamBound$GT$17h81b4325b5900604dE', symObjAddr: 0x5650, symBinAddr: 0x99A20, symSize: 0xA0 }
  - { offsetInCU: 0x19C1D, offset: 0x35E347, size: 0x8, addend: 0x0, symName: '__ZN4core3ptr58drop_in_place$LT$alloc..vec..Vec$LT$syn..expr..Arm$GT$$GT$17hff9224aadf2233b8E', symObjAddr: 0x56F0, symBinAddr: 0x99AC0, symSize: 0xD0 }
  - { offsetInCU: 0x19EDD, offset: 0x35E607, size: 0x8, addend: 0x0, symName: '__ZN4core3ptr59drop_in_place$LT$alloc..boxed..Box$LT$syn..pat..Pat$GT$$GT$17h622b0c1db21c0742E', symObjAddr: 0x57C0, symBinAddr: 0x99B90, symSize: 0x50 }
  - { offsetInCU: 0x1A036, offset: 0x35E760, size: 0x8, addend: 0x0, symName: '__ZN4core3ptr59drop_in_place$LT$alloc..boxed..Box$LT$syn..ty..Type$GT$$GT$17hde45fa887dd8b605E', symObjAddr: 0x5810, symBinAddr: 0x99BE0, symSize: 0x50 }
  - { offsetInCU: 0x1A18F, offset: 0x35E8B9, size: 0x8, addend: 0x0, symName: '__ZN4core3ptr61drop_in_place$LT$alloc..boxed..Box$LT$syn..expr..Expr$GT$$GT$17hbb42293869113942E', symObjAddr: 0x5860, symBinAddr: 0x99C30, symSize: 0x50 }
  - { offsetInCU: 0x1A2E8, offset: 0x35EA12, size: 0x8, addend: 0x0, symName: '__ZN4core3ptr61drop_in_place$LT$syn..path..ParenthesizedGenericArguments$GT$17h6b1731382637937fE', symObjAddr: 0x58B0, symBinAddr: 0x99C80, symSize: 0x170 }
  - { offsetInCU: 0x1A8F1, offset: 0x35F01B, size: 0x8, addend: 0x0, symName: '__ZN4core3ptr63drop_in_place$LT$alloc..boxed..Box$LT$syn..lit..LitRepr$GT$$GT$17h6e3a82ea4de7b84cE', symObjAddr: 0x5A20, symBinAddr: 0x99DF0, symSize: 0x60 }
  - { offsetInCU: 0x1ABF8, offset: 0x35F322, size: 0x8, addend: 0x0, symName: '__ZN4core3ptr64drop_in_place$LT$alloc..boxed..Box$LT$syn..pat..FieldPat$GT$$GT$17hbf8f4867d84bd25dE', symObjAddr: 0x5A80, symBinAddr: 0x99E50, symSize: 0x140 }
  - { offsetInCU: 0x1B2F9, offset: 0x35FA23, size: 0x8, addend: 0x0, symName: '__ZN4core3ptr64drop_in_place$LT$alloc..boxed..Box$LT$syn..ty..BareFnArg$GT$$GT$17h6be6354eb1d1364dE', symObjAddr: 0x5BC0, symBinAddr: 0x99F90, symSize: 0x140 }
  - { offsetInCU: 0x1B882, offset: 0x35FFAC, size: 0x8, addend: 0x0, symName: '__ZN4core3ptr64drop_in_place$LT$alloc..vec..Vec$LT$syn..attr..Attribute$GT$$GT$17he33e25539d5885aeE.llvm.15963643447187171253', symObjAddr: 0x5D00, symBinAddr: 0x9A0D0, symSize: 0xD0 }
  - { offsetInCU: 0x1BB76, offset: 0x3602A0, size: 0x8, addend: 0x0, symName: '__ZN4core3ptr65drop_in_place$LT$alloc..vec..Vec$LT$proc_macro..TokenTree$GT$$GT$17h8abd81f8596dbc59E', symObjAddr: 0x5DD0, symBinAddr: 0x9A1A0, symSize: 0x110 }
  - { offsetInCU: 0x1BF6E, offset: 0x360698, size: 0x8, addend: 0x0, symName: '__ZN4core3ptr65drop_in_place$LT$core..option..Option$LT$syn..expr..Label$GT$$GT$17hac599686b33ef364E', symObjAddr: 0x5EE0, symBinAddr: 0x9A2B0, symSize: 0x30 }
  - { offsetInCU: 0x1C0A8, offset: 0x3607D2, size: 0x8, addend: 0x0, symName: '__ZN4core3ptr65drop_in_place$LT$core..option..Option$LT$syn..path..QSelf$GT$$GT$17h0b8dd5cda5f2cd6bE', symObjAddr: 0x5F10, symBinAddr: 0x9A2E0, symSize: 0x50 }
  - { offsetInCU: 0x1C229, offset: 0x360953, size: 0x8, addend: 0x0, symName: '__ZN4core3ptr66drop_in_place$LT$core..option..Option$LT$syn..pat..PatRest$GT$$GT$17hd5bb3bc28aa78ac1E', symObjAddr: 0x5F60, symBinAddr: 0x9A330, symSize: 0xE0 }
  - { offsetInCU: 0x1C551, offset: 0x360C7B, size: 0x8, addend: 0x0, symName: '__ZN4core3ptr67drop_in_place$LT$alloc..boxed..Box$LT$syn..expr..FieldValue$GT$$GT$17hbbcf67a9d5e9863cE', symObjAddr: 0x6040, symBinAddr: 0x9A410, symSize: 0x140 }
  - { offsetInCU: 0x1CAD9, offset: 0x361203, size: 0x8, addend: 0x0, symName: '__ZN4core3ptr70drop_in_place$LT$core..option..Option$LT$syn..ty..BareVariadic$GT$$GT$17h79a19250e9f043b1E', symObjAddr: 0x6180, symBinAddr: 0x9A550, symSize: 0x100 }
  - { offsetInCU: 0x1CF44, offset: 0x36166E, size: 0x8, addend: 0x0, symName: '__ZN4core3ptr72drop_in_place$LT$alloc..boxed..Box$LT$syn..path..GenericArgument$GT$$GT$17hfd308d374af4273dE', symObjAddr: 0x6280, symBinAddr: 0x9A650, symSize: 0x2B0 }
  - { offsetInCU: 0x1D955, offset: 0x36207F, size: 0x8, addend: 0x0, symName: '__ZN4core3ptr72drop_in_place$LT$core..option..Option$LT$syn..lifetime..Lifetime$GT$$GT$17h49cce6f02f9c0590E', symObjAddr: 0x6530, symBinAddr: 0x9A900, symSize: 0x30 }
  - { offsetInCU: 0x1DA70, offset: 0x36219A, size: 0x8, addend: 0x0, symName: '__ZN4core3ptr73drop_in_place$LT$alloc..boxed..Box$LT$syn..generics..GenericParam$GT$$GT$17ha26d5d145af4b203E', symObjAddr: 0x6560, symBinAddr: 0x9A930, symSize: 0x80 }
  - { offsetInCU: 0x1DBE6, offset: 0x362310, size: 0x8, addend: 0x0, symName: '__ZN4core3ptr75drop_in_place$LT$alloc..boxed..Box$LT$syn..generics..TypeParamBound$GT$$GT$17h129a4e927e5eb81bE', symObjAddr: 0x65E0, symBinAddr: 0x9A9B0, symSize: 0x1B0 }
  - { offsetInCU: 0x1E2E5, offset: 0x362A0F, size: 0x8, addend: 0x0, symName: '__ZN4core3ptr83drop_in_place$LT$core..result..Result$LT$syn..op..BinOp$C$syn..error..Error$GT$$GT$17h495a3ee3d6e6a47dE', symObjAddr: 0x6790, symBinAddr: 0x9AB60, symSize: 0x80 }
  - { offsetInCU: 0x1E5FF, offset: 0x362D29, size: 0x8, addend: 0x0, symName: '__ZN4core3ptr86drop_in_place$LT$syn..punctuated..Punctuated$LT$syn..pat..Pat$C$syn..token..Or$GT$$GT$17h9cc6b5f7b6d3a555E', symObjAddr: 0x6810, symBinAddr: 0x9ABE0, symSize: 0x120 }
  - { offsetInCU: 0x1EA7A, offset: 0x3631A4, size: 0x8, addend: 0x0, symName: '__ZN4core3ptr87drop_in_place$LT$core..option..Option$LT$alloc..boxed..Box$LT$syn..pat..Pat$GT$$GT$$GT$17h51cd48973d96c411E', symObjAddr: 0x6930, symBinAddr: 0x9AD00, symSize: 0x50 }
  - { offsetInCU: 0x1EBEA, offset: 0x363314, size: 0x8, addend: 0x0, symName: '__ZN4core3ptr87drop_in_place$LT$core..option..Option$LT$alloc..boxed..Box$LT$syn..ty..Type$GT$$GT$$GT$17h103a25a4a7d7374eE', symObjAddr: 0x6980, symBinAddr: 0x9AD50, symSize: 0x50 }
  - { offsetInCU: 0x1ED5A, offset: 0x363484, size: 0x8, addend: 0x0, symName: '__ZN4core3ptr89drop_in_place$LT$core..option..Option$LT$alloc..boxed..Box$LT$syn..expr..Expr$GT$$GT$$GT$17h9e02509cb2345d44E', symObjAddr: 0x69D0, symBinAddr: 0x9ADA0, symSize: 0x50 }
  - { offsetInCU: 0x1EF08, offset: 0x363632, size: 0x8, addend: 0x0, symName: '__ZN4core3ptr89drop_in_place$LT$syn..punctuated..Punctuated$LT$syn..pat..Pat$C$syn..token..Comma$GT$$GT$17hd3a83c36827f210aE', symObjAddr: 0x6A20, symBinAddr: 0x9ADF0, symSize: 0x120 }
  - { offsetInCU: 0x1F3D8, offset: 0x363B02, size: 0x8, addend: 0x0, symName: '__ZN4core3ptr91drop_in_place$LT$syn..punctuated..Punctuated$LT$syn..expr..Expr$C$syn..token..Comma$GT$$GT$17h6f261e8f470c81f2E', symObjAddr: 0x6B40, symBinAddr: 0x9AF10, symSize: 0x120 }
  - { offsetInCU: 0x1F866, offset: 0x363F90, size: 0x8, addend: 0x0, symName: '__ZN4core3ptr94drop_in_place$LT$syn..punctuated..Punctuated$LT$syn..pat..FieldPat$C$syn..token..Comma$GT$$GT$17h43ec25af986ef674E', symObjAddr: 0x6C60, symBinAddr: 0x9B030, symSize: 0xF0 }
  - { offsetInCU: 0x1FB65, offset: 0x36428F, size: 0x8, addend: 0x0, symName: '__ZN4core3ptr94drop_in_place$LT$syn..punctuated..Punctuated$LT$syn..ty..BareFnArg$C$syn..token..Comma$GT$$GT$17h7ba4c699ee390ebaE', symObjAddr: 0x6D50, symBinAddr: 0x9B120, symSize: 0xF0 }
  - { offsetInCU: 0x1FE66, offset: 0x364590, size: 0x8, addend: 0x0, symName: '__ZN4core3ptr96drop_in_place$LT$core..option..Option$LT$alloc..boxed..Box$LT$syn..path..PathSegment$GT$$GT$$GT$17h5de12a5a0f9e9ef9E', symObjAddr: 0x6E40, symBinAddr: 0x9B210, symSize: 0x1A0 }
  - { offsetInCU: 0x20527, offset: 0x364C51, size: 0x8, addend: 0x0, symName: '__ZN4core3ptr97drop_in_place$LT$syn..punctuated..Punctuated$LT$syn..expr..FieldValue$C$syn..token..Comma$GT$$GT$17hf58d0a9a09266ab3E', symObjAddr: 0x6FE0, symBinAddr: 0x9B3B0, symSize: 0xF0 }
  - { offsetInCU: 0x208A0, offset: 0x364FCA, size: 0x8, addend: 0x0, symName: '__ZN4core3ptr98drop_in_place$LT$syn..punctuated..Punctuated$LT$syn..lifetime..Lifetime$C$syn..token..Plus$GT$$GT$17h600c2b78f78fd2b9E', symObjAddr: 0x70D0, symBinAddr: 0x9B4A0, symSize: 0xD0 }
  - { offsetInCU: 0x214D2, offset: 0x365BFC, size: 0x8, addend: 0x0, symName: '__ZN53_$LT$core..fmt..Error$u20$as$u20$core..fmt..Debug$GT$3fmt17h03dc662ab152f3aeE', symObjAddr: 0x71A0, symBinAddr: 0x9B570, symSize: 0x20 }
  - { offsetInCU: 0x2C59F, offset: 0x370CC9, size: 0x8, addend: 0x0, symName: __ZN3syn4expr7parsing32parse_with_earlier_boundary_rule17h04da014a226fbbe5E, symObjAddr: 0x73A0, symBinAddr: 0x9B770, symSize: 0x1430 }
  - { offsetInCU: 0x2E8DB, offset: 0x373005, size: 0x8, addend: 0x0, symName: __ZN3syn4expr7parsing14can_begin_expr17h4653549300b8351bE, symObjAddr: 0x87D0, symBinAddr: 0x9CBA0, symSize: 0x370 }
  - { offsetInCU: 0x2FA0A, offset: 0x374134, size: 0x8, addend: 0x0, symName: __ZN3syn4expr7parsing10parse_expr17he948d695e5f3d52eE.llvm.15963643447187171253, symObjAddr: 0x8B40, symBinAddr: 0x9CF10, symSize: 0x1330 }
  - { offsetInCU: 0x3282B, offset: 0x376F55, size: 0x8, addend: 0x0, symName: __ZN3syn4expr7parsing15parse_binop_rhs17h6b864ca016112671E, symObjAddr: 0x9E70, symBinAddr: 0x9E240, symSize: 0x4E0 }
  - { offsetInCU: 0x33316, offset: 0x377A40, size: 0x8, addend: 0x0, symName: __ZN3syn4expr7parsing14ambiguous_expr17h5b5bba9c148d94dbE, symObjAddr: 0xA350, symBinAddr: 0x9E720, symSize: 0xF0 }
  - { offsetInCU: 0x33399, offset: 0x377AC3, size: 0x8, addend: 0x0, symName: __ZN3syn4expr7parsing10expr_attrs17h79ae24352e9d9d57E, symObjAddr: 0xA440, symBinAddr: 0x9E810, symSize: 0x250 }
  - { offsetInCU: 0x33901, offset: 0x37802B, size: 0x8, addend: 0x0, symName: __ZN3syn4expr7parsing10unary_expr17h1634cdc87bf326dfE, symObjAddr: 0xA690, symBinAddr: 0x9EA60, symSize: 0x7C0 }
  - { offsetInCU: 0x34B98, offset: 0x3792C2, size: 0x8, addend: 0x0, symName: __ZN3syn4expr7parsing12trailer_expr17hd6c52758b73443cfE, symObjAddr: 0xAE50, symBinAddr: 0x9F220, symSize: 0x1830 }
  - { offsetInCU: 0x385A3, offset: 0x37CCCD, size: 0x8, addend: 0x0, symName: __ZN3syn4expr7parsing14trailer_helper17h681119187c5a546dE, symObjAddr: 0xC680, symBinAddr: 0xA0A50, symSize: 0x1F80 }
  - { offsetInCU: 0x3C7F4, offset: 0x380F1E, size: 0x8, addend: 0x0, symName: __ZN3syn4expr7parsing12atom_labeled17h4604f459baf45e1eE, symObjAddr: 0xE600, symBinAddr: 0xA29D0, symSize: 0x590 }
  - { offsetInCU: 0x3D0F3, offset: 0x38181D, size: 0x8, addend: 0x0, symName: __ZN3syn4expr7parsing12expr_builtin17h8b5ff5122f88b230E, symObjAddr: 0xEB90, symBinAddr: 0xA2F60, symSize: 0x410 }
  - { offsetInCU: 0x3DD1F, offset: 0x382449, size: 0x8, addend: 0x0, symName: __ZN3syn4expr7parsing23path_or_macro_or_struct17he515cb28f35d860eE, symObjAddr: 0xEFA0, symBinAddr: 0xA3370, symSize: 0x130 }
  - { offsetInCU: 0x3DDDB, offset: 0x382505, size: 0x8, addend: 0x0, symName: __ZN3syn4expr7parsing31rest_of_path_or_macro_or_struct17hab8b11d447eb17cdE, symObjAddr: 0xF0D0, symBinAddr: 0xA34A0, symSize: 0x3D0 }
  - { offsetInCU: 0x3E551, offset: 0x382C7B, size: 0x8, addend: 0x0, symName: __ZN3syn4expr7parsing14paren_or_tuple17hca3957091eeb9c50E, symObjAddr: 0xF4A0, symBinAddr: 0xA3870, symSize: 0x780 }
  - { offsetInCU: 0x3EE9E, offset: 0x3835C8, size: 0x8, addend: 0x0, symName: __ZN3syn4expr7parsing15array_or_repeat17h7503a4cc2fc5aa31E, symObjAddr: 0xFC20, symBinAddr: 0xA3FF0, symSize: 0x950 }
  - { offsetInCU: 0x3FA4E, offset: 0x384178, size: 0x8, addend: 0x0, symName: __ZN3syn4expr7parsing10expr_group17ha2f3b33138d5864cE, symObjAddr: 0x10570, symBinAddr: 0xA4940, symSize: 0x870 }
  - { offsetInCU: 0x405C8, offset: 0x384CF2, size: 0x8, addend: 0x0, symName: __ZN3syn4expr7parsing8expr_let17hf863f328b939742fE, symObjAddr: 0x10FC0, symBinAddr: 0xA51B0, symSize: 0x570 }
  - { offsetInCU: 0x40F24, offset: 0x38564E, size: 0x8, addend: 0x0, symName: __ZN3syn4expr7parsing10expr_unary17h1d4eb12bbc8abbd2E, symObjAddr: 0x11530, symBinAddr: 0xA5720, symSize: 0x2D0 }
  - { offsetInCU: 0x414FB, offset: 0x385C25, size: 0x8, addend: 0x0, symName: __ZN3syn4expr7parsing12expr_closure17h4e49f531e43f650cE, symObjAddr: 0x11800, symBinAddr: 0xA59F0, symSize: 0x1580 }
  - { offsetInCU: 0x4317E, offset: 0x3878A8, size: 0x8, addend: 0x0, symName: __ZN3syn4expr7parsing10expr_break17h3ba483e8fdc57f87E, symObjAddr: 0x12D80, symBinAddr: 0xA6F70, symSize: 0x720 }
  - { offsetInCU: 0x44207, offset: 0x388931, size: 0x8, addend: 0x0, symName: __ZN3syn4expr7parsing18expr_struct_helper17h62f8c2fd9c8d9ae6E, symObjAddr: 0x134A0, symBinAddr: 0xA7690, symSize: 0x980 }
  - { offsetInCU: 0x45144, offset: 0x38986E, size: 0x8, addend: 0x0, symName: __ZN3syn4expr7parsing10expr_range17h3255a6ff02803bdbE, symObjAddr: 0x13E20, symBinAddr: 0xA8010, symSize: 0xF0 }
  - { offsetInCU: 0x45304, offset: 0x389A2E, size: 0x8, addend: 0x0, symName: __ZN3syn4expr7parsing15parse_range_end17hbd7fe95ed93f48b3E, symObjAddr: 0x13F10, symBinAddr: 0xA8100, symSize: 0x11D }
  - { offsetInCU: 0x1E, offset: 0x39C1E3, size: 0x8, addend: 0x0, symName: __ZN5alloc7raw_vec11finish_grow17h5993caaa74c4fbdfE.llvm.8028830779895567672, symObjAddr: 0x0, symBinAddr: 0xA8220, symSize: 0xA0 }
  - { offsetInCU: 0x69AA, offset: 0x3A2B6F, size: 0x8, addend: 0x0, symName: __ZN5alloc7raw_vec11finish_grow17h5993caaa74c4fbdfE.llvm.8028830779895567672, symObjAddr: 0x0, symBinAddr: 0xA8220, symSize: 0xA0 }
  - { offsetInCU: 0x875B, offset: 0x3A4920, size: 0x8, addend: 0x0, symName: '__ZN5alloc7raw_vec19RawVec$LT$T$C$A$GT$7reserve21do_reserve_and_handle17h1257c9ee09466061E', symObjAddr: 0x1330, symBinAddr: 0x1F27E0, symSize: 0xA0 }
  - { offsetInCU: 0x8A56, offset: 0x3A4C1B, size: 0x8, addend: 0x0, symName: '__ZN5alloc7raw_vec19RawVec$LT$T$C$A$GT$7reserve21do_reserve_and_handle17h30f192da7d596089E', symObjAddr: 0x13D0, symBinAddr: 0x1F2880, symSize: 0xB0 }
  - { offsetInCU: 0x8D85, offset: 0x3A4F4A, size: 0x8, addend: 0x0, symName: '__ZN5alloc7raw_vec19RawVec$LT$T$C$A$GT$7reserve21do_reserve_and_handle17h7bcc278903fa73cdE', symObjAddr: 0x1480, symBinAddr: 0x1F2930, symSize: 0xB0 }
  - { offsetInCU: 0x90B4, offset: 0x3A5279, size: 0x8, addend: 0x0, symName: '__ZN5alloc7raw_vec19RawVec$LT$T$C$A$GT$7reserve21do_reserve_and_handle17h96ca4a18a0a3ddafE', symObjAddr: 0x15F0, symBinAddr: 0x1F29E0, symSize: 0xB0 }
  - { offsetInCU: 0x93E5, offset: 0x3A55AA, size: 0x8, addend: 0x0, symName: '__ZN5alloc7raw_vec19RawVec$LT$T$C$A$GT$7reserve21do_reserve_and_handle17hbb3a7e81495482abE', symObjAddr: 0x16A0, symBinAddr: 0x1F2A90, symSize: 0xB0 }
  - { offsetInCU: 0xFF00, offset: 0x3AC0C5, size: 0x8, addend: 0x0, symName: '__ZN5alloc7raw_vec19RawVec$LT$T$C$A$GT$8grow_one17h095fa3667201f4f8E', symObjAddr: 0x1810, symBinAddr: 0xA82C0, symSize: 0xC0 }
  - { offsetInCU: 0x103D4, offset: 0x3AC599, size: 0x8, addend: 0x0, symName: '__ZN5alloc7raw_vec19RawVec$LT$T$C$A$GT$8grow_one17h17381682e7253ec7E', symObjAddr: 0x18D0, symBinAddr: 0xA8380, symSize: 0xC0 }
  - { offsetInCU: 0x108A8, offset: 0x3ACA6D, size: 0x8, addend: 0x0, symName: '__ZN5alloc7raw_vec19RawVec$LT$T$C$A$GT$8grow_one17h248c03912984705cE', symObjAddr: 0x1990, symBinAddr: 0xA8440, symSize: 0xB0 }
  - { offsetInCU: 0x10D7C, offset: 0x3ACF41, size: 0x8, addend: 0x0, symName: '__ZN5alloc7raw_vec19RawVec$LT$T$C$A$GT$8grow_one17h3075326c15ed7061E', symObjAddr: 0x1A40, symBinAddr: 0xA84F0, symSize: 0x0 }
  - { offsetInCU: 0x11252, offset: 0x3AD417, size: 0x8, addend: 0x0, symName: '__ZN5alloc7raw_vec19RawVec$LT$T$C$A$GT$8grow_one17h313fd240ac0cecb3E', symObjAddr: 0x1B00, symBinAddr: 0xA85B0, symSize: 0x0 }
  - { offsetInCU: 0x11726, offset: 0x3AD8EB, size: 0x8, addend: 0x0, symName: '__ZN5alloc7raw_vec19RawVec$LT$T$C$A$GT$8grow_one17h32f85f1d3098de7dE', symObjAddr: 0x1BC0, symBinAddr: 0xA8670, symSize: 0x0 }
  - { offsetInCU: 0x11B90, offset: 0x3ADD55, size: 0x8, addend: 0x0, symName: '__ZN5alloc7raw_vec19RawVec$LT$T$C$A$GT$8grow_one17h46224c298c9c9296E', symObjAddr: 0x1C80, symBinAddr: 0xA8730, symSize: 0x0 }
  - { offsetInCU: 0x12062, offset: 0x3AE227, size: 0x8, addend: 0x0, symName: '__ZN5alloc7raw_vec19RawVec$LT$T$C$A$GT$8grow_one17h5a605c90d00a8a39E', symObjAddr: 0x1D30, symBinAddr: 0xA87E0, symSize: 0xC0 }
  - { offsetInCU: 0x12536, offset: 0x3AE6FB, size: 0x8, addend: 0x0, symName: '__ZN5alloc7raw_vec19RawVec$LT$T$C$A$GT$8grow_one17h718e5b8a06d845cbE', symObjAddr: 0x1DF0, symBinAddr: 0xA88A0, symSize: 0xC0 }
  - { offsetInCU: 0x1287B, offset: 0x3AEA40, size: 0x8, addend: 0x0, symName: '__ZN5alloc7raw_vec19RawVec$LT$T$C$A$GT$8grow_one17h72dabde20a137b04E', symObjAddr: 0x1EB0, symBinAddr: 0xA8960, symSize: 0xB0 }
  - { offsetInCU: 0x12D4D, offset: 0x3AEF12, size: 0x8, addend: 0x0, symName: '__ZN5alloc7raw_vec19RawVec$LT$T$C$A$GT$8grow_one17h7c2c58db67a15848E', symObjAddr: 0x1F60, symBinAddr: 0xA8A10, symSize: 0x0 }
  - { offsetInCU: 0x13221, offset: 0x3AF3E6, size: 0x8, addend: 0x0, symName: '__ZN5alloc7raw_vec19RawVec$LT$T$C$A$GT$8grow_one17h7d9544ea3e76eae9E', symObjAddr: 0x2020, symBinAddr: 0xA8AD0, symSize: 0xC0 }
  - { offsetInCU: 0x136F5, offset: 0x3AF8BA, size: 0x8, addend: 0x0, symName: '__ZN5alloc7raw_vec19RawVec$LT$T$C$A$GT$8grow_one17h82b0804d651d4ef5E', symObjAddr: 0x20E0, symBinAddr: 0xA8B90, symSize: 0xC0 }
  - { offsetInCU: 0x13BF6, offset: 0x3AFDBB, size: 0x8, addend: 0x0, symName: '__ZN5alloc7raw_vec19RawVec$LT$T$C$A$GT$8grow_one17h85907f27c23a559bE', symObjAddr: 0x21A0, symBinAddr: 0xA8C50, symSize: 0xB0 }
  - { offsetInCU: 0x140C8, offset: 0x3B028D, size: 0x8, addend: 0x0, symName: '__ZN5alloc7raw_vec19RawVec$LT$T$C$A$GT$8grow_one17ha5852730cd02935bE', symObjAddr: 0x2250, symBinAddr: 0xA8D00, symSize: 0x0 }
  - { offsetInCU: 0x1459C, offset: 0x3B0761, size: 0x8, addend: 0x0, symName: '__ZN5alloc7raw_vec19RawVec$LT$T$C$A$GT$8grow_one17hb30077ec058bafdfE', symObjAddr: 0x2310, symBinAddr: 0xA8DC0, symSize: 0xB0 }
  - { offsetInCU: 0x14A6E, offset: 0x3B0C33, size: 0x8, addend: 0x0, symName: '__ZN5alloc7raw_vec19RawVec$LT$T$C$A$GT$8grow_one17hc0723e4af934b43eE', symObjAddr: 0x23C0, symBinAddr: 0xA8E70, symSize: 0xC0 }
  - { offsetInCU: 0x14DB5, offset: 0x3B0F7A, size: 0x8, addend: 0x0, symName: '__ZN5alloc7raw_vec19RawVec$LT$T$C$A$GT$8grow_one17hc9702e9ac871cd96E', symObjAddr: 0x2480, symBinAddr: 0xA8F30, symSize: 0xB0 }
  - { offsetInCU: 0x15289, offset: 0x3B144E, size: 0x8, addend: 0x0, symName: '__ZN5alloc7raw_vec19RawVec$LT$T$C$A$GT$8grow_one17hcf254d991fef210fE', symObjAddr: 0x2530, symBinAddr: 0xA8FE0, symSize: 0xC0 }
  - { offsetInCU: 0x1575D, offset: 0x3B1922, size: 0x8, addend: 0x0, symName: '__ZN5alloc7raw_vec19RawVec$LT$T$C$A$GT$8grow_one17hd89eb202b8db7e1aE', symObjAddr: 0x25F0, symBinAddr: 0xA90A0, symSize: 0xC0 }
  - { offsetInCU: 0x15AA4, offset: 0x3B1C69, size: 0x8, addend: 0x0, symName: '__ZN5alloc7raw_vec19RawVec$LT$T$C$A$GT$8grow_one17hdb610d4d82b2394dE', symObjAddr: 0x26B0, symBinAddr: 0xA9160, symSize: 0xA0 }
  - { offsetInCU: 0x15F38, offset: 0x3B20FD, size: 0x8, addend: 0x0, symName: '__ZN5alloc7raw_vec19RawVec$LT$T$C$A$GT$8grow_one17hdc14d76226baa6aaE', symObjAddr: 0x2750, symBinAddr: 0xA9200, symSize: 0xC0 }
  - { offsetInCU: 0x1640C, offset: 0x3B25D1, size: 0x8, addend: 0x0, symName: '__ZN5alloc7raw_vec19RawVec$LT$T$C$A$GT$8grow_one17hfb0e72b592d7c1fcE', symObjAddr: 0x2810, symBinAddr: 0xA92C0, symSize: 0xC0 }
  - { offsetInCU: 0x1E, offset: 0x3B2984, size: 0x8, addend: 0x0, symName: '__ZN4core3ptr100drop_in_place$LT$core..option..Option$LT$alloc..boxed..Box$LT$syn..path..GenericArgument$GT$$GT$$GT$17h3a7c44b9e57fe410E', symObjAddr: 0x0, symBinAddr: 0xA9380, symSize: 0x50 }
  - { offsetInCU: 0x1A4F, offset: 0x3B43B5, size: 0x8, addend: 0x0, symName: '__ZN4core3ptr100drop_in_place$LT$core..option..Option$LT$alloc..boxed..Box$LT$syn..path..GenericArgument$GT$$GT$$GT$17h3a7c44b9e57fe410E', symObjAddr: 0x0, symBinAddr: 0xA9380, symSize: 0x50 }
  - { offsetInCU: 0x1C1C, offset: 0x3B4582, size: 0x8, addend: 0x0, symName: '__ZN4core3ptr102drop_in_place$LT$syn..punctuated..Punctuated$LT$syn..path..GenericArgument$C$syn..token..Comma$GT$$GT$17h8b1978399cfff48bE', symObjAddr: 0x50, symBinAddr: 0xA93D0, symSize: 0xF0 }
  - { offsetInCU: 0x1F3C, offset: 0x3B48A2, size: 0x8, addend: 0x0, symName: '__ZN4core3ptr103drop_in_place$LT$core..option..Option$LT$alloc..boxed..Box$LT$syn..generics..TypeParamBound$GT$$GT$$GT$17hb14e4384a768542bE', symObjAddr: 0x140, symBinAddr: 0xA94C0, symSize: 0x50 }
  - { offsetInCU: 0x2201, offset: 0x3B4B67, size: 0x8, addend: 0x0, symName: '__ZN4core3ptr103drop_in_place$LT$core..option..Option$LT$alloc..boxed..Box$LT$syn..generics..WherePredicate$GT$$GT$$GT$17he190813f4819c5dbE', symObjAddr: 0x190, symBinAddr: 0xA9510, symSize: 0xD0 }
  - { offsetInCU: 0x2595, offset: 0x3B4EFB, size: 0x8, addend: 0x0, symName: '__ZN4core3ptr103drop_in_place$LT$syn..punctuated..Punctuated$LT$syn..generics..GenericParam$C$syn..token..Comma$GT$$GT$17h0c6077a988036760E', symObjAddr: 0x260, symBinAddr: 0xA95E0, symSize: 0xF0 }
  - { offsetInCU: 0x2A90, offset: 0x3B53F6, size: 0x8, addend: 0x0, symName: '__ZN4core3ptr104drop_in_place$LT$syn..punctuated..Punctuated$LT$syn..generics..TypeParamBound$C$syn..token..Plus$GT$$GT$17h724e4d9d1d65061aE', symObjAddr: 0x350, symBinAddr: 0xA96D0, symSize: 0x260 }
  - { offsetInCU: 0x345E, offset: 0x3B5DC4, size: 0x8, addend: 0x0, symName: '__ZN4core3ptr115drop_in_place$LT$core..option..Option$LT$$LP$alloc..boxed..Box$LT$syn..pat..Pat$GT$$C$syn..token..Colon$RP$$GT$$GT$17h787822396d5dcd7bE', symObjAddr: 0x5B0, symBinAddr: 0xA9930, symSize: 0x50 }
  - { offsetInCU: 0x362C, offset: 0x3B5F92, size: 0x8, addend: 0x0, symName: '__ZN4core3ptr115drop_in_place$LT$core..option..Option$LT$$LP$syn..token..Brace$C$alloc..vec..Vec$LT$syn..item..Item$GT$$RP$$GT$$GT$17h4f61046186bbd7c9E', symObjAddr: 0x600, symBinAddr: 0xA9980, symSize: 0xD0 }
  - { offsetInCU: 0x3943, offset: 0x3B62A9, size: 0x8, addend: 0x0, symName: '__ZN4core3ptr126drop_in_place$LT$core..option..Option$LT$$LP$syn..token..And$C$core..option..Option$LT$syn..lifetime..Lifetime$GT$$RP$$GT$$GT$17h45c5d73e12cdf6f0E', symObjAddr: 0x6D0, symBinAddr: 0xA9A50, symSize: 0x30 }
  - { offsetInCU: 0x3B56, offset: 0x3B64BC, size: 0x8, addend: 0x0, symName: '__ZN4core3ptr34drop_in_place$LT$syn..lit..Lit$GT$17hd64dde89a262341dE', symObjAddr: 0x700, symBinAddr: 0xA9A80, symSize: 0x120 }
  - { offsetInCU: 0x4025, offset: 0x3B698B, size: 0x8, addend: 0x0, symName: '__ZN4core3ptr34drop_in_place$LT$syn..pat..Pat$GT$17hf88887878261d63cE', symObjAddr: 0x820, symBinAddr: 0xA9BA0, symSize: 0xF70 }
  - { offsetInCU: 0x7F1F, offset: 0x3BA885, size: 0x8, addend: 0x0, symName: '__ZN4core3ptr34drop_in_place$LT$syn..ty..Type$GT$17ha80dd29b0f9d4a3fE', symObjAddr: 0x1790, symBinAddr: 0xAAB10, symSize: 0x5A0 }
  - { offsetInCU: 0x98BB, offset: 0x3BC221, size: 0x8, addend: 0x0, symName: '__ZN4core3ptr36drop_in_place$LT$syn..expr..Expr$GT$17h10f573b40ddd212cE', symObjAddr: 0x1D30, symBinAddr: 0xAB0B0, symSize: 0x2760 }
  - { offsetInCU: 0x139D0, offset: 0x3C6336, size: 0x8, addend: 0x0, symName: '__ZN4core3ptr36drop_in_place$LT$syn..item..Item$GT$17haa59cf9e39ab8cebE', symObjAddr: 0x4490, symBinAddr: 0xAD810, symSize: 0x17C0 }
  - { offsetInCU: 0x195DF, offset: 0x3CBF45, size: 0x8, addend: 0x0, symName: '__ZN4core3ptr36drop_in_place$LT$syn..mac..Macro$GT$17hc3b30a7a8a34cc2dE', symObjAddr: 0x5C50, symBinAddr: 0xAEFD0, symSize: 0x110 }
  - { offsetInCU: 0x19A7C, offset: 0x3CC3E2, size: 0x8, addend: 0x0, symName: '__ZN4core3ptr36drop_in_place$LT$syn..path..Path$GT$17h75c74a97d5f0a03bE', symObjAddr: 0x5D60, symBinAddr: 0xAF0E0, symSize: 0x280 }
  - { offsetInCU: 0x1A529, offset: 0x3CCE8F, size: 0x8, addend: 0x0, symName: '__ZN4core3ptr37drop_in_place$LT$syn..item..FnArg$GT$17h470fdeee5cba5e3aE', symObjAddr: 0x5FE0, symBinAddr: 0xAF360, symSize: 0x160 }
  - { offsetInCU: 0x1AB08, offset: 0x3CD46E, size: 0x8, addend: 0x0, symName: '__ZN4core3ptr37drop_in_place$LT$syn..stmt..Block$GT$17h6fc3254d5688f2c3E', symObjAddr: 0x6140, symBinAddr: 0xAF4C0, symSize: 0xD0 }
  - { offsetInCU: 0x1ADFE, offset: 0x3CD764, size: 0x8, addend: 0x0, symName: '__ZN4core3ptr38drop_in_place$LT$syn..data..Fields$GT$17h79840861dd1f691dE', symObjAddr: 0x6210, symBinAddr: 0xAF590, symSize: 0x190 }
  - { offsetInCU: 0x1B248, offset: 0x3CDBAE, size: 0x8, addend: 0x0, symName: '__ZN4core3ptr38drop_in_place$LT$syn..expr..Member$GT$17h6b0cf84594ce6bceE', symObjAddr: 0x63A0, symBinAddr: 0xAF720, symSize: 0x30 }
  - { offsetInCU: 0x1B344, offset: 0x3CDCAA, size: 0x8, addend: 0x0, symName: '__ZN4core3ptr39drop_in_place$LT$proc_macro2..Ident$GT$17ha28fef9769e267d9E', symObjAddr: 0x63D0, symBinAddr: 0xAF750, symSize: 0x30 }
  - { offsetInCU: 0x1B49D, offset: 0x3CDE03, size: 0x8, addend: 0x0, symName: '__ZN4core3ptr39drop_in_place$LT$syn..item..UseTree$GT$17h7288572c631f954aE', symObjAddr: 0x6400, symBinAddr: 0xAF780, symSize: 0xE0 }
  - { offsetInCU: 0x1B844, offset: 0x3CE1AA, size: 0x8, addend: 0x0, symName: '__ZN4core3ptr39drop_in_place$LT$syn..ty..TypeGroup$GT$17hf74b5ab2edcb931fE', symObjAddr: 0x64E0, symBinAddr: 0xAF860, symSize: 0x50 }
  - { offsetInCU: 0x1BA2B, offset: 0x3CE391, size: 0x8, addend: 0x0, symName: '__ZN4core3ptr40drop_in_place$LT$syn..item..ImplItem$GT$17h98907b2080b0ccb0E', symObjAddr: 0x6530, symBinAddr: 0xAF8B0, symSize: 0x6E0 }
  - { offsetInCU: 0x1CF9C, offset: 0x3CF902, size: 0x8, addend: 0x0, symName: '__ZN4core3ptr40drop_in_place$LT$syn..item..ItemImpl$GT$17h2e9f0b01a7977a55E', symObjAddr: 0x6C10, symBinAddr: 0xAFF90, symSize: 0x1E0 }
  - { offsetInCU: 0x1D75C, offset: 0x3D00C2, size: 0x8, addend: 0x0, symName: '__ZN4core3ptr40drop_in_place$LT$syn..item..Receiver$GT$17h5e68a437c3b8e574E', symObjAddr: 0x6DF0, symBinAddr: 0xB0170, symSize: 0x130 }
  - { offsetInCU: 0x1DD47, offset: 0x3D06AD, size: 0x8, addend: 0x0, symName: '__ZN4core3ptr40drop_in_place$LT$syn..item..Variadic$GT$17hf9d4ebdb0f5e723aE', symObjAddr: 0x6F20, symBinAddr: 0xB02A0, symSize: 0x110 }
  - { offsetInCU: 0x1E1C3, offset: 0x3D0B29, size: 0x8, addend: 0x0, symName: '__ZN4core3ptr40drop_in_place$LT$syn..ty..ReturnType$GT$17h035a612e322b6510E', symObjAddr: 0x7030, symBinAddr: 0xB03B0, symSize: 0x50 }
  - { offsetInCU: 0x1E333, offset: 0x3D0C99, size: 0x8, addend: 0x0, symName: '__ZN4core3ptr41drop_in_place$LT$syn..expr..ExprConst$GT$17hbfe19d5d621e6836E', symObjAddr: 0x7080, symBinAddr: 0xB0400, symSize: 0x180 }
  - { offsetInCU: 0x1E93F, offset: 0x3D12A5, size: 0x8, addend: 0x0, symName: '__ZN4core3ptr41drop_in_place$LT$syn..item..Signature$GT$17h41f785211ad8eb02E', symObjAddr: 0x7200, symBinAddr: 0xB0580, symSize: 0x180 }
  - { offsetInCU: 0x1F01F, offset: 0x3D1985, size: 0x8, addend: 0x0, symName: '__ZN4core3ptr41drop_in_place$LT$syn..item..TraitItem$GT$17hc74edaa948c160a2E', symObjAddr: 0x7380, symBinAddr: 0xB0700, symSize: 0x5E0 }
  - { offsetInCU: 0x201DB, offset: 0x3D2B41, size: 0x8, addend: 0x0, symName: '__ZN4core3ptr43drop_in_place$LT$syn..data..FieldsNamed$GT$17h56bef6f151514865E', symObjAddr: 0x7960, symBinAddr: 0xB0CE0, symSize: 0xE0 }
  - { offsetInCU: 0x20501, offset: 0x3D2E67, size: 0x8, addend: 0x0, symName: '__ZN4core3ptr44drop_in_place$LT$syn..generics..Generics$GT$17h671de917167f8b66E', symObjAddr: 0x7A40, symBinAddr: 0xB0DC0, symSize: 0x40 }
  - { offsetInCU: 0x2051E, offset: 0x3D2E84, size: 0x8, addend: 0x0, symName: '__ZN4core3ptr44drop_in_place$LT$syn..lifetime..Lifetime$GT$17he37fa474f03de7b1E', symObjAddr: 0x7A80, symBinAddr: 0xB0E00, symSize: 0x30 }
  - { offsetInCU: 0x20696, offset: 0x3D2FFC, size: 0x8, addend: 0x0, symName: '__ZN4core3ptr44drop_in_place$LT$syn..parse..ParseBuffer$GT$17hf792ff20095efc35E', symObjAddr: 0x7AB0, symBinAddr: 0xB0E30, symSize: 0x70 }
  - { offsetInCU: 0x20AAD, offset: 0x3D3413, size: 0x8, addend: 0x0, symName: '__ZN4core3ptr45drop_in_place$LT$proc_macro2..TokenStream$GT$17h76e8e68015f4924dE', symObjAddr: 0x7B20, symBinAddr: 0xB0EA0, symSize: 0x140 }
  - { offsetInCU: 0x20F47, offset: 0x3D38AD, size: 0x8, addend: 0x0, symName: '__ZN4core3ptr45drop_in_place$LT$syn..generics..TypeParam$GT$17h188a459c1380ac75E', symObjAddr: 0x7C60, symBinAddr: 0xB0FE0, symSize: 0x230 }
  - { offsetInCU: 0x217BC, offset: 0x3D4122, size: 0x8, addend: 0x0, symName: '__ZN4core3ptr46drop_in_place$LT$syn..generics..ConstParam$GT$17h7a9b900b2b88bfcdE', symObjAddr: 0x7E90, symBinAddr: 0xB1210, symSize: 0x150 }
  - { offsetInCU: 0x21C3D, offset: 0x3D45A3, size: 0x8, addend: 0x0, symName: '__ZN4core3ptr47drop_in_place$LT$syn..path..GenericArgument$GT$17h593f06d6ca9a94d2E', symObjAddr: 0x7FE0, symBinAddr: 0xB1360, symSize: 0x450 }
  - { offsetInCU: 0x229B3, offset: 0x3D5319, size: 0x8, addend: 0x0, symName: '__ZN4core3ptr49drop_in_place$LT$syn..generics..LifetimeParam$GT$17h3a8835ab294bfd16E', symObjAddr: 0x8430, symBinAddr: 0xB17B0, symSize: 0xF0 }
  - { offsetInCU: 0x22DCA, offset: 0x3D5730, size: 0x8, addend: 0x0, symName: '__ZN4core3ptr49drop_in_place$LT$syn..restriction..Visibility$GT$17h3e52b998838defb1E', symObjAddr: 0x8520, symBinAddr: 0xB18A0, symSize: 0x60 }
  - { offsetInCU: 0x22F3B, offset: 0x3D58A1, size: 0x8, addend: 0x0, symName: '__ZN4core3ptr50drop_in_place$LT$syn..generics..TypeParamBound$GT$17h81b4325b5900604dE', symObjAddr: 0x8580, symBinAddr: 0xB1900, symSize: 0xA0 }
  - { offsetInCU: 0x230A1, offset: 0x3D5A07, size: 0x8, addend: 0x0, symName: '__ZN4core3ptr58drop_in_place$LT$alloc..vec..Vec$LT$syn..expr..Arm$GT$$GT$17hff9224aadf2233b8E', symObjAddr: 0x8620, symBinAddr: 0xB19A0, symSize: 0xD0 }
  - { offsetInCU: 0x23361, offset: 0x3D5CC7, size: 0x8, addend: 0x0, symName: '__ZN4core3ptr59drop_in_place$LT$alloc..boxed..Box$LT$syn..pat..Pat$GT$$GT$17h622b0c1db21c0742E', symObjAddr: 0x86F0, symBinAddr: 0xB1A70, symSize: 0x50 }
  - { offsetInCU: 0x234BA, offset: 0x3D5E20, size: 0x8, addend: 0x0, symName: '__ZN4core3ptr59drop_in_place$LT$alloc..boxed..Box$LT$syn..ty..Type$GT$$GT$17hde45fa887dd8b605E', symObjAddr: 0x8740, symBinAddr: 0xB1AC0, symSize: 0x50 }
  - { offsetInCU: 0x23613, offset: 0x3D5F79, size: 0x8, addend: 0x0, symName: '__ZN4core3ptr61drop_in_place$LT$alloc..boxed..Box$LT$syn..expr..Expr$GT$$GT$17hbb42293869113942E', symObjAddr: 0x8790, symBinAddr: 0xB1B10, symSize: 0x50 }
  - { offsetInCU: 0x2376C, offset: 0x3D60D2, size: 0x8, addend: 0x0, symName: '__ZN4core3ptr61drop_in_place$LT$syn..path..ParenthesizedGenericArguments$GT$17h6b1731382637937fE', symObjAddr: 0x87E0, symBinAddr: 0xB1B60, symSize: 0x170 }
  - { offsetInCU: 0x23D75, offset: 0x3D66DB, size: 0x8, addend: 0x0, symName: '__ZN4core3ptr62drop_in_place$LT$alloc..boxed..Box$LT$syn..stmt..Block$GT$$GT$17h21dcb5adf0237a12E', symObjAddr: 0x8950, symBinAddr: 0xB1CD0, symSize: 0xE0 }
  - { offsetInCU: 0x24183, offset: 0x3D6AE9, size: 0x8, addend: 0x0, symName: '__ZN4core3ptr63drop_in_place$LT$alloc..boxed..Box$LT$syn..lit..LitRepr$GT$$GT$17h6e3a82ea4de7b84cE', symObjAddr: 0x8A30, symBinAddr: 0xB1DB0, symSize: 0x60 }
  - { offsetInCU: 0x2444C, offset: 0x3D6DB2, size: 0x8, addend: 0x0, symName: '__ZN4core3ptr63drop_in_place$LT$alloc..vec..Vec$LT$syn..item..ImplItem$GT$$GT$17hc51fca07e67d35aeE', symObjAddr: 0x8A90, symBinAddr: 0xB1E10, symSize: 0x80 }
  - { offsetInCU: 0x24723, offset: 0x3D7089, size: 0x8, addend: 0x0, symName: '__ZN4core3ptr64drop_in_place$LT$alloc..boxed..Box$LT$syn..item..UseTree$GT$$GT$17he4d7024582150632E', symObjAddr: 0x8B10, symBinAddr: 0xB1E90, symSize: 0xF0 }
  - { offsetInCU: 0x24C3E, offset: 0x3D75A4, size: 0x8, addend: 0x0, symName: '__ZN4core3ptr64drop_in_place$LT$alloc..boxed..Box$LT$syn..pat..FieldPat$GT$$GT$17hbf8f4867d84bd25dE', symObjAddr: 0x8C00, symBinAddr: 0xB1F80, symSize: 0x140 }
  - { offsetInCU: 0x2533F, offset: 0x3D7CA5, size: 0x8, addend: 0x0, symName: '__ZN4core3ptr64drop_in_place$LT$alloc..boxed..Box$LT$syn..ty..BareFnArg$GT$$GT$17h6be6354eb1d1364dE', symObjAddr: 0x8D40, symBinAddr: 0xB20C0, symSize: 0x140 }
  - { offsetInCU: 0x258C8, offset: 0x3D822E, size: 0x8, addend: 0x0, symName: '__ZN4core3ptr64drop_in_place$LT$alloc..vec..Vec$LT$syn..attr..Attribute$GT$$GT$17he33e25539d5885aeE', symObjAddr: 0x8E80, symBinAddr: 0xB2200, symSize: 0xD0 }
  - { offsetInCU: 0x25BBC, offset: 0x3D8522, size: 0x8, addend: 0x0, symName: '__ZN4core3ptr64drop_in_place$LT$alloc..vec..Vec$LT$syn..item..TraitItem$GT$$GT$17hff1cc01ccae80d7aE', symObjAddr: 0x8F50, symBinAddr: 0xB22D0, symSize: 0x80 }
  - { offsetInCU: 0x25E74, offset: 0x3D87DA, size: 0x8, addend: 0x0, symName: '__ZN4core3ptr65drop_in_place$LT$alloc..vec..Vec$LT$proc_macro..TokenTree$GT$$GT$17h8abd81f8596dbc59E', symObjAddr: 0x8FD0, symBinAddr: 0xB2350, symSize: 0x110 }
  - { offsetInCU: 0x2626C, offset: 0x3D8BD2, size: 0x8, addend: 0x0, symName: '__ZN4core3ptr65drop_in_place$LT$core..option..Option$LT$syn..expr..Label$GT$$GT$17hac599686b33ef364E', symObjAddr: 0x90E0, symBinAddr: 0xB2460, symSize: 0x30 }
  - { offsetInCU: 0x263A6, offset: 0x3D8D0C, size: 0x8, addend: 0x0, symName: '__ZN4core3ptr65drop_in_place$LT$core..option..Option$LT$syn..path..QSelf$GT$$GT$17h0b8dd5cda5f2cd6bE', symObjAddr: 0x9110, symBinAddr: 0xB2490, symSize: 0x50 }
  - { offsetInCU: 0x26527, offset: 0x3D8E8D, size: 0x8, addend: 0x0, symName: '__ZN4core3ptr65drop_in_place$LT$core..option..Option$LT$syn..stmt..Block$GT$$GT$17h74f2551ed24e2d27E', symObjAddr: 0x9160, symBinAddr: 0xB24E0, symSize: 0xD0 }
  - { offsetInCU: 0x267FC, offset: 0x3D9162, size: 0x8, addend: 0x0, symName: '__ZN4core3ptr66drop_in_place$LT$alloc..vec..Vec$LT$syn..item..ForeignItem$GT$$GT$17h1f176e04eaf5e0dfE', symObjAddr: 0x9230, symBinAddr: 0xB25B0, symSize: 0x80 }
  - { offsetInCU: 0x26AB4, offset: 0x3D941A, size: 0x8, addend: 0x0, symName: '__ZN4core3ptr66drop_in_place$LT$core..option..Option$LT$syn..pat..PatRest$GT$$GT$17hd5bb3bc28aa78ac1E', symObjAddr: 0x92B0, symBinAddr: 0xB2630, symSize: 0xE0 }
  - { offsetInCU: 0x26DDC, offset: 0x3D9742, size: 0x8, addend: 0x0, symName: '__ZN4core3ptr67drop_in_place$LT$alloc..boxed..Box$LT$syn..expr..FieldValue$GT$$GT$17hbbcf67a9d5e9863cE', symObjAddr: 0x9390, symBinAddr: 0xB2710, symSize: 0x140 }
  - { offsetInCU: 0x27364, offset: 0x3D9CCA, size: 0x8, addend: 0x0, symName: '__ZN4core3ptr70drop_in_place$LT$core..option..Option$LT$syn..ty..BareVariadic$GT$$GT$17h79a19250e9f043b1E', symObjAddr: 0x94D0, symBinAddr: 0xB2850, symSize: 0x100 }
  - { offsetInCU: 0x277CF, offset: 0x3DA135, size: 0x8, addend: 0x0, symName: '__ZN4core3ptr72drop_in_place$LT$alloc..boxed..Box$LT$syn..path..GenericArgument$GT$$GT$17hfd308d374af4273dE', symObjAddr: 0x95D0, symBinAddr: 0xB2950, symSize: 0x2B0 }
  - { offsetInCU: 0x281E0, offset: 0x3DAB46, size: 0x8, addend: 0x0, symName: '__ZN4core3ptr72drop_in_place$LT$core..option..Option$LT$syn..lifetime..Lifetime$GT$$GT$17h49cce6f02f9c0590E', symObjAddr: 0x9880, symBinAddr: 0xB2C00, symSize: 0x30 }
  - { offsetInCU: 0x282FB, offset: 0x3DAC61, size: 0x8, addend: 0x0, symName: '__ZN4core3ptr73drop_in_place$LT$alloc..boxed..Box$LT$syn..generics..GenericParam$GT$$GT$17ha26d5d145af4b203E', symObjAddr: 0x98B0, symBinAddr: 0xB2C30, symSize: 0x80 }
  - { offsetInCU: 0x28471, offset: 0x3DADD7, size: 0x8, addend: 0x0, symName: '__ZN4core3ptr75drop_in_place$LT$alloc..boxed..Box$LT$syn..generics..TypeParamBound$GT$$GT$17h129a4e927e5eb81bE', symObjAddr: 0x9930, symBinAddr: 0xB2CB0, symSize: 0x1B0 }
  - { offsetInCU: 0x28B8F, offset: 0x3DB4F5, size: 0x8, addend: 0x0, symName: '__ZN4core3ptr75drop_in_place$LT$core..option..Option$LT$syn..generics..WhereClause$GT$$GT$17haaf63f327098cdccE', symObjAddr: 0x9AE0, symBinAddr: 0xB2E60, symSize: 0x90 }
  - { offsetInCU: 0x28E83, offset: 0x3DB7E9, size: 0x8, addend: 0x0, symName: '__ZN4core3ptr86drop_in_place$LT$syn..punctuated..Punctuated$LT$syn..pat..Pat$C$syn..token..Or$GT$$GT$17h9cc6b5f7b6d3a555E', symObjAddr: 0x9B70, symBinAddr: 0xB2EF0, symSize: 0x120 }
  - { offsetInCU: 0x292FE, offset: 0x3DBC64, size: 0x8, addend: 0x0, symName: '__ZN4core3ptr87drop_in_place$LT$core..option..Option$LT$alloc..boxed..Box$LT$syn..pat..Pat$GT$$GT$$GT$17h51cd48973d96c411E', symObjAddr: 0x9C90, symBinAddr: 0xB3010, symSize: 0x50 }
  - { offsetInCU: 0x2946E, offset: 0x3DBDD4, size: 0x8, addend: 0x0, symName: '__ZN4core3ptr87drop_in_place$LT$core..option..Option$LT$alloc..boxed..Box$LT$syn..ty..Type$GT$$GT$$GT$17h103a25a4a7d7374eE', symObjAddr: 0x9CE0, symBinAddr: 0xB3060, symSize: 0x50 }
  - { offsetInCU: 0x295DE, offset: 0x3DBF44, size: 0x8, addend: 0x0, symName: '__ZN4core3ptr89drop_in_place$LT$core..option..Option$LT$alloc..boxed..Box$LT$syn..expr..Expr$GT$$GT$$GT$17h9e02509cb2345d44E', symObjAddr: 0x9D30, symBinAddr: 0xB30B0, symSize: 0x50 }
  - { offsetInCU: 0x2978C, offset: 0x3DC0F2, size: 0x8, addend: 0x0, symName: '__ZN4core3ptr89drop_in_place$LT$syn..punctuated..Punctuated$LT$syn..pat..Pat$C$syn..token..Comma$GT$$GT$17hd3a83c36827f210aE', symObjAddr: 0x9D80, symBinAddr: 0xB3100, symSize: 0x120 }
  - { offsetInCU: 0x29C5C, offset: 0x3DC5C2, size: 0x8, addend: 0x0, symName: '__ZN4core3ptr90drop_in_place$LT$core..option..Option$LT$alloc..boxed..Box$LT$syn..data..Field$GT$$GT$$GT$17h9f1aee8cd56c6727E', symObjAddr: 0x9EA0, symBinAddr: 0xB3220, symSize: 0x1B0 }
  - { offsetInCU: 0x2A34E, offset: 0x3DCCB4, size: 0x8, addend: 0x0, symName: '__ZN4core3ptr90drop_in_place$LT$core..option..Option$LT$alloc..boxed..Box$LT$syn..item..FnArg$GT$$GT$$GT$17h8635495a730dc0bfE', symObjAddr: 0xA050, symBinAddr: 0xB33D0, symSize: 0x50 }
  - { offsetInCU: 0x2A4EF, offset: 0x3DCE55, size: 0x8, addend: 0x0, symName: '__ZN4core3ptr91drop_in_place$LT$syn..punctuated..Punctuated$LT$syn..expr..Expr$C$syn..token..Comma$GT$$GT$17h6f261e8f470c81f2E', symObjAddr: 0xA0A0, symBinAddr: 0xB3420, symSize: 0x120 }
  - { offsetInCU: 0x2A97D, offset: 0x3DD2E3, size: 0x8, addend: 0x0, symName: '__ZN4core3ptr92drop_in_place$LT$core..option..Option$LT$$LP$syn..token..As$C$proc_macro2..Ident$RP$$GT$$GT$17h12a88945917fa9dbE', symObjAddr: 0xA1C0, symBinAddr: 0xB3540, symSize: 0x30 }
  - { offsetInCU: 0x2AAD6, offset: 0x3DD43C, size: 0x8, addend: 0x0, symName: '__ZN4core3ptr92drop_in_place$LT$core..option..Option$LT$alloc..boxed..Box$LT$syn..data..Variant$GT$$GT$$GT$17hb65f9b5d99f448afE', symObjAddr: 0xA1F0, symBinAddr: 0xB3570, symSize: 0x170 }
  - { offsetInCU: 0x2B102, offset: 0x3DDA68, size: 0x8, addend: 0x0, symName: '__ZN4core3ptr92drop_in_place$LT$syn..punctuated..Punctuated$LT$syn..item..FnArg$C$syn..token..Comma$GT$$GT$17h7de33e77eabaea82E', symObjAddr: 0xA360, symBinAddr: 0xB36E0, symSize: 0x130 }
  - { offsetInCU: 0x2B568, offset: 0x3DDECE, size: 0x8, addend: 0x0, symName: '__ZN4core3ptr94drop_in_place$LT$syn..punctuated..Punctuated$LT$syn..data..Variant$C$syn..token..Comma$GT$$GT$17h310cd79aba4529ccE', symObjAddr: 0xA490, symBinAddr: 0xB3810, symSize: 0xE0 }
  - { offsetInCU: 0x2B8C8, offset: 0x3DE22E, size: 0x8, addend: 0x0, symName: '__ZN4core3ptr94drop_in_place$LT$syn..punctuated..Punctuated$LT$syn..item..UseTree$C$syn..token..Comma$GT$$GT$17h6236871345889df7E', symObjAddr: 0xA570, symBinAddr: 0xB38F0, symSize: 0xF0 }
  - { offsetInCU: 0x2BC0E, offset: 0x3DE574, size: 0x8, addend: 0x0, symName: '__ZN4core3ptr94drop_in_place$LT$syn..punctuated..Punctuated$LT$syn..pat..FieldPat$C$syn..token..Comma$GT$$GT$17h43ec25af986ef674E', symObjAddr: 0xA660, symBinAddr: 0xB39E0, symSize: 0xF0 }
  - { offsetInCU: 0x2BF0D, offset: 0x3DE873, size: 0x8, addend: 0x0, symName: '__ZN4core3ptr94drop_in_place$LT$syn..punctuated..Punctuated$LT$syn..ty..BareFnArg$C$syn..token..Comma$GT$$GT$17h7ba4c699ee390ebaE', symObjAddr: 0xA750, symBinAddr: 0xB3AD0, symSize: 0xF0 }
  - { offsetInCU: 0x2C20E, offset: 0x3DEB74, size: 0x8, addend: 0x0, symName: '__ZN4core3ptr96drop_in_place$LT$core..option..Option$LT$alloc..boxed..Box$LT$syn..path..PathSegment$GT$$GT$$GT$17h5de12a5a0f9e9ef9E', symObjAddr: 0xA840, symBinAddr: 0xB3BC0, symSize: 0x1A0 }
  - { offsetInCU: 0x2C8CF, offset: 0x3DF235, size: 0x8, addend: 0x0, symName: '__ZN4core3ptr97drop_in_place$LT$syn..punctuated..Punctuated$LT$syn..expr..FieldValue$C$syn..token..Comma$GT$$GT$17hf58d0a9a09266ab3E', symObjAddr: 0xA9E0, symBinAddr: 0xB3D60, symSize: 0xF0 }
  - { offsetInCU: 0x2CC48, offset: 0x3DF5AE, size: 0x8, addend: 0x0, symName: '__ZN4core3ptr98drop_in_place$LT$syn..punctuated..Punctuated$LT$syn..lifetime..Lifetime$C$syn..token..Plus$GT$$GT$17h600c2b78f78fd2b9E', symObjAddr: 0xAAD0, symBinAddr: 0xB3E50, symSize: 0xD0 }
  - { offsetInCU: 0x341C3, offset: 0x3E6B29, size: 0x8, addend: 0x0, symName: __ZN3syn4item7parsing18parse_rest_of_item17ha26e4acb71011a19E, symObjAddr: 0xAC50, symBinAddr: 0xB3FD0, symSize: 0x4180 }
  - { offsetInCU: 0x40A15, offset: 0x3F337B, size: 0x8, addend: 0x0, symName: __ZN3syn4item7parsing12parse_macro217hf6831cf9afcd0b55E, symObjAddr: 0xFC80, symBinAddr: 0xB9000, symSize: 0x8D0 }
  - { offsetInCU: 0x42562, offset: 0x3F4EC8, size: 0x8, addend: 0x0, symName: __ZN3syn4item7parsing14parse_item_use17h48b98338f7612e03E, symObjAddr: 0x10550, symBinAddr: 0xB98D0, symSize: 0x580 }
  - { offsetInCU: 0x42FF2, offset: 0x3F5958, size: 0x8, addend: 0x0, symName: __ZN3syn4item7parsing14parse_use_tree17h3459008fc061dfc3E, symObjAddr: 0x10AD0, symBinAddr: 0xB9E50, symSize: 0xEA0 }
  - { offsetInCU: 0x45A6B, offset: 0x3F83D1, size: 0x8, addend: 0x0, symName: __ZN3syn4item7parsing14peek_signature17h6fcb1c3323e18828E, symObjAddr: 0x11970, symBinAddr: 0xBACF0, symSize: 0x3E0 }
  - { offsetInCU: 0x46DC5, offset: 0x3F972B, size: 0x8, addend: 0x0, symName: __ZN3syn4item7parsing16parse_rest_of_fn17hd069073817548a43E, symObjAddr: 0x11D50, symBinAddr: 0xBB0D0, symSize: 0x540 }
  - { offsetInCU: 0x47AF3, offset: 0x3FA459, size: 0x8, addend: 0x0, symName: __ZN3syn4item7parsing24parse_fn_arg_or_variadic17h2531ec3f9cf1e73bE, symObjAddr: 0x12290, symBinAddr: 0xBB610, symSize: 0xE20 }
  - { offsetInCU: 0x4A789, offset: 0x3FD0EF, size: 0x8, addend: 0x0, symName: __ZN3syn4item7parsing13parse_fn_args17hef126a53be169aa0E, symObjAddr: 0x130B0, symBinAddr: 0xBC430, symSize: 0x7D0 }
  - { offsetInCU: 0x4B5E7, offset: 0x3FDF4D, size: 0x8, addend: 0x0, symName: __ZN3syn4item7parsing23parse_foreign_item_type17h802ebbe8ec67c11cE, symObjAddr: 0x13880, symBinAddr: 0xBCC00, symSize: 0x450 }
  - { offsetInCU: 0x4BCC2, offset: 0x3FE628, size: 0x8, addend: 0x0, symName: __ZN3syn4item7parsing15parse_item_type17ha00b234c7541791bE, symObjAddr: 0x13CD0, symBinAddr: 0xBD050, symSize: 0x5F0 }
  - { offsetInCU: 0x4C6FA, offset: 0x3FF060, size: 0x8, addend: 0x0, symName: __ZN3syn4item7parsing26parse_trait_or_trait_alias17h869d58d0d710f92eE, symObjAddr: 0x142C0, symBinAddr: 0xBD640, symSize: 0x880 }
  - { offsetInCU: 0x4E052, offset: 0x4009B8, size: 0x8, addend: 0x0, symName: __ZN3syn4item7parsing19parse_rest_of_trait17hcfaaa983dae95479E, symObjAddr: 0x14B40, symBinAddr: 0xBDEC0, symSize: 0xB90 }
  - { offsetInCU: 0x4F83B, offset: 0x4021A1, size: 0x8, addend: 0x0, symName: __ZN3syn4item7parsing26parse_start_of_trait_alias17h30b54fc2a2c484e2E, symObjAddr: 0x156D0, symBinAddr: 0xBEA50, symSize: 0x4B0 }
  - { offsetInCU: 0x502A2, offset: 0x402C08, size: 0x8, addend: 0x0, symName: __ZN3syn4item7parsing25parse_rest_of_trait_alias17hc3ff4bca2b4f24ffE, symObjAddr: 0x15B80, symBinAddr: 0xBEF00, symSize: 0x670 }
  - { offsetInCU: 0x50F39, offset: 0x40389F, size: 0x8, addend: 0x0, symName: __ZN3syn4item7parsing21parse_trait_item_type17h346cdab40b3c4f88E, symObjAddr: 0x161F0, symBinAddr: 0xBF570, symSize: 0x4D0 }
  - { offsetInCU: 0x5172C, offset: 0x404092, size: 0x8, addend: 0x0, symName: __ZN3syn4item7parsing10parse_impl17hdf5cb50f2b1c1c56E, symObjAddr: 0x166C0, symBinAddr: 0xBFA40, symSize: 0x1700 }
  - { offsetInCU: 0x5359C, offset: 0x405F02, size: 0x8, addend: 0x0, symName: __ZN3syn4item7parsing18parse_impl_item_fn17h8007279fefb73b29E, symObjAddr: 0x17DC0, symBinAddr: 0xC1140, symSize: 0x770 }
  - { offsetInCU: 0x542F1, offset: 0x406C57, size: 0x8, addend: 0x0, symName: __ZN3syn4item7parsing20parse_impl_item_type17hcc883153d233f1e7E, symObjAddr: 0x18530, symBinAddr: 0xC18B0, symSize: 0x49B }
  - { offsetInCU: 0x59A10, offset: 0x40C376, size: 0x8, addend: 0x0, symName: __ZN5alloc5alloc15exchange_malloc17h9a87608d0224859dE, symObjAddr: 0xAC10, symBinAddr: 0xB3F90, symSize: 0x40 }
  - { offsetInCU: 0x5D6A0, offset: 0x410006, size: 0x8, addend: 0x0, symName: '__ZN5alloc3vec16Vec$LT$T$C$A$GT$4push17h8559c656bf8cfdb7E', symObjAddr: 0xABA0, symBinAddr: 0xB3F20, symSize: 0x70 }
  - { offsetInCU: 0x5E760, offset: 0x4110C6, size: 0x8, addend: 0x0, symName: __ZN3syn4item7parsing16FlexibleItemType5parse17ha5c93c92e512e37dE, symObjAddr: 0xEDD0, symBinAddr: 0xB8150, symSize: 0xA20 }
  - { offsetInCU: 0x5F48A, offset: 0x411DF0, size: 0x8, addend: 0x0, symName: __ZN3syn4item7parsing16FlexibleItemType21parse_optional_bounds17h6e18b1c664fc4e1bE, symObjAddr: 0xF7F0, symBinAddr: 0xB8B70, symSize: 0x340 }
  - { offsetInCU: 0x5FB93, offset: 0x4124F9, size: 0x8, addend: 0x0, symName: __ZN3syn4item7parsing16FlexibleItemType25parse_optional_definition17hf229b9de02f2ada3E, symObjAddr: 0xFB30, symBinAddr: 0xB8EB0, symSize: 0x150 }
  - { offsetInCU: 0x55F, offset: 0x41E1B3, size: 0x8, addend: 0x0, symName: '__ZN3syn8generics8printing80_$LT$impl$u20$quote..to_tokens..ToTokens$u20$for$u20$syn..generics..Generics$GT$9to_tokens17hd4a2af35b3698905E', symObjAddr: 0xF4D0, symBinAddr: 0xCF810, symSize: 0x220 }
  - { offsetInCU: 0xD61, offset: 0x41E9B5, size: 0x8, addend: 0x0, symName: '__ZN3syn8generics8printing84_$LT$impl$u20$quote..to_tokens..ToTokens$u20$for$u20$syn..generics..ImplGenerics$GT$9to_tokens17h4ab04c178462d76aE', symObjAddr: 0xF6F0, symBinAddr: 0xCFA30, symSize: 0x650 }
  - { offsetInCU: 0x21BC, offset: 0x41FE10, size: 0x8, addend: 0x0, symName: '__ZN3syn8generics8printing84_$LT$impl$u20$quote..to_tokens..ToTokens$u20$for$u20$syn..generics..TypeGenerics$GT$9to_tokens17h0622ece7b6d3cd84E', symObjAddr: 0xFD40, symBinAddr: 0xD0080, symSize: 0x360 }
  - { offsetInCU: 0x2D4E, offset: 0x4209A2, size: 0x8, addend: 0x0, symName: '__ZN3syn8generics8printing86_$LT$impl$u20$quote..to_tokens..ToTokens$u20$for$u20$syn..generics..BoundLifetimes$GT$9to_tokens17hd15a7a043033bd7bE', symObjAddr: 0x10110, symBinAddr: 0xD03E0, symSize: 0x160 }
  - { offsetInCU: 0x3254, offset: 0x420EA8, size: 0x8, addend: 0x0, symName: '__ZN3syn8generics8printing81_$LT$impl$u20$quote..to_tokens..ToTokens$u20$for$u20$syn..generics..TypeParam$GT$9to_tokens17had0957bfff47d1f9E', symObjAddr: 0x10490, symBinAddr: 0xD0540, symSize: 0x1E0 }
  - { offsetInCU: 0x3990, offset: 0x4215E4, size: 0x8, addend: 0x0, symName: '__ZN3syn8generics8printing82_$LT$impl$u20$quote..to_tokens..ToTokens$u20$for$u20$syn..generics..TraitBound$GT$9to_tokens17h377c6cef550ec1bfE', symObjAddr: 0x10670, symBinAddr: 0xD0720, symSize: 0x200 }
  - { offsetInCU: 0x3FE0, offset: 0x421C34, size: 0x8, addend: 0x0, symName: '__ZN3syn8generics8printing82_$LT$impl$u20$quote..to_tokens..ToTokens$u20$for$u20$syn..generics..ConstParam$GT$9to_tokens17hee7453fb2d0e238bE', symObjAddr: 0x108A0, symBinAddr: 0xD0920, symSize: 0x1D0 }
  - { offsetInCU: 0x4381, offset: 0x421FD5, size: 0x8, addend: 0x0, symName: '__ZN3syn8generics8printing83_$LT$impl$u20$quote..to_tokens..ToTokens$u20$for$u20$syn..generics..WhereClause$GT$9to_tokens17h909a6fdfe3e31442E', symObjAddr: 0x10A70, symBinAddr: 0xD0AF0, symSize: 0x120 }
  - { offsetInCU: 0x492B, offset: 0x42257F, size: 0x8, addend: 0x0, symName: '__ZN3syn8generics8printing85_$LT$impl$u20$quote..to_tokens..ToTokens$u20$for$u20$syn..generics..PredicateType$GT$9to_tokens17h8b4ffaf01fdc18f1E', symObjAddr: 0x10CF0, symBinAddr: 0xD0C10, symSize: 0x320 }
  - { offsetInCU: 0x5424, offset: 0x423078, size: 0x8, addend: 0x0, symName: '__ZN3syn8generics7parsing71_$LT$impl$u20$syn..parse..Parse$u20$for$u20$syn..generics..Generics$GT$5parse17h41c098435a7be9a0E', symObjAddr: 0x8920, symBinAddr: 0xC9840, symSize: 0x1100 }
  - { offsetInCU: 0x7ADD, offset: 0x425731, size: 0x8, addend: 0x0, symName: '__ZN3syn8generics7parsing76_$LT$impl$u20$syn..parse..Parse$u20$for$u20$syn..generics..LifetimeParam$GT$5parse17h5d8a6609f02a7b5bE', symObjAddr: 0xA520, symBinAddr: 0xCA940, symSize: 0x800 }
  - { offsetInCU: 0x8B61, offset: 0x4267B5, size: 0x8, addend: 0x0, symName: '__ZN3syn8generics7parsing77_$LT$impl$u20$syn..parse..Parse$u20$for$u20$syn..generics..BoundLifetimes$GT$5parse17hc16736384c98dd41E', symObjAddr: 0xAD20, symBinAddr: 0xCB140, symSize: 0x6A0 }
  - { offsetInCU: 0x98CB, offset: 0x42751F, size: 0x8, addend: 0x0, symName: '__ZN3syn8generics7parsing72_$LT$impl$u20$syn..parse..Parse$u20$for$u20$syn..generics..TypeParam$GT$5parse17h9c7ea43a33d4115aE', symObjAddr: 0xB3C0, symBinAddr: 0xCB7E0, symSize: 0x770 }
  - { offsetInCU: 0xAA07, offset: 0x42865B, size: 0x8, addend: 0x0, symName: '__ZN3syn8generics7parsing77_$LT$impl$u20$syn..parse..Parse$u20$for$u20$syn..generics..TypeParamBound$GT$5parse17h25e623b87f173e12E', symObjAddr: 0xBB30, symBinAddr: 0xCBF50, symSize: 0x1250 }
  - { offsetInCU: 0xE3A9, offset: 0x42BFFD, size: 0x8, addend: 0x0, symName: '__ZN3syn8generics7parsing73_$LT$impl$u20$syn..parse..Parse$u20$for$u20$syn..generics..TraitBound$GT$5parse17h690a689474a7b206E', symObjAddr: 0xD250, symBinAddr: 0xCD670, symSize: 0x6B0 }
  - { offsetInCU: 0xF2E5, offset: 0x42CF39, size: 0x8, addend: 0x0, symName: '__ZN3syn8generics7parsing73_$LT$impl$u20$syn..parse..Parse$u20$for$u20$syn..generics..ConstParam$GT$5parse17h7d6405b926c1a94eE', symObjAddr: 0xD9E0, symBinAddr: 0xCDD20, symSize: 0x970 }
  - { offsetInCU: 0x107A5, offset: 0x42E3F9, size: 0x8, addend: 0x0, symName: '__ZN3syn8generics7parsing74_$LT$impl$u20$syn..parse..Parse$u20$for$u20$syn..generics..WhereClause$GT$5parse17hd23830e75acad64dE', symObjAddr: 0xE350, symBinAddr: 0xCE690, symSize: 0x3B0 }
  - { offsetInCU: 0x1125C, offset: 0x42EEB0, size: 0x8, addend: 0x0, symName: '__ZN3syn8generics7parsing77_$LT$impl$u20$syn..parse..Parse$u20$for$u20$syn..generics..WherePredicate$GT$5parse17h70c29b17190c019cE', symObjAddr: 0xE700, symBinAddr: 0xCEA40, symSize: 0xDD0 }
  - { offsetInCU: 0x13162, offset: 0x430DB6, size: 0x8, addend: 0x0, symName: '__ZN74_$LT$syn..generics..GenericParam$u20$as$u20$quote..to_tokens..ToTokens$GT$9to_tokens17h597acb1380a7ac96E', symObjAddr: 0x11010, symBinAddr: 0xD0F30, symSize: 0x270 }
  - { offsetInCU: 0x187CC, offset: 0x436420, size: 0x8, addend: 0x0, symName: '__ZN3syn3gen5clone78_$LT$impl$u20$core..clone..Clone$u20$for$u20$syn..generics..WherePredicate$GT$5clone17hbd6bd00e6f5532d2E', symObjAddr: 0x125F0, symBinAddr: 0xD1CA0, symSize: 0x100 }
  - { offsetInCU: 0x18A68, offset: 0x4366BC, size: 0x8, addend: 0x0, symName: '__ZN3syn3gen5clone74_$LT$impl$u20$core..clone..Clone$u20$for$u20$syn..generics..ConstParam$GT$5clone17h8bc67da494863269E', symObjAddr: 0x11720, symBinAddr: 0xD11A0, symSize: 0x1F0 }
  - { offsetInCU: 0x18CFD, offset: 0x436951, size: 0x8, addend: 0x0, symName: '__ZN3syn3gen5clone77_$LT$impl$u20$core..clone..Clone$u20$for$u20$syn..generics..LifetimeParam$GT$5clone17hbf15cdf236adaa10E', symObjAddr: 0x11A90, symBinAddr: 0xD1390, symSize: 0x130 }
  - { offsetInCU: 0x18F22, offset: 0x436B76, size: 0x8, addend: 0x0, symName: '__ZN3syn3gen5clone77_$LT$impl$u20$core..clone..Clone$u20$for$u20$syn..generics..PredicateType$GT$5clone17h013cd41ed055cad0E', symObjAddr: 0x11CA0, symBinAddr: 0xD14C0, symSize: 0x150 }
  - { offsetInCU: 0x190B5, offset: 0x436D09, size: 0x8, addend: 0x0, symName: '__ZN3syn3gen5clone73_$LT$impl$u20$core..clone..Clone$u20$for$u20$syn..generics..TypeParam$GT$5clone17hddca7c785eaee5f9E', symObjAddr: 0x11F40, symBinAddr: 0xD1610, symSize: 0x2B0 }
  - { offsetInCU: 0x1957D, offset: 0x4371D1, size: 0x8, addend: 0x0, symName: '__ZN3syn3gen5clone78_$LT$impl$u20$core..clone..Clone$u20$for$u20$syn..generics..TypeParamBound$GT$5clone17hc8c21b6b99f4be95E', symObjAddr: 0x121F0, symBinAddr: 0xD18C0, symSize: 0x3E0 }
  - { offsetInCU: 0x1C8AB, offset: 0x43A4FF, size: 0x8, addend: 0x0, symName: '__ZN4core3ptr100drop_in_place$LT$core..option..Option$LT$alloc..boxed..Box$LT$syn..path..GenericArgument$GT$$GT$$GT$17h3a7c44b9e57fe410E', symObjAddr: 0x360, symBinAddr: 0xC1E90, symSize: 0x50 }
  - { offsetInCU: 0x1CAB6, offset: 0x43A70A, size: 0x8, addend: 0x0, symName: '__ZN4core3ptr100drop_in_place$LT$syn..punctuated..Punctuated$LT$syn..path..PathSegment$C$syn..token..PathSep$GT$$GT$17he41ef64147139591E', symObjAddr: 0x3B0, symBinAddr: 0xC1EE0, symSize: 0x170 }
  - { offsetInCU: 0x1D12F, offset: 0x43AD83, size: 0x8, addend: 0x0, symName: '__ZN4core3ptr103drop_in_place$LT$core..option..Option$LT$alloc..boxed..Box$LT$syn..generics..TypeParamBound$GT$$GT$$GT$17hb14e4384a768542bE', symObjAddr: 0x520, symBinAddr: 0xC2050, symSize: 0x50 }
  - { offsetInCU: 0x1D359, offset: 0x43AFAD, size: 0x8, addend: 0x0, symName: '__ZN4core3ptr103drop_in_place$LT$core..option..Option$LT$alloc..boxed..Box$LT$syn..generics..WherePredicate$GT$$GT$$GT$17he190813f4819c5dbE', symObjAddr: 0x570, symBinAddr: 0xC20A0, symSize: 0xD0 }
  - { offsetInCU: 0x1D6ED, offset: 0x43B341, size: 0x8, addend: 0x0, symName: '__ZN4core3ptr103drop_in_place$LT$syn..punctuated..Punctuated$LT$syn..generics..GenericParam$C$syn..token..Comma$GT$$GT$17h0c6077a988036760E.llvm.1278538373299499664', symObjAddr: 0x640, symBinAddr: 0xC2170, symSize: 0xF0 }
  - { offsetInCU: 0x1DB4D, offset: 0x43B7A1, size: 0x8, addend: 0x0, symName: '__ZN4core3ptr104drop_in_place$LT$syn..punctuated..Punctuated$LT$syn..generics..TypeParamBound$C$syn..token..Plus$GT$$GT$17h724e4d9d1d65061aE', symObjAddr: 0x730, symBinAddr: 0xC2260, symSize: 0x170 }
  - { offsetInCU: 0x1E0E7, offset: 0x43BD3B, size: 0x8, addend: 0x0, symName: '__ZN4core3ptr105drop_in_place$LT$syn..punctuated..Punctuated$LT$syn..generics..WherePredicate$C$syn..token..Comma$GT$$GT$17h18b5b213db2a676cE', symObjAddr: 0x8A0, symBinAddr: 0xC23D0, symSize: 0x80 }
  - { offsetInCU: 0x1E3E7, offset: 0x43C03B, size: 0x8, addend: 0x0, symName: '__ZN4core3ptr34drop_in_place$LT$syn..lit..Lit$GT$17hd64dde89a262341dE', symObjAddr: 0x920, symBinAddr: 0xC2450, symSize: 0x120 }
  - { offsetInCU: 0x1E913, offset: 0x43C567, size: 0x8, addend: 0x0, symName: '__ZN4core3ptr34drop_in_place$LT$syn..pat..Pat$GT$17hf88887878261d63cE', symObjAddr: 0xA40, symBinAddr: 0xC2570, symSize: 0x1100 }
  - { offsetInCU: 0x22FAB, offset: 0x440BFF, size: 0x8, addend: 0x0, symName: '__ZN4core3ptr34drop_in_place$LT$syn..ty..Type$GT$17ha80dd29b0f9d4a3fE.llvm.1278538373299499664', symObjAddr: 0x1B40, symBinAddr: 0xC3670, symSize: 0x520 }
  - { offsetInCU: 0x2463F, offset: 0x442293, size: 0x8, addend: 0x0, symName: '__ZN4core3ptr36drop_in_place$LT$syn..expr..Expr$GT$17h10f573b40ddd212cE.llvm.1278538373299499664', symObjAddr: 0x2060, symBinAddr: 0xC3B90, symSize: 0x2840 }
  - { offsetInCU: 0x2E71D, offset: 0x44C371, size: 0x8, addend: 0x0, symName: '__ZN4core3ptr36drop_in_place$LT$syn..mac..Macro$GT$17hc3b30a7a8a34cc2dE', symObjAddr: 0x48A0, symBinAddr: 0xC63D0, symSize: 0x40 }
  - { offsetInCU: 0x2E7D3, offset: 0x44C427, size: 0x8, addend: 0x0, symName: '__ZN4core3ptr36drop_in_place$LT$syn..path..Path$GT$17h75c74a97d5f0a03bE', symObjAddr: 0x48E0, symBinAddr: 0xC6410, symSize: 0x280 }
  - { offsetInCU: 0x2F280, offset: 0x44CED4, size: 0x8, addend: 0x0, symName: '__ZN4core3ptr37drop_in_place$LT$syn..stmt..Block$GT$17h6fc3254d5688f2c3E', symObjAddr: 0x4B60, symBinAddr: 0xC6690, symSize: 0xD0 }
  - { offsetInCU: 0x2F557, offset: 0x44D1AB, size: 0x8, addend: 0x0, symName: '__ZN4core3ptr38drop_in_place$LT$syn..expr..Member$GT$17h6b0cf84594ce6bceE', symObjAddr: 0x4C30, symBinAddr: 0xC6760, symSize: 0x30 }
  - { offsetInCU: 0x2F653, offset: 0x44D2A7, size: 0x8, addend: 0x0, symName: '__ZN4core3ptr39drop_in_place$LT$proc_macro2..Ident$GT$17ha28fef9769e267d9E.llvm.1278538373299499664', symObjAddr: 0x4C60, symBinAddr: 0xC6790, symSize: 0x30 }
  - { offsetInCU: 0x2F730, offset: 0x44D384, size: 0x8, addend: 0x0, symName: '__ZN4core3ptr40drop_in_place$LT$syn..ty..ReturnType$GT$17h035a612e322b6510E', symObjAddr: 0x4C90, symBinAddr: 0xC67C0, symSize: 0x50 }
  - { offsetInCU: 0x2F8A0, offset: 0x44D4F4, size: 0x8, addend: 0x0, symName: '__ZN4core3ptr41drop_in_place$LT$syn..expr..ExprConst$GT$17hbfe19d5d621e6836E', symObjAddr: 0x4CE0, symBinAddr: 0xC6810, symSize: 0x180 }
  - { offsetInCU: 0x2FE8D, offset: 0x44DAE1, size: 0x8, addend: 0x0, symName: '__ZN4core3ptr44drop_in_place$LT$syn..lifetime..Lifetime$GT$17he37fa474f03de7b1E.llvm.1278538373299499664', symObjAddr: 0x4EA0, symBinAddr: 0xC6990, symSize: 0x30 }
  - { offsetInCU: 0x30005, offset: 0x44DC59, size: 0x8, addend: 0x0, symName: '__ZN4core3ptr44drop_in_place$LT$syn..parse..ParseBuffer$GT$17hf792ff20095efc35E', symObjAddr: 0x4ED0, symBinAddr: 0xC69C0, symSize: 0x70 }
  - { offsetInCU: 0x3041C, offset: 0x44E070, size: 0x8, addend: 0x0, symName: '__ZN4core3ptr45drop_in_place$LT$proc_macro2..TokenStream$GT$17h76e8e68015f4924dE.llvm.1278538373299499664', symObjAddr: 0x4F40, symBinAddr: 0xC6A30, symSize: 0x140 }
  - { offsetInCU: 0x308B6, offset: 0x44E50A, size: 0x8, addend: 0x0, symName: '__ZN4core3ptr45drop_in_place$LT$syn..generics..TypeParam$GT$17h188a459c1380ac75E.llvm.1278538373299499664', symObjAddr: 0x5080, symBinAddr: 0xC6B70, symSize: 0x230 }
  - { offsetInCU: 0x3112B, offset: 0x44ED7F, size: 0x8, addend: 0x0, symName: '__ZN4core3ptr45drop_in_place$LT$syn..path..PathArguments$GT$17hdbc6dfac6f3334e6E', symObjAddr: 0x52B0, symBinAddr: 0xC6DA0, symSize: 0x190 }
  - { offsetInCU: 0x315FB, offset: 0x44F24F, size: 0x8, addend: 0x0, symName: '__ZN4core3ptr46drop_in_place$LT$syn..generics..ConstParam$GT$17h7a9b900b2b88bfcdE.llvm.1278538373299499664', symObjAddr: 0x5440, symBinAddr: 0xC6F30, symSize: 0x150 }
  - { offsetInCU: 0x31A1F, offset: 0x44F673, size: 0x8, addend: 0x0, symName: '__ZN4core3ptr46drop_in_place$LT$syn..generics..TraitBound$GT$17hbfe193394d805ef5E.llvm.1278538373299499664', symObjAddr: 0x5590, symBinAddr: 0xC7080, symSize: 0x130 }
  - { offsetInCU: 0x31EC2, offset: 0x44FB16, size: 0x8, addend: 0x0, symName: '__ZN4core3ptr47drop_in_place$LT$syn..path..GenericArgument$GT$17h593f06d6ca9a94d2E', symObjAddr: 0x56C0, symBinAddr: 0xC71B0, symSize: 0x4A0 }
  - { offsetInCU: 0x32FC8, offset: 0x450C1C, size: 0x8, addend: 0x0, symName: '__ZN4core3ptr49drop_in_place$LT$syn..generics..LifetimeParam$GT$17h3a8835ab294bfd16E.llvm.1278538373299499664', symObjAddr: 0x5B60, symBinAddr: 0xC7650, symSize: 0xF0 }
  - { offsetInCU: 0x333FE, offset: 0x451052, size: 0x8, addend: 0x0, symName: '__ZN4core3ptr50drop_in_place$LT$syn..generics..TypeParamBound$GT$17h81b4325b5900604dE', symObjAddr: 0x5CC0, symBinAddr: 0xC7740, symSize: 0xA0 }
  - { offsetInCU: 0x33564, offset: 0x4511B8, size: 0x8, addend: 0x0, symName: '__ZN4core3ptr58drop_in_place$LT$alloc..vec..Vec$LT$syn..expr..Arm$GT$$GT$17hff9224aadf2233b8E', symObjAddr: 0x5DA0, symBinAddr: 0xC77E0, symSize: 0xD0 }
  - { offsetInCU: 0x33824, offset: 0x451478, size: 0x8, addend: 0x0, symName: '__ZN4core3ptr59drop_in_place$LT$alloc..boxed..Box$LT$syn..pat..Pat$GT$$GT$17h622b0c1db21c0742E', symObjAddr: 0x5E70, symBinAddr: 0xC78B0, symSize: 0x50 }
  - { offsetInCU: 0x3397D, offset: 0x4515D1, size: 0x8, addend: 0x0, symName: '__ZN4core3ptr59drop_in_place$LT$alloc..boxed..Box$LT$syn..ty..Type$GT$$GT$17hde45fa887dd8b605E', symObjAddr: 0x5EC0, symBinAddr: 0xC7900, symSize: 0x50 }
  - { offsetInCU: 0x33AD6, offset: 0x45172A, size: 0x8, addend: 0x0, symName: '__ZN4core3ptr61drop_in_place$LT$alloc..boxed..Box$LT$syn..expr..Expr$GT$$GT$17hbb42293869113942E', symObjAddr: 0x5F10, symBinAddr: 0xC7950, symSize: 0x50 }
  - { offsetInCU: 0x33CAB, offset: 0x4518FF, size: 0x8, addend: 0x0, symName: '__ZN4core3ptr61drop_in_place$LT$syn..path..ParenthesizedGenericArguments$GT$17h6b1731382637937fE', symObjAddr: 0x5F60, symBinAddr: 0xC79A0, symSize: 0x170 }
  - { offsetInCU: 0x342A1, offset: 0x451EF5, size: 0x8, addend: 0x0, symName: '__ZN4core3ptr62drop_in_place$LT$syn..path..AngleBracketedGenericArguments$GT$17hf8fa172f007a1473E', symObjAddr: 0x60F0, symBinAddr: 0xC7B10, symSize: 0x120 }
  - { offsetInCU: 0x346EC, offset: 0x452340, size: 0x8, addend: 0x0, symName: '__ZN4core3ptr63drop_in_place$LT$alloc..boxed..Box$LT$syn..lit..LitRepr$GT$$GT$17h6e3a82ea4de7b84cE', symObjAddr: 0x6210, symBinAddr: 0xC7C30, symSize: 0x60 }
  - { offsetInCU: 0x349F3, offset: 0x452647, size: 0x8, addend: 0x0, symName: '__ZN4core3ptr64drop_in_place$LT$alloc..boxed..Box$LT$syn..pat..FieldPat$GT$$GT$17hbf8f4867d84bd25dE', symObjAddr: 0x6270, symBinAddr: 0xC7C90, symSize: 0x140 }
  - { offsetInCU: 0x350F4, offset: 0x452D48, size: 0x8, addend: 0x0, symName: '__ZN4core3ptr64drop_in_place$LT$alloc..boxed..Box$LT$syn..ty..BareFnArg$GT$$GT$17h6be6354eb1d1364dE', symObjAddr: 0x63B0, symBinAddr: 0xC7DD0, symSize: 0x140 }
  - { offsetInCU: 0x3567D, offset: 0x4532D1, size: 0x8, addend: 0x0, symName: '__ZN4core3ptr64drop_in_place$LT$alloc..vec..Vec$LT$syn..attr..Attribute$GT$$GT$17he33e25539d5885aeE.llvm.1278538373299499664', symObjAddr: 0x64F0, symBinAddr: 0xC7F10, symSize: 0xD0 }
  - { offsetInCU: 0x35971, offset: 0x4535C5, size: 0x8, addend: 0x0, symName: '__ZN4core3ptr65drop_in_place$LT$alloc..vec..Vec$LT$proc_macro..TokenTree$GT$$GT$17h8abd81f8596dbc59E', symObjAddr: 0x65E0, symBinAddr: 0xC7FE0, symSize: 0x110 }
  - { offsetInCU: 0x35D69, offset: 0x4539BD, size: 0x8, addend: 0x0, symName: '__ZN4core3ptr65drop_in_place$LT$core..option..Option$LT$syn..expr..Label$GT$$GT$17hac599686b33ef364E', symObjAddr: 0x66F0, symBinAddr: 0xC80F0, symSize: 0x30 }
  - { offsetInCU: 0x35EA3, offset: 0x453AF7, size: 0x8, addend: 0x0, symName: '__ZN4core3ptr66drop_in_place$LT$core..option..Option$LT$syn..pat..PatRest$GT$$GT$17hd5bb3bc28aa78ac1E', symObjAddr: 0x6720, symBinAddr: 0xC8120, symSize: 0xE0 }
  - { offsetInCU: 0x361CB, offset: 0x453E1F, size: 0x8, addend: 0x0, symName: '__ZN4core3ptr67drop_in_place$LT$alloc..boxed..Box$LT$syn..expr..FieldValue$GT$$GT$17hbbcf67a9d5e9863cE', symObjAddr: 0x6800, symBinAddr: 0xC8200, symSize: 0x140 }
  - { offsetInCU: 0x36734, offset: 0x454388, size: 0x8, addend: 0x0, symName: '__ZN4core3ptr68drop_in_place$LT$alloc..boxed..Box$LT$syn..path..PathSegment$GT$$GT$17h99aaf90b3262bc1eE', symObjAddr: 0x6940, symBinAddr: 0xC8340, symSize: 0x1B0 }
  - { offsetInCU: 0x36E42, offset: 0x454A96, size: 0x8, addend: 0x0, symName: '__ZN4core3ptr70drop_in_place$LT$core..option..Option$LT$syn..ty..BareVariadic$GT$$GT$17h79a19250e9f043b1E', symObjAddr: 0x6AF0, symBinAddr: 0xC84F0, symSize: 0x100 }
  - { offsetInCU: 0x372AD, offset: 0x454F01, size: 0x8, addend: 0x0, symName: '__ZN4core3ptr72drop_in_place$LT$alloc..boxed..Box$LT$syn..path..GenericArgument$GT$$GT$17hfd308d374af4273dE', symObjAddr: 0x6BF0, symBinAddr: 0xC85F0, symSize: 0x2B0 }
  - { offsetInCU: 0x37C65, offset: 0x4558B9, size: 0x8, addend: 0x0, symName: '__ZN4core3ptr72drop_in_place$LT$core..option..Option$LT$syn..lifetime..Lifetime$GT$$GT$17h49cce6f02f9c0590E', symObjAddr: 0x6EA0, symBinAddr: 0xC88A0, symSize: 0x30 }
  - { offsetInCU: 0x37D80, offset: 0x4559D4, size: 0x8, addend: 0x0, symName: '__ZN4core3ptr73drop_in_place$LT$alloc..boxed..Box$LT$syn..generics..GenericParam$GT$$GT$17ha26d5d145af4b203E.llvm.1278538373299499664', symObjAddr: 0x6ED0, symBinAddr: 0xC88D0, symSize: 0x80 }
  - { offsetInCU: 0x37EF6, offset: 0x455B4A, size: 0x8, addend: 0x0, symName: '__ZN4core3ptr75drop_in_place$LT$alloc..boxed..Box$LT$syn..generics..TypeParamBound$GT$$GT$17h129a4e927e5eb81bE', symObjAddr: 0x6F50, symBinAddr: 0xC8950, symSize: 0x1B0 }
  - { offsetInCU: 0x38614, offset: 0x456268, size: 0x8, addend: 0x0, symName: '__ZN4core3ptr86drop_in_place$LT$syn..punctuated..Punctuated$LT$syn..pat..Pat$C$syn..token..Or$GT$$GT$17h9cc6b5f7b6d3a555E', symObjAddr: 0x71B0, symBinAddr: 0xC8B00, symSize: 0x120 }
  - { offsetInCU: 0x38A8F, offset: 0x4566E3, size: 0x8, addend: 0x0, symName: '__ZN4core3ptr87drop_in_place$LT$core..option..Option$LT$alloc..boxed..Box$LT$syn..pat..Pat$GT$$GT$$GT$17h51cd48973d96c411E', symObjAddr: 0x72D0, symBinAddr: 0xC8C20, symSize: 0x50 }
  - { offsetInCU: 0x38BFF, offset: 0x456853, size: 0x8, addend: 0x0, symName: '__ZN4core3ptr87drop_in_place$LT$core..option..Option$LT$alloc..boxed..Box$LT$syn..ty..Type$GT$$GT$$GT$17h103a25a4a7d7374eE', symObjAddr: 0x7320, symBinAddr: 0xC8C70, symSize: 0x50 }
  - { offsetInCU: 0x38D6F, offset: 0x4569C3, size: 0x8, addend: 0x0, symName: '__ZN4core3ptr89drop_in_place$LT$core..option..Option$LT$alloc..boxed..Box$LT$syn..expr..Expr$GT$$GT$$GT$17h9e02509cb2345d44E', symObjAddr: 0x7370, symBinAddr: 0xC8CC0, symSize: 0x50 }
  - { offsetInCU: 0x38F1D, offset: 0x456B71, size: 0x8, addend: 0x0, symName: '__ZN4core3ptr89drop_in_place$LT$syn..punctuated..Punctuated$LT$syn..pat..Pat$C$syn..token..Comma$GT$$GT$17hd3a83c36827f210aE', symObjAddr: 0x73C0, symBinAddr: 0xC8D10, symSize: 0x120 }
  - { offsetInCU: 0x393AF, offset: 0x457003, size: 0x8, addend: 0x0, symName: '__ZN4core3ptr89drop_in_place$LT$syn..punctuated..Punctuated$LT$syn..ty..Type$C$syn..token..Comma$GT$$GT$17he030c4b7f24a5848E', symObjAddr: 0x74E0, symBinAddr: 0xC8E30, symSize: 0x120 }
  - { offsetInCU: 0x3982A, offset: 0x45747E, size: 0x8, addend: 0x0, symName: '__ZN4core3ptr90drop_in_place$LT$core..option..Option$LT$syn..path..AngleBracketedGenericArguments$GT$$GT$17ha307713a95a0671eE', symObjAddr: 0x7600, symBinAddr: 0xC8F50, symSize: 0x130 }
  - { offsetInCU: 0x39CCC, offset: 0x457920, size: 0x8, addend: 0x0, symName: '__ZN4core3ptr91drop_in_place$LT$syn..punctuated..Punctuated$LT$syn..expr..Expr$C$syn..token..Comma$GT$$GT$17h6f261e8f470c81f2E', symObjAddr: 0x7730, symBinAddr: 0xC9080, symSize: 0x120 }
  - { offsetInCU: 0x3A15A, offset: 0x457DAE, size: 0x8, addend: 0x0, symName: '__ZN4core3ptr94drop_in_place$LT$syn..punctuated..Punctuated$LT$syn..pat..FieldPat$C$syn..token..Comma$GT$$GT$17h43ec25af986ef674E', symObjAddr: 0x7850, symBinAddr: 0xC91A0, symSize: 0xF0 }
  - { offsetInCU: 0x3A459, offset: 0x4580AD, size: 0x8, addend: 0x0, symName: '__ZN4core3ptr94drop_in_place$LT$syn..punctuated..Punctuated$LT$syn..ty..BareFnArg$C$syn..token..Comma$GT$$GT$17h7ba4c699ee390ebaE', symObjAddr: 0x7940, symBinAddr: 0xC9290, symSize: 0xF0 }
  - { offsetInCU: 0x3A75A, offset: 0x4583AE, size: 0x8, addend: 0x0, symName: '__ZN4core3ptr96drop_in_place$LT$core..option..Option$LT$alloc..boxed..Box$LT$syn..path..PathSegment$GT$$GT$$GT$17h5de12a5a0f9e9ef9E', symObjAddr: 0x7A30, symBinAddr: 0xC9380, symSize: 0xA0 }
  - { offsetInCU: 0x3A9D9, offset: 0x45862D, size: 0x8, addend: 0x0, symName: '__ZN4core3ptr97drop_in_place$LT$syn..punctuated..Punctuated$LT$syn..expr..FieldValue$C$syn..token..Comma$GT$$GT$17hf58d0a9a09266ab3E', symObjAddr: 0x7AD0, symBinAddr: 0xC9420, symSize: 0xF0 }
  - { offsetInCU: 0x3ACD6, offset: 0x45892A, size: 0x8, addend: 0x0, symName: '__ZN4core3ptr98drop_in_place$LT$alloc..vec..Vec$LT$$LP$syn..path..GenericArgument$C$syn..token..Comma$RP$$GT$$GT$17h0dee282a026d5a38E', symObjAddr: 0x7BC0, symBinAddr: 0xC9510, symSize: 0xD0 }
  - { offsetInCU: 0x3B016, offset: 0x458C6A, size: 0x8, addend: 0x0, symName: '__ZN4core3ptr98drop_in_place$LT$syn..punctuated..Punctuated$LT$syn..lifetime..Lifetime$C$syn..token..Plus$GT$$GT$17h600c2b78f78fd2b9E.llvm.1278538373299499664', symObjAddr: 0x7C90, symBinAddr: 0xC95E0, symSize: 0xD0 }
  - { offsetInCU: 0x3F5C7, offset: 0x45D21B, size: 0x8, addend: 0x0, symName: '__ZN48_$LT$T$u20$as$u20$core..clone..CloneToUninit$GT$15clone_to_uninit17hc598a6c9534b5b4fE', symObjAddr: 0x220, symBinAddr: 0xC1D50, symSize: 0x140 }
  - { offsetInCU: 0x43632, offset: 0x461286, size: 0x8, addend: 0x0, symName: '__ZN52_$LT$$RF$T$u20$as$u20$quote..to_tokens..ToTokens$GT$9to_tokens17h105a97bdbe744db0E', symObjAddr: 0x7E10, symBinAddr: 0xC96B0, symSize: 0x190 }
  - { offsetInCU: 0x45112, offset: 0x462D66, size: 0x8, addend: 0x0, symName: '__ZN3syn8generics7parsing47_$LT$impl$u20$syn..generics..TypeParamBound$GT$14parse_multiple17h33e6fbea8f6e153bE', symObjAddr: 0xCD80, symBinAddr: 0xCD1A0, symSize: 0x4D0 }
  - { offsetInCU: 0xF56, offset: 0x46DAAA, size: 0x8, addend: 0x0, symName: '__ZN60_$LT$syn..token..Underscore$u20$as$u20$syn..token..Token$GT$4peek17haec0894d2e05662cE', symObjAddr: 0xAD0, symBinAddr: 0xD1FF0, symSize: 0x1F0 }
  - { offsetInCU: 0x180C, offset: 0x46E360, size: 0x8, addend: 0x0, symName: '__ZN55_$LT$syn..token..Paren$u20$as$u20$syn..token..Token$GT$4peek17h57c2615f1c93669bE', symObjAddr: 0xF20, symBinAddr: 0xD2300, symSize: 0xA0 }
  - { offsetInCU: 0x1A0D, offset: 0x46E561, size: 0x8, addend: 0x0, symName: '__ZN55_$LT$syn..token..Brace$u20$as$u20$syn..token..Token$GT$4peek17h73c23ce965996843E', symObjAddr: 0xFC0, symBinAddr: 0xD23A0, symSize: 0xA0 }
  - { offsetInCU: 0x1C0E, offset: 0x46E762, size: 0x8, addend: 0x0, symName: '__ZN57_$LT$syn..token..Bracket$u20$as$u20$syn..token..Token$GT$4peek17h872c9349a83dc2aaE', symObjAddr: 0x1060, symBinAddr: 0xD2440, symSize: 0xA0 }
  - { offsetInCU: 0x1E3C, offset: 0x46E990, size: 0x8, addend: 0x0, symName: '__ZN52_$LT$syn..token..As$u20$as$u20$syn..parse..Parse$GT$5parse17h8279010a971a5b00E', symObjAddr: 0x1350, symBinAddr: 0xD24E0, symSize: 0x60 }
  - { offsetInCU: 0x1EF1, offset: 0x46EA45, size: 0x8, addend: 0x0, symName: '__ZN55_$LT$syn..token..Async$u20$as$u20$syn..token..Token$GT$4peek17hec3d206c6ab2af4dE', symObjAddr: 0x14D0, symBinAddr: 0xD2540, symSize: 0x20 }
  - { offsetInCU: 0x1F28, offset: 0x46EA7C, size: 0x8, addend: 0x0, symName: '__ZN54_$LT$syn..token..Auto$u20$as$u20$syn..token..Token$GT$4peek17h78aa4921345bdad2E', symObjAddr: 0x15F0, symBinAddr: 0xD2560, symSize: 0x20 }
  - { offsetInCU: 0x1FE6, offset: 0x46EB3A, size: 0x8, addend: 0x0, symName: '__ZN55_$LT$syn..token..Const$u20$as$u20$syn..parse..Parse$GT$5parse17h4d7f78de797b5b9dE', symObjAddr: 0x1B30, symBinAddr: 0xD2580, symSize: 0x60 }
  - { offsetInCU: 0x206E, offset: 0x46EBC2, size: 0x8, addend: 0x0, symName: '__ZN55_$LT$syn..token..Const$u20$as$u20$syn..token..Token$GT$4peek17h377299e8bbcdfde8E', symObjAddr: 0x1B90, symBinAddr: 0xD25E0, symSize: 0x20 }
  - { offsetInCU: 0x20A5, offset: 0x46EBF9, size: 0x8, addend: 0x0, symName: '__ZN55_$LT$syn..token..Crate$u20$as$u20$syn..token..Token$GT$4peek17h41bdfdc9696d7a0cE', symObjAddr: 0x1DD0, symBinAddr: 0xD2600, symSize: 0x20 }
  - { offsetInCU: 0x20DC, offset: 0x46EC30, size: 0x8, addend: 0x0, symName: '__ZN53_$LT$syn..token..Dyn$u20$as$u20$syn..parse..Parse$GT$5parse17ha918c5aa2904e233E', symObjAddr: 0x20D0, symBinAddr: 0xD2620, symSize: 0x60 }
  - { offsetInCU: 0x2164, offset: 0x46ECB8, size: 0x8, addend: 0x0, symName: '__ZN54_$LT$syn..token..Else$u20$as$u20$syn..parse..Parse$GT$5parse17h45e080b72d435097E', symObjAddr: 0x21F0, symBinAddr: 0xD2680, symSize: 0x60 }
  - { offsetInCU: 0x21EC, offset: 0x46ED40, size: 0x8, addend: 0x0, symName: '__ZN54_$LT$syn..token..Enum$u20$as$u20$syn..token..Token$GT$4peek17h5b346af13c7af550E', symObjAddr: 0x2370, symBinAddr: 0xD26E0, symSize: 0x20 }
  - { offsetInCU: 0x2223, offset: 0x46ED77, size: 0x8, addend: 0x0, symName: '__ZN56_$LT$syn..token..Extern$u20$as$u20$syn..token..Token$GT$4peek17h4d12b1045a886c67E', symObjAddr: 0x2490, symBinAddr: 0xD2700, symSize: 0x20 }
  - { offsetInCU: 0x225A, offset: 0x46EDAE, size: 0x8, addend: 0x0, symName: '__ZN52_$LT$syn..token..Fn$u20$as$u20$syn..token..Token$GT$4peek17h72891b673cf8306dE', symObjAddr: 0x26D0, symBinAddr: 0xD2720, symSize: 0x20 }
  - { offsetInCU: 0x2291, offset: 0x46EDE5, size: 0x8, addend: 0x0, symName: '__ZN53_$LT$syn..token..For$u20$as$u20$syn..parse..Parse$GT$5parse17h685510a59deff120E', symObjAddr: 0x2790, symBinAddr: 0xD2740, symSize: 0x60 }
  - { offsetInCU: 0x2319, offset: 0x46EE6D, size: 0x8, addend: 0x0, symName: '__ZN54_$LT$syn..token..Impl$u20$as$u20$syn..token..Token$GT$4peek17h2c90e0f4bad3b8a1E', symObjAddr: 0x2A30, symBinAddr: 0xD27A0, symSize: 0x20 }
  - { offsetInCU: 0x237D, offset: 0x46EED1, size: 0x8, addend: 0x0, symName: '__ZN52_$LT$syn..token..In$u20$as$u20$syn..parse..Parse$GT$5parse17h1c18d23d989fcf2fE', symObjAddr: 0x2AF0, symBinAddr: 0xD27C0, symSize: 0x60 }
  - { offsetInCU: 0x2432, offset: 0x46EF86, size: 0x8, addend: 0x0, symName: '__ZN55_$LT$syn..token..Macro$u20$as$u20$syn..token..Token$GT$4peek17he0611b0349443e81E', symObjAddr: 0x2EB0, symBinAddr: 0xD2820, symSize: 0x20 }
  - { offsetInCU: 0x2496, offset: 0x46EFEA, size: 0x8, addend: 0x0, symName: '__ZN53_$LT$syn..token..Mod$u20$as$u20$syn..token..Token$GT$4peek17h74a4826dd47e3e6eE', symObjAddr: 0x30F0, symBinAddr: 0xD2840, symSize: 0x20 }
  - { offsetInCU: 0x24CD, offset: 0x46F021, size: 0x8, addend: 0x0, symName: '__ZN63_$LT$syn..token..Move$u20$as$u20$quote..to_tokens..ToTokens$GT$9to_tokens17hfc53a9310558a724E', symObjAddr: 0x3130, symBinAddr: 0xD2860, symSize: 0x80 }
  - { offsetInCU: 0x2603, offset: 0x46F157, size: 0x8, addend: 0x0, symName: '__ZN54_$LT$syn..token..Move$u20$as$u20$syn..token..Token$GT$4peek17h7d01db15b0371cceE', symObjAddr: 0x3210, symBinAddr: 0xD28E0, symSize: 0x20 }
  - { offsetInCU: 0x263A, offset: 0x46F18E, size: 0x8, addend: 0x0, symName: '__ZN62_$LT$syn..token..Mut$u20$as$u20$quote..to_tokens..ToTokens$GT$9to_tokens17h65e7aec4e00a824aE', symObjAddr: 0x3250, symBinAddr: 0xD2900, symSize: 0x80 }
  - { offsetInCU: 0x2770, offset: 0x46F2C4, size: 0x8, addend: 0x0, symName: '__ZN53_$LT$syn..token..Mut$u20$as$u20$syn..token..Token$GT$4peek17h98e42bddef3e0a22E', symObjAddr: 0x3330, symBinAddr: 0xD2980, symSize: 0x20 }
  - { offsetInCU: 0x27D4, offset: 0x46F328, size: 0x8, addend: 0x0, symName: '__ZN53_$LT$syn..token..Ref$u20$as$u20$syn..token..Token$GT$4peek17h3da8beae293f82f6E', symObjAddr: 0x37B0, symBinAddr: 0xD29A0, symSize: 0x20 }
  - { offsetInCU: 0x280B, offset: 0x46F35F, size: 0x8, addend: 0x0, symName: '__ZN58_$LT$syn..token..SelfType$u20$as$u20$syn..token..Token$GT$4peek17hc1ce6132e604b21cE', symObjAddr: 0x39F0, symBinAddr: 0xD29C0, symSize: 0x20 }
  - { offsetInCU: 0x2842, offset: 0x46F396, size: 0x8, addend: 0x0, symName: '__ZN59_$LT$syn..token..SelfValue$u20$as$u20$syn..token..Token$GT$4peek17hff0104bc0d4d51baE', symObjAddr: 0x3B10, symBinAddr: 0xD29E0, symSize: 0x20 }
  - { offsetInCU: 0x2879, offset: 0x46F3CD, size: 0x8, addend: 0x0, symName: '__ZN56_$LT$syn..token..Static$u20$as$u20$syn..parse..Parse$GT$5parse17h4347f0d5ba2722bcE', symObjAddr: 0x3BD0, symBinAddr: 0xD2A00, symSize: 0x60 }
  - { offsetInCU: 0x2901, offset: 0x46F455, size: 0x8, addend: 0x0, symName: '__ZN56_$LT$syn..token..Static$u20$as$u20$syn..token..Token$GT$4peek17h5ec219d5f1c91b93E', symObjAddr: 0x3C30, symBinAddr: 0xD2A60, symSize: 0x20 }
  - { offsetInCU: 0x2938, offset: 0x46F48C, size: 0x8, addend: 0x0, symName: '__ZN56_$LT$syn..token..Struct$u20$as$u20$syn..token..Token$GT$4peek17h5edcf684e7ec6370E', symObjAddr: 0x3D50, symBinAddr: 0xD2A80, symSize: 0x20 }
  - { offsetInCU: 0x296F, offset: 0x46F4C3, size: 0x8, addend: 0x0, symName: '__ZN55_$LT$syn..token..Super$u20$as$u20$syn..token..Token$GT$4peek17ha609af2487b5bfa9E', symObjAddr: 0x3E70, symBinAddr: 0xD2AA0, symSize: 0x20 }
  - { offsetInCU: 0x29A6, offset: 0x46F4FA, size: 0x8, addend: 0x0, symName: '__ZN55_$LT$syn..token..Trait$u20$as$u20$syn..token..Token$GT$4peek17hcfd44ad9738ca41fE', symObjAddr: 0x3F90, symBinAddr: 0xD2AC0, symSize: 0x20 }
  - { offsetInCU: 0x2A0A, offset: 0x46F55E, size: 0x8, addend: 0x0, symName: '__ZN53_$LT$syn..token..Try$u20$as$u20$syn..token..Token$GT$4peek17h34e6cdd2fa15187cE', symObjAddr: 0x40B0, symBinAddr: 0xD2AE0, symSize: 0x20 }
  - { offsetInCU: 0x2A41, offset: 0x46F595, size: 0x8, addend: 0x0, symName: '__ZN54_$LT$syn..token..Type$u20$as$u20$syn..token..Token$GT$4peek17hca9c5e9bd0dd640dE', symObjAddr: 0x41D0, symBinAddr: 0xD2B00, symSize: 0x20 }
  - { offsetInCU: 0x2A78, offset: 0x46F5CC, size: 0x8, addend: 0x0, symName: '__ZN55_$LT$syn..token..Union$u20$as$u20$syn..token..Token$GT$4peek17hfe4da05fa09964ffE', symObjAddr: 0x4410, symBinAddr: 0xD2B20, symSize: 0x20 }
  - { offsetInCU: 0x2ADC, offset: 0x46F630, size: 0x8, addend: 0x0, symName: '__ZN56_$LT$syn..token..Unsafe$u20$as$u20$syn..parse..Parse$GT$5parse17h9c545ae7480a661bE', symObjAddr: 0x44D0, symBinAddr: 0xD2B40, symSize: 0x60 }
  - { offsetInCU: 0x2B64, offset: 0x46F6B8, size: 0x8, addend: 0x0, symName: '__ZN56_$LT$syn..token..Unsafe$u20$as$u20$syn..token..Token$GT$4peek17h8fab9a2efb3ee4c7E', symObjAddr: 0x4530, symBinAddr: 0xD2BA0, symSize: 0x20 }
  - { offsetInCU: 0x2B9B, offset: 0x46F6EF, size: 0x8, addend: 0x0, symName: '__ZN53_$LT$syn..token..Use$u20$as$u20$syn..token..Token$GT$4peek17h370b8b005f72ed4aE', symObjAddr: 0x4770, symBinAddr: 0xD2BC0, symSize: 0x20 }
  - { offsetInCU: 0x2C2C, offset: 0x46F780, size: 0x8, addend: 0x0, symName: '__ZN53_$LT$syn..token..And$u20$as$u20$syn..token..Token$GT$4peek17h4ed3a008d858f163E', symObjAddr: 0x4C90, symBinAddr: 0xD2BE0, symSize: 0x20 }
  - { offsetInCU: 0x2C90, offset: 0x46F7E4, size: 0x8, addend: 0x0, symName: '__ZN55_$LT$syn..token..Colon$u20$as$u20$syn..parse..Parse$GT$5parse17h3063cb3e3ebc34a9E', symObjAddr: 0x5000, symBinAddr: 0xD2C00, symSize: 0x50 }
  - { offsetInCU: 0x2CF3, offset: 0x46F847, size: 0x8, addend: 0x0, symName: '__ZN55_$LT$syn..token..Colon$u20$as$u20$syn..token..Token$GT$4peek17he80a5de17f24d5edE', symObjAddr: 0x5050, symBinAddr: 0xD2C50, symSize: 0x20 }
  - { offsetInCU: 0x2D2A, offset: 0x46F87E, size: 0x8, addend: 0x0, symName: '__ZN55_$LT$syn..token..Comma$u20$as$u20$syn..parse..Parse$GT$5parse17hb823018bf88ed6f3E', symObjAddr: 0x50A0, symBinAddr: 0xD2C70, symSize: 0x50 }
  - { offsetInCU: 0x2D8D, offset: 0x46F8E1, size: 0x8, addend: 0x0, symName: '__ZN55_$LT$syn..token..Comma$u20$as$u20$syn..token..Token$GT$4peek17h26e1aacea26147a4E', symObjAddr: 0x50F0, symBinAddr: 0xD2CC0, symSize: 0x20 }
  - { offsetInCU: 0x2DF1, offset: 0x46F945, size: 0x8, addend: 0x0, symName: '__ZN53_$LT$syn..token..Dot$u20$as$u20$syn..token..Token$GT$4peek17h3281d72a1d61740fE', symObjAddr: 0x5230, symBinAddr: 0xD2CE0, symSize: 0x20 }
  - { offsetInCU: 0x2E55, offset: 0x46F9A9, size: 0x8, addend: 0x0, symName: '__ZN56_$LT$syn..token..DotDot$u20$as$u20$syn..token..Token$GT$4peek17ha63e1c7cbaa5f07fE', symObjAddr: 0x52D0, symBinAddr: 0xD2D00, symSize: 0x20 }
  - { offsetInCU: 0x2E8C, offset: 0x46F9E0, size: 0x8, addend: 0x0, symName: '__ZN59_$LT$syn..token..DotDotDot$u20$as$u20$syn..token..Token$GT$4peek17hecd050b6405d9aa0E', symObjAddr: 0x5390, symBinAddr: 0xD2D20, symSize: 0x20 }
  - { offsetInCU: 0x2EC3, offset: 0x46FA17, size: 0x8, addend: 0x0, symName: '__ZN58_$LT$syn..token..DotDotEq$u20$as$u20$syn..token..Token$GT$4peek17h9d3b070298fd3201E', symObjAddr: 0x5450, symBinAddr: 0xD2D40, symSize: 0x20 }
  - { offsetInCU: 0x2F27, offset: 0x46FA7B, size: 0x8, addend: 0x0, symName: '__ZN52_$LT$syn..token..Eq$u20$as$u20$syn..parse..Parse$GT$5parse17h48510f330b26a2a8E', symObjAddr: 0x54A0, symBinAddr: 0xD2D60, symSize: 0x50 }
  - { offsetInCU: 0x2F8A, offset: 0x46FADE, size: 0x8, addend: 0x0, symName: '__ZN52_$LT$syn..token..Eq$u20$as$u20$syn..token..Token$GT$4peek17ha038331794dca79cE', symObjAddr: 0x54F0, symBinAddr: 0xD2DB0, symSize: 0x20 }
  - { offsetInCU: 0x2FC1, offset: 0x46FB15, size: 0x8, addend: 0x0, symName: '__ZN52_$LT$syn..token..Gt$u20$as$u20$syn..parse..Parse$GT$5parse17h685c1b33fdd3602dE', symObjAddr: 0x5720, symBinAddr: 0xD2DD0, symSize: 0x50 }
  - { offsetInCU: 0x3024, offset: 0x46FB78, size: 0x8, addend: 0x0, symName: '__ZN52_$LT$syn..token..Gt$u20$as$u20$syn..token..Token$GT$4peek17h28c72eb0c24e86bbE', symObjAddr: 0x5770, symBinAddr: 0xD2E20, symSize: 0x20 }
  - { offsetInCU: 0x305B, offset: 0x46FBAF, size: 0x8, addend: 0x0, symName: '__ZN52_$LT$syn..token..Lt$u20$as$u20$syn..token..Token$GT$4peek17hb09f0ef836a6a928E', symObjAddr: 0x5950, symBinAddr: 0xD2E40, symSize: 0x20 }
  - { offsetInCU: 0x30BF, offset: 0x46FC13, size: 0x8, addend: 0x0, symName: '__ZN53_$LT$syn..token..Not$u20$as$u20$syn..parse..Parse$GT$5parse17h0e126244166e20f8E', symObjAddr: 0x5B80, symBinAddr: 0xD2E60, symSize: 0x50 }
  - { offsetInCU: 0x3122, offset: 0x46FC76, size: 0x8, addend: 0x0, symName: '__ZN53_$LT$syn..token..Not$u20$as$u20$syn..token..Token$GT$4peek17h20b2571300a10670E', symObjAddr: 0x5BD0, symBinAddr: 0xD2EB0, symSize: 0x20 }
  - { offsetInCU: 0x3159, offset: 0x46FCAD, size: 0x8, addend: 0x0, symName: '__ZN52_$LT$syn..token..Or$u20$as$u20$syn..token..Token$GT$4peek17haf7e709e752de2d5E', symObjAddr: 0x5C70, symBinAddr: 0xD2ED0, symSize: 0x20 }
  - { offsetInCU: 0x3190, offset: 0x46FCE4, size: 0x8, addend: 0x0, symName: '__ZN57_$LT$syn..token..PathSep$u20$as$u20$syn..token..Token$GT$4peek17h734c6a0408fb2004E', symObjAddr: 0x5E50, symBinAddr: 0xD2EF0, symSize: 0x20 }
  - { offsetInCU: 0x31C7, offset: 0x46FD1B, size: 0x8, addend: 0x0, symName: '__ZN54_$LT$syn..token..Plus$u20$as$u20$syn..parse..Parse$GT$5parse17h6443c7d34616ae6cE', symObjAddr: 0x5FE0, symBinAddr: 0xD2F10, symSize: 0x50 }
  - { offsetInCU: 0x3257, offset: 0x46FDAB, size: 0x8, addend: 0x0, symName: '__ZN55_$LT$syn..token..Pound$u20$as$u20$syn..token..Token$GT$4peek17h12eda5e1e3c78599E', symObjAddr: 0x6170, symBinAddr: 0xD2F60, symSize: 0x20 }
  - { offsetInCU: 0x32BB, offset: 0x46FE0F, size: 0x8, addend: 0x0, symName: '__ZN58_$LT$syn..token..Question$u20$as$u20$syn..token..Token$GT$4peek17hb56a1f23ffedbbd1E', symObjAddr: 0x6210, symBinAddr: 0xD2F80, symSize: 0x20 }
  - { offsetInCU: 0x331F, offset: 0x46FE73, size: 0x8, addend: 0x0, symName: '__ZN54_$LT$syn..token..Semi$u20$as$u20$syn..parse..Parse$GT$5parse17h922f96200e79aea7E', symObjAddr: 0x6300, symBinAddr: 0xD2FA0, symSize: 0x50 }
  - { offsetInCU: 0x3382, offset: 0x46FED6, size: 0x8, addend: 0x0, symName: '__ZN54_$LT$syn..token..Semi$u20$as$u20$syn..token..Token$GT$4peek17h50c830ee30ef3530E', symObjAddr: 0x6350, symBinAddr: 0xD2FF0, symSize: 0x20 }
  - { offsetInCU: 0x33B9, offset: 0x46FF0D, size: 0x8, addend: 0x0, symName: '__ZN55_$LT$syn..token..ShlEq$u20$as$u20$syn..parse..Parse$GT$5parse17hffdec08a82c79705E', symObjAddr: 0x6440, symBinAddr: 0xD3010, symSize: 0x70 }
  - { offsetInCU: 0x346F, offset: 0x46FFC3, size: 0x8, addend: 0x0, symName: '__ZN55_$LT$syn..token..ShrEq$u20$as$u20$syn..parse..Parse$GT$5parse17hd4adaf197d5b2e87E', symObjAddr: 0x65A0, symBinAddr: 0xD3080, symSize: 0x70 }
  - { offsetInCU: 0x3525, offset: 0x470079, size: 0x8, addend: 0x0, symName: '__ZN54_$LT$syn..token..Star$u20$as$u20$syn..token..Token$GT$4peek17h14add24fe44afe84E', symObjAddr: 0x67F0, symBinAddr: 0xD30F0, symSize: 0x20 }
  - { offsetInCU: 0xA9BD, offset: 0x477511, size: 0x8, addend: 0x0, symName: '__ZN4core3ptr45drop_in_place$LT$proc_macro2..TokenStream$GT$17h76e8e68015f4924dE.llvm.2200051395882591536', symObjAddr: 0x720, symBinAddr: 0xD1DA0, symSize: 0x140 }
  - { offsetInCU: 0xAE19, offset: 0x47796D, size: 0x8, addend: 0x0, symName: '__ZN4core3ptr65drop_in_place$LT$alloc..vec..Vec$LT$proc_macro..TokenTree$GT$$GT$17h8abd81f8596dbc59E.llvm.2200051395882591536', symObjAddr: 0x860, symBinAddr: 0xD1EE0, symSize: 0x110 }
  - { offsetInCU: 0x10550, offset: 0x47D0A4, size: 0x8, addend: 0x0, symName: __ZN3syn5token5Group8surround17heff89b5b653592dfE, symObjAddr: 0xE00, symBinAddr: 0xD21E0, symSize: 0x120 }
  - { offsetInCU: 0x10749, offset: 0x47D29D, size: 0x8, addend: 0x0, symName: __ZN3syn5token5Brace8surround17h054d6fe3dea87f3aE, symObjAddr: 0x6FA0, symBinAddr: 0xD3110, symSize: 0x0 }
  - { offsetInCU: 0x109DC, offset: 0x47D530, size: 0x8, addend: 0x0, symName: __ZN3syn5token5Brace8surround17h177bd1fb5200ae88E, symObjAddr: 0x7120, symBinAddr: 0xD3290, symSize: 0x130 }
  - { offsetInCU: 0x10C61, offset: 0x47D7B5, size: 0x8, addend: 0x0, symName: __ZN3syn5token5Brace8surround17h203049190772705cE, symObjAddr: 0x7250, symBinAddr: 0xD33C0, symSize: 0x200 }
  - { offsetInCU: 0x11306, offset: 0x47DE5A, size: 0x8, addend: 0x0, symName: __ZN3syn5token5Brace8surround17h296fbc9aacc45e8dE, symObjAddr: 0x7450, symBinAddr: 0xD35C0, symSize: 0x150 }
  - { offsetInCU: 0x1161B, offset: 0x47E16F, size: 0x8, addend: 0x0, symName: __ZN3syn5token5Brace8surround17h3cd15e098182f2caE, symObjAddr: 0x75A0, symBinAddr: 0xD3710, symSize: 0x220 }
  - { offsetInCU: 0x11AEB, offset: 0x47E63F, size: 0x8, addend: 0x0, symName: __ZN3syn5token5Brace8surround17h4300b93fb32218b3E, symObjAddr: 0x77C0, symBinAddr: 0xD3930, symSize: 0x1A0 }
  - { offsetInCU: 0x1201B, offset: 0x47EB6F, size: 0x8, addend: 0x0, symName: __ZN3syn5token5Brace8surround17h57503f340a17145cE, symObjAddr: 0x7960, symBinAddr: 0xD3AD0, symSize: 0x220 }
  - { offsetInCU: 0x124B8, offset: 0x47F00C, size: 0x8, addend: 0x0, symName: __ZN3syn5token5Brace8surround17h5add098b3195aebcE, symObjAddr: 0x7B80, symBinAddr: 0xD3CF0, symSize: 0x200 }
  - { offsetInCU: 0x12BF9, offset: 0x47F74D, size: 0x8, addend: 0x0, symName: __ZN3syn5token5Brace8surround17h73c06cfc29e80b79E, symObjAddr: 0x80A0, symBinAddr: 0xD3EF0, symSize: 0x200 }
  - { offsetInCU: 0x1329E, offset: 0x47FDF2, size: 0x8, addend: 0x0, symName: __ZN3syn5token5Brace8surround17h81a192f6e1ba3b25E, symObjAddr: 0x82A0, symBinAddr: 0xD40F0, symSize: 0x220 }
  - { offsetInCU: 0x13791, offset: 0x4802E5, size: 0x8, addend: 0x0, symName: __ZN3syn5token5Brace8surround17h885eae5b5f18a737E, symObjAddr: 0x84C0, symBinAddr: 0xD4310, symSize: 0x230 }
  - { offsetInCU: 0x13E44, offset: 0x480998, size: 0x8, addend: 0x0, symName: __ZN3syn5token5Brace8surround17h8dc2f11f6889f4faE, symObjAddr: 0x86F0, symBinAddr: 0xD4540, symSize: 0x0 }
  - { offsetInCU: 0x144E9, offset: 0x48103D, size: 0x8, addend: 0x0, symName: __ZN3syn5token5Brace8surround17h8f64d8eb67893fd1E, symObjAddr: 0x88F0, symBinAddr: 0xD4740, symSize: 0x220 }
  - { offsetInCU: 0x14980, offset: 0x4814D4, size: 0x8, addend: 0x0, symName: __ZN3syn5token5Brace8surround17h9105a8ad28ee9eacE, symObjAddr: 0x8B10, symBinAddr: 0xD4960, symSize: 0x220 }
  - { offsetInCU: 0x14F39, offset: 0x481A8D, size: 0x8, addend: 0x0, symName: __ZN3syn5token5Brace8surround17ha088df153eae400eE, symObjAddr: 0x8D30, symBinAddr: 0xD4B80, symSize: 0x260 }
  - { offsetInCU: 0x156AF, offset: 0x482203, size: 0x8, addend: 0x0, symName: __ZN3syn5token5Brace8surround17hbe01d651f653d8afE, symObjAddr: 0x8F90, symBinAddr: 0xD4DE0, symSize: 0x590 }
  - { offsetInCU: 0x162AD, offset: 0x482E01, size: 0x8, addend: 0x0, symName: __ZN3syn5token5Brace8surround17hc01d55ce5137971fE, symObjAddr: 0x9520, symBinAddr: 0xD5370, symSize: 0x220 }
  - { offsetInCU: 0x1673F, offset: 0x483293, size: 0x8, addend: 0x0, symName: __ZN3syn5token5Brace8surround17hcac216a5876b7b90E, symObjAddr: 0x9740, symBinAddr: 0xD5590, symSize: 0x180 }
  - { offsetInCU: 0x169D2, offset: 0x483526, size: 0x8, addend: 0x0, symName: __ZN3syn5token5Brace8surround17hd179764b3f344586E, symObjAddr: 0x98C0, symBinAddr: 0xD5710, symSize: 0x220 }
  - { offsetInCU: 0x16EDE, offset: 0x483A32, size: 0x8, addend: 0x0, symName: __ZN3syn5token5Brace8surround17hd326a20e95a92237E, symObjAddr: 0x9AE0, symBinAddr: 0xD5930, symSize: 0x470 }
  - { offsetInCU: 0x17AD7, offset: 0x48462B, size: 0x8, addend: 0x0, symName: __ZN3syn5token5Brace8surround17hdec488e9714715d6E, symObjAddr: 0x9F50, symBinAddr: 0xD5DA0, symSize: 0x1B0 }
  - { offsetInCU: 0x18056, offset: 0x484BAA, size: 0x8, addend: 0x0, symName: __ZN3syn5token5Brace8surround17heb4093c015441ecaE, symObjAddr: 0xA100, symBinAddr: 0xD5F50, symSize: 0x200 }
  - { offsetInCU: 0x186BE, offset: 0x485212, size: 0x8, addend: 0x0, symName: __ZN3syn5token7Bracket8surround17h39ed741deec0cbbcE, symObjAddr: 0xA320, symBinAddr: 0xD6150, symSize: 0x130 }
  - { offsetInCU: 0x188A7, offset: 0x4853FB, size: 0x8, addend: 0x0, symName: __ZN3syn5token7Bracket8surround17h4010ca43394a9eecE, symObjAddr: 0xA450, symBinAddr: 0xD6280, symSize: 0x1A0 }
  - { offsetInCU: 0x18E21, offset: 0x485975, size: 0x8, addend: 0x0, symName: __ZN3syn5token7Bracket8surround17h5da20462893431d0E, symObjAddr: 0xA790, symBinAddr: 0xD6420, symSize: 0x130 }
  - { offsetInCU: 0x19038, offset: 0x485B8C, size: 0x8, addend: 0x0, symName: __ZN3syn5token7Bracket8surround17ha5aff01b8fd5a0e1E, symObjAddr: 0xA9F0, symBinAddr: 0xD6550, symSize: 0x160 }
  - { offsetInCU: 0x19270, offset: 0x485DC4, size: 0x8, addend: 0x0, symName: __ZN3syn5token7Bracket8surround17hc7c268cb755c8c19E, symObjAddr: 0xAB50, symBinAddr: 0xD66B0, symSize: 0x150 }
  - { offsetInCU: 0x194D0, offset: 0x486024, size: 0x8, addend: 0x0, symName: __ZN3syn5token7Bracket8surround17hfab81345bbdd2f89E, symObjAddr: 0xACA0, symBinAddr: 0xD6800, symSize: 0x130 }
  - { offsetInCU: 0x196BF, offset: 0x486213, size: 0x8, addend: 0x0, symName: __ZN3syn5token5Paren8surround17h0c12e09da3aa8e34E, symObjAddr: 0xADF0, symBinAddr: 0xD6930, symSize: 0x1F0 }
  - { offsetInCU: 0x199E4, offset: 0x486538, size: 0x8, addend: 0x0, symName: __ZN3syn5token5Paren8surround17h16e802a9434a262fE, symObjAddr: 0xAFE0, symBinAddr: 0xD6B20, symSize: 0x210 }
  - { offsetInCU: 0x1A142, offset: 0x486C96, size: 0x8, addend: 0x0, symName: __ZN3syn5token5Paren8surround17h28d44f6895295df5E, symObjAddr: 0xB1F0, symBinAddr: 0xD6D30, symSize: 0x1FC0 }
  - { offsetInCU: 0x21BE6, offset: 0x48E73A, size: 0x8, addend: 0x0, symName: __ZN3syn5token5Paren8surround17h38eece4b36020a96E, symObjAddr: 0xD1B0, symBinAddr: 0xD8CF0, symSize: 0x1A0 }
  - { offsetInCU: 0x221C2, offset: 0x48ED16, size: 0x8, addend: 0x0, symName: __ZN3syn5token5Paren8surround17h4007655ded83f205E, symObjAddr: 0xD350, symBinAddr: 0xD8E90, symSize: 0x240 }
  - { offsetInCU: 0x2286F, offset: 0x48F3C3, size: 0x8, addend: 0x0, symName: __ZN3syn5token5Paren8surround17h4549913c098e8324E, symObjAddr: 0xD590, symBinAddr: 0xD90D0, symSize: 0x590 }
  - { offsetInCU: 0x234AE, offset: 0x490002, size: 0x8, addend: 0x0, symName: __ZN3syn5token5Paren8surround17h4bee939971f7badbE, symObjAddr: 0xDB20, symBinAddr: 0xD9660, symSize: 0x1A0 }
  - { offsetInCU: 0x239DF, offset: 0x490533, size: 0x8, addend: 0x0, symName: __ZN3syn5token5Paren8surround17h659862ce9b85cd3fE, symObjAddr: 0xDE60, symBinAddr: 0xD9800, symSize: 0x120 }
  - { offsetInCU: 0x23C49, offset: 0x49079D, size: 0x8, addend: 0x0, symName: __ZN3syn5token5Paren8surround17h65f8affeb8dd01f8E, symObjAddr: 0xDF80, symBinAddr: 0xD9920, symSize: 0x260 }
  - { offsetInCU: 0x24376, offset: 0x490ECA, size: 0x8, addend: 0x0, symName: __ZN3syn5token5Paren8surround17h8213022939b4c94aE, symObjAddr: 0xE1E0, symBinAddr: 0xD9B80, symSize: 0x210 }
  - { offsetInCU: 0x249EC, offset: 0x491540, size: 0x8, addend: 0x0, symName: __ZN3syn5token5Paren8surround17h913431f398679f5cE, symObjAddr: 0xE3F0, symBinAddr: 0xD9D90, symSize: 0x460 }
  - { offsetInCU: 0x255B4, offset: 0x492108, size: 0x8, addend: 0x0, symName: __ZN3syn5token5Paren8surround17h94193c74c4feae5eE, symObjAddr: 0xE850, symBinAddr: 0xDA1F0, symSize: 0x120 }
  - { offsetInCU: 0x257D8, offset: 0x49232C, size: 0x8, addend: 0x0, symName: __ZN3syn5token5Paren8surround17hab374b99a74045c1E, symObjAddr: 0xE970, symBinAddr: 0xDA310, symSize: 0x180 }
  - { offsetInCU: 0x25B14, offset: 0x492668, size: 0x8, addend: 0x0, symName: __ZN3syn5token5Paren8surround17hc5047487c1c6e5cbE, symObjAddr: 0xEAF0, symBinAddr: 0xDA490, symSize: 0x130 }
  - { offsetInCU: 0x25CE3, offset: 0x492837, size: 0x8, addend: 0x0, symName: __ZN3syn5token5Paren8surround17hd13f0c3754c57ba1E, symObjAddr: 0xEC20, symBinAddr: 0xDA5C0, symSize: 0x1A0 }
  - { offsetInCU: 0x26236, offset: 0x492D8A, size: 0x8, addend: 0x0, symName: __ZN3syn5token5Paren8surround17hef6358969a27e005E, symObjAddr: 0xF000, symBinAddr: 0xDA760, symSize: 0x1BA }
  - { offsetInCU: 0x15C9, offset: 0x49D739, size: 0x8, addend: 0x0, symName: '__ZN3syn2ty8printing76_$LT$impl$u20$quote..to_tokens..ToTokens$u20$for$u20$syn..ty..TypeBareFn$GT$9to_tokens17h9ada785e3c4ac8beE', symObjAddr: 0xB6E0, symBinAddr: 0xE40F0, symSize: 0x210 }
  - { offsetInCU: 0x1CB1, offset: 0x49DE21, size: 0x8, addend: 0x0, symName: '__ZN3syn2ty8printing78_$LT$impl$u20$quote..to_tokens..ToTokens$u20$for$u20$syn..ty..BareVariadic$GT$9to_tokens17hd841e8aff45580ffE', symObjAddr: 0xBF60, symBinAddr: 0xE4300, symSize: 0x130 }
  - { offsetInCU: 0x1F81, offset: 0x49E0F1, size: 0x8, addend: 0x0, symName: '__ZN3syn2ty7parsing64_$LT$impl$u20$syn..parse..Parse$u20$for$u20$syn..ty..TypePtr$GT$5parse17hb3a631f8b5050729E', symObjAddr: 0x86C0, symBinAddr: 0xE1EB0, symSize: 0x440 }
  - { offsetInCU: 0x2BBC, offset: 0x49ED2C, size: 0x8, addend: 0x0, symName: '__ZN3syn2ty7parsing70_$LT$impl$u20$syn..parse..Parse$u20$for$u20$syn..ty..TypeReference$GT$5parse17h28b5cea3a2a5f18cE', symObjAddr: 0x8B00, symBinAddr: 0xE22F0, symSize: 0x3C0 }
  - { offsetInCU: 0x332A, offset: 0x49F49A, size: 0x8, addend: 0x0, symName: '__ZN3syn2ty7parsing67_$LT$impl$u20$syn..parse..Parse$u20$for$u20$syn..ty..TypeBareFn$GT$5parse17hc7333311caab7003E', symObjAddr: 0x8EC0, symBinAddr: 0xE26B0, symSize: 0x1020 }
  - { offsetInCU: 0x5014, offset: 0x4A1184, size: 0x8, addend: 0x0, symName: '__ZN3syn2ty7parsing66_$LT$impl$u20$syn..parse..Parse$u20$for$u20$syn..ty..TypeNever$GT$5parse17hedcf4bce6d4b8acdE', symObjAddr: 0x9EE0, symBinAddr: 0xE36D0, symSize: 0x50 }
  - { offsetInCU: 0x50C2, offset: 0x4A1232, size: 0x8, addend: 0x0, symName: '__ZN3syn2ty7parsing72_$LT$impl$u20$syn..parse..Parse$u20$for$u20$syn..ty..TypeTraitObject$GT$5parse17h2a2e48674bf544ceE', symObjAddr: 0xA790, symBinAddr: 0xE38E0, symSize: 0x190 }
  - { offsetInCU: 0x5702, offset: 0x4A1872, size: 0x8, addend: 0x0, symName: '__ZN3syn2ty7parsing66_$LT$impl$u20$syn..parse..Parse$u20$for$u20$syn..ty..TypeGroup$GT$5parse17h320d676d6240d83aE', symObjAddr: 0xAF50, symBinAddr: 0xE3ED0, symSize: 0x220 }
  - { offsetInCU: 0x5C89, offset: 0x4A1DF9, size: 0x8, addend: 0x0, symName: '__ZN60_$LT$syn..ty..Type$u20$as$u20$quote..to_tokens..ToTokens$GT$9to_tokens17hc517846047fbd8d3E', symObjAddr: 0xC130, symBinAddr: 0xE4430, symSize: 0x800 }
  - { offsetInCU: 0x80BD, offset: 0x4A422D, size: 0x8, addend: 0x0, symName: '__ZN77_$LT$$RF$$u5b$syn..attr..Attribute$u5d$$u20$as$u20$syn..attr..FilterAttrs$GT$5outer8is_outer17h41e17c2f166a63adE.llvm.7433280464014642904', symObjAddr: 0x7F60, symBinAddr: 0xE1E90, symSize: 0x20 }
  - { offsetInCU: 0xAD5B, offset: 0x4A6ECB, size: 0x8, addend: 0x0, symName: '__ZN3syn3gen5clone67_$LT$impl$u20$core..clone..Clone$u20$for$u20$syn..ty..BareFnArg$GT$5clone17h322032e98041fe57E', symObjAddr: 0xC960, symBinAddr: 0xE4C30, symSize: 0x140 }
  - { offsetInCU: 0xB1D1, offset: 0x4A7341, size: 0x8, addend: 0x0, symName: '__ZN3syn3gen5clone62_$LT$impl$u20$core..clone..Clone$u20$for$u20$syn..ty..Type$GT$5clone17hab6b515cddcf12a4E', symObjAddr: 0xCC10, symBinAddr: 0xE4D70, symSize: 0x8A0 }
  - { offsetInCU: 0xC9C0, offset: 0x4A8B30, size: 0x8, addend: 0x0, symName: '__ZN3syn3gen5clone68_$LT$impl$u20$core..clone..Clone$u20$for$u20$syn..ty..TypeBareFn$GT$5clone17h93542e2290e09c95E', symObjAddr: 0xD5C0, symBinAddr: 0xE5610, symSize: 0x490 }
  - { offsetInCU: 0xFBBE, offset: 0x4ABD2E, size: 0x8, addend: 0x0, symName: '__ZN4core3ptr100drop_in_place$LT$core..option..Option$LT$alloc..boxed..Box$LT$syn..path..GenericArgument$GT$$GT$$GT$17h3a7c44b9e57fe410E', symObjAddr: 0x1D0, symBinAddr: 0xDA920, symSize: 0x50 }
  - { offsetInCU: 0xFF5C, offset: 0x4AC0CC, size: 0x8, addend: 0x0, symName: '__ZN4core3ptr100drop_in_place$LT$syn..punctuated..Punctuated$LT$syn..path..PathSegment$C$syn..token..PathSep$GT$$GT$17he41ef64147139591E', symObjAddr: 0x220, symBinAddr: 0xDA970, symSize: 0x2B0 }
  - { offsetInCU: 0x10A12, offset: 0x4ACB82, size: 0x8, addend: 0x0, symName: '__ZN4core3ptr103drop_in_place$LT$core..option..Option$LT$alloc..boxed..Box$LT$syn..generics..TypeParamBound$GT$$GT$$GT$17hb14e4384a768542bE', symObjAddr: 0x4D0, symBinAddr: 0xDAC20, symSize: 0x50 }
  - { offsetInCU: 0x10C1D, offset: 0x4ACD8D, size: 0x8, addend: 0x0, symName: '__ZN4core3ptr103drop_in_place$LT$syn..punctuated..Punctuated$LT$syn..generics..GenericParam$C$syn..token..Comma$GT$$GT$17h0c6077a988036760E', symObjAddr: 0x520, symBinAddr: 0xDAC70, symSize: 0xF0 }
  - { offsetInCU: 0x11118, offset: 0x4AD288, size: 0x8, addend: 0x0, symName: '__ZN4core3ptr104drop_in_place$LT$syn..punctuated..Punctuated$LT$syn..generics..TypeParamBound$C$syn..token..Plus$GT$$GT$17h724e4d9d1d65061aE', symObjAddr: 0x610, symBinAddr: 0xDAD60, symSize: 0x190 }
  - { offsetInCU: 0x117B7, offset: 0x4AD927, size: 0x8, addend: 0x0, symName: '__ZN4core3ptr34drop_in_place$LT$syn..lit..Lit$GT$17hd64dde89a262341dE', symObjAddr: 0x7A0, symBinAddr: 0xDAEF0, symSize: 0x120 }
  - { offsetInCU: 0x11CA5, offset: 0x4ADE15, size: 0x8, addend: 0x0, symName: '__ZN4core3ptr34drop_in_place$LT$syn..pat..Pat$GT$17hf88887878261d63cE', symObjAddr: 0x8C0, symBinAddr: 0xDB010, symSize: 0x1100 }
  - { offsetInCU: 0x1631E, offset: 0x4B248E, size: 0x8, addend: 0x0, symName: '__ZN4core3ptr34drop_in_place$LT$syn..ty..Type$GT$17ha80dd29b0f9d4a3fE.llvm.7433280464014642904', symObjAddr: 0x19C0, symBinAddr: 0xDC110, symSize: 0x510 }
  - { offsetInCU: 0x17984, offset: 0x4B3AF4, size: 0x8, addend: 0x0, symName: '__ZN4core3ptr36drop_in_place$LT$syn..expr..Expr$GT$17h10f573b40ddd212cE', symObjAddr: 0x1ED0, symBinAddr: 0xDC620, symSize: 0x2840 }
  - { offsetInCU: 0x21A62, offset: 0x4BDBD2, size: 0x8, addend: 0x0, symName: '__ZN4core3ptr36drop_in_place$LT$syn..mac..Macro$GT$17hc3b30a7a8a34cc2dE', symObjAddr: 0x4710, symBinAddr: 0xDEE60, symSize: 0x40 }
  - { offsetInCU: 0x21A9C, offset: 0x4BDC0C, size: 0x8, addend: 0x0, symName: '__ZN4core3ptr36drop_in_place$LT$syn..path..Path$GT$17h75c74a97d5f0a03bE', symObjAddr: 0x4750, symBinAddr: 0xDEEA0, symSize: 0x280 }
  - { offsetInCU: 0x22549, offset: 0x4BE6B9, size: 0x8, addend: 0x0, symName: '__ZN4core3ptr37drop_in_place$LT$syn..stmt..Block$GT$17h6fc3254d5688f2c3E', symObjAddr: 0x49D0, symBinAddr: 0xDF120, symSize: 0xD0 }
  - { offsetInCU: 0x22820, offset: 0x4BE990, size: 0x8, addend: 0x0, symName: '__ZN4core3ptr38drop_in_place$LT$syn..expr..Member$GT$17h6b0cf84594ce6bceE', symObjAddr: 0x4AA0, symBinAddr: 0xDF1F0, symSize: 0x30 }
  - { offsetInCU: 0x229B7, offset: 0x4BEB27, size: 0x8, addend: 0x0, symName: '__ZN4core3ptr38drop_in_place$LT$syn..group..Group$GT$17ha3c6933df6efe66fE.llvm.7433280464014642904', symObjAddr: 0x4AD0, symBinAddr: 0xDF220, symSize: 0x70 }
  - { offsetInCU: 0x22CAF, offset: 0x4BEE1F, size: 0x8, addend: 0x0, symName: '__ZN4core3ptr39drop_in_place$LT$proc_macro2..Ident$GT$17ha28fef9769e267d9E', symObjAddr: 0x4B40, symBinAddr: 0xDF290, symSize: 0x30 }
  - { offsetInCU: 0x22D8C, offset: 0x4BEEFC, size: 0x8, addend: 0x0, symName: '__ZN4core3ptr40drop_in_place$LT$syn..ty..ReturnType$GT$17h035a612e322b6510E', symObjAddr: 0x4B70, symBinAddr: 0xDF2C0, symSize: 0x50 }
  - { offsetInCU: 0x22EFC, offset: 0x4BF06C, size: 0x8, addend: 0x0, symName: '__ZN4core3ptr41drop_in_place$LT$syn..expr..ExprConst$GT$17hbfe19d5d621e6836E', symObjAddr: 0x4BC0, symBinAddr: 0xDF310, symSize: 0x180 }
  - { offsetInCU: 0x234E9, offset: 0x4BF659, size: 0x8, addend: 0x0, symName: '__ZN4core3ptr44drop_in_place$LT$syn..lifetime..Lifetime$GT$17he37fa474f03de7b1E', symObjAddr: 0x4D40, symBinAddr: 0xDF490, symSize: 0x30 }
  - { offsetInCU: 0x235E5, offset: 0x4BF755, size: 0x8, addend: 0x0, symName: '__ZN4core3ptr44drop_in_place$LT$syn..parse..ParseBuffer$GT$17hf792ff20095efc35E', symObjAddr: 0x4D70, symBinAddr: 0xDF4C0, symSize: 0x70 }
  - { offsetInCU: 0x239FC, offset: 0x4BFB6C, size: 0x8, addend: 0x0, symName: '__ZN4core3ptr45drop_in_place$LT$proc_macro2..TokenStream$GT$17h76e8e68015f4924dE.llvm.7433280464014642904', symObjAddr: 0x4DE0, symBinAddr: 0xDF530, symSize: 0x140 }
  - { offsetInCU: 0x23E96, offset: 0x4C0006, size: 0x8, addend: 0x0, symName: '__ZN4core3ptr45drop_in_place$LT$syn..generics..TypeParam$GT$17h188a459c1380ac75E', symObjAddr: 0x4F20, symBinAddr: 0xDF670, symSize: 0x230 }
  - { offsetInCU: 0x2470B, offset: 0x4C087B, size: 0x8, addend: 0x0, symName: '__ZN4core3ptr46drop_in_place$LT$syn..generics..ConstParam$GT$17h7a9b900b2b88bfcdE', symObjAddr: 0x5150, symBinAddr: 0xDF8A0, symSize: 0x150 }
  - { offsetInCU: 0x24B8C, offset: 0x4C0CFC, size: 0x8, addend: 0x0, symName: '__ZN4core3ptr47drop_in_place$LT$syn..path..GenericArgument$GT$17h593f06d6ca9a94d2E', symObjAddr: 0x52A0, symBinAddr: 0xDF9F0, symSize: 0x4A0 }
  - { offsetInCU: 0x25C92, offset: 0x4C1E02, size: 0x8, addend: 0x0, symName: '__ZN4core3ptr49drop_in_place$LT$syn..generics..LifetimeParam$GT$17h3a8835ab294bfd16E', symObjAddr: 0x5740, symBinAddr: 0xDFE90, symSize: 0xF0 }
  - { offsetInCU: 0x260A9, offset: 0x4C2219, size: 0x8, addend: 0x0, symName: '__ZN4core3ptr50drop_in_place$LT$syn..generics..TypeParamBound$GT$17h81b4325b5900604dE', symObjAddr: 0x5830, symBinAddr: 0xDFF80, symSize: 0x1C0 }
  - { offsetInCU: 0x26606, offset: 0x4C2776, size: 0x8, addend: 0x0, symName: '__ZN4core3ptr58drop_in_place$LT$alloc..vec..Vec$LT$syn..expr..Arm$GT$$GT$17hff9224aadf2233b8E', symObjAddr: 0x59F0, symBinAddr: 0xE0140, symSize: 0xD0 }
  - { offsetInCU: 0x268C6, offset: 0x4C2A36, size: 0x8, addend: 0x0, symName: '__ZN4core3ptr59drop_in_place$LT$alloc..boxed..Box$LT$syn..pat..Pat$GT$$GT$17h622b0c1db21c0742E', symObjAddr: 0x5AC0, symBinAddr: 0xE0210, symSize: 0x50 }
  - { offsetInCU: 0x26A1F, offset: 0x4C2B8F, size: 0x8, addend: 0x0, symName: '__ZN4core3ptr59drop_in_place$LT$alloc..boxed..Box$LT$syn..ty..Type$GT$$GT$17hde45fa887dd8b605E', symObjAddr: 0x5B10, symBinAddr: 0xE0260, symSize: 0x50 }
  - { offsetInCU: 0x26B78, offset: 0x4C2CE8, size: 0x8, addend: 0x0, symName: '__ZN4core3ptr61drop_in_place$LT$alloc..boxed..Box$LT$syn..expr..Expr$GT$$GT$17hbb42293869113942E', symObjAddr: 0x5B60, symBinAddr: 0xE02B0, symSize: 0x50 }
  - { offsetInCU: 0x26D4D, offset: 0x4C2EBD, size: 0x8, addend: 0x0, symName: '__ZN4core3ptr61drop_in_place$LT$syn..path..ParenthesizedGenericArguments$GT$17h6b1731382637937fE', symObjAddr: 0x5C20, symBinAddr: 0xE0300, symSize: 0x170 }
  - { offsetInCU: 0x27343, offset: 0x4C34B3, size: 0x8, addend: 0x0, symName: '__ZN4core3ptr62drop_in_place$LT$syn..path..AngleBracketedGenericArguments$GT$17hf8fa172f007a1473E', symObjAddr: 0x5D90, symBinAddr: 0xE0470, symSize: 0x120 }
  - { offsetInCU: 0x2778E, offset: 0x4C38FE, size: 0x8, addend: 0x0, symName: '__ZN4core3ptr63drop_in_place$LT$alloc..boxed..Box$LT$syn..lit..LitRepr$GT$$GT$17h6e3a82ea4de7b84cE', symObjAddr: 0x5EB0, symBinAddr: 0xE0590, symSize: 0x60 }
  - { offsetInCU: 0x27A95, offset: 0x4C3C05, size: 0x8, addend: 0x0, symName: '__ZN4core3ptr64drop_in_place$LT$alloc..boxed..Box$LT$syn..pat..FieldPat$GT$$GT$17hbf8f4867d84bd25dE', symObjAddr: 0x5F10, symBinAddr: 0xE05F0, symSize: 0x140 }
  - { offsetInCU: 0x28196, offset: 0x4C4306, size: 0x8, addend: 0x0, symName: '__ZN4core3ptr64drop_in_place$LT$alloc..boxed..Box$LT$syn..ty..BareFnArg$GT$$GT$17h6be6354eb1d1364dE', symObjAddr: 0x6050, symBinAddr: 0xE0730, symSize: 0x140 }
  - { offsetInCU: 0x2871F, offset: 0x4C488F, size: 0x8, addend: 0x0, symName: '__ZN4core3ptr64drop_in_place$LT$alloc..vec..Vec$LT$syn..attr..Attribute$GT$$GT$17he33e25539d5885aeE.llvm.7433280464014642904', symObjAddr: 0x6190, symBinAddr: 0xE0870, symSize: 0xD0 }
  - { offsetInCU: 0x28A13, offset: 0x4C4B83, size: 0x8, addend: 0x0, symName: '__ZN4core3ptr65drop_in_place$LT$alloc..vec..Vec$LT$proc_macro..TokenTree$GT$$GT$17h8abd81f8596dbc59E.llvm.7433280464014642904', symObjAddr: 0x6260, symBinAddr: 0xE0940, symSize: 0x110 }
  - { offsetInCU: 0x28E0B, offset: 0x4C4F7B, size: 0x8, addend: 0x0, symName: '__ZN4core3ptr65drop_in_place$LT$core..option..Option$LT$syn..expr..Label$GT$$GT$17hac599686b33ef364E', symObjAddr: 0x6370, symBinAddr: 0xE0A50, symSize: 0x30 }
  - { offsetInCU: 0x28F45, offset: 0x4C50B5, size: 0x8, addend: 0x0, symName: '__ZN4core3ptr65drop_in_place$LT$core..option..Option$LT$syn..path..QSelf$GT$$GT$17h0b8dd5cda5f2cd6bE', symObjAddr: 0x6400, symBinAddr: 0xE0A80, symSize: 0x50 }
  - { offsetInCU: 0x290DC, offset: 0x4C524C, size: 0x8, addend: 0x0, symName: '__ZN4core3ptr66drop_in_place$LT$core..option..Option$LT$syn..pat..PatRest$GT$$GT$17hd5bb3bc28aa78ac1E', symObjAddr: 0x6450, symBinAddr: 0xE0AD0, symSize: 0xE0 }
  - { offsetInCU: 0x29404, offset: 0x4C5574, size: 0x8, addend: 0x0, symName: '__ZN4core3ptr67drop_in_place$LT$alloc..boxed..Box$LT$syn..expr..FieldValue$GT$$GT$17hbbcf67a9d5e9863cE', symObjAddr: 0x6530, symBinAddr: 0xE0BB0, symSize: 0x140 }
  - { offsetInCU: 0x2996D, offset: 0x4C5ADD, size: 0x8, addend: 0x0, symName: '__ZN4core3ptr68drop_in_place$LT$alloc..boxed..Box$LT$syn..path..PathSegment$GT$$GT$17h99aaf90b3262bc1eE', symObjAddr: 0x6670, symBinAddr: 0xE0CF0, symSize: 0x1B0 }
  - { offsetInCU: 0x2A07B, offset: 0x4C61EB, size: 0x8, addend: 0x0, symName: '__ZN4core3ptr70drop_in_place$LT$core..option..Option$LT$syn..ty..BareVariadic$GT$$GT$17h79a19250e9f043b1E', symObjAddr: 0x6820, symBinAddr: 0xE0EA0, symSize: 0x100 }
  - { offsetInCU: 0x2A4E6, offset: 0x4C6656, size: 0x8, addend: 0x0, symName: '__ZN4core3ptr72drop_in_place$LT$alloc..boxed..Box$LT$syn..path..GenericArgument$GT$$GT$17hfd308d374af4273dE', symObjAddr: 0x6920, symBinAddr: 0xE0FA0, symSize: 0x1D0 }
  - { offsetInCU: 0x2AA81, offset: 0x4C6BF1, size: 0x8, addend: 0x0, symName: '__ZN4core3ptr73drop_in_place$LT$alloc..boxed..Box$LT$syn..generics..GenericParam$GT$$GT$17ha26d5d145af4b203E', symObjAddr: 0x6AF0, symBinAddr: 0xE1170, symSize: 0x80 }
  - { offsetInCU: 0x2ABF7, offset: 0x4C6D67, size: 0x8, addend: 0x0, symName: '__ZN4core3ptr75drop_in_place$LT$alloc..boxed..Box$LT$syn..generics..TypeParamBound$GT$$GT$17h129a4e927e5eb81bE', symObjAddr: 0x6B70, symBinAddr: 0xE11F0, symSize: 0xC0 }
  - { offsetInCU: 0x2AF4B, offset: 0x4C70BB, size: 0x8, addend: 0x0, symName: '__ZN4core3ptr86drop_in_place$LT$syn..punctuated..Punctuated$LT$syn..pat..Pat$C$syn..token..Or$GT$$GT$17h9cc6b5f7b6d3a555E', symObjAddr: 0x6C50, symBinAddr: 0xE12B0, symSize: 0x120 }
  - { offsetInCU: 0x2B3C6, offset: 0x4C7536, size: 0x8, addend: 0x0, symName: '__ZN4core3ptr87drop_in_place$LT$core..option..Option$LT$alloc..boxed..Box$LT$syn..pat..Pat$GT$$GT$$GT$17h51cd48973d96c411E', symObjAddr: 0x6D70, symBinAddr: 0xE13D0, symSize: 0x50 }
  - { offsetInCU: 0x2B536, offset: 0x4C76A6, size: 0x8, addend: 0x0, symName: '__ZN4core3ptr87drop_in_place$LT$core..option..Option$LT$alloc..boxed..Box$LT$syn..ty..Type$GT$$GT$$GT$17h103a25a4a7d7374eE', symObjAddr: 0x6DC0, symBinAddr: 0xE1420, symSize: 0x50 }
  - { offsetInCU: 0x2B6A6, offset: 0x4C7816, size: 0x8, addend: 0x0, symName: '__ZN4core3ptr89drop_in_place$LT$core..option..Option$LT$alloc..boxed..Box$LT$syn..expr..Expr$GT$$GT$$GT$17h9e02509cb2345d44E', symObjAddr: 0x6E10, symBinAddr: 0xE1470, symSize: 0x50 }
  - { offsetInCU: 0x2B854, offset: 0x4C79C4, size: 0x8, addend: 0x0, symName: '__ZN4core3ptr89drop_in_place$LT$syn..punctuated..Punctuated$LT$syn..pat..Pat$C$syn..token..Comma$GT$$GT$17hd3a83c36827f210aE', symObjAddr: 0x6E60, symBinAddr: 0xE14C0, symSize: 0x120 }
  - { offsetInCU: 0x2BCE6, offset: 0x4C7E56, size: 0x8, addend: 0x0, symName: '__ZN4core3ptr89drop_in_place$LT$syn..punctuated..Punctuated$LT$syn..ty..Type$C$syn..token..Comma$GT$$GT$17he030c4b7f24a5848E', symObjAddr: 0x6F80, symBinAddr: 0xE15E0, symSize: 0x120 }
  - { offsetInCU: 0x2C161, offset: 0x4C82D1, size: 0x8, addend: 0x0, symName: '__ZN4core3ptr90drop_in_place$LT$core..option..Option$LT$syn..path..AngleBracketedGenericArguments$GT$$GT$17ha307713a95a0671eE', symObjAddr: 0x70A0, symBinAddr: 0xE1700, symSize: 0x130 }
  - { offsetInCU: 0x2C603, offset: 0x4C8773, size: 0x8, addend: 0x0, symName: '__ZN4core3ptr91drop_in_place$LT$syn..punctuated..Punctuated$LT$syn..expr..Expr$C$syn..token..Comma$GT$$GT$17h6f261e8f470c81f2E', symObjAddr: 0x71D0, symBinAddr: 0xE1830, symSize: 0x120 }
  - { offsetInCU: 0x2CA91, offset: 0x4C8C01, size: 0x8, addend: 0x0, symName: '__ZN4core3ptr94drop_in_place$LT$syn..punctuated..Punctuated$LT$syn..pat..FieldPat$C$syn..token..Comma$GT$$GT$17h43ec25af986ef674E', symObjAddr: 0x72F0, symBinAddr: 0xE1950, symSize: 0xF0 }
  - { offsetInCU: 0x2CD90, offset: 0x4C8F00, size: 0x8, addend: 0x0, symName: '__ZN4core3ptr94drop_in_place$LT$syn..punctuated..Punctuated$LT$syn..ty..BareFnArg$C$syn..token..Comma$GT$$GT$17h7ba4c699ee390ebaE', symObjAddr: 0x73E0, symBinAddr: 0xE1A40, symSize: 0xF0 }
  - { offsetInCU: 0x2D091, offset: 0x4C9201, size: 0x8, addend: 0x0, symName: '__ZN4core3ptr95drop_in_place$LT$core..option..Option$LT$$LP$proc_macro2..Ident$C$syn..token..Colon$RP$$GT$$GT$17h59fe297999aa3329E.llvm.7433280464014642904', symObjAddr: 0x74D0, symBinAddr: 0xE1B30, symSize: 0x30 }
  - { offsetInCU: 0x2D1AC, offset: 0x4C931C, size: 0x8, addend: 0x0, symName: '__ZN4core3ptr96drop_in_place$LT$core..option..Option$LT$alloc..boxed..Box$LT$syn..path..PathSegment$GT$$GT$$GT$17h5de12a5a0f9e9ef9E', symObjAddr: 0x7500, symBinAddr: 0xE1B60, symSize: 0xA0 }
  - { offsetInCU: 0x2D42B, offset: 0x4C959B, size: 0x8, addend: 0x0, symName: '__ZN4core3ptr97drop_in_place$LT$syn..punctuated..Punctuated$LT$syn..expr..FieldValue$C$syn..token..Comma$GT$$GT$17hf58d0a9a09266ab3E', symObjAddr: 0x75A0, symBinAddr: 0xE1C00, symSize: 0xF0 }
  - { offsetInCU: 0x2D728, offset: 0x4C9898, size: 0x8, addend: 0x0, symName: '__ZN4core3ptr98drop_in_place$LT$alloc..vec..Vec$LT$$LP$syn..path..GenericArgument$C$syn..token..Comma$RP$$GT$$GT$17h0dee282a026d5a38E', symObjAddr: 0x7690, symBinAddr: 0xE1CF0, symSize: 0xD0 }
  - { offsetInCU: 0x2DA68, offset: 0x4C9BD8, size: 0x8, addend: 0x0, symName: '__ZN4core3ptr98drop_in_place$LT$syn..punctuated..Punctuated$LT$syn..lifetime..Lifetime$C$syn..token..Plus$GT$$GT$17h600c2b78f78fd2b9E', symObjAddr: 0x7760, symBinAddr: 0xE1DC0, symSize: 0xD0 }
  - { offsetInCU: 0x35B2F, offset: 0x4D1C9F, size: 0x8, addend: 0x0, symName: '__ZN3syn2ty7parsing37_$LT$impl$u20$syn..ty..ReturnType$GT$5parse17h76bf66c5704e5568E.llvm.7433280464014642904', symObjAddr: 0xA5B0, symBinAddr: 0xE3720, symSize: 0x1C0 }
  - { offsetInCU: 0x36027, offset: 0x4D2197, size: 0x8, addend: 0x0, symName: '__ZN3syn2ty7parsing42_$LT$impl$u20$syn..ty..TypeTraitObject$GT$12parse_bounds17hcce0f5f0c06eac47E', symObjAddr: 0xAAB0, symBinAddr: 0xE3A70, symSize: 0x200 }
  - { offsetInCU: 0x365DF, offset: 0x4D274F, size: 0x8, addend: 0x0, symName: '__ZN3syn2ty7parsing40_$LT$impl$u20$syn..ty..TypeImplTrait$GT$5parse17h57ff6f0ea678d301E', symObjAddr: 0xACF0, symBinAddr: 0xE3C70, symSize: 0x260 }
  - { offsetInCU: 0x1E, offset: 0x4D9999, size: 0x8, addend: 0x0, symName: '__ZN4core3fmt3num52_$LT$impl$u20$core..fmt..Debug$u20$for$u20$usize$GT$3fmt17h9e5c63f85393f427E', symObjAddr: 0x0, symBinAddr: 0xE5AA0, symSize: 0x30 }
  - { offsetInCU: 0x50D, offset: 0x4D9E88, size: 0x8, addend: 0x0, symName: '__ZN4core3ptr46drop_in_place$LT$alloc..vec..Vec$LT$u8$GT$$GT$17hac40de56aef3363bE', symObjAddr: 0x30, symBinAddr: 0xE5AD0, symSize: 0x20 }
  - { offsetInCU: 0x615, offset: 0x4D9F90, size: 0x8, addend: 0x0, symName: '__ZN4core3ptr48drop_in_place$LT$alloc..ffi..c_str..NulError$GT$17h22b4ea6536ce838bE', symObjAddr: 0x50, symBinAddr: 0xE5AF0, symSize: 0x20 }
  - { offsetInCU: 0x71D, offset: 0x4DA098, size: 0x8, addend: 0x0, symName: '__ZN4core3ptr49drop_in_place$LT$alloc..string..FromUtf8Error$GT$17heaaeee83f03b2b7bE', symObjAddr: 0x70, symBinAddr: 0xE5B10, symSize: 0x20 }
  - { offsetInCU: 0x2376, offset: 0x4DBCF1, size: 0x8, addend: 0x0, symName: '__ZN4core3fmt3num52_$LT$impl$u20$core..fmt..Debug$u20$for$u20$usize$GT$3fmt17h9e5c63f85393f427E', symObjAddr: 0x0, symBinAddr: 0xE5AA0, symSize: 0x30 }
  - { offsetInCU: 0x3D91, offset: 0x4DD70C, size: 0x8, addend: 0x0, symName: '__ZN65_$LT$alloc..string..FromUtf8Error$u20$as$u20$core..fmt..Debug$GT$3fmt17h0c1e2aafb1cc24ffE', symObjAddr: 0xE0, symBinAddr: 0xE5B80, symSize: 0x70 }
  - { offsetInCU: 0x449F, offset: 0x4DDE1A, size: 0x8, addend: 0x0, symName: '__ZN64_$LT$alloc..ffi..c_str..NulError$u20$as$u20$core..fmt..Debug$GT$3fmt17h75cdff7a4e3710ebE', symObjAddr: 0x90, symBinAddr: 0xE5B30, symSize: 0x50 }
  - { offsetInCU: 0x5017, offset: 0x4DE992, size: 0x8, addend: 0x0, symName: __ZN3syn3lit5value13parse_lit_str17h9a56025a1403992cE, symObjAddr: 0x170, symBinAddr: 0xE5BF0, symSize: 0x8F0 }
  - { offsetInCU: 0x6938, offset: 0x4E02B3, size: 0x8, addend: 0x0, symName: __ZN3syn3lit5value17parse_lit_str_raw17h71a7a6b74a99cbf4E, symObjAddr: 0xA60, symBinAddr: 0xE64E0, symSize: 0x3C0 }
  - { offsetInCU: 0x7BEA, offset: 0x4E1565, size: 0x8, addend: 0x0, symName: __ZN3syn3lit5value18parse_lit_byte_str17he5816c9781ee600cE, symObjAddr: 0xE20, symBinAddr: 0xE68A0, symSize: 0x600 }
  - { offsetInCU: 0x9006, offset: 0x4E2981, size: 0x8, addend: 0x0, symName: __ZN3syn3lit5value15parse_lit_c_str17h8ea0e7f1f657a4ccE, symObjAddr: 0x1420, symBinAddr: 0xE6EA0, symSize: 0xD50 }
  - { offsetInCU: 0xAD96, offset: 0x4E4711, size: 0x8, addend: 0x0, symName: __ZN3syn3lit5value14parse_lit_byte17h1a7c10a21ef1f8adE, symObjAddr: 0x2170, symBinAddr: 0xE7BF0, symSize: 0x380 }
  - { offsetInCU: 0xB85F, offset: 0x4E51DA, size: 0x8, addend: 0x0, symName: __ZN3syn3lit5value14parse_lit_char17h1b6fdda66c901312E, symObjAddr: 0x24F0, symBinAddr: 0xE7F70, symSize: 0x530 }
  - { offsetInCU: 0xC57E, offset: 0x4E5EF9, size: 0x8, addend: 0x0, symName: __ZN3syn3lit5value11backslash_x17had5b4021e53b86d3E, symObjAddr: 0x2A20, symBinAddr: 0xE84A0, symSize: 0x160 }
  - { offsetInCU: 0xC81C, offset: 0x4E6197, size: 0x8, addend: 0x0, symName: __ZN3syn3lit5value11backslash_x17hea0a6f2f0138e96cE, symObjAddr: 0x2B80, symBinAddr: 0xE8600, symSize: 0x140 }
  - { offsetInCU: 0xCA4E, offset: 0x4E63C9, size: 0x8, addend: 0x0, symName: __ZN3syn3lit5value11backslash_u17hc546eddee006fb27E, symObjAddr: 0x2CC0, symBinAddr: 0xE8740, symSize: 0x340 }
  - { offsetInCU: 0xD1AC, offset: 0x4E6B27, size: 0x8, addend: 0x0, symName: __ZN3syn3lit5value13parse_lit_int17h8a54417df181638cE, symObjAddr: 0x3000, symBinAddr: 0xE8A80, symSize: 0x710 }
  - { offsetInCU: 0xE7D7, offset: 0x4E8152, size: 0x8, addend: 0x0, symName: __ZN3syn3lit5value15parse_lit_float17h48254a3bf7939b78E, symObjAddr: 0x3710, symBinAddr: 0xE9190, symSize: 0x7A0 }
  - { offsetInCU: 0xF9D6, offset: 0x4E9351, size: 0x8, addend: 0x0, symName: __ZN3syn3lit5value11backslash_u18panic_cold_display17ha129ad0961798f3eE, symObjAddr: 0x3EB0, symBinAddr: 0x1F2B40, symSize: 0x59 }
  - { offsetInCU: 0x2255, offset: 0x4ED012, size: 0x8, addend: 0x0, symName: '__ZN77_$LT$$RF$$u5b$syn..attr..Attribute$u5d$$u20$as$u20$syn..attr..FilterAttrs$GT$5outer8is_outer17h41e17c2f166a63adE.llvm.15906860425259147884', symObjAddr: 0x7BC0, symBinAddr: 0xF0E50, symSize: 0x20 }
  - { offsetInCU: 0x33DD, offset: 0x4EE19A, size: 0x8, addend: 0x0, symName: '__ZN3syn3pat8printing75_$LT$impl$u20$quote..to_tokens..ToTokens$u20$for$u20$syn..pat..PatIdent$GT$9to_tokens17h773c7ddcca1eed4aE', symObjAddr: 0x9130, symBinAddr: 0xF1F40, symSize: 0x1F0 }
  - { offsetInCU: 0x395C, offset: 0x4EE719, size: 0x8, addend: 0x0, symName: '__ZN3syn3pat8printing74_$LT$impl$u20$quote..to_tokens..ToTokens$u20$for$u20$syn..pat..PatRest$GT$9to_tokens17h5a916ef9f4d32210E', symObjAddr: 0x96B0, symBinAddr: 0xF2130, symSize: 0xD0 }
  - { offsetInCU: 0x3BFD, offset: 0x4EE9BA, size: 0x8, addend: 0x0, symName: '__ZN3syn3pat8printing74_$LT$impl$u20$quote..to_tokens..ToTokens$u20$for$u20$syn..pat..PatType$GT$9to_tokens17hc06b7f213d6b0d4dE', symObjAddr: 0x9AC0, symBinAddr: 0xF2200, symSize: 0xE0 }
  - { offsetInCU: 0x3E66, offset: 0x4EEC23, size: 0x8, addend: 0x0, symName: '__ZN60_$LT$syn..pat..Pat$u20$as$u20$quote..to_tokens..ToTokens$GT$9to_tokens17h0cf42f7c25d434c6E', symObjAddr: 0x9DD0, symBinAddr: 0xF22E0, symSize: 0xF20 }
  - { offsetInCU: 0x8312, offset: 0x4F30CF, size: 0x8, addend: 0x0, symName: '__ZN3syn3gen5clone67_$LT$impl$u20$core..clone..Clone$u20$for$u20$syn..pat..FieldPat$GT$5clone17h844b6ab8c4c564e9E', symObjAddr: 0xACF0, symBinAddr: 0xF3200, symSize: 0x180 }
  - { offsetInCU: 0x87F8, offset: 0x4F35B5, size: 0x8, addend: 0x0, symName: '__ZN3syn3gen5clone66_$LT$impl$u20$core..clone..Clone$u20$for$u20$syn..pat..PatType$GT$5clone17had7ff1b7fd2a7dd8E', symObjAddr: 0xC4A0, symBinAddr: 0xF4650, symSize: 0x170 }
  - { offsetInCU: 0x8D42, offset: 0x4F3AFF, size: 0x8, addend: 0x0, symName: '__ZN3syn3gen5clone62_$LT$impl$u20$core..clone..Clone$u20$for$u20$syn..pat..Pat$GT$5clone17h5c8df087bec04fcbE', symObjAddr: 0xAE70, symBinAddr: 0xF3380, symSize: 0xAE0 }
  - { offsetInCU: 0xA2F0, offset: 0x4F50AD, size: 0x8, addend: 0x0, symName: '__ZN3syn3gen5clone67_$LT$impl$u20$core..clone..Clone$u20$for$u20$syn..pat..PatIdent$GT$5clone17h4e1f2f3fc7ad63f5E', symObjAddr: 0xB950, symBinAddr: 0xF3E60, symSize: 0x1A0 }
  - { offsetInCU: 0xA77D, offset: 0x4F553A, size: 0x8, addend: 0x0, symName: '__ZN3syn3gen5clone68_$LT$impl$u20$core..clone..Clone$u20$for$u20$syn..pat..PatStruct$GT$5clone17h8a3afe9fa7cecfcfE', symObjAddr: 0xBE50, symBinAddr: 0xF4000, symSize: 0x3B0 }
  - { offsetInCU: 0xADBF, offset: 0x4F5B7C, size: 0x8, addend: 0x0, symName: '__ZN3syn3gen5clone73_$LT$impl$u20$core..clone..Clone$u20$for$u20$syn..pat..PatTupleStruct$GT$5clone17h1d3eed8ad7fca757E', symObjAddr: 0xC200, symBinAddr: 0xF43B0, symSize: 0x2A0 }
  - { offsetInCU: 0xD282, offset: 0x4F803F, size: 0x8, addend: 0x0, symName: '__ZN4core3ptr100drop_in_place$LT$core..option..Option$LT$alloc..boxed..Box$LT$syn..path..GenericArgument$GT$$GT$$GT$17h3a7c44b9e57fe410E', symObjAddr: 0x120, symBinAddr: 0xE9930, symSize: 0x50 }
  - { offsetInCU: 0xD620, offset: 0x4F83DD, size: 0x8, addend: 0x0, symName: '__ZN4core3ptr100drop_in_place$LT$syn..punctuated..Punctuated$LT$syn..path..PathSegment$C$syn..token..PathSep$GT$$GT$17he41ef64147139591E', symObjAddr: 0x170, symBinAddr: 0xE9980, symSize: 0x2B0 }
  - { offsetInCU: 0xE0D6, offset: 0x4F8E93, size: 0x8, addend: 0x0, symName: '__ZN4core3ptr103drop_in_place$LT$core..option..Option$LT$alloc..boxed..Box$LT$syn..generics..TypeParamBound$GT$$GT$$GT$17hb14e4384a768542bE', symObjAddr: 0x420, symBinAddr: 0xE9C30, symSize: 0x50 }
  - { offsetInCU: 0xE2E1, offset: 0x4F909E, size: 0x8, addend: 0x0, symName: '__ZN4core3ptr103drop_in_place$LT$syn..punctuated..Punctuated$LT$syn..generics..GenericParam$C$syn..token..Comma$GT$$GT$17h0c6077a988036760E', symObjAddr: 0x470, symBinAddr: 0xE9C80, symSize: 0xF0 }
  - { offsetInCU: 0xE7DC, offset: 0x4F9599, size: 0x8, addend: 0x0, symName: '__ZN4core3ptr104drop_in_place$LT$syn..punctuated..Punctuated$LT$syn..generics..TypeParamBound$C$syn..token..Plus$GT$$GT$17h724e4d9d1d65061aE', symObjAddr: 0x560, symBinAddr: 0xE9D70, symSize: 0x190 }
  - { offsetInCU: 0xEEB9, offset: 0x4F9C76, size: 0x8, addend: 0x0, symName: '__ZN4core3ptr34drop_in_place$LT$syn..lit..Lit$GT$17hd64dde89a262341dE', symObjAddr: 0x740, symBinAddr: 0xE9F00, symSize: 0x120 }
  - { offsetInCU: 0xF369, offset: 0x4FA126, size: 0x8, addend: 0x0, symName: '__ZN4core3ptr34drop_in_place$LT$syn..pat..Pat$GT$17hf88887878261d63cE.llvm.15906860425259147884', symObjAddr: 0x860, symBinAddr: 0xEA020, symSize: 0x10E0 }
  - { offsetInCU: 0x13922, offset: 0x4FE6DF, size: 0x8, addend: 0x0, symName: '__ZN4core3ptr34drop_in_place$LT$syn..ty..Type$GT$17ha80dd29b0f9d4a3fE', symObjAddr: 0x1940, symBinAddr: 0xEB100, symSize: 0x520 }
  - { offsetInCU: 0x14F78, offset: 0x4FFD35, size: 0x8, addend: 0x0, symName: '__ZN4core3ptr36drop_in_place$LT$syn..expr..Expr$GT$17h10f573b40ddd212cE', symObjAddr: 0x1E60, symBinAddr: 0xEB620, symSize: 0x2870 }
  - { offsetInCU: 0x1F24C, offset: 0x50A009, size: 0x8, addend: 0x0, symName: '__ZN4core3ptr36drop_in_place$LT$syn..mac..Macro$GT$17hc3b30a7a8a34cc2dE', symObjAddr: 0x46D0, symBinAddr: 0xEDE90, symSize: 0x40 }
  - { offsetInCU: 0x1F286, offset: 0x50A043, size: 0x8, addend: 0x0, symName: '__ZN4core3ptr36drop_in_place$LT$syn..path..Path$GT$17h75c74a97d5f0a03bE', symObjAddr: 0x4710, symBinAddr: 0xEDED0, symSize: 0x280 }
  - { offsetInCU: 0x1FD33, offset: 0x50AAF0, size: 0x8, addend: 0x0, symName: '__ZN4core3ptr37drop_in_place$LT$syn..stmt..Block$GT$17h6fc3254d5688f2c3E', symObjAddr: 0x4990, symBinAddr: 0xEE150, symSize: 0xD0 }
  - { offsetInCU: 0x2000A, offset: 0x50ADC7, size: 0x8, addend: 0x0, symName: '__ZN4core3ptr38drop_in_place$LT$syn..expr..Member$GT$17h6b0cf84594ce6bceE.llvm.15906860425259147884', symObjAddr: 0x4A60, symBinAddr: 0xEE220, symSize: 0x30 }
  - { offsetInCU: 0x20106, offset: 0x50AEC3, size: 0x8, addend: 0x0, symName: '__ZN4core3ptr39drop_in_place$LT$proc_macro2..Ident$GT$17ha28fef9769e267d9E', symObjAddr: 0x4A90, symBinAddr: 0xEE250, symSize: 0x30 }
  - { offsetInCU: 0x201E3, offset: 0x50AFA0, size: 0x8, addend: 0x0, symName: '__ZN4core3ptr40drop_in_place$LT$syn..ty..ReturnType$GT$17h035a612e322b6510E', symObjAddr: 0x4AC0, symBinAddr: 0xEE280, symSize: 0x50 }
  - { offsetInCU: 0x20353, offset: 0x50B110, size: 0x8, addend: 0x0, symName: '__ZN4core3ptr41drop_in_place$LT$syn..expr..ExprConst$GT$17hbfe19d5d621e6836E', symObjAddr: 0x4B10, symBinAddr: 0xEE2D0, symSize: 0x180 }
  - { offsetInCU: 0x20940, offset: 0x50B6FD, size: 0x8, addend: 0x0, symName: '__ZN4core3ptr44drop_in_place$LT$syn..lifetime..Lifetime$GT$17he37fa474f03de7b1E', symObjAddr: 0x4C90, symBinAddr: 0xEE450, symSize: 0x30 }
  - { offsetInCU: 0x20AB8, offset: 0x50B875, size: 0x8, addend: 0x0, symName: '__ZN4core3ptr44drop_in_place$LT$syn..parse..ParseBuffer$GT$17hf792ff20095efc35E', symObjAddr: 0x4CC0, symBinAddr: 0xEE480, symSize: 0x70 }
  - { offsetInCU: 0x20ECF, offset: 0x50BC8C, size: 0x8, addend: 0x0, symName: '__ZN4core3ptr45drop_in_place$LT$proc_macro2..TokenStream$GT$17h76e8e68015f4924dE', symObjAddr: 0x4D30, symBinAddr: 0xEE4F0, symSize: 0x140 }
  - { offsetInCU: 0x21369, offset: 0x50C126, size: 0x8, addend: 0x0, symName: '__ZN4core3ptr45drop_in_place$LT$syn..generics..TypeParam$GT$17h188a459c1380ac75E', symObjAddr: 0x4E70, symBinAddr: 0xEE630, symSize: 0x230 }
  - { offsetInCU: 0x21BDE, offset: 0x50C99B, size: 0x8, addend: 0x0, symName: '__ZN4core3ptr46drop_in_place$LT$syn..generics..ConstParam$GT$17h7a9b900b2b88bfcdE', symObjAddr: 0x50A0, symBinAddr: 0xEE860, symSize: 0x150 }
  - { offsetInCU: 0x2205F, offset: 0x50CE1C, size: 0x8, addend: 0x0, symName: '__ZN4core3ptr47drop_in_place$LT$syn..path..GenericArgument$GT$17h593f06d6ca9a94d2E', symObjAddr: 0x51F0, symBinAddr: 0xEE9B0, symSize: 0x4A0 }
  - { offsetInCU: 0x23165, offset: 0x50DF22, size: 0x8, addend: 0x0, symName: '__ZN4core3ptr49drop_in_place$LT$syn..generics..LifetimeParam$GT$17h3a8835ab294bfd16E', symObjAddr: 0x5690, symBinAddr: 0xEEE50, symSize: 0xF0 }
  - { offsetInCU: 0x2357C, offset: 0x50E339, size: 0x8, addend: 0x0, symName: '__ZN4core3ptr50drop_in_place$LT$syn..generics..TypeParamBound$GT$17h81b4325b5900604dE', symObjAddr: 0x5780, symBinAddr: 0xEEF40, symSize: 0x1C0 }
  - { offsetInCU: 0x23AD9, offset: 0x50E896, size: 0x8, addend: 0x0, symName: '__ZN4core3ptr58drop_in_place$LT$alloc..vec..Vec$LT$syn..expr..Arm$GT$$GT$17hff9224aadf2233b8E', symObjAddr: 0x5940, symBinAddr: 0xEF100, symSize: 0xD0 }
  - { offsetInCU: 0x23D99, offset: 0x50EB56, size: 0x8, addend: 0x0, symName: '__ZN4core3ptr59drop_in_place$LT$alloc..boxed..Box$LT$syn..pat..Pat$GT$$GT$17h622b0c1db21c0742E.llvm.15906860425259147884', symObjAddr: 0x5A10, symBinAddr: 0xEF1D0, symSize: 0x50 }
  - { offsetInCU: 0x23EF2, offset: 0x50ECAF, size: 0x8, addend: 0x0, symName: '__ZN4core3ptr59drop_in_place$LT$alloc..boxed..Box$LT$syn..ty..Type$GT$$GT$17hde45fa887dd8b605E', symObjAddr: 0x5A60, symBinAddr: 0xEF220, symSize: 0x50 }
  - { offsetInCU: 0x2404B, offset: 0x50EE08, size: 0x8, addend: 0x0, symName: '__ZN4core3ptr61drop_in_place$LT$alloc..boxed..Box$LT$syn..expr..Expr$GT$$GT$17hbb42293869113942E', symObjAddr: 0x5AB0, symBinAddr: 0xEF270, symSize: 0x50 }
  - { offsetInCU: 0x24220, offset: 0x50EFDD, size: 0x8, addend: 0x0, symName: '__ZN4core3ptr61drop_in_place$LT$syn..path..ParenthesizedGenericArguments$GT$17h6b1731382637937fE', symObjAddr: 0x5B00, symBinAddr: 0xEF2C0, symSize: 0x170 }
  - { offsetInCU: 0x24816, offset: 0x50F5D3, size: 0x8, addend: 0x0, symName: '__ZN4core3ptr62drop_in_place$LT$syn..path..AngleBracketedGenericArguments$GT$17hf8fa172f007a1473E', symObjAddr: 0x5C70, symBinAddr: 0xEF430, symSize: 0x120 }
  - { offsetInCU: 0x24C61, offset: 0x50FA1E, size: 0x8, addend: 0x0, symName: '__ZN4core3ptr63drop_in_place$LT$alloc..boxed..Box$LT$syn..lit..LitRepr$GT$$GT$17h6e3a82ea4de7b84cE', symObjAddr: 0x5D90, symBinAddr: 0xEF550, symSize: 0x60 }
  - { offsetInCU: 0x24F68, offset: 0x50FD25, size: 0x8, addend: 0x0, symName: '__ZN4core3ptr64drop_in_place$LT$alloc..boxed..Box$LT$syn..pat..FieldPat$GT$$GT$17hbf8f4867d84bd25dE', symObjAddr: 0x5DF0, symBinAddr: 0xEF5B0, symSize: 0x140 }
  - { offsetInCU: 0x25669, offset: 0x510426, size: 0x8, addend: 0x0, symName: '__ZN4core3ptr64drop_in_place$LT$alloc..boxed..Box$LT$syn..ty..BareFnArg$GT$$GT$17h6be6354eb1d1364dE', symObjAddr: 0x5F30, symBinAddr: 0xEF6F0, symSize: 0x140 }
  - { offsetInCU: 0x25BF2, offset: 0x5109AF, size: 0x8, addend: 0x0, symName: '__ZN4core3ptr64drop_in_place$LT$alloc..vec..Vec$LT$syn..attr..Attribute$GT$$GT$17he33e25539d5885aeE.llvm.15906860425259147884', symObjAddr: 0x6070, symBinAddr: 0xEF830, symSize: 0xD0 }
  - { offsetInCU: 0x25EE6, offset: 0x510CA3, size: 0x8, addend: 0x0, symName: '__ZN4core3ptr65drop_in_place$LT$alloc..vec..Vec$LT$proc_macro..TokenTree$GT$$GT$17h8abd81f8596dbc59E', symObjAddr: 0x6140, symBinAddr: 0xEF900, symSize: 0x110 }
  - { offsetInCU: 0x262DE, offset: 0x51109B, size: 0x8, addend: 0x0, symName: '__ZN4core3ptr65drop_in_place$LT$core..option..Option$LT$syn..expr..Label$GT$$GT$17hac599686b33ef364E', symObjAddr: 0x6250, symBinAddr: 0xEFA10, symSize: 0x30 }
  - { offsetInCU: 0x26418, offset: 0x5111D5, size: 0x8, addend: 0x0, symName: '__ZN4core3ptr65drop_in_place$LT$core..option..Option$LT$syn..path..QSelf$GT$$GT$17h0b8dd5cda5f2cd6bE', symObjAddr: 0x6280, symBinAddr: 0xEFA40, symSize: 0x50 }
  - { offsetInCU: 0x265AF, offset: 0x51136C, size: 0x8, addend: 0x0, symName: '__ZN4core3ptr66drop_in_place$LT$core..option..Option$LT$syn..pat..PatRest$GT$$GT$17hd5bb3bc28aa78ac1E', symObjAddr: 0x62D0, symBinAddr: 0xEFA90, symSize: 0xE0 }
  - { offsetInCU: 0x268D7, offset: 0x511694, size: 0x8, addend: 0x0, symName: '__ZN4core3ptr67drop_in_place$LT$alloc..boxed..Box$LT$syn..expr..FieldValue$GT$$GT$17hbbcf67a9d5e9863cE', symObjAddr: 0x63B0, symBinAddr: 0xEFB70, symSize: 0x140 }
  - { offsetInCU: 0x26E40, offset: 0x511BFD, size: 0x8, addend: 0x0, symName: '__ZN4core3ptr68drop_in_place$LT$alloc..boxed..Box$LT$syn..path..PathSegment$GT$$GT$17h99aaf90b3262bc1eE', symObjAddr: 0x64F0, symBinAddr: 0xEFCB0, symSize: 0x1B0 }
  - { offsetInCU: 0x2754E, offset: 0x51230B, size: 0x8, addend: 0x0, symName: '__ZN4core3ptr70drop_in_place$LT$core..option..Option$LT$syn..ty..BareVariadic$GT$$GT$17h79a19250e9f043b1E', symObjAddr: 0x66A0, symBinAddr: 0xEFE60, symSize: 0x100 }
  - { offsetInCU: 0x279B9, offset: 0x512776, size: 0x8, addend: 0x0, symName: '__ZN4core3ptr72drop_in_place$LT$alloc..boxed..Box$LT$syn..path..GenericArgument$GT$$GT$17hfd308d374af4273dE', symObjAddr: 0x67A0, symBinAddr: 0xEFF60, symSize: 0x1D0 }
  - { offsetInCU: 0x27F54, offset: 0x512D11, size: 0x8, addend: 0x0, symName: '__ZN4core3ptr72drop_in_place$LT$core..option..Option$LT$syn..lifetime..Lifetime$GT$$GT$17h49cce6f02f9c0590E', symObjAddr: 0x6970, symBinAddr: 0xF0130, symSize: 0x30 }
  - { offsetInCU: 0x2806F, offset: 0x512E2C, size: 0x8, addend: 0x0, symName: '__ZN4core3ptr73drop_in_place$LT$alloc..boxed..Box$LT$syn..generics..GenericParam$GT$$GT$17ha26d5d145af4b203E', symObjAddr: 0x69A0, symBinAddr: 0xF0160, symSize: 0x80 }
  - { offsetInCU: 0x281E5, offset: 0x512FA2, size: 0x8, addend: 0x0, symName: '__ZN4core3ptr75drop_in_place$LT$alloc..boxed..Box$LT$syn..generics..TypeParamBound$GT$$GT$17h129a4e927e5eb81bE', symObjAddr: 0x6A20, symBinAddr: 0xF01E0, symSize: 0xC0 }
  - { offsetInCU: 0x28539, offset: 0x5132F6, size: 0x8, addend: 0x0, symName: '__ZN4core3ptr86drop_in_place$LT$syn..punctuated..Punctuated$LT$syn..pat..Pat$C$syn..token..Or$GT$$GT$17h9cc6b5f7b6d3a555E', symObjAddr: 0x6AE0, symBinAddr: 0xF02A0, symSize: 0x120 }
  - { offsetInCU: 0x289B4, offset: 0x513771, size: 0x8, addend: 0x0, symName: '__ZN4core3ptr87drop_in_place$LT$core..option..Option$LT$alloc..boxed..Box$LT$syn..pat..Pat$GT$$GT$$GT$17h51cd48973d96c411E', symObjAddr: 0x6C00, symBinAddr: 0xF03C0, symSize: 0x50 }
  - { offsetInCU: 0x28B24, offset: 0x5138E1, size: 0x8, addend: 0x0, symName: '__ZN4core3ptr87drop_in_place$LT$core..option..Option$LT$alloc..boxed..Box$LT$syn..ty..Type$GT$$GT$$GT$17h103a25a4a7d7374eE', symObjAddr: 0x6C50, symBinAddr: 0xF0410, symSize: 0x50 }
  - { offsetInCU: 0x28C94, offset: 0x513A51, size: 0x8, addend: 0x0, symName: '__ZN4core3ptr89drop_in_place$LT$core..option..Option$LT$alloc..boxed..Box$LT$syn..expr..Expr$GT$$GT$$GT$17h9e02509cb2345d44E', symObjAddr: 0x6CA0, symBinAddr: 0xF0460, symSize: 0x50 }
  - { offsetInCU: 0x28E42, offset: 0x513BFF, size: 0x8, addend: 0x0, symName: '__ZN4core3ptr89drop_in_place$LT$syn..punctuated..Punctuated$LT$syn..pat..Pat$C$syn..token..Comma$GT$$GT$17hd3a83c36827f210aE', symObjAddr: 0x6CF0, symBinAddr: 0xF04B0, symSize: 0x120 }
  - { offsetInCU: 0x292D4, offset: 0x514091, size: 0x8, addend: 0x0, symName: '__ZN4core3ptr89drop_in_place$LT$syn..punctuated..Punctuated$LT$syn..ty..Type$C$syn..token..Comma$GT$$GT$17he030c4b7f24a5848E', symObjAddr: 0x6E10, symBinAddr: 0xF05D0, symSize: 0x120 }
  - { offsetInCU: 0x2974F, offset: 0x51450C, size: 0x8, addend: 0x0, symName: '__ZN4core3ptr90drop_in_place$LT$core..option..Option$LT$syn..path..AngleBracketedGenericArguments$GT$$GT$17ha307713a95a0671eE', symObjAddr: 0x6F30, symBinAddr: 0xF06F0, symSize: 0x130 }
  - { offsetInCU: 0x29BF1, offset: 0x5149AE, size: 0x8, addend: 0x0, symName: '__ZN4core3ptr91drop_in_place$LT$syn..punctuated..Punctuated$LT$syn..expr..Expr$C$syn..token..Comma$GT$$GT$17h6f261e8f470c81f2E', symObjAddr: 0x7060, symBinAddr: 0xF0820, symSize: 0x120 }
  - { offsetInCU: 0x2A07F, offset: 0x514E3C, size: 0x8, addend: 0x0, symName: '__ZN4core3ptr94drop_in_place$LT$syn..punctuated..Punctuated$LT$syn..pat..FieldPat$C$syn..token..Comma$GT$$GT$17h43ec25af986ef674E', symObjAddr: 0x7180, symBinAddr: 0xF0940, symSize: 0xF0 }
  - { offsetInCU: 0x2A37E, offset: 0x51513B, size: 0x8, addend: 0x0, symName: '__ZN4core3ptr94drop_in_place$LT$syn..punctuated..Punctuated$LT$syn..ty..BareFnArg$C$syn..token..Comma$GT$$GT$17h7ba4c699ee390ebaE', symObjAddr: 0x7270, symBinAddr: 0xF0A30, symSize: 0xF0 }
  - { offsetInCU: 0x2A67F, offset: 0x51543C, size: 0x8, addend: 0x0, symName: '__ZN4core3ptr96drop_in_place$LT$core..option..Option$LT$alloc..boxed..Box$LT$syn..path..PathSegment$GT$$GT$$GT$17h5de12a5a0f9e9ef9E', symObjAddr: 0x7360, symBinAddr: 0xF0B20, symSize: 0xA0 }
  - { offsetInCU: 0x2A8FE, offset: 0x5156BB, size: 0x8, addend: 0x0, symName: '__ZN4core3ptr97drop_in_place$LT$syn..punctuated..Punctuated$LT$syn..expr..FieldValue$C$syn..token..Comma$GT$$GT$17hf58d0a9a09266ab3E', symObjAddr: 0x7400, symBinAddr: 0xF0BC0, symSize: 0xF0 }
  - { offsetInCU: 0x2ABFB, offset: 0x5159B8, size: 0x8, addend: 0x0, symName: '__ZN4core3ptr98drop_in_place$LT$alloc..vec..Vec$LT$$LP$syn..path..GenericArgument$C$syn..token..Comma$RP$$GT$$GT$17h0dee282a026d5a38E', symObjAddr: 0x74F0, symBinAddr: 0xF0CB0, symSize: 0xD0 }
  - { offsetInCU: 0x2AF3B, offset: 0x515CF8, size: 0x8, addend: 0x0, symName: '__ZN4core3ptr98drop_in_place$LT$syn..punctuated..Punctuated$LT$syn..lifetime..Lifetime$C$syn..token..Plus$GT$$GT$17h600c2b78f78fd2b9E', symObjAddr: 0x75C0, symBinAddr: 0xF0D80, symSize: 0xD0 }
  - { offsetInCU: 0x31572, offset: 0x51C32F, size: 0x8, addend: 0x0, symName: '__ZN3syn3pat7parsing31_$LT$impl$u20$syn..pat..Pat$GT$12parse_single17had5917816d6a4d92E', symObjAddr: 0x7CC0, symBinAddr: 0xF0E70, symSize: 0xFF0 }
  - { offsetInCU: 0x3649A, offset: 0x521257, size: 0x8, addend: 0x0, symName: '__ZN3syn3pat7parsing31_$LT$impl$u20$syn..pat..Pat$GT$29parse_multi_with_leading_vert17h1037b3b98e13f049E', symObjAddr: 0x8CD0, symBinAddr: 0xF1E60, symSize: 0xE0 }
  - { offsetInCU: 0x35, offset: 0x528935, size: 0x8, addend: 0x0, symName: _anon.0b050a9e0cbe0aeeb92af8a853766f2a.0.llvm.661229634610467167, symObjAddr: 0xDFA0, symBinAddr: 0x2593A8, symSize: 0x0 }
  - { offsetInCU: 0x1FD7, offset: 0x52A8D7, size: 0x8, addend: 0x0, symName: '__ZN4core3ptr100drop_in_place$LT$syn..punctuated..Punctuated$LT$syn..path..PathSegment$C$syn..token..PathSep$GT$$GT$17he41ef64147139591E.llvm.661229634610467167', symObjAddr: 0x410, symBinAddr: 0xF47C0, symSize: 0x170 }
  - { offsetInCU: 0x266F, offset: 0x52AF6F, size: 0x8, addend: 0x0, symName: '__ZN4core3ptr101drop_in_place$LT$core..option..Option$LT$alloc..boxed..Box$LT$syn..generics..GenericParam$GT$$GT$$GT$17h2bff155591650989E', symObjAddr: 0x580, symBinAddr: 0xF4930, symSize: 0x90 }
  - { offsetInCU: 0x2853, offset: 0x52B153, size: 0x8, addend: 0x0, symName: '__ZN4core3ptr102drop_in_place$LT$syn..punctuated..Punctuated$LT$syn..path..GenericArgument$C$syn..token..Comma$GT$$GT$17h8b1978399cfff48bE.llvm.661229634610467167', symObjAddr: 0x610, symBinAddr: 0xF49C0, symSize: 0xF0 }
  - { offsetInCU: 0x2B86, offset: 0x52B486, size: 0x8, addend: 0x0, symName: '__ZN4core3ptr103drop_in_place$LT$core..option..Option$LT$alloc..boxed..Box$LT$syn..generics..TypeParamBound$GT$$GT$$GT$17hb14e4384a768542bE', symObjAddr: 0x700, symBinAddr: 0xF4AB0, symSize: 0x50 }
  - { offsetInCU: 0x2D53, offset: 0x52B653, size: 0x8, addend: 0x0, symName: '__ZN4core3ptr103drop_in_place$LT$syn..punctuated..Punctuated$LT$syn..generics..GenericParam$C$syn..token..Comma$GT$$GT$17h0c6077a988036760E', symObjAddr: 0x750, symBinAddr: 0xF4B00, symSize: 0xF0 }
  - { offsetInCU: 0x325A, offset: 0x52BB5A, size: 0x8, addend: 0x0, symName: '__ZN4core3ptr104drop_in_place$LT$syn..punctuated..Punctuated$LT$syn..generics..TypeParamBound$C$syn..token..Plus$GT$$GT$17h724e4d9d1d65061aE', symObjAddr: 0x840, symBinAddr: 0xF4BF0, symSize: 0x260 }
  - { offsetInCU: 0x3CAA, offset: 0x52C5AA, size: 0x8, addend: 0x0, symName: '__ZN4core3ptr34drop_in_place$LT$syn..lit..Lit$GT$17hd64dde89a262341dE', symObjAddr: 0xAA0, symBinAddr: 0xF4E50, symSize: 0x120 }
  - { offsetInCU: 0x41B7, offset: 0x52CAB7, size: 0x8, addend: 0x0, symName: '__ZN4core3ptr34drop_in_place$LT$syn..pat..Pat$GT$17hf88887878261d63cE', symObjAddr: 0xBC0, symBinAddr: 0xF4F70, symSize: 0x1100 }
  - { offsetInCU: 0x884F, offset: 0x53114F, size: 0x8, addend: 0x0, symName: '__ZN4core3ptr34drop_in_place$LT$syn..ty..Type$GT$17ha80dd29b0f9d4a3fE.llvm.661229634610467167', symObjAddr: 0x1CC0, symBinAddr: 0xF6070, symSize: 0x520 }
  - { offsetInCU: 0x9EC4, offset: 0x5327C4, size: 0x8, addend: 0x0, symName: '__ZN4core3ptr36drop_in_place$LT$syn..expr..Expr$GT$17h10f573b40ddd212cE.llvm.661229634610467167', symObjAddr: 0x21E0, symBinAddr: 0xF6590, symSize: 0x2830 }
  - { offsetInCU: 0x13FC7, offset: 0x53C8C7, size: 0x8, addend: 0x0, symName: '__ZN4core3ptr36drop_in_place$LT$syn..mac..Macro$GT$17hc3b30a7a8a34cc2dE', symObjAddr: 0x4A10, symBinAddr: 0xF8DC0, symSize: 0x40 }
  - { offsetInCU: 0x14020, offset: 0x53C920, size: 0x8, addend: 0x0, symName: '__ZN4core3ptr36drop_in_place$LT$syn..path..Path$GT$17h75c74a97d5f0a03bE.llvm.661229634610467167', symObjAddr: 0x4A50, symBinAddr: 0xF8E00, symSize: 0x1A0 }
  - { offsetInCU: 0x146AA, offset: 0x53CFAA, size: 0x8, addend: 0x0, symName: '__ZN4core3ptr37drop_in_place$LT$syn..stmt..Block$GT$17h6fc3254d5688f2c3E', symObjAddr: 0x4BF0, symBinAddr: 0xF8FA0, symSize: 0xD0 }
  - { offsetInCU: 0x14981, offset: 0x53D281, size: 0x8, addend: 0x0, symName: '__ZN4core3ptr38drop_in_place$LT$syn..expr..Member$GT$17h6b0cf84594ce6bceE', symObjAddr: 0x4CC0, symBinAddr: 0xF9070, symSize: 0x30 }
  - { offsetInCU: 0x14A7D, offset: 0x53D37D, size: 0x8, addend: 0x0, symName: '__ZN4core3ptr38drop_in_place$LT$syn..ty..TypePath$GT$17h6f484b80634b66aeE', symObjAddr: 0x4CF0, symBinAddr: 0xF90A0, symSize: 0x70 }
  - { offsetInCU: 0x14BFA, offset: 0x53D4FA, size: 0x8, addend: 0x0, symName: '__ZN4core3ptr39drop_in_place$LT$proc_macro2..Ident$GT$17ha28fef9769e267d9E.llvm.661229634610467167', symObjAddr: 0x4D60, symBinAddr: 0xF9110, symSize: 0x30 }
  - { offsetInCU: 0x14CD7, offset: 0x53D5D7, size: 0x8, addend: 0x0, symName: '__ZN4core3ptr40drop_in_place$LT$syn..ty..ReturnType$GT$17h035a612e322b6510E.llvm.661229634610467167', symObjAddr: 0x4D90, symBinAddr: 0xF9140, symSize: 0x50 }
  - { offsetInCU: 0x14E47, offset: 0x53D747, size: 0x8, addend: 0x0, symName: '__ZN4core3ptr41drop_in_place$LT$syn..expr..ExprConst$GT$17hbfe19d5d621e6836E', symObjAddr: 0x4DE0, symBinAddr: 0xF9190, symSize: 0x180 }
  - { offsetInCU: 0x15453, offset: 0x53DD53, size: 0x8, addend: 0x0, symName: '__ZN4core3ptr42drop_in_place$LT$syn..path..Constraint$GT$17h367871d1e7e54db0E.llvm.661229634610467167', symObjAddr: 0x5040, symBinAddr: 0xF9310, symSize: 0x160 }
  - { offsetInCU: 0x159C2, offset: 0x53E2C2, size: 0x8, addend: 0x0, symName: '__ZN4core3ptr44drop_in_place$LT$syn..lifetime..Lifetime$GT$17he37fa474f03de7b1E.llvm.661229634610467167', symObjAddr: 0x51A0, symBinAddr: 0xF9470, symSize: 0x30 }
  - { offsetInCU: 0x15B3A, offset: 0x53E43A, size: 0x8, addend: 0x0, symName: '__ZN4core3ptr44drop_in_place$LT$syn..parse..ParseBuffer$GT$17hf792ff20095efc35E', symObjAddr: 0x51D0, symBinAddr: 0xF94A0, symSize: 0x70 }
  - { offsetInCU: 0x15F51, offset: 0x53E851, size: 0x8, addend: 0x0, symName: '__ZN4core3ptr45drop_in_place$LT$proc_macro2..TokenStream$GT$17h76e8e68015f4924dE', symObjAddr: 0x5240, symBinAddr: 0xF9510, symSize: 0x140 }
  - { offsetInCU: 0x163CC, offset: 0x53ECCC, size: 0x8, addend: 0x0, symName: '__ZN4core3ptr45drop_in_place$LT$syn..generics..TypeParam$GT$17h188a459c1380ac75E', symObjAddr: 0x5380, symBinAddr: 0xF9650, symSize: 0x140 }
  - { offsetInCU: 0x16815, offset: 0x53F115, size: 0x8, addend: 0x0, symName: '__ZN4core3ptr45drop_in_place$LT$syn..path..PathArguments$GT$17hdbc6dfac6f3334e6E.llvm.661229634610467167', symObjAddr: 0x54C0, symBinAddr: 0xF9790, symSize: 0xB0 }
  - { offsetInCU: 0x169E6, offset: 0x53F2E6, size: 0x8, addend: 0x0, symName: '__ZN4core3ptr46drop_in_place$LT$syn..generics..ConstParam$GT$17h7a9b900b2b88bfcdE', symObjAddr: 0x5570, symBinAddr: 0xF9840, symSize: 0x150 }
  - { offsetInCU: 0x16E0A, offset: 0x53F70A, size: 0x8, addend: 0x0, symName: '__ZN4core3ptr49drop_in_place$LT$syn..generics..LifetimeParam$GT$17h3a8835ab294bfd16E', symObjAddr: 0x56C0, symBinAddr: 0xF9990, symSize: 0xF0 }
  - { offsetInCU: 0x17221, offset: 0x53FB21, size: 0x8, addend: 0x0, symName: '__ZN4core3ptr50drop_in_place$LT$syn..generics..TypeParamBound$GT$17h81b4325b5900604dE', symObjAddr: 0x57B0, symBinAddr: 0xF9A80, symSize: 0x1C0 }
  - { offsetInCU: 0x1777E, offset: 0x54007E, size: 0x8, addend: 0x0, symName: '__ZN4core3ptr58drop_in_place$LT$alloc..vec..Vec$LT$syn..expr..Arm$GT$$GT$17hff9224aadf2233b8E', symObjAddr: 0x5970, symBinAddr: 0xF9C40, symSize: 0xD0 }
  - { offsetInCU: 0x17A3E, offset: 0x54033E, size: 0x8, addend: 0x0, symName: '__ZN4core3ptr59drop_in_place$LT$alloc..boxed..Box$LT$syn..pat..Pat$GT$$GT$17h622b0c1db21c0742E', symObjAddr: 0x5A40, symBinAddr: 0xF9D10, symSize: 0x50 }
  - { offsetInCU: 0x17B97, offset: 0x540497, size: 0x8, addend: 0x0, symName: '__ZN4core3ptr59drop_in_place$LT$alloc..boxed..Box$LT$syn..ty..Type$GT$$GT$17hde45fa887dd8b605E.llvm.661229634610467167', symObjAddr: 0x5A90, symBinAddr: 0xF9D60, symSize: 0x50 }
  - { offsetInCU: 0x17CF0, offset: 0x5405F0, size: 0x8, addend: 0x0, symName: '__ZN4core3ptr61drop_in_place$LT$alloc..boxed..Box$LT$syn..expr..Expr$GT$$GT$17hbb42293869113942E', symObjAddr: 0x5AE0, symBinAddr: 0xF9DB0, symSize: 0x50 }
  - { offsetInCU: 0x17EC5, offset: 0x5407C5, size: 0x8, addend: 0x0, symName: '__ZN4core3ptr61drop_in_place$LT$syn..path..ParenthesizedGenericArguments$GT$17h6b1731382637937fE.llvm.661229634610467167', symObjAddr: 0x5B30, symBinAddr: 0xF9E00, symSize: 0x170 }
  - { offsetInCU: 0x184BB, offset: 0x540DBB, size: 0x8, addend: 0x0, symName: '__ZN4core3ptr63drop_in_place$LT$alloc..boxed..Box$LT$syn..lit..LitRepr$GT$$GT$17h6e3a82ea4de7b84cE', symObjAddr: 0x5CA0, symBinAddr: 0xF9F70, symSize: 0x60 }
  - { offsetInCU: 0x187C2, offset: 0x5410C2, size: 0x8, addend: 0x0, symName: '__ZN4core3ptr64drop_in_place$LT$alloc..boxed..Box$LT$syn..pat..FieldPat$GT$$GT$17hbf8f4867d84bd25dE', symObjAddr: 0x5D00, symBinAddr: 0xF9FD0, symSize: 0x140 }
  - { offsetInCU: 0x18EC3, offset: 0x5417C3, size: 0x8, addend: 0x0, symName: '__ZN4core3ptr64drop_in_place$LT$alloc..boxed..Box$LT$syn..ty..BareFnArg$GT$$GT$17h6be6354eb1d1364dE', symObjAddr: 0x5E40, symBinAddr: 0xFA110, symSize: 0x140 }
  - { offsetInCU: 0x1944C, offset: 0x541D4C, size: 0x8, addend: 0x0, symName: '__ZN4core3ptr65drop_in_place$LT$alloc..vec..Vec$LT$proc_macro..TokenTree$GT$$GT$17h8abd81f8596dbc59E', symObjAddr: 0x5F80, symBinAddr: 0xFA250, symSize: 0x110 }
  - { offsetInCU: 0x19844, offset: 0x542144, size: 0x8, addend: 0x0, symName: '__ZN4core3ptr65drop_in_place$LT$core..option..Option$LT$syn..expr..Label$GT$$GT$17hac599686b33ef364E', symObjAddr: 0x6090, symBinAddr: 0xFA360, symSize: 0x30 }
  - { offsetInCU: 0x1997E, offset: 0x54227E, size: 0x8, addend: 0x0, symName: '__ZN4core3ptr66drop_in_place$LT$core..option..Option$LT$syn..pat..PatRest$GT$$GT$17hd5bb3bc28aa78ac1E', symObjAddr: 0x60C0, symBinAddr: 0xFA390, symSize: 0xE0 }
  - { offsetInCU: 0x19CA6, offset: 0x5425A6, size: 0x8, addend: 0x0, symName: '__ZN4core3ptr67drop_in_place$LT$alloc..boxed..Box$LT$syn..expr..FieldValue$GT$$GT$17hbbcf67a9d5e9863cE', symObjAddr: 0x61A0, symBinAddr: 0xFA470, symSize: 0x140 }
  - { offsetInCU: 0x1A20F, offset: 0x542B0F, size: 0x8, addend: 0x0, symName: '__ZN4core3ptr68drop_in_place$LT$alloc..boxed..Box$LT$syn..path..PathSegment$GT$$GT$17h99aaf90b3262bc1eE.llvm.661229634610467167', symObjAddr: 0x62E0, symBinAddr: 0xFA5B0, symSize: 0xF0 }
  - { offsetInCU: 0x1A630, offset: 0x542F30, size: 0x8, addend: 0x0, symName: '__ZN4core3ptr70drop_in_place$LT$core..option..Option$LT$syn..ty..BareVariadic$GT$$GT$17h79a19250e9f043b1E', symObjAddr: 0x63D0, symBinAddr: 0xFA6A0, symSize: 0x100 }
  - { offsetInCU: 0x1AAD9, offset: 0x5433D9, size: 0x8, addend: 0x0, symName: '__ZN4core3ptr72drop_in_place$LT$alloc..boxed..Box$LT$syn..path..GenericArgument$GT$$GT$17hfd308d374af4273dE.llvm.661229634610467167', symObjAddr: 0x64D0, symBinAddr: 0xFA7A0, symSize: 0x190 }
  - { offsetInCU: 0x1AFB4, offset: 0x5438B4, size: 0x8, addend: 0x0, symName: '__ZN4core3ptr72drop_in_place$LT$core..option..Option$LT$syn..lifetime..Lifetime$GT$$GT$17h49cce6f02f9c0590E', symObjAddr: 0x6660, symBinAddr: 0xFA930, symSize: 0x30 }
  - { offsetInCU: 0x1B0EE, offset: 0x5439EE, size: 0x8, addend: 0x0, symName: '__ZN4core3ptr73drop_in_place$LT$alloc..boxed..Box$LT$syn..generics..GenericParam$GT$$GT$17ha26d5d145af4b203E', symObjAddr: 0x66C0, symBinAddr: 0xFA960, symSize: 0x80 }
  - { offsetInCU: 0x1B264, offset: 0x543B64, size: 0x8, addend: 0x0, symName: '__ZN4core3ptr75drop_in_place$LT$alloc..boxed..Box$LT$syn..generics..TypeParamBound$GT$$GT$17h129a4e927e5eb81bE', symObjAddr: 0x6740, symBinAddr: 0xFA9E0, symSize: 0x190 }
  - { offsetInCU: 0x1B96F, offset: 0x54426F, size: 0x8, addend: 0x0, symName: '__ZN4core3ptr86drop_in_place$LT$syn..punctuated..Punctuated$LT$syn..pat..Pat$C$syn..token..Or$GT$$GT$17h9cc6b5f7b6d3a555E', symObjAddr: 0x68D0, symBinAddr: 0xFAB70, symSize: 0x120 }
  - { offsetInCU: 0x1BDEA, offset: 0x5446EA, size: 0x8, addend: 0x0, symName: '__ZN4core3ptr87drop_in_place$LT$core..option..Option$LT$alloc..boxed..Box$LT$syn..pat..Pat$GT$$GT$$GT$17h51cd48973d96c411E', symObjAddr: 0x69F0, symBinAddr: 0xFAC90, symSize: 0x50 }
  - { offsetInCU: 0x1BF5A, offset: 0x54485A, size: 0x8, addend: 0x0, symName: '__ZN4core3ptr87drop_in_place$LT$core..option..Option$LT$alloc..boxed..Box$LT$syn..ty..Type$GT$$GT$$GT$17h103a25a4a7d7374eE.llvm.661229634610467167', symObjAddr: 0x6A40, symBinAddr: 0xFACE0, symSize: 0x50 }
  - { offsetInCU: 0x1C0CA, offset: 0x5449CA, size: 0x8, addend: 0x0, symName: '__ZN4core3ptr89drop_in_place$LT$core..option..Option$LT$alloc..boxed..Box$LT$syn..expr..Expr$GT$$GT$$GT$17h9e02509cb2345d44E', symObjAddr: 0x6A90, symBinAddr: 0xFAD30, symSize: 0x50 }
  - { offsetInCU: 0x1C278, offset: 0x544B78, size: 0x8, addend: 0x0, symName: '__ZN4core3ptr89drop_in_place$LT$syn..punctuated..Punctuated$LT$syn..pat..Pat$C$syn..token..Comma$GT$$GT$17hd3a83c36827f210aE', symObjAddr: 0x6AE0, symBinAddr: 0xFAD80, symSize: 0x120 }
  - { offsetInCU: 0x1C70A, offset: 0x54500A, size: 0x8, addend: 0x0, symName: '__ZN4core3ptr89drop_in_place$LT$syn..punctuated..Punctuated$LT$syn..ty..Type$C$syn..token..Comma$GT$$GT$17he030c4b7f24a5848E.llvm.661229634610467167', symObjAddr: 0x6C00, symBinAddr: 0xFAEA0, symSize: 0x120 }
  - { offsetInCU: 0x1CBC3, offset: 0x5454C3, size: 0x8, addend: 0x0, symName: '__ZN4core3ptr91drop_in_place$LT$syn..punctuated..Punctuated$LT$syn..expr..Expr$C$syn..token..Comma$GT$$GT$17h6f261e8f470c81f2E', symObjAddr: 0x6D40, symBinAddr: 0xFAFC0, symSize: 0x120 }
  - { offsetInCU: 0x1D051, offset: 0x545951, size: 0x8, addend: 0x0, symName: '__ZN4core3ptr94drop_in_place$LT$syn..punctuated..Punctuated$LT$syn..pat..FieldPat$C$syn..token..Comma$GT$$GT$17h43ec25af986ef674E', symObjAddr: 0x6E60, symBinAddr: 0xFB0E0, symSize: 0xF0 }
  - { offsetInCU: 0x1D350, offset: 0x545C50, size: 0x8, addend: 0x0, symName: '__ZN4core3ptr94drop_in_place$LT$syn..punctuated..Punctuated$LT$syn..ty..BareFnArg$C$syn..token..Comma$GT$$GT$17h7ba4c699ee390ebaE', symObjAddr: 0x6F50, symBinAddr: 0xFB1D0, symSize: 0xF0 }
  - { offsetInCU: 0x1D651, offset: 0x545F51, size: 0x8, addend: 0x0, symName: '__ZN4core3ptr96drop_in_place$LT$core..option..Option$LT$alloc..boxed..Box$LT$syn..path..PathSegment$GT$$GT$$GT$17h5de12a5a0f9e9ef9E.llvm.661229634610467167', symObjAddr: 0x7040, symBinAddr: 0xFB2C0, symSize: 0xA0 }
  - { offsetInCU: 0x1D8EF, offset: 0x5461EF, size: 0x8, addend: 0x0, symName: '__ZN4core3ptr97drop_in_place$LT$syn..punctuated..Punctuated$LT$syn..expr..FieldValue$C$syn..token..Comma$GT$$GT$17hf58d0a9a09266ab3E', symObjAddr: 0x70E0, symBinAddr: 0xFB360, symSize: 0xF0 }
  - { offsetInCU: 0x1DC68, offset: 0x546568, size: 0x8, addend: 0x0, symName: '__ZN4core3ptr98drop_in_place$LT$syn..punctuated..Punctuated$LT$syn..lifetime..Lifetime$C$syn..token..Plus$GT$$GT$17h600c2b78f78fd2b9E', symObjAddr: 0x71D0, symBinAddr: 0xFB450, symSize: 0xD0 }
  - { offsetInCU: 0x240A6, offset: 0x54C9A6, size: 0x8, addend: 0x0, symName: '__ZN3syn4path8printing72_$LT$impl$u20$quote..to_tokens..ToTokens$u20$for$u20$syn..path..Path$GT$9to_tokens17hf860120c9afc213aE', symObjAddr: 0xA470, symBinAddr: 0xFE0C0, symSize: 0x50 }
  - { offsetInCU: 0x241E1, offset: 0x54CAE1, size: 0x8, addend: 0x0, symName: '__ZN3syn4path8printing83_$LT$impl$u20$quote..to_tokens..ToTokens$u20$for$u20$syn..path..GenericArgument$GT$9to_tokens17h805a5129364dcb73E', symObjAddr: 0xA600, symBinAddr: 0xFE110, symSize: 0x1D0 }
  - { offsetInCU: 0x2456E, offset: 0x54CE6E, size: 0x8, addend: 0x0, symName: '__ZN3syn4path8printing98_$LT$impl$u20$quote..to_tokens..ToTokens$u20$for$u20$syn..path..AngleBracketedGenericArguments$GT$9to_tokens17h077559fcda79fba1E', symObjAddr: 0xA7D0, symBinAddr: 0xFE2E0, symSize: 0x200 }
  - { offsetInCU: 0x24D07, offset: 0x54D607, size: 0x8, addend: 0x0, symName: '__ZN64_$LT$syn..path..Path$u20$as$u20$core..convert..From$LT$T$GT$$GT$4from17hbd85b831f343d415E', symObjAddr: 0x76F0, symBinAddr: 0xFB520, symSize: 0xD0 }
  - { offsetInCU: 0x24DC0, offset: 0x54D6C0, size: 0x8, addend: 0x0, symName: '__ZN3syn4path7parsing63_$LT$impl$u20$syn..parse..Parse$u20$for$u20$syn..path..Path$GT$5parse17hce19bebd7e07c100E', symObjAddr: 0x7A90, symBinAddr: 0xFB780, symSize: 0x20 }
  - { offsetInCU: 0x24DF6, offset: 0x54D6F6, size: 0x8, addend: 0x0, symName: '__ZN3syn4path7parsing74_$LT$impl$u20$syn..parse..Parse$u20$for$u20$syn..path..GenericArgument$GT$5parse17hde9d8ada4733ca72E', symObjAddr: 0x7AB0, symBinAddr: 0xFB7A0, symSize: 0x1160 }
  - { offsetInCU: 0x26641, offset: 0x54EF41, size: 0x8, addend: 0x0, symName: '__ZN3syn4path7parsing89_$LT$impl$u20$syn..parse..Parse$u20$for$u20$syn..path..AngleBracketedGenericArguments$GT$5parse17h96a4c20c6a6191c9E', symObjAddr: 0x8FE0, symBinAddr: 0xFCC50, symSize: 0xC0 }
  - { offsetInCU: 0x26811, offset: 0x54F111, size: 0x8, addend: 0x0, symName: '__ZN3syn4path7parsing88_$LT$impl$u20$syn..parse..Parse$u20$for$u20$syn..path..ParenthesizedGenericArguments$GT$5parse17haf45186e506dcd96E', symObjAddr: 0x90A0, symBinAddr: 0xFCD10, symSize: 0x500 }
  - { offsetInCU: 0x2BA50, offset: 0x554350, size: 0x8, addend: 0x0, symName: '__ZN3syn3gen5clone70_$LT$impl$u20$core..clone..Clone$u20$for$u20$syn..path..AssocConst$GT$5clone17h66f2a9f2b96d69e0E', symObjAddr: 0xAC80, symBinAddr: 0xFE4E0, symSize: 0x2B0 }
  - { offsetInCU: 0x2BF5E, offset: 0x55485E, size: 0x8, addend: 0x0, symName: '__ZN3syn3gen5clone69_$LT$impl$u20$core..clone..Clone$u20$for$u20$syn..path..AssocType$GT$5clone17h8df52cda308869b4E', symObjAddr: 0xAF30, symBinAddr: 0xFE790, symSize: 0x2B0 }
  - { offsetInCU: 0x2C46C, offset: 0x554D6C, size: 0x8, addend: 0x0, symName: '__ZN3syn3gen5clone70_$LT$impl$u20$core..clone..Clone$u20$for$u20$syn..path..Constraint$GT$5clone17hdad9667d3c133e97E', symObjAddr: 0xB1E0, symBinAddr: 0xFEA40, symSize: 0x2A0 }
  - { offsetInCU: 0x2C97A, offset: 0x55527A, size: 0x8, addend: 0x0, symName: '__ZN3syn3gen5clone75_$LT$impl$u20$core..clone..Clone$u20$for$u20$syn..path..GenericArgument$GT$5clone17h4a3c345b544e8dd4E', symObjAddr: 0xB480, symBinAddr: 0xFECE0, symSize: 0x110 }
  - { offsetInCU: 0x2CB3A, offset: 0x55543A, size: 0x8, addend: 0x0, symName: '__ZN3syn3gen5clone73_$LT$impl$u20$core..clone..Clone$u20$for$u20$syn..path..PathArguments$GT$5clone17h4d133aa66bc34849E', symObjAddr: 0xB6D0, symBinAddr: 0xFEDF0, symSize: 0x1D0 }
  - { offsetInCU: 0x2EE27, offset: 0x557727, size: 0x8, addend: 0x0, symName: __ZN3syn4path4Path8is_ident17h19105ddf9028eaf5E, symObjAddr: 0x77C0, symBinAddr: 0xFB5F0, symSize: 0x110 }
  - { offsetInCU: 0x2F646, offset: 0x557F46, size: 0x8, addend: 0x0, symName: __ZN3syn4path4Path9get_ident17h961ffa0bcf0dc105E, symObjAddr: 0x78D0, symBinAddr: 0xFB700, symSize: 0x80 }
  - { offsetInCU: 0x3016C, offset: 0x558A6C, size: 0x8, addend: 0x0, symName: '__ZN3syn4path7parsing59_$LT$impl$u20$syn..path..AngleBracketedGenericArguments$GT$8do_parse17h9dd6471b3506b23bE.llvm.661229634610467167', symObjAddr: 0x8C90, symBinAddr: 0xFC900, symSize: 0x350 }
  - { offsetInCU: 0x30A49, offset: 0x559349, size: 0x8, addend: 0x0, symName: '__ZN3syn4path7parsing40_$LT$impl$u20$syn..path..PathSegment$GT$12parse_helper17h29b96fcf996789ddE', symObjAddr: 0x95C0, symBinAddr: 0xFD210, symSize: 0x360 }
  - { offsetInCU: 0x316D0, offset: 0x559FD0, size: 0x8, addend: 0x0, symName: '__ZN3syn4path7parsing33_$LT$impl$u20$syn..path..Path$GT$15parse_mod_style17h1aa28225ce8e8465E', symObjAddr: 0x9920, symBinAddr: 0xFD570, symSize: 0x420 }
  - { offsetInCU: 0x32077, offset: 0x55A977, size: 0x8, addend: 0x0, symName: '__ZN3syn4path7parsing33_$LT$impl$u20$syn..path..Path$GT$12parse_helper17h4163216e5c260008E', symObjAddr: 0x9D40, symBinAddr: 0xFD990, symSize: 0x2F0 }
  - { offsetInCU: 0x323F0, offset: 0x55ACF0, size: 0x8, addend: 0x0, symName: '__ZN3syn4path7parsing33_$LT$impl$u20$syn..path..Path$GT$10parse_rest17h5197131c3c9a8d38E', symObjAddr: 0xA030, symBinAddr: 0xFDC80, symSize: 0x390 }
  - { offsetInCU: 0x32AC2, offset: 0x55B3C2, size: 0x8, addend: 0x0, symName: '__ZN3syn4path7parsing33_$LT$impl$u20$syn..path..Path$GT$12is_mod_style17hb1baf805e22818f3E', symObjAddr: 0xA3C0, symBinAddr: 0xFE010, symSize: 0xB0 }
  - { offsetInCU: 0x1E, offset: 0x560D43, size: 0x8, addend: 0x0, symName: '__ZN4core3ptr100drop_in_place$LT$core..option..Option$LT$alloc..boxed..Box$LT$syn..path..GenericArgument$GT$$GT$$GT$17h3a7c44b9e57fe410E', symObjAddr: 0x0, symBinAddr: 0xFEFC0, symSize: 0x50 }
  - { offsetInCU: 0x1861, offset: 0x562586, size: 0x8, addend: 0x0, symName: '__ZN4core3ptr100drop_in_place$LT$core..option..Option$LT$alloc..boxed..Box$LT$syn..path..GenericArgument$GT$$GT$$GT$17h3a7c44b9e57fe410E', symObjAddr: 0x0, symBinAddr: 0xFEFC0, symSize: 0x50 }
  - { offsetInCU: 0x1AE8, offset: 0x56280D, size: 0x8, addend: 0x0, symName: '__ZN4core3ptr100drop_in_place$LT$syn..punctuated..Punctuated$LT$syn..path..PathSegment$C$syn..token..PathSep$GT$$GT$17he41ef64147139591E', symObjAddr: 0x50, symBinAddr: 0xFF010, symSize: 0x170 }
  - { offsetInCU: 0x2161, offset: 0x562E86, size: 0x8, addend: 0x0, symName: '__ZN4core3ptr103drop_in_place$LT$core..option..Option$LT$alloc..boxed..Box$LT$syn..generics..TypeParamBound$GT$$GT$$GT$17hb14e4384a768542bE', symObjAddr: 0x1C0, symBinAddr: 0xFF180, symSize: 0x50 }
  - { offsetInCU: 0x236C, offset: 0x563091, size: 0x8, addend: 0x0, symName: '__ZN4core3ptr103drop_in_place$LT$syn..punctuated..Punctuated$LT$syn..generics..GenericParam$C$syn..token..Comma$GT$$GT$17h0c6077a988036760E', symObjAddr: 0x210, symBinAddr: 0xFF1D0, symSize: 0xF0 }
  - { offsetInCU: 0x2886, offset: 0x5635AB, size: 0x8, addend: 0x0, symName: '__ZN4core3ptr104drop_in_place$LT$syn..punctuated..Punctuated$LT$syn..generics..TypeParamBound$C$syn..token..Plus$GT$$GT$17h724e4d9d1d65061aE', symObjAddr: 0x300, symBinAddr: 0xFF2C0, symSize: 0x260 }
  - { offsetInCU: 0x32D0, offset: 0x563FF5, size: 0x8, addend: 0x0, symName: '__ZN4core3ptr34drop_in_place$LT$syn..lit..Lit$GT$17hd64dde89a262341dE', symObjAddr: 0x560, symBinAddr: 0xFF520, symSize: 0x120 }
  - { offsetInCU: 0x37BE, offset: 0x5644E3, size: 0x8, addend: 0x0, symName: '__ZN4core3ptr34drop_in_place$LT$syn..pat..Pat$GT$17hf88887878261d63cE', symObjAddr: 0x680, symBinAddr: 0xFF640, symSize: 0x1100 }
  - { offsetInCU: 0x7CE2, offset: 0x568A07, size: 0x8, addend: 0x0, symName: '__ZN4core3ptr34drop_in_place$LT$syn..ty..Type$GT$17ha80dd29b0f9d4a3fE', symObjAddr: 0x1780, symBinAddr: 0x100740, symSize: 0x370 }
  - { offsetInCU: 0x8CA7, offset: 0x5699CC, size: 0x8, addend: 0x0, symName: '__ZN4core3ptr36drop_in_place$LT$syn..expr..Expr$GT$17h10f573b40ddd212cE', symObjAddr: 0x1AF0, symBinAddr: 0x100AB0, symSize: 0x2840 }
  - { offsetInCU: 0x12D85, offset: 0x573AAA, size: 0x8, addend: 0x0, symName: '__ZN4core3ptr36drop_in_place$LT$syn..mac..Macro$GT$17hc3b30a7a8a34cc2dE', symObjAddr: 0x4330, symBinAddr: 0x1032F0, symSize: 0x40 }
  - { offsetInCU: 0x12E3B, offset: 0x573B60, size: 0x8, addend: 0x0, symName: '__ZN4core3ptr36drop_in_place$LT$syn..path..Path$GT$17h75c74a97d5f0a03bE', symObjAddr: 0x4370, symBinAddr: 0x103330, symSize: 0x280 }
  - { offsetInCU: 0x138E8, offset: 0x57460D, size: 0x8, addend: 0x0, symName: '__ZN4core3ptr37drop_in_place$LT$syn..stmt..Block$GT$17h6fc3254d5688f2c3E', symObjAddr: 0x45F0, symBinAddr: 0x1035B0, symSize: 0xD0 }
  - { offsetInCU: 0x13BBF, offset: 0x5748E4, size: 0x8, addend: 0x0, symName: '__ZN4core3ptr38drop_in_place$LT$syn..expr..Member$GT$17h6b0cf84594ce6bceE', symObjAddr: 0x46C0, symBinAddr: 0x103680, symSize: 0x30 }
  - { offsetInCU: 0x13CBB, offset: 0x5749E0, size: 0x8, addend: 0x0, symName: '__ZN4core3ptr38drop_in_place$LT$syn..ty..TypePath$GT$17h6f484b80634b66aeE', symObjAddr: 0x46F0, symBinAddr: 0x1036B0, symSize: 0x70 }
  - { offsetInCU: 0x13E38, offset: 0x574B5D, size: 0x8, addend: 0x0, symName: '__ZN4core3ptr39drop_in_place$LT$proc_macro2..Ident$GT$17ha28fef9769e267d9E', symObjAddr: 0x4760, symBinAddr: 0x103720, symSize: 0x30 }
  - { offsetInCU: 0x13F53, offset: 0x574C78, size: 0x8, addend: 0x0, symName: '__ZN4core3ptr39drop_in_place$LT$syn..ty..BareFnArg$GT$17h06523caf0a2ebe3aE', symObjAddr: 0x4790, symBinAddr: 0x103750, symSize: 0x110 }
  - { offsetInCU: 0x14376, offset: 0x57509B, size: 0x8, addend: 0x0, symName: '__ZN4core3ptr40drop_in_place$LT$syn..ty..ReturnType$GT$17h035a612e322b6510E', symObjAddr: 0x48A0, symBinAddr: 0x103860, symSize: 0x50 }
  - { offsetInCU: 0x1463B, offset: 0x575360, size: 0x8, addend: 0x0, symName: '__ZN4core3ptr40drop_in_place$LT$syn..ty..TypeBareFn$GT$17h5f3260f854352573E', symObjAddr: 0x48F0, symBinAddr: 0x1038B0, symSize: 0x240 }
  - { offsetInCU: 0x14FBB, offset: 0x575CE0, size: 0x8, addend: 0x0, symName: '__ZN4core3ptr41drop_in_place$LT$syn..expr..ExprConst$GT$17hbfe19d5d621e6836E', symObjAddr: 0x4B30, symBinAddr: 0x103AF0, symSize: 0x180 }
  - { offsetInCU: 0x155A8, offset: 0x5762CD, size: 0x8, addend: 0x0, symName: '__ZN4core3ptr44drop_in_place$LT$syn..lifetime..Lifetime$GT$17he37fa474f03de7b1E', symObjAddr: 0x4CB0, symBinAddr: 0x103C70, symSize: 0x30 }
  - { offsetInCU: 0x15720, offset: 0x576445, size: 0x8, addend: 0x0, symName: '__ZN4core3ptr44drop_in_place$LT$syn..parse..ParseBuffer$GT$17hf792ff20095efc35E', symObjAddr: 0x4CE0, symBinAddr: 0x103CA0, symSize: 0x70 }
  - { offsetInCU: 0x15B37, offset: 0x57685C, size: 0x8, addend: 0x0, symName: '__ZN4core3ptr45drop_in_place$LT$proc_macro2..TokenStream$GT$17h76e8e68015f4924dE', symObjAddr: 0x4D50, symBinAddr: 0x103D10, symSize: 0x140 }
  - { offsetInCU: 0x15FD1, offset: 0x576CF6, size: 0x8, addend: 0x0, symName: '__ZN4core3ptr45drop_in_place$LT$syn..generics..TypeParam$GT$17h188a459c1380ac75E', symObjAddr: 0x4E90, symBinAddr: 0x103E50, symSize: 0x230 }
  - { offsetInCU: 0x16846, offset: 0x57756B, size: 0x8, addend: 0x0, symName: '__ZN4core3ptr45drop_in_place$LT$syn..path..PathArguments$GT$17hdbc6dfac6f3334e6E', symObjAddr: 0x50C0, symBinAddr: 0x104080, symSize: 0x190 }
  - { offsetInCU: 0x16D16, offset: 0x577A3B, size: 0x8, addend: 0x0, symName: '__ZN4core3ptr46drop_in_place$LT$syn..generics..ConstParam$GT$17h7a9b900b2b88bfcdE', symObjAddr: 0x5250, symBinAddr: 0x104210, symSize: 0x150 }
  - { offsetInCU: 0x17197, offset: 0x577EBC, size: 0x8, addend: 0x0, symName: '__ZN4core3ptr47drop_in_place$LT$syn..path..GenericArgument$GT$17h593f06d6ca9a94d2E', symObjAddr: 0x53A0, symBinAddr: 0x104360, symSize: 0x4A0 }
  - { offsetInCU: 0x1829D, offset: 0x578FC2, size: 0x8, addend: 0x0, symName: '__ZN4core3ptr49drop_in_place$LT$syn..generics..LifetimeParam$GT$17h3a8835ab294bfd16E', symObjAddr: 0x5840, symBinAddr: 0x104800, symSize: 0xF0 }
  - { offsetInCU: 0x186B4, offset: 0x5793D9, size: 0x8, addend: 0x0, symName: '__ZN4core3ptr50drop_in_place$LT$syn..generics..TypeParamBound$GT$17h81b4325b5900604dE', symObjAddr: 0x5930, symBinAddr: 0x1048F0, symSize: 0xA0 }
  - { offsetInCU: 0x1881A, offset: 0x57953F, size: 0x8, addend: 0x0, symName: '__ZN4core3ptr58drop_in_place$LT$alloc..vec..Vec$LT$syn..expr..Arm$GT$$GT$17hff9224aadf2233b8E', symObjAddr: 0x59D0, symBinAddr: 0x104990, symSize: 0xD0 }
  - { offsetInCU: 0x18ADA, offset: 0x5797FF, size: 0x8, addend: 0x0, symName: '__ZN4core3ptr59drop_in_place$LT$alloc..boxed..Box$LT$syn..pat..Pat$GT$$GT$17h622b0c1db21c0742E', symObjAddr: 0x5AA0, symBinAddr: 0x104A60, symSize: 0x50 }
  - { offsetInCU: 0x18C33, offset: 0x579958, size: 0x8, addend: 0x0, symName: '__ZN4core3ptr59drop_in_place$LT$alloc..boxed..Box$LT$syn..ty..Type$GT$$GT$17hde45fa887dd8b605E', symObjAddr: 0x5AF0, symBinAddr: 0x104AB0, symSize: 0x50 }
  - { offsetInCU: 0x18D8C, offset: 0x579AB1, size: 0x8, addend: 0x0, symName: '__ZN4core3ptr61drop_in_place$LT$alloc..boxed..Box$LT$syn..expr..Expr$GT$$GT$17hbb42293869113942E', symObjAddr: 0x5B40, symBinAddr: 0x104B00, symSize: 0x50 }
  - { offsetInCU: 0x18F61, offset: 0x579C86, size: 0x8, addend: 0x0, symName: '__ZN4core3ptr61drop_in_place$LT$syn..path..ParenthesizedGenericArguments$GT$17h6b1731382637937fE', symObjAddr: 0x5B90, symBinAddr: 0x104B50, symSize: 0x170 }
  - { offsetInCU: 0x19557, offset: 0x57A27C, size: 0x8, addend: 0x0, symName: '__ZN4core3ptr62drop_in_place$LT$syn..path..AngleBracketedGenericArguments$GT$17hf8fa172f007a1473E', symObjAddr: 0x5D00, symBinAddr: 0x104CC0, symSize: 0x120 }
  - { offsetInCU: 0x199A2, offset: 0x57A6C7, size: 0x8, addend: 0x0, symName: '__ZN4core3ptr63drop_in_place$LT$alloc..boxed..Box$LT$syn..lit..LitRepr$GT$$GT$17h6e3a82ea4de7b84cE', symObjAddr: 0x5E20, symBinAddr: 0x104DE0, symSize: 0x60 }
  - { offsetInCU: 0x19CA9, offset: 0x57A9CE, size: 0x8, addend: 0x0, symName: '__ZN4core3ptr64drop_in_place$LT$alloc..boxed..Box$LT$syn..pat..FieldPat$GT$$GT$17hbf8f4867d84bd25dE', symObjAddr: 0x5E80, symBinAddr: 0x104E40, symSize: 0x140 }
  - { offsetInCU: 0x1A36C, offset: 0x57B091, size: 0x8, addend: 0x0, symName: '__ZN4core3ptr64drop_in_place$LT$alloc..boxed..Box$LT$syn..ty..BareFnArg$GT$$GT$17h6be6354eb1d1364dE', symObjAddr: 0x5FC0, symBinAddr: 0x104F80, symSize: 0x140 }
  - { offsetInCU: 0x1A8E2, offset: 0x57B607, size: 0x8, addend: 0x0, symName: '__ZN4core3ptr64drop_in_place$LT$alloc..vec..Vec$LT$syn..attr..Attribute$GT$$GT$17he33e25539d5885aeE', symObjAddr: 0x6100, symBinAddr: 0x1050C0, symSize: 0xD0 }
  - { offsetInCU: 0x1ABD6, offset: 0x57B8FB, size: 0x8, addend: 0x0, symName: '__ZN4core3ptr65drop_in_place$LT$alloc..vec..Vec$LT$proc_macro..TokenTree$GT$$GT$17h8abd81f8596dbc59E', symObjAddr: 0x61D0, symBinAddr: 0x105190, symSize: 0x110 }
  - { offsetInCU: 0x1AFCE, offset: 0x57BCF3, size: 0x8, addend: 0x0, symName: '__ZN4core3ptr65drop_in_place$LT$core..option..Option$LT$syn..expr..Label$GT$$GT$17hac599686b33ef364E', symObjAddr: 0x62E0, symBinAddr: 0x1052A0, symSize: 0x30 }
  - { offsetInCU: 0x1B108, offset: 0x57BE2D, size: 0x8, addend: 0x0, symName: '__ZN4core3ptr65drop_in_place$LT$core..option..Option$LT$syn..path..QSelf$GT$$GT$17h0b8dd5cda5f2cd6bE', symObjAddr: 0x6310, symBinAddr: 0x1052D0, symSize: 0x50 }
  - { offsetInCU: 0x1B289, offset: 0x57BFAE, size: 0x8, addend: 0x0, symName: '__ZN4core3ptr66drop_in_place$LT$core..option..Option$LT$syn..pat..PatRest$GT$$GT$17hd5bb3bc28aa78ac1E', symObjAddr: 0x6360, symBinAddr: 0x105320, symSize: 0xE0 }
  - { offsetInCU: 0x1B5B1, offset: 0x57C2D6, size: 0x8, addend: 0x0, symName: '__ZN4core3ptr67drop_in_place$LT$alloc..boxed..Box$LT$syn..expr..FieldValue$GT$$GT$17hbbcf67a9d5e9863cE', symObjAddr: 0x6440, symBinAddr: 0x105400, symSize: 0x140 }
  - { offsetInCU: 0x1BB1A, offset: 0x57C83F, size: 0x8, addend: 0x0, symName: '__ZN4core3ptr68drop_in_place$LT$alloc..boxed..Box$LT$syn..path..PathSegment$GT$$GT$17h99aaf90b3262bc1eE', symObjAddr: 0x6580, symBinAddr: 0x105540, symSize: 0x1B0 }
  - { offsetInCU: 0x1C228, offset: 0x57CF4D, size: 0x8, addend: 0x0, symName: '__ZN4core3ptr70drop_in_place$LT$core..option..Option$LT$syn..ty..BareVariadic$GT$$GT$17h79a19250e9f043b1E', symObjAddr: 0x6730, symBinAddr: 0x1056F0, symSize: 0x100 }
  - { offsetInCU: 0x1C693, offset: 0x57D3B8, size: 0x8, addend: 0x0, symName: '__ZN4core3ptr72drop_in_place$LT$alloc..boxed..Box$LT$syn..path..GenericArgument$GT$$GT$17hfd308d374af4273dE', symObjAddr: 0x6830, symBinAddr: 0x1057F0, symSize: 0x2B0 }
  - { offsetInCU: 0x1D04B, offset: 0x57DD70, size: 0x8, addend: 0x0, symName: '__ZN4core3ptr72drop_in_place$LT$core..option..Option$LT$syn..lifetime..Lifetime$GT$$GT$17h49cce6f02f9c0590E', symObjAddr: 0x6AE0, symBinAddr: 0x105AA0, symSize: 0x30 }
  - { offsetInCU: 0x1D166, offset: 0x57DE8B, size: 0x8, addend: 0x0, symName: '__ZN4core3ptr73drop_in_place$LT$alloc..boxed..Box$LT$syn..generics..GenericParam$GT$$GT$17ha26d5d145af4b203E', symObjAddr: 0x6B10, symBinAddr: 0x105AD0, symSize: 0x80 }
  - { offsetInCU: 0x1D2DC, offset: 0x57E001, size: 0x8, addend: 0x0, symName: '__ZN4core3ptr75drop_in_place$LT$alloc..boxed..Box$LT$syn..generics..TypeParamBound$GT$$GT$17h129a4e927e5eb81bE', symObjAddr: 0x6B90, symBinAddr: 0x105B50, symSize: 0x1B0 }
  - { offsetInCU: 0x1D9DB, offset: 0x57E700, size: 0x8, addend: 0x0, symName: '__ZN4core3ptr86drop_in_place$LT$syn..punctuated..Punctuated$LT$syn..pat..Pat$C$syn..token..Or$GT$$GT$17h9cc6b5f7b6d3a555E', symObjAddr: 0x6D40, symBinAddr: 0x105D00, symSize: 0x120 }
  - { offsetInCU: 0x1DE56, offset: 0x57EB7B, size: 0x8, addend: 0x0, symName: '__ZN4core3ptr87drop_in_place$LT$core..option..Option$LT$alloc..boxed..Box$LT$syn..pat..Pat$GT$$GT$$GT$17h51cd48973d96c411E', symObjAddr: 0x6E60, symBinAddr: 0x105E20, symSize: 0x50 }
  - { offsetInCU: 0x1DFC6, offset: 0x57ECEB, size: 0x8, addend: 0x0, symName: '__ZN4core3ptr87drop_in_place$LT$core..option..Option$LT$alloc..boxed..Box$LT$syn..ty..Type$GT$$GT$$GT$17h103a25a4a7d7374eE', symObjAddr: 0x6EB0, symBinAddr: 0x105E70, symSize: 0x50 }
  - { offsetInCU: 0x1E136, offset: 0x57EE5B, size: 0x8, addend: 0x0, symName: '__ZN4core3ptr89drop_in_place$LT$core..option..Option$LT$alloc..boxed..Box$LT$syn..expr..Expr$GT$$GT$$GT$17h9e02509cb2345d44E', symObjAddr: 0x6F00, symBinAddr: 0x105EC0, symSize: 0x50 }
  - { offsetInCU: 0x1E2E4, offset: 0x57F009, size: 0x8, addend: 0x0, symName: '__ZN4core3ptr89drop_in_place$LT$syn..punctuated..Punctuated$LT$syn..pat..Pat$C$syn..token..Comma$GT$$GT$17hd3a83c36827f210aE', symObjAddr: 0x6F50, symBinAddr: 0x105F10, symSize: 0x120 }
  - { offsetInCU: 0x1E776, offset: 0x57F49B, size: 0x8, addend: 0x0, symName: '__ZN4core3ptr89drop_in_place$LT$syn..punctuated..Punctuated$LT$syn..ty..Type$C$syn..token..Comma$GT$$GT$17he030c4b7f24a5848E', symObjAddr: 0x7070, symBinAddr: 0x106030, symSize: 0x120 }
  - { offsetInCU: 0x1EBF1, offset: 0x57F916, size: 0x8, addend: 0x0, symName: '__ZN4core3ptr90drop_in_place$LT$core..option..Option$LT$syn..path..AngleBracketedGenericArguments$GT$$GT$17ha307713a95a0671eE', symObjAddr: 0x7190, symBinAddr: 0x106150, symSize: 0x130 }
  - { offsetInCU: 0x1F093, offset: 0x57FDB8, size: 0x8, addend: 0x0, symName: '__ZN4core3ptr91drop_in_place$LT$syn..punctuated..Punctuated$LT$syn..expr..Expr$C$syn..token..Comma$GT$$GT$17h6f261e8f470c81f2E', symObjAddr: 0x72C0, symBinAddr: 0x106280, symSize: 0x120 }
  - { offsetInCU: 0x1F521, offset: 0x580246, size: 0x8, addend: 0x0, symName: '__ZN4core3ptr92drop_in_place$LT$core..option..Option$LT$alloc..boxed..Box$LT$syn..ty..BareFnArg$GT$$GT$$GT$17h4cd94c9c19d1a032E', symObjAddr: 0x73E0, symBinAddr: 0x1063A0, symSize: 0x50 }
  - { offsetInCU: 0x1F691, offset: 0x5803B6, size: 0x8, addend: 0x0, symName: '__ZN4core3ptr94drop_in_place$LT$syn..punctuated..Punctuated$LT$syn..pat..FieldPat$C$syn..token..Comma$GT$$GT$17h43ec25af986ef674E', symObjAddr: 0x7430, symBinAddr: 0x1063F0, symSize: 0xF0 }
  - { offsetInCU: 0x1F990, offset: 0x5806B5, size: 0x8, addend: 0x0, symName: '__ZN4core3ptr94drop_in_place$LT$syn..punctuated..Punctuated$LT$syn..ty..BareFnArg$C$syn..token..Comma$GT$$GT$17h7ba4c699ee390ebaE', symObjAddr: 0x7520, symBinAddr: 0x1064E0, symSize: 0xF0 }
  - { offsetInCU: 0x1FC91, offset: 0x5809B6, size: 0x8, addend: 0x0, symName: '__ZN4core3ptr96drop_in_place$LT$core..option..Option$LT$alloc..boxed..Box$LT$syn..path..PathSegment$GT$$GT$$GT$17h5de12a5a0f9e9ef9E', symObjAddr: 0x7610, symBinAddr: 0x1065D0, symSize: 0xA0 }
  - { offsetInCU: 0x1FF10, offset: 0x580C35, size: 0x8, addend: 0x0, symName: '__ZN4core3ptr97drop_in_place$LT$syn..punctuated..Punctuated$LT$syn..expr..FieldValue$C$syn..token..Comma$GT$$GT$17hf58d0a9a09266ab3E', symObjAddr: 0x76B0, symBinAddr: 0x106670, symSize: 0xF0 }
  - { offsetInCU: 0x2020D, offset: 0x580F32, size: 0x8, addend: 0x0, symName: '__ZN4core3ptr98drop_in_place$LT$alloc..vec..Vec$LT$$LP$syn..path..GenericArgument$C$syn..token..Comma$RP$$GT$$GT$17h0dee282a026d5a38E', symObjAddr: 0x77A0, symBinAddr: 0x106760, symSize: 0xD0 }
  - { offsetInCU: 0x2054D, offset: 0x581272, size: 0x8, addend: 0x0, symName: '__ZN4core3ptr98drop_in_place$LT$syn..punctuated..Punctuated$LT$syn..lifetime..Lifetime$C$syn..token..Plus$GT$$GT$17h600c2b78f78fd2b9E', symObjAddr: 0x7870, symBinAddr: 0x106830, symSize: 0xD0 }
  - { offsetInCU: 0x256A5, offset: 0x5863CA, size: 0x8, addend: 0x0, symName: __ZN3syn2ty7parsing8ambig_ty17hc9e14757ece56b97E, symObjAddr: 0x7980, symBinAddr: 0x106940, symSize: 0x3F30 }
  - { offsetInCU: 0x2F5D5, offset: 0x5902FA, size: 0x8, addend: 0x0, symName: __ZN3syn2ty7parsing17parse_bare_fn_arg17hca0453b7e81f84abE, symObjAddr: 0xB8B0, symBinAddr: 0x10A870, symSize: 0xCA0 }
  - { offsetInCU: 0x31857, offset: 0x59257C, size: 0x8, addend: 0x0, symName: __ZN3syn2ty7parsing19parse_bare_variadic17h39c18671415c91ecE, symObjAddr: 0xC550, symBinAddr: 0x10B510, symSize: 0x5E1 }
  - { offsetInCU: 0x370A0, offset: 0x597DC5, size: 0x8, addend: 0x0, symName: __ZN5alloc5alloc15exchange_malloc17h9a87608d0224859dE, symObjAddr: 0x7940, symBinAddr: 0x106900, symSize: 0x40 }
  - { offsetInCU: 0x1E, offset: 0x5A2A28, size: 0x8, addend: 0x0, symName: __ZN4core3ops8function6FnOnce9call_once17h9b6e03ddcec114ceE, symObjAddr: 0x0, symBinAddr: 0x10BB00, symSize: 0x140 }
  - { offsetInCU: 0x18FF, offset: 0x5A4309, size: 0x8, addend: 0x0, symName: '__ZN4core3ptr100drop_in_place$LT$core..option..Option$LT$alloc..boxed..Box$LT$syn..path..GenericArgument$GT$$GT$$GT$17h3a7c44b9e57fe410E', symObjAddr: 0x140, symBinAddr: 0x10BC40, symSize: 0x50 }
  - { offsetInCU: 0x1C9D, offset: 0x5A46A7, size: 0x8, addend: 0x0, symName: '__ZN4core3ptr100drop_in_place$LT$syn..punctuated..Punctuated$LT$syn..path..PathSegment$C$syn..token..PathSep$GT$$GT$17he41ef64147139591E', symObjAddr: 0x190, symBinAddr: 0x10BC90, symSize: 0x2B0 }
  - { offsetInCU: 0x2734, offset: 0x5A513E, size: 0x8, addend: 0x0, symName: '__ZN4core3ptr102drop_in_place$LT$syn..punctuated..Punctuated$LT$syn..path..GenericArgument$C$syn..token..Comma$GT$$GT$17h8b1978399cfff48bE', symObjAddr: 0x440, symBinAddr: 0x10BF40, symSize: 0xF0 }
  - { offsetInCU: 0x2A54, offset: 0x5A545E, size: 0x8, addend: 0x0, symName: '__ZN4core3ptr103drop_in_place$LT$core..option..Option$LT$alloc..boxed..Box$LT$syn..generics..TypeParamBound$GT$$GT$$GT$17hb14e4384a768542bE', symObjAddr: 0x530, symBinAddr: 0x10C030, symSize: 0x50 }
  - { offsetInCU: 0x2C5F, offset: 0x5A5669, size: 0x8, addend: 0x0, symName: '__ZN4core3ptr103drop_in_place$LT$syn..punctuated..Punctuated$LT$syn..generics..GenericParam$C$syn..token..Comma$GT$$GT$17h0c6077a988036760E', symObjAddr: 0x580, symBinAddr: 0x10C080, symSize: 0xF0 }
  - { offsetInCU: 0x3179, offset: 0x5A5B83, size: 0x8, addend: 0x0, symName: '__ZN4core3ptr104drop_in_place$LT$syn..punctuated..Punctuated$LT$syn..generics..TypeParamBound$C$syn..token..Plus$GT$$GT$17h724e4d9d1d65061aE', symObjAddr: 0x670, symBinAddr: 0x10C170, symSize: 0x260 }
  - { offsetInCU: 0x3BC3, offset: 0x5A65CD, size: 0x8, addend: 0x0, symName: '__ZN4core3ptr34drop_in_place$LT$syn..lit..Lit$GT$17hd64dde89a262341dE', symObjAddr: 0x8D0, symBinAddr: 0x10C3D0, symSize: 0x120 }
  - { offsetInCU: 0x4092, offset: 0x5A6A9C, size: 0x8, addend: 0x0, symName: '__ZN4core3ptr34drop_in_place$LT$syn..pat..Pat$GT$17hf88887878261d63cE.llvm.7756622533301018396', symObjAddr: 0x9F0, symBinAddr: 0x10C4F0, symSize: 0x1100 }
  - { offsetInCU: 0x870B, offset: 0x5AB115, size: 0x8, addend: 0x0, symName: '__ZN4core3ptr34drop_in_place$LT$syn..ty..Type$GT$17ha80dd29b0f9d4a3fE', symObjAddr: 0x1AF0, symBinAddr: 0x10D5F0, symSize: 0x460 }
  - { offsetInCU: 0x9905, offset: 0x5AC30F, size: 0x8, addend: 0x0, symName: '__ZN4core3ptr36drop_in_place$LT$syn..expr..Expr$GT$17h10f573b40ddd212cE', symObjAddr: 0x1F50, symBinAddr: 0x10DA50, symSize: 0x2680 }
  - { offsetInCU: 0x1320D, offset: 0x5B5C17, size: 0x8, addend: 0x0, symName: '__ZN4core3ptr36drop_in_place$LT$syn..mac..Macro$GT$17hc3b30a7a8a34cc2dE', symObjAddr: 0x45D0, symBinAddr: 0x1100D0, symSize: 0x40 }
  - { offsetInCU: 0x13247, offset: 0x5B5C51, size: 0x8, addend: 0x0, symName: '__ZN4core3ptr36drop_in_place$LT$syn..path..Path$GT$17h75c74a97d5f0a03bE', symObjAddr: 0x4610, symBinAddr: 0x110110, symSize: 0x280 }
  - { offsetInCU: 0x13CF4, offset: 0x5B66FE, size: 0x8, addend: 0x0, symName: '__ZN4core3ptr37drop_in_place$LT$syn..stmt..Block$GT$17h6fc3254d5688f2c3E', symObjAddr: 0x4890, symBinAddr: 0x110390, symSize: 0xD0 }
  - { offsetInCU: 0x13FCB, offset: 0x5B69D5, size: 0x8, addend: 0x0, symName: '__ZN4core3ptr38drop_in_place$LT$syn..expr..Member$GT$17h6b0cf84594ce6bceE', symObjAddr: 0x4960, symBinAddr: 0x110460, symSize: 0x30 }
  - { offsetInCU: 0x140C7, offset: 0x5B6AD1, size: 0x8, addend: 0x0, symName: '__ZN4core3ptr39drop_in_place$LT$proc_macro2..Ident$GT$17ha28fef9769e267d9E', symObjAddr: 0x4990, symBinAddr: 0x110490, symSize: 0x30 }
  - { offsetInCU: 0x141A4, offset: 0x5B6BAE, size: 0x8, addend: 0x0, symName: '__ZN4core3ptr40drop_in_place$LT$syn..ty..ReturnType$GT$17h035a612e322b6510E', symObjAddr: 0x49C0, symBinAddr: 0x1104C0, symSize: 0x50 }
  - { offsetInCU: 0x14314, offset: 0x5B6D1E, size: 0x8, addend: 0x0, symName: '__ZN4core3ptr41drop_in_place$LT$syn..expr..ExprConst$GT$17hbfe19d5d621e6836E', symObjAddr: 0x4A10, symBinAddr: 0x110510, symSize: 0x180 }
  - { offsetInCU: 0x14901, offset: 0x5B730B, size: 0x8, addend: 0x0, symName: '__ZN4core3ptr41drop_in_place$LT$syn..expr..ExprRange$GT$17h5f34acbd70b64c7fE', symObjAddr: 0x4B90, symBinAddr: 0x110690, symSize: 0x160 }
  - { offsetInCU: 0x14EC9, offset: 0x5B78D3, size: 0x8, addend: 0x0, symName: '__ZN4core3ptr44drop_in_place$LT$syn..lifetime..Lifetime$GT$17he37fa474f03de7b1E', symObjAddr: 0x4CF0, symBinAddr: 0x1107F0, symSize: 0x30 }
  - { offsetInCU: 0x15041, offset: 0x5B7A4B, size: 0x8, addend: 0x0, symName: '__ZN4core3ptr44drop_in_place$LT$syn..parse..ParseBuffer$GT$17hf792ff20095efc35E.llvm.7756622533301018396', symObjAddr: 0x4D20, symBinAddr: 0x110820, symSize: 0x70 }
  - { offsetInCU: 0x15458, offset: 0x5B7E62, size: 0x8, addend: 0x0, symName: '__ZN4core3ptr45drop_in_place$LT$proc_macro2..TokenStream$GT$17h76e8e68015f4924dE', symObjAddr: 0x4D90, symBinAddr: 0x110890, symSize: 0x140 }
  - { offsetInCU: 0x158F2, offset: 0x5B82FC, size: 0x8, addend: 0x0, symName: '__ZN4core3ptr45drop_in_place$LT$syn..generics..TypeParam$GT$17h188a459c1380ac75E', symObjAddr: 0x4ED0, symBinAddr: 0x1109D0, symSize: 0x230 }
  - { offsetInCU: 0x16167, offset: 0x5B8B71, size: 0x8, addend: 0x0, symName: '__ZN4core3ptr46drop_in_place$LT$syn..generics..ConstParam$GT$17h7a9b900b2b88bfcdE', symObjAddr: 0x5100, symBinAddr: 0x110C00, symSize: 0x150 }
  - { offsetInCU: 0x165E8, offset: 0x5B8FF2, size: 0x8, addend: 0x0, symName: '__ZN4core3ptr47drop_in_place$LT$syn..path..GenericArgument$GT$17h593f06d6ca9a94d2E', symObjAddr: 0x5250, symBinAddr: 0x110D50, symSize: 0x450 }
  - { offsetInCU: 0x1735E, offset: 0x5B9D68, size: 0x8, addend: 0x0, symName: '__ZN4core3ptr49drop_in_place$LT$syn..generics..LifetimeParam$GT$17h3a8835ab294bfd16E', symObjAddr: 0x56A0, symBinAddr: 0x1111A0, symSize: 0xF0 }
  - { offsetInCU: 0x17775, offset: 0x5BA17F, size: 0x8, addend: 0x0, symName: '__ZN4core3ptr50drop_in_place$LT$syn..generics..TypeParamBound$GT$17h81b4325b5900604dE', symObjAddr: 0x5790, symBinAddr: 0x111290, symSize: 0xA0 }
  - { offsetInCU: 0x178DB, offset: 0x5BA2E5, size: 0x8, addend: 0x0, symName: '__ZN4core3ptr53drop_in_place$LT$syn..pat..parsing..PatRangeBound$GT$17h893942965b8bddb3E', symObjAddr: 0x5830, symBinAddr: 0x111330, symSize: 0x230 }
  - { offsetInCU: 0x18071, offset: 0x5BAA7B, size: 0x8, addend: 0x0, symName: '__ZN4core3ptr58drop_in_place$LT$alloc..vec..Vec$LT$syn..expr..Arm$GT$$GT$17hff9224aadf2233b8E', symObjAddr: 0x5A60, symBinAddr: 0x111560, symSize: 0xD0 }
  - { offsetInCU: 0x18331, offset: 0x5BAD3B, size: 0x8, addend: 0x0, symName: '__ZN4core3ptr59drop_in_place$LT$alloc..boxed..Box$LT$syn..pat..Pat$GT$$GT$17h622b0c1db21c0742E', symObjAddr: 0x5B30, symBinAddr: 0x111630, symSize: 0x50 }
  - { offsetInCU: 0x1848A, offset: 0x5BAE94, size: 0x8, addend: 0x0, symName: '__ZN4core3ptr59drop_in_place$LT$alloc..boxed..Box$LT$syn..ty..Type$GT$$GT$17hde45fa887dd8b605E', symObjAddr: 0x5B80, symBinAddr: 0x111680, symSize: 0x50 }
  - { offsetInCU: 0x185E3, offset: 0x5BAFED, size: 0x8, addend: 0x0, symName: '__ZN4core3ptr61drop_in_place$LT$alloc..boxed..Box$LT$syn..expr..Expr$GT$$GT$17hbb42293869113942E', symObjAddr: 0x5BD0, symBinAddr: 0x1116D0, symSize: 0x50 }
  - { offsetInCU: 0x187B8, offset: 0x5BB1C2, size: 0x8, addend: 0x0, symName: '__ZN4core3ptr61drop_in_place$LT$syn..path..ParenthesizedGenericArguments$GT$17h6b1731382637937fE', symObjAddr: 0x5C20, symBinAddr: 0x111720, symSize: 0x170 }
  - { offsetInCU: 0x18DAE, offset: 0x5BB7B8, size: 0x8, addend: 0x0, symName: '__ZN4core3ptr63drop_in_place$LT$alloc..boxed..Box$LT$syn..lit..LitRepr$GT$$GT$17h6e3a82ea4de7b84cE', symObjAddr: 0x5D90, symBinAddr: 0x111890, symSize: 0x60 }
  - { offsetInCU: 0x190B5, offset: 0x5BBABF, size: 0x8, addend: 0x0, symName: '__ZN4core3ptr64drop_in_place$LT$alloc..boxed..Box$LT$syn..pat..FieldPat$GT$$GT$17hbf8f4867d84bd25dE', symObjAddr: 0x5DF0, symBinAddr: 0x1118F0, symSize: 0x140 }
  - { offsetInCU: 0x197B6, offset: 0x5BC1C0, size: 0x8, addend: 0x0, symName: '__ZN4core3ptr64drop_in_place$LT$alloc..boxed..Box$LT$syn..ty..BareFnArg$GT$$GT$17h6be6354eb1d1364dE', symObjAddr: 0x5F30, symBinAddr: 0x111A30, symSize: 0x140 }
  - { offsetInCU: 0x19D3F, offset: 0x5BC749, size: 0x8, addend: 0x0, symName: '__ZN4core3ptr64drop_in_place$LT$alloc..vec..Vec$LT$syn..attr..Attribute$GT$$GT$17he33e25539d5885aeE.llvm.7756622533301018396', symObjAddr: 0x6070, symBinAddr: 0x111B70, symSize: 0xD0 }
  - { offsetInCU: 0x1A033, offset: 0x5BCA3D, size: 0x8, addend: 0x0, symName: '__ZN4core3ptr65drop_in_place$LT$alloc..vec..Vec$LT$proc_macro..TokenTree$GT$$GT$17h8abd81f8596dbc59E', symObjAddr: 0x6140, symBinAddr: 0x111C40, symSize: 0x110 }
  - { offsetInCU: 0x1A42B, offset: 0x5BCE35, size: 0x8, addend: 0x0, symName: '__ZN4core3ptr65drop_in_place$LT$core..option..Option$LT$syn..expr..Label$GT$$GT$17hac599686b33ef364E', symObjAddr: 0x6250, symBinAddr: 0x111D50, symSize: 0x30 }
  - { offsetInCU: 0x1A565, offset: 0x5BCF6F, size: 0x8, addend: 0x0, symName: '__ZN4core3ptr65drop_in_place$LT$core..option..Option$LT$syn..path..QSelf$GT$$GT$17h0b8dd5cda5f2cd6bE', symObjAddr: 0x6280, symBinAddr: 0x111D80, symSize: 0x50 }
  - { offsetInCU: 0x1A6E6, offset: 0x5BD0F0, size: 0x8, addend: 0x0, symName: '__ZN4core3ptr66drop_in_place$LT$core..option..Option$LT$syn..pat..PatRest$GT$$GT$17hd5bb3bc28aa78ac1E', symObjAddr: 0x62D0, symBinAddr: 0x111DD0, symSize: 0xE0 }
  - { offsetInCU: 0x1AA0E, offset: 0x5BD418, size: 0x8, addend: 0x0, symName: '__ZN4core3ptr67drop_in_place$LT$alloc..boxed..Box$LT$syn..expr..FieldValue$GT$$GT$17hbbcf67a9d5e9863cE', symObjAddr: 0x63B0, symBinAddr: 0x111EB0, symSize: 0x140 }
  - { offsetInCU: 0x1AF77, offset: 0x5BD981, size: 0x8, addend: 0x0, symName: '__ZN4core3ptr68drop_in_place$LT$alloc..boxed..Box$LT$syn..path..PathSegment$GT$$GT$17h99aaf90b3262bc1eE', symObjAddr: 0x64F0, symBinAddr: 0x111FF0, symSize: 0x1B0 }
  - { offsetInCU: 0x1B685, offset: 0x5BE08F, size: 0x8, addend: 0x0, symName: '__ZN4core3ptr70drop_in_place$LT$core..option..Option$LT$syn..ty..BareVariadic$GT$$GT$17h79a19250e9f043b1E', symObjAddr: 0x66A0, symBinAddr: 0x1121A0, symSize: 0x100 }
  - { offsetInCU: 0x1BAF0, offset: 0x5BE4FA, size: 0x8, addend: 0x0, symName: '__ZN4core3ptr72drop_in_place$LT$alloc..boxed..Box$LT$syn..path..GenericArgument$GT$$GT$17hfd308d374af4273dE', symObjAddr: 0x67A0, symBinAddr: 0x1122A0, symSize: 0x2B0 }
  - { offsetInCU: 0x1C501, offset: 0x5BEF0B, size: 0x8, addend: 0x0, symName: '__ZN4core3ptr72drop_in_place$LT$core..option..Option$LT$syn..lifetime..Lifetime$GT$$GT$17h49cce6f02f9c0590E', symObjAddr: 0x6A50, symBinAddr: 0x112550, symSize: 0x30 }
  - { offsetInCU: 0x1C61C, offset: 0x5BF026, size: 0x8, addend: 0x0, symName: '__ZN4core3ptr73drop_in_place$LT$alloc..boxed..Box$LT$syn..generics..GenericParam$GT$$GT$17ha26d5d145af4b203E', symObjAddr: 0x6A80, symBinAddr: 0x112580, symSize: 0x80 }
  - { offsetInCU: 0x1C792, offset: 0x5BF19C, size: 0x8, addend: 0x0, symName: '__ZN4core3ptr75drop_in_place$LT$alloc..boxed..Box$LT$syn..generics..TypeParamBound$GT$$GT$17h129a4e927e5eb81bE', symObjAddr: 0x6B00, symBinAddr: 0x112600, symSize: 0x1B0 }
  - { offsetInCU: 0x1CE91, offset: 0x5BF89B, size: 0x8, addend: 0x0, symName: '__ZN4core3ptr86drop_in_place$LT$syn..punctuated..Punctuated$LT$syn..pat..Pat$C$syn..token..Or$GT$$GT$17h9cc6b5f7b6d3a555E', symObjAddr: 0x6CB0, symBinAddr: 0x1127B0, symSize: 0x120 }
  - { offsetInCU: 0x1D323, offset: 0x5BFD2D, size: 0x8, addend: 0x0, symName: '__ZN4core3ptr87drop_in_place$LT$core..option..Option$LT$alloc..boxed..Box$LT$syn..pat..Pat$GT$$GT$$GT$17h51cd48973d96c411E', symObjAddr: 0x6DD0, symBinAddr: 0x1128D0, symSize: 0x50 }
  - { offsetInCU: 0x1D493, offset: 0x5BFE9D, size: 0x8, addend: 0x0, symName: '__ZN4core3ptr87drop_in_place$LT$core..option..Option$LT$alloc..boxed..Box$LT$syn..ty..Type$GT$$GT$$GT$17h103a25a4a7d7374eE', symObjAddr: 0x6E20, symBinAddr: 0x112920, symSize: 0x50 }
  - { offsetInCU: 0x1D603, offset: 0x5C000D, size: 0x8, addend: 0x0, symName: '__ZN4core3ptr89drop_in_place$LT$core..option..Option$LT$alloc..boxed..Box$LT$syn..expr..Expr$GT$$GT$$GT$17h9e02509cb2345d44E', symObjAddr: 0x6E70, symBinAddr: 0x112970, symSize: 0x50 }
  - { offsetInCU: 0x1D7B1, offset: 0x5C01BB, size: 0x8, addend: 0x0, symName: '__ZN4core3ptr89drop_in_place$LT$syn..punctuated..Punctuated$LT$syn..pat..Pat$C$syn..token..Comma$GT$$GT$17hd3a83c36827f210aE', symObjAddr: 0x6EC0, symBinAddr: 0x1129C0, symSize: 0x120 }
  - { offsetInCU: 0x1DC2C, offset: 0x5C0636, size: 0x8, addend: 0x0, symName: '__ZN4core3ptr89drop_in_place$LT$syn..punctuated..Punctuated$LT$syn..ty..Type$C$syn..token..Comma$GT$$GT$17he030c4b7f24a5848E', symObjAddr: 0x6FE0, symBinAddr: 0x112AE0, symSize: 0x120 }
  - { offsetInCU: 0x1E0E5, offset: 0x5C0AEF, size: 0x8, addend: 0x0, symName: '__ZN4core3ptr91drop_in_place$LT$syn..punctuated..Punctuated$LT$syn..expr..Expr$C$syn..token..Comma$GT$$GT$17h6f261e8f470c81f2E', symObjAddr: 0x7100, symBinAddr: 0x112C00, symSize: 0x120 }
  - { offsetInCU: 0x1E573, offset: 0x5C0F7D, size: 0x8, addend: 0x0, symName: '__ZN4core3ptr94drop_in_place$LT$syn..punctuated..Punctuated$LT$syn..pat..FieldPat$C$syn..token..Comma$GT$$GT$17h43ec25af986ef674E', symObjAddr: 0x7220, symBinAddr: 0x112D20, symSize: 0xF0 }
  - { offsetInCU: 0x1E872, offset: 0x5C127C, size: 0x8, addend: 0x0, symName: '__ZN4core3ptr94drop_in_place$LT$syn..punctuated..Punctuated$LT$syn..ty..BareFnArg$C$syn..token..Comma$GT$$GT$17h7ba4c699ee390ebaE', symObjAddr: 0x7310, symBinAddr: 0x112E10, symSize: 0xF0 }
  - { offsetInCU: 0x1EB73, offset: 0x5C157D, size: 0x8, addend: 0x0, symName: '__ZN4core3ptr96drop_in_place$LT$core..option..Option$LT$alloc..boxed..Box$LT$syn..path..PathSegment$GT$$GT$$GT$17h5de12a5a0f9e9ef9E', symObjAddr: 0x7400, symBinAddr: 0x112F00, symSize: 0x1A0 }
  - { offsetInCU: 0x1F234, offset: 0x5C1C3E, size: 0x8, addend: 0x0, symName: '__ZN4core3ptr97drop_in_place$LT$syn..punctuated..Punctuated$LT$syn..expr..FieldValue$C$syn..token..Comma$GT$$GT$17hf58d0a9a09266ab3E', symObjAddr: 0x75A0, symBinAddr: 0x1130A0, symSize: 0xF0 }
  - { offsetInCU: 0x1F5AD, offset: 0x5C1FB7, size: 0x8, addend: 0x0, symName: '__ZN4core3ptr98drop_in_place$LT$syn..punctuated..Punctuated$LT$syn..lifetime..Lifetime$C$syn..token..Plus$GT$$GT$17h600c2b78f78fd2b9E', symObjAddr: 0x7690, symBinAddr: 0x113190, symSize: 0xD0 }
  - { offsetInCU: 0x2398D, offset: 0x5C6397, size: 0x8, addend: 0x0, symName: __ZN4core3ops8function6FnOnce9call_once17h9b6e03ddcec114ceE, symObjAddr: 0x0, symBinAddr: 0x10BB00, symSize: 0x140 }
  - { offsetInCU: 0x24358, offset: 0x5C6D62, size: 0x8, addend: 0x0, symName: __ZN3syn3pat7parsing14multi_pat_impl17hcb7ead266b19167eE, symObjAddr: 0x77A0, symBinAddr: 0x1132A0, symSize: 0x3E0 }
  - { offsetInCU: 0x24D12, offset: 0x5C771C, size: 0x8, addend: 0x0, symName: __ZN3syn3pat7parsing36pat_path_or_macro_or_struct_or_range17h08835c5e4942d9d8E, symObjAddr: 0x7B80, symBinAddr: 0x113680, symSize: 0x2380 }
  - { offsetInCU: 0x28AEA, offset: 0x5CB4F4, size: 0x8, addend: 0x0, symName: __ZN3syn3pat7parsing8pat_wild17h64f82d40ff9e29f1E, symObjAddr: 0x9F00, symBinAddr: 0x115A00, symSize: 0xA0 }
  - { offsetInCU: 0x28BF5, offset: 0x5CB5FF, size: 0x8, addend: 0x0, symName: __ZN3syn3pat7parsing7pat_box17hd1a87ed47fc58e23E, symObjAddr: 0x9FA0, symBinAddr: 0x115AA0, symSize: 0x210 }
  - { offsetInCU: 0x28F34, offset: 0x5CB93E, size: 0x8, addend: 0x0, symName: __ZN3syn3pat7parsing9pat_ident17h3c5ee63b13f21fffE, symObjAddr: 0xA1B0, symBinAddr: 0x115CB0, symSize: 0x560 }
  - { offsetInCU: 0x299C8, offset: 0x5CC3D2, size: 0x8, addend: 0x0, symName: __ZN3syn3pat7parsing19pat_range_half_open17ha7d76f1492ca26d0E, symObjAddr: 0xA710, symBinAddr: 0x116210, symSize: 0x340 }
  - { offsetInCU: 0x29D8E, offset: 0x5CC798, size: 0x8, addend: 0x0, symName: __ZN3syn3pat7parsing18pat_paren_or_tuple17h690eced4637a57e1E, symObjAddr: 0xAA50, symBinAddr: 0x116550, symSize: 0x640 }
  - { offsetInCU: 0x2A52E, offset: 0x5CCF38, size: 0x8, addend: 0x0, symName: __ZN3syn3pat7parsing13pat_reference17h9ef5d031dc8f4ab0E, symObjAddr: 0xB090, symBinAddr: 0x116B90, symSize: 0x290 }
  - { offsetInCU: 0x2A906, offset: 0x5CD310, size: 0x8, addend: 0x0, symName: __ZN3syn3pat7parsing16pat_lit_or_range17ha14b698b01ae22d4E, symObjAddr: 0xB320, symBinAddr: 0x116E20, symSize: 0x5F0 }
