---
triple:          'x86_64-apple-darwin'
binary-path:     "/Users/justinlanouette/Chaos/ChaöS-Token/hello_world/target/release/deps/libproc_macro_error_attr-b827cd491145d78a.dylib"
relocations:
  - { offsetInCU: 0x1E, offset: 0x1E, size: 0x8, addend: 0x0, symName: __ZN5alloc7raw_vec11finish_grow17he6c71efa495263bbE.llvm.12800120062682129627, symObjAddr: 0x0, symBinAddr: 0x2170, symSize: 0xA0 }
  - { offsetInCU: 0x1307, offset: 0x1307, size: 0x8, addend: 0x0, symName: __ZN5alloc7raw_vec11finish_grow17he6c71efa495263bbE.llvm.12800120062682129627, symObjAddr: 0x0, symBinAddr: 0x2170, symSize: 0xA0 }
  - { offsetInCU: 0x184E, offset: 0x184E, size: 0x8, addend: 0x0, symName: '__ZN5alloc7raw_vec19RawVec$LT$T$C$A$GT$7reserve21do_reserve_and_handle17h503830d5b19eb672E', symObjAddr: 0x3D0, symBinAddr: 0x5A5A0, symSize: 0xB0 }
  - { offsetInCU: 0x1B8D, offset: 0x1B8D, size: 0x8, addend: 0x0, symName: '__ZN77_$LT$alloc..raw_vec..RawVec$LT$T$C$A$GT$$u20$as$u20$core..ops..drop..Drop$GT$4drop17h7c1850468266b989E', symObjAddr: 0x5D0, symBinAddr: 0x2440, symSize: 0x0 }
  - { offsetInCU: 0x2BBF, offset: 0x2BBF, size: 0x8, addend: 0x0, symName: '__ZN5alloc7raw_vec19RawVec$LT$T$C$A$GT$16reserve_for_push17h2744111240fed70aE', symObjAddr: 0x1A0, symBinAddr: 0x2210, symSize: 0x0 }
  - { offsetInCU: 0x30C9, offset: 0x30C9, size: 0x8, addend: 0x0, symName: '__ZN5alloc7raw_vec19RawVec$LT$T$C$A$GT$16reserve_for_push17h8f8bc67b93ab1d49E', symObjAddr: 0x250, symBinAddr: 0x22C0, symSize: 0xC0 }
  - { offsetInCU: 0x359A, offset: 0x359A, size: 0x8, addend: 0x0, symName: '__ZN5alloc7raw_vec19RawVec$LT$T$C$A$GT$16reserve_for_push17hadb169b0922f92dfE', symObjAddr: 0x310, symBinAddr: 0x2380, symSize: 0xC0 }
  - { offsetInCU: 0x1E, offset: 0x3975, size: 0x8, addend: 0x0, symName: '__ZN4core3ptr37drop_in_place$LT$core..fmt..Error$GT$17hf5eef1508e019144E', symObjAddr: 0x0, symBinAddr: 0x2470, symSize: 0x10 }
  - { offsetInCU: 0xAF, offset: 0x3A06, size: 0x8, addend: 0x0, symName: '__ZN58_$LT$alloc..string..String$u20$as$u20$core..fmt..Write$GT$10write_char17hd329c0cb943f081aE', symObjAddr: 0x1A0, symBinAddr: 0x2610, symSize: 0x130 }
  - { offsetInCU: 0x456, offset: 0x3DAD, size: 0x8, addend: 0x0, symName: '__ZN58_$LT$alloc..string..String$u20$as$u20$core..fmt..Write$GT$9write_str17h1ff5aa96ca91c6d5E', symObjAddr: 0x2D0, symBinAddr: 0x2740, symSize: 0x60 }
  - { offsetInCU: 0x6BA, offset: 0x4011, size: 0x8, addend: 0x0, symName: '__ZN60_$LT$alloc..string..String$u20$as$u20$core..fmt..Display$GT$3fmt17hc365578c40090489E', symObjAddr: 0x330, symBinAddr: 0x27A0, symSize: 0x20 }
  - { offsetInCU: 0x178B, offset: 0x50E2, size: 0x8, addend: 0x0, symName: '__ZN4core3ptr37drop_in_place$LT$core..fmt..Error$GT$17hf5eef1508e019144E', symObjAddr: 0x0, symBinAddr: 0x2470, symSize: 0x10 }
  - { offsetInCU: 0x17F5, offset: 0x514C, size: 0x8, addend: 0x0, symName: '__ZN4core3ptr42drop_in_place$LT$alloc..string..String$GT$17h3bc1bf45f2831202E', symObjAddr: 0x10, symBinAddr: 0x2480, symSize: 0x20 }
  - { offsetInCU: 0x1B2C, offset: 0x5483, size: 0x8, addend: 0x0, symName: '__ZN4core3ptr43drop_in_place$LT$proc_macro2..TokenTree$GT$17h227b1a1da352873bE', symObjAddr: 0x30, symBinAddr: 0x24A0, symSize: 0xB0 }
  - { offsetInCU: 0x1EDB, offset: 0x5832, size: 0x8, addend: 0x0, symName: '__ZN4core3ptr56drop_in_place$LT$proc_macro2..token_stream..IntoIter$GT$17h881bd1757940c601E', symObjAddr: 0xE0, symBinAddr: 0x2550, symSize: 0x20 }
  - { offsetInCU: 0x1FAA, offset: 0x5901, size: 0x8, addend: 0x0, symName: '__ZN4core3ptr65drop_in_place$LT$alloc..vec..Vec$LT$alloc..string..String$GT$$GT$17h34191c683a62bc9dE', symObjAddr: 0x100, symBinAddr: 0x2570, symSize: 0x80 }
  - { offsetInCU: 0x2551, offset: 0x5EA8, size: 0x8, addend: 0x0, symName: '__ZN53_$LT$core..fmt..Error$u20$as$u20$core..fmt..Debug$GT$3fmt17h43ae5cec9623af13E', symObjAddr: 0x180, symBinAddr: 0x25F0, symSize: 0x20 }
  - { offsetInCU: 0x3C7E, offset: 0x75D5, size: 0x8, addend: 0x0, symName: __ZN21proc_macro_error_attr8settings14parse_settings17h90666fe902fd6339E, symObjAddr: 0x350, symBinAddr: 0x27C0, symSize: 0x920 }
  - { offsetInCU: 0x1E, offset: 0xA791, size: 0x8, addend: 0x0, symName: __ZN10proc_macro6bridge6client14HandleCounters3get17h02da01958788119eE, symObjAddr: 0x0, symBinAddr: 0x30E0, symSize: 0x10 }
  - { offsetInCU: 0x40, offset: 0xA7B3, size: 0x8, addend: 0x0, symName: ___rustc_proc_macro_decls_6aa97f2c4a890c21__, symObjAddr: 0x17D0, symBinAddr: 0x702C8, symSize: 0x0 }
  - { offsetInCU: 0x37E, offset: 0xAAF1, size: 0x8, addend: 0x0, symName: __ZN21proc_macro_error_attr16proc_macro_error17h0b800b3c5e70b8e7E, symObjAddr: 0x320, symBinAddr: 0x3400, symSize: 0x10F5 }
  - { offsetInCU: 0x410E, offset: 0xE881, size: 0x8, addend: 0x0, symName: '__ZN4core3ptr43drop_in_place$LT$proc_macro2..TokenTree$GT$17h227b1a1da352873bE', symObjAddr: 0x10, symBinAddr: 0x30F0, symSize: 0xB0 }
  - { offsetInCU: 0x44BD, offset: 0xEC30, size: 0x8, addend: 0x0, symName: '__ZN4core3ptr45drop_in_place$LT$proc_macro2..TokenStream$GT$17h1c528efe886882ebE', symObjAddr: 0xC0, symBinAddr: 0x31A0, symSize: 0x140 }
  - { offsetInCU: 0x490D, offset: 0xF080, size: 0x8, addend: 0x0, symName: '__ZN4core3ptr66drop_in_place$LT$alloc..vec..Vec$LT$proc_macro2..TokenTree$GT$$GT$17hcff4ca8480c247efE', symObjAddr: 0x200, symBinAddr: 0x32E0, symSize: 0xC0 }
  - { offsetInCU: 0x4BB9, offset: 0xF32C, size: 0x8, addend: 0x0, symName: '__ZN4core3ptr83drop_in_place$LT$alloc..vec..Vec$LT$proc_macro_error_attr..parse..Attribute$GT$$GT$17hbe2a2e48305b1e4eE', symObjAddr: 0x2C0, symBinAddr: 0x33A0, symSize: 0x60 }
  - { offsetInCU: 0x5B04, offset: 0x10277, size: 0x8, addend: 0x0, symName: __ZN10proc_macro6bridge6client14HandleCounters3get17h02da01958788119eE, symObjAddr: 0x0, symBinAddr: 0x30E0, symSize: 0x10 }
  - { offsetInCU: 0x858, offset: 0x12E3F, size: 0x8, addend: 0x0, symName: '__ZN68_$LT$$RF$str$u20$as$u20$proc_macro..bridge..rpc..Encode$LT$S$GT$$GT$6encode17hb49d75319da41327E', symObjAddr: 0x70, symBinAddr: 0x4500, symSize: 0x330 }
  - { offsetInCU: 0x1E, offset: 0x13676, size: 0x8, addend: 0x0, symName: '__ZN4core3ptr104drop_in_place$LT$core..iter..adapters..peekable..Peekable$LT$proc_macro2..token_stream..IntoIter$GT$$GT$17h71285e9ccdac9708E', symObjAddr: 0x0, symBinAddr: 0x4830, symSize: 0x70 }
  - { offsetInCU: 0x11DF, offset: 0x14837, size: 0x8, addend: 0x0, symName: '__ZN4core3ptr104drop_in_place$LT$core..iter..adapters..peekable..Peekable$LT$proc_macro2..token_stream..IntoIter$GT$$GT$17h71285e9ccdac9708E', symObjAddr: 0x0, symBinAddr: 0x4830, symSize: 0x70 }
  - { offsetInCU: 0x1421, offset: 0x14A79, size: 0x8, addend: 0x0, symName: '__ZN4core3ptr39drop_in_place$LT$proc_macro2..Group$GT$17hbb1475320af979f7E', symObjAddr: 0x70, symBinAddr: 0x48A0, symSize: 0x60 }
  - { offsetInCU: 0x16C4, offset: 0x14D1C, size: 0x8, addend: 0x0, symName: '__ZN4core3ptr43drop_in_place$LT$proc_macro2..TokenTree$GT$17h227b1a1da352873bE', symObjAddr: 0xD0, symBinAddr: 0x4900, symSize: 0xB0 }
  - { offsetInCU: 0x19D8, offset: 0x15030, size: 0x8, addend: 0x0, symName: '__ZN4core3ptr56drop_in_place$LT$proc_macro2..token_stream..IntoIter$GT$17h881bd1757940c601E', symObjAddr: 0x180, symBinAddr: 0x49B0, symSize: 0x20 }
  - { offsetInCU: 0x1AA7, offset: 0x150FF, size: 0x8, addend: 0x0, symName: '__ZN4core3ptr60drop_in_place$LT$proc_macro_error_attr..parse..Attribute$GT$17h3760f48464712383E', symObjAddr: 0x1A0, symBinAddr: 0x49D0, symSize: 0x70 }
  - { offsetInCU: 0x1BF5, offset: 0x1524D, size: 0x8, addend: 0x0, symName: '__ZN4core3ptr66drop_in_place$LT$alloc..vec..Vec$LT$proc_macro2..TokenTree$GT$$GT$17hcff4ca8480c247efE', symObjAddr: 0x210, symBinAddr: 0x4A40, symSize: 0xC0 }
  - { offsetInCU: 0x1E82, offset: 0x154DA, size: 0x8, addend: 0x0, symName: '__ZN4core3ptr67drop_in_place$LT$core..option..Option$LT$proc_macro2..Ident$GT$$GT$17h41b25642fdb6c5a0E', symObjAddr: 0x2D0, symBinAddr: 0x4B00, symSize: 0x30 }
  - { offsetInCU: 0x1F9E, offset: 0x155F6, size: 0x8, addend: 0x0, symName: '__ZN4core3ptr83drop_in_place$LT$alloc..vec..Vec$LT$proc_macro_error_attr..parse..Attribute$GT$$GT$17hbe2a2e48305b1e4eE', symObjAddr: 0x300, symBinAddr: 0x4B30, symSize: 0x60 }
  - { offsetInCU: 0x3E23, offset: 0x1747B, size: 0x8, addend: 0x0, symName: __ZN21proc_macro_error_attr5parse11parse_input17h22562fee8e2b5ad0E, symObjAddr: 0x360, symBinAddr: 0x4B90, symSize: 0xCF0 }
  - { offsetInCU: 0x1E, offset: 0x1A04E, size: 0x8, addend: 0x0, symName: __ZN4core3fmt5Write10write_char17h06716bfa07263c14E, symObjAddr: 0x0, symBinAddr: 0x5880, symSize: 0x100 }
  - { offsetInCU: 0xC8, offset: 0x1A0F8, size: 0x8, addend: 0x0, symName: '__ZN80_$LT$std..io..Write..write_fmt..Adapter$LT$T$GT$$u20$as$u20$core..fmt..Write$GT$9write_str17h5af369d1af4f98ddE', symObjAddr: 0x1E0, symBinAddr: 0x5A60, symSize: 0x3E }
  - { offsetInCU: 0x9F7, offset: 0x1AA27, size: 0x8, addend: 0x0, symName: '__ZN4core3ptr81drop_in_place$LT$core..result..Result$LT$$LP$$RP$$C$std..io..error..Error$GT$$GT$17h72b5549b6cb756d6E', symObjAddr: 0x120, symBinAddr: 0x59A0, symSize: 0xB0 }
  - { offsetInCU: 0xE68, offset: 0x1AE98, size: 0x8, addend: 0x0, symName: '__ZN4core3ptr92drop_in_place$LT$std..io..Write..write_fmt..Adapter$LT$std..sys..unix..stdio..Stderr$GT$$GT$17hc236d64f1083ccb5E', symObjAddr: 0x1D0, symBinAddr: 0x5A50, symSize: 0x10 }
  - { offsetInCU: 0xFEE, offset: 0x1B01E, size: 0x8, addend: 0x0, symName: __ZN4core3fmt5Write10write_char17h06716bfa07263c14E, symObjAddr: 0x0, symBinAddr: 0x5880, symSize: 0x100 }
  - { offsetInCU: 0x1157, offset: 0x1B187, size: 0x8, addend: 0x0, symName: __ZN4core3fmt5Write9write_fmt17hd7afae8808357832E, symObjAddr: 0x100, symBinAddr: 0x5980, symSize: 0x20 }
  - { offsetInCU: 0x1E, offset: 0x1B8F7, size: 0x8, addend: 0x0, symName: __ZN3std2io5Write9write_all17he5f6c665504a35bdE, symObjAddr: 0x0, symBinAddr: 0x5AA0, symSize: 0xF0 }
  - { offsetInCU: 0x35, offset: 0x1B90E, size: 0x8, addend: 0x0, symName: _anon.e9f0f98962c96894aeccd6df5185156c.6.llvm.1519353905013141044, symObjAddr: 0x328, symBinAddr: 0x70380, symSize: 0x0 }
  - { offsetInCU: 0xE3, offset: 0x1B9BC, size: 0x8, addend: 0x0, symName: __ZN3std2io5Write9write_all17he5f6c665504a35bdE, symObjAddr: 0x0, symBinAddr: 0x5AA0, symSize: 0xF0 }
  - { offsetInCU: 0x35D, offset: 0x1BC36, size: 0x8, addend: 0x0, symName: __ZN3std2io5Write9write_fmt17h1b4c719bf67ef170E, symObjAddr: 0xF0, symBinAddr: 0x5B90, symSize: 0x90 }
  - { offsetInCU: 0x141B, offset: 0x1CCF4, size: 0x8, addend: 0x0, symName: '__ZN4core3ptr42drop_in_place$LT$std..io..error..Error$GT$17h575492ca72f89f1fE.llvm.1519353905013141044', symObjAddr: 0x180, symBinAddr: 0x5C20, symSize: 0xA0 }
  - { offsetInCU: 0x187E, offset: 0x1D157, size: 0x8, addend: 0x0, symName: '__ZN4core3ptr92drop_in_place$LT$std..io..Write..write_fmt..Adapter$LT$std..sys..unix..stdio..Stderr$GT$$GT$17hc236d64f1083ccb5E.llvm.1519353905013141044', symObjAddr: 0x220, symBinAddr: 0x5CC0, symSize: 0x15 }
  - { offsetInCU: 0x1E, offset: 0x1DB15, size: 0x8, addend: 0x0, symName: '__ZN3std3sys6common12thread_local10fast_local12Key$LT$T$GT$14try_initialize17h240be5183e7d922dE.llvm.3014004312764152751', symObjAddr: 0x0, symBinAddr: 0x5CE0, symSize: 0x150 }
  - { offsetInCU: 0x3E7, offset: 0x1DEDE, size: 0x8, addend: 0x0, symName: __ZN3std3sys6common12thread_local10fast_local13destroy_value17h940e5047cc862c16E, symObjAddr: 0x170, symBinAddr: 0x5E30, symSize: 0xE0 }
  - { offsetInCU: 0xF93, offset: 0x1EA8A, size: 0x8, addend: 0x0, symName: '__ZN4core3ptr81drop_in_place$LT$core..result..Result$LT$$LP$$RP$$C$std..io..error..Error$GT$$GT$17h72b5549b6cb756d6E', symObjAddr: 0x250, symBinAddr: 0x5F10, symSize: 0xA5 }
  - { offsetInCU: 0x1C49, offset: 0x1F740, size: 0x8, addend: 0x0, symName: '__ZN3std3sys6common12thread_local10fast_local12Key$LT$T$GT$14try_initialize17h240be5183e7d922dE.llvm.3014004312764152751', symObjAddr: 0x0, symBinAddr: 0x5CE0, symSize: 0x150 }
  - { offsetInCU: 0x1E, offset: 0x20B2B, size: 0x8, addend: 0x0, symName: '__ZN4core3ptr43drop_in_place$LT$proc_macro2..TokenTree$GT$17h227b1a1da352873bE.llvm.709074940828227059', symObjAddr: 0x0, symBinAddr: 0x5FC0, symSize: 0x180 }
  - { offsetInCU: 0x76D, offset: 0x2127A, size: 0x8, addend: 0x0, symName: '__ZN4core3ptr43drop_in_place$LT$proc_macro2..TokenTree$GT$17h227b1a1da352873bE.llvm.709074940828227059', symObjAddr: 0x0, symBinAddr: 0x5FC0, symSize: 0x180 }
  - { offsetInCU: 0x1E12, offset: 0x2291F, size: 0x8, addend: 0x0, symName: '__ZN70_$LT$alloc..vec..Vec$LT$T$C$A$GT$$u20$as$u20$core..ops..drop..Drop$GT$4drop17hc8a197350d4d3bf0E', symObjAddr: 0x240, symBinAddr: 0x6140, symSize: 0x90 }
  - { offsetInCU: 0x1F38, offset: 0x22A45, size: 0x8, addend: 0x0, symName: '__ZN70_$LT$alloc..vec..Vec$LT$T$C$A$GT$$u20$as$u20$core..ops..drop..Drop$GT$4drop17he9fa22afbda673deE', symObjAddr: 0x350, symBinAddr: 0x61D0, symSize: 0x150 }
  - { offsetInCU: 0x24C5, offset: 0x22FD2, size: 0x8, addend: 0x0, symName: '__ZN98_$LT$alloc..vec..Vec$LT$T$GT$$u20$as$u20$alloc..vec..spec_from_iter..SpecFromIter$LT$T$C$I$GT$$GT$9from_iter17h20fc7d0164f1ee3dE', symObjAddr: 0x4A0, symBinAddr: 0x6320, symSize: 0x1C1 }
  - { offsetInCU: 0x1E, offset: 0x24FA1, size: 0x8, addend: 0x0, symName: __ZN5alloc3str17join_generic_copy17h55b8fe27fd703dedE, symObjAddr: 0x0, symBinAddr: 0x64F0, symSize: 0x448 }
  - { offsetInCU: 0xB06, offset: 0x25A89, size: 0x8, addend: 0x0, symName: __ZN5alloc3str17join_generic_copy17h55b8fe27fd703dedE, symObjAddr: 0x0, symBinAddr: 0x64F0, symSize: 0x448 }
  - { offsetInCU: 0x1E, offset: 0x28310, size: 0x8, addend: 0x0, symName: '__ZN10proc_macro6bridge11scoped_cell19ScopedCell$LT$T$GT$7replace17h32e7bff08f44a766E', symObjAddr: 0x0, symBinAddr: 0x6940, symSize: 0x1D0 }
  - { offsetInCU: 0x4AC, offset: 0x2879E, size: 0x8, addend: 0x0, symName: '__ZN4core3ptr145drop_in_place$LT$proc_macro..bridge..scoped_cell..ScopedCell$LT$T$GT$..replace..PutBackOnDrop$LT$proc_macro..bridge..client..BridgeStateL$GT$$GT$17h7160d38cd7935039E.llvm.8796231752209074142', symObjAddr: 0x560, symBinAddr: 0x6EA0, symSize: 0xC0 }
  - { offsetInCU: 0x81B, offset: 0x28B0D, size: 0x8, addend: 0x0, symName: '__ZN4core3ptr699drop_in_place$LT$proc_macro..bridge..scoped_cell..ScopedCell$LT$proc_macro..bridge..client..BridgeStateL$GT$..set$LT$$LP$$RP$$C$proc_macro..bridge..client..run_client$LT$$LP$proc_macro..bridge..client..TokenStream$C$proc_macro..bridge..client..TokenStream$RP$$C$core..option..Option$LT$proc_macro..bridge..client..TokenStream$GT$$C$proc_macro..bridge..client..Client$LT$$LP$proc_macro..TokenStream$C$proc_macro..TokenStream$RP$$C$proc_macro..TokenStream$GT$..expand2$LT$proc_macro_error_attr..proc_macro_error$GT$..$u7b$$u7b$closure$u7d$$u7d$..$u7b$$u7b$closure$u7d$$u7d$$GT$..$u7b$$u7b$closure$u7d$$u7d$..$u7b$$u7b$closure$u7d$$u7d$..$u7b$$u7b$closure$u7d$$u7d$$GT$..$u7b$$u7b$closure$u7d$$u7d$$GT$17h62f86d1758a53143E', symObjAddr: 0x620, symBinAddr: 0x6F60, symSize: 0x3F }
  - { offsetInCU: 0x18D9, offset: 0x29BCB, size: 0x8, addend: 0x0, symName: '__ZN10proc_macro6bridge11scoped_cell19ScopedCell$LT$T$GT$7replace17h32e7bff08f44a766E', symObjAddr: 0x0, symBinAddr: 0x6940, symSize: 0x1D0 }
  - { offsetInCU: 0x1EB4, offset: 0x2A1A6, size: 0x8, addend: 0x0, symName: '__ZN10proc_macro6bridge11scoped_cell19ScopedCell$LT$T$GT$7replace17h988f91416a06957aE', symObjAddr: 0x1D0, symBinAddr: 0x6B10, symSize: 0x390 }
  - { offsetInCU: 0x1E, offset: 0x2AED9, size: 0x8, addend: 0x0, symName: '__ZN4core3ptr43drop_in_place$LT$proc_macro2..TokenTree$GT$17h227b1a1da352873bE.llvm.11648185645842435363', symObjAddr: 0x0, symBinAddr: 0x6FA0, symSize: 0xB0 }
  - { offsetInCU: 0xE42, offset: 0x2BCFD, size: 0x8, addend: 0x0, symName: '__ZN4core3ptr43drop_in_place$LT$proc_macro2..TokenTree$GT$17h227b1a1da352873bE.llvm.11648185645842435363', symObjAddr: 0x0, symBinAddr: 0x6FA0, symSize: 0xB0 }
  - { offsetInCU: 0x18CC, offset: 0x2C787, size: 0x8, addend: 0x0, symName: '__ZN86_$LT$alloc..vec..into_iter..IntoIter$LT$T$C$A$GT$$u20$as$u20$core..ops..drop..Drop$GT$4drop17h53f2afc93297941fE', symObjAddr: 0xB0, symBinAddr: 0x7050, symSize: 0xD0 }
  - { offsetInCU: 0x1B9C, offset: 0x2CA57, size: 0x8, addend: 0x0, symName: '__ZN86_$LT$alloc..vec..into_iter..IntoIter$LT$T$C$A$GT$$u20$as$u20$core..ops..drop..Drop$GT$4drop17hb393111ea0d27500E', symObjAddr: 0x180, symBinAddr: 0x7120, symSize: 0xE5 }
  - { offsetInCU: 0x1E, offset: 0x2D79A, size: 0x8, addend: 0x0, symName: __ZN4core3fmt5Write9write_fmt17hab9b999560636e9eE, symObjAddr: 0x0, symBinAddr: 0x7210, symSize: 0x20 }
  - { offsetInCU: 0x89, offset: 0x2D805, size: 0x8, addend: 0x0, symName: '__ZN58_$LT$alloc..string..String$u20$as$u20$core..fmt..Write$GT$10write_char17hd329c0cb943f081aE', symObjAddr: 0x40, symBinAddr: 0x7250, symSize: 0x130 }
  - { offsetInCU: 0x430, offset: 0x2DBAC, size: 0x8, addend: 0x0, symName: '__ZN58_$LT$alloc..string..String$u20$as$u20$core..fmt..Write$GT$9write_str17h1ff5aa96ca91c6d5E', symObjAddr: 0x170, symBinAddr: 0x7380, symSize: 0x5B }
  - { offsetInCU: 0x956, offset: 0x2E0D2, size: 0x8, addend: 0x0, symName: '__ZN4core3ptr42drop_in_place$LT$alloc..string..String$GT$17h3bc1bf45f2831202E', symObjAddr: 0x20, symBinAddr: 0x7230, symSize: 0x20 }
  - { offsetInCU: 0xC0C, offset: 0x2E388, size: 0x8, addend: 0x0, symName: __ZN4core3fmt5Write9write_fmt17hab9b999560636e9eE, symObjAddr: 0x0, symBinAddr: 0x7210, symSize: 0x20 }
  - { offsetInCU: 0x2BF, offset: 0x2F0D4, size: 0x8, addend: 0x0, symName: __ZN3std9panicking3try17h2f13959203411128E, symObjAddr: 0xA0, symBinAddr: 0x73E0, symSize: 0x230 }
  - { offsetInCU: 0xC8D, offset: 0x2FAA2, size: 0x8, addend: 0x0, symName: '__ZN4core3ptr110drop_in_place$LT$$LP$proc_macro..bridge..client..TokenStream$C$proc_macro..bridge..client..TokenStream$RP$$GT$17hf501ac2f773d6cb2E', symObjAddr: 0x2D0, symBinAddr: 0x7610, symSize: 0x40 }
  - { offsetInCU: 0xD53, offset: 0x2FB68, size: 0x8, addend: 0x0, symName: '__ZN4core3ptr526drop_in_place$LT$proc_macro..bridge..client..run_client$LT$$LP$proc_macro..bridge..client..TokenStream$C$proc_macro..bridge..client..TokenStream$RP$$C$core..option..Option$LT$proc_macro..bridge..client..TokenStream$GT$$C$proc_macro..bridge..client..Client$LT$$LP$proc_macro..TokenStream$C$proc_macro..TokenStream$RP$$C$proc_macro..TokenStream$GT$..expand2$LT$proc_macro_error_attr..proc_macro_error$GT$..$u7b$$u7b$closure$u7d$$u7d$..$u7b$$u7b$closure$u7d$$u7d$$GT$..$u7b$$u7b$closure$u7d$$u7d$..$u7b$$u7b$closure$u7d$$u7d$$GT$17hdb85783ea7200681E', symObjAddr: 0x310, symBinAddr: 0x7650, symSize: 0xF0 }
  - { offsetInCU: 0xF8A, offset: 0x2FD9F, size: 0x8, addend: 0x0, symName: '__ZN4core3ptr52drop_in_place$LT$std..thread..local..AccessError$GT$17h19582051b7b205b0E', symObjAddr: 0x400, symBinAddr: 0x7740, symSize: 0x6 }
  - { offsetInCU: 0x35, offset: 0x3098C, size: 0x8, addend: 0x0, symName: _anon.cd79710d9eb055a0c5a1e400b78772a4.3.llvm.3627662222836290293, symObjAddr: 0x670, symBinAddr: 0x70510, symSize: 0x0 }
  - { offsetInCU: 0x20D, offset: 0x30B64, size: 0x8, addend: 0x0, symName: '__ZN77_$LT$$LP$A$C$B$RP$$u20$as$u20$proc_macro..bridge..rpc..DecodeMut$LT$S$GT$$GT$6decode17h9d6b94ba9d0eed91E', symObjAddr: 0x440, symBinAddr: 0x7910, symSize: 0xD0 }
  - { offsetInCU: 0x850, offset: 0x311A7, size: 0x8, addend: 0x0, symName: __ZN10proc_macro6bridge6client10run_client17h04dabc87be5d1226E, symObjAddr: 0x1B0, symBinAddr: 0x7750, symSize: 0x1B0 }
  - { offsetInCU: 0xDA5, offset: 0x316FC, size: 0x8, addend: 0x0, symName: '__ZN4core3ptr52drop_in_place$LT$std..thread..local..AccessError$GT$17h19582051b7b205b0E.llvm.3627662222836290293', symObjAddr: 0x430, symBinAddr: 0x7900, symSize: 0x10 }
  - { offsetInCU: 0x1E, offset: 0x321E0, size: 0x8, addend: 0x0, symName: '__ZN68_$LT$alloc..rc..Rc$LT$T$C$A$GT$$u20$as$u20$core..ops..drop..Drop$GT$4drop17hcc295bff7e6b3b9aE', symObjAddr: 0x0, symBinAddr: 0x79E0, symSize: 0xDE }
  - { offsetInCU: 0xE75, offset: 0x33037, size: 0x8, addend: 0x0, symName: '__ZN68_$LT$alloc..rc..Rc$LT$T$C$A$GT$$u20$as$u20$core..ops..drop..Drop$GT$4drop17hcc295bff7e6b3b9aE', symObjAddr: 0x0, symBinAddr: 0x79E0, symSize: 0xDE }
  - { offsetInCU: 0x1E, offset: 0x33C38, size: 0x8, addend: 0x0, symName: '__ZN10proc_macro6bridge104_$LT$impl$u20$proc_macro..bridge..rpc..Encode$LT$S$GT$$u20$for$u20$core..result..Result$LT$T$C$E$GT$$GT$6encode17h9f007fcfc322b5ffE', symObjAddr: 0x0, symBinAddr: 0x7AC0, symSize: 0x450 }
  - { offsetInCU: 0x16E, offset: 0x33D88, size: 0x8, addend: 0x0, symName: '__ZN10proc_macro6bridge104_$LT$impl$u20$proc_macro..bridge..rpc..Encode$LT$S$GT$$u20$for$u20$core..result..Result$LT$T$C$E$GT$$GT$6encode17h9f007fcfc322b5ffE', symObjAddr: 0x0, symBinAddr: 0x7AC0, symSize: 0x450 }
  - { offsetInCU: 0xA1E, offset: 0x34638, size: 0x8, addend: 0x0, symName: '__ZN10proc_macro6bridge104_$LT$impl$u20$proc_macro..bridge..rpc..Encode$LT$S$GT$$u20$for$u20$core..result..Result$LT$T$C$E$GT$$GT$6encode17ha87d51ab174136b6E', symObjAddr: 0x450, symBinAddr: 0x7F10, symSize: 0x3AD }
  - { offsetInCU: 0x1E, offset: 0x355D9, size: 0x8, addend: 0x0, symName: '__ZN10proc_macro6bridge100_$LT$impl$u20$proc_macro..bridge..rpc..Encode$LT$S$GT$$u20$for$u20$core..option..Option$LT$T$GT$$GT$6encode17h3e9c1a01913d8686E', symObjAddr: 0x0, symBinAddr: 0x82C0, symSize: 0x4F0 }
  - { offsetInCU: 0x437, offset: 0x359F2, size: 0x8, addend: 0x0, symName: '__ZN10proc_macro6bridge100_$LT$impl$u20$proc_macro..bridge..rpc..Encode$LT$S$GT$$u20$for$u20$core..option..Option$LT$T$GT$$GT$6encode17h3e9c1a01913d8686E', symObjAddr: 0x0, symBinAddr: 0x82C0, symSize: 0x4F0 }
  - { offsetInCU: 0xD00, offset: 0x362BB, size: 0x8, addend: 0x0, symName: '__ZN10proc_macro6bridge100_$LT$impl$u20$proc_macro..bridge..rpc..Encode$LT$S$GT$$u20$for$u20$core..option..Option$LT$T$GT$$GT$6encode17h9ea7141456390a54E', symObjAddr: 0x4F0, symBinAddr: 0x87B0, symSize: 0x362 }
  - { offsetInCU: 0x1E, offset: 0x36E0F, size: 0x8, addend: 0x0, symName: __ZN10proc_macro6bridge14selfless_reify31reify_to_extern_c_fn_hrt_bridge7wrapper17h22ea7d8b8c0b8212E, symObjAddr: 0x0, symBinAddr: 0x8B20, symSize: 0x20 }
  - { offsetInCU: 0x176, offset: 0x36F67, size: 0x8, addend: 0x0, symName: __ZN10proc_macro6bridge14selfless_reify31reify_to_extern_c_fn_hrt_bridge7wrapper17h22ea7d8b8c0b8212E, symObjAddr: 0x0, symBinAddr: 0x8B20, symSize: 0x20 }
  - { offsetInCU: 0x1E, offset: 0x37193, size: 0x8, addend: 0x0, symName: '__ZN44_$LT$$RF$T$u20$as$u20$core..fmt..Display$GT$3fmt17h2315c30f87171f24E', symObjAddr: 0x0, symBinAddr: 0x8B40, symSize: 0x17 }
  - { offsetInCU: 0x97, offset: 0x3720C, size: 0x8, addend: 0x0, symName: '__ZN44_$LT$$RF$T$u20$as$u20$core..fmt..Display$GT$3fmt17h2315c30f87171f24E', symObjAddr: 0x0, symBinAddr: 0x8B40, symSize: 0x17 }
  - { offsetInCU: 0x1E, offset: 0x3748F, size: 0x8, addend: 0x0, symName: '__ZN77_$LT$$LP$A$C$B$RP$$u20$as$u20$proc_macro..bridge..rpc..DecodeMut$LT$S$GT$$GT$6decode17h16fa04ee35d8b516E', symObjAddr: 0x0, symBinAddr: 0x8B60, symSize: 0xDA }
  - { offsetInCU: 0xD4, offset: 0x37545, size: 0x8, addend: 0x0, symName: '__ZN77_$LT$$LP$A$C$B$RP$$u20$as$u20$proc_macro..bridge..rpc..DecodeMut$LT$S$GT$$GT$6decode17h16fa04ee35d8b516E', symObjAddr: 0x0, symBinAddr: 0x8B60, symSize: 0xDA }
  - { offsetInCU: 0x1E, offset: 0x384A0, size: 0x8, addend: 0x0, symName: '__ZN4core3ptr43drop_in_place$LT$proc_macro2..TokenTree$GT$17hd366c4cf6fc97c95E.llvm.11737274750673272458', symObjAddr: 0x0, symBinAddr: 0x8C80, symSize: 0x180 }
  - { offsetInCU: 0x14D6, offset: 0x39958, size: 0x8, addend: 0x0, symName: '__ZN4core3ptr43drop_in_place$LT$proc_macro2..TokenTree$GT$17hd366c4cf6fc97c95E.llvm.11737274750673272458', symObjAddr: 0x0, symBinAddr: 0x8C80, symSize: 0x180 }
  - { offsetInCU: 0x1E97, offset: 0x3A319, size: 0x8, addend: 0x0, symName: '__ZN4core3ptr475drop_in_place$LT$core..iter..adapters..flatten..Flatten$LT$core..iter..adapters..map..Map$LT$core..iter..adapters..map..Map$LT$core..iter..sources..once..Once$LT$proc_macro2..TokenStream$GT$$C$$LT$proc_macro2..TokenStream$u20$as$u20$core..iter..traits..collect..Extend$LT$proc_macro2..TokenStream$GT$$GT$..extend$LT$core..iter..sources..once..Once$LT$proc_macro2..TokenStream$GT$$GT$..$u7b$$u7b$closure$u7d$$u7d$$GT$$C$proc_macro2..imp..TokenStream..unwrap_stable$GT$$GT$$GT$17h5b0b8415f8617801E', symObjAddr: 0x180, symBinAddr: 0x8E00, symSize: 0xE0 }
  - { offsetInCU: 0x2224, offset: 0x3A6A6, size: 0x8, addend: 0x0, symName: '__ZN4core3ptr65drop_in_place$LT$alloc..vec..Vec$LT$proc_macro..TokenTree$GT$$GT$17h97ed1a1052c94d3aE', symObjAddr: 0x260, symBinAddr: 0x8EE0, symSize: 0x120 }
  - { offsetInCU: 0x3DB2, offset: 0x3C234, size: 0x8, addend: 0x0, symName: '__ZN70_$LT$alloc..vec..Vec$LT$T$C$A$GT$$u20$as$u20$core..ops..drop..Drop$GT$4drop17h46c60b63c151d1faE', symObjAddr: 0xB30, symBinAddr: 0x9640, symSize: 0x90 }
  - { offsetInCU: 0x3FD3, offset: 0x3C455, size: 0x8, addend: 0x0, symName: '__ZN97_$LT$alloc..vec..Vec$LT$T$C$A$GT$$u20$as$u20$alloc..vec..spec_extend..SpecExtend$LT$T$C$I$GT$$GT$11spec_extend17hc3a46bd3c9fcd8d3E', symObjAddr: 0xC50, symBinAddr: 0x96D0, symSize: 0x4D4 }
  - { offsetInCU: 0x5204, offset: 0x3D686, size: 0x8, addend: 0x0, symName: '__ZN67_$LT$alloc..vec..Vec$LT$T$C$A$GT$$u20$as$u20$core..clone..Clone$GT$5clone17h68dfb34b13c02d05E', symObjAddr: 0x3E0, symBinAddr: 0x9000, symSize: 0x390 }
  - { offsetInCU: 0x5DDB, offset: 0x3E25D, size: 0x8, addend: 0x0, symName: '__ZN67_$LT$alloc..vec..Vec$LT$T$C$A$GT$$u20$as$u20$core..clone..Clone$GT$5clone17hd64a539d3a942c1aE', symObjAddr: 0x770, symBinAddr: 0x9390, symSize: 0x2B0 }
  - { offsetInCU: 0x1E, offset: 0x41183, size: 0x8, addend: 0x0, symName: __ZN5alloc7raw_vec11finish_grow17hb612a3c25e83f59bE.llvm.16180614468096552899, symObjAddr: 0x0, symBinAddr: 0x9BB0, symSize: 0xA0 }
  - { offsetInCU: 0x17EA, offset: 0x4294F, size: 0x8, addend: 0x0, symName: __ZN5alloc7raw_vec11finish_grow17hb612a3c25e83f59bE.llvm.16180614468096552899, symObjAddr: 0x0, symBinAddr: 0x9BB0, symSize: 0xA0 }
  - { offsetInCU: 0x1D39, offset: 0x42E9E, size: 0x8, addend: 0x0, symName: '__ZN5alloc7raw_vec19RawVec$LT$T$C$A$GT$7reserve21do_reserve_and_handle17hbb2a1fd8b9186f34E', symObjAddr: 0x3E0, symBinAddr: 0x5A650, symSize: 0xC0 }
  - { offsetInCU: 0x2092, offset: 0x431F7, size: 0x8, addend: 0x0, symName: '__ZN77_$LT$alloc..raw_vec..RawVec$LT$T$C$A$GT$$u20$as$u20$core..ops..drop..Drop$GT$4drop17h0ee420cd72856c26E', symObjAddr: 0x4A0, symBinAddr: 0x9D20, symSize: 0x0 }
  - { offsetInCU: 0x218F, offset: 0x432F4, size: 0x8, addend: 0x0, symName: '__ZN77_$LT$alloc..raw_vec..RawVec$LT$T$C$A$GT$$u20$as$u20$core..ops..drop..Drop$GT$4drop17h23896ae1d129aa1cE', symObjAddr: 0x4F0, symBinAddr: 0x9D50, symSize: 0x30 }
  - { offsetInCU: 0x29E1, offset: 0x43B46, size: 0x8, addend: 0x0, symName: '__ZN5alloc7raw_vec19RawVec$LT$T$C$A$GT$16reserve_for_push17h40ac932e1b2fd53bE', symObjAddr: 0x1B0, symBinAddr: 0x9C50, symSize: 0xD0 }
  - { offsetInCU: 0xAE6, offset: 0x44B17, size: 0x8, addend: 0x0, symName: '__ZN4core3ptr39drop_in_place$LT$proc_macro2..Group$GT$17ha27221ad96a80e0eE', symObjAddr: 0x50, symBinAddr: 0x9D80, symSize: 0x60 }
  - { offsetInCU: 0x118D, offset: 0x451BE, size: 0x8, addend: 0x0, symName: __ZN5quote9__private10push_group17h9df8b681cd8e8cefE, symObjAddr: 0x2B0, symBinAddr: 0x9DE0, symSize: 0x70 }
  - { offsetInCU: 0x129B, offset: 0x452CC, size: 0x8, addend: 0x0, symName: __ZN5quote9__private18push_group_spanned17ha93fb8f675ce3e74E, symObjAddr: 0x320, symBinAddr: 0x9E50, symSize: 0xA0 }
  - { offsetInCU: 0x1426, offset: 0x45457, size: 0x8, addend: 0x0, symName: __ZN5quote9__private10push_ident17ha985c6555354938aE, symObjAddr: 0x760, symBinAddr: 0x9EF0, symSize: 0xC0 }
  - { offsetInCU: 0x16EB, offset: 0x4571C, size: 0x8, addend: 0x0, symName: __ZN5quote9__private18push_ident_spanned17h3b6b8b94b1b8e414E, symObjAddr: 0x820, symBinAddr: 0x9FB0, symSize: 0xB0 }
  - { offsetInCU: 0x194F, offset: 0x45980, size: 0x8, addend: 0x0, symName: __ZN5quote9__private17push_bang_spanned17hb603fa8bc78f8f06E, symObjAddr: 0x1170, symBinAddr: 0xA060, symSize: 0x50 }
  - { offsetInCU: 0x1A5A, offset: 0x45A8B, size: 0x8, addend: 0x0, symName: __ZN5quote9__private11push_colon217h882ab213c0742ddfE, symObjAddr: 0x13D0, symBinAddr: 0xA0B0, symSize: 0x60 }
  - { offsetInCU: 0x1B51, offset: 0x45B82, size: 0x8, addend: 0x0, symName: __ZN5quote9__private10push_comma17h256e025055d70bd2E, symObjAddr: 0x14C0, symBinAddr: 0xA110, symSize: 0x40 }
  - { offsetInCU: 0x1BE3, offset: 0x45C14, size: 0x8, addend: 0x0, symName: __ZN5quote9__private10push_or_or17h06ba28556b750de2E, symObjAddr: 0x22D0, symBinAddr: 0xA150, symSize: 0x60 }
  - { offsetInCU: 0x1AC2, offset: 0x47DDC, size: 0x8, addend: 0x0, symName: '__ZN67_$LT$proc_macro2..Literal$u20$as$u20$quote..to_tokens..ToTokens$GT$9to_tokens17h89193c39e6ea2657E', symObjAddr: 0x620, symBinAddr: 0xA1B0, symSize: 0x80 }
  - { offsetInCU: 0x1CD2, offset: 0x47FEC, size: 0x8, addend: 0x0, symName: '__ZN69_$LT$proc_macro2..TokenTree$u20$as$u20$quote..to_tokens..ToTokens$GT$9to_tokens17ha119c453c29f220dE', symObjAddr: 0x6A0, symBinAddr: 0xA230, symSize: 0x1B0 }
  - { offsetInCU: 0x234B, offset: 0x48665, size: 0x8, addend: 0x0, symName: '__ZN71_$LT$proc_macro2..TokenStream$u20$as$u20$quote..to_tokens..ToTokens$GT$9to_tokens17hf7e8c98f86cbf460E', symObjAddr: 0x850, symBinAddr: 0xA3E0, symSize: 0xAB }
  - { offsetInCU: 0x844, offset: 0x49671, size: 0x8, addend: 0x0, symName: '__ZN120_$LT$proc_macro2..fallback..TokenStream$u20$as$u20$core..iter..traits..collect..Extend$LT$proc_macro2..TokenTree$GT$$GT$6extend17hbfa255921ad8be62E', symObjAddr: 0x2E0, symBinAddr: 0xA490, symSize: 0x110 }
  - { offsetInCU: 0x12C4, offset: 0x4A0F1, size: 0x8, addend: 0x0, symName: '__ZN4core3ptr429drop_in_place$LT$core..iter..adapters..map..Map$LT$core..iter..adapters..map..Map$LT$core..iter..sources..once..Once$LT$proc_macro2..TokenStream$GT$$C$$LT$proc_macro2..TokenStream$u20$as$u20$core..iter..traits..collect..Extend$LT$proc_macro2..TokenStream$GT$$GT$..extend$LT$core..iter..sources..once..Once$LT$proc_macro2..TokenStream$GT$$GT$..$u7b$$u7b$closure$u7d$$u7d$$GT$$C$proc_macro2..imp..TokenStream..unwrap_stable$GT$$GT$17h08e1a33f7447205fE.llvm.9380521069322139140', symObjAddr: 0x510, symBinAddr: 0xA5A0, symSize: 0x160 }
  - { offsetInCU: 0x1977, offset: 0x4A7A4, size: 0x8, addend: 0x0, symName: '__ZN4core3ptr71drop_in_place$LT$core..option..Option$LT$proc_macro2..TokenTree$GT$$GT$17he185cb495ba6df93E.llvm.9380521069322139140', symObjAddr: 0x6B0, symBinAddr: 0xA700, symSize: 0xB0 }
  - { offsetInCU: 0x2FDE, offset: 0x4BE0B, size: 0x8, addend: 0x0, symName: '__ZN5alloc2rc15Rc$LT$T$C$A$GT$8make_mut17hf37fc09774d45a4aE.llvm.9380521069322139140', symObjAddr: 0x760, symBinAddr: 0xA7B0, symSize: 0x18A }
  - { offsetInCU: 0xF56, offset: 0x4DFCA, size: 0x8, addend: 0x0, symName: '__ZN4core3ptr73drop_in_place$LT$core..option..Option$LT$proc_macro2..TokenStream$GT$$GT$17hc1dfe7c0ca393bd1E.llvm.12540424726163995536', symObjAddr: 0x5F0, symBinAddr: 0xAA70, symSize: 0x155 }
  - { offsetInCU: 0x1602, offset: 0x4E676, size: 0x8, addend: 0x0, symName: '__ZN102_$LT$core..iter..adapters..map..Map$LT$I$C$F$GT$$u20$as$u20$core..iter..traits..iterator..Iterator$GT$4fold17ha152aa7a516513adE', symObjAddr: 0x410, symBinAddr: 0xA940, symSize: 0x130 }
  - { offsetInCU: 0x1326, offset: 0x509CF, size: 0x8, addend: 0x0, symName: '__ZN68_$LT$alloc..rc..Rc$LT$T$C$A$GT$$u20$as$u20$core..ops..drop..Drop$GT$4drop17h31e31ca02eb15715E', symObjAddr: 0x70, symBinAddr: 0xABD0, symSize: 0x30 }
  - { offsetInCU: 0x159A, offset: 0x50C43, size: 0x8, addend: 0x0, symName: '__ZN68_$LT$alloc..rc..Rc$LT$T$C$A$GT$$u20$as$u20$core..ops..drop..Drop$GT$4drop17hdb5852683bb2baa3E', symObjAddr: 0xA0, symBinAddr: 0xAC00, symSize: 0xDE }
  - { offsetInCU: 0x43F, offset: 0x51E45, size: 0x8, addend: 0x0, symName: '__ZN115_$LT$proc_macro2..imp..TokenStream$u20$as$u20$core..iter..traits..collect..Extend$LT$proc_macro2..TokenTree$GT$$GT$6extend17hebb99a61c0a61c90E', symObjAddr: 0x330, symBinAddr: 0xACE0, symSize: 0x190 }
  - { offsetInCU: 0x73D, offset: 0x52143, size: 0x8, addend: 0x0, symName: '__ZN122_$LT$proc_macro2..imp..TokenStream$u20$as$u20$core..iter..traits..collect..Extend$LT$proc_macro2..imp..TokenStream$GT$$GT$6extend17hc995be1306434bd3E', symObjAddr: 0x7C0, symBinAddr: 0xAE70, symSize: 0x1C0 }
  - { offsetInCU: 0xF02, offset: 0x52908, size: 0x8, addend: 0x0, symName: '__ZN4core3ptr344drop_in_place$LT$core..iter..adapters..map..Map$LT$core..iter..sources..once..Once$LT$proc_macro2..TokenStream$GT$$C$$LT$proc_macro2..TokenStream$u20$as$u20$core..iter..traits..collect..Extend$LT$proc_macro2..TokenStream$GT$$GT$..extend$LT$core..iter..sources..once..Once$LT$proc_macro2..TokenStream$GT$$GT$..$u7b$$u7b$closure$u7d$$u7d$$GT$$GT$17h934b0f65570c1dd2E.llvm.7806880129566342473', symObjAddr: 0x9E0, symBinAddr: 0xB030, symSize: 0x160 }
  - { offsetInCU: 0x15BD, offset: 0x52FC3, size: 0x8, addend: 0x0, symName: '__ZN4core3ptr82drop_in_place$LT$core..iter..sources..once..Once$LT$proc_macro2..TokenTree$GT$$GT$17hdecacc0909c4bcc8E.llvm.7806880129566342473', symObjAddr: 0xB40, symBinAddr: 0xB190, symSize: 0xA7 }
  - { offsetInCU: 0x1E, offset: 0x54C96, size: 0x8, addend: 0x0, symName: '__ZN4core3ptr43drop_in_place$LT$proc_macro2..TokenTree$GT$17hd366c4cf6fc97c95E.llvm.9271153647784838125', symObjAddr: 0x0, symBinAddr: 0xB240, symSize: 0xB0 }
  - { offsetInCU: 0xCF0, offset: 0x55968, size: 0x8, addend: 0x0, symName: '__ZN4core3ptr43drop_in_place$LT$proc_macro2..TokenTree$GT$17hd366c4cf6fc97c95E.llvm.9271153647784838125', symObjAddr: 0x0, symBinAddr: 0xB240, symSize: 0xB0 }
  - { offsetInCU: 0x14EF, offset: 0x56167, size: 0x8, addend: 0x0, symName: '__ZN86_$LT$alloc..vec..into_iter..IntoIter$LT$T$C$A$GT$$u20$as$u20$core..ops..drop..Drop$GT$4drop17h9f602a7fd3191763E', symObjAddr: 0x1A0, symBinAddr: 0xB2F0, symSize: 0xCD }
  - { offsetInCU: 0xE47, offset: 0x57A13, size: 0x8, addend: 0x0, symName: '__ZN4core3ptr430drop_in_place$LT$core..iter..adapters..map..Map$LT$core..iter..adapters..map..Map$LT$core..iter..sources..once..Once$LT$proc_macro2..TokenStream$GT$$C$$LT$proc_macro2..TokenStream$u20$as$u20$core..iter..traits..collect..Extend$LT$proc_macro2..TokenStream$GT$$GT$..extend$LT$core..iter..sources..once..Once$LT$proc_macro2..TokenStream$GT$$GT$..$u7b$$u7b$closure$u7d$$u7d$$GT$$C$proc_macro2..imp..TokenStream..unwrap_nightly$GT$$GT$17h9fc0df5916a0cb41E.llvm.1179132618586170085', symObjAddr: 0x1D0, symBinAddr: 0xB3C0, symSize: 0x160 }
  - { offsetInCU: 0x1348, offset: 0x57F14, size: 0x8, addend: 0x0, symName: '__ZN4core3ptr52drop_in_place$LT$proc_macro..ConcatStreamsHelper$GT$17hc8e2b02205bc2e5aE.llvm.1179132618586170085', symObjAddr: 0x450, symBinAddr: 0xB520, symSize: 0xBF }
  - { offsetInCU: 0xAD, offset: 0x58D3F, size: 0x8, addend: 0x0, symName: '__ZN51_$LT$bool$u20$as$u20$quote..to_tokens..ToTokens$GT$9to_tokens17h043b682e8ad8d821E', symObjAddr: 0xE0, symBinAddr: 0xB5E0, symSize: 0xB0 }
  - { offsetInCU: 0x120B, offset: 0x5AF67, size: 0x8, addend: 0x0, symName: '__ZN4core3ptr43drop_in_place$LT$proc_macro2..TokenTree$GT$17h996d4c1f6be68e48E.llvm.5840665275293963955', symObjAddr: 0x120, symBinAddr: 0xB690, symSize: 0x170 }
  - { offsetInCU: 0x19D8, offset: 0x5B734, size: 0x8, addend: 0x0, symName: '__ZN4core3ptr44drop_in_place$LT$proc_macro2..imp..Group$GT$17h2613b280614f27c9E', symObjAddr: 0x290, symBinAddr: 0xB800, symSize: 0x130 }
  - { offsetInCU: 0x3632, offset: 0x5D38E, size: 0x8, addend: 0x0, symName: '__ZN4core4char7methods22_$LT$impl$u20$char$GT$16escape_debug_ext17h6a6ae48372cd5833E.llvm.5840665275293963955', symObjAddr: 0x4E0, symBinAddr: 0xB930, symSize: 0x170 }
  - { offsetInCU: 0x4130, offset: 0x5DE8C, size: 0x8, addend: 0x0, symName: __ZN11proc_macro28fallback26push_token_from_proc_macro17hf734b6b0f6c13c4aE, symObjAddr: 0x9E0, symBinAddr: 0xBAA0, symSize: 0xE0 }
  - { offsetInCU: 0x43B1, offset: 0x5E10D, size: 0x8, addend: 0x0, symName: __ZN11proc_macro28fallback26push_token_from_proc_macro21push_negative_literal17h0bac5d013f697996E.llvm.5840665275293963955, symObjAddr: 0xAC0, symBinAddr: 0x5A710, symSize: 0x230 }
  - { offsetInCU: 0x4A02, offset: 0x5E75E, size: 0x8, addend: 0x0, symName: '__ZN76_$LT$proc_macro2..fallback..TokenStream$u20$as$u20$core..ops..drop..Drop$GT$4drop17h4dcf47931783f9e3E', symObjAddr: 0xCF0, symBinAddr: 0xBB80, symSize: 0x240 }
  - { offsetInCU: 0x4FD3, offset: 0x5ED2F, size: 0x8, addend: 0x0, symName: '__ZN73_$LT$proc_macro2..fallback..TokenStream$u20$as$u20$core..fmt..Display$GT$3fmt17h3f6406ce4af742d9E', symObjAddr: 0x11A0, symBinAddr: 0xBDC0, symSize: 0x1A0 }
  - { offsetInCU: 0x5403, offset: 0x5F15F, size: 0x8, addend: 0x0, symName: '__ZN96_$LT$proc_macro2..fallback..TokenStream$u20$as$u20$core..iter..traits..collect..IntoIterator$GT$9into_iter17h962dad442ae0992fE', symObjAddr: 0x1630, symBinAddr: 0xBF60, symSize: 0xC0 }
  - { offsetInCU: 0x5778, offset: 0x5F4D4, size: 0x8, addend: 0x0, symName: __ZN11proc_macro28fallback14validate_ident17h3211f0b70104d2a3E.llvm.5840665275293963955, symObjAddr: 0x1BA0, symBinAddr: 0xC170, symSize: 0x220 }
  - { offsetInCU: 0x5D02, offset: 0x5FA5E, size: 0x8, addend: 0x0, symName: __ZN11proc_macro28fallback11escape_utf817hc4c1f64509eacc41E.llvm.5840665275293963955, symObjAddr: 0x30C0, symBinAddr: 0xC4B0, symSize: 0x210 }
  - { offsetInCU: 0x5D3C, offset: 0x5FA98, size: 0x8, addend: 0x0, symName: __ZN11proc_macro28fallback11escape_utf817hc4c1f64509eacc41E.llvm.5840665275293963955, symObjAddr: 0x30C0, symBinAddr: 0xC4B0, symSize: 0x210 }
  - { offsetInCU: 0x5D5A, offset: 0x5FAB6, size: 0x8, addend: 0x0, symName: __ZN11proc_macro28fallback11escape_utf817hc4c1f64509eacc41E.llvm.5840665275293963955, symObjAddr: 0x30C0, symBinAddr: 0xC4B0, symSize: 0x210 }
  - { offsetInCU: 0x7635, offset: 0x61391, size: 0x8, addend: 0x0, symName: __ZN11proc_macro28fallback5Ident15new_raw_checked17hac050fe5d6f9aeadE, symObjAddr: 0x19A0, symBinAddr: 0xC020, symSize: 0x150 }
  - { offsetInCU: 0x7D8F, offset: 0x61AEB, size: 0x8, addend: 0x0, symName: __ZN11proc_macro28fallback7Literal6string17h7142d0cef90d7142E, symObjAddr: 0x2270, symBinAddr: 0xC390, symSize: 0x120 }
  - { offsetInCU: 0x107E, offset: 0x645B9, size: 0x8, addend: 0x0, symName: __ZN11proc_macro23imp8mismatch17hb8088da5da82a396E, symObjAddr: 0x510, symBinAddr: 0x5A940, symSize: 0x60 }
  - { offsetInCU: 0x1176, offset: 0x646B1, size: 0x8, addend: 0x0, symName: __ZN11proc_macro23imp19into_compiler_token17h2d612ced0b139098E, symObjAddr: 0xAD0, symBinAddr: 0xCCE0, symSize: 0x150 }
  - { offsetInCU: 0x13AE, offset: 0x648E9, size: 0x8, addend: 0x0, symName: '__ZN91_$LT$proc_macro2..imp..TokenStream$u20$as$u20$core..iter..traits..collect..IntoIterator$GT$9into_iter17h79559a9d98b72bd5E', symObjAddr: 0xED0, symBinAddr: 0xCE30, symSize: 0x130 }
  - { offsetInCU: 0x16BF, offset: 0x64BFA, size: 0x8, addend: 0x0, symName: '__ZN90_$LT$proc_macro2..imp..TokenTreeIter$u20$as$u20$core..iter..traits..iterator..Iterator$GT$4next17hc48d1e95b54513a3E', symObjAddr: 0x1000, symBinAddr: 0xCF60, symSize: 0x170 }
  - { offsetInCU: 0x1966, offset: 0x64EA1, size: 0x8, addend: 0x0, symName: '__ZN62_$LT$proc_macro2..imp..Group$u20$as$u20$core..fmt..Display$GT$3fmt17h849186e08170a465E', symObjAddr: 0x14E0, symBinAddr: 0xD0D0, symSize: 0xE0 }
  - { offsetInCU: 0x249E, offset: 0x659D9, size: 0x8, addend: 0x0, symName: '__ZN4core3ptr44drop_in_place$LT$proc_macro2..imp..Group$GT$17h2613b280614f27c9E', symObjAddr: 0xF0, symBinAddr: 0xC6C0, symSize: 0x60 }
  - { offsetInCU: 0x2651, offset: 0x65B8C, size: 0x8, addend: 0x0, symName: '__ZN4core3ptr50drop_in_place$LT$proc_macro2..imp..TokenStream$GT$17h4418eca18fccf94fE', symObjAddr: 0x150, symBinAddr: 0xC720, symSize: 0x140 }
  - { offsetInCU: 0x2A6B, offset: 0x65FA6, size: 0x8, addend: 0x0, symName: '__ZN4core3ptr58drop_in_place$LT$proc_macro2..imp..DeferredTokenStream$GT$17hd0e91384f7ef427dE.llvm.13700470314167318912', symObjAddr: 0x2C0, symBinAddr: 0xC860, symSize: 0x110 }
  - { offsetInCU: 0x2DC2, offset: 0x662FD, size: 0x8, addend: 0x0, symName: '__ZN4core3ptr65drop_in_place$LT$alloc..vec..Vec$LT$proc_macro..TokenTree$GT$$GT$17he9c93e4c33df09bdE.llvm.13700470314167318912', symObjAddr: 0x3D0, symBinAddr: 0xC970, symSize: 0x120 }
  - { offsetInCU: 0x407D, offset: 0x675B8, size: 0x8, addend: 0x0, symName: __ZN11proc_macro23imp19DeferredTokenStream12evaluate_now17hbf0bd72116d3ebf5E, symObjAddr: 0x570, symBinAddr: 0xCA90, symSize: 0x60 }
  - { offsetInCU: 0x409D, offset: 0x675D8, size: 0x8, addend: 0x0, symName: __ZN11proc_macro23imp19DeferredTokenStream12evaluate_now17hbf0bd72116d3ebf5E, symObjAddr: 0x570, symBinAddr: 0xCA90, symSize: 0x60 }
  - { offsetInCU: 0x40AD, offset: 0x675E8, size: 0x8, addend: 0x0, symName: __ZN11proc_macro23imp19DeferredTokenStream12evaluate_now17hbf0bd72116d3ebf5E, symObjAddr: 0x570, symBinAddr: 0xCA90, symSize: 0x60 }
  - { offsetInCU: 0x40C5, offset: 0x67600, size: 0x8, addend: 0x0, symName: __ZN11proc_macro23imp19DeferredTokenStream12evaluate_now17hbf0bd72116d3ebf5E, symObjAddr: 0x570, symBinAddr: 0xCA90, symSize: 0x60 }
  - { offsetInCU: 0x40D6, offset: 0x67611, size: 0x8, addend: 0x0, symName: __ZN11proc_macro23imp19DeferredTokenStream12evaluate_now17hbf0bd72116d3ebf5E, symObjAddr: 0x570, symBinAddr: 0xCA90, symSize: 0x60 }
  - { offsetInCU: 0x428F, offset: 0x677CA, size: 0x8, addend: 0x0, symName: __ZN11proc_macro23imp19DeferredTokenStream17into_token_stream17h0ba00199e341e9c7E, symObjAddr: 0x5D0, symBinAddr: 0xCAF0, symSize: 0x140 }
  - { offsetInCU: 0x4803, offset: 0x67D3E, size: 0x8, addend: 0x0, symName: __ZN11proc_macro23imp11TokenStream14unwrap_nightly17h1817e7cb839ab8b3E, symObjAddr: 0x7F0, symBinAddr: 0xCC30, symSize: 0x70 }
  - { offsetInCU: 0x4843, offset: 0x67D7E, size: 0x8, addend: 0x0, symName: __ZN11proc_macro23imp11TokenStream13unwrap_stable17h0c52909372f80ea7E, symObjAddr: 0x860, symBinAddr: 0xCCA0, symSize: 0x40 }
  - { offsetInCU: 0x1E, offset: 0x68DB9, size: 0x8, addend: 0x0, symName: __ZN5alloc7raw_vec11finish_grow17h80c5369c565b1395E.llvm.1684230739702320157, symObjAddr: 0x0, symBinAddr: 0xD1B0, symSize: 0xA0 }
  - { offsetInCU: 0x1A36, offset: 0x6A7D1, size: 0x8, addend: 0x0, symName: __ZN5alloc7raw_vec11finish_grow17h80c5369c565b1395E.llvm.1684230739702320157, symObjAddr: 0x0, symBinAddr: 0xD1B0, symSize: 0xA0 }
  - { offsetInCU: 0x2018, offset: 0x6ADB3, size: 0x8, addend: 0x0, symName: '__ZN5alloc7raw_vec19RawVec$LT$T$C$A$GT$7reserve21do_reserve_and_handle17h46590926d7527542E', symObjAddr: 0x390, symBinAddr: 0x5A9A0, symSize: 0xB0 }
  - { offsetInCU: 0x2350, offset: 0x6B0EB, size: 0x8, addend: 0x0, symName: '__ZN5alloc7raw_vec19RawVec$LT$T$C$A$GT$7reserve21do_reserve_and_handle17he9a2d8ccfad03df2E', symObjAddr: 0x440, symBinAddr: 0x5AA50, symSize: 0xC0 }
  - { offsetInCU: 0x26A9, offset: 0x6B444, size: 0x8, addend: 0x0, symName: '__ZN77_$LT$alloc..raw_vec..RawVec$LT$T$C$A$GT$$u20$as$u20$core..ops..drop..Drop$GT$4drop17h36de81d442f12637E', symObjAddr: 0x500, symBinAddr: 0xD3C0, symSize: 0x0 }
  - { offsetInCU: 0x27A6, offset: 0x6B541, size: 0x8, addend: 0x0, symName: '__ZN77_$LT$alloc..raw_vec..RawVec$LT$T$C$A$GT$$u20$as$u20$core..ops..drop..Drop$GT$4drop17h76bf541c7094e2a9E', symObjAddr: 0x550, symBinAddr: 0xD3F0, symSize: 0x0 }
  - { offsetInCU: 0x3023, offset: 0x6BDBE, size: 0x8, addend: 0x0, symName: '__ZN5alloc7raw_vec19RawVec$LT$T$C$A$GT$16reserve_for_push17h3e706b06bfa5b84aE', symObjAddr: 0x220, symBinAddr: 0xD250, symSize: 0x0 }
  - { offsetInCU: 0x34E7, offset: 0x6C282, size: 0x8, addend: 0x0, symName: '__ZN5alloc7raw_vec19RawVec$LT$T$C$A$GT$16reserve_for_push17hd9936813c1254f98E', symObjAddr: 0x2E0, symBinAddr: 0xD310, symSize: 0xB0 }
  - { offsetInCU: 0x1E, offset: 0x6C7BF, size: 0x8, addend: 0x0, symName: '__ZN4core3ptr43drop_in_place$LT$proc_macro2..TokenTree$GT$17h996d4c1f6be68e48E.llvm.14241295390370336280', symObjAddr: 0x0, symBinAddr: 0xD420, symSize: 0x180 }
  - { offsetInCU: 0x12D4, offset: 0x6DA75, size: 0x8, addend: 0x0, symName: '__ZN4core3ptr43drop_in_place$LT$proc_macro2..TokenTree$GT$17h996d4c1f6be68e48E.llvm.14241295390370336280', symObjAddr: 0x0, symBinAddr: 0xD420, symSize: 0x180 }
  - { offsetInCU: 0x2565, offset: 0x6ED06, size: 0x8, addend: 0x0, symName: '__ZN70_$LT$alloc..vec..Vec$LT$T$C$A$GT$$u20$as$u20$core..ops..drop..Drop$GT$4drop17hf736d53bd01aab84E', symObjAddr: 0xD20, symBinAddr: 0xD930, symSize: 0x90 }
  - { offsetInCU: 0x2676, offset: 0x6EE17, size: 0x8, addend: 0x0, symName: '__ZN97_$LT$alloc..vec..Vec$LT$T$C$A$GT$$u20$as$u20$alloc..vec..spec_extend..SpecExtend$LT$T$C$I$GT$$GT$11spec_extend17hbcf46a3319d6740eE', symObjAddr: 0xE30, symBinAddr: 0xD9C0, symSize: 0x13A }
  - { offsetInCU: 0x2B9F, offset: 0x6F340, size: 0x8, addend: 0x0, symName: '__ZN67_$LT$alloc..vec..Vec$LT$T$C$A$GT$$u20$as$u20$core..clone..Clone$GT$5clone17h33453611c4116eeeE', symObjAddr: 0x240, symBinAddr: 0xD5A0, symSize: 0x390 }
  - { offsetInCU: 0x1E, offset: 0x71AA1, size: 0x8, addend: 0x0, symName: '__ZN4core3ptr43drop_in_place$LT$proc_macro2..TokenTree$GT$17h996d4c1f6be68e48E.llvm.12058553322235991005', symObjAddr: 0x0, symBinAddr: 0xDB00, symSize: 0xB0 }
  - { offsetInCU: 0xE45, offset: 0x728C8, size: 0x8, addend: 0x0, symName: '__ZN4core3ptr43drop_in_place$LT$proc_macro2..TokenTree$GT$17h996d4c1f6be68e48E.llvm.12058553322235991005', symObjAddr: 0x0, symBinAddr: 0xDB00, symSize: 0xB0 }
  - { offsetInCU: 0x1788, offset: 0x7320B, size: 0x8, addend: 0x0, symName: '__ZN86_$LT$alloc..vec..into_iter..IntoIter$LT$T$C$A$GT$$u20$as$u20$core..ops..drop..Drop$GT$4drop17hecd099dbf4180ec4E', symObjAddr: 0x820, symBinAddr: 0xDBB0, symSize: 0xCD }
  - { offsetInCU: 0x921, offset: 0x7467A, size: 0x8, addend: 0x0, symName: '__ZN57_$LT$proc_macro2..Ident$u20$as$u20$core..fmt..Display$GT$3fmt17h320c344510f497ffE', symObjAddr: 0x1380, symBinAddr: 0xE010, symSize: 0x60 }
  - { offsetInCU: 0xBFD, offset: 0x74956, size: 0x8, addend: 0x0, symName: '__ZN11proc_macro212token_stream96_$LT$impl$u20$core..iter..traits..collect..IntoIterator$u20$for$u20$proc_macro2..TokenStream$GT$9into_iter17h761589f9e36a0d3fE', symObjAddr: 0x1BA0, symBinAddr: 0xE120, symSize: 0x50 }
  - { offsetInCU: 0xE44, offset: 0x74B9D, size: 0x8, addend: 0x0, symName: __ZN11proc_macro211TokenStream3new17h17d45117f7fd0980E, symObjAddr: 0x270, symBinAddr: 0xDC80, symSize: 0xB0 }
  - { offsetInCU: 0xFEA, offset: 0x74D43, size: 0x8, addend: 0x0, symName: __ZN11proc_macro24Span9call_site17hec1d9bc08f33c175E, symObjAddr: 0x630, symBinAddr: 0xDD30, symSize: 0x20 }
  - { offsetInCU: 0x106B, offset: 0x74DC4, size: 0x8, addend: 0x0, symName: __ZN11proc_macro25Group3new17h2144e92fc080ba10E, symObjAddr: 0xC50, symBinAddr: 0xDD50, symSize: 0xA0 }
  - { offsetInCU: 0x1127, offset: 0x74E80, size: 0x8, addend: 0x0, symName: __ZN11proc_macro25Group9delimiter17h8fea42f8228ba40dE, symObjAddr: 0xCF0, symBinAddr: 0xDDF0, symSize: 0x20 }
  - { offsetInCU: 0x1189, offset: 0x74EE2, size: 0x8, addend: 0x0, symName: __ZN11proc_macro25Group6stream17hd6b6cef961b69cd5E, symObjAddr: 0xD10, symBinAddr: 0xDE10, symSize: 0x50 }
  - { offsetInCU: 0x139B, offset: 0x750F4, size: 0x8, addend: 0x0, symName: __ZN11proc_macro25Group8set_span17h56bfa9fab77bab01E, symObjAddr: 0xD90, symBinAddr: 0xDE60, symSize: 0x40 }
  - { offsetInCU: 0x1431, offset: 0x7518A, size: 0x8, addend: 0x0, symName: __ZN11proc_macro25Punct3new17hc04cf9e22239dc8aE, symObjAddr: 0xE80, symBinAddr: 0xDEA0, symSize: 0x40 }
  - { offsetInCU: 0x14A6, offset: 0x751FF, size: 0x8, addend: 0x0, symName: __ZN11proc_macro25Ident3new17hb53e817aa6c8daaeE, symObjAddr: 0xF70, symBinAddr: 0xDEE0, symSize: 0xB0 }
  - { offsetInCU: 0x1749, offset: 0x754A2, size: 0x8, addend: 0x0, symName: __ZN11proc_macro25Ident7new_raw17hd351a967fa402bfbE, symObjAddr: 0x1020, symBinAddr: 0xDF90, symSize: 0x80 }
  - { offsetInCU: 0x1812, offset: 0x7556B, size: 0x8, addend: 0x0, symName: __ZN11proc_macro27Literal6string17h6d0de9587a4428a7E, symObjAddr: 0x1790, symBinAddr: 0xE070, symSize: 0x80 }
  - { offsetInCU: 0x187C, offset: 0x755D5, size: 0x8, addend: 0x0, symName: __ZN11proc_macro27Literal8set_span17h43e700f06bb003ffE, symObjAddr: 0x1980, symBinAddr: 0xE0F0, symSize: 0x30 }
  - { offsetInCU: 0x1E, offset: 0x77AEB, size: 0x8, addend: 0x0, symName: '__ZN108_$LT$proc_macro..TokenStream$u20$as$u20$core..iter..traits..collect..Extend$LT$proc_macro..TokenTree$GT$$GT$6extend17h48e53df38a7cf5edE', symObjAddr: 0x0, symBinAddr: 0xE170, symSize: 0x1A0 }
  - { offsetInCU: 0x99, offset: 0x77B66, size: 0x8, addend: 0x0, symName: '__ZN58_$LT$alloc..string..String$u20$as$u20$core..fmt..Write$GT$10write_char17hd329c0cb943f081aE', symObjAddr: 0x370, symBinAddr: 0xE4E0, symSize: 0x130 }
  - { offsetInCU: 0x440, offset: 0x77F0D, size: 0x8, addend: 0x0, symName: '__ZN58_$LT$alloc..string..String$u20$as$u20$core..fmt..Write$GT$9write_str17h1ff5aa96ca91c6d5E', symObjAddr: 0x4A0, symBinAddr: 0xE610, symSize: 0x60 }
  - { offsetInCU: 0xE8B, offset: 0x78958, size: 0x8, addend: 0x0, symName: '__ZN4core3ptr37drop_in_place$LT$core..fmt..Error$GT$17he1336f1b6be41b16E', symObjAddr: 0x1A0, symBinAddr: 0xE310, symSize: 0x10 }
  - { offsetInCU: 0xEF5, offset: 0x789C2, size: 0x8, addend: 0x0, symName: '__ZN4core3ptr42drop_in_place$LT$alloc..string..String$GT$17hf877cd6480bce103E', symObjAddr: 0x1B0, symBinAddr: 0xE320, symSize: 0x20 }
  - { offsetInCU: 0x103C, offset: 0x78B09, size: 0x8, addend: 0x0, symName: '__ZN4core3ptr50drop_in_place$LT$proc_macro..ConcatTreesHelper$GT$17h0f09af7fdee293b1E.llvm.4690505592701441421', symObjAddr: 0x1D0, symBinAddr: 0xE340, symSize: 0x120 }
  - { offsetInCU: 0x13D7, offset: 0x78EA4, size: 0x8, addend: 0x0, symName: '__ZN4core3ptr55drop_in_place$LT$proc_macro2..fallback..TokenStream$GT$17h7180b98b1ad648f5E', symObjAddr: 0x2F0, symBinAddr: 0xE460, symSize: 0x40 }
  - { offsetInCU: 0x15B6, offset: 0x79083, size: 0x8, addend: 0x0, symName: '__ZN53_$LT$core..fmt..Error$u20$as$u20$core..fmt..Debug$GT$3fmt17h43ae5cec9623af13E', symObjAddr: 0x330, symBinAddr: 0xE4A0, symSize: 0x20 }
  - { offsetInCU: 0x235C, offset: 0x79E29, size: 0x8, addend: 0x0, symName: '__ZN108_$LT$proc_macro..TokenStream$u20$as$u20$core..iter..traits..collect..Extend$LT$proc_macro..TokenTree$GT$$GT$6extend17h48e53df38a7cf5edE', symObjAddr: 0x0, symBinAddr: 0xE170, symSize: 0x1A0 }
  - { offsetInCU: 0x26EB, offset: 0x7A1B8, size: 0x8, addend: 0x0, symName: '__ZN57_$LT$proc_macro..LexError$u20$as$u20$core..fmt..Debug$GT$3fmt17hc927c3562ad8db9cE', symObjAddr: 0x350, symBinAddr: 0xE4C0, symSize: 0x20 }
  - { offsetInCU: 0x2988, offset: 0x7A455, size: 0x8, addend: 0x0, symName: '__ZN11proc_macro23imp110_$LT$impl$u20$core..convert..From$LT$proc_macro2..imp..TokenStream$GT$$u20$for$u20$proc_macro..TokenStream$GT$4from17h54634d319e20e977E', symObjAddr: 0x660, symBinAddr: 0xE670, symSize: 0x1B0 }
  - { offsetInCU: 0x301F, offset: 0x7AAEC, size: 0x8, addend: 0x0, symName: '__ZN11proc_macro2105_$LT$impl$u20$core..convert..From$LT$proc_macro2..TokenStream$GT$$u20$for$u20$proc_macro..TokenStream$GT$4from17hc9a18503d343d012E', symObjAddr: 0x810, symBinAddr: 0xE820, symSize: 0xA }
  - { offsetInCU: 0x1E, offset: 0x7B879, size: 0x8, addend: 0x0, symName: __ZN4core3fmt5Write9write_fmt17h189da4a56a2e8ecbE, symObjAddr: 0x0, symBinAddr: 0xE830, symSize: 0x20 }
  - { offsetInCU: 0xA0, offset: 0x7B8FB, size: 0x8, addend: 0x0, symName: '__ZN58_$LT$alloc..string..String$u20$as$u20$core..fmt..Write$GT$10write_char17hd329c0cb943f081aE', symObjAddr: 0x40, symBinAddr: 0xE870, symSize: 0x130 }
  - { offsetInCU: 0x447, offset: 0x7BCA2, size: 0x8, addend: 0x0, symName: '__ZN58_$LT$alloc..string..String$u20$as$u20$core..fmt..Write$GT$9write_str17h1ff5aa96ca91c6d5E', symObjAddr: 0x170, symBinAddr: 0xE9A0, symSize: 0x60 }
  - { offsetInCU: 0x6CE, offset: 0x7BF29, size: 0x8, addend: 0x0, symName: '__ZN89_$LT$alloc..string..String$u20$as$u20$core..iter..traits..collect..Extend$LT$char$GT$$GT$6extend17h6344d2c73d7c74adE', symObjAddr: 0x1D0, symBinAddr: 0xEA00, symSize: 0x221 }
  - { offsetInCU: 0x1073, offset: 0x7C8CE, size: 0x8, addend: 0x0, symName: '__ZN4core3ptr42drop_in_place$LT$alloc..string..String$GT$17hf877cd6480bce103E', symObjAddr: 0x20, symBinAddr: 0xE850, symSize: 0x20 }
  - { offsetInCU: 0x1329, offset: 0x7CB84, size: 0x8, addend: 0x0, symName: __ZN4core3fmt5Write9write_fmt17h189da4a56a2e8ecbE, symObjAddr: 0x0, symBinAddr: 0xE830, symSize: 0x20 }
  - { offsetInCU: 0x502, offset: 0x7E462, size: 0x8, addend: 0x0, symName: '__ZN68_$LT$alloc..rc..Rc$LT$T$C$A$GT$$u20$as$u20$core..ops..drop..Drop$GT$4drop17ha83a50aa62c45579E', symObjAddr: 0x170, symBinAddr: 0xEC30, symSize: 0xDE }
  - { offsetInCU: 0x1E, offset: 0x7FAEE, size: 0x8, addend: 0x0, symName: '__ZN4core3ptr168drop_in_place$LT$$LT$alloc..vec..drain..Drain$LT$T$C$A$GT$$u20$as$u20$core..ops..drop..Drop$GT$..drop..DropGuard$LT$proc_macro..TokenTree$C$alloc..alloc..Global$GT$$GT$17h6d0dcb9377ffa0bcE.llvm.2694351614824825149', symObjAddr: 0x0, symBinAddr: 0xED10, symSize: 0x60 }
  - { offsetInCU: 0x496, offset: 0x7FF66, size: 0x8, addend: 0x0, symName: '__ZN79_$LT$alloc..vec..drain..Drain$LT$T$C$A$GT$$u20$as$u20$core..ops..drop..Drop$GT$4drop17h176ce540d9bb434bE', symObjAddr: 0x60, symBinAddr: 0xED70, symSize: 0x130 }
  - { offsetInCU: 0xE58, offset: 0x80928, size: 0x8, addend: 0x0, symName: '__ZN4core3ptr168drop_in_place$LT$$LT$alloc..vec..drain..Drain$LT$T$C$A$GT$$u20$as$u20$core..ops..drop..Drop$GT$..drop..DropGuard$LT$proc_macro..TokenTree$C$alloc..alloc..Global$GT$$GT$17h6d0dcb9377ffa0bcE.llvm.2694351614824825149', symObjAddr: 0x0, symBinAddr: 0xED10, symSize: 0x60 }
  - { offsetInCU: 0xE74, offset: 0x80944, size: 0x8, addend: 0x0, symName: '__ZN4core3ptr168drop_in_place$LT$$LT$alloc..vec..drain..Drain$LT$T$C$A$GT$$u20$as$u20$core..ops..drop..Drop$GT$..drop..DropGuard$LT$proc_macro..TokenTree$C$alloc..alloc..Global$GT$$GT$17h6d0dcb9377ffa0bcE.llvm.2694351614824825149', symObjAddr: 0x0, symBinAddr: 0xED10, symSize: 0x60 }
  - { offsetInCU: 0x1E, offset: 0x80FC9, size: 0x8, addend: 0x0, symName: '__ZN3std4sync4once4Once9call_once28_$u7b$$u7b$closure$u7d$$u7d$17hcddcd59650de7aa5E.llvm.13783712447339572713', symObjAddr: 0x0, symBinAddr: 0xEEA0, symSize: 0x40 }
  - { offsetInCU: 0x35, offset: 0x80FE0, size: 0x8, addend: 0x0, symName: _anon.ebc200ebf286e795f91d1a86abd4041d.0.llvm.13783712447339572713, symObjAddr: 0x138, symBinAddr: 0x70778, symSize: 0x0 }
  - { offsetInCU: 0xC8, offset: 0x81073, size: 0x8, addend: 0x0, symName: '__ZN3std4sync4once4Once9call_once28_$u7b$$u7b$closure$u7d$$u7d$17hcddcd59650de7aa5E.llvm.13783712447339572713', symObjAddr: 0x0, symBinAddr: 0xEEA0, symSize: 0x40 }
  - { offsetInCU: 0x5A6, offset: 0x81551, size: 0x8, addend: 0x0, symName: '__ZN4core3ptr124drop_in_place$LT$std..sync..once..Once..call_once$LT$proc_macro2..detection..initialize$GT$..$u7b$$u7b$closure$u7d$$u7d$$GT$17h678fa6ede8ebeb77E.llvm.13783712447339572713', symObjAddr: 0x80, symBinAddr: 0xEF20, symSize: 0x10 }
  - { offsetInCU: 0x685, offset: 0x81630, size: 0x8, addend: 0x0, symName: '__ZN4core3ops8function6FnOnce40call_once$u7b$$u7b$vtable.shim$u7d$$u7d$17h268f4d8204303fb2E.llvm.13783712447339572713', symObjAddr: 0x40, symBinAddr: 0xEEE0, symSize: 0x40 }
  - { offsetInCU: 0x82D, offset: 0x817D8, size: 0x8, addend: 0x0, symName: __ZN11proc_macro29detection5WORKS17h8e6e5526335dfc8eE.0.llvm.13783712447339572713, symObjAddr: 0x3310, symBinAddr: 0x759D8, symSize: 0x0 }
  - { offsetInCU: 0x848, offset: 0x817F3, size: 0x8, addend: 0x0, symName: __ZN11proc_macro29detection4INIT17h79c893332cdfffa8E.llvm.13783712447339572713, symObjAddr: 0x3318, symBinAddr: 0x759E0, symSize: 0x0 }
  - { offsetInCU: 0x870, offset: 0x8181B, size: 0x8, addend: 0x0, symName: __ZN11proc_macro29detection17inside_proc_macro17h41fc8c04a3385176E, symObjAddr: 0x90, symBinAddr: 0xEF30, symSize: 0x70 }
  - { offsetInCU: 0x892, offset: 0x8183D, size: 0x8, addend: 0x0, symName: __ZN11proc_macro29detection17inside_proc_macro17h41fc8c04a3385176E, symObjAddr: 0x90, symBinAddr: 0xEF30, symSize: 0x70 }
  - { offsetInCU: 0x8A2, offset: 0x8184D, size: 0x8, addend: 0x0, symName: __ZN11proc_macro29detection17inside_proc_macro17h41fc8c04a3385176E, symObjAddr: 0x90, symBinAddr: 0xEF30, symSize: 0x70 }
  - { offsetInCU: 0x8B9, offset: 0x81864, size: 0x8, addend: 0x0, symName: __ZN11proc_macro29detection17inside_proc_macro17h41fc8c04a3385176E, symObjAddr: 0x90, symBinAddr: 0xEF30, symSize: 0x70 }
  - { offsetInCU: 0x1E, offset: 0x81AFC, size: 0x8, addend: 0x0, symName: '__ZN94_$LT$proc_macro2..token_stream..IntoIter$u20$as$u20$core..iter..traits..iterator..Iterator$GT$4next17hfd721469df2cc324E', symObjAddr: 0x0, symBinAddr: 0xEFA0, symSize: 0x20 }
  - { offsetInCU: 0xA7, offset: 0x81B85, size: 0x8, addend: 0x0, symName: '__ZN94_$LT$proc_macro2..token_stream..IntoIter$u20$as$u20$core..iter..traits..iterator..Iterator$GT$4next17hfd721469df2cc324E', symObjAddr: 0x0, symBinAddr: 0xEFA0, symSize: 0x20 }
  - { offsetInCU: 0x1E, offset: 0x82A71, size: 0x8, addend: 0x0, symName: '__ZN42_$LT$$RF$T$u20$as$u20$core..fmt..Debug$GT$3fmt17ha7c25c681fe1a6dfE', symObjAddr: 0x0, symBinAddr: 0xEFC0, symSize: 0x20 }
  - { offsetInCU: 0x64, offset: 0x82AB7, size: 0x8, addend: 0x0, symName: '__ZN42_$LT$$RF$T$u20$as$u20$core..fmt..Debug$GT$3fmt17ha7c25c681fe1a6dfE', symObjAddr: 0x0, symBinAddr: 0xEFC0, symSize: 0x20 }
  - { offsetInCU: 0x119, offset: 0x82B6C, size: 0x8, addend: 0x0, symName: '__ZN44_$LT$$RF$T$u20$as$u20$core..fmt..Display$GT$3fmt17h60028ed5dce1d2a8E', symObjAddr: 0x50, symBinAddr: 0xEFE0, symSize: 0x17 }
  - { offsetInCU: 0x1E, offset: 0x82D88, size: 0x8, addend: 0x0, symName: __ZN13unicode_ident12is_xid_start17h17f6ef620eb620dfE, symObjAddr: 0x0, symBinAddr: 0xF000, symSize: 0x70 }
  - { offsetInCU: 0x4AA, offset: 0x83214, size: 0x8, addend: 0x0, symName: __ZN13unicode_ident12is_xid_start17h17f6ef620eb620dfE, symObjAddr: 0x0, symBinAddr: 0xF000, symSize: 0x70 }
  - { offsetInCU: 0x4DB, offset: 0x83245, size: 0x8, addend: 0x0, symName: __ZN13unicode_ident12is_xid_start17h17f6ef620eb620dfE, symObjAddr: 0x0, symBinAddr: 0xF000, symSize: 0x70 }
  - { offsetInCU: 0x645, offset: 0x833AF, size: 0x8, addend: 0x0, symName: __ZN13unicode_ident15is_xid_continue17hfff6245a7a6de75dE, symObjAddr: 0x70, symBinAddr: 0xF070, symSize: 0x62 }
  - { offsetInCU: 0x678, offset: 0x833E2, size: 0x8, addend: 0x0, symName: __ZN13unicode_ident15is_xid_continue17hfff6245a7a6de75dE, symObjAddr: 0x70, symBinAddr: 0xF070, symSize: 0x62 }
  - { offsetInCU: 0x36, offset: 0x835BE, size: 0x8, addend: 0x0, symName: __ZN13unicode_ident6tables11ASCII_START17hd8dc07acfd018c38E, symObjAddr: 0x0, symBinAddr: 0x63100, symSize: 0x0 }
  - { offsetInCU: 0x6D, offset: 0x835F5, size: 0x8, addend: 0x0, symName: __ZN13unicode_ident6tables14ASCII_CONTINUE17h5f57c0e751054cd5E, symObjAddr: 0x80, symBinAddr: 0x63180, symSize: 0x0 }
  - { offsetInCU: 0x88, offset: 0x83610, size: 0x8, addend: 0x0, symName: __ZN13unicode_ident6tables10TRIE_START17hb21cdb9ff28fcad4E, symObjAddr: 0x100, symBinAddr: 0x63200, symSize: 0x0 }
  - { offsetInCU: 0xC1, offset: 0x83649, size: 0x8, addend: 0x0, symName: __ZN13unicode_ident6tables13TRIE_CONTINUE17hc1e3e397488d5722E, symObjAddr: 0x298, symBinAddr: 0x63398, symSize: 0x0 }
  - { offsetInCU: 0xFA, offset: 0x83682, size: 0x8, addend: 0x0, symName: __ZN13unicode_ident6tables4LEAF17h7e85ec1ee6cdcf69E, symObjAddr: 0x9C0, symBinAddr: 0x63AC0, symSize: 0x0 }
...
