---
triple:          'x86_64-apple-darwin'
binary-path:     "/Users/justinlanouette/Chaos/ChaöS-Token/hello_world/target/release/deps/librustversion-5305d0946213b569.dylib"
relocations:
  - { offsetInCU: 0x1E, offset: 0x1E, size: 0x8, addend: 0x0, symName: __ZN11rustversion5bound5parse17h865082e544dea9c5E, symObjAddr: 0x0, symBinAddr: 0x1090, symSize: 0x32B }
  - { offsetInCU: 0x1557, offset: 0x1557, size: 0x8, addend: 0x0, symName: __ZN11rustversion5bound5parse17h865082e544dea9c5E, symObjAddr: 0x0, symBinAddr: 0x1090, symSize: 0x32B }
  - { offsetInCU: 0x277, offset: 0x3142, size: 0x8, addend: 0x0, symName: '__ZN77_$LT$$LP$A$C$B$RP$$u20$as$u20$proc_macro..bridge..rpc..DecodeMut$LT$S$GT$$GT$6decode17h72d8e796dcaa3abfE', symObjAddr: 0x1ED0, symBinAddr: 0x3100, symSize: 0xAA }
  - { offsetInCU: 0x14AB, offset: 0x4376, size: 0x8, addend: 0x0, symName: __ZN10proc_macro6bridge6client10run_client17h04116323d0f61082E, symObjAddr: 0x190, symBinAddr: 0x13C0, symSize: 0x2E0 }
  - { offsetInCU: 0x1C42, offset: 0x4B0D, size: 0x8, addend: 0x0, symName: __ZN10proc_macro6bridge6client10run_client17h13884991f594e967E, symObjAddr: 0x470, symBinAddr: 0x16A0, symSize: 0x2F0 }
  - { offsetInCU: 0x2361, offset: 0x522C, size: 0x8, addend: 0x0, symName: __ZN10proc_macro6bridge6client10run_client17h2653bc4908a5eccdE, symObjAddr: 0x760, symBinAddr: 0x1990, symSize: 0x2F0 }
  - { offsetInCU: 0x2A80, offset: 0x594B, size: 0x8, addend: 0x0, symName: __ZN10proc_macro6bridge6client10run_client17h311a8781d080805cE, symObjAddr: 0xA50, symBinAddr: 0x1C80, symSize: 0x2F0 }
  - { offsetInCU: 0x319F, offset: 0x606A, size: 0x8, addend: 0x0, symName: __ZN10proc_macro6bridge6client10run_client17h3da2b9b2960b0a21E, symObjAddr: 0xD40, symBinAddr: 0x1F70, symSize: 0x2E0 }
  - { offsetInCU: 0x389B, offset: 0x6766, size: 0x8, addend: 0x0, symName: __ZN10proc_macro6bridge6client10run_client17h7048c8ad1ea78a2aE, symObjAddr: 0x1020, symBinAddr: 0x2250, symSize: 0x2F0 }
  - { offsetInCU: 0x3FBA, offset: 0x6E85, size: 0x8, addend: 0x0, symName: __ZN10proc_macro6bridge6client10run_client17h856ab2fa3d0e9280E, symObjAddr: 0x1310, symBinAddr: 0x2540, symSize: 0x2F0 }
  - { offsetInCU: 0x46D9, offset: 0x75A4, size: 0x8, addend: 0x0, symName: __ZN10proc_macro6bridge6client10run_client17h87a93981cc945bcaE, symObjAddr: 0x1600, symBinAddr: 0x2830, symSize: 0x2F0 }
  - { offsetInCU: 0x4DF8, offset: 0x7CC3, size: 0x8, addend: 0x0, symName: __ZN10proc_macro6bridge6client10run_client17ha0ac54abc0029a94E, symObjAddr: 0x18F0, symBinAddr: 0x2B20, symSize: 0x2F0 }
  - { offsetInCU: 0x5517, offset: 0x83E2, size: 0x8, addend: 0x0, symName: __ZN10proc_macro6bridge6client10run_client17hb988d9130a3ced28E, symObjAddr: 0x1BE0, symBinAddr: 0x2E10, symSize: 0x2F0 }
  - { offsetInCU: 0x1E, offset: 0xD5E1, size: 0x8, addend: 0x0, symName: '__ZN4core3ptr44drop_in_place$LT$rustversion..expr..Expr$GT$17ha9a16cfbe72474f3E', symObjAddr: 0x0, symBinAddr: 0x31B0, symSize: 0xC0 }
  - { offsetInCU: 0x5BE, offset: 0xDB81, size: 0x8, addend: 0x0, symName: '__ZN4core3ptr44drop_in_place$LT$rustversion..expr..Expr$GT$17ha9a16cfbe72474f3E', symObjAddr: 0x0, symBinAddr: 0x31B0, symSize: 0xC0 }
  - { offsetInCU: 0x8C4, offset: 0xDE87, size: 0x8, addend: 0x0, symName: '__ZN4core3ptr48drop_in_place$LT$rustversion..iter..IterImpl$GT$17hfd25b11dd5f8a3c2E', symObjAddr: 0xC0, symBinAddr: 0x3270, symSize: 0xF0 }
  - { offsetInCU: 0xD5F, offset: 0xE322, size: 0x8, addend: 0x0, symName: '__ZN4core3ptr67drop_in_place$LT$alloc..vec..Vec$LT$rustversion..expr..Expr$GT$$GT$17hd24a1f4e467dd4eeE', symObjAddr: 0x1B0, symBinAddr: 0x3360, symSize: 0x60 }
  - { offsetInCU: 0x3823, offset: 0x10DE6, size: 0x8, addend: 0x0, symName: __ZN11rustversion4expr5parse17h2cf15040591194adE, symObjAddr: 0x4D0, symBinAddr: 0x3680, symSize: 0xB00 }
  - { offsetInCU: 0x6281, offset: 0x13844, size: 0x8, addend: 0x0, symName: __ZN11rustversion4expr12parse_before17he30158d31c9dc339E, symObjAddr: 0xFD0, symBinAddr: 0x4180, symSize: 0x1E0 }
  - { offsetInCU: 0x6496, offset: 0x13A59, size: 0x8, addend: 0x0, symName: __ZN11rustversion4expr9parse_not17h05ce1c382b90cdafE, symObjAddr: 0x11B0, symBinAddr: 0x4360, symSize: 0x290 }
  - { offsetInCU: 0x67EF, offset: 0x13DB2, size: 0x8, addend: 0x0, symName: __ZN11rustversion4expr9parse_any17h9de479b046a558c0E, symObjAddr: 0x1440, symBinAddr: 0x45F0, symSize: 0x1C0 }
  - { offsetInCU: 0x6B51, offset: 0x14114, size: 0x8, addend: 0x0, symName: __ZN11rustversion4expr9parse_all17h563baccee5c6d86bE, symObjAddr: 0x1600, symBinAddr: 0x47B0, symSize: 0x1C0 }
  - { offsetInCU: 0x6EB3, offset: 0x14476, size: 0x8, addend: 0x0, symName: __ZN11rustversion4expr21parse_comma_separated17h72ae4e45058b2c0aE, symObjAddr: 0x17C0, symBinAddr: 0x4970, symSize: 0x2DC }
  - { offsetInCU: 0x7A19, offset: 0x14FDC, size: 0x8, addend: 0x0, symName: __ZN11rustversion4expr4Expr4eval17h1d098813639bcec1E, symObjAddr: 0x210, symBinAddr: 0x33C0, symSize: 0x2C0 }
  - { offsetInCU: 0x1E, offset: 0x17150, size: 0x8, addend: 0x0, symName: __ZN5alloc7raw_vec11finish_grow17h0e70a26bc7f657b8E.llvm.14536561586626837339, symObjAddr: 0x0, symBinAddr: 0x4C50, symSize: 0xA0 }
  - { offsetInCU: 0x158A, offset: 0x186BC, size: 0x8, addend: 0x0, symName: __ZN5alloc7raw_vec11finish_grow17h0e70a26bc7f657b8E.llvm.14536561586626837339, symObjAddr: 0x0, symBinAddr: 0x4C50, symSize: 0xA0 }
  - { offsetInCU: 0x18FB, offset: 0x18A2D, size: 0x8, addend: 0x0, symName: '__ZN5alloc7raw_vec19RawVec$LT$T$C$A$GT$7reserve21do_reserve_and_handle17h1c3107ef5323124eE', symObjAddr: 0x130, symBinAddr: 0x53060, symSize: 0xA0 }
  - { offsetInCU: 0x1BF3, offset: 0x18D25, size: 0x8, addend: 0x0, symName: '__ZN5alloc7raw_vec19RawVec$LT$T$C$A$GT$7reserve21do_reserve_and_handle17hedb1af2de643b981E', symObjAddr: 0x1D0, symBinAddr: 0x53100, symSize: 0xB0 }
  - { offsetInCU: 0x2A19, offset: 0x19B4B, size: 0x8, addend: 0x0, symName: '__ZN5alloc7raw_vec19RawVec$LT$T$C$A$GT$8grow_one17h48a9ce1ad9146ed7E', symObjAddr: 0x280, symBinAddr: 0x4CF0, symSize: 0x0 }
  - { offsetInCU: 0x2D58, offset: 0x19E8A, size: 0x8, addend: 0x0, symName: '__ZN5alloc7raw_vec19RawVec$LT$T$C$A$GT$8grow_one17hba2cdaa5bc7bd68cE', symObjAddr: 0x330, symBinAddr: 0x4DA0, symSize: 0xA0 }
  - { offsetInCU: 0x3208, offset: 0x1A33A, size: 0x8, addend: 0x0, symName: '__ZN5alloc7raw_vec19RawVec$LT$T$C$A$GT$8grow_one17he37af6027d4d1ecaE', symObjAddr: 0x3D0, symBinAddr: 0x4E40, symSize: 0xC0 }
  - { offsetInCU: 0x1E, offset: 0x1A6A4, size: 0x8, addend: 0x0, symName: '__ZN4core3ptr42drop_in_place$LT$alloc..string..String$GT$17ha78f0f6fdb1cf2e6E.llvm.15947824493136550626', symObjAddr: 0x0, symBinAddr: 0x4F00, symSize: 0x20 }
  - { offsetInCU: 0x35, offset: 0x1A6BB, size: 0x8, addend: 0x0, symName: _anon.6b62b5d10091b90bf85bd525b115bd6d.0.llvm.15947824493136550626, symObjAddr: 0xEC8, symBinAddr: 0x601D8, symSize: 0x0 }
  - { offsetInCU: 0x109, offset: 0x1A78F, size: 0x8, addend: 0x0, symName: '__ZN58_$LT$alloc..string..String$u20$as$u20$core..fmt..Write$GT$10write_char17h04bc467bd68a934bE.llvm.15947824493136550626', symObjAddr: 0x40, symBinAddr: 0x4F40, symSize: 0x140 }
  - { offsetInCU: 0x50E, offset: 0x1AB94, size: 0x8, addend: 0x0, symName: '__ZN58_$LT$alloc..string..String$u20$as$u20$core..fmt..Write$GT$9write_str17h46a93205c3443fbaE.llvm.15947824493136550626', symObjAddr: 0x180, symBinAddr: 0x5080, symSize: 0x60 }
  - { offsetInCU: 0x1254, offset: 0x1B8DA, size: 0x8, addend: 0x0, symName: '__ZN4core3ptr42drop_in_place$LT$alloc..string..String$GT$17ha78f0f6fdb1cf2e6E.llvm.15947824493136550626', symObjAddr: 0x0, symBinAddr: 0x4F00, symSize: 0x20 }
  - { offsetInCU: 0x15DD, offset: 0x1BC63, size: 0x8, addend: 0x0, symName: '__ZN53_$LT$core..fmt..Error$u20$as$u20$core..fmt..Debug$GT$3fmt17h03dc662ab152f3aeE.llvm.15947824493136550626', symObjAddr: 0x20, symBinAddr: 0x4F20, symSize: 0x20 }
  - { offsetInCU: 0x1DFD, offset: 0x1C483, size: 0x8, addend: 0x0, symName: _anon.6b62b5d10091b90bf85bd525b115bd6d.4.llvm.15947824493136550626, symObjAddr: 0xF10, symBinAddr: 0x60220, symSize: 0x0 }
  - { offsetInCU: 0x2CE8, offset: 0x1D36E, size: 0x8, addend: 0x0, symName: __ZN11rustversion5error5Error5group17h10de738f3699e200E, symObjAddr: 0x360, symBinAddr: 0x50E0, symSize: 0x400 }
  - { offsetInCU: 0x3840, offset: 0x1DEC6, size: 0x8, addend: 0x0, symName: __ZN11rustversion5error5Error5group17he7d1ac2ccdc81a8fE, symObjAddr: 0x760, symBinAddr: 0x54E0, symSize: 0x460 }
  - { offsetInCU: 0x42BD, offset: 0x1E943, size: 0x8, addend: 0x0, symName: __ZN11rustversion5error5Error18into_compile_error17h6b48c7a9629d5045E, symObjAddr: 0xBC0, symBinAddr: 0x5940, symSize: 0x20E }
  - { offsetInCU: 0xA13, offset: 0x20036, size: 0x8, addend: 0x0, symName: '__ZN4core3ptr44drop_in_place$LT$rustversion..expr..Expr$GT$17ha9a16cfbe72474f3E.llvm.12702263956556111579', symObjAddr: 0x120, symBinAddr: 0x5B50, symSize: 0xC0 }
  - { offsetInCU: 0x16EE, offset: 0x20D11, size: 0x8, addend: 0x0, symName: '__ZN86_$LT$alloc..vec..into_iter..IntoIter$LT$T$C$A$GT$$u20$as$u20$core..ops..drop..Drop$GT$4drop17h2a5ee8752ce52fd3E', symObjAddr: 0x200, symBinAddr: 0x5C10, symSize: 0x110 }
  - { offsetInCU: 0x1AE4, offset: 0x21107, size: 0x8, addend: 0x0, symName: '__ZN86_$LT$alloc..vec..into_iter..IntoIter$LT$T$C$A$GT$$u20$as$u20$core..ops..drop..Drop$GT$4drop17ha6dfb768f76b1c1fE', symObjAddr: 0x310, symBinAddr: 0x5D20, symSize: 0xD0 }
  - { offsetInCU: 0x1E4E, offset: 0x21471, size: 0x8, addend: 0x0, symName: '__ZN86_$LT$alloc..vec..into_iter..IntoIter$LT$T$C$A$GT$$u20$as$u20$core..ops..drop..Drop$GT$4drop17hf34353b72c315a51E', symObjAddr: 0x3E0, symBinAddr: 0x5DF0, symSize: 0x105 }
  - { offsetInCU: 0x1E, offset: 0x223BA, size: 0x8, addend: 0x0, symName: '__ZN4core3ptr44drop_in_place$LT$rustversion..expr..Expr$GT$17ha9a16cfbe72474f3E', symObjAddr: 0x0, symBinAddr: 0x5F00, symSize: 0xC0 }
  - { offsetInCU: 0x620, offset: 0x229BC, size: 0x8, addend: 0x0, symName: '__ZN4core3ptr44drop_in_place$LT$rustversion..expr..Expr$GT$17ha9a16cfbe72474f3E', symObjAddr: 0x0, symBinAddr: 0x5F00, symSize: 0xC0 }
  - { offsetInCU: 0x926, offset: 0x22CC2, size: 0x8, addend: 0x0, symName: '__ZN4core3ptr48drop_in_place$LT$rustversion..iter..IterImpl$GT$17hfd25b11dd5f8a3c2E', symObjAddr: 0xC0, symBinAddr: 0x5FC0, symSize: 0xF0 }
  - { offsetInCU: 0x200F, offset: 0x243AB, size: 0x8, addend: 0x0, symName: __ZN11rustversion6expand3cfg17hae1310773f3d61c2E, symObjAddr: 0x1B0, symBinAddr: 0x60B0, symSize: 0x340 }
  - { offsetInCU: 0x236C, offset: 0x24708, size: 0x8, addend: 0x0, symName: __ZN11rustversion6expand8try_attr17h4070a8acb0b637ccE, symObjAddr: 0x4F0, symBinAddr: 0x63F0, symSize: 0x5E2 }
  - { offsetInCU: 0x7AF, offset: 0x26867, size: 0x8, addend: 0x0, symName: '__ZN68_$LT$$RF$str$u20$as$u20$proc_macro..bridge..rpc..Encode$LT$S$GT$$GT$6encode17hb6b5ba43f4e6f051E', symObjAddr: 0x80, symBinAddr: 0x69E0, symSize: 0x230 }
  - { offsetInCU: 0x1E, offset: 0x26EC2, size: 0x8, addend: 0x0, symName: '__ZN62_$LT$rustversion..date..Date$u20$as$u20$core..fmt..Display$GT$3fmt17h147bbd8a62ce21d8E', symObjAddr: 0x0, symBinAddr: 0x6C10, symSize: 0x140 }
  - { offsetInCU: 0x17D5, offset: 0x28679, size: 0x8, addend: 0x0, symName: '__ZN62_$LT$rustversion..date..Date$u20$as$u20$core..fmt..Display$GT$3fmt17h147bbd8a62ce21d8E', symObjAddr: 0x0, symBinAddr: 0x6C10, symSize: 0x140 }
  - { offsetInCU: 0x1B3B, offset: 0x289DF, size: 0x8, addend: 0x0, symName: __ZN11rustversion4date5parse17h312cf26d10a8f957E, symObjAddr: 0x140, symBinAddr: 0x6D50, symSize: 0x478 }
  - { offsetInCU: 0x1E, offset: 0x29F3B, size: 0x8, addend: 0x0, symName: '__ZN108_$LT$proc_macro..TokenStream$u20$as$u20$core..iter..traits..collect..Extend$LT$proc_macro..TokenTree$GT$$GT$6extend17h1edfc30a68df710dE', symObjAddr: 0x0, symBinAddr: 0x71D0, symSize: 0xD0 }
  - { offsetInCU: 0x5DA, offset: 0x2A4F7, size: 0x8, addend: 0x0, symName: '__ZN108_$LT$proc_macro..TokenStream$u20$as$u20$core..iter..traits..collect..Extend$LT$proc_macro..TokenTree$GT$$GT$6extend17h1edfc30a68df710dE', symObjAddr: 0x0, symBinAddr: 0x71D0, symSize: 0xD0 }
  - { offsetInCU: 0x88F, offset: 0x2A7AC, size: 0x8, addend: 0x0, symName: '__ZN108_$LT$proc_macro..TokenStream$u20$as$u20$core..iter..traits..collect..Extend$LT$proc_macro..TokenTree$GT$$GT$6extend17h6eb83f34e3131c01E', symObjAddr: 0xD0, symBinAddr: 0x72A0, symSize: 0x130 }
  - { offsetInCU: 0xB57, offset: 0x2AA74, size: 0x8, addend: 0x0, symName: '__ZN108_$LT$proc_macro..TokenStream$u20$as$u20$core..iter..traits..collect..Extend$LT$proc_macro..TokenTree$GT$$GT$6extend17ha2cf1cdbd3178d0bE', symObjAddr: 0x200, symBinAddr: 0x73D0, symSize: 0xB0 }
  - { offsetInCU: 0xCF7, offset: 0x2AC14, size: 0x8, addend: 0x0, symName: '__ZN108_$LT$proc_macro..TokenStream$u20$as$u20$core..iter..traits..collect..Extend$LT$proc_macro..TokenTree$GT$$GT$6extend17hc01cd8f0c5388847E', symObjAddr: 0x2B0, symBinAddr: 0x7480, symSize: 0x1A0 }
  - { offsetInCU: 0x10BA, offset: 0x2AFD7, size: 0x8, addend: 0x0, symName: '__ZN114_$LT$proc_macro..TokenStream$u20$as$u20$core..iter..traits..collect..FromIterator$LT$proc_macro..TokenTree$GT$$GT$9from_iter17h0507fb039611d354E', symObjAddr: 0x450, symBinAddr: 0x7620, symSize: 0x120 }
  - { offsetInCU: 0x1371, offset: 0x2B28E, size: 0x8, addend: 0x0, symName: '__ZN114_$LT$proc_macro..TokenStream$u20$as$u20$core..iter..traits..collect..FromIterator$LT$proc_macro..TokenTree$GT$$GT$9from_iter17h0ced41a97a2d5a5aE', symObjAddr: 0x570, symBinAddr: 0x7740, symSize: 0x180 }
  - { offsetInCU: 0x1507, offset: 0x2B424, size: 0x8, addend: 0x0, symName: '__ZN114_$LT$proc_macro..TokenStream$u20$as$u20$core..iter..traits..collect..FromIterator$LT$proc_macro..TokenTree$GT$$GT$9from_iter17h3546c0d90c138f43E', symObjAddr: 0x6F0, symBinAddr: 0x78C0, symSize: 0xB0 }
  - { offsetInCU: 0x16F2, offset: 0x2B60F, size: 0x8, addend: 0x0, symName: '__ZN44_$LT$$RF$T$u20$as$u20$core..fmt..Display$GT$3fmt17h7108d066228bc658E', symObjAddr: 0x7A0, symBinAddr: 0x7970, symSize: 0x10 }
  - { offsetInCU: 0x2512, offset: 0x2C42F, size: 0x8, addend: 0x0, symName: '__ZN4core3ptr160drop_in_place$LT$core..iter..adapters..chain..Chain$LT$alloc..vec..into_iter..IntoIter$LT$proc_macro..TokenTree$GT$$C$proc_macro..token_stream..IntoIter$GT$$GT$17he4f95fed267897a1E.llvm.2997957220847147176', symObjAddr: 0x7B0, symBinAddr: 0x7980, symSize: 0x60 }
  - { offsetInCU: 0x2662, offset: 0x2C57F, size: 0x8, addend: 0x0, symName: '__ZN4core3ptr50drop_in_place$LT$proc_macro..ConcatTreesHelper$GT$17hb2fdedaa5d948c7eE.llvm.2997957220847147176', symObjAddr: 0x810, symBinAddr: 0x79E0, symSize: 0x107 }
  - { offsetInCU: 0x1152, offset: 0x2F3B0, size: 0x8, addend: 0x0, symName: __ZN11rustversion4iter3new17h25d461dfc1652b3eE, symObjAddr: 0x80, symBinAddr: 0x7AF0, symSize: 0xE0 }
  - { offsetInCU: 0x1411, offset: 0x2F66F, size: 0x8, addend: 0x0, symName: '__ZN86_$LT$rustversion..iter..IterImpl$u20$as$u20$core..iter..traits..iterator..Iterator$GT$4next17hf154c155f3725c20E', symObjAddr: 0x1E0, symBinAddr: 0x7BD0, symSize: 0x1D4 }
  - { offsetInCU: 0x16DB, offset: 0x31BA7, size: 0x8, addend: 0x0, symName: __ZN11rustversion5token11parse_punct17h6d72bdaae48490aeE, symObjAddr: 0x20, symBinAddr: 0x7DB0, symSize: 0x1E0 }
  - { offsetInCU: 0x1C90, offset: 0x3215C, size: 0x8, addend: 0x0, symName: __ZN11rustversion5token20parse_optional_punct17h0cfd3dfb289ffeacE, symObjAddr: 0x200, symBinAddr: 0x7F90, symSize: 0xD0 }
  - { offsetInCU: 0x1EA7, offset: 0x32373, size: 0x8, addend: 0x0, symName: __ZN11rustversion5token22parse_optional_keyword17he0a45b21f28ae79aE, symObjAddr: 0x2D0, symBinAddr: 0x8060, symSize: 0x180 }
  - { offsetInCU: 0x24EF, offset: 0x329BB, size: 0x8, addend: 0x0, symName: __ZN11rustversion5token13parse_literal17h7625a5b8be8134c7E, symObjAddr: 0x450, symBinAddr: 0x81E0, symSize: 0x1C0 }
  - { offsetInCU: 0x2962, offset: 0x32E2E, size: 0x8, addend: 0x0, symName: __ZN11rustversion5token11parse_paren17h0731ddb18f7770b4E, symObjAddr: 0x610, symBinAddr: 0x83A0, symSize: 0x2C0 }
  - { offsetInCU: 0x2F88, offset: 0x33454, size: 0x8, addend: 0x0, symName: __ZN11rustversion5token9parse_end17h185db8fdbd72ffb8E, symObjAddr: 0x9A0, symBinAddr: 0x8660, symSize: 0x1A0 }
  - { offsetInCU: 0x1E, offset: 0x347E3, size: 0x8, addend: 0x0, symName: __ZN4core3fmt5Write9write_fmt17h7225c41e96227d9cE, symObjAddr: 0x0, symBinAddr: 0x8800, symSize: 0x20 }
  - { offsetInCU: 0x98, offset: 0x3485D, size: 0x8, addend: 0x0, symName: '__ZN58_$LT$alloc..string..String$u20$as$u20$core..fmt..Write$GT$10write_char17h04bc467bd68a934bE', symObjAddr: 0x40, symBinAddr: 0x8840, symSize: 0x140 }
  - { offsetInCU: 0x49D, offset: 0x34C62, size: 0x8, addend: 0x0, symName: '__ZN58_$LT$alloc..string..String$u20$as$u20$core..fmt..Write$GT$9write_str17h46a93205c3443fbaE', symObjAddr: 0x180, symBinAddr: 0x8980, symSize: 0x5B }
  - { offsetInCU: 0xAC1, offset: 0x35286, size: 0x8, addend: 0x0, symName: '__ZN4core3ptr42drop_in_place$LT$alloc..string..String$GT$17ha78f0f6fdb1cf2e6E', symObjAddr: 0x20, symBinAddr: 0x8820, symSize: 0x20 }
  - { offsetInCU: 0xE54, offset: 0x35619, size: 0x8, addend: 0x0, symName: __ZN4core3fmt5Write9write_fmt17h7225c41e96227d9cE, symObjAddr: 0x0, symBinAddr: 0x8800, symSize: 0x20 }
  - { offsetInCU: 0x1E, offset: 0x360CE, size: 0x8, addend: 0x0, symName: '__ZN137_$LT$alloc..vec..Vec$LT$T$GT$$u20$as$u20$alloc..vec..spec_from_iter..SpecFromIter$LT$T$C$alloc..vec..into_iter..IntoIter$LT$T$GT$$GT$$GT$9from_iter17h7b460ccc865b1209E', symObjAddr: 0x0, symBinAddr: 0x89E0, symSize: 0x150 }
  - { offsetInCU: 0x528, offset: 0x365D8, size: 0x8, addend: 0x0, symName: '__ZN4core3ptr44drop_in_place$LT$rustversion..expr..Expr$GT$17ha9a16cfbe72474f3E.llvm.9094121897781670051', symObjAddr: 0x150, symBinAddr: 0x8B30, symSize: 0x1C0 }
  - { offsetInCU: 0xAB9, offset: 0x36B69, size: 0x8, addend: 0x0, symName: '__ZN4core3ptr67drop_in_place$LT$alloc..vec..Vec$LT$rustversion..expr..Expr$GT$$GT$17hd24a1f4e467dd4eeE.llvm.9094121897781670051', symObjAddr: 0x3D0, symBinAddr: 0x8CF0, symSize: 0x100 }
  - { offsetInCU: 0x1640, offset: 0x376F0, size: 0x8, addend: 0x0, symName: '__ZN137_$LT$alloc..vec..Vec$LT$T$GT$$u20$as$u20$alloc..vec..spec_from_iter..SpecFromIter$LT$T$C$alloc..vec..into_iter..IntoIter$LT$T$GT$$GT$$GT$9from_iter17h7b460ccc865b1209E', symObjAddr: 0x0, symBinAddr: 0x89E0, symSize: 0x150 }
  - { offsetInCU: 0x1BD9, offset: 0x37C89, size: 0x8, addend: 0x0, symName: '__ZN70_$LT$alloc..vec..Vec$LT$T$C$A$GT$$u20$as$u20$core..ops..drop..Drop$GT$4drop17h2b9df931c76dc202E', symObjAddr: 0x560, symBinAddr: 0x8DF0, symSize: 0xC0 }
  - { offsetInCU: 0x1E, offset: 0x3870D, size: 0x8, addend: 0x0, symName: __ZN11rustversion7release5parse17h267cee986252d975E, symObjAddr: 0x0, symBinAddr: 0x8EB0, symSize: 0x309 }
  - { offsetInCU: 0x1434, offset: 0x39B23, size: 0x8, addend: 0x0, symName: __ZN11rustversion7release5parse17h267cee986252d975E, symObjAddr: 0x0, symBinAddr: 0x8EB0, symSize: 0x309 }
  - { offsetInCU: 0x1E, offset: 0x3B4C7, size: 0x8, addend: 0x0, symName: '__ZN4core3ptr48drop_in_place$LT$rustversion..iter..IterImpl$GT$17hfd25b11dd5f8a3c2E', symObjAddr: 0x0, symBinAddr: 0x91C0, symSize: 0xF0 }
  - { offsetInCU: 0x1BF, offset: 0x3B668, size: 0x8, addend: 0x0, symName: __ZN11rustversion7constfn12insert_const17h474044fabe274ad4E, symObjAddr: 0x2D0, symBinAddr: 0x9490, symSize: 0x63D }
  - { offsetInCU: 0x1483, offset: 0x3C92C, size: 0x8, addend: 0x0, symName: '__ZN4core3ptr48drop_in_place$LT$rustversion..iter..IterImpl$GT$17hfd25b11dd5f8a3c2E', symObjAddr: 0x0, symBinAddr: 0x91C0, symSize: 0xF0 }
  - { offsetInCU: 0x193D, offset: 0x3CDE6, size: 0x8, addend: 0x0, symName: '__ZN4core3ptr65drop_in_place$LT$alloc..vec..Vec$LT$proc_macro..TokenTree$GT$$GT$17h5bf24f81f71e6446E', symObjAddr: 0xF0, symBinAddr: 0x92B0, symSize: 0x110 }
  - { offsetInCU: 0x2575, offset: 0x3DA1E, size: 0x8, addend: 0x0, symName: __ZN11rustversion7constfn10Qualifiers10from_ident17h160f7a3a75d6f255E, symObjAddr: 0x200, symBinAddr: 0x93C0, symSize: 0xD0 }
  - { offsetInCU: 0x1E, offset: 0x3F511, size: 0x8, addend: 0x0, symName: __ZN10proc_macro6bridge6client14HandleCounters3get17h2c76d49220b98e92E, symObjAddr: 0x0, symBinAddr: 0x9AD0, symSize: 0x10 }
  - { offsetInCU: 0x40, offset: 0x3F533, size: 0x8, addend: 0x0, symName: ___rustc_proc_macro_decls_632d365d307d12bc__, symObjAddr: 0x948, symBinAddr: 0x60598, symSize: 0x0 }
  - { offsetInCU: 0x34F, offset: 0x3F842, size: 0x8, addend: 0x0, symName: __ZN11rustversion4attr17h47f7ae95a4870d9bE, symObjAddr: 0x2C0, symBinAddr: 0x9C90, symSize: 0x100 }
  - { offsetInCU: 0x5D1, offset: 0x3FAC4, size: 0x8, addend: 0x0, symName: __ZN11rustversion3cfg17h0a128880aa3a003bE, symObjAddr: 0x3C0, symBinAddr: 0x9D90, symSize: 0x25B }
  - { offsetInCU: 0x153B, offset: 0x40A2E, size: 0x8, addend: 0x0, symName: '__ZN4core3ptr44drop_in_place$LT$rustversion..expr..Expr$GT$17ha9a16cfbe72474f3E', symObjAddr: 0x10, symBinAddr: 0x9AE0, symSize: 0xC0 }
  - { offsetInCU: 0x1841, offset: 0x40D34, size: 0x8, addend: 0x0, symName: '__ZN4core3ptr48drop_in_place$LT$rustversion..iter..IterImpl$GT$17hfd25b11dd5f8a3c2E', symObjAddr: 0xD0, symBinAddr: 0x9BA0, symSize: 0xF0 }
  - { offsetInCU: 0x24A4, offset: 0x41997, size: 0x8, addend: 0x0, symName: __ZN10proc_macro6bridge6client14HandleCounters3get17h2c76d49220b98e92E, symObjAddr: 0x0, symBinAddr: 0x9AD0, symSize: 0x10 }
  - { offsetInCU: 0x1E, offset: 0x42DE2, size: 0x8, addend: 0x0, symName: '__ZN4core3ptr168drop_in_place$LT$$LT$alloc..vec..drain..Drain$LT$T$C$A$GT$$u20$as$u20$core..ops..drop..Drop$GT$..drop..DropGuard$LT$proc_macro..TokenTree$C$alloc..alloc..Global$GT$$GT$17hed03bac815d51551E.llvm.12381262998288907679', symObjAddr: 0x0, symBinAddr: 0x9FF0, symSize: 0x70 }
  - { offsetInCU: 0x4D5, offset: 0x43299, size: 0x8, addend: 0x0, symName: '__ZN79_$LT$alloc..vec..drain..Drain$LT$T$C$A$GT$$u20$as$u20$core..ops..drop..Drop$GT$4drop17hb2ed670ef17669a1E', symObjAddr: 0x70, symBinAddr: 0xA060, symSize: 0x120 }
  - { offsetInCU: 0xD99, offset: 0x43B5D, size: 0x8, addend: 0x0, symName: '__ZN4core3ptr168drop_in_place$LT$$LT$alloc..vec..drain..Drain$LT$T$C$A$GT$$u20$as$u20$core..ops..drop..Drop$GT$..drop..DropGuard$LT$proc_macro..TokenTree$C$alloc..alloc..Global$GT$$GT$17hed03bac815d51551E.llvm.12381262998288907679', symObjAddr: 0x0, symBinAddr: 0x9FF0, symSize: 0x70 }
  - { offsetInCU: 0xDB6, offset: 0x43B7A, size: 0x8, addend: 0x0, symName: '__ZN4core3ptr168drop_in_place$LT$$LT$alloc..vec..drain..Drain$LT$T$C$A$GT$$u20$as$u20$core..ops..drop..Drop$GT$..drop..DropGuard$LT$proc_macro..TokenTree$C$alloc..alloc..Global$GT$$GT$17hed03bac815d51551E.llvm.12381262998288907679', symObjAddr: 0x0, symBinAddr: 0x9FF0, symSize: 0x70 }
  - { offsetInCU: 0x1E, offset: 0x441B4, size: 0x8, addend: 0x0, symName: __ZN11rustversion4time5today17h724fa03da0013912E, symObjAddr: 0x0, symBinAddr: 0xA180, symSize: 0x1C2 }
  - { offsetInCU: 0x112, offset: 0x442A8, size: 0x8, addend: 0x0, symName: __ZN11rustversion4time5today17h724fa03da0013912E, symObjAddr: 0x0, symBinAddr: 0xA180, symSize: 0x1C2 }
  - { offsetInCU: 0x1E, offset: 0x454BA, size: 0x8, addend: 0x0, symName: '__ZN4core3ptr44drop_in_place$LT$rustversion..expr..Expr$GT$17ha9a16cfbe72474f3E.llvm.13040444069275831814', symObjAddr: 0x0, symBinAddr: 0xA350, symSize: 0xC0 }
  - { offsetInCU: 0x52A, offset: 0x459C6, size: 0x8, addend: 0x0, symName: '__ZN4core3ptr44drop_in_place$LT$rustversion..expr..Expr$GT$17ha9a16cfbe72474f3E.llvm.13040444069275831814', symObjAddr: 0x0, symBinAddr: 0xA350, symSize: 0xC0 }
  - { offsetInCU: 0x830, offset: 0x45CCC, size: 0x8, addend: 0x0, symName: '__ZN4core3ptr48drop_in_place$LT$rustversion..iter..IterImpl$GT$17hfd25b11dd5f8a3c2E.llvm.13040444069275831814', symObjAddr: 0xC0, symBinAddr: 0xA410, symSize: 0xF0 }
  - { offsetInCU: 0x1895, offset: 0x46D31, size: 0x8, addend: 0x0, symName: __ZN11rustversion4attr5parse17h13d855e6a6fcabc6E, symObjAddr: 0x1B0, symBinAddr: 0xA500, symSize: 0x320 }
  - { offsetInCU: 0x1E, offset: 0x48486, size: 0x8, addend: 0x0, symName: __ZN10proc_macro6bridge14selfless_reify31reify_to_extern_c_fn_hrt_bridge7wrapper17h1d80fa5036705c19E, symObjAddr: 0x0, symBinAddr: 0xA820, symSize: 0x30 }
  - { offsetInCU: 0x40B, offset: 0x48873, size: 0x8, addend: 0x0, symName: __ZN10proc_macro6bridge14selfless_reify31reify_to_extern_c_fn_hrt_bridge7wrapper17h1d80fa5036705c19E, symObjAddr: 0x0, symBinAddr: 0xA820, symSize: 0x30 }
  - { offsetInCU: 0x483, offset: 0x488EB, size: 0x8, addend: 0x0, symName: __ZN10proc_macro6bridge14selfless_reify31reify_to_extern_c_fn_hrt_bridge7wrapper17h2a0f700762da8a79E, symObjAddr: 0x30, symBinAddr: 0xA850, symSize: 0x30 }
  - { offsetInCU: 0x4FB, offset: 0x48963, size: 0x8, addend: 0x0, symName: __ZN10proc_macro6bridge14selfless_reify31reify_to_extern_c_fn_hrt_bridge7wrapper17h4827e75b44b99923E, symObjAddr: 0x60, symBinAddr: 0xA880, symSize: 0x30 }
  - { offsetInCU: 0x573, offset: 0x489DB, size: 0x8, addend: 0x0, symName: __ZN10proc_macro6bridge14selfless_reify31reify_to_extern_c_fn_hrt_bridge7wrapper17h66848d544e09e930E, symObjAddr: 0x90, symBinAddr: 0xA8B0, symSize: 0x30 }
  - { offsetInCU: 0x5EB, offset: 0x48A53, size: 0x8, addend: 0x0, symName: __ZN10proc_macro6bridge14selfless_reify31reify_to_extern_c_fn_hrt_bridge7wrapper17ha420f655489390daE, symObjAddr: 0xC0, symBinAddr: 0xA8E0, symSize: 0x30 }
  - { offsetInCU: 0x663, offset: 0x48ACB, size: 0x8, addend: 0x0, symName: __ZN10proc_macro6bridge14selfless_reify31reify_to_extern_c_fn_hrt_bridge7wrapper17ha8d8e7ccf40af820E, symObjAddr: 0xF0, symBinAddr: 0xA910, symSize: 0x30 }
  - { offsetInCU: 0x6DB, offset: 0x48B43, size: 0x8, addend: 0x0, symName: __ZN10proc_macro6bridge14selfless_reify31reify_to_extern_c_fn_hrt_bridge7wrapper17hbeb5c65455d4c32bE, symObjAddr: 0x120, symBinAddr: 0xA940, symSize: 0x30 }
  - { offsetInCU: 0x753, offset: 0x48BBB, size: 0x8, addend: 0x0, symName: __ZN10proc_macro6bridge14selfless_reify31reify_to_extern_c_fn_hrt_bridge7wrapper17hcc4f1846f9286162E, symObjAddr: 0x150, symBinAddr: 0xA970, symSize: 0x30 }
  - { offsetInCU: 0x7CB, offset: 0x48C33, size: 0x8, addend: 0x0, symName: __ZN10proc_macro6bridge14selfless_reify31reify_to_extern_c_fn_hrt_bridge7wrapper17hf4a7f17ed9dedad7E, symObjAddr: 0x180, symBinAddr: 0xA9A0, symSize: 0x30 }
  - { offsetInCU: 0x843, offset: 0x48CAB, size: 0x8, addend: 0x0, symName: __ZN10proc_macro6bridge14selfless_reify31reify_to_extern_c_fn_hrt_bridge7wrapper17hf9c5172e778a105fE, symObjAddr: 0x1B0, symBinAddr: 0xA9D0, symSize: 0x25 }
  - { offsetInCU: 0x1E, offset: 0x48F1D, size: 0x8, addend: 0x0, symName: '__ZN10proc_macro6bridge104_$LT$impl$u20$proc_macro..bridge..rpc..Encode$LT$S$GT$$u20$for$u20$core..result..Result$LT$T$C$E$GT$$GT$6encode17ha32f4ec27d612fceE', symObjAddr: 0x0, symBinAddr: 0xAA00, symSize: 0x300 }
  - { offsetInCU: 0x148, offset: 0x49047, size: 0x8, addend: 0x0, symName: '__ZN10proc_macro6bridge104_$LT$impl$u20$proc_macro..bridge..rpc..Encode$LT$S$GT$$u20$for$u20$core..result..Result$LT$T$C$E$GT$$GT$6encode17ha32f4ec27d612fceE', symObjAddr: 0x0, symBinAddr: 0xAA00, symSize: 0x300 }
  - { offsetInCU: 0x5E3, offset: 0x494E2, size: 0x8, addend: 0x0, symName: '__ZN10proc_macro6bridge104_$LT$impl$u20$proc_macro..bridge..rpc..Encode$LT$S$GT$$u20$for$u20$core..result..Result$LT$T$C$E$GT$$GT$6encode17hdd1d7f461e6b50a8E', symObjAddr: 0x300, symBinAddr: 0xAD00, symSize: 0x280 }
  - { offsetInCU: 0x1E, offset: 0x4A19C, size: 0x8, addend: 0x0, symName: '__ZN10proc_macro6bridge100_$LT$impl$u20$proc_macro..bridge..rpc..Encode$LT$S$GT$$u20$for$u20$core..option..Option$LT$T$GT$$GT$6encode17h6745046ffe3c65adE', symObjAddr: 0x0, symBinAddr: 0xAF80, symSize: 0x240 }
  - { offsetInCU: 0x352, offset: 0x4A4D0, size: 0x8, addend: 0x0, symName: '__ZN10proc_macro6bridge100_$LT$impl$u20$proc_macro..bridge..rpc..Encode$LT$S$GT$$u20$for$u20$core..option..Option$LT$T$GT$$GT$6encode17h6745046ffe3c65adE', symObjAddr: 0x0, symBinAddr: 0xAF80, symSize: 0x240 }
  - { offsetInCU: 0x6D4, offset: 0x4A852, size: 0x8, addend: 0x0, symName: '__ZN10proc_macro6bridge100_$LT$impl$u20$proc_macro..bridge..rpc..Encode$LT$S$GT$$u20$for$u20$core..option..Option$LT$T$GT$$GT$6encode17he95948d2d5d2171dE', symObjAddr: 0x240, symBinAddr: 0xB1C0, symSize: 0x345 }
  - { offsetInCU: 0x1E, offset: 0x4B264, size: 0x8, addend: 0x0, symName: '__ZN106_$LT$core..iter..adapters..chain..Chain$LT$A$C$B$GT$$u20$as$u20$core..iter..traits..iterator..Iterator$GT$4fold17he652cbbd516ac7f6E', symObjAddr: 0x0, symBinAddr: 0xB510, symSize: 0x1C3 }
  - { offsetInCU: 0x179, offset: 0x4B3BF, size: 0x8, addend: 0x0, symName: '__ZN106_$LT$core..iter..adapters..chain..Chain$LT$A$C$B$GT$$u20$as$u20$core..iter..traits..iterator..Iterator$GT$4fold17he652cbbd516ac7f6E', symObjAddr: 0x0, symBinAddr: 0xB510, symSize: 0x1C3 }
  - { offsetInCU: 0x1E, offset: 0x4C4C8, size: 0x8, addend: 0x0, symName: '__ZN77_$LT$$LP$A$C$B$RP$$u20$as$u20$proc_macro..bridge..rpc..DecodeMut$LT$S$GT$$GT$6decode17hec740ce92cda747eE', symObjAddr: 0x0, symBinAddr: 0xB6E0, symSize: 0xD0 }
  - { offsetInCU: 0xB4, offset: 0x4C55E, size: 0x8, addend: 0x0, symName: '__ZN77_$LT$$LP$A$C$B$RP$$u20$as$u20$proc_macro..bridge..rpc..DecodeMut$LT$S$GT$$GT$6decode17hec740ce92cda747eE', symObjAddr: 0x0, symBinAddr: 0xB6E0, symSize: 0xD0 }
  - { offsetInCU: 0xC85, offset: 0x4D12F, size: 0x8, addend: 0x0, symName: '__ZN77_$LT$$LP$A$C$B$RP$$u20$as$u20$proc_macro..bridge..rpc..DecodeMut$LT$S$GT$$GT$6decode17hf46ab31a061be11cE', symObjAddr: 0xD0, symBinAddr: 0xB7B0, symSize: 0xCE }
  - { offsetInCU: 0x1E, offset: 0x4E1A6, size: 0x8, addend: 0x0, symName: '__ZN36_$LT$T$u20$as$u20$core..any..Any$GT$7type_id17h699ebaed6d24eb70E', symObjAddr: 0x0, symBinAddr: 0xB8C0, symSize: 0x20 }
  - { offsetInCU: 0x3A, offset: 0x4E1C2, size: 0x8, addend: 0x0, symName: '__ZN36_$LT$T$u20$as$u20$core..any..Any$GT$7type_id17h699ebaed6d24eb70E', symObjAddr: 0x0, symBinAddr: 0xB8C0, symSize: 0x20 }
  - { offsetInCU: 0x54, offset: 0x4E1DC, size: 0x8, addend: 0x0, symName: '__ZN36_$LT$T$u20$as$u20$core..any..Any$GT$7type_id17hbf060e67525d1bd8E', symObjAddr: 0x20, symBinAddr: 0xB8E0, symSize: 0x20 }
  - { offsetInCU: 0x6E, offset: 0x4E1F6, size: 0x8, addend: 0x0, symName: '__ZN36_$LT$T$u20$as$u20$core..any..Any$GT$7type_id17hef67898df63864f0E', symObjAddr: 0x40, symBinAddr: 0xB900, symSize: 0x20 }
  - { offsetInCU: 0x5BB, offset: 0x4E743, size: 0x8, addend: 0x0, symName: '__ZN4core3ptr103drop_in_place$LT$proc_macro..bridge..client..TokenStream..concat_trees..$u7b$$u7b$closure$u7d$$u7d$$GT$17hd49305b6f79353daE', symObjAddr: 0x6C0, symBinAddr: 0xBC80, symSize: 0x60 }
  - { offsetInCU: 0x766, offset: 0x4E8EE, size: 0x8, addend: 0x0, symName: '__ZN4core3ptr121drop_in_place$LT$core..result..Result$LT$proc_macro..bridge..client..Span$C$proc_macro..bridge..rpc..PanicMessage$GT$$GT$17hd5c11e422e8779adE', symObjAddr: 0x850, symBinAddr: 0xBCE0, symSize: 0x40 }
  - { offsetInCU: 0x819, offset: 0x4E9A1, size: 0x8, addend: 0x0, symName: '__ZN4core3ptr128drop_in_place$LT$core..result..Result$LT$proc_macro..bridge..client..TokenStream$C$proc_macro..bridge..rpc..PanicMessage$GT$$GT$17hda4eff69ebf28450E', symObjAddr: 0x8F0, symBinAddr: 0xBD20, symSize: 0x60 }
  - { offsetInCU: 0xAA5, offset: 0x4EC2D, size: 0x8, addend: 0x0, symName: '__ZN4core3ptr131drop_in_place$LT$proc_macro..bridge..client..maybe_install_panic_hook..$u7b$$u7b$closure$u7d$$u7d$..$u7b$$u7b$closure$u7d$$u7d$$GT$17h22839470220644f0E', symObjAddr: 0x9D0, symBinAddr: 0xBD80, symSize: 0x70 }
  - { offsetInCU: 0xC6D, offset: 0x4EDF5, size: 0x8, addend: 0x0, symName: '__ZN4core3ptr146drop_in_place$LT$std..sys..thread_local..native..lazy..State$LT$core..cell..RefCell$LT$proc_macro..bridge..symbol..Interner$GT$$C$$LP$$RP$$GT$$GT$17ha8f133de609be9acE', symObjAddr: 0xA90, symBinAddr: 0xBDF0, symSize: 0xD0 }
  - { offsetInCU: 0xFDE, offset: 0x4F166, size: 0x8, addend: 0x0, symName: '__ZN4core3ptr192drop_in_place$LT$alloc..vec..Vec$LT$proc_macro..bridge..TokenTree$LT$proc_macro..bridge..client..TokenStream$C$proc_macro..bridge..client..Span$C$proc_macro..bridge..symbol..Symbol$GT$$GT$$GT$17hcc7f413e9a61358fE', symObjAddr: 0xCC0, symBinAddr: 0xBEC0, symSize: 0x120 }
  - { offsetInCU: 0x12F7, offset: 0x4F47F, size: 0x8, addend: 0x0, symName: '__ZN4core3ptr208drop_in_place$LT$alloc..vec..into_iter..IntoIter$LT$proc_macro..bridge..TokenTree$LT$proc_macro..bridge..client..TokenStream$C$proc_macro..bridge..client..Span$C$proc_macro..bridge..symbol..Symbol$GT$$GT$$GT$17hae47a398af739bdaE', symObjAddr: 0xDE0, symBinAddr: 0xBFE0, symSize: 0x130 }
  - { offsetInCU: 0x1699, offset: 0x4F821, size: 0x8, addend: 0x0, symName: '__ZN4core3ptr260drop_in_place$LT$core..result..Result$LT$alloc..vec..Vec$LT$proc_macro..bridge..TokenTree$LT$proc_macro..bridge..client..TokenStream$C$proc_macro..bridge..client..Span$C$proc_macro..bridge..symbol..Symbol$GT$$GT$$C$proc_macro..bridge..rpc..PanicMessage$GT$$GT$17hfb45a493fc3e471cE', symObjAddr: 0xF10, symBinAddr: 0xC110, symSize: 0x50 }
  - { offsetInCU: 0x1760, offset: 0x4F8E8, size: 0x8, addend: 0x0, symName: '__ZN4core3ptr39drop_in_place$LT$std..path..PathBuf$GT$17had683c41678ea1a6E', symObjAddr: 0xF60, symBinAddr: 0xC160, symSize: 0x20 }
  - { offsetInCU: 0x17F9, offset: 0x4F981, size: 0x8, addend: 0x0, symName: '__ZN4core3ptr91drop_in_place$LT$alloc..boxed..Box$LT$dyn$u20$core..any..Any$u2b$core..marker..Send$GT$$GT$17h04b02e797d8ec7d0E', symObjAddr: 0x21E0, symBinAddr: 0xC180, symSize: 0x70 }
  - { offsetInCU: 0x1F20, offset: 0x500A8, size: 0x8, addend: 0x0, symName: '__ZN4core3ops8function6FnOnce40call_once$u7b$$u7b$vtable.shim$u7d$$u7d$17h177cffec084b4d8bE', symObjAddr: 0x460, symBinAddr: 0xBB10, symSize: 0xB0 }
  - { offsetInCU: 0x2050, offset: 0x501D8, size: 0x8, addend: 0x0, symName: '__ZN4core3ops8function6FnOnce40call_once$u7b$$u7b$vtable.shim$u7d$$u7d$17hf87efcce8fd6af08E', symObjAddr: 0x510, symBinAddr: 0xBBC0, symSize: 0xC0 }
  - { offsetInCU: 0x2462, offset: 0x505EA, size: 0x8, addend: 0x0, symName: '__ZN42_$LT$$RF$T$u20$as$u20$core..fmt..Debug$GT$3fmt17h11d9068b6adc3f07E', symObjAddr: 0x330, symBinAddr: 0xBA10, symSize: 0x20 }
  - { offsetInCU: 0x247D, offset: 0x50605, size: 0x8, addend: 0x0, symName: '__ZN42_$LT$$RF$T$u20$as$u20$core..fmt..Debug$GT$3fmt17h5b7a3fcdf6aba8caE', symObjAddr: 0x360, symBinAddr: 0xBA30, symSize: 0x30 }
  - { offsetInCU: 0x24C2, offset: 0x5064A, size: 0x8, addend: 0x0, symName: '__ZN42_$LT$$RF$T$u20$as$u20$core..fmt..Debug$GT$3fmt17h8a9129228e04b5a4E', symObjAddr: 0x390, symBinAddr: 0xBA60, symSize: 0x60 }
  - { offsetInCU: 0x252A, offset: 0x506B2, size: 0x8, addend: 0x0, symName: '__ZN4core3fmt3num52_$LT$impl$u20$core..fmt..Debug$u20$for$u20$usize$GT$3fmt17h9e5c63f85393f427E', symObjAddr: 0x410, symBinAddr: 0xBAE0, symSize: 0x30 }
  - { offsetInCU: 0x2560, offset: 0x506E8, size: 0x8, addend: 0x0, symName: '__ZN44_$LT$$RF$T$u20$as$u20$core..fmt..Display$GT$3fmt17h97343c584a9f7f88E', symObjAddr: 0x3F0, symBinAddr: 0xBAC0, symSize: 0x20 }
  - { offsetInCU: 0x3285, offset: 0x5140D, size: 0x8, addend: 0x0, symName: '__ZN64_$LT$core..str..error..Utf8Error$u20$as$u20$core..fmt..Debug$GT$3fmt17h4a95f6bc380357bbE', symObjAddr: 0x2BB0, symBinAddr: 0xC690, symSize: 0x70 }
  - { offsetInCU: 0x36F0, offset: 0x51878, size: 0x8, addend: 0x0, symName: __ZN10proc_macro6bridge6symbol6Symbol3new17h84ccafbe5657a2f0E, symObjAddr: 0x51B0, symBinAddr: 0xD630, symSize: 0x760 }
  - { offsetInCU: 0x4BD3, offset: 0x52D5B, size: 0x8, addend: 0x0, symName: __ZN10proc_macro6bridge6symbol6Symbol9new_ident17h10fb12c6191546e8E, symObjAddr: 0x5910, symBinAddr: 0xDD90, symSize: 0x600 }
  - { offsetInCU: 0x5450, offset: 0x535D8, size: 0x8, addend: 0x0, symName: __ZN10proc_macro6bridge6symbol6Symbol14invalidate_all17h799a1a827b219709E, symObjAddr: 0x5F10, symBinAddr: 0xE390, symSize: 0x1C0 }
  - { offsetInCU: 0x5952, offset: 0x53ADA, size: 0x8, addend: 0x0, symName: '__ZN73_$LT$proc_macro..bridge..symbol..Symbol$u20$as$u20$core..fmt..Display$GT$3fmt17hb7885ca32a0cdbaaE', symObjAddr: 0x63A0, symBinAddr: 0xE550, symSize: 0x130 }
  - { offsetInCU: 0x5CE9, offset: 0x53E71, size: 0x8, addend: 0x0, symName: '__ZN95_$LT$proc_macro..bridge..symbol..Symbol$u20$as$u20$proc_macro..bridge..rpc..Encode$LT$S$GT$$GT$6encode17hf7c19bda71a5ba94E', symObjAddr: 0x64D0, symBinAddr: 0xE680, symSize: 0x130 }
  - { offsetInCU: 0x60A9, offset: 0x54231, size: 0x8, addend: 0x0, symName: '__ZN10proc_macro6bridge6client24maybe_install_panic_hook28_$u7b$$u7b$closure$u7d$$u7d$28_$u7b$$u7b$closure$u7d$$u7d$17h31b4c1d536860d81E', symObjAddr: 0x4BA0, symBinAddr: 0xD0A0, symSize: 0x40 }
  - { offsetInCU: 0x60FD, offset: 0x54285, size: 0x8, addend: 0x0, symName: '__ZN95_$LT$proc_macro..bridge..client..state..set..RestoreOnDrop$u20$as$u20$core..ops..drop..Drop$GT$4drop17h03babb14658b945dE', symObjAddr: 0x42A0, symBinAddr: 0xCBE0, symSize: 0x20 }
  - { offsetInCU: 0x62B5, offset: 0x5443D, size: 0x8, addend: 0x0, symName: __ZN10proc_macro6bridge6client11TokenStream12concat_trees17h083a7b908f377bd5E, symObjAddr: 0x23A30, symBinAddr: 0x11340, symSize: 0x580 }
  - { offsetInCU: 0x6806, offset: 0x5498E, size: 0x8, addend: 0x0, symName: '__ZN81_$LT$proc_macro..bridge..client..TokenStream$u20$as$u20$core..ops..drop..Drop$GT$4drop17hcea6fec2e664a2f9E', symObjAddr: 0x22E40, symBinAddr: 0x11320, symSize: 0x20 }
  - { offsetInCU: 0x68B1, offset: 0x54A39, size: 0x8, addend: 0x0, symName: '__ZN10proc_macro6bridge6client6Bridge4with28_$u7b$$u7b$closure$u7d$$u7d$17h7062c8edd8ff29abE', symObjAddr: 0x42C0, symBinAddr: 0xCC00, symSize: 0x440 }
  - { offsetInCU: 0x6FEF, offset: 0x55177, size: 0x8, addend: 0x0, symName: '__ZN78_$LT$proc_macro..bridge..client..TokenStream$u20$as$u20$core..clone..Clone$GT$5clone17h35a4532bda6ae91cE', symObjAddr: 0x3780, symBinAddr: 0xC840, symSize: 0x3A0 }
  - { offsetInCU: 0x745A, offset: 0x555E2, size: 0x8, addend: 0x0, symName: __ZN10proc_macro6bridge6client24maybe_install_panic_hook17h6cd9c757e1f795b0E, symObjAddr: 0x4B40, symBinAddr: 0xD040, symSize: 0x60 }
  - { offsetInCU: 0x7579, offset: 0x55701, size: 0x8, addend: 0x0, symName: __ZN10proc_macro6bridge5arena5Arena4grow17h53778770402b756fE, symObjAddr: 0x3510, symBinAddr: 0x53CC0, symSize: 0x130 }
  - { offsetInCU: 0x7B57, offset: 0x55CDF, size: 0x8, addend: 0x0, symName: '__ZN76_$LT$proc_macro..bridge..buffer..Buffer$u20$as$u20$core..ops..drop..Drop$GT$4drop17h411783a3c79f9fbbE', symObjAddr: 0x3640, symBinAddr: 0xC700, symSize: 0x90 }
  - { offsetInCU: 0x7BF4, offset: 0x55D7C, size: 0x8, addend: 0x0, symName: '__ZN107_$LT$proc_macro..bridge..buffer..Buffer$u20$as$u20$core..convert..From$LT$alloc..vec..Vec$LT$u8$GT$$GT$$GT$4from7reserve17h1def0ed57abacad2E', symObjAddr: 0x36D0, symBinAddr: 0xC790, symSize: 0x80 }
  - { offsetInCU: 0x7CC5, offset: 0x55E4D, size: 0x8, addend: 0x0, symName: '__ZN107_$LT$proc_macro..bridge..buffer..Buffer$u20$as$u20$core..convert..From$LT$alloc..vec..Vec$LT$u8$GT$$GT$$GT$4from4drop17h288ba1dc51dc809fE', symObjAddr: 0x3750, symBinAddr: 0xC810, symSize: 0x30 }
  - { offsetInCU: 0x7E7E, offset: 0x56006, size: 0x8, addend: 0x0, symName: '__ZN77_$LT$$RF$$u5b$u8$u5d$$u20$as$u20$proc_macro..bridge..rpc..Encode$LT$S$GT$$GT$6encode17hfa01968ce5ffc225E', symObjAddr: 0x4BE0, symBinAddr: 0xD0E0, symSize: 0x240 }
  - { offsetInCU: 0x805D, offset: 0x561E5, size: 0x8, addend: 0x0, symName: '__ZN71_$LT$$RF$str$u20$as$u20$proc_macro..bridge..rpc..DecodeMut$LT$S$GT$$GT$6decode17h797de601677c1dc6E', symObjAddr: 0x4E20, symBinAddr: 0xD320, symSize: 0xB0 }
  - { offsetInCU: 0x8222, offset: 0x563AA, size: 0x8, addend: 0x0, symName: '__ZN155_$LT$proc_macro..bridge..rpc..PanicMessage$u20$as$u20$core..convert..From$LT$alloc..boxed..Box$LT$dyn$u20$core..any..Any$u2b$core..marker..Send$GT$$GT$$GT$4from17h94de2a090f69f110E', symObjAddr: 0x4ED0, symBinAddr: 0xD3D0, symSize: 0x160 }
  - { offsetInCU: 0x8469, offset: 0x565F1, size: 0x8, addend: 0x0, symName: '__ZN10proc_macro6bridge3rpc165_$LT$impl$u20$core..convert..From$LT$proc_macro..bridge..rpc..PanicMessage$GT$$u20$for$u20$alloc..boxed..Box$LT$dyn$u20$core..any..Any$u2b$core..marker..Send$GT$$GT$4from17h0a1f9efcf61edf6aE', symObjAddr: 0x5030, symBinAddr: 0xD530, symSize: 0x100 }
  - { offsetInCU: 0x87F2, offset: 0x5697A, size: 0x8, addend: 0x0, symName: '__ZN10proc_macro6bridge107_$LT$impl$u20$proc_macro..bridge..rpc..DecodeMut$LT$S$GT$$u20$for$u20$core..result..Result$LT$T$C$E$GT$$GT$6decode17h12ccc74c7899099bE', symObjAddr: 0x27590, symBinAddr: 0x13E40, symSize: 0x120 }
  - { offsetInCU: 0x89AA, offset: 0x56B32, size: 0x8, addend: 0x0, symName: '__ZN10proc_macro6bridge107_$LT$impl$u20$proc_macro..bridge..rpc..DecodeMut$LT$S$GT$$u20$for$u20$core..result..Result$LT$T$C$E$GT$$GT$6decode17h96507de84d22fc7bE', symObjAddr: 0x27800, symBinAddr: 0x13F60, symSize: 0x110 }
  - { offsetInCU: 0x8B54, offset: 0x56CDC, size: 0x8, addend: 0x0, symName: '__ZN10proc_macro6bridge103_$LT$impl$u20$proc_macro..bridge..rpc..DecodeMut$LT$S$GT$$u20$for$u20$core..option..Option$LT$T$GT$$GT$6decode17h9f26d10bfee661adE', symObjAddr: 0x274A0, symBinAddr: 0x13D50, symSize: 0xF0 }
  - { offsetInCU: 0x8D6F, offset: 0x56EF7, size: 0x8, addend: 0x0, symName: '__ZN10proc_macro6bridge100_$LT$impl$u20$proc_macro..bridge..rpc..Encode$LT$S$GT$$u20$for$u20$core..option..Option$LT$T$GT$$GT$6encode17h37897622a28015fdE', symObjAddr: 0x27140, symBinAddr: 0x139F0, symSize: 0x360 }
  - { offsetInCU: 0x90D3, offset: 0x5725B, size: 0x8, addend: 0x0, symName: '__ZN97_$LT$proc_macro..bridge..api_tags..Method$u20$as$u20$proc_macro..bridge..rpc..Encode$LT$S$GT$$GT$6encode17h079368ae9ce4b768E', symObjAddr: 0x24A00, symBinAddr: 0x118C0, symSize: 0x2130 }
  - { offsetInCU: 0xAA4A, offset: 0x58BD2, size: 0x8, addend: 0x0, symName: '__ZN106_$LT$proc_macro..bridge..Literal$LT$Sp$C$Sy$GT$$u20$as$u20$proc_macro..bridge..rpc..DecodeMut$LT$S$GT$$GT$6decode17hcaa4a989c7e34114E', symObjAddr: 0x27B50, symBinAddr: 0x14070, symSize: 0x190 }
  - { offsetInCU: 0xAE01, offset: 0x58F89, size: 0x8, addend: 0x0, symName: '__ZN125_$LT$proc_macro..bridge..TokenTree$LT$TokenStream$C$Span$C$Symbol$GT$$u20$as$u20$proc_macro..bridge..rpc..Encode$LT$S$GT$$GT$6encode17h22b5312202558feaE', symObjAddr: 0x27CE0, symBinAddr: 0x14200, symSize: 0x1EF0 }
  - { offsetInCU: 0xC6A5, offset: 0x5A82D, size: 0x8, addend: 0x0, symName: __ZN10proc_macro6escape12escape_bytes17hef13c363ae167412E, symObjAddr: 0x6D30, symBinAddr: 0xE7B0, symSize: 0x9F0 }
  - { offsetInCU: 0xD4A6, offset: 0x5B62E, size: 0x8, addend: 0x0, symName: __ZN10proc_macro11TokenStream8is_empty17hdf6a012b63f68b56E, symObjAddr: 0x7780, symBinAddr: 0xF1A0, symSize: 0x3C0 }
  - { offsetInCU: 0xD919, offset: 0x5BAA1, size: 0x8, addend: 0x0, symName: '__ZN93_$LT$proc_macro..token_stream..IntoIter$u20$as$u20$core..iter..traits..iterator..Iterator$GT$4next17hf776b5d049a74596E', symObjAddr: 0x9180, symBinAddr: 0xFB10, symSize: 0xB0 }
  - { offsetInCU: 0xD9B0, offset: 0x5BB38, size: 0x8, addend: 0x0, symName: '__ZN93_$LT$proc_macro..token_stream..IntoIter$u20$as$u20$core..iter..traits..iterator..Iterator$GT$9size_hint17h95aef7d31793d7cbE', symObjAddr: 0x9230, symBinAddr: 0xFBC0, symSize: 0x40 }
  - { offsetInCU: 0xDA26, offset: 0x5BBAE, size: 0x8, addend: 0x0, symName: '__ZN10proc_macro12token_stream95_$LT$impl$u20$core..iter..traits..collect..IntoIterator$u20$for$u20$proc_macro..TokenStream$GT$9into_iter17hd1cf7f2af42fb6f4E', symObjAddr: 0x92A0, symBinAddr: 0xFC00, symSize: 0xB20 }
  - { offsetInCU: 0xEEB8, offset: 0x5D040, size: 0x8, addend: 0x0, symName: '__ZN92_$LT$proc_macro..TokenStream$u20$as$u20$core..convert..From$LT$proc_macro..TokenTree$GT$$GT$4from17he17a9af57e23d24fE', symObjAddr: 0x88C0, symBinAddr: 0xF560, symSize: 0x370 }
  - { offsetInCU: 0xF3FB, offset: 0x5D583, size: 0x8, addend: 0x0, symName: __ZN10proc_macro17ConcatTreesHelper3new17he2b2a861ad1abb6bE, symObjAddr: 0x8C30, symBinAddr: 0xF8D0, symSize: 0x90 }
  - { offsetInCU: 0xF4CB, offset: 0x5D653, size: 0x8, addend: 0x0, symName: __ZN10proc_macro17ConcatTreesHelper4push17h01ded3971caf2e8cE, symObjAddr: 0x8CC0, symBinAddr: 0xF960, symSize: 0x140 }
  - { offsetInCU: 0xF63C, offset: 0x5D7C4, size: 0x8, addend: 0x0, symName: __ZN10proc_macro17ConcatTreesHelper5build17h5beb1a7d2615b9f8E, symObjAddr: 0x8E00, symBinAddr: 0xFAA0, symSize: 0x30 }
  - { offsetInCU: 0xF650, offset: 0x5D7D8, size: 0x8, addend: 0x0, symName: __ZN10proc_macro17ConcatTreesHelper9append_to17h6c679e699675a012E, symObjAddr: 0x8E30, symBinAddr: 0xFAD0, symSize: 0x40 }
  - { offsetInCU: 0xF722, offset: 0x5D8AA, size: 0x8, addend: 0x0, symName: __ZN10proc_macro4Span9call_site17hc3a0f6383b3f76dbE, symObjAddr: 0x1BD40, symBinAddr: 0x10720, symSize: 0x70 }
  - { offsetInCU: 0xF81D, offset: 0x5D9A5, size: 0x8, addend: 0x0, symName: __ZN10proc_macro5Ident3new17h6a157d8d92b6ee2dE, symObjAddr: 0x20930, symBinAddr: 0x10AD0, symSize: 0x30 }
  - { offsetInCU: 0xF845, offset: 0x5D9CD, size: 0x8, addend: 0x0, symName: __ZN10proc_macro5Punct3new17ha50bed01c7aa9a79E, symObjAddr: 0x20510, symBinAddr: 0x10860, symSize: 0x270 }
  - { offsetInCU: 0xF9B0, offset: 0x5DB38, size: 0x8, addend: 0x0, symName: __ZN10proc_macro5Group3new17h17886db804e98257E, symObjAddr: 0x20200, symBinAddr: 0x10790, symSize: 0xB0 }
  - { offsetInCU: 0xFB66, offset: 0x5DCEE, size: 0x8, addend: 0x0, symName: __ZN10proc_macro5Group6stream17h3016259f238283d6E, symObjAddr: 0x202B0, symBinAddr: 0x10840, symSize: 0x20 }
  - { offsetInCU: 0xFBA3, offset: 0x5DD2B, size: 0x8, addend: 0x0, symName: __ZN10proc_macro7Literal6string17hfa9f74639bd84e3aE, symObjAddr: 0x215E0, symBinAddr: 0x10D70, symSize: 0xE0 }
  - { offsetInCU: 0xFE69, offset: 0x5DFF1, size: 0x8, addend: 0x0, symName: '__ZN61_$LT$proc_macro..Ident$u20$as$u20$alloc..string..ToString$GT$9to_string17h79a6e3c40aed8698E', symObjAddr: 0x20990, symBinAddr: 0x10B00, symSize: 0x220 }
  - { offsetInCU: 0x102DF, offset: 0x5E467, size: 0x8, addend: 0x0, symName: '__ZN56_$LT$proc_macro..Ident$u20$as$u20$core..fmt..Display$GT$3fmt17hfb95a6d246c922e6E', symObjAddr: 0x20BB0, symBinAddr: 0x10D20, symSize: 0x50 }
  - { offsetInCU: 0x1032A, offset: 0x5E4B2, size: 0x8, addend: 0x0, symName: '__ZN63_$LT$proc_macro..Literal$u20$as$u20$alloc..string..ToString$GT$9to_string17h5310dddac2d7b8a5E', symObjAddr: 0x222A0, symBinAddr: 0x11000, symSize: 0x320 }
  - { offsetInCU: 0x109F4, offset: 0x5EB7C, size: 0x8, addend: 0x0, symName: '__ZN10proc_macro7Literal20with_stringify_parts28_$u7b$$u7b$closure$u7d$$u7d$17h151176071d047505E', symObjAddr: 0x21B20, symBinAddr: 0x10E50, symSize: 0x1B0 }
  - { offsetInCU: 0x10B35, offset: 0x5ECBD, size: 0x8, addend: 0x0, symName: '__ZN3std3sys12thread_local6native4lazy20Storage$LT$T$C$D$GT$10initialize17h66d9ebbd8dc8ecd4E', symObjAddr: 0x60, symBinAddr: 0x531B0, symSize: 0x1D0 }
  - { offsetInCU: 0x10C9D, offset: 0x5EE25, size: 0x8, addend: 0x0, symName: __ZN3std3sys12thread_local6native4lazy7destroy17h437fca99d9815f74E, symObjAddr: 0x230, symBinAddr: 0xB920, symSize: 0x40 }
  - { offsetInCU: 0x10DAB, offset: 0x5EF33, size: 0x8, addend: 0x0, symName: '__ZN3std4sync4once4Once9call_once28_$u7b$$u7b$closure$u7d$$u7d$17h77d21fec73cae805E', symObjAddr: 0x270, symBinAddr: 0xB960, symSize: 0xB0 }
  - { offsetInCU: 0x11410, offset: 0x5F598, size: 0x8, addend: 0x0, symName: '__ZN5alloc7raw_vec19RawVec$LT$T$C$A$GT$8grow_one17h1ffeebdd29746b42E', symObjAddr: 0x28F0, symBinAddr: 0xC480, symSize: 0xB0 }
  - { offsetInCU: 0x11540, offset: 0x5F6C8, size: 0x8, addend: 0x0, symName: '__ZN5alloc7raw_vec19RawVec$LT$T$C$A$GT$8grow_one17h857dbcf53636703bE', symObjAddr: 0x2A50, symBinAddr: 0xC530, symSize: 0xA0 }
  - { offsetInCU: 0x11676, offset: 0x5F7FE, size: 0x8, addend: 0x0, symName: '__ZN5alloc7raw_vec19RawVec$LT$T$C$A$GT$8grow_one17hd24748755660fe21E', symObjAddr: 0x2AF0, symBinAddr: 0xC5D0, symSize: 0xC0 }
  - { offsetInCU: 0x118F8, offset: 0x5FA80, size: 0x8, addend: 0x0, symName: __ZN5alloc7raw_vec11finish_grow17he866031771cef7a3E, symObjAddr: 0x27B0, symBinAddr: 0xC3E0, symSize: 0xA0 }
  - { offsetInCU: 0x11984, offset: 0x5FB0C, size: 0x8, addend: 0x0, symName: '__ZN5alloc7raw_vec19RawVec$LT$T$C$A$GT$7reserve21do_reserve_and_handle17hbb5c9b04556c9164E', symObjAddr: 0x2850, symBinAddr: 0x53380, symSize: 0xA0 }
  - { offsetInCU: 0x11EB0, offset: 0x60038, size: 0x8, addend: 0x0, symName: __ZN5alloc3str17join_generic_copy17h6db75af0444e00abE, symObjAddr: 0x25C0, symBinAddr: 0xC1F0, symSize: 0x1F0 }
  - { offsetInCU: 0x12A02, offset: 0x60B8A, size: 0x8, addend: 0x0, symName: '__ZN9hashbrown3raw21RawTable$LT$T$C$A$GT$14reserve_rehash17h767c1db44bfdcfbfE', symObjAddr: 0x2C70, symBinAddr: 0x53420, symSize: 0x8A0 }
  - { offsetInCU: 0x474, offset: 0x627B6, size: 0x8, addend: 0x0, symName: '__ZN5alloc11collections5btree3map25IntoIter$LT$K$C$V$C$A$GT$10dying_next17h18a81d86214d4c3fE', symObjAddr: 0x11590, symBinAddr: 0x23140, symSize: 0x400 }
  - { offsetInCU: 0x7FC, offset: 0x62B3E, size: 0x8, addend: 0x0, symName: '__ZN5alloc11collections5btree3map25IntoIter$LT$K$C$V$C$A$GT$10dying_next17h46269187b1d1f0d5E', symObjAddr: 0x11990, symBinAddr: 0x23540, symSize: 0x400 }
  - { offsetInCU: 0x1011, offset: 0x63353, size: 0x8, addend: 0x0, symName: '__ZN5alloc7raw_vec19RawVec$LT$T$C$A$GT$8grow_one17h1b2de17ded80b0efE', symObjAddr: 0x15320, symBinAddr: 0x23CC0, symSize: 0xC0 }
  - { offsetInCU: 0x115D, offset: 0x6349F, size: 0x8, addend: 0x0, symName: '__ZN5alloc7raw_vec19RawVec$LT$T$C$A$GT$8grow_one17h1ed5ddb334986877E', symObjAddr: 0x153E0, symBinAddr: 0x23D80, symSize: 0xB0 }
  - { offsetInCU: 0x12A9, offset: 0x635EB, size: 0x8, addend: 0x0, symName: '__ZN5alloc7raw_vec19RawVec$LT$T$C$A$GT$8grow_one17h1f2ce5cd493bf47dE', symObjAddr: 0x15490, symBinAddr: 0x23E30, symSize: 0xC0 }
  - { offsetInCU: 0x13F5, offset: 0x63737, size: 0x8, addend: 0x0, symName: '__ZN5alloc7raw_vec19RawVec$LT$T$C$A$GT$8grow_one17h1f82d5665bc3baa6E', symObjAddr: 0x15550, symBinAddr: 0x23EF0, symSize: 0xB0 }
  - { offsetInCU: 0x1541, offset: 0x63883, size: 0x8, addend: 0x0, symName: '__ZN5alloc7raw_vec19RawVec$LT$T$C$A$GT$8grow_one17h23f2ece7dc7f8ac4E', symObjAddr: 0x15600, symBinAddr: 0x23FA0, symSize: 0xC0 }
  - { offsetInCU: 0x168D, offset: 0x639CF, size: 0x8, addend: 0x0, symName: '__ZN5alloc7raw_vec19RawVec$LT$T$C$A$GT$8grow_one17h2d7cf4f58f17dc0bE', symObjAddr: 0x156C0, symBinAddr: 0x24060, symSize: 0xB0 }
  - { offsetInCU: 0x17D9, offset: 0x63B1B, size: 0x8, addend: 0x0, symName: '__ZN5alloc7raw_vec19RawVec$LT$T$C$A$GT$8grow_one17h2ebad2aca9269935E', symObjAddr: 0x15770, symBinAddr: 0x24110, symSize: 0xB0 }
  - { offsetInCU: 0x1925, offset: 0x63C67, size: 0x8, addend: 0x0, symName: '__ZN5alloc7raw_vec19RawVec$LT$T$C$A$GT$8grow_one17h6d578489e6325525E', symObjAddr: 0x15820, symBinAddr: 0x241C0, symSize: 0xC0 }
  - { offsetInCU: 0x1A7F, offset: 0x63DC1, size: 0x8, addend: 0x0, symName: '__ZN5alloc7raw_vec19RawVec$LT$T$C$A$GT$8grow_one17h76cd5bb8e3249a81E', symObjAddr: 0x158E0, symBinAddr: 0x24280, symSize: 0xB0 }
  - { offsetInCU: 0x1BCB, offset: 0x63F0D, size: 0x8, addend: 0x0, symName: '__ZN5alloc7raw_vec19RawVec$LT$T$C$A$GT$8grow_one17h8d39e6a3bd3ed510E', symObjAddr: 0x15A40, symBinAddr: 0x24330, symSize: 0xC0 }
  - { offsetInCU: 0x1D17, offset: 0x64059, size: 0x8, addend: 0x0, symName: '__ZN5alloc7raw_vec19RawVec$LT$T$C$A$GT$8grow_one17h9202c252dcd4a0d8E', symObjAddr: 0x15B00, symBinAddr: 0x243F0, symSize: 0xC0 }
  - { offsetInCU: 0x1E63, offset: 0x641A5, size: 0x8, addend: 0x0, symName: '__ZN5alloc7raw_vec19RawVec$LT$T$C$A$GT$8grow_one17hb4b7b3f2aea33bb4E', symObjAddr: 0x15BC0, symBinAddr: 0x244B0, symSize: 0xC0 }
  - { offsetInCU: 0x1F93, offset: 0x642D5, size: 0x8, addend: 0x0, symName: '__ZN5alloc7raw_vec19RawVec$LT$T$C$A$GT$8grow_one17hd91c9d4c6a9bca00E', symObjAddr: 0x15C80, symBinAddr: 0x24570, symSize: 0xA0 }
  - { offsetInCU: 0x27ED, offset: 0x64B2F, size: 0x8, addend: 0x0, symName: __ZN5alloc7raw_vec11finish_grow17hcddad2319b47952dE, symObjAddr: 0x14F10, symBinAddr: 0x23C20, symSize: 0xA0 }
  - { offsetInCU: 0x2879, offset: 0x64BBB, size: 0x8, addend: 0x0, symName: '__ZN5alloc7raw_vec19RawVec$LT$T$C$A$GT$7reserve21do_reserve_and_handle17h196a69aba8c2d956E', symObjAddr: 0x14FB0, symBinAddr: 0x540F0, symSize: 0xC0 }
  - { offsetInCU: 0x29A9, offset: 0x64CEB, size: 0x8, addend: 0x0, symName: '__ZN5alloc7raw_vec19RawVec$LT$T$C$A$GT$7reserve21do_reserve_and_handle17h402fc453247f963fE', symObjAddr: 0x15070, symBinAddr: 0x541B0, symSize: 0xB0 }
  - { offsetInCU: 0x2AD9, offset: 0x64E1B, size: 0x8, addend: 0x0, symName: '__ZN5alloc7raw_vec19RawVec$LT$T$C$A$GT$7reserve21do_reserve_and_handle17h83fb1e8109159aa3E', symObjAddr: 0x151C0, symBinAddr: 0x54260, symSize: 0xA0 }
  - { offsetInCU: 0x2BF3, offset: 0x64F35, size: 0x8, addend: 0x0, symName: '__ZN5alloc7raw_vec19RawVec$LT$T$C$A$GT$7reserve21do_reserve_and_handle17h86549d0267a347f8E', symObjAddr: 0x15260, symBinAddr: 0x54300, symSize: 0xC0 }
  - { offsetInCU: 0x3B36, offset: 0x65E78, size: 0x8, addend: 0x0, symName: '__ZN5alloc4sync16Arc$LT$T$C$A$GT$9drop_slow17h271286c795991e6eE', symObjAddr: 0x14C30, symBinAddr: 0x23940, symSize: 0x90 }
  - { offsetInCU: 0x3CAF, offset: 0x65FF1, size: 0x8, addend: 0x0, symName: '__ZN5alloc4sync16Arc$LT$T$C$A$GT$9drop_slow17h4eee9a7bc87850e1E', symObjAddr: 0x14CC0, symBinAddr: 0x239D0, symSize: 0x80 }
  - { offsetInCU: 0x3F2E, offset: 0x66270, size: 0x8, addend: 0x0, symName: '__ZN5alloc4sync16Arc$LT$T$C$A$GT$9drop_slow17h5baac5b2e7af83faE', symObjAddr: 0x14D40, symBinAddr: 0x23A50, symSize: 0x60 }
  - { offsetInCU: 0x4124, offset: 0x66466, size: 0x8, addend: 0x0, symName: '__ZN5alloc4sync16Arc$LT$T$C$A$GT$9drop_slow17h9ffcc698eacdf57eE', symObjAddr: 0x14DA0, symBinAddr: 0x23AB0, symSize: 0x30 }
  - { offsetInCU: 0x4225, offset: 0x66567, size: 0x8, addend: 0x0, symName: '__ZN5alloc4sync16Arc$LT$T$C$A$GT$9drop_slow17hbd808d258d0d1d92E', symObjAddr: 0x14DD0, symBinAddr: 0x23AE0, symSize: 0xC0 }
  - { offsetInCU: 0x44A7, offset: 0x667E9, size: 0x8, addend: 0x0, symName: '__ZN5alloc4sync16Arc$LT$T$C$A$GT$9drop_slow17he929e03fbfc85295E', symObjAddr: 0x14E90, symBinAddr: 0x23BA0, symSize: 0x80 }
  - { offsetInCU: 0x4D55, offset: 0x67097, size: 0x8, addend: 0x0, symName: '__ZN58_$LT$alloc..string..String$u20$as$u20$core..fmt..Debug$GT$3fmt17h46296bde07017096E', symObjAddr: 0xF670, symBinAddr: 0x22F80, symSize: 0x20 }
  - { offsetInCU: 0x4E35, offset: 0x67177, size: 0x8, addend: 0x0, symName: '__ZN58_$LT$alloc..string..String$u20$as$u20$core..fmt..Write$GT$10write_char17h04bc467bd68a934bE', symObjAddr: 0xF690, symBinAddr: 0x22FA0, symSize: 0x140 }
  - { offsetInCU: 0x4FD4, offset: 0x67316, size: 0x8, addend: 0x0, symName: '__ZN58_$LT$alloc..string..String$u20$as$u20$core..fmt..Write$GT$9write_str17h46a93205c3443fbaE', symObjAddr: 0xF7D0, symBinAddr: 0x230E0, symSize: 0x60 }
  - { offsetInCU: 0x50BF, offset: 0x67401, size: 0x8, addend: 0x0, symName: '__ZN60_$LT$alloc..string..String$u20$as$u20$core..fmt..Display$GT$3fmt17h0d0eb46f3054e2dfE', symObjAddr: 0x1ED60, symBinAddr: 0x2D650, symSize: 0x20 }
  - { offsetInCU: 0x693A, offset: 0x68C7C, size: 0x8, addend: 0x0, symName: '__ZN4core3ptr104drop_in_place$LT$alloc..vec..Vec$LT$$LP$usize$C$std..backtrace_rs..symbolize..gimli..Mapping$RP$$GT$$GT$17hd64c3526ec62e9d1E', symObjAddr: 0x1900, symBinAddr: 0x16630, symSize: 0xD0 }
  - { offsetInCU: 0x6B0D, offset: 0x68E4F, size: 0x8, addend: 0x0, symName: '__ZN4core3ptr108drop_in_place$LT$alloc..collections..btree..map..BTreeMap$LT$u64$C$gimli..read..abbrev..Abbreviation$GT$$GT$17h896b5b8e1cdcf80bE', symObjAddr: 0x1B20, symBinAddr: 0x16700, symSize: 0xD0 }
  - { offsetInCU: 0x6CC0, offset: 0x69002, size: 0x8, addend: 0x0, symName: '__ZN4core3ptr123drop_in_place$LT$addr2line..Context$LT$gimli..read..endian_slice..EndianSlice$LT$gimli..endianity..LittleEndian$GT$$GT$$GT$17h2ef49b54e261394dE', symObjAddr: 0x1C70, symBinAddr: 0x167D0, symSize: 0x130 }
  - { offsetInCU: 0x6FC6, offset: 0x69308, size: 0x8, addend: 0x0, symName: '__ZN4core3ptr123drop_in_place$LT$addr2line..ResUnit$LT$gimli..read..endian_slice..EndianSlice$LT$gimli..endianity..LittleEndian$GT$$GT$$GT$17hdeaa58f877242283E', symObjAddr: 0x1DA0, symBinAddr: 0x16900, symSize: 0x100 }
  - { offsetInCU: 0x7187, offset: 0x694C9, size: 0x8, addend: 0x0, symName: '__ZN4core3ptr123drop_in_place$LT$addr2line..SupUnit$LT$gimli..read..endian_slice..EndianSlice$LT$gimli..endianity..LittleEndian$GT$$GT$$GT$17h8208c1c32df374e8E', symObjAddr: 0x1EA0, symBinAddr: 0x16A00, symSize: 0x50 }
  - { offsetInCU: 0x7231, offset: 0x69573, size: 0x8, addend: 0x0, symName: '__ZN4core3ptr130drop_in_place$LT$gimli..read..dwarf..Dwarf$LT$gimli..read..endian_slice..EndianSlice$LT$gimli..endianity..LittleEndian$GT$$GT$$GT$17he2c802b894b6a339E', symObjAddr: 0x20E0, symBinAddr: 0x16A50, symSize: 0x60 }
  - { offsetInCU: 0x729A, offset: 0x695DC, size: 0x8, addend: 0x0, symName: '__ZN4core3ptr131drop_in_place$LT$alloc..boxed..Box$LT$dyn$u20$core..ops..function..FnOnce$LT$$LP$$RP$$GT$$u2b$Output$u20$$u3d$$u20$$LP$$RP$$GT$$GT$17h7715eebd5e8ef4d6E', symObjAddr: 0x2140, symBinAddr: 0x16AB0, symSize: 0x70 }
  - { offsetInCU: 0x7382, offset: 0x696C4, size: 0x8, addend: 0x0, symName: '__ZN4core3ptr137drop_in_place$LT$gimli..read..dwarf..Unit$LT$gimli..read..endian_slice..EndianSlice$LT$gimli..endianity..LittleEndian$GT$$C$usize$GT$$GT$17hecb88828dcfed016E', symObjAddr: 0x21B0, symBinAddr: 0x16B20, symSize: 0x50 }
  - { offsetInCU: 0x7440, offset: 0x69782, size: 0x8, addend: 0x0, symName: '__ZN4core3ptr144drop_in_place$LT$alloc..vec..Vec$LT$core..option..Option$LT$core..option..Option$LT$std..backtrace_rs..symbolize..gimli..Mapping$GT$$GT$$GT$$GT$17hc9f7f19bdef76e20E', symObjAddr: 0x2200, symBinAddr: 0x16B70, symSize: 0x130 }
  - { offsetInCU: 0x75D5, offset: 0x69917, size: 0x8, addend: 0x0, symName: '__ZN4core3ptr146drop_in_place$LT$alloc..vec..Vec$LT$addr2line..ResUnit$LT$gimli..read..endian_slice..EndianSlice$LT$gimli..endianity..LittleEndian$GT$$GT$$GT$$GT$17hd3feb0dd7b6341c0E', symObjAddr: 0x2330, symBinAddr: 0x16CA0, symSize: 0xD0 }
  - { offsetInCU: 0x7730, offset: 0x69A72, size: 0x8, addend: 0x0, symName: '__ZN4core3ptr146drop_in_place$LT$alloc..vec..Vec$LT$addr2line..SupUnit$LT$gimli..read..endian_slice..EndianSlice$LT$gimli..endianity..LittleEndian$GT$$GT$$GT$$GT$17hd3b520dc1ec8b244E', symObjAddr: 0x2400, symBinAddr: 0x16D70, symSize: 0x100 }
  - { offsetInCU: 0x78F7, offset: 0x69C39, size: 0x8, addend: 0x0, symName: '__ZN4core3ptr158drop_in_place$LT$alloc..boxed..Box$LT$$u5b$addr2line..ResUnit$LT$gimli..read..endian_slice..EndianSlice$LT$gimli..endianity..LittleEndian$GT$$GT$$u5d$$GT$$GT$17ha6be907e1e9cc0b3E', symObjAddr: 0x2600, symBinAddr: 0x16E70, symSize: 0xC0 }
  - { offsetInCU: 0x79EC, offset: 0x69D2E, size: 0x8, addend: 0x0, symName: '__ZN4core3ptr158drop_in_place$LT$alloc..boxed..Box$LT$$u5b$addr2line..SupUnit$LT$gimli..read..endian_slice..EndianSlice$LT$gimli..endianity..LittleEndian$GT$$GT$$u5d$$GT$$GT$17hf844b2c47a76cbe5E', symObjAddr: 0x26C0, symBinAddr: 0x16F30, symSize: 0xE0 }
  - { offsetInCU: 0x7B85, offset: 0x69EC7, size: 0x8, addend: 0x0, symName: '__ZN4core3ptr159drop_in_place$LT$alloc..sync..ArcInner$LT$gimli..read..dwarf..Dwarf$LT$gimli..read..endian_slice..EndianSlice$LT$gimli..endianity..LittleEndian$GT$$GT$$GT$$GT$17hd21332c93e9cd0a3E', symObjAddr: 0x27A0, symBinAddr: 0x17010, symSize: 0x60 }
  - { offsetInCU: 0x7C6D, offset: 0x69FAF, size: 0x8, addend: 0x0, symName: '__ZN4core3ptr174drop_in_place$LT$core..result..Result$LT$addr2line..FrameIter$LT$gimli..read..endian_slice..EndianSlice$LT$gimli..endianity..LittleEndian$GT$$GT$$C$gimli..read..Error$GT$$GT$17h37a4d09a5bab7734E', symObjAddr: 0x2800, symBinAddr: 0x17070, symSize: 0x40 }
  - { offsetInCU: 0x7DE1, offset: 0x6A123, size: 0x8, addend: 0x0, symName: '__ZN4core3ptr181drop_in_place$LT$core..option..Option$LT$gimli..read..line..IncompleteLineProgram$LT$gimli..read..endian_slice..EndianSlice$LT$gimli..endianity..LittleEndian$GT$$C$usize$GT$$GT$$GT$17ha4c6928a2cf5b75aE', symObjAddr: 0x2870, symBinAddr: 0x170B0, symSize: 0xA0 }
  - { offsetInCU: 0x80A5, offset: 0x6A3E7, size: 0x8, addend: 0x0, symName: '__ZN4core3ptr184drop_in_place$LT$core..result..Result$LT$addr2line..function..Functions$LT$gimli..read..endian_slice..EndianSlice$LT$gimli..endianity..LittleEndian$GT$$GT$$C$gimli..read..Error$GT$$GT$17h559cfbb2de29274eE', symObjAddr: 0x2910, symBinAddr: 0x17150, symSize: 0xE0 }
  - { offsetInCU: 0x8376, offset: 0x6A6B8, size: 0x8, addend: 0x0, symName: '__ZN4core3ptr215drop_in_place$LT$std..sys..thread_local..native..lazy..State$LT$core..cell..Cell$LT$core..option..Option$LT$alloc..sync..Arc$LT$std..sync..mutex..Mutex$LT$alloc..vec..Vec$LT$u8$GT$$GT$$GT$$GT$$GT$$C$$LP$$RP$$GT$$GT$17ha69e16112f70cc34E', symObjAddr: 0x2A10, symBinAddr: 0x17230, symSize: 0x30 }
  - { offsetInCU: 0x83FB, offset: 0x6A73D, size: 0x8, addend: 0x0, symName: '__ZN4core3ptr250drop_in_place$LT$$LP$gimli..read..UnitOffset$C$addr2line..lazy..LazyCell$LT$core..result..Result$LT$addr2line..function..Function$LT$gimli..read..endian_slice..EndianSlice$LT$gimli..endianity..LittleEndian$GT$$GT$$C$gimli..read..Error$GT$$GT$$RP$$GT$17hf5dc2e31b3559957E', symObjAddr: 0x2A40, symBinAddr: 0x17260, symSize: 0x60 }
  - { offsetInCU: 0x8412, offset: 0x6A754, size: 0x8, addend: 0x0, symName: '__ZN4core3ptr250drop_in_place$LT$$LP$gimli..read..UnitOffset$C$addr2line..lazy..LazyCell$LT$core..result..Result$LT$addr2line..function..Function$LT$gimli..read..endian_slice..EndianSlice$LT$gimli..endianity..LittleEndian$GT$$GT$$C$gimli..read..Error$GT$$GT$$RP$$GT$17hf5dc2e31b3559957E', symObjAddr: 0x2A40, symBinAddr: 0x17260, symSize: 0x60 }
  - { offsetInCU: 0x8427, offset: 0x6A769, size: 0x8, addend: 0x0, symName: '__ZN4core3ptr250drop_in_place$LT$$LP$gimli..read..UnitOffset$C$addr2line..lazy..LazyCell$LT$core..result..Result$LT$addr2line..function..Function$LT$gimli..read..endian_slice..EndianSlice$LT$gimli..endianity..LittleEndian$GT$$GT$$C$gimli..read..Error$GT$$GT$$RP$$GT$17hf5dc2e31b3559957E', symObjAddr: 0x2A40, symBinAddr: 0x17260, symSize: 0x60 }
  - { offsetInCU: 0x843C, offset: 0x6A77E, size: 0x8, addend: 0x0, symName: '__ZN4core3ptr250drop_in_place$LT$$LP$gimli..read..UnitOffset$C$addr2line..lazy..LazyCell$LT$core..result..Result$LT$addr2line..function..Function$LT$gimli..read..endian_slice..EndianSlice$LT$gimli..endianity..LittleEndian$GT$$GT$$C$gimli..read..Error$GT$$GT$$RP$$GT$17hf5dc2e31b3559957E', symObjAddr: 0x2A40, symBinAddr: 0x17260, symSize: 0x60 }
  - { offsetInCU: 0x857B, offset: 0x6A8BD, size: 0x8, addend: 0x0, symName: '__ZN4core3ptr273drop_in_place$LT$alloc..vec..Vec$LT$$LP$gimli..read..UnitOffset$C$addr2line..lazy..LazyCell$LT$core..result..Result$LT$addr2line..function..Function$LT$gimli..read..endian_slice..EndianSlice$LT$gimli..endianity..LittleEndian$GT$$GT$$C$gimli..read..Error$GT$$GT$$RP$$GT$$GT$17heb6aa6615a37ff1aE', symObjAddr: 0x2AA0, symBinAddr: 0x172C0, symSize: 0xC0 }
  - { offsetInCU: 0x8790, offset: 0x6AAD2, size: 0x8, addend: 0x0, symName: '__ZN4core3ptr275drop_in_place$LT$gimli..read..line..LineRows$LT$gimli..read..endian_slice..EndianSlice$LT$gimli..endianity..LittleEndian$GT$$C$gimli..read..line..IncompleteLineProgram$LT$gimli..read..endian_slice..EndianSlice$LT$gimli..endianity..LittleEndian$GT$$C$usize$GT$$C$usize$GT$$GT$17hc6e119e385b7ab77E', symObjAddr: 0x2B60, symBinAddr: 0x17380, symSize: 0x90 }
  - { offsetInCU: 0x89BA, offset: 0x6ACFC, size: 0x8, addend: 0x0, symName: '__ZN4core3ptr280drop_in_place$LT$$LT$alloc..collections..btree..map..IntoIter$LT$K$C$V$C$A$GT$$u20$as$u20$core..ops..drop..Drop$GT$..drop..DropGuard$LT$u64$C$core..result..Result$LT$alloc..sync..Arc$LT$gimli..read..abbrev..Abbreviations$GT$$C$gimli..read..Error$GT$$C$alloc..alloc..Global$GT$$GT$17haa387ba74ff7800eE', symObjAddr: 0x2BF0, symBinAddr: 0x17410, symSize: 0x80 }
  - { offsetInCU: 0x8AD0, offset: 0x6AE12, size: 0x8, addend: 0x0, symName: '__ZN4core3ptr285drop_in_place$LT$alloc..boxed..Box$LT$$u5b$$LP$gimli..read..UnitOffset$C$addr2line..lazy..LazyCell$LT$core..result..Result$LT$addr2line..function..Function$LT$gimli..read..endian_slice..EndianSlice$LT$gimli..endianity..LittleEndian$GT$$GT$$C$gimli..read..Error$GT$$GT$$RP$$u5d$$GT$$GT$17ha9d866c795750427E', symObjAddr: 0x2C70, symBinAddr: 0x17490, symSize: 0xA0 }
  - { offsetInCU: 0x8AE7, offset: 0x6AE29, size: 0x8, addend: 0x0, symName: '__ZN4core3ptr285drop_in_place$LT$alloc..boxed..Box$LT$$u5b$$LP$gimli..read..UnitOffset$C$addr2line..lazy..LazyCell$LT$core..result..Result$LT$addr2line..function..Function$LT$gimli..read..endian_slice..EndianSlice$LT$gimli..endianity..LittleEndian$GT$$GT$$C$gimli..read..Error$GT$$GT$$RP$$u5d$$GT$$GT$17ha9d866c795750427E', symObjAddr: 0x2C70, symBinAddr: 0x17490, symSize: 0xA0 }
  - { offsetInCU: 0x9495, offset: 0x6B7D7, size: 0x8, addend: 0x0, symName: '__ZN4core3ptr383drop_in_place$LT$core..result..Result$LT$core..option..Option$LT$alloc..boxed..Box$LT$$LP$alloc..sync..Arc$LT$gimli..read..dwarf..Dwarf$LT$gimli..read..endian_slice..EndianSlice$LT$gimli..endianity..LittleEndian$GT$$GT$$GT$$C$gimli..read..dwarf..Unit$LT$gimli..read..endian_slice..EndianSlice$LT$gimli..endianity..LittleEndian$GT$$C$usize$GT$$RP$$GT$$GT$$C$gimli..read..Error$GT$$GT$17h5734f377dfec8591E', symObjAddr: 0x2DC0, symBinAddr: 0x17530, symSize: 0xB0 }
  - { offsetInCU: 0x9696, offset: 0x6B9D8, size: 0x8, addend: 0x0, symName: '__ZN4core3ptr41drop_in_place$LT$std..panicking..Hook$GT$17hb6b24b4254eb1cd5E', symObjAddr: 0x2EF0, symBinAddr: 0x175E0, symSize: 0x70 }
  - { offsetInCU: 0x978C, offset: 0x6BACE, size: 0x8, addend: 0x0, symName: '__ZN4core3ptr42drop_in_place$LT$alloc..string..String$GT$17h59db15f85295d131E', symObjAddr: 0x2F60, symBinAddr: 0x17650, symSize: 0x20 }
  - { offsetInCU: 0x9857, offset: 0x6BB99, size: 0x8, addend: 0x0, symName: '__ZN4core3ptr42drop_in_place$LT$std..io..error..Error$GT$17h4537743dc9fddae3E', symObjAddr: 0x2F80, symBinAddr: 0x17670, symSize: 0xA0 }
  - { offsetInCU: 0x9AAE, offset: 0x6BDF0, size: 0x8, addend: 0x0, symName: '__ZN4core3ptr44drop_in_place$LT$object..read..ObjectMap$GT$17hb75450a95801e694E', symObjAddr: 0x3020, symBinAddr: 0x17710, symSize: 0x50 }
  - { offsetInCU: 0x9BBE, offset: 0x6BF00, size: 0x8, addend: 0x0, symName: '__ZN4core3ptr44drop_in_place$LT$std..thread..PanicGuard$GT$17h49c674bf97cb17c2E', symObjAddr: 0x30D0, symBinAddr: 0x17760, symSize: 0x50 }
  - { offsetInCU: 0x9C11, offset: 0x6BF53, size: 0x8, addend: 0x0, symName: '__ZN4core3ptr44drop_in_place$LT$std..thread..ThreadName$GT$17h9ea89f3b915aba6cE', symObjAddr: 0x3120, symBinAddr: 0x177B0, symSize: 0x30 }
  - { offsetInCU: 0x9CBC, offset: 0x6BFFE, size: 0x8, addend: 0x0, symName: '__ZN4core3ptr46drop_in_place$LT$alloc..vec..Vec$LT$u8$GT$$GT$17h9a5e643e9b7c3ef8E', symObjAddr: 0x3150, symBinAddr: 0x177E0, symSize: 0x20 }
  - { offsetInCU: 0x9D39, offset: 0x6C07B, size: 0x8, addend: 0x0, symName: '__ZN4core3ptr46drop_in_place$LT$std..io..stdio..StdinLock$GT$17h1000111f529ce114E', symObjAddr: 0x3170, symBinAddr: 0x17800, symSize: 0x50 }
  - { offsetInCU: 0x9E96, offset: 0x6C1D8, size: 0x8, addend: 0x0, symName: '__ZN4core3ptr55drop_in_place$LT$gimli..read..abbrev..Abbreviations$GT$17ha5b955a9654883aaE', symObjAddr: 0x34F0, symBinAddr: 0x17850, symSize: 0x90 }
  - { offsetInCU: 0xA02A, offset: 0x6C36C, size: 0x8, addend: 0x0, symName: '__ZN4core3ptr60drop_in_place$LT$gimli..read..abbrev..AbbreviationsCache$GT$17h1b2b5f77a55605caE', symObjAddr: 0x3590, symBinAddr: 0x178E0, symSize: 0xE0 }
  - { offsetInCU: 0xA187, offset: 0x6C4C9, size: 0x8, addend: 0x0, symName: '__ZN4core3ptr62drop_in_place$LT$std..sys..sync..rwlock..queue..PanicGuard$GT$17h771b0fc3a251803cE', symObjAddr: 0x3670, symBinAddr: 0x179C0, symSize: 0x50 }
  - { offsetInCU: 0xA1E8, offset: 0x6C52A, size: 0x8, addend: 0x0, symName: '__ZN4core3ptr65drop_in_place$LT$alloc..vec..Vec$LT$alloc..string..String$GT$$GT$17hcd9f36ca87523893E', symObjAddr: 0x36C0, symBinAddr: 0x17A10, symSize: 0x90 }
  - { offsetInCU: 0xA334, offset: 0x6C676, size: 0x8, addend: 0x0, symName: '__ZN4core3ptr65drop_in_place$LT$std..backtrace_rs..symbolize..gimli..Mapping$GT$17ha8f2d80facd881efE', symObjAddr: 0x3750, symBinAddr: 0x17AA0, symSize: 0x90 }
  - { offsetInCU: 0xA3EA, offset: 0x6C72C, size: 0x8, addend: 0x0, symName: '__ZN4core3ptr67drop_in_place$LT$alloc..vec..Vec$LT$addr2line..LineSequence$GT$$GT$17h3097d000094deec4E', symObjAddr: 0x37E0, symBinAddr: 0x17B30, symSize: 0x90 }
  - { offsetInCU: 0xA599, offset: 0x6C8DB, size: 0x8, addend: 0x0, symName: '__ZN4core3ptr70drop_in_place$LT$std..backtrace_rs..symbolize..gimli..stash..Stash$GT$17h90e0b0985b8e22d0E', symObjAddr: 0x3980, symBinAddr: 0x17BC0, symSize: 0xE0 }
  - { offsetInCU: 0xA838, offset: 0x6CB7A, size: 0x8, addend: 0x0, symName: '__ZN4core3ptr71drop_in_place$LT$std..backtrace_rs..symbolize..gimli..macho..Object$GT$17h2fff3db3a7544d43E', symObjAddr: 0x3A60, symBinAddr: 0x17CA0, symSize: 0x160 }
  - { offsetInCU: 0xAB3E, offset: 0x6CE80, size: 0x8, addend: 0x0, symName: '__ZN4core3ptr71drop_in_place$LT$std..panicking..rust_panic_without_hook..RewrapBox$GT$17h3d5b1b3eb1c82b41E', symObjAddr: 0x3BC0, symBinAddr: 0x17E00, symSize: 0x70 }
  - { offsetInCU: 0xAC34, offset: 0x6CF76, size: 0x8, addend: 0x0, symName: '__ZN4core3ptr71drop_in_place$LT$std..sync..rwlock..RwLockReadGuard$LT$$LP$$RP$$GT$$GT$17h1d840147d479c1dbE', symObjAddr: 0x3C30, symBinAddr: 0x17E70, symSize: 0x40 }
  - { offsetInCU: 0xACE5, offset: 0x6D027, size: 0x8, addend: 0x0, symName: '__ZN4core3ptr72drop_in_place$LT$core..option..Option$LT$object..read..ObjectMap$GT$$GT$17h4ff1d16f78bfc967E', symObjAddr: 0x3C70, symBinAddr: 0x17EB0, symSize: 0x60 }
  - { offsetInCU: 0xAE0B, offset: 0x6D14D, size: 0x8, addend: 0x0, symName: '__ZN4core3ptr77drop_in_place$LT$alloc..boxed..Box$LT$$u5b$alloc..string..String$u5d$$GT$$GT$17h5a079cec55cc326eE', symObjAddr: 0x3D20, symBinAddr: 0x17F10, symSize: 0x60 }
  - { offsetInCU: 0xAE22, offset: 0x6D164, size: 0x8, addend: 0x0, symName: '__ZN4core3ptr77drop_in_place$LT$alloc..boxed..Box$LT$$u5b$alloc..string..String$u5d$$GT$$GT$17h5a079cec55cc326eE', symObjAddr: 0x3D20, symBinAddr: 0x17F10, symSize: 0x60 }
  - { offsetInCU: 0xAF1C, offset: 0x6D25E, size: 0x8, addend: 0x0, symName: '__ZN4core3ptr77drop_in_place$LT$std..panicking..begin_panic_handler..FormatStringPayload$GT$17hda64c1aa4eb7db50E', symObjAddr: 0x3D80, symBinAddr: 0x17F70, symSize: 0x30 }
  - { offsetInCU: 0xAFC0, offset: 0x6D302, size: 0x8, addend: 0x0, symName: '__ZN4core3ptr81drop_in_place$LT$core..result..Result$LT$$LP$$RP$$C$std..io..error..Error$GT$$GT$17h7d4aca425c3ff71eE', symObjAddr: 0x3F00, symBinAddr: 0x17FA0, symSize: 0x20 }
  - { offsetInCU: 0xAFE2, offset: 0x6D324, size: 0x8, addend: 0x0, symName: '__ZN4core3ptr84drop_in_place$LT$alloc..sync..ArcInner$LT$gimli..read..abbrev..Abbreviations$GT$$GT$17ha88d315bc6ee2a6bE', symObjAddr: 0x3F70, symBinAddr: 0x17FC0, symSize: 0x90 }
  - { offsetInCU: 0xB193, offset: 0x6D4D5, size: 0x8, addend: 0x0, symName: '__ZN4core3ptr86drop_in_place$LT$core..result..Result$LT$addr2line..Lines$C$gimli..read..Error$GT$$GT$17h5bcb985cd394798dE', symObjAddr: 0x4000, symBinAddr: 0x18050, symSize: 0xE0 }
  - { offsetInCU: 0xB3E1, offset: 0x6D723, size: 0x8, addend: 0x0, symName: '__ZN4core3ptr87drop_in_place$LT$alloc..sync..ArcInner$LT$std..sys..pal..unix..fs..InnerReadDir$GT$$GT$17h27f97e30407649b5E', symObjAddr: 0x40E0, symBinAddr: 0x18130, symSize: 0x60 }
  - { offsetInCU: 0xB5AB, offset: 0x6D8ED, size: 0x8, addend: 0x0, symName: '__ZN4core3ptr88drop_in_place$LT$alloc..vec..Vec$LT$std..backtrace_rs..symbolize..gimli..Library$GT$$GT$17h5a2d70ef2c57636eE', symObjAddr: 0x4170, symBinAddr: 0x18190, symSize: 0xA0 }
  - { offsetInCU: 0xB76E, offset: 0x6DAB0, size: 0x8, addend: 0x0, symName: '__ZN4core3ptr88drop_in_place$LT$std..io..Write..write_fmt..Adapter$LT$alloc..vec..Vec$LT$u8$GT$$GT$$GT$17hb79e3e627b3b4cadE', symObjAddr: 0x4210, symBinAddr: 0x18230, symSize: 0x20 }
  - { offsetInCU: 0xB79D, offset: 0x6DADF, size: 0x8, addend: 0x0, symName: '__ZN4core3ptr92drop_in_place$LT$alloc..boxed..Box$LT$std..sys..sync..mutex..pthread..AllocatedMutex$GT$$GT$17h0d8fca55e8e556b5E', symObjAddr: 0x42F0, symBinAddr: 0x18250, symSize: 0x30 }
  - { offsetInCU: 0xB838, offset: 0x6DB7A, size: 0x8, addend: 0x0, symName: '__ZN4core3ptr95drop_in_place$LT$core..option..IntoIter$LT$std..backtrace_rs..symbolize..gimli..Library$GT$$GT$17h7258725f4014309aE', symObjAddr: 0x4320, symBinAddr: 0x18280, symSize: 0x50 }
  - { offsetInCU: 0xB856, offset: 0x6DB98, size: 0x8, addend: 0x0, symName: '__ZN4core3ptr95drop_in_place$LT$core..option..IntoIter$LT$std..backtrace_rs..symbolize..gimli..Library$GT$$GT$17h7258725f4014309aE', symObjAddr: 0x4320, symBinAddr: 0x18280, symSize: 0x50 }
  - { offsetInCU: 0xB86B, offset: 0x6DBAD, size: 0x8, addend: 0x0, symName: '__ZN4core3ptr95drop_in_place$LT$core..option..IntoIter$LT$std..backtrace_rs..symbolize..gimli..Library$GT$$GT$17h7258725f4014309aE', symObjAddr: 0x4320, symBinAddr: 0x18280, symSize: 0x50 }
  - { offsetInCU: 0xD939, offset: 0x6FC7B, size: 0x8, addend: 0x0, symName: __ZN4core5slice4sort6shared5pivot11median3_rec17h10ec5dd456f10a23E, symObjAddr: 0x48A0, symBinAddr: 0x182E0, symSize: 0xC0 }
  - { offsetInCU: 0xDA42, offset: 0x6FD84, size: 0x8, addend: 0x0, symName: __ZN4core5slice4sort6shared5pivot11median3_rec17h5d7401d54a70e545E, symObjAddr: 0x4960, symBinAddr: 0x183A0, symSize: 0xC0 }
  - { offsetInCU: 0xDB4B, offset: 0x6FE8D, size: 0x8, addend: 0x0, symName: __ZN4core5slice4sort6shared5pivot11median3_rec17h678771bdd9989bc4E, symObjAddr: 0x4A20, symBinAddr: 0x18460, symSize: 0xB0 }
  - { offsetInCU: 0xDCAA, offset: 0x6FFEC, size: 0x8, addend: 0x0, symName: __ZN4core5slice4sort6shared5pivot11median3_rec17ha6d876ea0e6caac1E, symObjAddr: 0x4AD0, symBinAddr: 0x18510, symSize: 0x140 }
  - { offsetInCU: 0xDEDF, offset: 0x70221, size: 0x8, addend: 0x0, symName: __ZN4core5slice4sort6shared5pivot11median3_rec17hb596338b09cc9a1dE, symObjAddr: 0x4C10, symBinAddr: 0x18650, symSize: 0xC0 }
  - { offsetInCU: 0xDFE8, offset: 0x7032A, size: 0x8, addend: 0x0, symName: __ZN4core5slice4sort6shared5pivot11median3_rec17hd8b0c8642d516098E, symObjAddr: 0x4CD0, symBinAddr: 0x18710, symSize: 0x110 }
  - { offsetInCU: 0xE0FB, offset: 0x7043D, size: 0x8, addend: 0x0, symName: __ZN4core5slice4sort6shared5pivot11median3_rec17hf1ffff1af254135dE, symObjAddr: 0x4DE0, symBinAddr: 0x18820, symSize: 0xB0 }
  - { offsetInCU: 0xE204, offset: 0x70546, size: 0x8, addend: 0x0, symName: __ZN4core5slice4sort6shared5pivot11median3_rec17hfa40af6741a5ea49E, symObjAddr: 0x4E90, symBinAddr: 0x188D0, symSize: 0xC0 }
  - { offsetInCU: 0xE3E4, offset: 0x70726, size: 0x8, addend: 0x0, symName: __ZN4core5slice4sort6shared9smallsort12sort4_stable17h5c9a4fc1faf1c3f0E, symObjAddr: 0x4F50, symBinAddr: 0x18990, symSize: 0x1F0 }
  - { offsetInCU: 0xE7BA, offset: 0x70AFC, size: 0x8, addend: 0x0, symName: __ZN4core5slice4sort6shared9smallsort12sort4_stable17hebd3516948f59830E, symObjAddr: 0x5140, symBinAddr: 0x18B80, symSize: 0x1B0 }
  - { offsetInCU: 0xE9B7, offset: 0x70CF9, size: 0x8, addend: 0x0, symName: __ZN4core5slice4sort6shared9smallsort12sort8_stable17h73fc3d1f23e89cd0E, symObjAddr: 0x52F0, symBinAddr: 0x18D30, symSize: 0x3E0 }
  - { offsetInCU: 0xF1B1, offset: 0x714F3, size: 0x8, addend: 0x0, symName: __ZN4core5slice4sort6shared9smallsort18small_sort_general17h8580350dc89e0b16E, symObjAddr: 0x56D0, symBinAddr: 0x19110, symSize: 0x4F0 }
  - { offsetInCU: 0xF742, offset: 0x71A84, size: 0x8, addend: 0x0, symName: __ZN4core5slice4sort6shared9smallsort18small_sort_general17hb8ddaadc775fa7bbE, symObjAddr: 0x5BC0, symBinAddr: 0x19600, symSize: 0x630 }
  - { offsetInCU: 0x1023E, offset: 0x72580, size: 0x8, addend: 0x0, symName: __ZN4core5slice4sort6stable14driftsort_main17h0a12b591811d8d96E, symObjAddr: 0x61F0, symBinAddr: 0x19C30, symSize: 0x130 }
  - { offsetInCU: 0x104B9, offset: 0x727FB, size: 0x8, addend: 0x0, symName: __ZN4core5slice4sort6stable14driftsort_main17h2603d9940a6b7425E, symObjAddr: 0x6320, symBinAddr: 0x19D60, symSize: 0x130 }
  - { offsetInCU: 0x10734, offset: 0x72A76, size: 0x8, addend: 0x0, symName: __ZN4core5slice4sort6stable14driftsort_main17h89a899ff82e24bb0E, symObjAddr: 0x6450, symBinAddr: 0x19E90, symSize: 0x130 }
  - { offsetInCU: 0x109AF, offset: 0x72CF1, size: 0x8, addend: 0x0, symName: __ZN4core5slice4sort6stable14driftsort_main17haf200431324837b0E, symObjAddr: 0x6580, symBinAddr: 0x19FC0, symSize: 0x140 }
  - { offsetInCU: 0x10C2A, offset: 0x72F6C, size: 0x8, addend: 0x0, symName: __ZN4core5slice4sort6stable14driftsort_main17hb8200fd42e629335E, symObjAddr: 0x66C0, symBinAddr: 0x1A100, symSize: 0x150 }
  - { offsetInCU: 0x10E3A, offset: 0x7317C, size: 0x8, addend: 0x0, symName: __ZN4core5slice4sort6stable14driftsort_main17heb01477367bce3a7E, symObjAddr: 0x6810, symBinAddr: 0x1A250, symSize: 0x140 }
  - { offsetInCU: 0x112A6, offset: 0x735E8, size: 0x8, addend: 0x0, symName: __ZN4core5slice4sort6stable5drift4sort17h04c31658064cd2b3E, symObjAddr: 0x6950, symBinAddr: 0x1A390, symSize: 0x690 }
  - { offsetInCU: 0x11A9B, offset: 0x73DDD, size: 0x8, addend: 0x0, symName: __ZN4core5slice4sort6stable5drift4sort17h0e577c903e03f750E, symObjAddr: 0x6FE0, symBinAddr: 0x1AA20, symSize: 0x6C0 }
  - { offsetInCU: 0x12290, offset: 0x745D2, size: 0x8, addend: 0x0, symName: __ZN4core5slice4sort6stable5drift4sort17h178a996c19cdced7E, symObjAddr: 0x76A0, symBinAddr: 0x1B0E0, symSize: 0x6C0 }
  - { offsetInCU: 0x12A95, offset: 0x74DD7, size: 0x8, addend: 0x0, symName: __ZN4core5slice4sort6stable5drift4sort17h3bc04abf75ca8a28E, symObjAddr: 0x7D60, symBinAddr: 0x1B7A0, symSize: 0x700 }
  - { offsetInCU: 0x132EA, offset: 0x7562C, size: 0x8, addend: 0x0, symName: __ZN4core5slice4sort6stable5drift4sort17h4d0d7298f6ebbf91E, symObjAddr: 0x8460, symBinAddr: 0x1BEA0, symSize: 0x6B0 }
  - { offsetInCU: 0x13AEF, offset: 0x75E31, size: 0x8, addend: 0x0, symName: __ZN4core5slice4sort6stable5drift4sort17h9eb579a7e11a429dE, symObjAddr: 0x8B10, symBinAddr: 0x1C550, symSize: 0x6F0 }
  - { offsetInCU: 0x1450D, offset: 0x7684F, size: 0x8, addend: 0x0, symName: __ZN4core5slice4sort6stable9quicksort9quicksort17h17dfc7d88980d1d4E, symObjAddr: 0x9200, symBinAddr: 0x1CC40, symSize: 0xBB0 }
  - { offsetInCU: 0x15C5E, offset: 0x77FA0, size: 0x8, addend: 0x0, symName: __ZN4core5slice4sort6stable9quicksort9quicksort17h38f12e856567aa96E, symObjAddr: 0x9DB0, symBinAddr: 0x1D7F0, symSize: 0xB20 }
  - { offsetInCU: 0x165D7, offset: 0x78919, size: 0x8, addend: 0x0, symName: __ZN4core5slice4sort6stable9quicksort9quicksort17h39128ce8a0799e8bE, symObjAddr: 0xA8D0, symBinAddr: 0x1E310, symSize: 0xD40 }
  - { offsetInCU: 0x173E5, offset: 0x79727, size: 0x8, addend: 0x0, symName: __ZN4core5slice4sort6stable9quicksort9quicksort17h3a28d19f02358dcaE, symObjAddr: 0xB610, symBinAddr: 0x1F050, symSize: 0xBF0 }
  - { offsetInCU: 0x1820D, offset: 0x7A54F, size: 0x8, addend: 0x0, symName: __ZN4core5slice4sort6stable9quicksort9quicksort17h8c087a1b45054228E, symObjAddr: 0xC200, symBinAddr: 0x1FC40, symSize: 0xC40 }
  - { offsetInCU: 0x19025, offset: 0x7B367, size: 0x8, addend: 0x0, symName: __ZN4core5slice4sort6stable9quicksort9quicksort17hc014ef5dc52f58bfE, symObjAddr: 0xCE40, symBinAddr: 0x20880, symSize: 0xB20 }
  - { offsetInCU: 0x19EBA, offset: 0x7C1FC, size: 0x8, addend: 0x0, symName: __ZN4core5slice4sort8unstable7ipnsort17h8289eeaf98734eb7E, symObjAddr: 0xD960, symBinAddr: 0x213A0, symSize: 0x1A0 }
  - { offsetInCU: 0x1A16F, offset: 0x7C4B1, size: 0x8, addend: 0x0, symName: __ZN4core5slice4sort8unstable7ipnsort17h8eb614293eee64e8E, symObjAddr: 0xDB00, symBinAddr: 0x21540, symSize: 0xF0 }
  - { offsetInCU: 0x1A310, offset: 0x7C652, size: 0x8, addend: 0x0, symName: __ZN4core5slice4sort8unstable8heapsort8heapsort17h521fb1d1e30789c6E, symObjAddr: 0xDBF0, symBinAddr: 0x21630, symSize: 0xE0 }
  - { offsetInCU: 0x1A429, offset: 0x7C76B, size: 0x8, addend: 0x0, symName: __ZN4core5slice4sort8unstable8heapsort8heapsort17h98b8ce9a74c50809E, symObjAddr: 0xDCD0, symBinAddr: 0x21710, symSize: 0xE0 }
  - { offsetInCU: 0x1A542, offset: 0x7C884, size: 0x8, addend: 0x0, symName: __ZN4core5slice4sort8unstable8heapsort9sift_down17h4191d8eebb1da157E, symObjAddr: 0xDDB0, symBinAddr: 0x217F0, symSize: 0x130 }
  - { offsetInCU: 0x1A716, offset: 0x7CA58, size: 0x8, addend: 0x0, symName: __ZN4core5slice4sort8unstable8heapsort9sift_down17h78e5b96021857d96E, symObjAddr: 0xDEE0, symBinAddr: 0x21920, symSize: 0xC0 }
  - { offsetInCU: 0x1A899, offset: 0x7CBDB, size: 0x8, addend: 0x0, symName: __ZN4core5slice4sort8unstable9quicksort9quicksort17hbb237c64d8c9a3ddE, symObjAddr: 0xDFA0, symBinAddr: 0x219E0, symSize: 0x770 }
  - { offsetInCU: 0x1B4CB, offset: 0x7D80D, size: 0x8, addend: 0x0, symName: __ZN4core5slice4sort8unstable9quicksort9quicksort17hfdd67d94a1025140E, symObjAddr: 0xE710, symBinAddr: 0x22150, symSize: 0x530 }
  - { offsetInCU: 0x1BDD9, offset: 0x7E11B, size: 0x8, addend: 0x0, symName: '__ZN36_$LT$T$u20$as$u20$core..any..Any$GT$7type_id17h184ba471db4c54d0E', symObjAddr: 0x230, symBinAddr: 0x160F0, symSize: 0x20 }
  - { offsetInCU: 0x1BDF3, offset: 0x7E135, size: 0x8, addend: 0x0, symName: '__ZN36_$LT$T$u20$as$u20$core..any..Any$GT$7type_id17he68ccb9035b6ad69E', symObjAddr: 0x250, symBinAddr: 0x16110, symSize: 0x20 }
  - { offsetInCU: 0x1BE0D, offset: 0x7E14F, size: 0x8, addend: 0x0, symName: '__ZN36_$LT$T$u20$as$u20$core..any..Any$GT$7type_id17hea58b14a7d4f43b6E', symObjAddr: 0x270, symBinAddr: 0x16130, symSize: 0x20 }
  - { offsetInCU: 0x1BE8F, offset: 0x7E1D1, size: 0x8, addend: 0x0, symName: '__ZN42_$LT$$RF$T$u20$as$u20$core..fmt..Debug$GT$3fmt17h047f9c6be51c5e85E', symObjAddr: 0x3D0, symBinAddr: 0x16150, symSize: 0x20 }
  - { offsetInCU: 0x1BECD, offset: 0x7E20F, size: 0x8, addend: 0x0, symName: '__ZN42_$LT$$RF$T$u20$as$u20$core..fmt..Debug$GT$3fmt17h313665a3a2873b42E', symObjAddr: 0x5F0, symBinAddr: 0x16170, symSize: 0x20 }
  - { offsetInCU: 0x1BEE1, offset: 0x7E223, size: 0x8, addend: 0x0, symName: '__ZN42_$LT$$RF$T$u20$as$u20$core..fmt..Debug$GT$3fmt17h8f2fa358bc7ded07E', symObjAddr: 0x7D0, symBinAddr: 0x16190, symSize: 0x30 }
  - { offsetInCU: 0x1BF7C, offset: 0x7E2BE, size: 0x8, addend: 0x0, symName: '__ZN4core3fmt3num50_$LT$impl$u20$core..fmt..Debug$u20$for$u20$i32$GT$3fmt17heb82f64e9c17302eE', symObjAddr: 0xD00, symBinAddr: 0x161F0, symSize: 0x30 }
  - { offsetInCU: 0x1BFBE, offset: 0x7E300, size: 0x8, addend: 0x0, symName: '__ZN44_$LT$$RF$T$u20$as$u20$core..fmt..Display$GT$3fmt17h2561f68ab83c0377E', symObjAddr: 0xC80, symBinAddr: 0x161C0, symSize: 0x20 }
  - { offsetInCU: 0x1BFD9, offset: 0x7E31B, size: 0x8, addend: 0x0, symName: '__ZN44_$LT$$RF$T$u20$as$u20$core..fmt..Display$GT$3fmt17ha96dd7b9b4ed7d15E', symObjAddr: 0xCA0, symBinAddr: 0x161E0, symSize: 0x10 }
  - { offsetInCU: 0x1C016, offset: 0x7E358, size: 0x8, addend: 0x0, symName: __ZN4core3fmt5Write10write_char17hc62b739fc03a608eE, symObjAddr: 0x11A0, symBinAddr: 0x16220, symSize: 0x190 }
  - { offsetInCU: 0x1C197, offset: 0x7E4D9, size: 0x8, addend: 0x0, symName: __ZN4core3fmt5Write10write_char17heee569dec9bacd55E, symObjAddr: 0x1330, symBinAddr: 0x163B0, symSize: 0x120 }
  - { offsetInCU: 0x1C2F4, offset: 0x7E636, size: 0x8, addend: 0x0, symName: __ZN4core3fmt5Write9write_fmt17h2bea56f24fec7a4bE, symObjAddr: 0x1450, symBinAddr: 0x164D0, symSize: 0x20 }
  - { offsetInCU: 0x1C323, offset: 0x7E665, size: 0x8, addend: 0x0, symName: __ZN4core3fmt5Write9write_fmt17h9365712ad13af8e8E, symObjAddr: 0x1490, symBinAddr: 0x164F0, symSize: 0x20 }
  - { offsetInCU: 0x1C352, offset: 0x7E694, size: 0x8, addend: 0x0, symName: __ZN4core3fmt5Write9write_fmt17h943e432088f4fc09E, symObjAddr: 0x14B0, symBinAddr: 0x16510, symSize: 0x20 }
  - { offsetInCU: 0x1C5F3, offset: 0x7E935, size: 0x8, addend: 0x0, symName: '__ZN50_$LT$$BP$mut$u20$T$u20$as$u20$core..fmt..Debug$GT$3fmt17h5e955294fdbade78E', symObjAddr: 0xED00, symBinAddr: 0x22680, symSize: 0x10 }
  - { offsetInCU: 0x1C63F, offset: 0x7E981, size: 0x8, addend: 0x0, symName: '__ZN52_$LT$$RF$mut$u20$T$u20$as$u20$core..fmt..Display$GT$3fmt17h247ac5682e66b671E', symObjAddr: 0xED80, symBinAddr: 0x22690, symSize: 0x20 }
  - { offsetInCU: 0x1C69F, offset: 0x7E9E1, size: 0x8, addend: 0x0, symName: '__ZN4core3str7pattern13simd_contains28_$u7b$$u7b$closure$u7d$$u7d$17h8c02b44b24d93ed4E', symObjAddr: 0x4460, symBinAddr: 0x53DF0, symSize: 0x100 }
  - { offsetInCU: 0x1C818, offset: 0x7EB5A, size: 0x8, addend: 0x0, symName: '__ZN55_$LT$$RF$str$u20$as$u20$core..str..pattern..Pattern$GT$15is_contained_in17h3b44ad7441fe57baE', symObjAddr: 0xEDA0, symBinAddr: 0x226B0, symSize: 0x8D0 }
  - { offsetInCU: 0x1F11B, offset: 0x8145D, size: 0x8, addend: 0x0, symName: __ZN4core3ops8function2Fn4call17ha7546dd805773db2E, symObjAddr: 0x1510, symBinAddr: 0x16530, symSize: 0x10 }
  - { offsetInCU: 0x1F13B, offset: 0x8147D, size: 0x8, addend: 0x0, symName: __ZN4core3ops8function5FnMut8call_mut17h0a198414f2ff5eaeE, symObjAddr: 0x1520, symBinAddr: 0x16540, symSize: 0x10 }
  - { offsetInCU: 0x1F182, offset: 0x814C4, size: 0x8, addend: 0x0, symName: '__ZN4core3ops8function6FnOnce40call_once$u7b$$u7b$vtable.shim$u7d$$u7d$17h15b016765ff1cfc5E', symObjAddr: 0x1660, symBinAddr: 0x16550, symSize: 0x90 }
  - { offsetInCU: 0x1F2B1, offset: 0x815F3, size: 0x8, addend: 0x0, symName: '__ZN4core3ops8function6FnOnce40call_once$u7b$$u7b$vtable.shim$u7d$$u7d$17h39fb7097ae91d54bE', symObjAddr: 0x16F0, symBinAddr: 0x165E0, symSize: 0x10 }
  - { offsetInCU: 0x1F2ED, offset: 0x8162F, size: 0x8, addend: 0x0, symName: '__ZN4core3ops8function6FnOnce40call_once$u7b$$u7b$vtable.shim$u7d$$u7d$17h447d49c1da186faeE', symObjAddr: 0x1700, symBinAddr: 0x165F0, symSize: 0x10 }
  - { offsetInCU: 0x1F329, offset: 0x8166B, size: 0x8, addend: 0x0, symName: '__ZN4core3ops8function6FnOnce40call_once$u7b$$u7b$vtable.shim$u7d$$u7d$17h4ac0425e41115653E', symObjAddr: 0x1710, symBinAddr: 0x16600, symSize: 0x10 }
  - { offsetInCU: 0x1F37A, offset: 0x816BC, size: 0x8, addend: 0x0, symName: '__ZN4core3ops8function6FnOnce40call_once$u7b$$u7b$vtable.shim$u7d$$u7d$17h4ae3820b72915fbeE', symObjAddr: 0x1720, symBinAddr: 0x16610, symSize: 0x10 }
  - { offsetInCU: 0x1F3CB, offset: 0x8170D, size: 0x8, addend: 0x0, symName: '__ZN4core3ops8function6FnOnce40call_once$u7b$$u7b$vtable.shim$u7d$$u7d$17hec53fca43a280050E', symObjAddr: 0x18C0, symBinAddr: 0x16620, symSize: 0x10 }
  - { offsetInCU: 0x216BE, offset: 0x83A00, size: 0x8, addend: 0x0, symName: '__ZN4core4cell4once17OnceCell$LT$T$GT$8try_init17h536a8ddd55b2cae3E', symObjAddr: 0x4560, symBinAddr: 0x53EF0, symSize: 0xB0 }
  - { offsetInCU: 0x2190F, offset: 0x83C51, size: 0x8, addend: 0x0, symName: '__ZN4core4cell4once17OnceCell$LT$T$GT$8try_init17hb10021f4e62dce0fE', symObjAddr: 0x4610, symBinAddr: 0x53FA0, symSize: 0x110 }
  - { offsetInCU: 0x21EF2, offset: 0x84234, size: 0x8, addend: 0x0, symName: __ZN4core5panic12PanicPayload6as_str17hbfaccbb001700041E, symObjAddr: 0x4890, symBinAddr: 0x182D0, symSize: 0x10 }
  - { offsetInCU: 0x21F79, offset: 0x842BB, size: 0x8, addend: 0x0, symName: __ZN4core9panicking13assert_failed17hdcf7e423a44907d6E, symObjAddr: 0xECC0, symBinAddr: 0x540B0, symSize: 0x40 }
  - { offsetInCU: 0x22386, offset: 0x846C8, size: 0x8, addend: 0x0, symName: '__ZN69_$LT$std..sys..os_str..bytes..Slice$u20$as$u20$core..fmt..Display$GT$3fmt17h93400a492944888cE', symObjAddr: 0x4DEB0, symBinAddr: 0x3C210, symSize: 0xC0 }
  - { offsetInCU: 0x22463, offset: 0x847A5, size: 0x8, addend: 0x0, symName: __ZN3std3sys3pal4unix2fs4File6open_c17h680a1c4b6c97ec3aE, symObjAddr: 0x45470, symBinAddr: 0x3B080, symSize: 0x140 }
  - { offsetInCU: 0x225FA, offset: 0x8493C, size: 0x8, addend: 0x0, symName: '__ZN91_$LT$std..sys..pal..unix..fs..ReadDir$u20$as$u20$core..iter..traits..iterator..Iterator$GT$4next17h7ffa4b4a612b0f58E', symObjAddr: 0x44F60, symBinAddr: 0x3AE50, symSize: 0x160 }
  - { offsetInCU: 0x22825, offset: 0x84B67, size: 0x8, addend: 0x0, symName: '__ZN70_$LT$std..sys..pal..unix..fs..Dir$u20$as$u20$core..ops..drop..Drop$GT$4drop17h3aeec0393da0e077E', symObjAddr: 0x450C0, symBinAddr: 0x3AFB0, symSize: 0xD0 }
  - { offsetInCU: 0x22941, offset: 0x84C83, size: 0x8, addend: 0x0, symName: __ZN3std3sys3pal4unix2fs7readdir17h779363e783ca7cbfE, symObjAddr: 0x45CA0, symBinAddr: 0x3B1C0, symSize: 0x210 }
  - { offsetInCU: 0x22C0F, offset: 0x84F51, size: 0x8, addend: 0x0, symName: __ZN3std3sys3pal4unix2os13env_read_lock17h21742e63e7e1308cE, symObjAddr: 0x484B0, symBinAddr: 0x3B3D0, symSize: 0x300 }
  - { offsetInCU: 0x232E8, offset: 0x8562A, size: 0x8, addend: 0x0, symName: '__ZN3std3sys3pal4unix2os6getenv28_$u7b$$u7b$closure$u7d$$u7d$17hb68080675aebde0eE', symObjAddr: 0x487B0, symBinAddr: 0x3B6D0, symSize: 0x120 }
  - { offsetInCU: 0x23507, offset: 0x85849, size: 0x8, addend: 0x0, symName: '__ZN69_$LT$std..sys..pal..unix..stdio..Stderr$u20$as$u20$std..io..Write$GT$5write17hd79d0a718695b2fcE', symObjAddr: 0x4BC30, symBinAddr: 0x3B7F0, symSize: 0x50 }
  - { offsetInCU: 0x235E2, offset: 0x85924, size: 0x8, addend: 0x0, symName: '__ZN69_$LT$std..sys..pal..unix..stdio..Stderr$u20$as$u20$std..io..Write$GT$14write_vectored17h0e573d7857415587E', symObjAddr: 0x4BC80, symBinAddr: 0x3B840, symSize: 0x50 }
  - { offsetInCU: 0x236BD, offset: 0x859FF, size: 0x8, addend: 0x0, symName: '__ZN69_$LT$std..sys..pal..unix..stdio..Stderr$u20$as$u20$std..io..Write$GT$17is_write_vectored17h7ade31aa359392fdE', symObjAddr: 0x4BCD0, symBinAddr: 0x3B890, symSize: 0x10 }
  - { offsetInCU: 0x236D7, offset: 0x85A19, size: 0x8, addend: 0x0, symName: '__ZN69_$LT$std..sys..pal..unix..stdio..Stderr$u20$as$u20$std..io..Write$GT$5flush17h4944c9debd66ac59E', symObjAddr: 0x4BCE0, symBinAddr: 0x3B8A0, symSize: 0x10 }
  - { offsetInCU: 0x2370A, offset: 0x85A4C, size: 0x8, addend: 0x0, symName: __ZN3std3sys3pal4unix4time8Timespec3now17h9f45a544838c5dd0E, symObjAddr: 0x4C1E0, symBinAddr: 0x3B8B0, symSize: 0x100 }
  - { offsetInCU: 0x237C1, offset: 0x85B03, size: 0x8, addend: 0x0, symName: __ZN3std3sys3pal4unix4time8Timespec12sub_timespec17h3f44d844faeb23e8E, symObjAddr: 0x4C2E0, symBinAddr: 0x3B9B0, symSize: 0x100 }
  - { offsetInCU: 0x239A8, offset: 0x85CEA, size: 0x8, addend: 0x0, symName: __ZN3std3sys3pal4unix17decode_error_kind17hca6dfe301ffbd472E, symObjAddr: 0x4C460, symBinAddr: 0x3BAB0, symSize: 0x20 }
  - { offsetInCU: 0x239C2, offset: 0x85D04, size: 0x8, addend: 0x0, symName: __ZN3std3sys3pal4unix14abort_internal17h9ba9b9d4ccbedc59E, symObjAddr: 0x4C480, symBinAddr: 0x3BAD0, symSize: 0x10 }
  - { offsetInCU: 0x23A37, offset: 0x85D79, size: 0x8, addend: 0x0, symName: __ZN3std3sys3pal6common14small_c_string24run_with_cstr_allocating17ha6a88a73d3a351a6E, symObjAddr: 0x3F360, symBinAddr: 0x54420, symSize: 0x90 }
  - { offsetInCU: 0x23B96, offset: 0x85ED8, size: 0x8, addend: 0x0, symName: __ZN3std3sys3pal6common14small_c_string24run_with_cstr_allocating17hb54c3f813841d045E, symObjAddr: 0x3F4B0, symBinAddr: 0x544B0, symSize: 0xC0 }
  - { offsetInCU: 0x23D61, offset: 0x860A3, size: 0x8, addend: 0x0, symName: __ZN3std3sys3pal6common14small_c_string24run_with_cstr_allocating17hfa63a9da6940b7b3E, symObjAddr: 0x3F780, symBinAddr: 0x54570, symSize: 0x90 }
  - { offsetInCU: 0x23F14, offset: 0x86256, size: 0x8, addend: 0x0, symName: '__ZN3std3sys9backtrace10_print_fmt28_$u7b$$u7b$closure$u7d$$u7d$17h5af150375511fa5eE', symObjAddr: 0x3FB20, symBinAddr: 0x38020, symSize: 0x20 }
  - { offsetInCU: 0x23F3C, offset: 0x8627E, size: 0x8, addend: 0x0, symName: '__ZN3std3sys9backtrace10_print_fmt28_$u7b$$u7b$closure$u7d$$u7d$17h7848036c8a3af0afE', symObjAddr: 0x3FB40, symBinAddr: 0x38040, symSize: 0x140 }
  - { offsetInCU: 0x2403C, offset: 0x8637E, size: 0x8, addend: 0x0, symName: '__ZN3std3sys9backtrace10_print_fmt28_$u7b$$u7b$closure$u7d$$u7d$28_$u7b$$u7b$closure$u7d$$u7d$17h36c78f4df4cd5998E', symObjAddr: 0x3FC80, symBinAddr: 0x38180, symSize: 0x2A0 }
  - { offsetInCU: 0x24259, offset: 0x8659B, size: 0x8, addend: 0x0, symName: '__ZN98_$LT$std..sys..backtrace..BacktraceLock..print..DisplayBacktrace$u20$as$u20$core..fmt..Display$GT$3fmt17hc3f376aae1e435b9E', symObjAddr: 0x3F890, symBinAddr: 0x37D90, symSize: 0x290 }
  - { offsetInCU: 0x247D8, offset: 0x86B1A, size: 0x8, addend: 0x0, symName: __ZN3std3sys9backtrace26__rust_end_short_backtrace17hc94f023d9f9c8404E, symObjAddr: 0x3FF20, symBinAddr: 0x38420, symSize: 0x10 }
  - { offsetInCU: 0x247F2, offset: 0x86B34, size: 0x8, addend: 0x0, symName: __ZN3std3sys9backtrace15output_filename17hba316d0cc1ea74d3E, symObjAddr: 0x3FF30, symBinAddr: 0x38430, symSize: 0x110 }
  - { offsetInCU: 0x24987, offset: 0x86CC9, size: 0x8, addend: 0x0, symName: '__ZN3std3sys11personality3gcc14find_eh_action28_$u7b$$u7b$closure$u7d$$u7d$17hf8fd2767c69281caE', symObjAddr: 0x4D710, symBinAddr: 0x3BAE0, symSize: 0x10 }
  - { offsetInCU: 0x2499B, offset: 0x86CDD, size: 0x8, addend: 0x0, symName: '__ZN3std3sys11personality3gcc14find_eh_action28_$u7b$$u7b$closure$u7d$$u7d$17h0744ab787f9436b8E', symObjAddr: 0x4D720, symBinAddr: 0x3BAF0, symSize: 0x10 }
  - { offsetInCU: 0x249CB, offset: 0x86D0D, size: 0x8, addend: 0x0, symName: _rust_eh_personality, symObjAddr: 0x4D730, symBinAddr: 0x3BB00, symSize: 0x710 }
  - { offsetInCU: 0x25635, offset: 0x87977, size: 0x8, addend: 0x0, symName: '__ZN102_$LT$std..sys..sync..mutex..pthread..AllocatedMutex$u20$as$u20$std..sys_common..lazy_box..LazyInit$GT$4init17hfba07cb481996d20E', symObjAddr: 0x4E9A0, symBinAddr: 0x3C2D0, symSize: 0x210 }
  - { offsetInCU: 0x257A4, offset: 0x87AE6, size: 0x8, addend: 0x0, symName: __ZN3std3sys4sync5mutex7pthread5Mutex4lock4fail17h7ac4622fd4e8cb04E, symObjAddr: 0x4EC30, symBinAddr: 0x546B0, symSize: 0x100 }
  - { offsetInCU: 0x25AEF, offset: 0x87E31, size: 0x8, addend: 0x0, symName: __ZN3std3sys4sync6rwlock5queue6RwLock21read_unlock_contended17h59e53ad66695c6b5E, symObjAddr: 0x4F900, symBinAddr: 0x54920, symSize: 0x70 }
  - { offsetInCU: 0x25CF3, offset: 0x88035, size: 0x8, addend: 0x0, symName: __ZN3std3sys4sync6rwlock5queue6RwLock12unlock_queue17hedf3d29f10cd8d44E, symObjAddr: 0x4F9B0, symBinAddr: 0x3C700, symSize: 0x160 }
  - { offsetInCU: 0x264A0, offset: 0x887E2, size: 0x8, addend: 0x0, symName: __ZN3std3sys4sync4once5queue4Once4call17he538198c92e6ccb1E, symObjAddr: 0x4F280, symBinAddr: 0x547B0, symSize: 0x170 }
  - { offsetInCU: 0x265C4, offset: 0x88906, size: 0x8, addend: 0x0, symName: __ZN3std3sys4sync4once5queue4wait17hbd39365221adcd4dE, symObjAddr: 0x4F3F0, symBinAddr: 0x3C4E0, symSize: 0x160 }
  - { offsetInCU: 0x26ABA, offset: 0x88DFC, size: 0x8, addend: 0x0, symName: '__ZN82_$LT$std..sys..sync..once..queue..WaiterQueue$u20$as$u20$core..ops..drop..Drop$GT$4drop17h478a37d085131f6bE', symObjAddr: 0x4F550, symBinAddr: 0x3C640, symSize: 0xC0 }
  - { offsetInCU: 0x26CB4, offset: 0x88FF6, size: 0x8, addend: 0x0, symName: __ZN3std3sys12thread_local6native5eager7destroy17h485d936b499b4e17E, symObjAddr: 0x4FB40, symBinAddr: 0x3C860, symSize: 0x20 }
  - { offsetInCU: 0x26E2D, offset: 0x8916F, size: 0x8, addend: 0x0, symName: '__ZN3std3sys12thread_local6native4lazy20Storage$LT$T$C$D$GT$10initialize17h14698013dabe1c01E', symObjAddr: 0x4FB60, symBinAddr: 0x54990, symSize: 0xB0 }
  - { offsetInCU: 0x2700F, offset: 0x89351, size: 0x8, addend: 0x0, symName: __ZN3std3sys12thread_local6native4lazy7destroy17h6190230ba13c2901E, symObjAddr: 0x4FC10, symBinAddr: 0x3C880, symSize: 0x50 }
  - { offsetInCU: 0x27167, offset: 0x894A9, size: 0x8, addend: 0x0, symName: __ZN3std3sys12thread_local11destructors4list8register17h63ec4e86be6715bfE, symObjAddr: 0x4FC60, symBinAddr: 0x3C8D0, symSize: 0x110 }
  - { offsetInCU: 0x27468, offset: 0x897AA, size: 0x8, addend: 0x0, symName: __ZN3std3sys12thread_local5guard5apple6enable9run_dtors17hd397a92a14fe0143E, symObjAddr: 0x4FD70, symBinAddr: 0x3C9E0, symSize: 0xF0 }
  - { offsetInCU: 0x2788D, offset: 0x89BCF, size: 0x8, addend: 0x0, symName: '__ZN3std3ffi6os_str95_$LT$impl$u20$core..convert..TryFrom$LT$$RF$std..ffi..os_str..OsStr$GT$$u20$for$u20$$RF$str$GT$8try_from17h6591310f80a69c39E', symObjAddr: 0x2AB90, symBinAddr: 0x35170, symSize: 0x0 }
  - { offsetInCU: 0x2798D, offset: 0x89CCF, size: 0x8, addend: 0x0, symName: __ZN3std7process5abort17hc2693c6b767a9c9dE, symObjAddr: 0x3D640, symBinAddr: 0x54410, symSize: 0x10 }
  - { offsetInCU: 0x27A1B, offset: 0x89D5D, size: 0x8, addend: 0x0, symName: __ZN3std4path4Path13_strip_prefix17h2cdcd3c56da06425E, symObjAddr: 0x3ADA0, symBinAddr: 0x37560, symSize: 0x3A0 }
  - { offsetInCU: 0x27B5B, offset: 0x89E9D, size: 0x8, addend: 0x0, symName: __ZN3std4path4Path5_join17h637193701031f95bE, symObjAddr: 0x3B8C0, symBinAddr: 0x37900, symSize: 0x190 }
  - { offsetInCU: 0x28116, offset: 0x8A458, size: 0x8, addend: 0x0, symName: __ZN3std4path10Components15len_before_body17h7a6b4ae86b058316E, symObjAddr: 0x38F30, symBinAddr: 0x36580, symSize: 0x170 }
  - { offsetInCU: 0x28355, offset: 0x8A697, size: 0x8, addend: 0x0, symName: __ZN3std4path10Components7as_path17h9e4b2fea02661f8aE, symObjAddr: 0x390A0, symBinAddr: 0x366F0, symSize: 0x5C0 }
  - { offsetInCU: 0x288E2, offset: 0x8AC24, size: 0x8, addend: 0x0, symName: __ZN3std4path10Components25parse_next_component_back17h34a9ec6b1e426824E, symObjAddr: 0x39660, symBinAddr: 0x36CB0, symSize: 0xE0 }
  - { offsetInCU: 0x28B17, offset: 0x8AE59, size: 0x8, addend: 0x0, symName: '__ZN80_$LT$std..path..Components$u20$as$u20$core..iter..traits..iterator..Iterator$GT$4next17h1a34bd8be3084bcbE', symObjAddr: 0x398F0, symBinAddr: 0x36D90, symSize: 0x3D0 }
  - { offsetInCU: 0x28F2A, offset: 0x8B26C, size: 0x8, addend: 0x0, symName: '__ZN95_$LT$std..path..Components$u20$as$u20$core..iter..traits..double_ended..DoubleEndedIterator$GT$9next_back17hd191a237154dece0E', symObjAddr: 0x39CC0, symBinAddr: 0x37160, symSize: 0x400 }
  - { offsetInCU: 0x29152, offset: 0x8B494, size: 0x8, addend: 0x0, symName: '__ZN61_$LT$std..path..Component$u20$as$u20$core..cmp..PartialEq$GT$2eq17h27e8d4086dd3d1bcE', symObjAddr: 0x44380, symBinAddr: 0x3AD70, symSize: 0xE0 }
  - { offsetInCU: 0x29236, offset: 0x8B578, size: 0x8, addend: 0x0, symName: '__ZN80_$LT$std..io..Write..write_fmt..Adapter$LT$T$GT$$u20$as$u20$core..fmt..Write$GT$9write_str17h2edc6ecfbde6812eE', symObjAddr: 0x344C0, symBinAddr: 0x36350, symSize: 0xD0 }
  - { offsetInCU: 0x2936B, offset: 0x8B6AD, size: 0x8, addend: 0x0, symName: '__ZN80_$LT$std..io..Write..write_fmt..Adapter$LT$T$GT$$u20$as$u20$core..fmt..Write$GT$9write_str17h58072d2916356e77E', symObjAddr: 0x345E0, symBinAddr: 0x36420, symSize: 0x60 }
  - { offsetInCU: 0x29459, offset: 0x8B79B, size: 0x8, addend: 0x0, symName: __ZN3std2io5Write9write_all17h99e16d9455f1e85aE, symObjAddr: 0x33CD0, symBinAddr: 0x35B60, symSize: 0xA0 }
  - { offsetInCU: 0x29573, offset: 0x8B8B5, size: 0x8, addend: 0x0, symName: __ZN3std2io5Write18write_all_vectored17h2e073031db3e7590E, symObjAddr: 0x33D70, symBinAddr: 0x35C00, symSize: 0x2F0 }
  - { offsetInCU: 0x2998F, offset: 0x8BCD1, size: 0x8, addend: 0x0, symName: __ZN3std2io5Write18write_all_vectored17h4e8162142fc9794dE, symObjAddr: 0x34060, symBinAddr: 0x35EF0, symSize: 0x1E0 }
  - { offsetInCU: 0x29C59, offset: 0x8BF9B, size: 0x8, addend: 0x0, symName: __ZN3std2io5Write9write_fmt17h8b96bffba1d3be2fE, symObjAddr: 0x34240, symBinAddr: 0x360D0, symSize: 0x140 }
  - { offsetInCU: 0x29EF7, offset: 0x8C239, size: 0x8, addend: 0x0, symName: __ZN3std2io5Write9write_fmt17hd7eb5710a004e76bE, symObjAddr: 0x34380, symBinAddr: 0x36210, symSize: 0x140 }
  - { offsetInCU: 0x2A326, offset: 0x8C668, size: 0x8, addend: 0x0, symName: '__ZN58_$LT$std..io..error..Error$u20$as$u20$core..fmt..Debug$GT$3fmt17he1d6dfe91335ec19E', symObjAddr: 0x2DC60, symBinAddr: 0x35380, symSize: 0x10 }
  - { offsetInCU: 0x2A359, offset: 0x8C69B, size: 0x8, addend: 0x0, symName: '__ZN3std2io5error83_$LT$impl$u20$core..fmt..Debug$u20$for$u20$std..io..error..repr_bitpacked..Repr$GT$3fmt17h4788b333410ed3b2E', symObjAddr: 0x2DF10, symBinAddr: 0x35390, symSize: 0x300 }
  - { offsetInCU: 0x2A586, offset: 0x8C8C8, size: 0x8, addend: 0x0, symName: '__ZN60_$LT$std..io..error..Error$u20$as$u20$core..fmt..Display$GT$3fmt17h4ac84df70a7b82f8E', symObjAddr: 0x2E210, symBinAddr: 0x35690, symSize: 0x290 }
  - { offsetInCU: 0x2A7C5, offset: 0x8CB07, size: 0x8, addend: 0x0, symName: '__ZN62_$LT$std..io..error..ErrorKind$u20$as$u20$core..fmt..Debug$GT$3fmt17hc67082adc7abff3dE', symObjAddr: 0x44350, symBinAddr: 0x3AD40, symSize: 0x30 }
  - { offsetInCU: 0x2A7F9, offset: 0x8CB3B, size: 0x8, addend: 0x0, symName: '__ZN3std2io5impls74_$LT$impl$u20$std..io..Write$u20$for$u20$alloc..vec..Vec$LT$u8$C$A$GT$$GT$5write17h94a30090f7919c02E', symObjAddr: 0x2E590, symBinAddr: 0x35920, symSize: 0x60 }
  - { offsetInCU: 0x2A8D0, offset: 0x8CC12, size: 0x8, addend: 0x0, symName: '__ZN3std2io5impls74_$LT$impl$u20$std..io..Write$u20$for$u20$alloc..vec..Vec$LT$u8$C$A$GT$$GT$14write_vectored17h38b57fd2e05e304aE', symObjAddr: 0x2E5F0, symBinAddr: 0x35980, symSize: 0x160 }
  - { offsetInCU: 0x2A919, offset: 0x8CC5B, size: 0x8, addend: 0x0, symName: '__ZN3std2io5impls74_$LT$impl$u20$std..io..Write$u20$for$u20$alloc..vec..Vec$LT$u8$C$A$GT$$GT$14write_vectored17h38b57fd2e05e304aE', symObjAddr: 0x2E5F0, symBinAddr: 0x35980, symSize: 0x160 }
  - { offsetInCU: 0x2AACC, offset: 0x8CE0E, size: 0x8, addend: 0x0, symName: '__ZN3std2io5impls74_$LT$impl$u20$std..io..Write$u20$for$u20$alloc..vec..Vec$LT$u8$C$A$GT$$GT$17is_write_vectored17hbe3a42e190f0f94dE', symObjAddr: 0x2E750, symBinAddr: 0x35AE0, symSize: 0x10 }
  - { offsetInCU: 0x2AAE7, offset: 0x8CE29, size: 0x8, addend: 0x0, symName: '__ZN3std2io5impls74_$LT$impl$u20$std..io..Write$u20$for$u20$alloc..vec..Vec$LT$u8$C$A$GT$$GT$9write_all17hbabe835b5d4809f7E', symObjAddr: 0x2E760, symBinAddr: 0x35AF0, symSize: 0x60 }
  - { offsetInCU: 0x2ABB7, offset: 0x8CEF9, size: 0x8, addend: 0x0, symName: '__ZN3std2io5impls74_$LT$impl$u20$std..io..Write$u20$for$u20$alloc..vec..Vec$LT$u8$C$A$GT$$GT$5flush17h17fee1c2e23db30aE', symObjAddr: 0x2E7C0, symBinAddr: 0x35B50, symSize: 0x10 }
  - { offsetInCU: 0x2ADA2, offset: 0x8D0E4, size: 0x8, addend: 0x0, symName: '__ZN3std4sync6rwlock15RwLock$LT$T$GT$5write17heaa3fe5605b10f6fE', symObjAddr: 0x3E860, symBinAddr: 0x37A90, symSize: 0x2B0 }
  - { offsetInCU: 0x2B5B4, offset: 0x8D8F6, size: 0x8, addend: 0x0, symName: __ZN3std9panicking11panic_count17is_zero_slow_path17h56102c4de0497dbbE, symObjAddr: 0x426E0, symBinAddr: 0x54650, symSize: 0x20 }
  - { offsetInCU: 0x2B64F, offset: 0x8D991, size: 0x8, addend: 0x0, symName: __ZN3std9panicking3try7cleanup17hc468c0d0bdf2efbfE, symObjAddr: 0x42700, symBinAddr: 0x54670, symSize: 0x40 }
  - { offsetInCU: 0x2B761, offset: 0x8DAA3, size: 0x8, addend: 0x0, symName: ___rust_drop_panic, symObjAddr: 0x418C0, symBinAddr: 0x387C0, symSize: 0xD0 }
  - { offsetInCU: 0x2B9A4, offset: 0x8DCE6, size: 0x8, addend: 0x0, symName: ___rust_foreign_exception, symObjAddr: 0x41990, symBinAddr: 0x38890, symSize: 0xD0 }
  - { offsetInCU: 0x2BBF5, offset: 0x8DF37, size: 0x8, addend: 0x0, symName: __ZN3std9panicking8set_hook17hd062e6707c0d1c04E, symObjAddr: 0x41A60, symBinAddr: 0x38960, symSize: 0x1B0 }
  - { offsetInCU: 0x2BF75, offset: 0x8E2B7, size: 0x8, addend: 0x0, symName: __ZN3std9panicking9take_hook17h872dd283e7ece935E, symObjAddr: 0x41C10, symBinAddr: 0x38B10, symSize: 0x150 }
  - { offsetInCU: 0x2C221, offset: 0x8E563, size: 0x8, addend: 0x0, symName: '__ZN3std9panicking12default_hook28_$u7b$$u7b$closure$u7d$$u7d$17ha1110e62c540acf1E', symObjAddr: 0x42210, symBinAddr: 0x39110, symSize: 0x410 }
  - { offsetInCU: 0x2CA76, offset: 0x8EDB8, size: 0x8, addend: 0x0, symName: __ZN3std9panicking12default_hook17h38beedc244b2f33fE, symObjAddr: 0x41D60, symBinAddr: 0x38C60, symSize: 0x4B0 }
  - { offsetInCU: 0x2D84D, offset: 0x8FB8F, size: 0x8, addend: 0x0, symName: _rust_begin_unwind, symObjAddr: 0x42740, symBinAddr: 0x39520, symSize: 0x50 }
  - { offsetInCU: 0x2D8B6, offset: 0x8FBF8, size: 0x8, addend: 0x0, symName: '__ZN102_$LT$std..panicking..begin_panic_handler..FormatStringPayload$u20$as$u20$core..panic..PanicPayload$GT$8take_box17h792c18fb9672bc70E', symObjAddr: 0x42790, symBinAddr: 0x39570, symSize: 0x150 }
  - { offsetInCU: 0x2DB4A, offset: 0x8FE8C, size: 0x8, addend: 0x0, symName: '__ZN102_$LT$std..panicking..begin_panic_handler..FormatStringPayload$u20$as$u20$core..panic..PanicPayload$GT$3get17hc64129965c6e3f89E', symObjAddr: 0x428E0, symBinAddr: 0x396C0, symSize: 0xD0 }
  - { offsetInCU: 0x2DC72, offset: 0x8FFB4, size: 0x8, addend: 0x0, symName: '__ZN95_$LT$std..panicking..begin_panic_handler..FormatStringPayload$u20$as$u20$core..fmt..Display$GT$3fmt17h95ccb363af43619fE', symObjAddr: 0x429B0, symBinAddr: 0x39790, symSize: 0x70 }
  - { offsetInCU: 0x2DD2B, offset: 0x9006D, size: 0x8, addend: 0x0, symName: '__ZN99_$LT$std..panicking..begin_panic_handler..StaticStrPayload$u20$as$u20$core..panic..PanicPayload$GT$8take_box17h1610e0deea676a22E', symObjAddr: 0x42A20, symBinAddr: 0x39800, symSize: 0x50 }
  - { offsetInCU: 0x2DDB7, offset: 0x900F9, size: 0x8, addend: 0x0, symName: '__ZN99_$LT$std..panicking..begin_panic_handler..StaticStrPayload$u20$as$u20$core..panic..PanicPayload$GT$3get17h2ea46f94062eaaabE', symObjAddr: 0x42A70, symBinAddr: 0x39850, symSize: 0x10 }
  - { offsetInCU: 0x2DDD2, offset: 0x90114, size: 0x8, addend: 0x0, symName: '__ZN99_$LT$std..panicking..begin_panic_handler..StaticStrPayload$u20$as$u20$core..panic..PanicPayload$GT$6as_str17hf9f0880f33b38064E', symObjAddr: 0x42A80, symBinAddr: 0x39860, symSize: 0x10 }
  - { offsetInCU: 0x2DDF3, offset: 0x90135, size: 0x8, addend: 0x0, symName: '__ZN92_$LT$std..panicking..begin_panic_handler..StaticStrPayload$u20$as$u20$core..fmt..Display$GT$3fmt17h238672ad02fd2f21E', symObjAddr: 0x42A90, symBinAddr: 0x39870, symSize: 0x20 }
  - { offsetInCU: 0x2DE0F, offset: 0x90151, size: 0x8, addend: 0x0, symName: '__ZN3std9panicking19begin_panic_handler28_$u7b$$u7b$closure$u7d$$u7d$17h05caf8582ad47024E', symObjAddr: 0x42AB0, symBinAddr: 0x39890, symSize: 0xD0 }
  - { offsetInCU: 0x2DF50, offset: 0x90292, size: 0x8, addend: 0x0, symName: __ZN3std9panicking20rust_panic_with_hook17h476dee14babd971bE, symObjAddr: 0x42C10, symBinAddr: 0x39960, symSize: 0x9F0 }
  - { offsetInCU: 0x2F6E2, offset: 0x91A24, size: 0x8, addend: 0x0, symName: __ZN3std9panicking23rust_panic_without_hook17h579ff456134d4b74E, symObjAddr: 0x43600, symBinAddr: 0x3A350, symSize: 0xB0 }
  - { offsetInCU: 0x2F8EF, offset: 0x91C31, size: 0x8, addend: 0x0, symName: '__ZN96_$LT$std..panicking..rust_panic_without_hook..RewrapBox$u20$as$u20$core..panic..PanicPayload$GT$8take_box17h3793a8fc0862ebb3E', symObjAddr: 0x436B0, symBinAddr: 0x3A400, symSize: 0x20 }
  - { offsetInCU: 0x2F94B, offset: 0x91C8D, size: 0x8, addend: 0x0, symName: '__ZN96_$LT$std..panicking..rust_panic_without_hook..RewrapBox$u20$as$u20$core..panic..PanicPayload$GT$3get17hbda62da0c271633bE', symObjAddr: 0x436D0, symBinAddr: 0x3A420, symSize: 0x10 }
  - { offsetInCU: 0x2F96C, offset: 0x91CAE, size: 0x8, addend: 0x0, symName: '__ZN89_$LT$std..panicking..rust_panic_without_hook..RewrapBox$u20$as$u20$core..fmt..Display$GT$3fmt17h6d162f6ff98fee5dE', symObjAddr: 0x436E0, symBinAddr: 0x3A430, symSize: 0x20 }
  - { offsetInCU: 0x2F989, offset: 0x91CCB, size: 0x8, addend: 0x0, symName: _rust_panic, symObjAddr: 0x43700, symBinAddr: 0x3A450, symSize: 0x70 }
  - { offsetInCU: 0x2FA0C, offset: 0x91D4E, size: 0x8, addend: 0x0, symName: __ZN3std6thread6Thread9new_inner17hc776e1c7db6dac42E, symObjAddr: 0x27A30, symBinAddr: 0x34CD0, symSize: 0x150 }
  - { offsetInCU: 0x2FE37, offset: 0x92179, size: 0x8, addend: 0x0, symName: '__ZN68_$LT$std..thread..local..AccessError$u20$as$u20$core..fmt..Debug$GT$3fmt17hfb051a81097c01deE', symObjAddr: 0x27080, symBinAddr: 0x34BA0, symSize: 0x30 }
  - { offsetInCU: 0x2FEAA, offset: 0x921EC, size: 0x8, addend: 0x0, symName: __ZN3std6thread4park17hac627a69a2c0603dE, symObjAddr: 0x27610, symBinAddr: 0x34BD0, symSize: 0x100 }
  - { offsetInCU: 0x3021B, offset: 0x9255D, size: 0x8, addend: 0x0, symName: __ZN3std6thread8ThreadId3new9exhausted17hee7d68b6e81e2237E, symObjAddr: 0x27890, symBinAddr: 0x543C0, symSize: 0x50 }
  - { offsetInCU: 0x3030C, offset: 0x9264E, size: 0x8, addend: 0x0, symName: '__ZN3std10sys_common8lazy_box16LazyBox$LT$T$GT$10initialize17h68cb83bd50c56600E', symObjAddr: 0x40360, symBinAddr: 0x54600, symSize: 0x50 }
  - { offsetInCU: 0x304D3, offset: 0x92815, size: 0x8, addend: 0x0, symName: __ZN3std12backtrace_rs9symbolize5gimli7Context3new17ha1962ce590ad2924E, symObjAddr: 0x510B0, symBinAddr: 0x3CB50, symSize: 0x3420 }
  - { offsetInCU: 0x3456C, offset: 0x968AE, size: 0x8, addend: 0x0, symName: __ZN3std12backtrace_rs9symbolize5gimli7Context11find_frames17h7658aa0e29db52d5E, symObjAddr: 0x544D0, symBinAddr: 0x3FF70, symSize: 0x3F0 }
  - { offsetInCU: 0x3499E, offset: 0x96CE0, size: 0x8, addend: 0x0, symName: __ZN3std12backtrace_rs9symbolize5gimli5macho6Object5parse17h78b3cd8af98e2ca0E, symObjAddr: 0x57A70, symBinAddr: 0x434E0, symSize: 0x1090 }
  - { offsetInCU: 0x366A2, offset: 0x989E4, size: 0x8, addend: 0x0, symName: __ZN3std12backtrace_rs9symbolize5gimli5macho6Object7section17h2252defa69affb04E, symObjAddr: 0x58B00, symBinAddr: 0x44570, symSize: 0x19A }
  - { offsetInCU: 0x36A09, offset: 0x98D4B, size: 0x8, addend: 0x0, symName: __ZN3std12backtrace_rs9symbolize5gimli5macho11find_header17hf7d4993c22952055E, symObjAddr: 0x578E0, symBinAddr: 0x43350, symSize: 0x190 }
  - { offsetInCU: 0x37219, offset: 0x9955B, size: 0x8, addend: 0x0, symName: __ZN3std12backtrace_rs9symbolize5gimli4mmap17hd480a54e9faf1969E, symObjAddr: 0x548C0, symBinAddr: 0x40360, symSize: 0x1A0 }
  - { offsetInCU: 0x377F9, offset: 0x99B3B, size: 0x8, addend: 0x0, symName: __ZN3std12backtrace_rs9symbolize5gimli7resolve17h96a5664b21f7a158E, symObjAddr: 0x54A60, symBinAddr: 0x40500, symSize: 0x2E50 }
  - { offsetInCU: 0x3D3EF, offset: 0x9F731, size: 0x8, addend: 0x0, symName: __ZN3std12backtrace_rs9symbolize6Symbol4name17haa9b2560df004d25E, symObjAddr: 0x43840, symBinAddr: 0x3A4C0, symSize: 0x110 }
  - { offsetInCU: 0x3D4B0, offset: 0x9F7F2, size: 0x8, addend: 0x0, symName: '__ZN79_$LT$std..backtrace_rs..symbolize..SymbolName$u20$as$u20$core..fmt..Display$GT$3fmt17h00ae6702a7d6284fE', symObjAddr: 0x43A80, symBinAddr: 0x3A5D0, symSize: 0xE0 }
  - { offsetInCU: 0x3D5DB, offset: 0x9F91D, size: 0x8, addend: 0x0, symName: __ZN3std12backtrace_rs9backtrace9libunwind5trace8trace_fn17h86c77dfc4cf1f602E, symObjAddr: 0x51070, symBinAddr: 0x3CB10, symSize: 0x40 }
  - { offsetInCU: 0x3D6BA, offset: 0x9F9FC, size: 0x8, addend: 0x0, symName: __ZN3std12backtrace_rs5print17BacktraceFrameFmt21print_raw_with_column17h9782bac7179e68beE, symObjAddr: 0x43C40, symBinAddr: 0x3A6B0, symSize: 0x690 }
  - { offsetInCU: 0x3D901, offset: 0x9FC43, size: 0x8, addend: 0x0, symName: __ZN3std5panic13resume_unwind17ha4764977f44f3a6aE, symObjAddr: 0x38C70, symBinAddr: 0x36480, symSize: 0x10 }
  - { offsetInCU: 0x3D94C, offset: 0x9FC8E, size: 0x8, addend: 0x0, symName: __ZN3std5panic19get_backtrace_style17hb7397f3e46331c67E, symObjAddr: 0x38CB0, symBinAddr: 0x36490, symSize: 0xF0 }
  - { offsetInCU: 0x3DCE8, offset: 0xA002A, size: 0x8, addend: 0x0, symName: __ZN3std4time10SystemTime3now17ha582e5bc5a02687fE, symObjAddr: 0x3EE20, symBinAddr: 0x37D40, symSize: 0x10 }
  - { offsetInCU: 0x3DD11, offset: 0xA0053, size: 0x8, addend: 0x0, symName: __ZN3std4time10SystemTime14duration_since17h0b4daa36d3cc621dE, symObjAddr: 0x3EE30, symBinAddr: 0x37D50, symSize: 0x40 }
  - { offsetInCU: 0x3DD72, offset: 0xA00B4, size: 0x8, addend: 0x0, symName: __ZN3std3env11current_dir17he251f845082cc5ddE, symObjAddr: 0x29060, symBinAddr: 0x34E20, symSize: 0x1F0 }
  - { offsetInCU: 0x3E0D9, offset: 0xA041B, size: 0x8, addend: 0x0, symName: __ZN3std3env7_var_os17he4d73c2dfeb06a82E, symObjAddr: 0x29A20, symBinAddr: 0x35010, symSize: 0x160 }
  - { offsetInCU: 0x3E3D3, offset: 0xA0715, size: 0x8, addend: 0x0, symName: __ZN3std2fs11OpenOptions5_open17h1d14c781b27b9cd8E, symObjAddr: 0x2BCB0, symBinAddr: 0x35190, symSize: 0x1F0 }
  - { offsetInCU: 0x3E5FD, offset: 0xA093F, size: 0x8, addend: 0x0, symName: __ZN3std5alloc24default_alloc_error_hook17hb7e8942bce464676E, symObjAddr: 0x415B0, symBinAddr: 0x38540, symSize: 0x160 }
  - { offsetInCU: 0x3E887, offset: 0xA0BC9, size: 0x8, addend: 0x0, symName: ___rdl_alloc, symObjAddr: 0x41710, symBinAddr: 0x386A0, symSize: 0x70 }
  - { offsetInCU: 0x3E916, offset: 0xA0C58, size: 0x8, addend: 0x0, symName: ___rdl_dealloc, symObjAddr: 0x41780, symBinAddr: 0x38710, symSize: 0x10 }
  - { offsetInCU: 0x3E943, offset: 0xA0C85, size: 0x8, addend: 0x0, symName: ___rdl_realloc, symObjAddr: 0x41790, symBinAddr: 0x38720, symSize: 0xA0 }
  - { offsetInCU: 0x3EA55, offset: 0xA0D97, size: 0x8, addend: 0x0, symName: __ZN3std5alloc8rust_oom17hdae996a8007ae43bE, symObjAddr: 0x50F70, symBinAddr: 0x3CAD0, symSize: 0x20 }
  - { offsetInCU: 0x3EAA1, offset: 0xA0DE3, size: 0x8, addend: 0x0, symName: ___rg_oom, symObjAddr: 0x50F90, symBinAddr: 0x3CAF0, symSize: 0x20 }
  - { offsetInCU: 0x3EC00, offset: 0xA0F42, size: 0x8, addend: 0x0, symName: '__ZN5gimli4read4unit32AttributeValue$LT$R$C$Offset$GT$11udata_value17hede2cb0fa7142a81E', symObjAddr: 0x19DD0, symBinAddr: 0x286C0, symSize: 0x80 }
  - { offsetInCU: 0x3EC5B, offset: 0xA0F9D, size: 0x8, addend: 0x0, symName: __ZN5gimli4read4unit15parse_attribute17hdc95fea432f22995E, symObjAddr: 0x171C0, symBinAddr: 0x25AB0, symSize: 0x1960 }
  - { offsetInCU: 0x42348, offset: 0xA468A, size: 0x8, addend: 0x0, symName: __ZN5gimli4read4unit15skip_attributes17hd3629e11f5bef68bE, symObjAddr: 0x18B20, symBinAddr: 0x27410, symSize: 0x750 }
  - { offsetInCU: 0x42D9E, offset: 0xA50E0, size: 0x8, addend: 0x0, symName: '__ZN5gimli4read4unit18Attribute$LT$R$GT$5value17hb3a3a1d0d3843921E', symObjAddr: 0x19270, symBinAddr: 0x27B60, symSize: 0x810 }
  - { offsetInCU: 0x432F0, offset: 0xA5632, size: 0x8, addend: 0x0, symName: '__ZN5gimli4read4unit22EntriesCursor$LT$R$GT$10next_entry17hcb0a839aa63ff658E', symObjAddr: 0x19A80, symBinAddr: 0x28370, symSize: 0x350 }
  - { offsetInCU: 0x4385C, offset: 0xA5B9E, size: 0x8, addend: 0x0, symName: '__ZN5gimli4read4unit33DebugInfoUnitHeadersIter$LT$R$GT$4next17h32df442407d963e3E', symObjAddr: 0x19E50, symBinAddr: 0x28740, symSize: 0x600 }
  - { offsetInCU: 0x44A92, offset: 0xA6DD4, size: 0x8, addend: 0x0, symName: '__ZN90_$LT$gimli..read..unit..AttributeValue$LT$R$C$Offset$GT$$u20$as$u20$core..clone..Clone$GT$5clone17h26b89df82d70d509E', symObjAddr: 0x1F680, symBinAddr: 0x2DA70, symSize: 0x120 }
  - { offsetInCU: 0x44CE3, offset: 0xA7025, size: 0x8, addend: 0x0, symName: __ZN5gimli4read6reader6Reader11read_offset17h7e80abe32b9662a5E, symObjAddr: 0x1D830, symBinAddr: 0x2C120, symSize: 0xB0 }
  - { offsetInCU: 0x44F48, offset: 0xA728A, size: 0x8, addend: 0x0, symName: __ZN5gimli4read6reader6Reader12read_uleb12817h4ba34c89a0f4e49bE, symObjAddr: 0x1D8E0, symBinAddr: 0x2C1D0, symSize: 0xB0 }
  - { offsetInCU: 0x44FF3, offset: 0xA7335, size: 0x8, addend: 0x0, symName: __ZN5gimli4read6reader6Reader17read_sized_offset17h2d0659fa8369884cE, symObjAddr: 0x1D990, symBinAddr: 0x2C280, symSize: 0x130 }
  - { offsetInCU: 0x4546E, offset: 0xA77B0, size: 0x8, addend: 0x0, symName: __ZN5gimli4read4line13parse_file_v517h00102d4450b26936E, symObjAddr: 0x15D20, symBinAddr: 0x24610, symSize: 0x2E0 }
  - { offsetInCU: 0x455E3, offset: 0xA7925, size: 0x8, addend: 0x0, symName: __ZN5gimli4read4line15FileEntryFormat5parse17hd09e7e12b3a83a4eE, symObjAddr: 0x16000, symBinAddr: 0x248F0, symSize: 0x3A0 }
  - { offsetInCU: 0x45DAB, offset: 0xA80ED, size: 0x8, addend: 0x0, symName: __ZN5gimli4read4line15parse_attribute17h13a52bf6f5b6c965E, symObjAddr: 0x163A0, symBinAddr: 0x24C90, symSize: 0xAC0 }
  - { offsetInCU: 0x4792C, offset: 0xA9C6E, size: 0x8, addend: 0x0, symName: __ZN5gimli4read4line18parse_directory_v517h00bba0525c5798feE, symObjAddr: 0x16E60, symBinAddr: 0x25750, symSize: 0x110 }
  - { offsetInCU: 0x479A5, offset: 0xA9CE7, size: 0x8, addend: 0x0, symName: '__ZN5gimli4read4line27FileEntry$LT$R$C$Offset$GT$5parse17hcd4749b4839ce183E', symObjAddr: 0x16F70, symBinAddr: 0x25860, symSize: 0x250 }
  - { offsetInCU: 0x47C7B, offset: 0xA9FBD, size: 0x8, addend: 0x0, symName: '__ZN93_$LT$gimli..read..line..LineProgramHeader$LT$R$C$Offset$GT$$u20$as$u20$core..clone..Clone$GT$5clone17h1fac362afd052016E', symObjAddr: 0x1F7A0, symBinAddr: 0x2DB90, symSize: 0x5C0 }
  - { offsetInCU: 0x48727, offset: 0xAAA69, size: 0x8, addend: 0x0, symName: '__ZN5gimli4read5dwarf14Dwarf$LT$R$GT$11attr_string17haadd54a0e6e81ebbE', symObjAddr: 0x1CC80, symBinAddr: 0x2B570, symSize: 0x210 }
  - { offsetInCU: 0x48FB7, offset: 0xAB2F9, size: 0x8, addend: 0x0, symName: '__ZN5gimli4read5dwarf13Unit$LT$R$GT$3new17h7b5b7e892a6b53baE', symObjAddr: 0x1A450, symBinAddr: 0x28D40, symSize: 0x2830 }
  - { offsetInCU: 0x4C7F9, offset: 0xAEB3B, size: 0x8, addend: 0x0, symName: '__ZN5gimli4read5index18UnitIndex$LT$R$GT$5parse17h7e148d1862301c26E', symObjAddr: 0x1CE90, symBinAddr: 0x2B780, symSize: 0x9A0 }
  - { offsetInCU: 0x4C817, offset: 0xAEB59, size: 0x8, addend: 0x0, symName: '__ZN5gimli4read5index18UnitIndex$LT$R$GT$5parse17h7e148d1862301c26E', symObjAddr: 0x1CE90, symBinAddr: 0x2B780, symSize: 0x9A0 }
  - { offsetInCU: 0x4C82B, offset: 0xAEB6D, size: 0x8, addend: 0x0, symName: '__ZN5gimli4read5index18UnitIndex$LT$R$GT$5parse17h7e148d1862301c26E', symObjAddr: 0x1CE90, symBinAddr: 0x2B780, symSize: 0x9A0 }
  - { offsetInCU: 0x4CD97, offset: 0xAF0D9, size: 0x8, addend: 0x0, symName: '__ZN5gimli4read7aranges30ArangeHeader$LT$R$C$Offset$GT$5parse17hb555810ff3d7c330E', symObjAddr: 0x1DAC0, symBinAddr: 0x2C3B0, symSize: 0x2A0 }
  - { offsetInCU: 0x4D633, offset: 0xAF975, size: 0x8, addend: 0x0, symName: '__ZN5gimli4read8rnglists20RngListIter$LT$R$GT$4next17h289733bca08e128fE', symObjAddr: 0x1DD60, symBinAddr: 0x2C650, symSize: 0x1000 }
  - { offsetInCU: 0x501F5, offset: 0xB2537, size: 0x8, addend: 0x0, symName: '__ZN9addr2line8function17Function$LT$R$GT$14parse_children17hbb65783bd45d2861E', symObjAddr: 0x250C0, symBinAddr: 0x333C0, symSize: 0x1630 }
  - { offsetInCU: 0x51440, offset: 0xB3782, size: 0x8, addend: 0x0, symName: __ZN9addr2line8function10name_entry17hc2b582ece92caa7aE, symObjAddr: 0x24C80, symBinAddr: 0x32F80, symSize: 0x440 }
  - { offsetInCU: 0x5186C, offset: 0xB3BAE, size: 0x8, addend: 0x0, symName: __ZN9addr2line8function9name_attr17hc96fb7a92795daf9E, symObjAddr: 0x266F0, symBinAddr: 0x349F0, symSize: 0x1B0 }
  - { offsetInCU: 0x51A64, offset: 0xB3DA6, size: 0x8, addend: 0x0, symName: __ZN9addr2line11render_file17h5517ef64accc5d43E, symObjAddr: 0x1FE50, symBinAddr: 0x2E150, symSize: 0x6B0 }
  - { offsetInCU: 0x52211, offset: 0xB4553, size: 0x8, addend: 0x0, symName: '__ZN9addr2line16Context$LT$R$GT$9find_unit17hd9fd8439b7d6087eE', symObjAddr: 0x20500, symBinAddr: 0x2E800, symSize: 0x150 }
  - { offsetInCU: 0x524D5, offset: 0xB4817, size: 0x8, addend: 0x0, symName: '__ZN9addr2line16ResUnit$LT$R$GT$25find_function_or_location17h07e609037f3ea598E', symObjAddr: 0x20650, symBinAddr: 0x2E950, symSize: 0x560 }
  - { offsetInCU: 0x528BB, offset: 0xB4BFD, size: 0x8, addend: 0x0, symName: '__ZN9addr2line16ResUnit$LT$R$GT$25find_function_or_location28_$u7b$$u7b$closure$u7d$$u7d$17hee587d2ae9be3845E', symObjAddr: 0x20BB0, symBinAddr: 0x2EEB0, symSize: 0x1CD0 }
  - { offsetInCU: 0x551F5, offset: 0xB7537, size: 0x8, addend: 0x0, symName: '__ZN9addr2line18FrameIter$LT$R$GT$4next17h45f956316232ee2fE', symObjAddr: 0x22880, symBinAddr: 0x30B80, symSize: 0x400 }
  - { offsetInCU: 0x556DE, offset: 0xB7A20, size: 0x8, addend: 0x0, symName: '__ZN9addr2line30LoopingLookup$LT$T$C$L$C$F$GT$10new_lookup17h74c847bef191747eE', symObjAddr: 0x22C80, symBinAddr: 0x30F80, symSize: 0x520 }
  - { offsetInCU: 0x55B81, offset: 0xB7EC3, size: 0x8, addend: 0x0, symName: __ZN9addr2line5Lines5parse17hba10f936c372d0e0E, symObjAddr: 0x231A0, symBinAddr: 0x314A0, symSize: 0x1AE0 }
  - { offsetInCU: 0x58603, offset: 0xBA945, size: 0x8, addend: 0x0, symName: __ZN6object4read7archive13ArchiveMember5parse17h9773f219fabef87fE, symObjAddr: 0x1F1E0, symBinAddr: 0x2D670, symSize: 0x360 }
  - { offsetInCU: 0x58C39, offset: 0xBAF7B, size: 0x8, addend: 0x0, symName: __ZN6object4read7archive23parse_bsd_extended_name17hcb481cad095c5149E, symObjAddr: 0x1F540, symBinAddr: 0x2D9D0, symSize: 0xA0 }
  - { offsetInCU: 0x1E, offset: 0xBB674, size: 0x8, addend: 0x0, symName: '__ZN4core3ptr49drop_in_place$LT$panic_unwind..imp..Exception$GT$17h7cb1f70ba27daa8aE', symObjAddr: 0x0, symBinAddr: 0x44710, symSize: 0x70 }
  - { offsetInCU: 0x43, offset: 0xBB699, size: 0x8, addend: 0x0, symName: '__ZN4core3ptr49drop_in_place$LT$panic_unwind..imp..Exception$GT$17h7cb1f70ba27daa8aE', symObjAddr: 0x0, symBinAddr: 0x44710, symSize: 0x70 }
  - { offsetInCU: 0x147, offset: 0xBB79D, size: 0x8, addend: 0x0, symName: '__ZN4core3ptr74drop_in_place$LT$alloc..boxed..Box$LT$panic_unwind..imp..Exception$GT$$GT$17hd08adefcc1143184E', symObjAddr: 0x70, symBinAddr: 0x44780, symSize: 0x90 }
  - { offsetInCU: 0x416, offset: 0xBBA6C, size: 0x8, addend: 0x0, symName: __ZN12panic_unwind3imp5panic17exception_cleanup17hd6ad6022d0a6ffe7E, symObjAddr: 0x200, symBinAddr: 0x44910, symSize: 0x16 }
  - { offsetInCU: 0x432, offset: 0xBBA88, size: 0x8, addend: 0x0, symName: ___rust_panic_cleanup, symObjAddr: 0x100, symBinAddr: 0x44810, symSize: 0x50 }
  - { offsetInCU: 0x4A9, offset: 0xBBAFF, size: 0x8, addend: 0x0, symName: ___rust_start_panic, symObjAddr: 0x150, symBinAddr: 0x44860, symSize: 0xB0 }
  - { offsetInCU: 0x189, offset: 0xBBD24, size: 0x8, addend: 0x0, symName: __ZN6memchr6memchr3x864sse26memchr17h1c3f8a3b85e5e51bE, symObjAddr: 0x8F0, symBinAddr: 0x44C30, symSize: 0x1C0 }
  - { offsetInCU: 0x1A0, offset: 0xBBD3B, size: 0x8, addend: 0x0, symName: __ZN6memchr6memchr3x864sse26memchr17h1c3f8a3b85e5e51bE, symObjAddr: 0x8F0, symBinAddr: 0x44C30, symSize: 0x1C0 }
  - { offsetInCU: 0x4B0, offset: 0xBC04B, size: 0x8, addend: 0x0, symName: __ZN6memchr6memchr3x864sse27memchr217h2270963e261333a1E, symObjAddr: 0xAB0, symBinAddr: 0x44DF0, symSize: 0x1F0 }
  - { offsetInCU: 0x4CE, offset: 0xBC069, size: 0x8, addend: 0x0, symName: __ZN6memchr6memchr3x864sse27memchr217h2270963e261333a1E, symObjAddr: 0xAB0, symBinAddr: 0x44DF0, symSize: 0x1F0 }
  - { offsetInCU: 0x1E, offset: 0xBC3BF, size: 0x8, addend: 0x0, symName: __ZN9hashbrown3raw11Fallibility17capacity_overflow17hd4e9ded7f222eebaE, symObjAddr: 0x0, symBinAddr: 0x4D720, symSize: 0x50 }
  - { offsetInCU: 0x5A, offset: 0xBC3FB, size: 0x8, addend: 0x0, symName: __ZN9hashbrown3raw11Fallibility17capacity_overflow17hd4e9ded7f222eebaE, symObjAddr: 0x0, symBinAddr: 0x4D720, symSize: 0x50 }
  - { offsetInCU: 0x89, offset: 0xBC42A, size: 0x8, addend: 0x0, symName: __ZN9hashbrown3raw11Fallibility9alloc_err17h1b85c99cbebac136E, symObjAddr: 0x50, symBinAddr: 0x4D770, symSize: 0x20 }
  - { offsetInCU: 0x53, offset: 0xBC49A, size: 0x8, addend: 0x0, symName: __ZN4core3fmt5Write9write_fmt17h1b2defdef86f2e6bE, symObjAddr: 0x20, symBinAddr: 0x4D790, symSize: 0x20 }
  - { offsetInCU: 0x95, offset: 0xBC4DC, size: 0x8, addend: 0x0, symName: '__ZN53_$LT$core..fmt..Error$u20$as$u20$core..fmt..Debug$GT$3fmt17h03dc662ab152f3aeE', symObjAddr: 0xC0, symBinAddr: 0x4D7D0, symSize: 0x20 }
  - { offsetInCU: 0x102, offset: 0xBC549, size: 0x8, addend: 0x0, symName: '__ZN4core3ptr42drop_in_place$LT$alloc..string..String$GT$17h61f13859bd1ac9a5E', symObjAddr: 0x60, symBinAddr: 0x4D7B0, symSize: 0x20 }
  - { offsetInCU: 0x1F9, offset: 0xBC640, size: 0x8, addend: 0x0, symName: '__ZN69_$LT$core..alloc..layout..LayoutError$u20$as$u20$core..fmt..Debug$GT$3fmt17h954ec1b18e5120d2E', symObjAddr: 0xE0, symBinAddr: 0x4D7F0, symSize: 0x20 }
  - { offsetInCU: 0x5A5, offset: 0xBC9EC, size: 0x8, addend: 0x0, symName: '__ZN5alloc7raw_vec19RawVec$LT$T$C$A$GT$8grow_one17he6f4182565c06affE', symObjAddr: 0x1F0, symBinAddr: 0x4D860, symSize: 0xA0 }
  - { offsetInCU: 0x7D9, offset: 0xBCC20, size: 0x8, addend: 0x0, symName: __ZN5alloc7raw_vec17capacity_overflow17hd5f476d0f4b04237E, symObjAddr: 0x100, symBinAddr: 0x4D810, symSize: 0x50 }
  - { offsetInCU: 0x812, offset: 0xBCC59, size: 0x8, addend: 0x0, symName: '__ZN5alloc7raw_vec19RawVec$LT$T$C$A$GT$7reserve21do_reserve_and_handle17h8390814197170b81E', symObjAddr: 0x150, symBinAddr: 0x54B30, symSize: 0xA0 }
  - { offsetInCU: 0x92E, offset: 0xBCD75, size: 0x8, addend: 0x0, symName: __ZN5alloc7raw_vec11finish_grow17hac7a643019d04e69E, symObjAddr: 0x290, symBinAddr: 0x4D900, symSize: 0xA0 }
  - { offsetInCU: 0x993, offset: 0xBCDDA, size: 0x8, addend: 0x0, symName: __ZN5alloc7raw_vec12handle_error17h19d8d109ef215ad1E, symObjAddr: 0x330, symBinAddr: 0x54BD0, symSize: 0x20 }
  - { offsetInCU: 0xA69, offset: 0xBCEB0, size: 0x8, addend: 0x0, symName: __ZN5alloc5alloc18handle_alloc_error17h8a695ff0459568c7E, symObjAddr: 0x350, symBinAddr: 0x54BF0, symSize: 0x20 }
  - { offsetInCU: 0xAF4, offset: 0xBCF3B, size: 0x8, addend: 0x0, symName: '__ZN93_$LT$alloc..collections..btree..mem..replace..PanicGuard$u20$as$u20$core..ops..drop..Drop$GT$4drop17h76cb43db49f7bda9E', symObjAddr: 0xD20, symBinAddr: 0x4D9A0, symSize: 0x10 }
  - { offsetInCU: 0xCA9, offset: 0xBD0F0, size: 0x8, addend: 0x0, symName: '__ZN98_$LT$alloc..string..String$u20$as$u20$core..convert..From$LT$alloc..borrow..Cow$LT$str$GT$$GT$$GT$4from17hec4993baf6aa823bE', symObjAddr: 0x5140, symBinAddr: 0x4E090, symSize: 0xB0 }
  - { offsetInCU: 0xE1C, offset: 0xBD263, size: 0x8, addend: 0x0, symName: __ZN5alloc6string6String15from_utf8_lossy17he3705d0cc87192c3E, symObjAddr: 0x3390, symBinAddr: 0x4DDB0, symSize: 0x250 }
  - { offsetInCU: 0x1375, offset: 0xBD7BC, size: 0x8, addend: 0x0, symName: '__ZN60_$LT$alloc..string..String$u20$as$u20$core..clone..Clone$GT$5clone17hde423967ac997fe2E', symObjAddr: 0x4C50, symBinAddr: 0x4E000, symSize: 0x90 }
  - { offsetInCU: 0x147B, offset: 0xBD8C2, size: 0x8, addend: 0x0, symName: '__ZN58_$LT$alloc..string..String$u20$as$u20$core..fmt..Write$GT$9write_str17h46a93205c3443fbaE', symObjAddr: 0x51F0, symBinAddr: 0x4E140, symSize: 0x60 }
  - { offsetInCU: 0x1560, offset: 0xBD9A7, size: 0x8, addend: 0x0, symName: '__ZN58_$LT$alloc..string..String$u20$as$u20$core..fmt..Write$GT$10write_char17h04bc467bd68a934bE', symObjAddr: 0x5250, symBinAddr: 0x4E1A0, symSize: 0x140 }
  - { offsetInCU: 0x17D8, offset: 0xBDC1F, size: 0x8, addend: 0x0, symName: '__ZN72_$LT$$RF$str$u20$as$u20$alloc..ffi..c_str..CString..new..SpecNewImpl$GT$13spec_new_impl17h0cf21b87e1c8da06E', symObjAddr: 0xDA0, symBinAddr: 0x4D9B0, symSize: 0x0 }
  - { offsetInCU: 0x19DC, offset: 0xBDE23, size: 0x8, addend: 0x0, symName: __ZN5alloc3ffi5c_str7CString19_from_vec_unchecked17h3b0136e31afee425E, symObjAddr: 0x1030, symBinAddr: 0x4DAE0, symSize: 0x120 }
  - { offsetInCU: 0x1C9A, offset: 0xBE0E1, size: 0x8, addend: 0x0, symName: __ZN5alloc3fmt6format12format_inner17hb1e808122341bcd9E, symObjAddr: 0x1840, symBinAddr: 0x4DC00, symSize: 0x1B0 }
  - { offsetInCU: 0x1EBC, offset: 0xBE303, size: 0x8, addend: 0x0, symName: __ZN5alloc4sync32arcinner_layout_for_value_layout17hbeb03db793229b3bE, symObjAddr: 0x54A0, symBinAddr: 0x4E2E0, symSize: 0x70 }
  - { offsetInCU: 0x1EDB, offset: 0xBE322, size: 0x8, addend: 0x0, symName: __ZN5alloc4sync32arcinner_layout_for_value_layout17hbeb03db793229b3bE, symObjAddr: 0x54A0, symBinAddr: 0x4E2E0, symSize: 0x70 }
  - { offsetInCU: 0x1EF0, offset: 0xBE337, size: 0x8, addend: 0x0, symName: __ZN5alloc4sync32arcinner_layout_for_value_layout17hbeb03db793229b3bE, symObjAddr: 0x54A0, symBinAddr: 0x4E2E0, symSize: 0x70 }
  - { offsetInCU: 0x1F05, offset: 0xBE34C, size: 0x8, addend: 0x0, symName: __ZN5alloc4sync32arcinner_layout_for_value_layout17hbeb03db793229b3bE, symObjAddr: 0x54A0, symBinAddr: 0x4E2E0, symSize: 0x70 }
  - { offsetInCU: 0x1F1A, offset: 0xBE361, size: 0x8, addend: 0x0, symName: __ZN5alloc4sync32arcinner_layout_for_value_layout17hbeb03db793229b3bE, symObjAddr: 0x54A0, symBinAddr: 0x4E2E0, symSize: 0x70 }
  - { offsetInCU: 0x182, offset: 0xBE5CF, size: 0x8, addend: 0x0, symName: '__ZN42_$LT$str$u20$as$u20$core..fmt..Display$GT$3fmt17h0fda321badf74e6aE', symObjAddr: 0xE5A0, symBinAddr: 0x50450, symSize: 0x20 }
  - { offsetInCU: 0x236, offset: 0xBE683, size: 0x8, addend: 0x0, symName: __ZN4core3fmt9Formatter12pad_integral17h8972ffd3c8b0cfc1E, symObjAddr: 0xC730, symBinAddr: 0x4F450, symSize: 0x4D0 }
  - { offsetInCU: 0x4F1, offset: 0xBE93E, size: 0x8, addend: 0x0, symName: __ZN4core3fmt9Formatter3pad17h1cd3f01fe2fd2736E, symObjAddr: 0xCC60, symBinAddr: 0x4F980, symSize: 0x3F0 }
  - { offsetInCU: 0x92D, offset: 0xBED7A, size: 0x8, addend: 0x0, symName: __ZN4core3fmt9Formatter9write_str17h0118ad48afc9d895E, symObjAddr: 0xD500, symBinAddr: 0x4FD70, symSize: 0x0 }
  - { offsetInCU: 0x941, offset: 0xBED8E, size: 0x8, addend: 0x0, symName: __ZN4core3fmt9Formatter12debug_struct17he2ba4147cf3f70c3E, symObjAddr: 0xD520, symBinAddr: 0x4FD90, symSize: 0x40 }
  - { offsetInCU: 0x97F, offset: 0xBEDCC, size: 0x8, addend: 0x0, symName: __ZN4core3fmt9Formatter26debug_struct_field1_finish17hb39d7b9a28168dcfE, symObjAddr: 0xD560, symBinAddr: 0x4FDD0, symSize: 0xB0 }
  - { offsetInCU: 0xA55, offset: 0xBEEA2, size: 0x8, addend: 0x0, symName: __ZN4core3fmt9Formatter26debug_struct_field2_finish17hc06f7d961bd659acE, symObjAddr: 0xD610, symBinAddr: 0x4FE80, symSize: 0xD0 }
  - { offsetInCU: 0xB2B, offset: 0xBEF78, size: 0x8, addend: 0x0, symName: __ZN4core3fmt9Formatter11debug_tuple17hc8eb609d0a1a39baE, symObjAddr: 0xDAE0, symBinAddr: 0x4FF50, symSize: 0x50 }
  - { offsetInCU: 0xB87, offset: 0xBEFD4, size: 0x8, addend: 0x0, symName: __ZN4core3fmt9Formatter25debug_tuple_field1_finish17ha8c77f5d0334b7adE, symObjAddr: 0xDB30, symBinAddr: 0x4FFA0, symSize: 0xD0 }
  - { offsetInCU: 0xC54, offset: 0xBF0A1, size: 0x8, addend: 0x0, symName: __ZN4core3fmt9Formatter10debug_list17h06e79a079c85ca53E, symObjAddr: 0xE0E0, symBinAddr: 0x50070, symSize: 0x40 }
  - { offsetInCU: 0xCFB, offset: 0xBF148, size: 0x8, addend: 0x0, symName: __ZN4core3fmt8builders11DebugStruct5field17h0ffe8fbe02645e65E, symObjAddr: 0x9620, symBinAddr: 0x4ECA0, symSize: 0x1B0 }
  - { offsetInCU: 0xF07, offset: 0xBF354, size: 0x8, addend: 0x0, symName: __ZN4core3fmt8builders11DebugStruct6finish17hee2e7ea1f7b53a47E, symObjAddr: 0x9880, symBinAddr: 0x4EE50, symSize: 0x60 }
  - { offsetInCU: 0x1006, offset: 0xBF453, size: 0x8, addend: 0x0, symName: '__ZN68_$LT$core..fmt..builders..PadAdapter$u20$as$u20$core..fmt..Write$GT$9write_str17hccc2b902801ed8d2E', symObjAddr: 0x9340, symBinAddr: 0x4E9C0, symSize: 0x280 }
  - { offsetInCU: 0x123D, offset: 0xBF68A, size: 0x8, addend: 0x0, symName: '__ZN68_$LT$core..fmt..builders..PadAdapter$u20$as$u20$core..fmt..Write$GT$10write_char17h0f9dfee2e64bcd77E', symObjAddr: 0x95C0, symBinAddr: 0x4EC40, symSize: 0x60 }
  - { offsetInCU: 0x12BB, offset: 0xBF708, size: 0x8, addend: 0x0, symName: __ZN4core3fmt8builders10DebugTuple5field17h008439c0ac16da21E, symObjAddr: 0x98E0, symBinAddr: 0x4EEB0, symSize: 0x150 }
  - { offsetInCU: 0x1444, offset: 0xBF891, size: 0x8, addend: 0x0, symName: __ZN4core3fmt8builders10DebugTuple6finish17h09b759d26efe9a66E, symObjAddr: 0x9A30, symBinAddr: 0x4F000, symSize: 0x90 }
  - { offsetInCU: 0x1584, offset: 0xBF9D1, size: 0x8, addend: 0x0, symName: __ZN4core3fmt8builders8DebugSet5entry17h2d024717e11579e0E, symObjAddr: 0x9AC0, symBinAddr: 0x4F090, symSize: 0x0 }
  - { offsetInCU: 0x172F, offset: 0xBFB7C, size: 0x8, addend: 0x0, symName: __ZN4core3fmt8builders9DebugList6finish17ha8368efce69978bfE, symObjAddr: 0x9C40, symBinAddr: 0x4F1D0, symSize: 0x40 }
  - { offsetInCU: 0x17BB, offset: 0xBFC08, size: 0x8, addend: 0x0, symName: '__ZN57_$LT$core..fmt..Formatter$u20$as$u20$core..fmt..Write$GT$10write_char17h707d6fad029c4630E', symObjAddr: 0xE1A0, symBinAddr: 0x500B0, symSize: 0x20 }
  - { offsetInCU: 0x17EE, offset: 0xBFC3B, size: 0x8, addend: 0x0, symName: __ZN4core3fmt5Write9write_fmt17h5d296d7037892cbdE, symObjAddr: 0xC4D0, symBinAddr: 0x4F210, symSize: 0x20 }
  - { offsetInCU: 0x192F, offset: 0xBFD7C, size: 0x8, addend: 0x0, symName: '__ZN4core3fmt3num3imp51_$LT$impl$u20$core..fmt..Display$u20$for$u20$u8$GT$3fmt17hd78e8ef4f3cd9c45E', symObjAddr: 0x1B0C0, symBinAddr: 0x529B0, symSize: 0x90 }
  - { offsetInCU: 0x19D4, offset: 0xBFE21, size: 0x8, addend: 0x0, symName: '__ZN4core3fmt3num3imp52_$LT$impl$u20$core..fmt..Display$u20$for$u20$u16$GT$3fmt17h8a944ed471529800E', symObjAddr: 0x1B250, symBinAddr: 0x52A40, symSize: 0xF0 }
  - { offsetInCU: 0x1AB5, offset: 0xBFF02, size: 0x8, addend: 0x0, symName: '__ZN4core3fmt3num3imp52_$LT$impl$u20$core..fmt..Display$u20$for$u20$i32$GT$3fmt17h489d415102b22552E', symObjAddr: 0x1B340, symBinAddr: 0x52B30, symSize: 0x130 }
  - { offsetInCU: 0x1B59, offset: 0xBFFA6, size: 0x8, addend: 0x0, symName: '__ZN4core3fmt3num3imp52_$LT$impl$u20$core..fmt..Display$u20$for$u20$u32$GT$3fmt17hc40b7317ea9c81d1E', symObjAddr: 0x1B470, symBinAddr: 0x52C60, symSize: 0x120 }
  - { offsetInCU: 0x1BFD, offset: 0xC004A, size: 0x8, addend: 0x0, symName: '__ZN4core3fmt3num3imp52_$LT$impl$u20$core..fmt..Display$u20$for$u20$u64$GT$3fmt17h2e9b6424619279b2E', symObjAddr: 0x1B6C0, symBinAddr: 0x52D80, symSize: 0x0 }
  - { offsetInCU: 0x1CB5, offset: 0xC0102, size: 0x8, addend: 0x0, symName: '__ZN4core3fmt3num52_$LT$impl$u20$core..fmt..LowerHex$u20$for$u20$i8$GT$3fmt17h03e3df9ac0fd0464E', symObjAddr: 0x19D70, symBinAddr: 0x523D0, symSize: 0x0 }
  - { offsetInCU: 0x1E2A, offset: 0xC0277, size: 0x8, addend: 0x0, symName: '__ZN4core3fmt3num52_$LT$impl$u20$core..fmt..UpperHex$u20$for$u20$i8$GT$3fmt17h6f0bde4771b4f009E', symObjAddr: 0x19E10, symBinAddr: 0x52470, symSize: 0x0 }
  - { offsetInCU: 0x1FB2, offset: 0xC03FF, size: 0x8, addend: 0x0, symName: '__ZN4core3fmt3num53_$LT$impl$u20$core..fmt..LowerHex$u20$for$u20$i32$GT$3fmt17hee7d14134452d6d7E', symObjAddr: 0x1A210, symBinAddr: 0x52510, symSize: 0x0 }
  - { offsetInCU: 0x2142, offset: 0xC058F, size: 0x8, addend: 0x0, symName: '__ZN4core3fmt3num53_$LT$impl$u20$core..fmt..UpperHex$u20$for$u20$i32$GT$3fmt17hbfc0f68a02be4ca1E', symObjAddr: 0x1A2B0, symBinAddr: 0x525B0, symSize: 0x0 }
  - { offsetInCU: 0x22BF, offset: 0xC070C, size: 0x8, addend: 0x0, symName: '__ZN4core3fmt3num53_$LT$impl$u20$core..fmt..LowerHex$u20$for$u20$i64$GT$3fmt17hbd90a137258b6cb9E', symObjAddr: 0x1A470, symBinAddr: 0x52650, symSize: 0x0 }
  - { offsetInCU: 0x244F, offset: 0xC089C, size: 0x8, addend: 0x0, symName: '__ZN4core3fmt3num53_$LT$impl$u20$core..fmt..UpperHex$u20$for$u20$i64$GT$3fmt17h62eb0ff735ecf1a0E', symObjAddr: 0x1A510, symBinAddr: 0x526F0, symSize: 0x0 }
  - { offsetInCU: 0x25D2, offset: 0xC0A1F, size: 0x8, addend: 0x0, symName: '__ZN4core3fmt3num52_$LT$impl$u20$core..fmt..Debug$u20$for$u20$usize$GT$3fmt17h9e5c63f85393f427E', symObjAddr: 0x1AE00, symBinAddr: 0x52790, symSize: 0x220 }
  - { offsetInCU: 0x292F, offset: 0xC0D7C, size: 0x8, addend: 0x0, symName: '__ZN59_$LT$core..fmt..Arguments$u20$as$u20$core..fmt..Display$GT$3fmt17h73b8fbb663c88c51E', symObjAddr: 0xC510, symBinAddr: 0x4F230, symSize: 0x20 }
  - { offsetInCU: 0x2960, offset: 0xC0DAD, size: 0x8, addend: 0x0, symName: __ZN4core3fmt5write17hace734add356d1f2E, symObjAddr: 0xC530, symBinAddr: 0x4F250, symSize: 0x200 }
  - { offsetInCU: 0x2B59, offset: 0xC0FA6, size: 0x8, addend: 0x0, symName: __ZN4core3fmt9Formatter12pad_integral12write_prefix17h09b544bef0610067E, symObjAddr: 0xCC00, symBinAddr: 0x4F920, symSize: 0x60 }
  - { offsetInCU: 0x2BB2, offset: 0xC0FFF, size: 0x8, addend: 0x0, symName: '__ZN40_$LT$str$u20$as$u20$core..fmt..Debug$GT$3fmt17h59f79d374e7cce1eE', symObjAddr: 0xE220, symBinAddr: 0x500D0, symSize: 0x380 }
  - { offsetInCU: 0x306D, offset: 0xC14BA, size: 0x8, addend: 0x0, symName: '__ZN41_$LT$char$u20$as$u20$core..fmt..Debug$GT$3fmt17h183f5a1467d8dfe5E', symObjAddr: 0xE5C0, symBinAddr: 0x50470, symSize: 0x90 }
  - { offsetInCU: 0x3193, offset: 0xC15E0, size: 0x8, addend: 0x0, symName: '__ZN43_$LT$char$u20$as$u20$core..fmt..Display$GT$3fmt17hf66ab4ff3899151dE', symObjAddr: 0xE650, symBinAddr: 0x50500, symSize: 0xF0 }
  - { offsetInCU: 0x31B2, offset: 0xC15FF, size: 0x8, addend: 0x0, symName: '__ZN43_$LT$char$u20$as$u20$core..fmt..Display$GT$3fmt17hf66ab4ff3899151dE', symObjAddr: 0xE650, symBinAddr: 0x50500, symSize: 0xF0 }
  - { offsetInCU: 0x31C7, offset: 0xC1614, size: 0x8, addend: 0x0, symName: '__ZN43_$LT$char$u20$as$u20$core..fmt..Display$GT$3fmt17hf66ab4ff3899151dE', symObjAddr: 0xE650, symBinAddr: 0x50500, symSize: 0xF0 }
  - { offsetInCU: 0x3244, offset: 0xC1691, size: 0x8, addend: 0x0, symName: __ZN4core3fmt17pointer_fmt_inner17h0d3929dbbd6c7c2aE, symObjAddr: 0xE740, symBinAddr: 0x505F0, symSize: 0xE0 }
  - { offsetInCU: 0x33FA, offset: 0xC1847, size: 0x8, addend: 0x0, symName: '__ZN42_$LT$$RF$T$u20$as$u20$core..fmt..Debug$GT$3fmt17h1110e597aeb296f6E', symObjAddr: 0x1C7E0, symBinAddr: 0x52EA0, symSize: 0x20 }
  - { offsetInCU: 0x341B, offset: 0xC1868, size: 0x8, addend: 0x0, symName: '__ZN44_$LT$$RF$T$u20$as$u20$core..fmt..Display$GT$3fmt17h96d8cf3f9cca3c56E', symObjAddr: 0x1C850, symBinAddr: 0x52EC0, symSize: 0x20 }
  - { offsetInCU: 0x3888, offset: 0xC1CD5, size: 0x8, addend: 0x0, symName: __ZN4core3num23from_str_radix_panic_rt17hb27af51eba7af9c9E, symObjAddr: 0x5170, symBinAddr: 0x4E350, symSize: 0x60 }
  - { offsetInCU: 0x38B8, offset: 0xC1D05, size: 0x8, addend: 0x0, symName: __ZN4core3num20from_str_radix_panic17h074f0c73331affbdE, symObjAddr: 0x51D0, symBinAddr: 0x54C10, symSize: 0x10 }
  - { offsetInCU: 0x3A06, offset: 0xC1E53, size: 0x8, addend: 0x0, symName: '__ZN4core3num21_$LT$impl$u20$u32$GT$14from_str_radix17h9cea532e04b64059E', symObjAddr: 0x173B0, symBinAddr: 0x521F0, symSize: 0x1E0 }
  - { offsetInCU: 0x3B23, offset: 0xC1F70, size: 0x8, addend: 0x0, symName: '__ZN4core3num62_$LT$impl$u20$core..str..traits..FromStr$u20$for$u20$usize$GT$8from_str17h3e135b17ef7e316bE', symObjAddr: 0x16140, symBinAddr: 0x51F40, symSize: 0xE0 }
  - { offsetInCU: 0x3C0C, offset: 0xC2059, size: 0x8, addend: 0x0, symName: '__ZN4core3num60_$LT$impl$u20$core..str..traits..FromStr$u20$for$u20$u16$GT$8from_str17h9df1cf907b08318aE', symObjAddr: 0x16310, symBinAddr: 0x52020, symSize: 0xF0 }
  - { offsetInCU: 0x3CD7, offset: 0xC2124, size: 0x8, addend: 0x0, symName: '__ZN4core3num60_$LT$impl$u20$core..str..traits..FromStr$u20$for$u20$u64$GT$8from_str17h63f6558a7255c2c5E', symObjAddr: 0x16500, symBinAddr: 0x52110, symSize: 0xE0 }
  - { offsetInCU: 0x3F83, offset: 0xC23D0, size: 0x8, addend: 0x0, symName: __ZN4core5slice5index26slice_start_index_len_fail17hc2f78d08e3a7cf81E, symObjAddr: 0xF170, symBinAddr: 0x551F0, symSize: 0x70 }
  - { offsetInCU: 0x3FD4, offset: 0xC2421, size: 0x8, addend: 0x0, symName: __ZN4core5slice5index24slice_end_index_len_fail17h71b1f8e59c3fcdfeE, symObjAddr: 0xF1E0, symBinAddr: 0x55260, symSize: 0x70 }
  - { offsetInCU: 0x4025, offset: 0xC2472, size: 0x8, addend: 0x0, symName: __ZN4core5slice5index22slice_index_order_fail17h0140d9cf40fd68a5E, symObjAddr: 0xF250, symBinAddr: 0x552D0, symSize: 0x70 }
  - { offsetInCU: 0x444A, offset: 0xC2897, size: 0x8, addend: 0x0, symName: __ZN4core5slice6memchr14memchr_aligned17h133855cd69f468d3E, symObjAddr: 0xE910, symBinAddr: 0x506D0, symSize: 0xF0 }
  - { offsetInCU: 0x452E, offset: 0xC297B, size: 0x8, addend: 0x0, symName: __ZN4core5slice4sort6stable5drift11sqrt_approx17h106640da2bd74303E, symObjAddr: 0xEB10, symBinAddr: 0x507C0, symSize: 0x30 }
  - { offsetInCU: 0x45AB, offset: 0xC29F8, size: 0x8, addend: 0x0, symName: __ZN4core5slice4sort6shared9smallsort22panic_on_ord_violation17h133d7f05205c4f20E, symObjAddr: 0xEB40, symBinAddr: 0x507F0, symSize: 0x50 }
  - { offsetInCU: 0x4934, offset: 0xC2D81, size: 0x8, addend: 0x0, symName: __ZN4core6option13unwrap_failed17hf0ce88b8039e6075E, symObjAddr: 0x89E0, symBinAddr: 0x54CE0, symSize: 0x20 }
  - { offsetInCU: 0x494F, offset: 0xC2D9C, size: 0x8, addend: 0x0, symName: __ZN4core6option13expect_failed17h5435a7ff7a2acd97E, symObjAddr: 0x8A00, symBinAddr: 0x54D00, symSize: 0x60 }
  - { offsetInCU: 0x49C6, offset: 0xC2E13, size: 0x8, addend: 0x0, symName: '__ZN71_$LT$core..ops..range..Range$LT$Idx$GT$$u20$as$u20$core..fmt..Debug$GT$3fmt17h08592e28b763072aE', symObjAddr: 0x5330, symBinAddr: 0x4E3B0, symSize: 0x50 }
  - { offsetInCU: 0x4C77, offset: 0xC30C4, size: 0x8, addend: 0x0, symName: __ZN4core6result13unwrap_failed17had190471c291bd03E, symObjAddr: 0x9240, symBinAddr: 0x55170, symSize: 0x80 }
  - { offsetInCU: 0x4CDA, offset: 0xC3127, size: 0x8, addend: 0x0, symName: __ZN4core5ascii14escape_default17h1e814b1bae4eab41E, symObjAddr: 0x5650, symBinAddr: 0x4E400, symSize: 0x120 }
  - { offsetInCU: 0x4DEA, offset: 0xC3237, size: 0x8, addend: 0x0, symName: '__ZN60_$LT$core..cell..BorrowError$u20$as$u20$core..fmt..Debug$GT$3fmt17he427392b15fc8c64E', symObjAddr: 0x57F0, symBinAddr: 0x4E520, symSize: 0x20 }
  - { offsetInCU: 0x4E4C, offset: 0xC3299, size: 0x8, addend: 0x0, symName: '__ZN63_$LT$core..cell..BorrowMutError$u20$as$u20$core..fmt..Debug$GT$3fmt17hf4f968fd2f533c90E', symObjAddr: 0x5830, symBinAddr: 0x4E540, symSize: 0x20 }
  - { offsetInCU: 0x4EA9, offset: 0xC32F6, size: 0x8, addend: 0x0, symName: __ZN4core4cell22panic_already_borrowed17ha9b6b30d2a6c1da3E, symObjAddr: 0x5870, symBinAddr: 0x54C20, symSize: 0x60 }
  - { offsetInCU: 0x4ED9, offset: 0xC3326, size: 0x8, addend: 0x0, symName: __ZN4core4cell30panic_already_mutably_borrowed17he911c2e71862ea73E, symObjAddr: 0x58D0, symBinAddr: 0x54C80, symSize: 0x60 }
  - { offsetInCU: 0x4F57, offset: 0xC33A4, size: 0x8, addend: 0x0, symName: '__ZN4core4char7methods22_$LT$impl$u20$char$GT$16escape_debug_ext17h45343360e0479290E', symObjAddr: 0x59F0, symBinAddr: 0x4E560, symSize: 0x2C0 }
  - { offsetInCU: 0x51D4, offset: 0xC3621, size: 0x8, addend: 0x0, symName: __ZN4core7unicode12unicode_data15grapheme_extend11lookup_slow17hcf452ea06c1dd27eE, symObjAddr: 0x1E000, symBinAddr: 0x52F00, symSize: 0x160 }
  - { offsetInCU: 0x5416, offset: 0xC3863, size: 0x8, addend: 0x0, symName: __ZN4core7unicode12unicode_data2cc6lookup17ha8c997d3d336cb8fE, symObjAddr: 0x1DFE0, symBinAddr: 0x52EE0, symSize: 0x20 }
  - { offsetInCU: 0x5475, offset: 0xC38C2, size: 0x8, addend: 0x0, symName: __ZN4core7unicode9printable5check17h9aa6e320d7115c02E, symObjAddr: 0x12090, symBinAddr: 0x51CF0, symSize: 0x120 }
  - { offsetInCU: 0x56B4, offset: 0xC3B01, size: 0x8, addend: 0x0, symName: __ZN4core7unicode9printable12is_printable17h5397384c9e262cd0E, symObjAddr: 0x121B0, symBinAddr: 0x51E10, symSize: 0x130 }
  - { offsetInCU: 0x56DF, offset: 0xC3B2C, size: 0x8, addend: 0x0, symName: __ZN4core3ffi5c_str4CStr19from_bytes_with_nul17h192dd45a613e8c2dE, symObjAddr: 0x60D0, symBinAddr: 0x4E820, symSize: 0x120 }
  - { offsetInCU: 0x57A2, offset: 0xC3BEF, size: 0x8, addend: 0x0, symName: __ZN4core9panicking9panic_fmt17had5c0183b828cb49E, symObjAddr: 0x8BD0, symBinAddr: 0x54D60, symSize: 0x50 }
  - { offsetInCU: 0x57E4, offset: 0xC3C31, size: 0x8, addend: 0x0, symName: __ZN4core9panicking18panic_nounwind_fmt17hb4571fb78fc10a76E, symObjAddr: 0x8C20, symBinAddr: 0x54DB0, symSize: 0x60 }
  - { offsetInCU: 0x5828, offset: 0xC3C75, size: 0x8, addend: 0x0, symName: __ZN4core9panicking5panic17hf0e1cc2ca8e1dc83E, symObjAddr: 0x8C80, symBinAddr: 0x54E10, symSize: 0x50 }
  - { offsetInCU: 0x5857, offset: 0xC3CA4, size: 0x8, addend: 0x0, symName: __ZN4core9panicking14panic_nounwind17ha12d9e403b05feccE, symObjAddr: 0x8CD0, symBinAddr: 0x54E60, symSize: 0x50 }
  - { offsetInCU: 0x5886, offset: 0xC3CD3, size: 0x8, addend: 0x0, symName: __ZN4core9panicking26panic_nounwind_nobacktrace17h5f1522f9c13eafe4E, symObjAddr: 0x8D20, symBinAddr: 0x54EB0, symSize: 0x50 }
  - { offsetInCU: 0x58B5, offset: 0xC3D02, size: 0x8, addend: 0x0, symName: __ZN4core9panicking18panic_bounds_check17h109fe50f98469fc4E, symObjAddr: 0x8DD0, symBinAddr: 0x54F00, symSize: 0x70 }
  - { offsetInCU: 0x58E5, offset: 0xC3D32, size: 0x8, addend: 0x0, symName: __ZN4core9panicking19panic_cannot_unwind17h4b15d87e2e2757a8E, symObjAddr: 0x8F20, symBinAddr: 0x54F70, symSize: 0x20 }
  - { offsetInCU: 0x5900, offset: 0xC3D4D, size: 0x8, addend: 0x0, symName: __ZN4core9panicking16panic_in_cleanup17hc82a6604fb78741fE, symObjAddr: 0x8F40, symBinAddr: 0x54F90, symSize: 0x20 }
  - { offsetInCU: 0x591B, offset: 0xC3D68, size: 0x8, addend: 0x0, symName: __ZN4core9panicking19assert_failed_inner17he0737abe7f31c06cE, symObjAddr: 0x9080, symBinAddr: 0x54FB0, symSize: 0x1C0 }
  - { offsetInCU: 0x5964, offset: 0xC3DB1, size: 0x8, addend: 0x0, symName: __ZN4core9panicking11panic_const23panic_const_div_by_zero17h1ba33e25180c9760E, symObjAddr: 0x18650, symBinAddr: 0x55390, symSize: 0x40 }
  - { offsetInCU: 0x5993, offset: 0xC3DE0, size: 0x8, addend: 0x0, symName: __ZN4core9panicking11panic_const23panic_const_rem_by_zero17hddb47ddab6d21ac2E, symObjAddr: 0x18690, symBinAddr: 0x553D0, symSize: 0x40 }
  - { offsetInCU: 0x59D3, offset: 0xC3E20, size: 0x8, addend: 0x0, symName: '__ZN70_$LT$core..panic..location..Location$u20$as$u20$core..fmt..Display$GT$3fmt17h3b775daa4da0c84fE', symObjAddr: 0x8A60, symBinAddr: 0x4E940, symSize: 0x80 }
  - { offsetInCU: 0x5B66, offset: 0xC3FB3, size: 0x8, addend: 0x0, symName: __ZN4core3str7pattern11StrSearcher3new17hc777094db0ba1f96E, symObjAddr: 0x10220, symBinAddr: 0x510D0, symSize: 0x640 }
  - { offsetInCU: 0x5F6C, offset: 0xC43B9, size: 0x8, addend: 0x0, symName: __ZN4core3str5count14do_count_chars17ha3390eb253e30d2dE, symObjAddr: 0xF8D0, symBinAddr: 0x50A50, symSize: 0x5C0 }
  - { offsetInCU: 0x6338, offset: 0xC4785, size: 0x8, addend: 0x0, symName: __ZN4core3str5count23char_count_general_case17h70df39afcdec0f69E, symObjAddr: 0xFE90, symBinAddr: 0x51010, symSize: 0xC0 }
  - { offsetInCU: 0x638C, offset: 0xC47D9, size: 0x8, addend: 0x0, symName: __ZN4core3str5count23char_count_general_case17h70df39afcdec0f69E, symObjAddr: 0xFE90, symBinAddr: 0x51010, symSize: 0xC0 }
  - { offsetInCU: 0x64EA, offset: 0xC4937, size: 0x8, addend: 0x0, symName: __ZN4core3str6traits23str_index_overflow_fail17hca1c64009da7550cE, symObjAddr: 0x101E0, symBinAddr: 0x55340, symSize: 0x40 }
  - { offsetInCU: 0x6541, offset: 0xC498E, size: 0x8, addend: 0x0, symName: __ZN4core3str8converts9from_utf817hbfae1c12ba0f752dE, symObjAddr: 0xF4B0, symBinAddr: 0x50840, symSize: 0x210 }
  - { offsetInCU: 0x65AF, offset: 0xC49FC, size: 0x8, addend: 0x0, symName: '__ZN87_$LT$core..str..lossy..Utf8Chunks$u20$as$u20$core..iter..traits..iterator..Iterator$GT$4next17h3143161bfe02572dE', symObjAddr: 0x10D20, symBinAddr: 0x51710, symSize: 0x1C0 }
  - { offsetInCU: 0x67A8, offset: 0xC4BF5, size: 0x8, addend: 0x0, symName: __ZN4core3str16slice_error_fail17h37538355c87ca0baE, symObjAddr: 0x10FA0, symBinAddr: 0x55380, symSize: 0x10 }
  - { offsetInCU: 0x67C2, offset: 0xC4C0F, size: 0x8, addend: 0x0, symName: __ZN4core3str19slice_error_fail_rt17h799bbeb831541f16E, symObjAddr: 0x10FF0, symBinAddr: 0x518D0, symSize: 0x420 }
...
