---
triple:          'x86_64-apple-darwin'
binary-path:     "/Users/justinlanouette/Chaos/ChaöS-Token/hello_world/target/release/build/proc-macro-error-attr-8e5f7cd2cf62e54e/build_script_build-8e5f7cd2cf62e54e"
relocations:
  - { offsetInCU: 0x35, offset: 0x35, size: 0x8, addend: 0x0, symName: _anon.0127ed2e9b24678f456ad2661f94f37e.0.llvm.11772765228211262364, symObjAddr: 0x50, symBinAddr: 0x1000542E0, symSize: 0x0 }
  - { offsetInCU: 0xC9, offset: 0xC9, size: 0x8, addend: 0x0, symName: '__ZN3std2rt10lang_start28_$u7b$$u7b$closure$u7d$$u7d$17hefd7e0ef1aed5039E.llvm.11772765228211262364', symObjAddr: 0x30, symBinAddr: 0x100002E40, symSize: 0x10 }
  - { offsetInCU: 0x169, offset: 0x169, size: 0x8, addend: 0x0, symName: '__ZN4core3ops8function6FnOnce40call_once$u7b$$u7b$vtable.shim$u7d$$u7d$17h52eae23bb7d3fe1cE.llvm.11772765228211262364', symObjAddr: 0x40, symBinAddr: 0x100002E50, symSize: 0x10 }
  - { offsetInCU: 0x1E, offset: 0x218, size: 0x8, addend: 0x0, symName: __ZN18build_script_build4main17ha313cf6a9b217dd9E, symObjAddr: 0x0, symBinAddr: 0x100002E60, symSize: 0x60 }
  - { offsetInCU: 0x62B, offset: 0x825, size: 0x8, addend: 0x0, symName: __ZN18build_script_build4main17ha313cf6a9b217dd9E, symObjAddr: 0x0, symBinAddr: 0x100002E60, symSize: 0x60 }
  - { offsetInCU: 0x1E, offset: 0x8A2, size: 0x8, addend: 0x0, symName: __ZN3std3sys9backtrace28__rust_begin_short_backtrace17h10c90f5555461c3eE, symObjAddr: 0x0, symBinAddr: 0x100002F00, symSize: 0x8 }
  - { offsetInCU: 0xBF, offset: 0x943, size: 0x8, addend: 0x0, symName: __ZN3std3sys9backtrace28__rust_begin_short_backtrace17h10c90f5555461c3eE, symObjAddr: 0x0, symBinAddr: 0x100002F00, symSize: 0x8 }
  - { offsetInCU: 0x1E, offset: 0x9E8, size: 0x8, addend: 0x0, symName: '__ZN4core3ptr251drop_in_place$LT$alloc..vec..Vec$LT$alloc..boxed..Box$LT$dyn$u20$core..ops..function..FnMut$LT$$LP$$RP$$GT$$u2b$Output$u20$$u3d$$u20$core..result..Result$LT$$LP$$RP$$C$std..io..error..Error$GT$$u2b$core..marker..Sync$u2b$core..marker..Send$GT$$GT$$GT$17h3c9d7bc4655cc73fE', symObjAddr: 0x0, symBinAddr: 0x100002F50, symSize: 0x60 }
  - { offsetInCU: 0x5A7, offset: 0xF71, size: 0x8, addend: 0x0, symName: '__ZN4core3ptr251drop_in_place$LT$alloc..vec..Vec$LT$alloc..boxed..Box$LT$dyn$u20$core..ops..function..FnMut$LT$$LP$$RP$$GT$$u2b$Output$u20$$u3d$$u20$core..result..Result$LT$$LP$$RP$$C$std..io..error..Error$GT$$u2b$core..marker..Sync$u2b$core..marker..Send$GT$$GT$$GT$17h3c9d7bc4655cc73fE', symObjAddr: 0x0, symBinAddr: 0x100002F50, symSize: 0x60 }
  - { offsetInCU: 0xC7D, offset: 0x1647, size: 0x8, addend: 0x0, symName: '__ZN4core3ptr42drop_in_place$LT$std..process..Command$GT$17h158af2a2861b3955E', symObjAddr: 0x60, symBinAddr: 0x100002FB0, symSize: 0x250 }
  - { offsetInCU: 0x2F74, offset: 0x393E, size: 0x8, addend: 0x0, symName: '__ZN81_$LT$core..str..pattern..CharSearcher$u20$as$u20$core..str..pattern..Searcher$GT$10next_match17had7e2e2870f26130E', symObjAddr: 0x8D0, symBinAddr: 0x100003820, symSize: 0x210 }
  - { offsetInCU: 0x5891, offset: 0x625B, size: 0x8, addend: 0x0, symName: '__ZN13version_check43version_and_date_from_rustc_verbose_version28_$u7b$$u7b$closure$u7d$$u7d$17h47f1df8386dea9ffE', symObjAddr: 0xAE0, symBinAddr: 0x100003A30, symSize: 0x170 }
  - { offsetInCU: 0x6045, offset: 0x6A0F, size: 0x8, addend: 0x0, symName: __ZN13version_check20get_version_and_date17h2037c7e9e8d4b628E, symObjAddr: 0xC50, symBinAddr: 0x100003BA0, symSize: 0xC30 }
  - { offsetInCU: 0x9613, offset: 0x9FDD, size: 0x8, addend: 0x0, symName: __ZN13version_check14is_max_version17h1656ababd0e83f7aE, symObjAddr: 0x1B50, symBinAddr: 0x1000047D0, symSize: 0x50 }
  - { offsetInCU: 0xA51C, offset: 0xAEE6, size: 0x8, addend: 0x0, symName: '__ZN4core3str4iter22SplitInternal$LT$P$GT$19next_back_inclusive17hb6f6676778550ca8E', symObjAddr: 0x2B0, symBinAddr: 0x100003200, symSize: 0x1D0 }
  - { offsetInCU: 0xAA34, offset: 0xB3FE, size: 0x8, addend: 0x0, symName: '__ZN4core3str4iter22SplitInternal$LT$P$GT$4next17h4b20fcf8a9b830d4E', symObjAddr: 0x480, symBinAddr: 0x1000033D0, symSize: 0x260 }
  - { offsetInCU: 0xAFD3, offset: 0xB99D, size: 0x8, addend: 0x0, symName: __ZN4core3str7pattern14TwoWaySearcher4next17h064f2d682bb70d04E, symObjAddr: 0x6E0, symBinAddr: 0x100003630, symSize: 0x1F0 }
  - { offsetInCU: 0xB5C, offset: 0xE4DE, size: 0x8, addend: 0x0, symName: '__ZN4core3str21_$LT$impl$u20$str$GT$12trim_matches17h5ab6ec97cf7087a8E', symObjAddr: 0x40, symBinAddr: 0x100004820, symSize: 0x2A0 }
  - { offsetInCU: 0x1430, offset: 0xEDB2, size: 0x8, addend: 0x0, symName: '__ZN4core3str21_$LT$impl$u20$str$GT$16trim_end_matches17h61aaf09a2aae95e7E', symObjAddr: 0x2E0, symBinAddr: 0x100004AC0, symSize: 0x150 }
  - { offsetInCU: 0x18D5, offset: 0xF257, size: 0x8, addend: 0x0, symName: '__ZN4core3str21_$LT$impl$u20$str$GT$16trim_end_matches17h6a710d436e372db4E', symObjAddr: 0x430, symBinAddr: 0x100004C10, symSize: 0x370 }
  - { offsetInCU: 0x1C6B, offset: 0xF5ED, size: 0x8, addend: 0x0, symName: '__ZN4core3str21_$LT$impl$u20$str$GT$18trim_start_matches17h1464a92c749f6de1E', symObjAddr: 0xC00, symBinAddr: 0x100004F80, symSize: 0x190 }
  - { offsetInCU: 0x13BA, offset: 0x12001, size: 0x8, addend: 0x0, symName: '__ZN4core3str4iter22SplitInternal$LT$P$GT$4next17hc791b27e7bb9ac2dE', symObjAddr: 0x50, symBinAddr: 0x100005110, symSize: 0x210 }
  - { offsetInCU: 0x1BC6, offset: 0x1280D, size: 0x8, addend: 0x0, symName: __ZN13version_check7version7Version4read17h5ef72b55034f01a2E, symObjAddr: 0x260, symBinAddr: 0x100005320, symSize: 0xC0 }
  - { offsetInCU: 0x2017, offset: 0x12C5E, size: 0x8, addend: 0x0, symName: __ZN13version_check7version7Version5parse17hcb4ff462acd1751dE, symObjAddr: 0x320, symBinAddr: 0x1000053E0, symSize: 0x180 }
  - { offsetInCU: 0x20C, offset: 0x13465, size: 0x8, addend: 0x0, symName: '__ZN99_$LT$alloc..collections..btree..map..BTreeMap$LT$K$C$V$C$A$GT$$u20$as$u20$core..ops..drop..Drop$GT$4drop17hdee40fe4ecb83c01E', symObjAddr: 0x480, symBinAddr: 0x100005940, symSize: 0xF0 }
  - { offsetInCU: 0x1B34, offset: 0x14D8D, size: 0x8, addend: 0x0, symName: '__ZN5alloc11collections5btree3map25IntoIter$LT$K$C$V$C$A$GT$10dying_next17h9c6bcbbbf70240b7E.llvm.10448863557395324608', symObjAddr: 0xA0, symBinAddr: 0x100005560, symSize: 0x3E0 }
  - { offsetInCU: 0x1E, offset: 0x162F6, size: 0x8, addend: 0x0, symName: '__ZN4core3ptr228drop_in_place$LT$alloc..boxed..Box$LT$dyn$u20$core..ops..function..FnMut$LT$$LP$$RP$$GT$$u2b$Output$u20$$u3d$$u20$core..result..Result$LT$$LP$$RP$$C$std..io..error..Error$GT$$u2b$core..marker..Sync$u2b$core..marker..Send$GT$$GT$17h4388004c4e078e2bE.llvm.17904359888048126154', symObjAddr: 0x0, symBinAddr: 0x100005A30, symSize: 0x70 }
  - { offsetInCU: 0x39B, offset: 0x16673, size: 0x8, addend: 0x0, symName: '__ZN4core3ptr228drop_in_place$LT$alloc..boxed..Box$LT$dyn$u20$core..ops..function..FnMut$LT$$LP$$RP$$GT$$u2b$Output$u20$$u3d$$u20$core..result..Result$LT$$LP$$RP$$C$std..io..error..Error$GT$$u2b$core..marker..Sync$u2b$core..marker..Send$GT$$GT$17h4388004c4e078e2bE.llvm.17904359888048126154', symObjAddr: 0x0, symBinAddr: 0x100005A30, symSize: 0x70 }
  - { offsetInCU: 0x7D9, offset: 0x16AB1, size: 0x8, addend: 0x0, symName: '__ZN70_$LT$alloc..vec..Vec$LT$T$C$A$GT$$u20$as$u20$core..ops..drop..Drop$GT$4drop17h4355fe840d55a519E', symObjAddr: 0x70, symBinAddr: 0x100005AA0, symSize: 0xC0 }
  - { offsetInCU: 0x1E, offset: 0x16E44, size: 0x8, addend: 0x0, symName: '__ZN108_$LT$alloc..collections..btree..map..Iter$LT$K$C$V$GT$$u20$as$u20$core..iter..traits..iterator..Iterator$GT$4next17h04aa8e72a2b84807E', symObjAddr: 0x0, symBinAddr: 0x100005B60, symSize: 0x230 }
  - { offsetInCU: 0x433, offset: 0x17259, size: 0x8, addend: 0x0, symName: '__ZN5alloc11collections5btree4node208Handle$LT$alloc..collections..btree..node..NodeRef$LT$alloc..collections..btree..node..marker..Mut$C$K$C$V$C$alloc..collections..btree..node..marker..Leaf$GT$$C$alloc..collections..btree..node..marker..KV$GT$5split17h1f12005f03d13861E', symObjAddr: 0x12190, symBinAddr: 0x1000153F0, symSize: 0x210 }
  - { offsetInCU: 0x910, offset: 0x17736, size: 0x8, addend: 0x0, symName: '__ZN5alloc11collections5btree4node212Handle$LT$alloc..collections..btree..node..NodeRef$LT$alloc..collections..btree..node..marker..Mut$C$K$C$V$C$alloc..collections..btree..node..marker..Internal$GT$$C$alloc..collections..btree..node..marker..KV$GT$5split17hd8569dabd778bed9E', symObjAddr: 0x128F0, symBinAddr: 0x100015600, symSize: 0x320 }
  - { offsetInCU: 0x1014, offset: 0x17E3A, size: 0x8, addend: 0x0, symName: '__ZN5alloc11collections5btree6remove259_$LT$impl$u20$alloc..collections..btree..node..Handle$LT$alloc..collections..btree..node..NodeRef$LT$alloc..collections..btree..node..marker..Mut$C$K$C$V$C$alloc..collections..btree..node..marker..Leaf$GT$$C$alloc..collections..btree..node..marker..KV$GT$$GT$14remove_leaf_kv17ha2df21f3330f0df9E', symObjAddr: 0x138F0, symBinAddr: 0x100016600, symSize: 0x9A0 }
  - { offsetInCU: 0x2539, offset: 0x1935F, size: 0x8, addend: 0x0, symName: '__ZN5alloc11collections5btree4node29BalancingContext$LT$K$C$V$GT$15bulk_steal_left17h52125f0a084890d6E', symObjAddr: 0x12C10, symBinAddr: 0x100015920, symSize: 0x400 }
  - { offsetInCU: 0x2AAD, offset: 0x198D3, size: 0x8, addend: 0x0, symName: '__ZN5alloc11collections5btree4node29BalancingContext$LT$K$C$V$GT$16bulk_steal_right17h02bc79a16ac599cfE', symObjAddr: 0x13010, symBinAddr: 0x100015D20, symSize: 0x4F0 }
  - { offsetInCU: 0x3102, offset: 0x19F28, size: 0x8, addend: 0x0, symName: '__ZN5alloc11collections5btree4node29BalancingContext$LT$K$C$V$GT$8do_merge17h6a15c76d9e623ed0E', symObjAddr: 0x13500, symBinAddr: 0x100016210, symSize: 0x3F0 }
  - { offsetInCU: 0x376C, offset: 0x1A592, size: 0x8, addend: 0x0, symName: '__ZN108_$LT$alloc..collections..btree..map..Iter$LT$K$C$V$GT$$u20$as$u20$core..iter..traits..iterator..Iterator$GT$4next17h04aa8e72a2b84807E', symObjAddr: 0x0, symBinAddr: 0x100005B60, symSize: 0x230 }
  - { offsetInCU: 0x3AD7, offset: 0x1A8FD, size: 0x8, addend: 0x0, symName: '__ZN5alloc11collections5btree3map25BTreeMap$LT$K$C$V$C$A$GT$6insert17h72bbdeeb7fae4170E', symObjAddr: 0xF830, symBinAddr: 0x100013950, symSize: 0xEA0 }
  - { offsetInCU: 0x4F4A, offset: 0x1BD70, size: 0x8, addend: 0x0, symName: '__ZN5alloc11collections5btree3map25IntoIter$LT$K$C$V$C$A$GT$10dying_next17h18a81d86214d4c3fE', symObjAddr: 0x11590, symBinAddr: 0x1000147F0, symSize: 0x400 }
  - { offsetInCU: 0x52D2, offset: 0x1C0F8, size: 0x8, addend: 0x0, symName: '__ZN5alloc11collections5btree3map25IntoIter$LT$K$C$V$C$A$GT$10dying_next17h46269187b1d1f0d5E', symObjAddr: 0x11990, symBinAddr: 0x100014BF0, symSize: 0x400 }
  - { offsetInCU: 0x565A, offset: 0x1C480, size: 0x8, addend: 0x0, symName: '__ZN5alloc11collections5btree3map25IntoIter$LT$K$C$V$C$A$GT$10dying_next17hd102cd7efdb59261E', symObjAddr: 0x11D90, symBinAddr: 0x100014FF0, symSize: 0x400 }
  - { offsetInCU: 0x5F62, offset: 0x1CD88, size: 0x8, addend: 0x0, symName: '__ZN5alloc7raw_vec19RawVec$LT$T$C$A$GT$8grow_one17h1b2de17ded80b0efE', symObjAddr: 0x15320, symBinAddr: 0x100017320, symSize: 0xC0 }
  - { offsetInCU: 0x60AE, offset: 0x1CED4, size: 0x8, addend: 0x0, symName: '__ZN5alloc7raw_vec19RawVec$LT$T$C$A$GT$8grow_one17h1ed5ddb334986877E', symObjAddr: 0x153E0, symBinAddr: 0x1000173E0, symSize: 0xB0 }
  - { offsetInCU: 0x61FA, offset: 0x1D020, size: 0x8, addend: 0x0, symName: '__ZN5alloc7raw_vec19RawVec$LT$T$C$A$GT$8grow_one17h1f2ce5cd493bf47dE', symObjAddr: 0x15490, symBinAddr: 0x100017490, symSize: 0xC0 }
  - { offsetInCU: 0x6346, offset: 0x1D16C, size: 0x8, addend: 0x0, symName: '__ZN5alloc7raw_vec19RawVec$LT$T$C$A$GT$8grow_one17h1f82d5665bc3baa6E', symObjAddr: 0x15550, symBinAddr: 0x100017550, symSize: 0xB0 }
  - { offsetInCU: 0x6492, offset: 0x1D2B8, size: 0x8, addend: 0x0, symName: '__ZN5alloc7raw_vec19RawVec$LT$T$C$A$GT$8grow_one17h23f2ece7dc7f8ac4E', symObjAddr: 0x15600, symBinAddr: 0x100017600, symSize: 0xC0 }
  - { offsetInCU: 0x65DE, offset: 0x1D404, size: 0x8, addend: 0x0, symName: '__ZN5alloc7raw_vec19RawVec$LT$T$C$A$GT$8grow_one17h2d7cf4f58f17dc0bE', symObjAddr: 0x156C0, symBinAddr: 0x1000176C0, symSize: 0xB0 }
  - { offsetInCU: 0x672A, offset: 0x1D550, size: 0x8, addend: 0x0, symName: '__ZN5alloc7raw_vec19RawVec$LT$T$C$A$GT$8grow_one17h2ebad2aca9269935E', symObjAddr: 0x15770, symBinAddr: 0x100017770, symSize: 0xB0 }
  - { offsetInCU: 0x6876, offset: 0x1D69C, size: 0x8, addend: 0x0, symName: '__ZN5alloc7raw_vec19RawVec$LT$T$C$A$GT$8grow_one17h6d578489e6325525E', symObjAddr: 0x15820, symBinAddr: 0x100017820, symSize: 0xC0 }
  - { offsetInCU: 0x69D0, offset: 0x1D7F6, size: 0x8, addend: 0x0, symName: '__ZN5alloc7raw_vec19RawVec$LT$T$C$A$GT$8grow_one17h76cd5bb8e3249a81E', symObjAddr: 0x158E0, symBinAddr: 0x1000178E0, symSize: 0xB0 }
  - { offsetInCU: 0x6B1C, offset: 0x1D942, size: 0x8, addend: 0x0, symName: '__ZN5alloc7raw_vec19RawVec$LT$T$C$A$GT$8grow_one17h8d39e6a3bd3ed510E', symObjAddr: 0x15A40, symBinAddr: 0x100017990, symSize: 0xC0 }
  - { offsetInCU: 0x6C68, offset: 0x1DA8E, size: 0x8, addend: 0x0, symName: '__ZN5alloc7raw_vec19RawVec$LT$T$C$A$GT$8grow_one17h9202c252dcd4a0d8E', symObjAddr: 0x15B00, symBinAddr: 0x100017A50, symSize: 0xC0 }
  - { offsetInCU: 0x6DB4, offset: 0x1DBDA, size: 0x8, addend: 0x0, symName: '__ZN5alloc7raw_vec19RawVec$LT$T$C$A$GT$8grow_one17hb4b7b3f2aea33bb4E', symObjAddr: 0x15BC0, symBinAddr: 0x100017B10, symSize: 0xC0 }
  - { offsetInCU: 0x6EE4, offset: 0x1DD0A, size: 0x8, addend: 0x0, symName: '__ZN5alloc7raw_vec19RawVec$LT$T$C$A$GT$8grow_one17hd91c9d4c6a9bca00E', symObjAddr: 0x15C80, symBinAddr: 0x100017BD0, symSize: 0xA0 }
  - { offsetInCU: 0x78C2, offset: 0x1E6E8, size: 0x8, addend: 0x0, symName: __ZN5alloc7raw_vec11finish_grow17hcddad2319b47952dE, symObjAddr: 0x14F10, symBinAddr: 0x100017280, symSize: 0xA0 }
  - { offsetInCU: 0x794E, offset: 0x1E774, size: 0x8, addend: 0x0, symName: '__ZN5alloc7raw_vec19RawVec$LT$T$C$A$GT$7reserve21do_reserve_and_handle17h196a69aba8c2d956E', symObjAddr: 0x14FB0, symBinAddr: 0x10004ACC0, symSize: 0xC0 }
  - { offsetInCU: 0x7A7E, offset: 0x1E8A4, size: 0x8, addend: 0x0, symName: '__ZN5alloc7raw_vec19RawVec$LT$T$C$A$GT$7reserve21do_reserve_and_handle17h402fc453247f963fE', symObjAddr: 0x15070, symBinAddr: 0x10004AD80, symSize: 0xB0 }
  - { offsetInCU: 0x7BAE, offset: 0x1E9D4, size: 0x8, addend: 0x0, symName: '__ZN5alloc7raw_vec19RawVec$LT$T$C$A$GT$7reserve21do_reserve_and_handle17h83fb1e8109159aa3E', symObjAddr: 0x151C0, symBinAddr: 0x10004AE30, symSize: 0xA0 }
  - { offsetInCU: 0x7CC8, offset: 0x1EAEE, size: 0x8, addend: 0x0, symName: '__ZN5alloc7raw_vec19RawVec$LT$T$C$A$GT$7reserve21do_reserve_and_handle17h86549d0267a347f8E', symObjAddr: 0x15260, symBinAddr: 0x10004AED0, symSize: 0xC0 }
  - { offsetInCU: 0x8F39, offset: 0x1FD5F, size: 0x8, addend: 0x0, symName: '__ZN64_$LT$alloc..ffi..c_str..NulError$u20$as$u20$core..fmt..Debug$GT$3fmt17h75cdff7a4e3710ebE', symObjAddr: 0x1ED80, symBinAddr: 0x100020CD0, symSize: 0x50 }
  - { offsetInCU: 0x908D, offset: 0x1FEB3, size: 0x8, addend: 0x0, symName: '__ZN5alloc4sync16Arc$LT$T$C$A$GT$9drop_slow17h271286c795991e6eE', symObjAddr: 0x14C30, symBinAddr: 0x100016FA0, symSize: 0x90 }
  - { offsetInCU: 0x9206, offset: 0x2002C, size: 0x8, addend: 0x0, symName: '__ZN5alloc4sync16Arc$LT$T$C$A$GT$9drop_slow17h4eee9a7bc87850e1E', symObjAddr: 0x14CC0, symBinAddr: 0x100017030, symSize: 0x80 }
  - { offsetInCU: 0x9485, offset: 0x202AB, size: 0x8, addend: 0x0, symName: '__ZN5alloc4sync16Arc$LT$T$C$A$GT$9drop_slow17h5baac5b2e7af83faE', symObjAddr: 0x14D40, symBinAddr: 0x1000170B0, symSize: 0x60 }
  - { offsetInCU: 0x967B, offset: 0x204A1, size: 0x8, addend: 0x0, symName: '__ZN5alloc4sync16Arc$LT$T$C$A$GT$9drop_slow17h9ffcc698eacdf57eE', symObjAddr: 0x14DA0, symBinAddr: 0x100017110, symSize: 0x30 }
  - { offsetInCU: 0x977C, offset: 0x205A2, size: 0x8, addend: 0x0, symName: '__ZN5alloc4sync16Arc$LT$T$C$A$GT$9drop_slow17hbd808d258d0d1d92E', symObjAddr: 0x14DD0, symBinAddr: 0x100017140, symSize: 0xC0 }
  - { offsetInCU: 0x99FE, offset: 0x20824, size: 0x8, addend: 0x0, symName: '__ZN5alloc4sync16Arc$LT$T$C$A$GT$9drop_slow17he929e03fbfc85295E', symObjAddr: 0x14E90, symBinAddr: 0x100017200, symSize: 0x80 }
  - { offsetInCU: 0xA319, offset: 0x2113F, size: 0x8, addend: 0x0, symName: '__ZN58_$LT$alloc..string..String$u20$as$u20$core..fmt..Debug$GT$3fmt17h46296bde07017096E', symObjAddr: 0xF670, symBinAddr: 0x100013790, symSize: 0x20 }
  - { offsetInCU: 0xA3F9, offset: 0x2121F, size: 0x8, addend: 0x0, symName: '__ZN58_$LT$alloc..string..String$u20$as$u20$core..fmt..Write$GT$10write_char17h04bc467bd68a934bE', symObjAddr: 0xF690, symBinAddr: 0x1000137B0, symSize: 0x140 }
  - { offsetInCU: 0xA598, offset: 0x213BE, size: 0x8, addend: 0x0, symName: '__ZN58_$LT$alloc..string..String$u20$as$u20$core..fmt..Write$GT$9write_str17h46a93205c3443fbaE', symObjAddr: 0xF7D0, symBinAddr: 0x1000138F0, symSize: 0x60 }
  - { offsetInCU: 0xA683, offset: 0x214A9, size: 0x8, addend: 0x0, symName: '__ZN60_$LT$alloc..string..String$u20$as$u20$core..fmt..Display$GT$3fmt17h0d0eb46f3054e2dfE', symObjAddr: 0x1ED60, symBinAddr: 0x100020CB0, symSize: 0x20 }
  - { offsetInCU: 0xC3E8, offset: 0x2320E, size: 0x8, addend: 0x0, symName: '__ZN4core3ptr104drop_in_place$LT$alloc..vec..Vec$LT$$LP$usize$C$std..backtrace_rs..symbolize..gimli..Mapping$RP$$GT$$GT$17hd64c3526ec62e9d1E', symObjAddr: 0x1900, symBinAddr: 0x100006750, symSize: 0xD0 }
  - { offsetInCU: 0xC575, offset: 0x2339B, size: 0x8, addend: 0x0, symName: '__ZN4core3ptr107drop_in_place$LT$alloc..vec..Vec$LT$$LP$std..ffi..os_str..OsString$C$std..ffi..os_str..OsString$RP$$GT$$GT$17h78469e633eb2ac26E', symObjAddr: 0x19D0, symBinAddr: 0x100006820, symSize: 0xA0 }
  - { offsetInCU: 0xC7C5, offset: 0x235EB, size: 0x8, addend: 0x0, symName: '__ZN4core3ptr107drop_in_place$LT$core..option..Option$LT$std..sys..pal..unix..process..process_common..CStringArray$GT$$GT$17hc1b13d19064d6ceaE', symObjAddr: 0x1A70, symBinAddr: 0x1000068C0, symSize: 0xB0 }
  - { offsetInCU: 0xC9E6, offset: 0x2380C, size: 0x8, addend: 0x0, symName: '__ZN4core3ptr108drop_in_place$LT$alloc..collections..btree..map..BTreeMap$LT$u64$C$gimli..read..abbrev..Abbreviation$GT$$GT$17h896b5b8e1cdcf80bE', symObjAddr: 0x1B20, symBinAddr: 0x100006970, symSize: 0xD0 }
  - { offsetInCU: 0xCBA7, offset: 0x239CD, size: 0x8, addend: 0x0, symName: '__ZN4core3ptr123drop_in_place$LT$addr2line..Context$LT$gimli..read..endian_slice..EndianSlice$LT$gimli..endianity..LittleEndian$GT$$GT$$GT$17h2ef49b54e261394dE', symObjAddr: 0x1C70, symBinAddr: 0x100006A40, symSize: 0x130 }
  - { offsetInCU: 0xCEAD, offset: 0x23CD3, size: 0x8, addend: 0x0, symName: '__ZN4core3ptr123drop_in_place$LT$addr2line..ResUnit$LT$gimli..read..endian_slice..EndianSlice$LT$gimli..endianity..LittleEndian$GT$$GT$$GT$17hdeaa58f877242283E', symObjAddr: 0x1DA0, symBinAddr: 0x100006B70, symSize: 0x100 }
  - { offsetInCU: 0xD06E, offset: 0x23E94, size: 0x8, addend: 0x0, symName: '__ZN4core3ptr123drop_in_place$LT$addr2line..SupUnit$LT$gimli..read..endian_slice..EndianSlice$LT$gimli..endianity..LittleEndian$GT$$GT$$GT$17h8208c1c32df374e8E', symObjAddr: 0x1EA0, symBinAddr: 0x100006C70, symSize: 0x50 }
  - { offsetInCU: 0xD126, offset: 0x23F4C, size: 0x8, addend: 0x0, symName: '__ZN4core3ptr124drop_in_place$LT$alloc..collections..btree..map..BTreeMap$LT$std..ffi..os_str..OsString$C$std..ffi..os_str..OsString$GT$$GT$17h77764d00b2baf504E', symObjAddr: 0x1EF0, symBinAddr: 0x100006CC0, symSize: 0xF0 }
  - { offsetInCU: 0xD32D, offset: 0x24153, size: 0x8, addend: 0x0, symName: '__ZN4core3ptr124drop_in_place$LT$alloc..collections..btree..map..IntoIter$LT$std..ffi..os_str..OsString$C$std..ffi..os_str..OsString$GT$$GT$17h2b9add41309c8a16E', symObjAddr: 0x1FE0, symBinAddr: 0x100006DB0, symSize: 0xA0 }
  - { offsetInCU: 0xD4E2, offset: 0x24308, size: 0x8, addend: 0x0, symName: '__ZN4core3ptr130drop_in_place$LT$gimli..read..dwarf..Dwarf$LT$gimli..read..endian_slice..EndianSlice$LT$gimli..endianity..LittleEndian$GT$$GT$$GT$17he2c802b894b6a339E', symObjAddr: 0x20E0, symBinAddr: 0x100006E50, symSize: 0x60 }
  - { offsetInCU: 0xD54B, offset: 0x24371, size: 0x8, addend: 0x0, symName: '__ZN4core3ptr137drop_in_place$LT$gimli..read..dwarf..Unit$LT$gimli..read..endian_slice..EndianSlice$LT$gimli..endianity..LittleEndian$GT$$C$usize$GT$$GT$17hecb88828dcfed016E', symObjAddr: 0x21B0, symBinAddr: 0x100006EB0, symSize: 0x50 }
  - { offsetInCU: 0xD609, offset: 0x2442F, size: 0x8, addend: 0x0, symName: '__ZN4core3ptr144drop_in_place$LT$alloc..vec..Vec$LT$core..option..Option$LT$core..option..Option$LT$std..backtrace_rs..symbolize..gimli..Mapping$GT$$GT$$GT$$GT$17hc9f7f19bdef76e20E', symObjAddr: 0x2200, symBinAddr: 0x100006F00, symSize: 0x130 }
  - { offsetInCU: 0xD79E, offset: 0x245C4, size: 0x8, addend: 0x0, symName: '__ZN4core3ptr146drop_in_place$LT$alloc..vec..Vec$LT$addr2line..ResUnit$LT$gimli..read..endian_slice..EndianSlice$LT$gimli..endianity..LittleEndian$GT$$GT$$GT$$GT$17hd3feb0dd7b6341c0E', symObjAddr: 0x2330, symBinAddr: 0x100007030, symSize: 0xD0 }
  - { offsetInCU: 0xD8F9, offset: 0x2471F, size: 0x8, addend: 0x0, symName: '__ZN4core3ptr146drop_in_place$LT$alloc..vec..Vec$LT$addr2line..SupUnit$LT$gimli..read..endian_slice..EndianSlice$LT$gimli..endianity..LittleEndian$GT$$GT$$GT$$GT$17hd3b520dc1ec8b244E', symObjAddr: 0x2400, symBinAddr: 0x100007100, symSize: 0x100 }
  - { offsetInCU: 0xDAC0, offset: 0x248E6, size: 0x8, addend: 0x0, symName: '__ZN4core3ptr158drop_in_place$LT$alloc..boxed..Box$LT$$u5b$addr2line..ResUnit$LT$gimli..read..endian_slice..EndianSlice$LT$gimli..endianity..LittleEndian$GT$$GT$$u5d$$GT$$GT$17ha6be907e1e9cc0b3E', symObjAddr: 0x2600, symBinAddr: 0x100007200, symSize: 0xC0 }
  - { offsetInCU: 0xDBB5, offset: 0x249DB, size: 0x8, addend: 0x0, symName: '__ZN4core3ptr158drop_in_place$LT$alloc..boxed..Box$LT$$u5b$addr2line..SupUnit$LT$gimli..read..endian_slice..EndianSlice$LT$gimli..endianity..LittleEndian$GT$$GT$$u5d$$GT$$GT$17hf844b2c47a76cbe5E', symObjAddr: 0x26C0, symBinAddr: 0x1000072C0, symSize: 0xE0 }
  - { offsetInCU: 0xDD4E, offset: 0x24B74, size: 0x8, addend: 0x0, symName: '__ZN4core3ptr159drop_in_place$LT$alloc..sync..ArcInner$LT$gimli..read..dwarf..Dwarf$LT$gimli..read..endian_slice..EndianSlice$LT$gimli..endianity..LittleEndian$GT$$GT$$GT$$GT$17hd21332c93e9cd0a3E', symObjAddr: 0x27A0, symBinAddr: 0x1000073A0, symSize: 0x60 }
  - { offsetInCU: 0xDE36, offset: 0x24C5C, size: 0x8, addend: 0x0, symName: '__ZN4core3ptr174drop_in_place$LT$core..result..Result$LT$addr2line..FrameIter$LT$gimli..read..endian_slice..EndianSlice$LT$gimli..endianity..LittleEndian$GT$$GT$$C$gimli..read..Error$GT$$GT$17h37a4d09a5bab7734E', symObjAddr: 0x2800, symBinAddr: 0x100007400, symSize: 0x40 }
  - { offsetInCU: 0xDF3A, offset: 0x24D60, size: 0x8, addend: 0x0, symName: '__ZN4core3ptr175drop_in_place$LT$std..sync..reentrant_lock..ReentrantLockGuard$LT$core..cell..RefCell$LT$std..io..buffered..linewriter..LineWriter$LT$std..io..stdio..StdoutRaw$GT$$GT$$GT$$GT$17hd928a7e05015ad8eE', symObjAddr: 0x2840, symBinAddr: 0x100007440, symSize: 0x30 }
  - { offsetInCU: 0xE073, offset: 0x24E99, size: 0x8, addend: 0x0, symName: '__ZN4core3ptr181drop_in_place$LT$core..option..Option$LT$gimli..read..line..IncompleteLineProgram$LT$gimli..read..endian_slice..EndianSlice$LT$gimli..endianity..LittleEndian$GT$$C$usize$GT$$GT$$GT$17ha4c6928a2cf5b75aE', symObjAddr: 0x2870, symBinAddr: 0x100007470, symSize: 0xA0 }
  - { offsetInCU: 0xE337, offset: 0x2515D, size: 0x8, addend: 0x0, symName: '__ZN4core3ptr184drop_in_place$LT$core..result..Result$LT$addr2line..function..Functions$LT$gimli..read..endian_slice..EndianSlice$LT$gimli..endianity..LittleEndian$GT$$GT$$C$gimli..read..Error$GT$$GT$17h559cfbb2de29274eE', symObjAddr: 0x2910, symBinAddr: 0x100007510, symSize: 0xE0 }
  - { offsetInCU: 0xE608, offset: 0x2542E, size: 0x8, addend: 0x0, symName: '__ZN4core3ptr215drop_in_place$LT$std..sys..thread_local..native..lazy..State$LT$core..cell..Cell$LT$core..option..Option$LT$alloc..sync..Arc$LT$std..sync..mutex..Mutex$LT$alloc..vec..Vec$LT$u8$GT$$GT$$GT$$GT$$GT$$C$$LP$$RP$$GT$$GT$17ha69e16112f70cc34E', symObjAddr: 0x2A10, symBinAddr: 0x1000075F0, symSize: 0x30 }
  - { offsetInCU: 0xE68D, offset: 0x254B3, size: 0x8, addend: 0x0, symName: '__ZN4core3ptr250drop_in_place$LT$$LP$gimli..read..UnitOffset$C$addr2line..lazy..LazyCell$LT$core..result..Result$LT$addr2line..function..Function$LT$gimli..read..endian_slice..EndianSlice$LT$gimli..endianity..LittleEndian$GT$$GT$$C$gimli..read..Error$GT$$GT$$RP$$GT$17hf5dc2e31b3559957E', symObjAddr: 0x2A40, symBinAddr: 0x100007620, symSize: 0x60 }
  - { offsetInCU: 0xE6A4, offset: 0x254CA, size: 0x8, addend: 0x0, symName: '__ZN4core3ptr250drop_in_place$LT$$LP$gimli..read..UnitOffset$C$addr2line..lazy..LazyCell$LT$core..result..Result$LT$addr2line..function..Function$LT$gimli..read..endian_slice..EndianSlice$LT$gimli..endianity..LittleEndian$GT$$GT$$C$gimli..read..Error$GT$$GT$$RP$$GT$17hf5dc2e31b3559957E', symObjAddr: 0x2A40, symBinAddr: 0x100007620, symSize: 0x60 }
  - { offsetInCU: 0xE6B9, offset: 0x254DF, size: 0x8, addend: 0x0, symName: '__ZN4core3ptr250drop_in_place$LT$$LP$gimli..read..UnitOffset$C$addr2line..lazy..LazyCell$LT$core..result..Result$LT$addr2line..function..Function$LT$gimli..read..endian_slice..EndianSlice$LT$gimli..endianity..LittleEndian$GT$$GT$$C$gimli..read..Error$GT$$GT$$RP$$GT$17hf5dc2e31b3559957E', symObjAddr: 0x2A40, symBinAddr: 0x100007620, symSize: 0x60 }
  - { offsetInCU: 0xE6CE, offset: 0x254F4, size: 0x8, addend: 0x0, symName: '__ZN4core3ptr250drop_in_place$LT$$LP$gimli..read..UnitOffset$C$addr2line..lazy..LazyCell$LT$core..result..Result$LT$addr2line..function..Function$LT$gimli..read..endian_slice..EndianSlice$LT$gimli..endianity..LittleEndian$GT$$GT$$C$gimli..read..Error$GT$$GT$$RP$$GT$17hf5dc2e31b3559957E', symObjAddr: 0x2A40, symBinAddr: 0x100007620, symSize: 0x60 }
  - { offsetInCU: 0xE80D, offset: 0x25633, size: 0x8, addend: 0x0, symName: '__ZN4core3ptr273drop_in_place$LT$alloc..vec..Vec$LT$$LP$gimli..read..UnitOffset$C$addr2line..lazy..LazyCell$LT$core..result..Result$LT$addr2line..function..Function$LT$gimli..read..endian_slice..EndianSlice$LT$gimli..endianity..LittleEndian$GT$$GT$$C$gimli..read..Error$GT$$GT$$RP$$GT$$GT$17heb6aa6615a37ff1aE', symObjAddr: 0x2AA0, symBinAddr: 0x100007680, symSize: 0xC0 }
  - { offsetInCU: 0xEA22, offset: 0x25848, size: 0x8, addend: 0x0, symName: '__ZN4core3ptr275drop_in_place$LT$gimli..read..line..LineRows$LT$gimli..read..endian_slice..EndianSlice$LT$gimli..endianity..LittleEndian$GT$$C$gimli..read..line..IncompleteLineProgram$LT$gimli..read..endian_slice..EndianSlice$LT$gimli..endianity..LittleEndian$GT$$C$usize$GT$$C$usize$GT$$GT$17hc6e119e385b7ab77E', symObjAddr: 0x2B60, symBinAddr: 0x100007740, symSize: 0x90 }
  - { offsetInCU: 0xEC4C, offset: 0x25A72, size: 0x8, addend: 0x0, symName: '__ZN4core3ptr280drop_in_place$LT$$LT$alloc..collections..btree..map..IntoIter$LT$K$C$V$C$A$GT$$u20$as$u20$core..ops..drop..Drop$GT$..drop..DropGuard$LT$u64$C$core..result..Result$LT$alloc..sync..Arc$LT$gimli..read..abbrev..Abbreviations$GT$$C$gimli..read..Error$GT$$C$alloc..alloc..Global$GT$$GT$17haa387ba74ff7800eE', symObjAddr: 0x2BF0, symBinAddr: 0x1000077D0, symSize: 0x80 }
  - { offsetInCU: 0xED62, offset: 0x25B88, size: 0x8, addend: 0x0, symName: '__ZN4core3ptr285drop_in_place$LT$alloc..boxed..Box$LT$$u5b$$LP$gimli..read..UnitOffset$C$addr2line..lazy..LazyCell$LT$core..result..Result$LT$addr2line..function..Function$LT$gimli..read..endian_slice..EndianSlice$LT$gimli..endianity..LittleEndian$GT$$GT$$C$gimli..read..Error$GT$$GT$$RP$$u5d$$GT$$GT$17ha9d866c795750427E', symObjAddr: 0x2C70, symBinAddr: 0x100007850, symSize: 0xA0 }
  - { offsetInCU: 0xED79, offset: 0x25B9F, size: 0x8, addend: 0x0, symName: '__ZN4core3ptr285drop_in_place$LT$alloc..boxed..Box$LT$$u5b$$LP$gimli..read..UnitOffset$C$addr2line..lazy..LazyCell$LT$core..result..Result$LT$addr2line..function..Function$LT$gimli..read..endian_slice..EndianSlice$LT$gimli..endianity..LittleEndian$GT$$GT$$C$gimli..read..Error$GT$$GT$$RP$$u5d$$GT$$GT$17ha9d866c795750427E', symObjAddr: 0x2C70, symBinAddr: 0x100007850, symSize: 0xA0 }
  - { offsetInCU: 0xF7EB, offset: 0x26611, size: 0x8, addend: 0x0, symName: '__ZN4core3ptr37drop_in_place$LT$std..env..VarsOs$GT$17h11114906b43ef652E', symObjAddr: 0x2D10, symBinAddr: 0x1000078F0, symSize: 0xB0 }
  - { offsetInCU: 0xFA95, offset: 0x268BB, size: 0x8, addend: 0x0, symName: '__ZN4core3ptr383drop_in_place$LT$core..result..Result$LT$core..option..Option$LT$alloc..boxed..Box$LT$$LP$alloc..sync..Arc$LT$gimli..read..dwarf..Dwarf$LT$gimli..read..endian_slice..EndianSlice$LT$gimli..endianity..LittleEndian$GT$$GT$$GT$$C$gimli..read..dwarf..Unit$LT$gimli..read..endian_slice..EndianSlice$LT$gimli..endianity..LittleEndian$GT$$C$usize$GT$$RP$$GT$$GT$$C$gimli..read..Error$GT$$GT$17h5734f377dfec8591E', symObjAddr: 0x2DC0, symBinAddr: 0x1000079A0, symSize: 0xB0 }
  - { offsetInCU: 0xFC96, offset: 0x26ABC, size: 0x8, addend: 0x0, symName: '__ZN4core3ptr42drop_in_place$LT$alloc..string..String$GT$17h59db15f85295d131E', symObjAddr: 0x2F60, symBinAddr: 0x100007A50, symSize: 0x20 }
  - { offsetInCU: 0xFD61, offset: 0x26B87, size: 0x8, addend: 0x0, symName: '__ZN4core3ptr42drop_in_place$LT$std..io..error..Error$GT$17h4537743dc9fddae3E', symObjAddr: 0x2F80, symBinAddr: 0x100007A70, symSize: 0xA0 }
  - { offsetInCU: 0xFFB8, offset: 0x26DDE, size: 0x8, addend: 0x0, symName: '__ZN4core3ptr44drop_in_place$LT$object..read..ObjectMap$GT$17hb75450a95801e694E', symObjAddr: 0x3020, symBinAddr: 0x100007B10, symSize: 0x50 }
  - { offsetInCU: 0x100C8, offset: 0x26EEE, size: 0x8, addend: 0x0, symName: '__ZN4core3ptr44drop_in_place$LT$std..thread..PanicGuard$GT$17h49c674bf97cb17c2E', symObjAddr: 0x30D0, symBinAddr: 0x100007B60, symSize: 0x50 }
  - { offsetInCU: 0x1011B, offset: 0x26F41, size: 0x8, addend: 0x0, symName: '__ZN4core3ptr44drop_in_place$LT$std..thread..ThreadName$GT$17h9ea89f3b915aba6cE', symObjAddr: 0x3120, symBinAddr: 0x100007BB0, symSize: 0x30 }
  - { offsetInCU: 0x101C6, offset: 0x26FEC, size: 0x8, addend: 0x0, symName: '__ZN4core3ptr46drop_in_place$LT$alloc..vec..Vec$LT$u8$GT$$GT$17h9a5e643e9b7c3ef8E', symObjAddr: 0x3150, symBinAddr: 0x100007BE0, symSize: 0x20 }
  - { offsetInCU: 0x10243, offset: 0x27069, size: 0x8, addend: 0x0, symName: '__ZN4core3ptr46drop_in_place$LT$std..io..stdio..StdinLock$GT$17h1000111f529ce114E', symObjAddr: 0x3170, symBinAddr: 0x100007C00, symSize: 0x50 }
  - { offsetInCU: 0x10376, offset: 0x2719C, size: 0x8, addend: 0x0, symName: '__ZN4core3ptr48drop_in_place$LT$alloc..ffi..c_str..NulError$GT$17hd0083903c682d5d8E', symObjAddr: 0x3210, symBinAddr: 0x100007C50, symSize: 0x20 }
  - { offsetInCU: 0x10425, offset: 0x2724B, size: 0x8, addend: 0x0, symName: '__ZN4core3ptr55drop_in_place$LT$gimli..read..abbrev..Abbreviations$GT$17ha5b955a9654883aaE', symObjAddr: 0x34F0, symBinAddr: 0x100007C70, symSize: 0x90 }
  - { offsetInCU: 0x105B9, offset: 0x273DF, size: 0x8, addend: 0x0, symName: '__ZN4core3ptr60drop_in_place$LT$gimli..read..abbrev..AbbreviationsCache$GT$17h1b2b5f77a55605caE', symObjAddr: 0x3590, symBinAddr: 0x100007D00, symSize: 0xE0 }
  - { offsetInCU: 0x10716, offset: 0x2753C, size: 0x8, addend: 0x0, symName: '__ZN4core3ptr62drop_in_place$LT$std..sys..sync..rwlock..queue..PanicGuard$GT$17h771b0fc3a251803cE', symObjAddr: 0x3670, symBinAddr: 0x100007DE0, symSize: 0x50 }
  - { offsetInCU: 0x10777, offset: 0x2759D, size: 0x8, addend: 0x0, symName: '__ZN4core3ptr65drop_in_place$LT$alloc..vec..Vec$LT$alloc..string..String$GT$$GT$17hcd9f36ca87523893E', symObjAddr: 0x36C0, symBinAddr: 0x100007E30, symSize: 0x90 }
  - { offsetInCU: 0x108C3, offset: 0x276E9, size: 0x8, addend: 0x0, symName: '__ZN4core3ptr65drop_in_place$LT$std..backtrace_rs..symbolize..gimli..Mapping$GT$17ha8f2d80facd881efE', symObjAddr: 0x3750, symBinAddr: 0x100007EC0, symSize: 0x90 }
  - { offsetInCU: 0x10979, offset: 0x2779F, size: 0x8, addend: 0x0, symName: '__ZN4core3ptr67drop_in_place$LT$alloc..vec..Vec$LT$addr2line..LineSequence$GT$$GT$17h3097d000094deec4E', symObjAddr: 0x37E0, symBinAddr: 0x100007F50, symSize: 0x90 }
  - { offsetInCU: 0x10AB8, offset: 0x278DE, size: 0x8, addend: 0x0, symName: '__ZN4core3ptr70drop_in_place$LT$alloc..vec..Vec$LT$alloc..ffi..c_str..CString$GT$$GT$17h021c146b17c82913E', symObjAddr: 0x3870, symBinAddr: 0x100007FE0, symSize: 0x80 }
  - { offsetInCU: 0x10C52, offset: 0x27A78, size: 0x8, addend: 0x0, symName: '__ZN4core3ptr70drop_in_place$LT$std..backtrace_rs..symbolize..gimli..stash..Stash$GT$17h90e0b0985b8e22d0E', symObjAddr: 0x3980, symBinAddr: 0x100008060, symSize: 0xE0 }
  - { offsetInCU: 0x10EF1, offset: 0x27D17, size: 0x8, addend: 0x0, symName: '__ZN4core3ptr71drop_in_place$LT$std..backtrace_rs..symbolize..gimli..macho..Object$GT$17h2fff3db3a7544d43E', symObjAddr: 0x3A60, symBinAddr: 0x100008140, symSize: 0x160 }
  - { offsetInCU: 0x111F7, offset: 0x2801D, size: 0x8, addend: 0x0, symName: '__ZN4core3ptr71drop_in_place$LT$std..sync..rwlock..RwLockReadGuard$LT$$LP$$RP$$GT$$GT$17h1d840147d479c1dbE', symObjAddr: 0x3C30, symBinAddr: 0x1000082A0, symSize: 0x40 }
  - { offsetInCU: 0x112A8, offset: 0x280CE, size: 0x8, addend: 0x0, symName: '__ZN4core3ptr72drop_in_place$LT$core..option..Option$LT$object..read..ObjectMap$GT$$GT$17h4ff1d16f78bfc967E', symObjAddr: 0x3C70, symBinAddr: 0x1000082E0, symSize: 0x60 }
  - { offsetInCU: 0x113CE, offset: 0x281F4, size: 0x8, addend: 0x0, symName: '__ZN4core3ptr77drop_in_place$LT$alloc..boxed..Box$LT$$u5b$alloc..string..String$u5d$$GT$$GT$17h5a079cec55cc326eE', symObjAddr: 0x3D20, symBinAddr: 0x100008340, symSize: 0x60 }
  - { offsetInCU: 0x113E5, offset: 0x2820B, size: 0x8, addend: 0x0, symName: '__ZN4core3ptr77drop_in_place$LT$alloc..boxed..Box$LT$$u5b$alloc..string..String$u5d$$GT$$GT$17h5a079cec55cc326eE', symObjAddr: 0x3D20, symBinAddr: 0x100008340, symSize: 0x60 }
  - { offsetInCU: 0x114DF, offset: 0x28305, size: 0x8, addend: 0x0, symName: '__ZN4core3ptr77drop_in_place$LT$std..panicking..begin_panic_handler..FormatStringPayload$GT$17hda64c1aa4eb7db50E', symObjAddr: 0x3D80, symBinAddr: 0x1000083A0, symSize: 0x30 }
  - { offsetInCU: 0x11591, offset: 0x283B7, size: 0x8, addend: 0x0, symName: '__ZN4core3ptr77drop_in_place$LT$std..sys..pal..unix..process..process_common..ChildPipes$GT$17hc5abfb62920ab5a8E', symObjAddr: 0x3DB0, symBinAddr: 0x1000083D0, symSize: 0x50 }
  - { offsetInCU: 0x116A0, offset: 0x284C6, size: 0x8, addend: 0x0, symName: '__ZN4core3ptr77drop_in_place$LT$std..sys..pal..unix..process..process_common..StdioPipes$GT$17h1282f5eddca9c8b1E', symObjAddr: 0x3E00, symBinAddr: 0x100008420, symSize: 0x40 }
  - { offsetInCU: 0x117DB, offset: 0x28601, size: 0x8, addend: 0x0, symName: '__ZN4core3ptr78drop_in_place$LT$core..result..Result$LT$usize$C$std..io..error..Error$GT$$GT$17h3fff780f81e24e8bE', symObjAddr: 0x3E40, symBinAddr: 0x100008460, symSize: 0x20 }
  - { offsetInCU: 0x117EF, offset: 0x28615, size: 0x8, addend: 0x0, symName: '__ZN4core3ptr79drop_in_place$LT$std..sys..pal..unix..process..process_common..CStringArray$GT$17ha3df882ee42ef0fdE', symObjAddr: 0x3E60, symBinAddr: 0x100008480, symSize: 0xA0 }
  - { offsetInCU: 0x119A6, offset: 0x287CC, size: 0x8, addend: 0x0, symName: '__ZN4core3ptr81drop_in_place$LT$core..result..Result$LT$$LP$$RP$$C$std..io..error..Error$GT$$GT$17h7d4aca425c3ff71eE', symObjAddr: 0x3F00, symBinAddr: 0x100008520, symSize: 0x20 }
  - { offsetInCU: 0x119BA, offset: 0x287E0, size: 0x8, addend: 0x0, symName: '__ZN4core3ptr84drop_in_place$LT$$LP$std..ffi..os_str..OsString$C$std..ffi..os_str..OsString$RP$$GT$17hda43f59417df7d79E', symObjAddr: 0x3F20, symBinAddr: 0x100008540, symSize: 0x50 }
  - { offsetInCU: 0x11AF6, offset: 0x2891C, size: 0x8, addend: 0x0, symName: '__ZN4core3ptr84drop_in_place$LT$alloc..sync..ArcInner$LT$gimli..read..abbrev..Abbreviations$GT$$GT$17ha88d315bc6ee2a6bE', symObjAddr: 0x3F70, symBinAddr: 0x100008590, symSize: 0x90 }
  - { offsetInCU: 0x11CA7, offset: 0x28ACD, size: 0x8, addend: 0x0, symName: '__ZN4core3ptr86drop_in_place$LT$core..result..Result$LT$addr2line..Lines$C$gimli..read..Error$GT$$GT$17h5bcb985cd394798dE', symObjAddr: 0x4000, symBinAddr: 0x100008620, symSize: 0xE0 }
  - { offsetInCU: 0x11EF5, offset: 0x28D1B, size: 0x8, addend: 0x0, symName: '__ZN4core3ptr87drop_in_place$LT$alloc..sync..ArcInner$LT$std..sys..pal..unix..fs..InnerReadDir$GT$$GT$17h27f97e30407649b5E', symObjAddr: 0x40E0, symBinAddr: 0x100008700, symSize: 0x60 }
  - { offsetInCU: 0x120BF, offset: 0x28EE5, size: 0x8, addend: 0x0, symName: '__ZN4core3ptr88drop_in_place$LT$alloc..vec..Vec$LT$std..backtrace_rs..symbolize..gimli..Library$GT$$GT$17h5a2d70ef2c57636eE', symObjAddr: 0x4170, symBinAddr: 0x100008760, symSize: 0xA0 }
  - { offsetInCU: 0x12282, offset: 0x290A8, size: 0x8, addend: 0x0, symName: '__ZN4core3ptr88drop_in_place$LT$std..io..Write..write_fmt..Adapter$LT$alloc..vec..Vec$LT$u8$GT$$GT$$GT$17hb79e3e627b3b4cadE', symObjAddr: 0x4210, symBinAddr: 0x100008800, symSize: 0x20 }
  - { offsetInCU: 0x122BF, offset: 0x290E5, size: 0x8, addend: 0x0, symName: '__ZN4core3ptr90drop_in_place$LT$std..io..buffered..bufwriter..BufWriter$LT$W$GT$..flush_buf..BufGuard$GT$17h473e0dbc3acd3280E', symObjAddr: 0x4230, symBinAddr: 0x100008820, symSize: 0x60 }
  - { offsetInCU: 0x12436, offset: 0x2925C, size: 0x8, addend: 0x0, symName: '__ZN4core3ptr92drop_in_place$LT$alloc..boxed..Box$LT$std..sys..sync..mutex..pthread..AllocatedMutex$GT$$GT$17h0d8fca55e8e556b5E', symObjAddr: 0x42F0, symBinAddr: 0x100008880, symSize: 0x30 }
  - { offsetInCU: 0x124D1, offset: 0x292F7, size: 0x8, addend: 0x0, symName: '__ZN4core3ptr95drop_in_place$LT$core..option..IntoIter$LT$std..backtrace_rs..symbolize..gimli..Library$GT$$GT$17h7258725f4014309aE', symObjAddr: 0x4320, symBinAddr: 0x1000088B0, symSize: 0x50 }
  - { offsetInCU: 0x124EF, offset: 0x29315, size: 0x8, addend: 0x0, symName: '__ZN4core3ptr95drop_in_place$LT$core..option..IntoIter$LT$std..backtrace_rs..symbolize..gimli..Library$GT$$GT$17h7258725f4014309aE', symObjAddr: 0x4320, symBinAddr: 0x1000088B0, symSize: 0x50 }
  - { offsetInCU: 0x12504, offset: 0x2932A, size: 0x8, addend: 0x0, symName: '__ZN4core3ptr95drop_in_place$LT$core..option..IntoIter$LT$std..backtrace_rs..symbolize..gimli..Library$GT$$GT$17h7258725f4014309aE', symObjAddr: 0x4320, symBinAddr: 0x1000088B0, symSize: 0x50 }
  - { offsetInCU: 0x1264E, offset: 0x29474, size: 0x8, addend: 0x0, symName: '__ZN4core3ptr95drop_in_place$LT$std..io..buffered..linewriter..LineWriter$LT$std..io..stdio..StdoutRaw$GT$$GT$17h9c9d8a01642b58edE', symObjAddr: 0x4370, symBinAddr: 0x100008900, symSize: 0xF0 }
  - { offsetInCU: 0x15258, offset: 0x2C07E, size: 0x8, addend: 0x0, symName: __ZN4core5slice4sort6shared5pivot11median3_rec17h10ec5dd456f10a23E, symObjAddr: 0x48A0, symBinAddr: 0x100008AF0, symSize: 0xC0 }
  - { offsetInCU: 0x15360, offset: 0x2C186, size: 0x8, addend: 0x0, symName: __ZN4core5slice4sort6shared5pivot11median3_rec17h5d7401d54a70e545E, symObjAddr: 0x4960, symBinAddr: 0x100008BB0, symSize: 0xC0 }
  - { offsetInCU: 0x15468, offset: 0x2C28E, size: 0x8, addend: 0x0, symName: __ZN4core5slice4sort6shared5pivot11median3_rec17h678771bdd9989bc4E, symObjAddr: 0x4A20, symBinAddr: 0x100008C70, symSize: 0xB0 }
  - { offsetInCU: 0x155C6, offset: 0x2C3EC, size: 0x8, addend: 0x0, symName: __ZN4core5slice4sort6shared5pivot11median3_rec17ha6d876ea0e6caac1E, symObjAddr: 0x4AD0, symBinAddr: 0x100008D20, symSize: 0x140 }
  - { offsetInCU: 0x157FA, offset: 0x2C620, size: 0x8, addend: 0x0, symName: __ZN4core5slice4sort6shared5pivot11median3_rec17hb596338b09cc9a1dE, symObjAddr: 0x4C10, symBinAddr: 0x100008E60, symSize: 0xC0 }
  - { offsetInCU: 0x15902, offset: 0x2C728, size: 0x8, addend: 0x0, symName: __ZN4core5slice4sort6shared5pivot11median3_rec17hd8b0c8642d516098E, symObjAddr: 0x4CD0, symBinAddr: 0x100008F20, symSize: 0x110 }
  - { offsetInCU: 0x15A14, offset: 0x2C83A, size: 0x8, addend: 0x0, symName: __ZN4core5slice4sort6shared5pivot11median3_rec17hf1ffff1af254135dE, symObjAddr: 0x4DE0, symBinAddr: 0x100009030, symSize: 0xB0 }
  - { offsetInCU: 0x15B1C, offset: 0x2C942, size: 0x8, addend: 0x0, symName: __ZN4core5slice4sort6shared5pivot11median3_rec17hfa40af6741a5ea49E, symObjAddr: 0x4E90, symBinAddr: 0x1000090E0, symSize: 0xC0 }
  - { offsetInCU: 0x15CFB, offset: 0x2CB21, size: 0x8, addend: 0x0, symName: __ZN4core5slice4sort6shared9smallsort12sort4_stable17h5c9a4fc1faf1c3f0E, symObjAddr: 0x4F50, symBinAddr: 0x1000091A0, symSize: 0x1F0 }
  - { offsetInCU: 0x160D1, offset: 0x2CEF7, size: 0x8, addend: 0x0, symName: __ZN4core5slice4sort6shared9smallsort12sort4_stable17hebd3516948f59830E, symObjAddr: 0x5140, symBinAddr: 0x100009390, symSize: 0x1B0 }
  - { offsetInCU: 0x162CE, offset: 0x2D0F4, size: 0x8, addend: 0x0, symName: __ZN4core5slice4sort6shared9smallsort12sort8_stable17h73fc3d1f23e89cd0E, symObjAddr: 0x52F0, symBinAddr: 0x100009540, symSize: 0x3E0 }
  - { offsetInCU: 0x16AC8, offset: 0x2D8EE, size: 0x8, addend: 0x0, symName: __ZN4core5slice4sort6shared9smallsort18small_sort_general17h8580350dc89e0b16E, symObjAddr: 0x56D0, symBinAddr: 0x100009920, symSize: 0x4F0 }
  - { offsetInCU: 0x17059, offset: 0x2DE7F, size: 0x8, addend: 0x0, symName: __ZN4core5slice4sort6shared9smallsort18small_sort_general17hb8ddaadc775fa7bbE, symObjAddr: 0x5BC0, symBinAddr: 0x100009E10, symSize: 0x630 }
  - { offsetInCU: 0x17B54, offset: 0x2E97A, size: 0x8, addend: 0x0, symName: __ZN4core5slice4sort6stable14driftsort_main17h0a12b591811d8d96E, symObjAddr: 0x61F0, symBinAddr: 0x10000A440, symSize: 0x130 }
  - { offsetInCU: 0x17DCF, offset: 0x2EBF5, size: 0x8, addend: 0x0, symName: __ZN4core5slice4sort6stable14driftsort_main17h2603d9940a6b7425E, symObjAddr: 0x6320, symBinAddr: 0x10000A570, symSize: 0x130 }
  - { offsetInCU: 0x1804A, offset: 0x2EE70, size: 0x8, addend: 0x0, symName: __ZN4core5slice4sort6stable14driftsort_main17h89a899ff82e24bb0E, symObjAddr: 0x6450, symBinAddr: 0x10000A6A0, symSize: 0x130 }
  - { offsetInCU: 0x182C5, offset: 0x2F0EB, size: 0x8, addend: 0x0, symName: __ZN4core5slice4sort6stable14driftsort_main17haf200431324837b0E, symObjAddr: 0x6580, symBinAddr: 0x10000A7D0, symSize: 0x140 }
  - { offsetInCU: 0x18540, offset: 0x2F366, size: 0x8, addend: 0x0, symName: __ZN4core5slice4sort6stable14driftsort_main17hb8200fd42e629335E, symObjAddr: 0x66C0, symBinAddr: 0x10000A910, symSize: 0x150 }
  - { offsetInCU: 0x18750, offset: 0x2F576, size: 0x8, addend: 0x0, symName: __ZN4core5slice4sort6stable14driftsort_main17heb01477367bce3a7E, symObjAddr: 0x6810, symBinAddr: 0x10000AA60, symSize: 0x140 }
  - { offsetInCU: 0x18BBC, offset: 0x2F9E2, size: 0x8, addend: 0x0, symName: __ZN4core5slice4sort6stable5drift4sort17h04c31658064cd2b3E, symObjAddr: 0x6950, symBinAddr: 0x10000ABA0, symSize: 0x690 }
  - { offsetInCU: 0x193B1, offset: 0x301D7, size: 0x8, addend: 0x0, symName: __ZN4core5slice4sort6stable5drift4sort17h0e577c903e03f750E, symObjAddr: 0x6FE0, symBinAddr: 0x10000B230, symSize: 0x6C0 }
  - { offsetInCU: 0x19BA6, offset: 0x309CC, size: 0x8, addend: 0x0, symName: __ZN4core5slice4sort6stable5drift4sort17h178a996c19cdced7E, symObjAddr: 0x76A0, symBinAddr: 0x10000B8F0, symSize: 0x6C0 }
  - { offsetInCU: 0x1A3AB, offset: 0x311D1, size: 0x8, addend: 0x0, symName: __ZN4core5slice4sort6stable5drift4sort17h3bc04abf75ca8a28E, symObjAddr: 0x7D60, symBinAddr: 0x10000BFB0, symSize: 0x700 }
  - { offsetInCU: 0x1AC00, offset: 0x31A26, size: 0x8, addend: 0x0, symName: __ZN4core5slice4sort6stable5drift4sort17h4d0d7298f6ebbf91E, symObjAddr: 0x8460, symBinAddr: 0x10000C6B0, symSize: 0x6B0 }
  - { offsetInCU: 0x1B405, offset: 0x3222B, size: 0x8, addend: 0x0, symName: __ZN4core5slice4sort6stable5drift4sort17h9eb579a7e11a429dE, symObjAddr: 0x8B10, symBinAddr: 0x10000CD60, symSize: 0x6F0 }
  - { offsetInCU: 0x1BE23, offset: 0x32C49, size: 0x8, addend: 0x0, symName: __ZN4core5slice4sort6stable9quicksort9quicksort17h17dfc7d88980d1d4E, symObjAddr: 0x9200, symBinAddr: 0x10000D450, symSize: 0xBB0 }
  - { offsetInCU: 0x1D575, offset: 0x3439B, size: 0x8, addend: 0x0, symName: __ZN4core5slice4sort6stable9quicksort9quicksort17h38f12e856567aa96E, symObjAddr: 0x9DB0, symBinAddr: 0x10000E000, symSize: 0xB20 }
  - { offsetInCU: 0x1DEF0, offset: 0x34D16, size: 0x8, addend: 0x0, symName: __ZN4core5slice4sort6stable9quicksort9quicksort17h39128ce8a0799e8bE, symObjAddr: 0xA8D0, symBinAddr: 0x10000EB20, symSize: 0xD40 }
  - { offsetInCU: 0x1ECFF, offset: 0x35B25, size: 0x8, addend: 0x0, symName: __ZN4core5slice4sort6stable9quicksort9quicksort17h3a28d19f02358dcaE, symObjAddr: 0xB610, symBinAddr: 0x10000F860, symSize: 0xBF0 }
  - { offsetInCU: 0x1FB28, offset: 0x3694E, size: 0x8, addend: 0x0, symName: __ZN4core5slice4sort6stable9quicksort9quicksort17h8c087a1b45054228E, symObjAddr: 0xC200, symBinAddr: 0x100010450, symSize: 0xC40 }
  - { offsetInCU: 0x20941, offset: 0x37767, size: 0x8, addend: 0x0, symName: __ZN4core5slice4sort6stable9quicksort9quicksort17hc014ef5dc52f58bfE, symObjAddr: 0xCE40, symBinAddr: 0x100011090, symSize: 0xB20 }
  - { offsetInCU: 0x217D7, offset: 0x385FD, size: 0x8, addend: 0x0, symName: __ZN4core5slice4sort8unstable7ipnsort17h8289eeaf98734eb7E, symObjAddr: 0xD960, symBinAddr: 0x100011BB0, symSize: 0x1A0 }
  - { offsetInCU: 0x21A8C, offset: 0x388B2, size: 0x8, addend: 0x0, symName: __ZN4core5slice4sort8unstable7ipnsort17h8eb614293eee64e8E, symObjAddr: 0xDB00, symBinAddr: 0x100011D50, symSize: 0xF0 }
  - { offsetInCU: 0x21C2D, offset: 0x38A53, size: 0x8, addend: 0x0, symName: __ZN4core5slice4sort8unstable8heapsort8heapsort17h521fb1d1e30789c6E, symObjAddr: 0xDBF0, symBinAddr: 0x100011E40, symSize: 0xE0 }
  - { offsetInCU: 0x21D45, offset: 0x38B6B, size: 0x8, addend: 0x0, symName: __ZN4core5slice4sort8unstable8heapsort8heapsort17h98b8ce9a74c50809E, symObjAddr: 0xDCD0, symBinAddr: 0x100011F20, symSize: 0xE0 }
  - { offsetInCU: 0x21E5D, offset: 0x38C83, size: 0x8, addend: 0x0, symName: __ZN4core5slice4sort8unstable8heapsort9sift_down17h4191d8eebb1da157E, symObjAddr: 0xDDB0, symBinAddr: 0x100012000, symSize: 0x130 }
  - { offsetInCU: 0x22030, offset: 0x38E56, size: 0x8, addend: 0x0, symName: __ZN4core5slice4sort8unstable8heapsort9sift_down17h78e5b96021857d96E, symObjAddr: 0xDEE0, symBinAddr: 0x100012130, symSize: 0xC0 }
  - { offsetInCU: 0x221B2, offset: 0x38FD8, size: 0x8, addend: 0x0, symName: __ZN4core5slice4sort8unstable9quicksort9quicksort17hbb237c64d8c9a3ddE, symObjAddr: 0xDFA0, symBinAddr: 0x1000121F0, symSize: 0x770 }
  - { offsetInCU: 0x22DE5, offset: 0x39C0B, size: 0x8, addend: 0x0, symName: __ZN4core5slice4sort8unstable9quicksort9quicksort17hfdd67d94a1025140E, symObjAddr: 0xE710, symBinAddr: 0x100012960, symSize: 0x530 }
  - { offsetInCU: 0x2374E, offset: 0x3A574, size: 0x8, addend: 0x0, symName: '__ZN36_$LT$T$u20$as$u20$core..any..Any$GT$7type_id17h184ba471db4c54d0E', symObjAddr: 0x230, symBinAddr: 0x100005D90, symSize: 0x20 }
  - { offsetInCU: 0x23768, offset: 0x3A58E, size: 0x8, addend: 0x0, symName: '__ZN36_$LT$T$u20$as$u20$core..any..Any$GT$7type_id17hea58b14a7d4f43b6E', symObjAddr: 0x270, symBinAddr: 0x100005DB0, symSize: 0x20 }
  - { offsetInCU: 0x237EA, offset: 0x3A610, size: 0x8, addend: 0x0, symName: '__ZN42_$LT$$RF$T$u20$as$u20$core..fmt..Debug$GT$3fmt17h00ca7100f553597dE', symObjAddr: 0x2D0, symBinAddr: 0x100005DD0, symSize: 0x30 }
  - { offsetInCU: 0x2382F, offset: 0x3A655, size: 0x8, addend: 0x0, symName: '__ZN42_$LT$$RF$T$u20$as$u20$core..fmt..Debug$GT$3fmt17h047f9c6be51c5e85E', symObjAddr: 0x3D0, symBinAddr: 0x100005E00, symSize: 0x20 }
  - { offsetInCU: 0x2386D, offset: 0x3A693, size: 0x8, addend: 0x0, symName: '__ZN42_$LT$$RF$T$u20$as$u20$core..fmt..Debug$GT$3fmt17h08dfd7a6fdead5d8E', symObjAddr: 0x3F0, symBinAddr: 0x100005E20, symSize: 0xA0 }
  - { offsetInCU: 0x23923, offset: 0x3A749, size: 0x8, addend: 0x0, symName: '__ZN42_$LT$$RF$T$u20$as$u20$core..fmt..Debug$GT$3fmt17h2a5fbfcbcacc3cd4E', symObjAddr: 0x5C0, symBinAddr: 0x100005EC0, symSize: 0x30 }
  - { offsetInCU: 0x23968, offset: 0x3A78E, size: 0x8, addend: 0x0, symName: '__ZN42_$LT$$RF$T$u20$as$u20$core..fmt..Debug$GT$3fmt17h313665a3a2873b42E', symObjAddr: 0x5F0, symBinAddr: 0x100005EF0, symSize: 0x20 }
  - { offsetInCU: 0x2397C, offset: 0x3A7A2, size: 0x8, addend: 0x0, symName: '__ZN42_$LT$$RF$T$u20$as$u20$core..fmt..Debug$GT$3fmt17h8357e08665e3252eE', symObjAddr: 0x7B0, symBinAddr: 0x100005F10, symSize: 0x20 }
  - { offsetInCU: 0x239AC, offset: 0x3A7D2, size: 0x8, addend: 0x0, symName: '__ZN42_$LT$$RF$T$u20$as$u20$core..fmt..Debug$GT$3fmt17h8f2fa358bc7ded07E', symObjAddr: 0x7D0, symBinAddr: 0x100005F30, symSize: 0x30 }
  - { offsetInCU: 0x239F1, offset: 0x3A817, size: 0x8, addend: 0x0, symName: '__ZN42_$LT$$RF$T$u20$as$u20$core..fmt..Debug$GT$3fmt17ha41cce5cd0eb155fE', symObjAddr: 0x850, symBinAddr: 0x100005F60, symSize: 0x80 }
  - { offsetInCU: 0x23AF6, offset: 0x3A91C, size: 0x8, addend: 0x0, symName: '__ZN42_$LT$$RF$T$u20$as$u20$core..fmt..Debug$GT$3fmt17hff314e08602682f1E', symObjAddr: 0xC00, symBinAddr: 0x100005FE0, symSize: 0x80 }
  - { offsetInCU: 0x23C31, offset: 0x3AA57, size: 0x8, addend: 0x0, symName: '__ZN4core3fmt3num50_$LT$impl$u20$core..fmt..Debug$u20$for$u20$i32$GT$3fmt17heb82f64e9c17302eE', symObjAddr: 0xD00, symBinAddr: 0x100006090, symSize: 0x30 }
  - { offsetInCU: 0x23C6C, offset: 0x3AA92, size: 0x8, addend: 0x0, symName: '__ZN4core3fmt3num52_$LT$impl$u20$core..fmt..Debug$u20$for$u20$usize$GT$3fmt17h9e5c63f85393f427E', symObjAddr: 0xDC0, symBinAddr: 0x1000060C0, symSize: 0x30 }
  - { offsetInCU: 0x23CDD, offset: 0x3AB03, size: 0x8, addend: 0x0, symName: '__ZN44_$LT$$RF$T$u20$as$u20$core..fmt..Display$GT$3fmt17h2561f68ab83c0377E', symObjAddr: 0xC80, symBinAddr: 0x100006060, symSize: 0x20 }
  - { offsetInCU: 0x23CF8, offset: 0x3AB1E, size: 0x8, addend: 0x0, symName: '__ZN44_$LT$$RF$T$u20$as$u20$core..fmt..Display$GT$3fmt17ha96dd7b9b4ed7d15E', symObjAddr: 0xCA0, symBinAddr: 0x100006080, symSize: 0x10 }
  - { offsetInCU: 0x23D35, offset: 0x3AB5B, size: 0x8, addend: 0x0, symName: __ZN4core3fmt5Write10write_char17h14597a5308b119e7E, symObjAddr: 0xF00, symBinAddr: 0x1000060F0, symSize: 0x110 }
  - { offsetInCU: 0x23DA9, offset: 0x3ABCF, size: 0x8, addend: 0x0, symName: __ZN4core3fmt5Write10write_char17hc62b739fc03a608eE, symObjAddr: 0x11A0, symBinAddr: 0x100006200, symSize: 0x190 }
  - { offsetInCU: 0x23F29, offset: 0x3AD4F, size: 0x8, addend: 0x0, symName: __ZN4core3fmt5Write10write_char17heee569dec9bacd55E, symObjAddr: 0x1330, symBinAddr: 0x100006390, symSize: 0x120 }
  - { offsetInCU: 0x24092, offset: 0x3AEB8, size: 0x8, addend: 0x0, symName: __ZN4core3fmt5Write9write_fmt17h2bea56f24fec7a4bE, symObjAddr: 0x1450, symBinAddr: 0x1000064B0, symSize: 0x20 }
  - { offsetInCU: 0x240C0, offset: 0x3AEE6, size: 0x8, addend: 0x0, symName: __ZN4core3fmt5Write9write_fmt17h2f893eeae09b9852E, symObjAddr: 0x1470, symBinAddr: 0x1000064D0, symSize: 0x20 }
  - { offsetInCU: 0x240EE, offset: 0x3AF14, size: 0x8, addend: 0x0, symName: __ZN4core3fmt5Write9write_fmt17h9365712ad13af8e8E, symObjAddr: 0x1490, symBinAddr: 0x1000064F0, symSize: 0x20 }
  - { offsetInCU: 0x2411C, offset: 0x3AF42, size: 0x8, addend: 0x0, symName: __ZN4core3fmt5Write9write_fmt17h943e432088f4fc09E, symObjAddr: 0x14B0, symBinAddr: 0x100006510, symSize: 0x20 }
  - { offsetInCU: 0x24464, offset: 0x3B28A, size: 0x8, addend: 0x0, symName: '__ZN50_$LT$$BP$mut$u20$T$u20$as$u20$core..fmt..Debug$GT$3fmt17h5e955294fdbade78E', symObjAddr: 0xED00, symBinAddr: 0x100012E90, symSize: 0x10 }
  - { offsetInCU: 0x244B0, offset: 0x3B2D6, size: 0x8, addend: 0x0, symName: '__ZN52_$LT$$RF$mut$u20$T$u20$as$u20$core..fmt..Display$GT$3fmt17h247ac5682e66b671E', symObjAddr: 0xED80, symBinAddr: 0x100012EA0, symSize: 0x20 }
  - { offsetInCU: 0x24510, offset: 0x3B336, size: 0x8, addend: 0x0, symName: '__ZN4core3str7pattern13simd_contains28_$u7b$$u7b$closure$u7d$$u7d$17h8c02b44b24d93ed4E', symObjAddr: 0x4460, symBinAddr: 0x10004A940, symSize: 0x100 }
  - { offsetInCU: 0x24689, offset: 0x3B4AF, size: 0x8, addend: 0x0, symName: '__ZN55_$LT$$RF$str$u20$as$u20$core..str..pattern..Pattern$GT$15is_contained_in17h3b44ad7441fe57baE', symObjAddr: 0xEDA0, symBinAddr: 0x100012EC0, symSize: 0x8D0 }
  - { offsetInCU: 0x24F33, offset: 0x3BD59, size: 0x8, addend: 0x0, symName: '__ZN4core5array69_$LT$impl$u20$core..fmt..Debug$u20$for$u20$$u5b$T$u3b$$u20$N$u5d$$GT$3fmt17h3f2c0345ca57a36bE', symObjAddr: 0x4720, symBinAddr: 0x1000089F0, symSize: 0xF0 }
  - { offsetInCU: 0x25CA1, offset: 0x3CAC7, size: 0x8, addend: 0x0, symName: '__ZN70_$LT$core..num..error..TryFromIntError$u20$as$u20$core..fmt..Debug$GT$3fmt17h1128a7e265c9ce9aE', symObjAddr: 0x1F5E0, symBinAddr: 0x100021120, symSize: 0x40 }
  - { offsetInCU: 0x272B5, offset: 0x3E0DB, size: 0x8, addend: 0x0, symName: '__ZN4core3ops8function6FnOnce40call_once$u7b$$u7b$vtable.shim$u7d$$u7d$17h0992b814c9d54e1bE', symObjAddr: 0x1530, symBinAddr: 0x100006530, symSize: 0x90 }
  - { offsetInCU: 0x273C2, offset: 0x3E1E8, size: 0x8, addend: 0x0, symName: '__ZN4core3ops8function6FnOnce40call_once$u7b$$u7b$vtable.shim$u7d$$u7d$17h15b016765ff1cfc5E', symObjAddr: 0x1660, symBinAddr: 0x1000065C0, symSize: 0x90 }
  - { offsetInCU: 0x274F0, offset: 0x3E316, size: 0x8, addend: 0x0, symName: '__ZN4core3ops8function6FnOnce40call_once$u7b$$u7b$vtable.shim$u7d$$u7d$17h447d49c1da186faeE', symObjAddr: 0x1700, symBinAddr: 0x100006650, symSize: 0x10 }
  - { offsetInCU: 0x2752B, offset: 0x3E351, size: 0x8, addend: 0x0, symName: '__ZN4core3ops8function6FnOnce40call_once$u7b$$u7b$vtable.shim$u7d$$u7d$17h4ac0425e41115653E', symObjAddr: 0x1710, symBinAddr: 0x100006660, symSize: 0x10 }
  - { offsetInCU: 0x2757B, offset: 0x3E3A1, size: 0x8, addend: 0x0, symName: '__ZN4core3ops8function6FnOnce40call_once$u7b$$u7b$vtable.shim$u7d$$u7d$17h4ae3820b72915fbeE', symObjAddr: 0x1720, symBinAddr: 0x100006670, symSize: 0x10 }
  - { offsetInCU: 0x275CB, offset: 0x3E3F1, size: 0x8, addend: 0x0, symName: '__ZN4core3ops8function6FnOnce40call_once$u7b$$u7b$vtable.shim$u7d$$u7d$17h99aa774ca126b930E', symObjAddr: 0x17F0, symBinAddr: 0x100006680, symSize: 0x20 }
  - { offsetInCU: 0x27606, offset: 0x3E42C, size: 0x8, addend: 0x0, symName: '__ZN4core3ops8function6FnOnce40call_once$u7b$$u7b$vtable.shim$u7d$$u7d$17hbe02a881ca7e7e6fE', symObjAddr: 0x1810, symBinAddr: 0x1000066A0, symSize: 0x90 }
  - { offsetInCU: 0x2779F, offset: 0x3E5C5, size: 0x8, addend: 0x0, symName: '__ZN4core3ops8function6FnOnce40call_once$u7b$$u7b$vtable.shim$u7d$$u7d$17hec53fca43a280050E', symObjAddr: 0x18C0, symBinAddr: 0x100006730, symSize: 0x10 }
  - { offsetInCU: 0x277CD, offset: 0x3E5F3, size: 0x8, addend: 0x0, symName: __ZN4core3ops8function6FnOnce9call_once17h677fa02123b9a929E, symObjAddr: 0x18D0, symBinAddr: 0x100006740, symSize: 0x10 }
  - { offsetInCU: 0x2A0A3, offset: 0x40EC9, size: 0x8, addend: 0x0, symName: '__ZN4core4cell4once17OnceCell$LT$T$GT$8try_init17h536a8ddd55b2cae3E', symObjAddr: 0x4560, symBinAddr: 0x10004AA40, symSize: 0xB0 }
  - { offsetInCU: 0x2A2F4, offset: 0x4111A, size: 0x8, addend: 0x0, symName: '__ZN4core4cell4once17OnceCell$LT$T$GT$8try_init17hb10021f4e62dce0fE', symObjAddr: 0x4610, symBinAddr: 0x10004AAF0, symSize: 0x110 }
  - { offsetInCU: 0x2A9B4, offset: 0x417DA, size: 0x8, addend: 0x0, symName: __ZN4core5panic12PanicPayload6as_str17hbfaccbb001700041E, symObjAddr: 0x4890, symBinAddr: 0x100008AE0, symSize: 0x10 }
  - { offsetInCU: 0x2AA3B, offset: 0x41861, size: 0x8, addend: 0x0, symName: __ZN4core9panicking13assert_failed17h7dbd494cd6164ed1E, symObjAddr: 0xEC40, symBinAddr: 0x10004AC00, symSize: 0x30 }
  - { offsetInCU: 0x2AA56, offset: 0x4187C, size: 0x8, addend: 0x0, symName: __ZN4core9panicking13assert_failed17h9a214487d1bb4058E, symObjAddr: 0xEC70, symBinAddr: 0x10004AC30, symSize: 0x50 }
  - { offsetInCU: 0x2AA72, offset: 0x41898, size: 0x8, addend: 0x0, symName: __ZN4core9panicking13assert_failed17hdcf7e423a44907d6E, symObjAddr: 0xECC0, symBinAddr: 0x10004AC80, symSize: 0x40 }
  - { offsetInCU: 0x2AF4D, offset: 0x41D73, size: 0x8, addend: 0x0, symName: '__ZN69_$LT$std..sys..os_str..bytes..Slice$u20$as$u20$core..fmt..Display$GT$3fmt17h93400a492944888cE', symObjAddr: 0x4DEB0, symBinAddr: 0x100034160, symSize: 0xC0 }
  - { offsetInCU: 0x2AFB9, offset: 0x41DDF, size: 0x8, addend: 0x0, symName: __ZN3std3sys3pal4unix7process14process_common7Command3new17hafe51dbbe121cc24E, symObjAddr: 0x49160, symBinAddr: 0x100030E20, symSize: 0x290 }
  - { offsetInCU: 0x2B38B, offset: 0x421B1, size: 0x8, addend: 0x0, symName: __ZN3std3sys3pal4unix7process14process_common7Command3arg17hc75195c756877dbfE, symObjAddr: 0x494B0, symBinAddr: 0x1000310B0, symSize: 0xE0 }
  - { offsetInCU: 0x2B4C9, offset: 0x422EF, size: 0x8, addend: 0x0, symName: __ZN3std3sys3pal4unix7process14process_common7Command11capture_env17h5ecc4926b0510b4cE, symObjAddr: 0x49730, symBinAddr: 0x100031190, symSize: 0xFD0 }
  - { offsetInCU: 0x2CE8D, offset: 0x43CB3, size: 0x8, addend: 0x0, symName: __ZN3std3sys3pal4unix7process14process_common7Command8setup_io17h46082d8c863d7f66E, symObjAddr: 0x4A700, symBinAddr: 0x100032160, symSize: 0x2C0 }
  - { offsetInCU: 0x2D312, offset: 0x44138, size: 0x8, addend: 0x0, symName: '__ZN3std3sys3pal4unix7process13process_inner71_$LT$impl$u20$std..sys..pal..unix..process..process_common..Command$GT$5spawn17h3ab74ef46d73eef8E', symObjAddr: 0x4C4D0, symBinAddr: 0x100032AD0, symSize: 0xB70 }
  - { offsetInCU: 0x2E580, offset: 0x453A6, size: 0x8, addend: 0x0, symName: '__ZN3std3sys3pal4unix7process13process_inner71_$LT$impl$u20$std..sys..pal..unix..process..process_common..Command$GT$7do_exec17hbe5657fb1b8f18f4E', symObjAddr: 0x4D040, symBinAddr: 0x100033640, symSize: 0x360 }
  - { offsetInCU: 0x2EF4C, offset: 0x45D72, size: 0x8, addend: 0x0, symName: __ZN3std3sys3pal4unix7process14process_common4os2c17hfa6225a2c7c10c16E, symObjAddr: 0x4A9C0, symBinAddr: 0x100032420, symSize: 0x120 }
  - { offsetInCU: 0x2F175, offset: 0x45F9B, size: 0x8, addend: 0x0, symName: __ZN3std3sys3pal4unix7process14process_common5Stdio14to_child_stdio17h24134a6a804af4d7E, symObjAddr: 0x4AAE0, symBinAddr: 0x100032540, symSize: 0x150 }
  - { offsetInCU: 0x2F30B, offset: 0x46131, size: 0x8, addend: 0x0, symName: __ZN3std3sys3pal4unix7process13process_inner7Process4wait17h8e91288f36c7c4bbE, symObjAddr: 0x4D3E0, symBinAddr: 0x1000339A0, symSize: 0x90 }
  - { offsetInCU: 0x2F50A, offset: 0x46330, size: 0x8, addend: 0x0, symName: __ZN3std3sys3pal4unix2fd8FileDesc11read_to_end17h86e52ced6e1d320dE, symObjAddr: 0x44800, symBinAddr: 0x10002FE20, symSize: 0x270 }
  - { offsetInCU: 0x2F97C, offset: 0x467A2, size: 0x8, addend: 0x0, symName: __ZN3std3sys3pal4unix2fs4File6open_c17h680a1c4b6c97ec3aE, symObjAddr: 0x45470, symBinAddr: 0x1000302C0, symSize: 0x140 }
  - { offsetInCU: 0x2FB13, offset: 0x46939, size: 0x8, addend: 0x0, symName: '__ZN91_$LT$std..sys..pal..unix..fs..ReadDir$u20$as$u20$core..iter..traits..iterator..Iterator$GT$4next17h7ffa4b4a612b0f58E', symObjAddr: 0x44F60, symBinAddr: 0x100030090, symSize: 0x160 }
  - { offsetInCU: 0x2FD3E, offset: 0x46B64, size: 0x8, addend: 0x0, symName: '__ZN70_$LT$std..sys..pal..unix..fs..Dir$u20$as$u20$core..ops..drop..Drop$GT$4drop17h3aeec0393da0e077E', symObjAddr: 0x450C0, symBinAddr: 0x1000301F0, symSize: 0xD0 }
  - { offsetInCU: 0x2FE5A, offset: 0x46C80, size: 0x8, addend: 0x0, symName: __ZN3std3sys3pal4unix2fs7readdir17h779363e783ca7cbfE, symObjAddr: 0x45CA0, symBinAddr: 0x100030400, symSize: 0x210 }
  - { offsetInCU: 0x3019C, offset: 0x46FC2, size: 0x8, addend: 0x0, symName: __ZN3std3sys3pal4unix2os13env_read_lock17h21742e63e7e1308cE, symObjAddr: 0x484B0, symBinAddr: 0x100030610, symSize: 0x300 }
  - { offsetInCU: 0x30875, offset: 0x4769B, size: 0x8, addend: 0x0, symName: '__ZN3std3sys3pal4unix2os6getenv28_$u7b$$u7b$closure$u7d$$u7d$17hb68080675aebde0eE', symObjAddr: 0x487B0, symBinAddr: 0x100030910, symSize: 0x120 }
  - { offsetInCU: 0x30AA7, offset: 0x478CD, size: 0x8, addend: 0x0, symName: '__ZN69_$LT$std..sys..pal..unix..stdio..Stderr$u20$as$u20$std..io..Write$GT$5write17hd79d0a718695b2fcE', symObjAddr: 0x4BC30, symBinAddr: 0x1000329E0, symSize: 0x50 }
  - { offsetInCU: 0x30B82, offset: 0x479A8, size: 0x8, addend: 0x0, symName: '__ZN69_$LT$std..sys..pal..unix..stdio..Stderr$u20$as$u20$std..io..Write$GT$14write_vectored17h0e573d7857415587E', symObjAddr: 0x4BC80, symBinAddr: 0x100032A30, symSize: 0x50 }
  - { offsetInCU: 0x30C5D, offset: 0x47A83, size: 0x8, addend: 0x0, symName: '__ZN69_$LT$std..sys..pal..unix..stdio..Stderr$u20$as$u20$std..io..Write$GT$17is_write_vectored17h7ade31aa359392fdE', symObjAddr: 0x4BCD0, symBinAddr: 0x100032A80, symSize: 0x10 }
  - { offsetInCU: 0x30C77, offset: 0x47A9D, size: 0x8, addend: 0x0, symName: '__ZN69_$LT$std..sys..pal..unix..stdio..Stderr$u20$as$u20$std..io..Write$GT$5flush17h4944c9debd66ac59E', symObjAddr: 0x4BCE0, symBinAddr: 0x100032A90, symSize: 0x10 }
  - { offsetInCU: 0x30D3D, offset: 0x47B63, size: 0x8, addend: 0x0, symName: __ZN3std3sys3pal4unix14stack_overflow3imp14signal_handler17h63a20838b43a8d18E, symObjAddr: 0x4B730, symBinAddr: 0x100032690, symSize: 0x160 }
  - { offsetInCU: 0x30FC5, offset: 0x47DEB, size: 0x8, addend: 0x0, symName: __ZN3std3sys3pal4unix14stack_overflow3imp12make_handler17h23443197290aea5aE, symObjAddr: 0x4B890, symBinAddr: 0x1000327F0, symSize: 0x1F0 }
  - { offsetInCU: 0x3138A, offset: 0x481B0, size: 0x8, addend: 0x0, symName: '__ZN3std3sys3pal4unix4weak18DlsymWeak$LT$F$GT$10initialize17h6cb3b6b89cd14614E', symObjAddr: 0x44570, symBinAddr: 0x10004B420, symSize: 0x50 }
  - { offsetInCU: 0x3140A, offset: 0x48230, size: 0x8, addend: 0x0, symName: __ZN3std3sys3pal4unix4pipe8AnonPipe5write17h3271846cab2ce8dbE, symObjAddr: 0x48EB0, symBinAddr: 0x100030B70, symSize: 0x40 }
  - { offsetInCU: 0x314EC, offset: 0x48312, size: 0x8, addend: 0x0, symName: __ZN3std3sys3pal4unix4pipe9anon_pipe17head02bf6701a0417E, symObjAddr: 0x48D70, symBinAddr: 0x100030A30, symSize: 0x140 }
  - { offsetInCU: 0x317CF, offset: 0x485F5, size: 0x8, addend: 0x0, symName: __ZN3std3sys3pal4unix4pipe5read217h82a0f751865b9855E, symObjAddr: 0x48EF0, symBinAddr: 0x100030BB0, symSize: 0x270 }
  - { offsetInCU: 0x31E91, offset: 0x48CB7, size: 0x8, addend: 0x0, symName: __ZN3std3sys3pal4unix17decode_error_kind17hca6dfe301ffbd472E, symObjAddr: 0x4C460, symBinAddr: 0x100032AA0, symSize: 0x20 }
  - { offsetInCU: 0x31EAB, offset: 0x48CD1, size: 0x8, addend: 0x0, symName: __ZN3std3sys3pal4unix14abort_internal17h9ba9b9d4ccbedc59E, symObjAddr: 0x4C480, symBinAddr: 0x100032AC0, symSize: 0x10 }
  - { offsetInCU: 0x31F7E, offset: 0x48DA4, size: 0x8, addend: 0x0, symName: __ZN3std3sys3pal6common14small_c_string24run_with_cstr_allocating17ha6a88a73d3a351a6E, symObjAddr: 0x3F360, symBinAddr: 0x10004B1D0, symSize: 0x90 }
  - { offsetInCU: 0x320DC, offset: 0x48F02, size: 0x8, addend: 0x0, symName: __ZN3std3sys3pal6common14small_c_string24run_with_cstr_allocating17hb54c3f813841d045E, symObjAddr: 0x3F4B0, symBinAddr: 0x10004B260, symSize: 0xC0 }
  - { offsetInCU: 0x322A6, offset: 0x490CC, size: 0x8, addend: 0x0, symName: __ZN3std3sys3pal6common14small_c_string24run_with_cstr_allocating17hfa63a9da6940b7b3E, symObjAddr: 0x3F780, symBinAddr: 0x10004B320, symSize: 0x90 }
  - { offsetInCU: 0x32458, offset: 0x4927E, size: 0x8, addend: 0x0, symName: '__ZN3std3sys9backtrace10_print_fmt28_$u7b$$u7b$closure$u7d$$u7d$17h5af150375511fa5eE', symObjAddr: 0x3FB20, symBinAddr: 0x10002D3F0, symSize: 0x20 }
  - { offsetInCU: 0x32480, offset: 0x492A6, size: 0x8, addend: 0x0, symName: '__ZN3std3sys9backtrace10_print_fmt28_$u7b$$u7b$closure$u7d$$u7d$17h7848036c8a3af0afE', symObjAddr: 0x3FB40, symBinAddr: 0x10002D410, symSize: 0x140 }
  - { offsetInCU: 0x3257F, offset: 0x493A5, size: 0x8, addend: 0x0, symName: '__ZN3std3sys9backtrace10_print_fmt28_$u7b$$u7b$closure$u7d$$u7d$28_$u7b$$u7b$closure$u7d$$u7d$17h36c78f4df4cd5998E', symObjAddr: 0x3FC80, symBinAddr: 0x10002D550, symSize: 0x2A0 }
  - { offsetInCU: 0x3279B, offset: 0x495C1, size: 0x8, addend: 0x0, symName: '__ZN98_$LT$std..sys..backtrace..BacktraceLock..print..DisplayBacktrace$u20$as$u20$core..fmt..Display$GT$3fmt17hc3f376aae1e435b9E', symObjAddr: 0x3F890, symBinAddr: 0x10002D160, symSize: 0x290 }
  - { offsetInCU: 0x32D1A, offset: 0x49B40, size: 0x8, addend: 0x0, symName: __ZN3std3sys9backtrace26__rust_end_short_backtrace17hc94f023d9f9c8404E, symObjAddr: 0x3FF20, symBinAddr: 0x10002D7F0, symSize: 0x10 }
  - { offsetInCU: 0x32D34, offset: 0x49B5A, size: 0x8, addend: 0x0, symName: __ZN3std3sys9backtrace15output_filename17hba316d0cc1ea74d3E, symObjAddr: 0x3FF30, symBinAddr: 0x10002D800, symSize: 0x110 }
  - { offsetInCU: 0x32EC8, offset: 0x49CEE, size: 0x8, addend: 0x0, symName: '__ZN3std3sys11personality3gcc14find_eh_action28_$u7b$$u7b$closure$u7d$$u7d$17hf8fd2767c69281caE', symObjAddr: 0x4D710, symBinAddr: 0x100033A30, symSize: 0x10 }
  - { offsetInCU: 0x32EDC, offset: 0x49D02, size: 0x8, addend: 0x0, symName: '__ZN3std3sys11personality3gcc14find_eh_action28_$u7b$$u7b$closure$u7d$$u7d$17h0744ab787f9436b8E', symObjAddr: 0x4D720, symBinAddr: 0x100033A40, symSize: 0x10 }
  - { offsetInCU: 0x32F0C, offset: 0x49D32, size: 0x8, addend: 0x0, symName: _rust_eh_personality, symObjAddr: 0x4D730, symBinAddr: 0x100033A50, symSize: 0x710 }
  - { offsetInCU: 0x33B9D, offset: 0x4A9C3, size: 0x8, addend: 0x0, symName: '__ZN102_$LT$std..sys..sync..mutex..pthread..AllocatedMutex$u20$as$u20$std..sys_common..lazy_box..LazyInit$GT$4init17hfba07cb481996d20E', symObjAddr: 0x4E9A0, symBinAddr: 0x100034220, symSize: 0x210 }
  - { offsetInCU: 0x33D0C, offset: 0x4AB32, size: 0x8, addend: 0x0, symName: __ZN3std3sys4sync5mutex7pthread5Mutex4lock4fail17h7ac4622fd4e8cb04E, symObjAddr: 0x4EC30, symBinAddr: 0x10004B470, symSize: 0x100 }
  - { offsetInCU: 0x3402D, offset: 0x4AE53, size: 0x8, addend: 0x0, symName: __ZN3std3sys4sync6rwlock5queue6RwLock21read_unlock_contended17h59e53ad66695c6b5E, symObjAddr: 0x4F900, symBinAddr: 0x10004B6E0, symSize: 0x70 }
  - { offsetInCU: 0x34231, offset: 0x4B057, size: 0x8, addend: 0x0, symName: __ZN3std3sys4sync6rwlock5queue6RwLock12unlock_queue17hedf3d29f10cd8d44E, symObjAddr: 0x4F9B0, symBinAddr: 0x100034650, symSize: 0x160 }
  - { offsetInCU: 0x34A05, offset: 0x4B82B, size: 0x8, addend: 0x0, symName: __ZN3std3sys4sync4once5queue4Once4call17he538198c92e6ccb1E, symObjAddr: 0x4F280, symBinAddr: 0x10004B570, symSize: 0x170 }
  - { offsetInCU: 0x34B29, offset: 0x4B94F, size: 0x8, addend: 0x0, symName: __ZN3std3sys4sync4once5queue4wait17hbd39365221adcd4dE, symObjAddr: 0x4F3F0, symBinAddr: 0x100034430, symSize: 0x160 }
  - { offsetInCU: 0x3501F, offset: 0x4BE45, size: 0x8, addend: 0x0, symName: '__ZN82_$LT$std..sys..sync..once..queue..WaiterQueue$u20$as$u20$core..ops..drop..Drop$GT$4drop17h478a37d085131f6bE', symObjAddr: 0x4F550, symBinAddr: 0x100034590, symSize: 0xC0 }
  - { offsetInCU: 0x35219, offset: 0x4C03F, size: 0x8, addend: 0x0, symName: __ZN3std3sys12thread_local6native5eager7destroy17h485d936b499b4e17E, symObjAddr: 0x4FB40, symBinAddr: 0x1000347B0, symSize: 0x20 }
  - { offsetInCU: 0x35391, offset: 0x4C1B7, size: 0x8, addend: 0x0, symName: '__ZN3std3sys12thread_local6native4lazy20Storage$LT$T$C$D$GT$10initialize17h14698013dabe1c01E', symObjAddr: 0x4FB60, symBinAddr: 0x10004B750, symSize: 0xB0 }
  - { offsetInCU: 0x35573, offset: 0x4C399, size: 0x8, addend: 0x0, symName: __ZN3std3sys12thread_local6native4lazy7destroy17h6190230ba13c2901E, symObjAddr: 0x4FC10, symBinAddr: 0x1000347D0, symSize: 0x50 }
  - { offsetInCU: 0x356CA, offset: 0x4C4F0, size: 0x8, addend: 0x0, symName: __ZN3std3sys12thread_local11destructors4list8register17h63ec4e86be6715bfE, symObjAddr: 0x4FC60, symBinAddr: 0x100034820, symSize: 0x110 }
  - { offsetInCU: 0x359CB, offset: 0x4C7F1, size: 0x8, addend: 0x0, symName: __ZN3std3sys12thread_local5guard5apple6enable9run_dtors17hd397a92a14fe0143E, symObjAddr: 0x4FD70, symBinAddr: 0x100034930, symSize: 0xF0 }
  - { offsetInCU: 0x35F49, offset: 0x4CD6F, size: 0x8, addend: 0x0, symName: __ZN3std7process7Command6output17h58fa7d0108e36fa1E, symObjAddr: 0x3C970, symBinAddr: 0x10002C9E0, symSize: 0x360 }
  - { offsetInCU: 0x3651F, offset: 0x4D345, size: 0x8, addend: 0x0, symName: __ZN3std7process5abort17hc2693c6b767a9c9dE, symObjAddr: 0x3D640, symBinAddr: 0x10004B100, symSize: 0x10 }
  - { offsetInCU: 0x365AD, offset: 0x4D3D3, size: 0x8, addend: 0x0, symName: __ZN3std4path4Path13_strip_prefix17h2cdcd3c56da06425E, symObjAddr: 0x3ADA0, symBinAddr: 0x10002C4B0, symSize: 0x3A0 }
  - { offsetInCU: 0x366ED, offset: 0x4D513, size: 0x8, addend: 0x0, symName: __ZN3std4path4Path5_join17h637193701031f95bE, symObjAddr: 0x3B8C0, symBinAddr: 0x10002C850, symSize: 0x190 }
  - { offsetInCU: 0x36CA8, offset: 0x4DACE, size: 0x8, addend: 0x0, symName: __ZN3std4path10Components15len_before_body17h7a6b4ae86b058316E, symObjAddr: 0x38F30, symBinAddr: 0x10002B4D0, symSize: 0x170 }
  - { offsetInCU: 0x36EE7, offset: 0x4DD0D, size: 0x8, addend: 0x0, symName: __ZN3std4path10Components7as_path17h9e4b2fea02661f8aE, symObjAddr: 0x390A0, symBinAddr: 0x10002B640, symSize: 0x5C0 }
  - { offsetInCU: 0x37474, offset: 0x4E29A, size: 0x8, addend: 0x0, symName: __ZN3std4path10Components25parse_next_component_back17h34a9ec6b1e426824E, symObjAddr: 0x39660, symBinAddr: 0x10002BC00, symSize: 0xE0 }
  - { offsetInCU: 0x376A9, offset: 0x4E4CF, size: 0x8, addend: 0x0, symName: '__ZN80_$LT$std..path..Components$u20$as$u20$core..iter..traits..iterator..Iterator$GT$4next17h1a34bd8be3084bcbE', symObjAddr: 0x398F0, symBinAddr: 0x10002BCE0, symSize: 0x3D0 }
  - { offsetInCU: 0x37ABC, offset: 0x4E8E2, size: 0x8, addend: 0x0, symName: '__ZN95_$LT$std..path..Components$u20$as$u20$core..iter..traits..double_ended..DoubleEndedIterator$GT$9next_back17hd191a237154dece0E', symObjAddr: 0x39CC0, symBinAddr: 0x10002C0B0, symSize: 0x400 }
  - { offsetInCU: 0x37CE4, offset: 0x4EB0A, size: 0x8, addend: 0x0, symName: '__ZN61_$LT$std..path..Component$u20$as$u20$core..cmp..PartialEq$GT$2eq17h27e8d4086dd3d1bcE', symObjAddr: 0x44380, symBinAddr: 0x10002FD40, symSize: 0xE0 }
  - { offsetInCU: 0x37DD6, offset: 0x4EBFC, size: 0x8, addend: 0x0, symName: '__ZN80_$LT$std..io..Write..write_fmt..Adapter$LT$T$GT$$u20$as$u20$core..fmt..Write$GT$9write_str17h2edc6ecfbde6812eE', symObjAddr: 0x344C0, symBinAddr: 0x10002B260, symSize: 0xD0 }
  - { offsetInCU: 0x37F0B, offset: 0x4ED31, size: 0x8, addend: 0x0, symName: '__ZN80_$LT$std..io..Write..write_fmt..Adapter$LT$T$GT$$u20$as$u20$core..fmt..Write$GT$9write_str17h32443bac29e76a69E', symObjAddr: 0x34590, symBinAddr: 0x10002B330, symSize: 0x50 }
  - { offsetInCU: 0x37F34, offset: 0x4ED5A, size: 0x8, addend: 0x0, symName: '__ZN80_$LT$std..io..Write..write_fmt..Adapter$LT$T$GT$$u20$as$u20$core..fmt..Write$GT$9write_str17h58072d2916356e77E', symObjAddr: 0x345E0, symBinAddr: 0x10002B380, symSize: 0x60 }
  - { offsetInCU: 0x3803E, offset: 0x4EE64, size: 0x8, addend: 0x0, symName: __ZN3std2io5Write9write_all17h99e16d9455f1e85aE, symObjAddr: 0x33CD0, symBinAddr: 0x10002AA70, symSize: 0xA0 }
  - { offsetInCU: 0x38158, offset: 0x4EF7E, size: 0x8, addend: 0x0, symName: __ZN3std2io5Write18write_all_vectored17h2e073031db3e7590E, symObjAddr: 0x33D70, symBinAddr: 0x10002AB10, symSize: 0x2F0 }
  - { offsetInCU: 0x38574, offset: 0x4F39A, size: 0x8, addend: 0x0, symName: __ZN3std2io5Write18write_all_vectored17h4e8162142fc9794dE, symObjAddr: 0x34060, symBinAddr: 0x10002AE00, symSize: 0x1E0 }
  - { offsetInCU: 0x3883E, offset: 0x4F664, size: 0x8, addend: 0x0, symName: __ZN3std2io5Write9write_fmt17h8b96bffba1d3be2fE, symObjAddr: 0x34240, symBinAddr: 0x10002AFE0, symSize: 0x140 }
  - { offsetInCU: 0x38ADC, offset: 0x4F902, size: 0x8, addend: 0x0, symName: __ZN3std2io5Write9write_fmt17hd7eb5710a004e76bE, symObjAddr: 0x34380, symBinAddr: 0x10002B120, symSize: 0x140 }
  - { offsetInCU: 0x39032, offset: 0x4FE58, size: 0x8, addend: 0x0, symName: __ZN3std2io5error14repr_bitpacked11decode_repr17had2e5b6e0d8991fcE, symObjAddr: 0x2DC00, symBinAddr: 0x1000298E0, symSize: 0x60 }
  - { offsetInCU: 0x390A0, offset: 0x4FEC6, size: 0x8, addend: 0x0, symName: '__ZN58_$LT$std..io..error..Error$u20$as$u20$core..fmt..Debug$GT$3fmt17he1d6dfe91335ec19E', symObjAddr: 0x2DC60, symBinAddr: 0x100029940, symSize: 0x10 }
  - { offsetInCU: 0x390D3, offset: 0x4FEF9, size: 0x8, addend: 0x0, symName: '__ZN3std2io5error83_$LT$impl$u20$core..fmt..Debug$u20$for$u20$std..io..error..repr_bitpacked..Repr$GT$3fmt17h4788b333410ed3b2E', symObjAddr: 0x2DF10, symBinAddr: 0x100029950, symSize: 0x300 }
  - { offsetInCU: 0x39300, offset: 0x50126, size: 0x8, addend: 0x0, symName: '__ZN60_$LT$std..io..error..Error$u20$as$u20$core..fmt..Display$GT$3fmt17h4ac84df70a7b82f8E', symObjAddr: 0x2E210, symBinAddr: 0x100029C50, symSize: 0x290 }
  - { offsetInCU: 0x3953F, offset: 0x50365, size: 0x8, addend: 0x0, symName: '__ZN62_$LT$std..io..error..ErrorKind$u20$as$u20$core..fmt..Debug$GT$3fmt17hc67082adc7abff3dE', symObjAddr: 0x44350, symBinAddr: 0x10002FD10, symSize: 0x30 }
  - { offsetInCU: 0x39573, offset: 0x50399, size: 0x8, addend: 0x0, symName: '__ZN3std2io5impls74_$LT$impl$u20$std..io..Write$u20$for$u20$alloc..vec..Vec$LT$u8$C$A$GT$$GT$5write17h94a30090f7919c02E', symObjAddr: 0x2E590, symBinAddr: 0x100029EE0, symSize: 0x60 }
  - { offsetInCU: 0x3964A, offset: 0x50470, size: 0x8, addend: 0x0, symName: '__ZN3std2io5impls74_$LT$impl$u20$std..io..Write$u20$for$u20$alloc..vec..Vec$LT$u8$C$A$GT$$GT$14write_vectored17h38b57fd2e05e304aE', symObjAddr: 0x2E5F0, symBinAddr: 0x100029F40, symSize: 0x160 }
  - { offsetInCU: 0x39693, offset: 0x504B9, size: 0x8, addend: 0x0, symName: '__ZN3std2io5impls74_$LT$impl$u20$std..io..Write$u20$for$u20$alloc..vec..Vec$LT$u8$C$A$GT$$GT$14write_vectored17h38b57fd2e05e304aE', symObjAddr: 0x2E5F0, symBinAddr: 0x100029F40, symSize: 0x160 }
  - { offsetInCU: 0x39846, offset: 0x5066C, size: 0x8, addend: 0x0, symName: '__ZN3std2io5impls74_$LT$impl$u20$std..io..Write$u20$for$u20$alloc..vec..Vec$LT$u8$C$A$GT$$GT$17is_write_vectored17hbe3a42e190f0f94dE', symObjAddr: 0x2E750, symBinAddr: 0x10002A0A0, symSize: 0x10 }
  - { offsetInCU: 0x39861, offset: 0x50687, size: 0x8, addend: 0x0, symName: '__ZN3std2io5impls74_$LT$impl$u20$std..io..Write$u20$for$u20$alloc..vec..Vec$LT$u8$C$A$GT$$GT$9write_all17hbabe835b5d4809f7E', symObjAddr: 0x2E760, symBinAddr: 0x10002A0B0, symSize: 0x60 }
  - { offsetInCU: 0x39931, offset: 0x50757, size: 0x8, addend: 0x0, symName: '__ZN3std2io5impls74_$LT$impl$u20$std..io..Write$u20$for$u20$alloc..vec..Vec$LT$u8$C$A$GT$$GT$5flush17h17fee1c2e23db30aE', symObjAddr: 0x2E7C0, symBinAddr: 0x10002A110, symSize: 0x10 }
  - { offsetInCU: 0x399C8, offset: 0x507EE, size: 0x8, addend: 0x0, symName: '__ZN61_$LT$$RF$std..io..stdio..Stdout$u20$as$u20$std..io..Write$GT$9write_fmt17h7ec60dfe0ea46b1fE', symObjAddr: 0x31300, symBinAddr: 0x10002A120, symSize: 0x190 }
  - { offsetInCU: 0x39D58, offset: 0x50B7E, size: 0x8, addend: 0x0, symName: '__ZN61_$LT$std..io..stdio..StdoutLock$u20$as$u20$std..io..Write$GT$9write_all17h859708ba98f86e1fE', symObjAddr: 0x31760, symBinAddr: 0x10002A2B0, symSize: 0x280 }
  - { offsetInCU: 0x3A3B0, offset: 0x511D6, size: 0x8, addend: 0x0, symName: __ZN3std2io5stdio6Stderr4lock17h1c509cc3aff5b30fE, symObjAddr: 0x31D10, symBinAddr: 0x10002A530, symSize: 0x0 }
  - { offsetInCU: 0x3A82D, offset: 0x51653, size: 0x8, addend: 0x0, symName: __ZN3std2io5stdio31print_to_buffer_if_capture_used17ha63af7ba63fd2069E, symObjAddr: 0x32B00, symBinAddr: 0x10002A680, symSize: 0x210 }
  - { offsetInCU: 0x3AF81, offset: 0x51DA7, size: 0x8, addend: 0x0, symName: __ZN3std2io5stdio6_print17h72b43a6446f0d302E, symObjAddr: 0x32DE0, symBinAddr: 0x10002A890, symSize: 0xF0 }
  - { offsetInCU: 0x3B0AA, offset: 0x51ED0, size: 0x8, addend: 0x0, symName: '__ZN3std2io8buffered9bufwriter18BufWriter$LT$W$GT$9flush_buf17h0bb639a092aebc64E', symObjAddr: 0x2D090, symBinAddr: 0x100029670, symSize: 0x270 }
  - { offsetInCU: 0x3B71C, offset: 0x52542, size: 0x8, addend: 0x0, symName: '__ZN3std2io8buffered9bufwriter18BufWriter$LT$W$GT$14write_all_cold17h6fbe0dca3bc9c1fbE', symObjAddr: 0x2D480, symBinAddr: 0x10004AFE0, symSize: 0x120 }
  - { offsetInCU: 0x3BAD4, offset: 0x528FA, size: 0x8, addend: 0x0, symName: __ZN3std2io19default_read_to_end16small_probe_read17h628a64f1a38c4cb0E, symObjAddr: 0x33890, symBinAddr: 0x10002A980, symSize: 0xF0 }
  - { offsetInCU: 0x3BCA3, offset: 0x52AC9, size: 0x8, addend: 0x0, symName: '__ZN3std4sync4once4Once15call_once_force28_$u7b$$u7b$closure$u7d$$u7d$17h066b6215fe20f0c0E', symObjAddr: 0x3E1D0, symBinAddr: 0x10002D040, symSize: 0x90 }
  - { offsetInCU: 0x3BE0F, offset: 0x52C35, size: 0x8, addend: 0x0, symName: '__ZN3std4sync4once4Once15call_once_force28_$u7b$$u7b$closure$u7d$$u7d$17h5b9e19c1a461e180E', symObjAddr: 0x3E260, symBinAddr: 0x10002D0D0, symSize: 0x90 }
  - { offsetInCU: 0x3BEF5, offset: 0x52D1B, size: 0x8, addend: 0x0, symName: '__ZN3std4sync4once4Once9call_once28_$u7b$$u7b$closure$u7d$$u7d$17h06e38cb17c1bb498E', symObjAddr: 0x3DCE0, symBinAddr: 0x10002CD40, symSize: 0x300 }
  - { offsetInCU: 0x3C838, offset: 0x5365E, size: 0x8, addend: 0x0, symName: '__ZN3std4sync9once_lock17OnceLock$LT$T$GT$10initialize17h588550981d1e9b1bE', symObjAddr: 0x3E460, symBinAddr: 0x10004B110, symSize: 0x60 }
  - { offsetInCU: 0x3C863, offset: 0x53689, size: 0x8, addend: 0x0, symName: '__ZN3std4sync9once_lock17OnceLock$LT$T$GT$10initialize17h588550981d1e9b1bE', symObjAddr: 0x3E460, symBinAddr: 0x10004B110, symSize: 0x60 }
  - { offsetInCU: 0x3C877, offset: 0x5369D, size: 0x8, addend: 0x0, symName: '__ZN3std4sync9once_lock17OnceLock$LT$T$GT$10initialize17h588550981d1e9b1bE', symObjAddr: 0x3E460, symBinAddr: 0x10004B110, symSize: 0x60 }
  - { offsetInCU: 0x3C88B, offset: 0x536B1, size: 0x8, addend: 0x0, symName: '__ZN3std4sync9once_lock17OnceLock$LT$T$GT$10initialize17h588550981d1e9b1bE', symObjAddr: 0x3E460, symBinAddr: 0x10004B110, symSize: 0x60 }
  - { offsetInCU: 0x3C8A0, offset: 0x536C6, size: 0x8, addend: 0x0, symName: '__ZN3std4sync9once_lock17OnceLock$LT$T$GT$10initialize17hf37e12245f3595a8E', symObjAddr: 0x3E520, symBinAddr: 0x10004B170, symSize: 0x60 }
  - { offsetInCU: 0x3C8CB, offset: 0x536F1, size: 0x8, addend: 0x0, symName: '__ZN3std4sync9once_lock17OnceLock$LT$T$GT$10initialize17hf37e12245f3595a8E', symObjAddr: 0x3E520, symBinAddr: 0x10004B170, symSize: 0x60 }
  - { offsetInCU: 0x3C8DF, offset: 0x53705, size: 0x8, addend: 0x0, symName: '__ZN3std4sync9once_lock17OnceLock$LT$T$GT$10initialize17hf37e12245f3595a8E', symObjAddr: 0x3E520, symBinAddr: 0x10004B170, symSize: 0x60 }
  - { offsetInCU: 0x3C8F3, offset: 0x53719, size: 0x8, addend: 0x0, symName: '__ZN3std4sync9once_lock17OnceLock$LT$T$GT$10initialize17hf37e12245f3595a8E', symObjAddr: 0x3E520, symBinAddr: 0x10004B170, symSize: 0x60 }
  - { offsetInCU: 0x3CBDA, offset: 0x53A00, size: 0x8, addend: 0x0, symName: __ZN3std9panicking11panic_count17is_zero_slow_path17h56102c4de0497dbbE, symObjAddr: 0x426E0, symBinAddr: 0x10004B400, symSize: 0x20 }
  - { offsetInCU: 0x3CD2C, offset: 0x53B52, size: 0x8, addend: 0x0, symName: ___rust_drop_panic, symObjAddr: 0x418C0, symBinAddr: 0x10002DB90, symSize: 0xD0 }
  - { offsetInCU: 0x3CF6F, offset: 0x53D95, size: 0x8, addend: 0x0, symName: ___rust_foreign_exception, symObjAddr: 0x41990, symBinAddr: 0x10002DC60, symSize: 0xD0 }
  - { offsetInCU: 0x3D1D2, offset: 0x53FF8, size: 0x8, addend: 0x0, symName: '__ZN3std9panicking12default_hook28_$u7b$$u7b$closure$u7d$$u7d$17ha1110e62c540acf1E', symObjAddr: 0x42210, symBinAddr: 0x10002E1E0, symSize: 0x410 }
  - { offsetInCU: 0x3DA26, offset: 0x5484C, size: 0x8, addend: 0x0, symName: __ZN3std9panicking12default_hook17h38beedc244b2f33fE, symObjAddr: 0x41D60, symBinAddr: 0x10002DD30, symSize: 0x4B0 }
  - { offsetInCU: 0x3E7FD, offset: 0x55623, size: 0x8, addend: 0x0, symName: _rust_begin_unwind, symObjAddr: 0x42740, symBinAddr: 0x10002E5F0, symSize: 0x50 }
  - { offsetInCU: 0x3E866, offset: 0x5568C, size: 0x8, addend: 0x0, symName: '__ZN102_$LT$std..panicking..begin_panic_handler..FormatStringPayload$u20$as$u20$core..panic..PanicPayload$GT$8take_box17h792c18fb9672bc70E', symObjAddr: 0x42790, symBinAddr: 0x10002E640, symSize: 0x150 }
  - { offsetInCU: 0x3EAFA, offset: 0x55920, size: 0x8, addend: 0x0, symName: '__ZN102_$LT$std..panicking..begin_panic_handler..FormatStringPayload$u20$as$u20$core..panic..PanicPayload$GT$3get17hc64129965c6e3f89E', symObjAddr: 0x428E0, symBinAddr: 0x10002E790, symSize: 0xD0 }
  - { offsetInCU: 0x3EC22, offset: 0x55A48, size: 0x8, addend: 0x0, symName: '__ZN95_$LT$std..panicking..begin_panic_handler..FormatStringPayload$u20$as$u20$core..fmt..Display$GT$3fmt17h95ccb363af43619fE', symObjAddr: 0x429B0, symBinAddr: 0x10002E860, symSize: 0x70 }
  - { offsetInCU: 0x3ECDB, offset: 0x55B01, size: 0x8, addend: 0x0, symName: '__ZN99_$LT$std..panicking..begin_panic_handler..StaticStrPayload$u20$as$u20$core..panic..PanicPayload$GT$8take_box17h1610e0deea676a22E', symObjAddr: 0x42A20, symBinAddr: 0x10002E8D0, symSize: 0x50 }
  - { offsetInCU: 0x3ED67, offset: 0x55B8D, size: 0x8, addend: 0x0, symName: '__ZN99_$LT$std..panicking..begin_panic_handler..StaticStrPayload$u20$as$u20$core..panic..PanicPayload$GT$3get17h2ea46f94062eaaabE', symObjAddr: 0x42A70, symBinAddr: 0x10002E920, symSize: 0x10 }
  - { offsetInCU: 0x3ED82, offset: 0x55BA8, size: 0x8, addend: 0x0, symName: '__ZN99_$LT$std..panicking..begin_panic_handler..StaticStrPayload$u20$as$u20$core..panic..PanicPayload$GT$6as_str17hf9f0880f33b38064E', symObjAddr: 0x42A80, symBinAddr: 0x10002E930, symSize: 0x10 }
  - { offsetInCU: 0x3EDA3, offset: 0x55BC9, size: 0x8, addend: 0x0, symName: '__ZN92_$LT$std..panicking..begin_panic_handler..StaticStrPayload$u20$as$u20$core..fmt..Display$GT$3fmt17h238672ad02fd2f21E', symObjAddr: 0x42A90, symBinAddr: 0x10002E940, symSize: 0x20 }
  - { offsetInCU: 0x3EDBF, offset: 0x55BE5, size: 0x8, addend: 0x0, symName: '__ZN3std9panicking19begin_panic_handler28_$u7b$$u7b$closure$u7d$$u7d$17h05caf8582ad47024E', symObjAddr: 0x42AB0, symBinAddr: 0x10002E960, symSize: 0xD0 }
  - { offsetInCU: 0x3EF00, offset: 0x55D26, size: 0x8, addend: 0x0, symName: __ZN3std9panicking20rust_panic_with_hook17h476dee14babd971bE, symObjAddr: 0x42C10, symBinAddr: 0x10002EA30, symSize: 0x9F0 }
  - { offsetInCU: 0x40692, offset: 0x574B8, size: 0x8, addend: 0x0, symName: _rust_panic, symObjAddr: 0x43700, symBinAddr: 0x10002F420, symSize: 0x70 }
  - { offsetInCU: 0x40731, offset: 0x57557, size: 0x8, addend: 0x0, symName: __ZN3std6thread6Thread9new_inner17hc776e1c7db6dac42E, symObjAddr: 0x27A30, symBinAddr: 0x100028BD0, symSize: 0x150 }
  - { offsetInCU: 0x40C2E, offset: 0x57A54, size: 0x8, addend: 0x0, symName: '__ZN68_$LT$std..thread..local..AccessError$u20$as$u20$core..fmt..Debug$GT$3fmt17hfb051a81097c01deE', symObjAddr: 0x27080, symBinAddr: 0x1000288C0, symSize: 0x30 }
  - { offsetInCU: 0x40CA7, offset: 0x57ACD, size: 0x8, addend: 0x0, symName: __ZN3std6thread11set_current17hf89ea0dd9f2b9978E, symObjAddr: 0x27160, symBinAddr: 0x1000288F0, symSize: 0x140 }
  - { offsetInCU: 0x410AA, offset: 0x57ED0, size: 0x8, addend: 0x0, symName: __ZN3std6thread7current17hffe4f7901c482367E, symObjAddr: 0x272A0, symBinAddr: 0x100028A30, symSize: 0xA0 }
  - { offsetInCU: 0x41293, offset: 0x580B9, size: 0x8, addend: 0x0, symName: __ZN3std6thread4park17hac627a69a2c0603dE, symObjAddr: 0x27610, symBinAddr: 0x100028AD0, symSize: 0x100 }
  - { offsetInCU: 0x41604, offset: 0x5842A, size: 0x8, addend: 0x0, symName: __ZN3std6thread8ThreadId3new9exhausted17hee7d68b6e81e2237E, symObjAddr: 0x27890, symBinAddr: 0x10004AF90, symSize: 0x50 }
  - { offsetInCU: 0x416FB, offset: 0x58521, size: 0x8, addend: 0x0, symName: '__ZN3std10sys_common8lazy_box16LazyBox$LT$T$GT$10initialize17h68cb83bd50c56600E', symObjAddr: 0x40360, symBinAddr: 0x10004B3B0, symSize: 0x50 }
  - { offsetInCU: 0x4190E, offset: 0x58734, size: 0x8, addend: 0x0, symName: __ZN3std12backtrace_rs9symbolize5gimli7Context3new17ha1962ce590ad2924E, symObjAddr: 0x510B0, symBinAddr: 0x100034AA0, symSize: 0x3420 }
  - { offsetInCU: 0x459A6, offset: 0x5C7CC, size: 0x8, addend: 0x0, symName: __ZN3std12backtrace_rs9symbolize5gimli7Context11find_frames17h7658aa0e29db52d5E, symObjAddr: 0x544D0, symBinAddr: 0x100037EC0, symSize: 0x3F0 }
  - { offsetInCU: 0x45DD7, offset: 0x5CBFD, size: 0x8, addend: 0x0, symName: __ZN3std12backtrace_rs9symbolize5gimli5macho6Object5parse17h78b3cd8af98e2ca0E, symObjAddr: 0x57A70, symBinAddr: 0x10003B430, symSize: 0x1090 }
  - { offsetInCU: 0x47ADB, offset: 0x5E901, size: 0x8, addend: 0x0, symName: __ZN3std12backtrace_rs9symbolize5gimli5macho6Object7section17h2252defa69affb04E, symObjAddr: 0x58B00, symBinAddr: 0x10003C4C0, symSize: 0x19A }
  - { offsetInCU: 0x47E42, offset: 0x5EC68, size: 0x8, addend: 0x0, symName: __ZN3std12backtrace_rs9symbolize5gimli5macho11find_header17hf7d4993c22952055E, symObjAddr: 0x578E0, symBinAddr: 0x10003B2A0, symSize: 0x190 }
  - { offsetInCU: 0x48652, offset: 0x5F478, size: 0x8, addend: 0x0, symName: __ZN3std12backtrace_rs9symbolize5gimli4mmap17hd480a54e9faf1969E, symObjAddr: 0x548C0, symBinAddr: 0x1000382B0, symSize: 0x1A0 }
  - { offsetInCU: 0x48C31, offset: 0x5FA57, size: 0x8, addend: 0x0, symName: __ZN3std12backtrace_rs9symbolize5gimli7resolve17h96a5664b21f7a158E, symObjAddr: 0x54A60, symBinAddr: 0x100038450, symSize: 0x2E50 }
  - { offsetInCU: 0x4E827, offset: 0x6564D, size: 0x8, addend: 0x0, symName: __ZN3std12backtrace_rs9symbolize6Symbol4name17haa9b2560df004d25E, symObjAddr: 0x43840, symBinAddr: 0x10002F490, symSize: 0x110 }
  - { offsetInCU: 0x4E8E8, offset: 0x6570E, size: 0x8, addend: 0x0, symName: '__ZN79_$LT$std..backtrace_rs..symbolize..SymbolName$u20$as$u20$core..fmt..Display$GT$3fmt17h00ae6702a7d6284fE', symObjAddr: 0x43A80, symBinAddr: 0x10002F5A0, symSize: 0xE0 }
  - { offsetInCU: 0x4EA13, offset: 0x65839, size: 0x8, addend: 0x0, symName: __ZN3std12backtrace_rs9backtrace9libunwind5trace8trace_fn17h86c77dfc4cf1f602E, symObjAddr: 0x51070, symBinAddr: 0x100034A60, symSize: 0x40 }
  - { offsetInCU: 0x4EAF1, offset: 0x65917, size: 0x8, addend: 0x0, symName: __ZN3std12backtrace_rs5print17BacktraceFrameFmt21print_raw_with_column17h9782bac7179e68beE, symObjAddr: 0x43C40, symBinAddr: 0x10002F680, symSize: 0x690 }
  - { offsetInCU: 0x4ED43, offset: 0x65B69, size: 0x8, addend: 0x0, symName: '__ZN3std2rt19lang_start_internal28_$u7b$$u7b$closure$u7d$$u7d$17hab23b84f28c094acE', symObjAddr: 0x26ED0, symBinAddr: 0x100028870, symSize: 0x50 }
  - { offsetInCU: 0x4ED80, offset: 0x65BA6, size: 0x8, addend: 0x0, symName: __ZN3std2rt19lang_start_internal17h44ef96ddb6c2eff9E, symObjAddr: 0x268F0, symBinAddr: 0x100028290, symSize: 0x5E0 }
  - { offsetInCU: 0x4F787, offset: 0x665AD, size: 0x8, addend: 0x0, symName: __ZN3std5panic19get_backtrace_style17hb7397f3e46331c67E, symObjAddr: 0x38CB0, symBinAddr: 0x10002B3E0, symSize: 0xF0 }
  - { offsetInCU: 0x4FB47, offset: 0x6696D, size: 0x8, addend: 0x0, symName: __ZN3std3env11current_dir17he251f845082cc5ddE, symObjAddr: 0x29060, symBinAddr: 0x100028D20, symSize: 0x1F0 }
  - { offsetInCU: 0x4FEAE, offset: 0x66CD4, size: 0x8, addend: 0x0, symName: __ZN3std3env7vars_os17h96fbb483b5c52e89E, symObjAddr: 0x29270, symBinAddr: 0x100028F10, symSize: 0x360 }
  - { offsetInCU: 0x504A8, offset: 0x672CE, size: 0x8, addend: 0x0, symName: __ZN3std3env4_var17h14de8fbde719fed4E, symObjAddr: 0x29970, symBinAddr: 0x100029270, symSize: 0xB0 }
  - { offsetInCU: 0x50584, offset: 0x673AA, size: 0x8, addend: 0x0, symName: __ZN3std3env7_var_os17he4d73c2dfeb06a82E, symObjAddr: 0x29A20, symBinAddr: 0x100029320, symSize: 0x160 }
  - { offsetInCU: 0x5087E, offset: 0x676A4, size: 0x8, addend: 0x0, symName: __ZN3std2fs11OpenOptions5_open17h1d14c781b27b9cd8E, symObjAddr: 0x2BCB0, symBinAddr: 0x100029480, symSize: 0x1F0 }
  - { offsetInCU: 0x50AA8, offset: 0x678CE, size: 0x8, addend: 0x0, symName: __ZN3std5alloc24default_alloc_error_hook17hb7e8942bce464676E, symObjAddr: 0x415B0, symBinAddr: 0x10002D910, symSize: 0x160 }
  - { offsetInCU: 0x50D32, offset: 0x67B58, size: 0x8, addend: 0x0, symName: ___rdl_alloc, symObjAddr: 0x41710, symBinAddr: 0x10002DA70, symSize: 0x70 }
  - { offsetInCU: 0x50DC1, offset: 0x67BE7, size: 0x8, addend: 0x0, symName: ___rdl_dealloc, symObjAddr: 0x41780, symBinAddr: 0x10002DAE0, symSize: 0x10 }
  - { offsetInCU: 0x50DEE, offset: 0x67C14, size: 0x8, addend: 0x0, symName: ___rdl_realloc, symObjAddr: 0x41790, symBinAddr: 0x10002DAF0, symSize: 0xA0 }
  - { offsetInCU: 0x50F00, offset: 0x67D26, size: 0x8, addend: 0x0, symName: __ZN3std5alloc8rust_oom17hdae996a8007ae43bE, symObjAddr: 0x50F70, symBinAddr: 0x100034A20, symSize: 0x20 }
  - { offsetInCU: 0x50F4C, offset: 0x67D72, size: 0x8, addend: 0x0, symName: ___rg_oom, symObjAddr: 0x50F90, symBinAddr: 0x100034A40, symSize: 0x20 }
  - { offsetInCU: 0x510AB, offset: 0x67ED1, size: 0x8, addend: 0x0, symName: '__ZN5gimli4read4unit32AttributeValue$LT$R$C$Offset$GT$11udata_value17hede2cb0fa7142a81E', symObjAddr: 0x19DD0, symBinAddr: 0x10001BD20, symSize: 0x80 }
  - { offsetInCU: 0x51106, offset: 0x67F2C, size: 0x8, addend: 0x0, symName: __ZN5gimli4read4unit15parse_attribute17hdc95fea432f22995E, symObjAddr: 0x171C0, symBinAddr: 0x100019110, symSize: 0x1960 }
  - { offsetInCU: 0x547F5, offset: 0x6B61B, size: 0x8, addend: 0x0, symName: __ZN5gimli4read4unit15skip_attributes17hd3629e11f5bef68bE, symObjAddr: 0x18B20, symBinAddr: 0x10001AA70, symSize: 0x750 }
  - { offsetInCU: 0x5524B, offset: 0x6C071, size: 0x8, addend: 0x0, symName: '__ZN5gimli4read4unit18Attribute$LT$R$GT$5value17hb3a3a1d0d3843921E', symObjAddr: 0x19270, symBinAddr: 0x10001B1C0, symSize: 0x810 }
  - { offsetInCU: 0x5579D, offset: 0x6C5C3, size: 0x8, addend: 0x0, symName: '__ZN5gimli4read4unit22EntriesCursor$LT$R$GT$10next_entry17hcb0a839aa63ff658E', symObjAddr: 0x19A80, symBinAddr: 0x10001B9D0, symSize: 0x350 }
  - { offsetInCU: 0x55D09, offset: 0x6CB2F, size: 0x8, addend: 0x0, symName: '__ZN5gimli4read4unit33DebugInfoUnitHeadersIter$LT$R$GT$4next17h32df442407d963e3E', symObjAddr: 0x19E50, symBinAddr: 0x10001BDA0, symSize: 0x600 }
  - { offsetInCU: 0x56F41, offset: 0x6DD67, size: 0x8, addend: 0x0, symName: '__ZN90_$LT$gimli..read..unit..AttributeValue$LT$R$C$Offset$GT$$u20$as$u20$core..clone..Clone$GT$5clone17h26b89df82d70d509E', symObjAddr: 0x1F680, symBinAddr: 0x100021160, symSize: 0x120 }
  - { offsetInCU: 0x57192, offset: 0x6DFB8, size: 0x8, addend: 0x0, symName: __ZN5gimli4read6reader6Reader11read_offset17h7e80abe32b9662a5E, symObjAddr: 0x1D830, symBinAddr: 0x10001F780, symSize: 0xB0 }
  - { offsetInCU: 0x573F7, offset: 0x6E21D, size: 0x8, addend: 0x0, symName: __ZN5gimli4read6reader6Reader12read_uleb12817h4ba34c89a0f4e49bE, symObjAddr: 0x1D8E0, symBinAddr: 0x10001F830, symSize: 0xB0 }
  - { offsetInCU: 0x574A2, offset: 0x6E2C8, size: 0x8, addend: 0x0, symName: __ZN5gimli4read6reader6Reader17read_sized_offset17h2d0659fa8369884cE, symObjAddr: 0x1D990, symBinAddr: 0x10001F8E0, symSize: 0x130 }
  - { offsetInCU: 0x5791D, offset: 0x6E743, size: 0x8, addend: 0x0, symName: __ZN5gimli4read4line13parse_file_v517h00102d4450b26936E, symObjAddr: 0x15D20, symBinAddr: 0x100017C70, symSize: 0x2E0 }
  - { offsetInCU: 0x57A92, offset: 0x6E8B8, size: 0x8, addend: 0x0, symName: __ZN5gimli4read4line15FileEntryFormat5parse17hd09e7e12b3a83a4eE, symObjAddr: 0x16000, symBinAddr: 0x100017F50, symSize: 0x3A0 }
  - { offsetInCU: 0x5825A, offset: 0x6F080, size: 0x8, addend: 0x0, symName: __ZN5gimli4read4line15parse_attribute17h13a52bf6f5b6c965E, symObjAddr: 0x163A0, symBinAddr: 0x1000182F0, symSize: 0xAC0 }
  - { offsetInCU: 0x59DDB, offset: 0x70C01, size: 0x8, addend: 0x0, symName: __ZN5gimli4read4line18parse_directory_v517h00bba0525c5798feE, symObjAddr: 0x16E60, symBinAddr: 0x100018DB0, symSize: 0x110 }
  - { offsetInCU: 0x59E54, offset: 0x70C7A, size: 0x8, addend: 0x0, symName: '__ZN5gimli4read4line27FileEntry$LT$R$C$Offset$GT$5parse17hcd4749b4839ce183E', symObjAddr: 0x16F70, symBinAddr: 0x100018EC0, symSize: 0x250 }
  - { offsetInCU: 0x5A12B, offset: 0x70F51, size: 0x8, addend: 0x0, symName: '__ZN93_$LT$gimli..read..line..LineProgramHeader$LT$R$C$Offset$GT$$u20$as$u20$core..clone..Clone$GT$5clone17h1fac362afd052016E', symObjAddr: 0x1F7A0, symBinAddr: 0x100021280, symSize: 0x5C0 }
  - { offsetInCU: 0x5ABD7, offset: 0x719FD, size: 0x8, addend: 0x0, symName: '__ZN5gimli4read5dwarf14Dwarf$LT$R$GT$11attr_string17haadd54a0e6e81ebbE', symObjAddr: 0x1CC80, symBinAddr: 0x10001EBD0, symSize: 0x210 }
  - { offsetInCU: 0x5B467, offset: 0x7228D, size: 0x8, addend: 0x0, symName: '__ZN5gimli4read5dwarf13Unit$LT$R$GT$3new17h7b5b7e892a6b53baE', symObjAddr: 0x1A450, symBinAddr: 0x10001C3A0, symSize: 0x2830 }
  - { offsetInCU: 0x5ECAB, offset: 0x75AD1, size: 0x8, addend: 0x0, symName: '__ZN5gimli4read5index18UnitIndex$LT$R$GT$5parse17h7e148d1862301c26E', symObjAddr: 0x1CE90, symBinAddr: 0x10001EDE0, symSize: 0x9A0 }
  - { offsetInCU: 0x5ECC8, offset: 0x75AEE, size: 0x8, addend: 0x0, symName: '__ZN5gimli4read5index18UnitIndex$LT$R$GT$5parse17h7e148d1862301c26E', symObjAddr: 0x1CE90, symBinAddr: 0x10001EDE0, symSize: 0x9A0 }
  - { offsetInCU: 0x5ECDC, offset: 0x75B02, size: 0x8, addend: 0x0, symName: '__ZN5gimli4read5index18UnitIndex$LT$R$GT$5parse17h7e148d1862301c26E', symObjAddr: 0x1CE90, symBinAddr: 0x10001EDE0, symSize: 0x9A0 }
  - { offsetInCU: 0x5F24A, offset: 0x76070, size: 0x8, addend: 0x0, symName: '__ZN5gimli4read7aranges30ArangeHeader$LT$R$C$Offset$GT$5parse17hb555810ff3d7c330E', symObjAddr: 0x1DAC0, symBinAddr: 0x10001FA10, symSize: 0x2A0 }
  - { offsetInCU: 0x5FAE6, offset: 0x7690C, size: 0x8, addend: 0x0, symName: '__ZN5gimli4read8rnglists20RngListIter$LT$R$GT$4next17h289733bca08e128fE', symObjAddr: 0x1DD60, symBinAddr: 0x10001FCB0, symSize: 0x1000 }
  - { offsetInCU: 0x626A9, offset: 0x794CF, size: 0x8, addend: 0x0, symName: '__ZN9addr2line8function17Function$LT$R$GT$14parse_children17hbb65783bd45d2861E', symObjAddr: 0x250C0, symBinAddr: 0x100026AB0, symSize: 0x1630 }
  - { offsetInCU: 0x638F4, offset: 0x7A71A, size: 0x8, addend: 0x0, symName: __ZN9addr2line8function10name_entry17hc2b582ece92caa7aE, symObjAddr: 0x24C80, symBinAddr: 0x100026670, symSize: 0x440 }
  - { offsetInCU: 0x63D20, offset: 0x7AB46, size: 0x8, addend: 0x0, symName: __ZN9addr2line8function9name_attr17hc96fb7a92795daf9E, symObjAddr: 0x266F0, symBinAddr: 0x1000280E0, symSize: 0x1B0 }
  - { offsetInCU: 0x63F18, offset: 0x7AD3E, size: 0x8, addend: 0x0, symName: __ZN9addr2line11render_file17h5517ef64accc5d43E, symObjAddr: 0x1FE50, symBinAddr: 0x100021840, symSize: 0x6B0 }
  - { offsetInCU: 0x646C6, offset: 0x7B4EC, size: 0x8, addend: 0x0, symName: '__ZN9addr2line16Context$LT$R$GT$9find_unit17hd9fd8439b7d6087eE', symObjAddr: 0x20500, symBinAddr: 0x100021EF0, symSize: 0x150 }
  - { offsetInCU: 0x6498A, offset: 0x7B7B0, size: 0x8, addend: 0x0, symName: '__ZN9addr2line16ResUnit$LT$R$GT$25find_function_or_location17h07e609037f3ea598E', symObjAddr: 0x20650, symBinAddr: 0x100022040, symSize: 0x560 }
  - { offsetInCU: 0x64D70, offset: 0x7BB96, size: 0x8, addend: 0x0, symName: '__ZN9addr2line16ResUnit$LT$R$GT$25find_function_or_location28_$u7b$$u7b$closure$u7d$$u7d$17hee587d2ae9be3845E', symObjAddr: 0x20BB0, symBinAddr: 0x1000225A0, symSize: 0x1CD0 }
  - { offsetInCU: 0x676AB, offset: 0x7E4D1, size: 0x8, addend: 0x0, symName: '__ZN9addr2line18FrameIter$LT$R$GT$4next17h45f956316232ee2fE', symObjAddr: 0x22880, symBinAddr: 0x100024270, symSize: 0x400 }
  - { offsetInCU: 0x67B94, offset: 0x7E9BA, size: 0x8, addend: 0x0, symName: '__ZN9addr2line30LoopingLookup$LT$T$C$L$C$F$GT$10new_lookup17h74c847bef191747eE', symObjAddr: 0x22C80, symBinAddr: 0x100024670, symSize: 0x520 }
  - { offsetInCU: 0x68037, offset: 0x7EE5D, size: 0x8, addend: 0x0, symName: __ZN9addr2line5Lines5parse17hba10f936c372d0e0E, symObjAddr: 0x231A0, symBinAddr: 0x100024B90, symSize: 0x1AE0 }
  - { offsetInCU: 0x6AAB9, offset: 0x818DF, size: 0x8, addend: 0x0, symName: __ZN6object4read7archive13ArchiveMember5parse17h9773f219fabef87fE, symObjAddr: 0x1F1E0, symBinAddr: 0x100020D20, symSize: 0x360 }
  - { offsetInCU: 0x6B0F1, offset: 0x81F17, size: 0x8, addend: 0x0, symName: __ZN6object4read7archive23parse_bsd_extended_name17hcb481cad095c5149E, symObjAddr: 0x1F540, symBinAddr: 0x100021080, symSize: 0xA0 }
  - { offsetInCU: 0x1E, offset: 0x8263C, size: 0x8, addend: 0x0, symName: '__ZN4core3ptr49drop_in_place$LT$panic_unwind..imp..Exception$GT$17h7cb1f70ba27daa8aE', symObjAddr: 0x0, symBinAddr: 0x10003C660, symSize: 0x70 }
  - { offsetInCU: 0x43, offset: 0x82661, size: 0x8, addend: 0x0, symName: '__ZN4core3ptr49drop_in_place$LT$panic_unwind..imp..Exception$GT$17h7cb1f70ba27daa8aE', symObjAddr: 0x0, symBinAddr: 0x10003C660, symSize: 0x70 }
  - { offsetInCU: 0x147, offset: 0x82765, size: 0x8, addend: 0x0, symName: '__ZN4core3ptr74drop_in_place$LT$alloc..boxed..Box$LT$panic_unwind..imp..Exception$GT$$GT$17hd08adefcc1143184E', symObjAddr: 0x70, symBinAddr: 0x10003C6D0, symSize: 0x90 }
  - { offsetInCU: 0x416, offset: 0x82A34, size: 0x8, addend: 0x0, symName: __ZN12panic_unwind3imp5panic17exception_cleanup17hd6ad6022d0a6ffe7E, symObjAddr: 0x200, symBinAddr: 0x10003C860, symSize: 0x16 }
  - { offsetInCU: 0x432, offset: 0x82A50, size: 0x8, addend: 0x0, symName: ___rust_panic_cleanup, symObjAddr: 0x100, symBinAddr: 0x10003C760, symSize: 0x50 }
  - { offsetInCU: 0x4A9, offset: 0x82AC7, size: 0x8, addend: 0x0, symName: ___rust_start_panic, symObjAddr: 0x150, symBinAddr: 0x10003C7B0, symSize: 0xB0 }
  - { offsetInCU: 0x189, offset: 0x82CEC, size: 0x8, addend: 0x0, symName: __ZN6memchr6memchr3x864sse26memchr17h1c3f8a3b85e5e51bE, symObjAddr: 0x8F0, symBinAddr: 0x10003CB80, symSize: 0x1C0 }
  - { offsetInCU: 0x1A0, offset: 0x82D03, size: 0x8, addend: 0x0, symName: __ZN6memchr6memchr3x864sse26memchr17h1c3f8a3b85e5e51bE, symObjAddr: 0x8F0, symBinAddr: 0x10003CB80, symSize: 0x1C0 }
  - { offsetInCU: 0x4B0, offset: 0x83013, size: 0x8, addend: 0x0, symName: __ZN6memchr6memchr3x864sse27memchr217h2270963e261333a1E, symObjAddr: 0xAB0, symBinAddr: 0x10003CD40, symSize: 0x1F0 }
  - { offsetInCU: 0x4CE, offset: 0x83031, size: 0x8, addend: 0x0, symName: __ZN6memchr6memchr3x864sse27memchr217h2270963e261333a1E, symObjAddr: 0xAB0, symBinAddr: 0x10003CD40, symSize: 0x1F0 }
  - { offsetInCU: 0xD9, offset: 0x83442, size: 0x8, addend: 0x0, symName: '__ZN69_$LT$core..alloc..layout..LayoutError$u20$as$u20$core..fmt..Debug$GT$3fmt17h954ec1b18e5120d2E', symObjAddr: 0xE0, symBinAddr: 0x100045670, symSize: 0x20 }
  - { offsetInCU: 0x48F, offset: 0x837F8, size: 0x8, addend: 0x0, symName: __ZN5alloc7raw_vec17capacity_overflow17hd5f476d0f4b04237E, symObjAddr: 0x100, symBinAddr: 0x100045690, symSize: 0x50 }
  - { offsetInCU: 0x4C8, offset: 0x83831, size: 0x8, addend: 0x0, symName: '__ZN5alloc7raw_vec19RawVec$LT$T$C$A$GT$7reserve21do_reserve_and_handle17h8390814197170b81E', symObjAddr: 0x150, symBinAddr: 0x10004B8F0, symSize: 0xA0 }
  - { offsetInCU: 0x5E4, offset: 0x8394D, size: 0x8, addend: 0x0, symName: __ZN5alloc7raw_vec11finish_grow17hac7a643019d04e69E, symObjAddr: 0x290, symBinAddr: 0x1000456E0, symSize: 0xA0 }
  - { offsetInCU: 0x649, offset: 0x839B2, size: 0x8, addend: 0x0, symName: __ZN5alloc7raw_vec12handle_error17h19d8d109ef215ad1E, symObjAddr: 0x330, symBinAddr: 0x10004B990, symSize: 0x20 }
  - { offsetInCU: 0x71F, offset: 0x83A88, size: 0x8, addend: 0x0, symName: __ZN5alloc5alloc18handle_alloc_error17h8a695ff0459568c7E, symObjAddr: 0x350, symBinAddr: 0x10004B9B0, symSize: 0x20 }
  - { offsetInCU: 0x7AA, offset: 0x83B13, size: 0x8, addend: 0x0, symName: '__ZN93_$LT$alloc..collections..btree..mem..replace..PanicGuard$u20$as$u20$core..ops..drop..Drop$GT$4drop17h76cb43db49f7bda9E', symObjAddr: 0xD20, symBinAddr: 0x100045780, symSize: 0x10 }
  - { offsetInCU: 0x8F9, offset: 0x83C62, size: 0x8, addend: 0x0, symName: '__ZN98_$LT$alloc..string..String$u20$as$u20$core..convert..From$LT$alloc..borrow..Cow$LT$str$GT$$GT$$GT$4from17hec4993baf6aa823bE', symObjAddr: 0x5140, symBinAddr: 0x100045C30, symSize: 0xB0 }
  - { offsetInCU: 0xA50, offset: 0x83DB9, size: 0x8, addend: 0x0, symName: __ZN5alloc6string6String15from_utf8_lossy17he3705d0cc87192c3E, symObjAddr: 0x3390, symBinAddr: 0x1000459E0, symSize: 0x250 }
  - { offsetInCU: 0x1053, offset: 0x843BC, size: 0x8, addend: 0x0, symName: '__ZN72_$LT$$RF$str$u20$as$u20$alloc..ffi..c_str..CString..new..SpecNewImpl$GT$13spec_new_impl17h0cf21b87e1c8da06E', symObjAddr: 0xDA0, symBinAddr: 0x100045790, symSize: 0x0 }
  - { offsetInCU: 0x1257, offset: 0x845C0, size: 0x8, addend: 0x0, symName: __ZN5alloc3ffi5c_str7CString19_from_vec_unchecked17h3b0136e31afee425E, symObjAddr: 0x1030, symBinAddr: 0x1000458C0, symSize: 0x120 }
  - { offsetInCU: 0x1510, offset: 0x84879, size: 0x8, addend: 0x0, symName: __ZN5alloc4sync32arcinner_layout_for_value_layout17hbeb03db793229b3bE, symObjAddr: 0x54A0, symBinAddr: 0x100045CE0, symSize: 0x70 }
  - { offsetInCU: 0x152F, offset: 0x84898, size: 0x8, addend: 0x0, symName: __ZN5alloc4sync32arcinner_layout_for_value_layout17hbeb03db793229b3bE, symObjAddr: 0x54A0, symBinAddr: 0x100045CE0, symSize: 0x70 }
  - { offsetInCU: 0x1544, offset: 0x848AD, size: 0x8, addend: 0x0, symName: __ZN5alloc4sync32arcinner_layout_for_value_layout17hbeb03db793229b3bE, symObjAddr: 0x54A0, symBinAddr: 0x100045CE0, symSize: 0x70 }
  - { offsetInCU: 0x1559, offset: 0x848C2, size: 0x8, addend: 0x0, symName: __ZN5alloc4sync32arcinner_layout_for_value_layout17hbeb03db793229b3bE, symObjAddr: 0x54A0, symBinAddr: 0x100045CE0, symSize: 0x70 }
  - { offsetInCU: 0x156E, offset: 0x848D7, size: 0x8, addend: 0x0, symName: __ZN5alloc4sync32arcinner_layout_for_value_layout17hbeb03db793229b3bE, symObjAddr: 0x54A0, symBinAddr: 0x100045CE0, symSize: 0x70 }
  - { offsetInCU: 0x174, offset: 0x84B37, size: 0x8, addend: 0x0, symName: '__ZN42_$LT$str$u20$as$u20$core..fmt..Display$GT$3fmt17h0fda321badf74e6aE', symObjAddr: 0xE5A0, symBinAddr: 0x100047DF0, symSize: 0x20 }
  - { offsetInCU: 0x228, offset: 0x84BEB, size: 0x8, addend: 0x0, symName: __ZN4core3fmt9Formatter12pad_integral17h8972ffd3c8b0cfc1E, symObjAddr: 0xC730, symBinAddr: 0x100046D10, symSize: 0x4D0 }
  - { offsetInCU: 0x4E3, offset: 0x84EA6, size: 0x8, addend: 0x0, symName: __ZN4core3fmt9Formatter3pad17h1cd3f01fe2fd2736E, symObjAddr: 0xCC60, symBinAddr: 0x100047240, symSize: 0x3F0 }
  - { offsetInCU: 0x91F, offset: 0x852E2, size: 0x8, addend: 0x0, symName: __ZN4core3fmt9Formatter9write_str17h0118ad48afc9d895E, symObjAddr: 0xD500, symBinAddr: 0x100047630, symSize: 0x0 }
  - { offsetInCU: 0x933, offset: 0x852F6, size: 0x8, addend: 0x0, symName: __ZN4core3fmt9Formatter12debug_struct17he2ba4147cf3f70c3E, symObjAddr: 0xD520, symBinAddr: 0x100047650, symSize: 0x40 }
  - { offsetInCU: 0x971, offset: 0x85334, size: 0x8, addend: 0x0, symName: __ZN4core3fmt9Formatter26debug_struct_field1_finish17hb39d7b9a28168dcfE, symObjAddr: 0xD560, symBinAddr: 0x100047690, symSize: 0xB0 }
  - { offsetInCU: 0xA48, offset: 0x8540B, size: 0x8, addend: 0x0, symName: __ZN4core3fmt9Formatter26debug_struct_field2_finish17hc06f7d961bd659acE, symObjAddr: 0xD610, symBinAddr: 0x100047740, symSize: 0xD0 }
  - { offsetInCU: 0xB1F, offset: 0x854E2, size: 0x8, addend: 0x0, symName: __ZN4core3fmt9Formatter11debug_tuple17hc8eb609d0a1a39baE, symObjAddr: 0xDAE0, symBinAddr: 0x100047810, symSize: 0x50 }
  - { offsetInCU: 0xB7B, offset: 0x8553E, size: 0x8, addend: 0x0, symName: __ZN4core3fmt9Formatter25debug_tuple_field1_finish17ha8c77f5d0334b7adE, symObjAddr: 0xDB30, symBinAddr: 0x100047860, symSize: 0xD0 }
  - { offsetInCU: 0xC48, offset: 0x8560B, size: 0x8, addend: 0x0, symName: __ZN4core3fmt9Formatter25debug_tuple_field2_finish17ha9ef3726479f8c68E, symObjAddr: 0xDC00, symBinAddr: 0x100047930, symSize: 0xE0 }
  - { offsetInCU: 0xD15, offset: 0x856D8, size: 0x8, addend: 0x0, symName: __ZN4core3fmt9Formatter10debug_list17h06e79a079c85ca53E, symObjAddr: 0xE0E0, symBinAddr: 0x100047A10, symSize: 0x40 }
  - { offsetInCU: 0xDBC, offset: 0x8577F, size: 0x8, addend: 0x0, symName: __ZN4core3fmt8builders11DebugStruct5field17h0ffe8fbe02645e65E, symObjAddr: 0x9620, symBinAddr: 0x100046560, symSize: 0x1B0 }
  - { offsetInCU: 0xFC8, offset: 0x8598B, size: 0x8, addend: 0x0, symName: __ZN4core3fmt8builders11DebugStruct6finish17hee2e7ea1f7b53a47E, symObjAddr: 0x9880, symBinAddr: 0x100046710, symSize: 0x60 }
  - { offsetInCU: 0x10C8, offset: 0x85A8B, size: 0x8, addend: 0x0, symName: '__ZN68_$LT$core..fmt..builders..PadAdapter$u20$as$u20$core..fmt..Write$GT$9write_str17hccc2b902801ed8d2E', symObjAddr: 0x9340, symBinAddr: 0x100046280, symSize: 0x280 }
  - { offsetInCU: 0x12FF, offset: 0x85CC2, size: 0x8, addend: 0x0, symName: '__ZN68_$LT$core..fmt..builders..PadAdapter$u20$as$u20$core..fmt..Write$GT$10write_char17h0f9dfee2e64bcd77E', symObjAddr: 0x95C0, symBinAddr: 0x100046500, symSize: 0x60 }
  - { offsetInCU: 0x137D, offset: 0x85D40, size: 0x8, addend: 0x0, symName: __ZN4core3fmt8builders10DebugTuple5field17h008439c0ac16da21E, symObjAddr: 0x98E0, symBinAddr: 0x100046770, symSize: 0x150 }
  - { offsetInCU: 0x1506, offset: 0x85EC9, size: 0x8, addend: 0x0, symName: __ZN4core3fmt8builders10DebugTuple6finish17h09b759d26efe9a66E, symObjAddr: 0x9A30, symBinAddr: 0x1000468C0, symSize: 0x90 }
  - { offsetInCU: 0x1646, offset: 0x86009, size: 0x8, addend: 0x0, symName: __ZN4core3fmt8builders8DebugSet5entry17h2d024717e11579e0E, symObjAddr: 0x9AC0, symBinAddr: 0x100046950, symSize: 0x0 }
  - { offsetInCU: 0x17F1, offset: 0x861B4, size: 0x8, addend: 0x0, symName: __ZN4core3fmt8builders9DebugList6finish17ha8368efce69978bfE, symObjAddr: 0x9C40, symBinAddr: 0x100046A90, symSize: 0x40 }
  - { offsetInCU: 0x187D, offset: 0x86240, size: 0x8, addend: 0x0, symName: '__ZN57_$LT$core..fmt..Formatter$u20$as$u20$core..fmt..Write$GT$10write_char17h707d6fad029c4630E', symObjAddr: 0xE1A0, symBinAddr: 0x100047A50, symSize: 0x20 }
  - { offsetInCU: 0x18B0, offset: 0x86273, size: 0x8, addend: 0x0, symName: __ZN4core3fmt5Write9write_fmt17h5d296d7037892cbdE, symObjAddr: 0xC4D0, symBinAddr: 0x100046AD0, symSize: 0x20 }
  - { offsetInCU: 0x19F0, offset: 0x863B3, size: 0x8, addend: 0x0, symName: '__ZN4core3fmt3num3imp51_$LT$impl$u20$core..fmt..Display$u20$for$u20$u8$GT$3fmt17hd78e8ef4f3cd9c45E', symObjAddr: 0x1B0C0, symBinAddr: 0x10004A380, symSize: 0x90 }
  - { offsetInCU: 0x1A95, offset: 0x86458, size: 0x8, addend: 0x0, symName: '__ZN4core3fmt3num3imp52_$LT$impl$u20$core..fmt..Display$u20$for$u20$i32$GT$3fmt17h489d415102b22552E', symObjAddr: 0x1B340, symBinAddr: 0x10004A410, symSize: 0x130 }
  - { offsetInCU: 0x1B39, offset: 0x864FC, size: 0x8, addend: 0x0, symName: '__ZN4core3fmt3num3imp52_$LT$impl$u20$core..fmt..Display$u20$for$u20$u32$GT$3fmt17hc40b7317ea9c81d1E', symObjAddr: 0x1B470, symBinAddr: 0x10004A540, symSize: 0x120 }
  - { offsetInCU: 0x1BDD, offset: 0x865A0, size: 0x8, addend: 0x0, symName: '__ZN4core3fmt3num3imp52_$LT$impl$u20$core..fmt..Display$u20$for$u20$u64$GT$3fmt17h2e9b6424619279b2E', symObjAddr: 0x1B6C0, symBinAddr: 0x10004A660, symSize: 0x0 }
  - { offsetInCU: 0x1C95, offset: 0x86658, size: 0x8, addend: 0x0, symName: '__ZN4core3fmt3num52_$LT$impl$u20$core..fmt..LowerHex$u20$for$u20$i8$GT$3fmt17h03e3df9ac0fd0464E', symObjAddr: 0x19D70, symBinAddr: 0x100049DA0, symSize: 0x0 }
  - { offsetInCU: 0x1E0A, offset: 0x867CD, size: 0x8, addend: 0x0, symName: '__ZN4core3fmt3num52_$LT$impl$u20$core..fmt..UpperHex$u20$for$u20$i8$GT$3fmt17h6f0bde4771b4f009E', symObjAddr: 0x19E10, symBinAddr: 0x100049E40, symSize: 0x0 }
  - { offsetInCU: 0x1F92, offset: 0x86955, size: 0x8, addend: 0x0, symName: '__ZN4core3fmt3num53_$LT$impl$u20$core..fmt..LowerHex$u20$for$u20$i32$GT$3fmt17hee7d14134452d6d7E', symObjAddr: 0x1A210, symBinAddr: 0x100049EE0, symSize: 0x0 }
  - { offsetInCU: 0x2122, offset: 0x86AE5, size: 0x8, addend: 0x0, symName: '__ZN4core3fmt3num53_$LT$impl$u20$core..fmt..UpperHex$u20$for$u20$i32$GT$3fmt17hbfc0f68a02be4ca1E', symObjAddr: 0x1A2B0, symBinAddr: 0x100049F80, symSize: 0x0 }
  - { offsetInCU: 0x229F, offset: 0x86C62, size: 0x8, addend: 0x0, symName: '__ZN4core3fmt3num53_$LT$impl$u20$core..fmt..LowerHex$u20$for$u20$i64$GT$3fmt17hbd90a137258b6cb9E', symObjAddr: 0x1A470, symBinAddr: 0x10004A020, symSize: 0x0 }
  - { offsetInCU: 0x242F, offset: 0x86DF2, size: 0x8, addend: 0x0, symName: '__ZN4core3fmt3num53_$LT$impl$u20$core..fmt..UpperHex$u20$for$u20$i64$GT$3fmt17h62eb0ff735ecf1a0E', symObjAddr: 0x1A510, symBinAddr: 0x10004A0C0, symSize: 0x0 }
  - { offsetInCU: 0x25B2, offset: 0x86F75, size: 0x8, addend: 0x0, symName: '__ZN4core3fmt3num52_$LT$impl$u20$core..fmt..Debug$u20$for$u20$usize$GT$3fmt17h9e5c63f85393f427E', symObjAddr: 0x1AE00, symBinAddr: 0x10004A160, symSize: 0x220 }
  - { offsetInCU: 0x290E, offset: 0x872D1, size: 0x8, addend: 0x0, symName: '__ZN59_$LT$core..fmt..Arguments$u20$as$u20$core..fmt..Display$GT$3fmt17h73b8fbb663c88c51E', symObjAddr: 0xC510, symBinAddr: 0x100046AF0, symSize: 0x20 }
  - { offsetInCU: 0x293F, offset: 0x87302, size: 0x8, addend: 0x0, symName: __ZN4core3fmt5write17hace734add356d1f2E, symObjAddr: 0xC530, symBinAddr: 0x100046B10, symSize: 0x200 }
  - { offsetInCU: 0x2B38, offset: 0x874FB, size: 0x8, addend: 0x0, symName: __ZN4core3fmt9Formatter12pad_integral12write_prefix17h09b544bef0610067E, symObjAddr: 0xCC00, symBinAddr: 0x1000471E0, symSize: 0x60 }
  - { offsetInCU: 0x2B91, offset: 0x87554, size: 0x8, addend: 0x0, symName: '__ZN40_$LT$str$u20$as$u20$core..fmt..Debug$GT$3fmt17h59f79d374e7cce1eE', symObjAddr: 0xE220, symBinAddr: 0x100047A70, symSize: 0x380 }
  - { offsetInCU: 0x304C, offset: 0x87A0F, size: 0x8, addend: 0x0, symName: '__ZN41_$LT$char$u20$as$u20$core..fmt..Debug$GT$3fmt17h183f5a1467d8dfe5E', symObjAddr: 0xE5C0, symBinAddr: 0x100047E10, symSize: 0x90 }
  - { offsetInCU: 0x3172, offset: 0x87B35, size: 0x8, addend: 0x0, symName: '__ZN43_$LT$char$u20$as$u20$core..fmt..Display$GT$3fmt17hf66ab4ff3899151dE', symObjAddr: 0xE650, symBinAddr: 0x100047EA0, symSize: 0xF0 }
  - { offsetInCU: 0x3191, offset: 0x87B54, size: 0x8, addend: 0x0, symName: '__ZN43_$LT$char$u20$as$u20$core..fmt..Display$GT$3fmt17hf66ab4ff3899151dE', symObjAddr: 0xE650, symBinAddr: 0x100047EA0, symSize: 0xF0 }
  - { offsetInCU: 0x31A6, offset: 0x87B69, size: 0x8, addend: 0x0, symName: '__ZN43_$LT$char$u20$as$u20$core..fmt..Display$GT$3fmt17hf66ab4ff3899151dE', symObjAddr: 0xE650, symBinAddr: 0x100047EA0, symSize: 0xF0 }
  - { offsetInCU: 0x3223, offset: 0x87BE6, size: 0x8, addend: 0x0, symName: __ZN4core3fmt17pointer_fmt_inner17h0d3929dbbd6c7c2aE, symObjAddr: 0xE740, symBinAddr: 0x100047F90, symSize: 0xE0 }
  - { offsetInCU: 0x33D9, offset: 0x87D9C, size: 0x8, addend: 0x0, symName: '__ZN42_$LT$$RF$T$u20$as$u20$core..fmt..Debug$GT$3fmt17h1110e597aeb296f6E', symObjAddr: 0x1C7E0, symBinAddr: 0x10004A780, symSize: 0x20 }
  - { offsetInCU: 0x33FA, offset: 0x87DBD, size: 0x8, addend: 0x0, symName: '__ZN44_$LT$$RF$T$u20$as$u20$core..fmt..Display$GT$3fmt17h96d8cf3f9cca3c56E', symObjAddr: 0x1C850, symBinAddr: 0x10004A7A0, symSize: 0x20 }
  - { offsetInCU: 0x384B, offset: 0x8820E, size: 0x8, addend: 0x0, symName: __ZN4core3num23from_str_radix_panic_rt17hb27af51eba7af9c9E, symObjAddr: 0x5170, symBinAddr: 0x100045D50, symSize: 0x60 }
  - { offsetInCU: 0x387B, offset: 0x8823E, size: 0x8, addend: 0x0, symName: __ZN4core3num20from_str_radix_panic17h074f0c73331affbdE, symObjAddr: 0x51D0, symBinAddr: 0x10004B9D0, symSize: 0x10 }
  - { offsetInCU: 0x39D7, offset: 0x8839A, size: 0x8, addend: 0x0, symName: '__ZN4core3num21_$LT$impl$u20$u32$GT$14from_str_radix17h9cea532e04b64059E', symObjAddr: 0x173B0, symBinAddr: 0x100049BC0, symSize: 0x1E0 }
  - { offsetInCU: 0x3AF4, offset: 0x884B7, size: 0x8, addend: 0x0, symName: '__ZN4core3num62_$LT$impl$u20$core..str..traits..FromStr$u20$for$u20$usize$GT$8from_str17h3e135b17ef7e316bE', symObjAddr: 0x16140, symBinAddr: 0x1000499F0, symSize: 0xE0 }
  - { offsetInCU: 0x3BDD, offset: 0x885A0, size: 0x8, addend: 0x0, symName: '__ZN4core3num60_$LT$impl$u20$core..str..traits..FromStr$u20$for$u20$u16$GT$8from_str17h9df1cf907b08318aE', symObjAddr: 0x16310, symBinAddr: 0x100049AD0, symSize: 0xF0 }
  - { offsetInCU: 0x3EB7, offset: 0x8887A, size: 0x8, addend: 0x0, symName: __ZN4core5slice5index26slice_start_index_len_fail17hc2f78d08e3a7cf81E, symObjAddr: 0xF170, symBinAddr: 0x10004BF50, symSize: 0x70 }
  - { offsetInCU: 0x3F08, offset: 0x888CB, size: 0x8, addend: 0x0, symName: __ZN4core5slice5index24slice_end_index_len_fail17h71b1f8e59c3fcdfeE, symObjAddr: 0xF1E0, symBinAddr: 0x10004BFC0, symSize: 0x70 }
  - { offsetInCU: 0x3F59, offset: 0x8891C, size: 0x8, addend: 0x0, symName: __ZN4core5slice5index22slice_index_order_fail17h0140d9cf40fd68a5E, symObjAddr: 0xF250, symBinAddr: 0x10004C030, symSize: 0x70 }
  - { offsetInCU: 0x43A8, offset: 0x88D6B, size: 0x8, addend: 0x0, symName: __ZN4core5slice6memchr14memchr_aligned17h133855cd69f468d3E, symObjAddr: 0xE910, symBinAddr: 0x100048070, symSize: 0xF0 }
  - { offsetInCU: 0x4463, offset: 0x88E26, size: 0x8, addend: 0x0, symName: __ZN4core5slice6memchr7memrchr17hcb1ab2b7d3f88da3E, symObjAddr: 0xEA00, symBinAddr: 0x100048160, symSize: 0x110 }
  - { offsetInCU: 0x460E, offset: 0x88FD1, size: 0x8, addend: 0x0, symName: __ZN4core5slice4sort6stable5drift11sqrt_approx17h106640da2bd74303E, symObjAddr: 0xEB10, symBinAddr: 0x100048270, symSize: 0x30 }
  - { offsetInCU: 0x468B, offset: 0x8904E, size: 0x8, addend: 0x0, symName: __ZN4core5slice4sort6shared9smallsort22panic_on_ord_violation17h133d7f05205c4f20E, symObjAddr: 0xEB40, symBinAddr: 0x1000482A0, symSize: 0x50 }
  - { offsetInCU: 0x4A14, offset: 0x893D7, size: 0x8, addend: 0x0, symName: __ZN4core6option13unwrap_failed17hf0ce88b8039e6075E, symObjAddr: 0x89E0, symBinAddr: 0x10004BA40, symSize: 0x20 }
  - { offsetInCU: 0x4A2F, offset: 0x893F2, size: 0x8, addend: 0x0, symName: __ZN4core6option13expect_failed17h5435a7ff7a2acd97E, symObjAddr: 0x8A00, symBinAddr: 0x10004BA60, symSize: 0x60 }
  - { offsetInCU: 0x4AA6, offset: 0x89469, size: 0x8, addend: 0x0, symName: '__ZN71_$LT$core..ops..range..Range$LT$Idx$GT$$u20$as$u20$core..fmt..Debug$GT$3fmt17h08592e28b763072aE', symObjAddr: 0x5330, symBinAddr: 0x100045DB0, symSize: 0x50 }
  - { offsetInCU: 0x4D56, offset: 0x89719, size: 0x8, addend: 0x0, symName: __ZN4core6result13unwrap_failed17had190471c291bd03E, symObjAddr: 0x9240, symBinAddr: 0x10004BED0, symSize: 0x80 }
  - { offsetInCU: 0x4DDE, offset: 0x897A1, size: 0x8, addend: 0x0, symName: '__ZN63_$LT$core..cell..BorrowMutError$u20$as$u20$core..fmt..Debug$GT$3fmt17hf4f968fd2f533c90E', symObjAddr: 0x5830, symBinAddr: 0x100045E00, symSize: 0x20 }
  - { offsetInCU: 0x4E3B, offset: 0x897FE, size: 0x8, addend: 0x0, symName: __ZN4core4cell22panic_already_borrowed17ha9b6b30d2a6c1da3E, symObjAddr: 0x5870, symBinAddr: 0x10004B9E0, symSize: 0x60 }
  - { offsetInCU: 0x4EB9, offset: 0x8987C, size: 0x8, addend: 0x0, symName: '__ZN4core4char7methods22_$LT$impl$u20$char$GT$16escape_debug_ext17h45343360e0479290E', symObjAddr: 0x59F0, symBinAddr: 0x100045E20, symSize: 0x2C0 }
  - { offsetInCU: 0x5138, offset: 0x89AFB, size: 0x8, addend: 0x0, symName: __ZN4core7unicode12unicode_data15grapheme_extend11lookup_slow17hcf452ea06c1dd27eE, symObjAddr: 0x1E000, symBinAddr: 0x10004A7E0, symSize: 0x160 }
  - { offsetInCU: 0x537A, offset: 0x89D3D, size: 0x8, addend: 0x0, symName: __ZN4core7unicode12unicode_data2cc6lookup17ha8c997d3d336cb8fE, symObjAddr: 0x1DFE0, symBinAddr: 0x10004A7C0, symSize: 0x20 }
  - { offsetInCU: 0x53D9, offset: 0x89D9C, size: 0x8, addend: 0x0, symName: __ZN4core7unicode9printable5check17h9aa6e320d7115c02E, symObjAddr: 0x12090, symBinAddr: 0x1000497A0, symSize: 0x120 }
  - { offsetInCU: 0x5617, offset: 0x89FDA, size: 0x8, addend: 0x0, symName: __ZN4core7unicode9printable12is_printable17h5397384c9e262cd0E, symObjAddr: 0x121B0, symBinAddr: 0x1000498C0, symSize: 0x130 }
  - { offsetInCU: 0x5642, offset: 0x8A005, size: 0x8, addend: 0x0, symName: __ZN4core3ffi5c_str4CStr19from_bytes_with_nul17h192dd45a613e8c2dE, symObjAddr: 0x60D0, symBinAddr: 0x1000460E0, symSize: 0x120 }
  - { offsetInCU: 0x5705, offset: 0x8A0C8, size: 0x8, addend: 0x0, symName: __ZN4core9panicking9panic_fmt17had5c0183b828cb49E, symObjAddr: 0x8BD0, symBinAddr: 0x10004BAC0, symSize: 0x50 }
  - { offsetInCU: 0x5747, offset: 0x8A10A, size: 0x8, addend: 0x0, symName: __ZN4core9panicking18panic_nounwind_fmt17hb4571fb78fc10a76E, symObjAddr: 0x8C20, symBinAddr: 0x10004BB10, symSize: 0x60 }
  - { offsetInCU: 0x578B, offset: 0x8A14E, size: 0x8, addend: 0x0, symName: __ZN4core9panicking5panic17hf0e1cc2ca8e1dc83E, symObjAddr: 0x8C80, symBinAddr: 0x10004BB70, symSize: 0x50 }
  - { offsetInCU: 0x57BA, offset: 0x8A17D, size: 0x8, addend: 0x0, symName: __ZN4core9panicking14panic_nounwind17ha12d9e403b05feccE, symObjAddr: 0x8CD0, symBinAddr: 0x10004BBC0, symSize: 0x50 }
  - { offsetInCU: 0x57E9, offset: 0x8A1AC, size: 0x8, addend: 0x0, symName: __ZN4core9panicking26panic_nounwind_nobacktrace17h5f1522f9c13eafe4E, symObjAddr: 0x8D20, symBinAddr: 0x10004BC10, symSize: 0x50 }
  - { offsetInCU: 0x5818, offset: 0x8A1DB, size: 0x8, addend: 0x0, symName: __ZN4core9panicking18panic_bounds_check17h109fe50f98469fc4E, symObjAddr: 0x8DD0, symBinAddr: 0x10004BC60, symSize: 0x70 }
  - { offsetInCU: 0x5848, offset: 0x8A20B, size: 0x8, addend: 0x0, symName: __ZN4core9panicking19panic_cannot_unwind17h4b15d87e2e2757a8E, symObjAddr: 0x8F20, symBinAddr: 0x10004BCD0, symSize: 0x20 }
  - { offsetInCU: 0x5863, offset: 0x8A226, size: 0x8, addend: 0x0, symName: __ZN4core9panicking16panic_in_cleanup17hc82a6604fb78741fE, symObjAddr: 0x8F40, symBinAddr: 0x10004BCF0, symSize: 0x20 }
  - { offsetInCU: 0x587E, offset: 0x8A241, size: 0x8, addend: 0x0, symName: __ZN4core9panicking19assert_failed_inner17he0737abe7f31c06cE, symObjAddr: 0x9080, symBinAddr: 0x10004BD10, symSize: 0x1C0 }
  - { offsetInCU: 0x58C7, offset: 0x8A28A, size: 0x8, addend: 0x0, symName: __ZN4core9panicking11panic_const23panic_const_div_by_zero17h1ba33e25180c9760E, symObjAddr: 0x18650, symBinAddr: 0x10004C0F0, symSize: 0x40 }
  - { offsetInCU: 0x58F6, offset: 0x8A2B9, size: 0x8, addend: 0x0, symName: __ZN4core9panicking11panic_const23panic_const_rem_by_zero17hddb47ddab6d21ac2E, symObjAddr: 0x18690, symBinAddr: 0x10004C130, symSize: 0x40 }
  - { offsetInCU: 0x5936, offset: 0x8A2F9, size: 0x8, addend: 0x0, symName: '__ZN70_$LT$core..panic..location..Location$u20$as$u20$core..fmt..Display$GT$3fmt17h3b775daa4da0c84fE', symObjAddr: 0x8A60, symBinAddr: 0x100046200, symSize: 0x80 }
  - { offsetInCU: 0x5AC9, offset: 0x8A48C, size: 0x8, addend: 0x0, symName: __ZN4core3str7pattern11StrSearcher3new17hc777094db0ba1f96E, symObjAddr: 0x10220, symBinAddr: 0x100048B80, symSize: 0x640 }
  - { offsetInCU: 0x5ED1, offset: 0x8A894, size: 0x8, addend: 0x0, symName: __ZN4core3str5count14do_count_chars17ha3390eb253e30d2dE, symObjAddr: 0xF8D0, symBinAddr: 0x100048500, symSize: 0x5C0 }
  - { offsetInCU: 0x629D, offset: 0x8AC60, size: 0x8, addend: 0x0, symName: __ZN4core3str5count23char_count_general_case17h70df39afcdec0f69E, symObjAddr: 0xFE90, symBinAddr: 0x100048AC0, symSize: 0xC0 }
  - { offsetInCU: 0x62F1, offset: 0x8ACB4, size: 0x8, addend: 0x0, symName: __ZN4core3str5count23char_count_general_case17h70df39afcdec0f69E, symObjAddr: 0xFE90, symBinAddr: 0x100048AC0, symSize: 0xC0 }
  - { offsetInCU: 0x644F, offset: 0x8AE12, size: 0x8, addend: 0x0, symName: __ZN4core3str6traits23str_index_overflow_fail17hca1c64009da7550cE, symObjAddr: 0x101E0, symBinAddr: 0x10004C0A0, symSize: 0x40 }
  - { offsetInCU: 0x64A6, offset: 0x8AE69, size: 0x8, addend: 0x0, symName: __ZN4core3str8converts9from_utf817hbfae1c12ba0f752dE, symObjAddr: 0xF4B0, symBinAddr: 0x1000482F0, symSize: 0x210 }
  - { offsetInCU: 0x6514, offset: 0x8AED7, size: 0x8, addend: 0x0, symName: '__ZN87_$LT$core..str..lossy..Utf8Chunks$u20$as$u20$core..iter..traits..iterator..Iterator$GT$4next17h3143161bfe02572dE', symObjAddr: 0x10D20, symBinAddr: 0x1000491C0, symSize: 0x1C0 }
  - { offsetInCU: 0x670D, offset: 0x8B0D0, size: 0x8, addend: 0x0, symName: __ZN4core3str16slice_error_fail17h37538355c87ca0baE, symObjAddr: 0x10FA0, symBinAddr: 0x10004C0E0, symSize: 0x10 }
  - { offsetInCU: 0x6727, offset: 0x8B0EA, size: 0x8, addend: 0x0, symName: __ZN4core3str19slice_error_fail_rt17h799bbeb831541f16E, symObjAddr: 0x10FF0, symBinAddr: 0x100049380, symSize: 0x420 }
...
