---
triple:          'x86_64-apple-darwin'
binary-path:     "/Users/justinlanouette/Chaos/ChaöS-Token/hello_world/target/release/build/num-traits-7de40f472be52300/build_script_build-7de40f472be52300"
relocations:
  - { offsetInCU: 0x1E, offset: 0x1E, size: 0x8, addend: 0x0, symName: '__ZN4core3ptr37drop_in_place$LT$autocfg..AutoCfg$GT$17h31b9f3aba41b9f75E', symObjAddr: 0x0, symBinAddr: 0x100003FF0, symSize: 0x110 }
  - { offsetInCU: 0x16B, offset: 0x16B, size: 0x8, addend: 0x0, symName: '__ZN4core3ptr37drop_in_place$LT$autocfg..AutoCfg$GT$17h31b9f3aba41b9f75E', symObjAddr: 0x0, symBinAddr: 0x100003FF0, symSize: 0x110 }
  - { offsetInCU: 0xD71, offset: 0xD71, size: 0x8, addend: 0x0, symName: __ZN18build_script_build4main17h290e2ff6bfc285f3E, symObjAddr: 0x110, symBinAddr: 0x100004100, symSize: 0x80 }
  - { offsetInCU: 0x1E, offset: 0x13F7, size: 0x8, addend: 0x0, symName: __ZN3std2rt10lang_start17h987ca8ac92d66caaE, symObjAddr: 0x0, symBinAddr: 0x1000041A0, symSize: 0x30 }
  - { offsetInCU: 0x5B, offset: 0x1434, size: 0x8, addend: 0x0, symName: '__ZN3std2rt10lang_start28_$u7b$$u7b$closure$u7d$$u7d$17hab7318a6010a375eE', symObjAddr: 0x30, symBinAddr: 0x1000041D0, symSize: 0x10 }
  - { offsetInCU: 0x9F, offset: 0x1478, size: 0x8, addend: 0x0, symName: __ZN3std2rt10lang_start17h987ca8ac92d66caaE, symObjAddr: 0x0, symBinAddr: 0x1000041A0, symSize: 0x30 }
  - { offsetInCU: 0x15E, offset: 0x1537, size: 0x8, addend: 0x0, symName: '__ZN4core3ops8function6FnOnce40call_once$u7b$$u7b$vtable.shim$u7d$$u7d$17h77e81a2cb1a5da7dE', symObjAddr: 0x40, symBinAddr: 0x1000041E0, symSize: 0x10 }
  - { offsetInCU: 0x1D8, offset: 0x15B1, size: 0x8, addend: 0x0, symName: '__ZN4core3ptr85drop_in_place$LT$std..rt..lang_start$LT$$LP$$RP$$GT$..$u7b$$u7b$closure$u7d$$u7d$$GT$17h29766a85625cf27aE', symObjAddr: 0x50, symBinAddr: 0x1000041F0, symSize: 0x6 }
  - { offsetInCU: 0x1E, offset: 0x1632, size: 0x8, addend: 0x0, symName: __ZN3std10sys_common9backtrace28__rust_begin_short_backtrace17hf98cd4fd64f65cbaE, symObjAddr: 0x0, symBinAddr: 0x100004200, symSize: 0x8 }
  - { offsetInCU: 0xBF, offset: 0x16D3, size: 0x8, addend: 0x0, symName: __ZN3std10sys_common9backtrace28__rust_begin_short_backtrace17hf98cd4fd64f65cbaE, symObjAddr: 0x0, symBinAddr: 0x100004200, symSize: 0x8 }
  - { offsetInCU: 0x122, offset: 0x187C, size: 0x8, addend: 0x0, symName: '__ZN58_$LT$autocfg..error..Error$u20$as$u20$core..fmt..Debug$GT$3fmt17h0f8bab260af8fc77E', symObjAddr: 0x3B20, symBinAddr: 0x100006110, symSize: 0x45 }
  - { offsetInCU: 0x177, offset: 0x18D1, size: 0x8, addend: 0x0, symName: __ZN7autocfg7AutoCfg9probe_fmt2ID17h57aec9db9a81ab86E, symObjAddr: 0x45FE0, symBinAddr: 0x100060200, symSize: 0x0 }
  - { offsetInCU: 0x193, offset: 0x18ED, size: 0x8, addend: 0x0, symName: __ZN7autocfg10rerun_path17ha4cca0a93ef045ebE, symObjAddr: 0x5C0, symBinAddr: 0x100004650, symSize: 0x60 }
  - { offsetInCU: 0x4E0, offset: 0x1C3A, size: 0x8, addend: 0x0, symName: __ZN7autocfg3new17ha3d5c7d4b853f35bE, symObjAddr: 0x680, symBinAddr: 0x1000046B0, symSize: 0xB0 }
  - { offsetInCU: 0x6C9, offset: 0x1E23, size: 0x8, addend: 0x0, symName: __ZN7autocfg9rustflags17hf9056dd6661468e3E, symObjAddr: 0x2DF0, symBinAddr: 0x1000053E0, symSize: 0xD30 }
  - { offsetInCU: 0x3BB3, offset: 0x530D, size: 0x8, addend: 0x0, symName: '__ZN4core3ptr40drop_in_place$LT$std..process..Child$GT$17h53ec0f141f330581E', symObjAddr: 0x10, symBinAddr: 0x100004250, symSize: 0x70 }
  - { offsetInCU: 0x3E7E, offset: 0x55D8, size: 0x8, addend: 0x0, symName: '__ZN4core3ptr42drop_in_place$LT$autocfg..error..Error$GT$17h2383ff43bdaa75bcE', symObjAddr: 0x80, symBinAddr: 0x1000042C0, symSize: 0x20 }
  - { offsetInCU: 0x3F62, offset: 0x56BC, size: 0x8, addend: 0x0, symName: '__ZN4core3ptr42drop_in_place$LT$autocfg..rustc..Rustc$GT$17hbc73fc57c544b1b2E', symObjAddr: 0xA0, symBinAddr: 0x1000042E0, symSize: 0x70 }
  - { offsetInCU: 0x461D, offset: 0x5D77, size: 0x8, addend: 0x0, symName: '__ZN4core3ptr42drop_in_place$LT$std..io..error..Error$GT$17he0fa815ec66b405dE', symObjAddr: 0x110, symBinAddr: 0x100004350, symSize: 0xA0 }
  - { offsetInCU: 0x4C8F, offset: 0x63E9, size: 0x8, addend: 0x0, symName: '__ZN4core3ptr42drop_in_place$LT$std..process..Command$GT$17ha594c5de6bdd0e7dE', symObjAddr: 0x1B0, symBinAddr: 0x1000043F0, symSize: 0x250 }
  - { offsetInCU: 0x5A2C, offset: 0x7186, size: 0x8, addend: 0x0, symName: '__ZN4core3ptr50drop_in_place$LT$$RF$autocfg..error..ErrorKind$GT$17h46d245b4c2e357c2E', symObjAddr: 0x400, symBinAddr: 0x100004640, symSize: 0x10 }
  - { offsetInCU: 0x6331, offset: 0x7A8B, size: 0x8, addend: 0x0, symName: '__ZN4core3str7pattern13simd_contains28_$u7b$$u7b$closure$u7d$$u7d$17hc81897956a36648dE', symObjAddr: 0x410, symBinAddr: 0x10004D340, symSize: 0x130 }
  - { offsetInCU: 0xAF88, offset: 0xC6E2, size: 0x8, addend: 0x0, symName: __ZN7autocfg7AutoCfg3new17hf3362ec0af9a227fE, symObjAddr: 0x730, symBinAddr: 0x100004760, symSize: 0x580 }
  - { offsetInCU: 0xC49D, offset: 0xDBF7, size: 0x8, addend: 0x0, symName: __ZN7autocfg7AutoCfg9probe_fmt17hd32b1f05da5f72d5E, symObjAddr: 0xE00, symBinAddr: 0x100004CE0, symSize: 0x570 }
  - { offsetInCU: 0xD584, offset: 0xECDE, size: 0x8, addend: 0x0, symName: __ZN7autocfg7AutoCfg19emit_expression_cfg17hcc6ed9065ecf4816E, symObjAddr: 0x29B0, symBinAddr: 0x100005250, symSize: 0x190 }
  - { offsetInCU: 0x1E, offset: 0x10ACA, size: 0x8, addend: 0x0, symName: __ZN3std2io5Write9write_all17haff9b6c1e398361aE, symObjAddr: 0x0, symBinAddr: 0x100006160, symSize: 0xF0 }
  - { offsetInCU: 0x35, offset: 0x10AE1, size: 0x8, addend: 0x0, symName: _anon.88e6981cec51c7e9559a24f06172e20d.6.llvm.5030755398809507033, symObjAddr: 0x5D0, symBinAddr: 0x10005C4F8, symSize: 0x0 }
  - { offsetInCU: 0xE5, offset: 0x10B91, size: 0x8, addend: 0x0, symName: __ZN3std2io5Write9write_all17haff9b6c1e398361aE, symObjAddr: 0x0, symBinAddr: 0x100006160, symSize: 0xF0 }
  - { offsetInCU: 0x1423, offset: 0x11ECF, size: 0x8, addend: 0x0, symName: '__ZN4core3ptr42drop_in_place$LT$std..io..error..Error$GT$17he0fa815ec66b405dE.llvm.5030755398809507033', symObjAddr: 0x400, symBinAddr: 0x100006290, symSize: 0xA0 }
  - { offsetInCU: 0x1886, offset: 0x12332, size: 0x8, addend: 0x0, symName: '__ZN4core3ptr75drop_in_place$LT$$RF$std..sys..unix..process..process_inner..ExitStatus$GT$17heb0ff426e8659b48E', symObjAddr: 0x4A0, symBinAddr: 0x100006330, symSize: 0x10 }
  - { offsetInCU: 0x18B2, offset: 0x1235E, size: 0x8, addend: 0x0, symName: '__ZN4core3ptr87drop_in_place$LT$std..io..Write..write_fmt..Adapter$LT$std..process..ChildStdin$GT$$GT$17h4e5756f365c2d61fE.llvm.5030755398809507033', symObjAddr: 0x4B0, symBinAddr: 0x100006340, symSize: 0x15 }
  - { offsetInCU: 0x19A3, offset: 0x1244F, size: 0x8, addend: 0x0, symName: '__ZN42_$LT$$RF$T$u20$as$u20$core..fmt..Debug$GT$3fmt17h2557afda4a3b0b82E', symObjAddr: 0x390, symBinAddr: 0x100006250, symSize: 0x40 }
  - { offsetInCU: 0xE28, offset: 0x13A15, size: 0x8, addend: 0x0, symName: '__ZN4core3ptr42drop_in_place$LT$std..process..Command$GT$17ha594c5de6bdd0e7dE.llvm.5736434147429865129', symObjAddr: 0x20, symBinAddr: 0x100006360, symSize: 0x250 }
  - { offsetInCU: 0x1D8A, offset: 0x14977, size: 0x8, addend: 0x0, symName: '__ZN4core3ptr98drop_in_place$LT$core..result..Result$LT$autocfg..version..Version$C$autocfg..error..Error$GT$$GT$17ha965cbd42b3377e2E', symObjAddr: 0x2A0, symBinAddr: 0x1000065B0, symSize: 0xB0 }
  - { offsetInCU: 0x389E, offset: 0x1648B, size: 0x8, addend: 0x0, symName: __ZN7autocfg5rustc5Rustc3new17he989319da0ea68efE, symObjAddr: 0x350, symBinAddr: 0x100006660, symSize: 0x190 }
  - { offsetInCU: 0x4213, offset: 0x16E00, size: 0x8, addend: 0x0, symName: __ZN7autocfg5rustc5Rustc7version17h40b456da32d0efcdE, symObjAddr: 0x5F0, symBinAddr: 0x1000067F0, symSize: 0x2E0 }
  - { offsetInCU: 0x1E, offset: 0x17B89, size: 0x8, addend: 0x0, symName: __ZN5alloc7raw_vec11finish_grow17h972261720c397ccbE.llvm.6286286983490365558, symObjAddr: 0x0, symBinAddr: 0x100006AD0, symSize: 0xA0 }
  - { offsetInCU: 0xCE4, offset: 0x1884F, size: 0x8, addend: 0x0, symName: __ZN5alloc7raw_vec11finish_grow17h972261720c397ccbE.llvm.6286286983490365558, symObjAddr: 0x0, symBinAddr: 0x100006AD0, symSize: 0xA0 }
  - { offsetInCU: 0x1148, offset: 0x18CB3, size: 0x8, addend: 0x0, symName: '__ZN5alloc7raw_vec19RawVec$LT$T$C$A$GT$7reserve21do_reserve_and_handle17hd51e612f03a0e8c3E', symObjAddr: 0x300, symBinAddr: 0x10004D470, symSize: 0xD0 }
  - { offsetInCU: 0x1E, offset: 0x195DD, size: 0x8, addend: 0x0, symName: '__ZN4core3ptr41drop_in_place$LT$std..process..Output$GT$17h767bbb671df6bbc4E', symObjAddr: 0x0, symBinAddr: 0x100006B70, symSize: 0x50 }
  - { offsetInCU: 0xE2, offset: 0x196A1, size: 0x8, addend: 0x0, symName: '__ZN4core3ptr41drop_in_place$LT$std..process..Output$GT$17h767bbb671df6bbc4E', symObjAddr: 0x0, symBinAddr: 0x100006B70, symSize: 0x50 }
  - { offsetInCU: 0xADD, offset: 0x1A09C, size: 0x8, addend: 0x0, symName: '__ZN81_$LT$core..str..pattern..CharSearcher$u20$as$u20$core..str..pattern..Searcher$GT$10next_match17hc7a77fb1661897c4E', symObjAddr: 0x50, symBinAddr: 0x100006BC0, symSize: 0x200 }
  - { offsetInCU: 0x2469, offset: 0x1BA28, size: 0x8, addend: 0x0, symName: __ZN7autocfg7version7Version12from_command17h0b20bd733fed5dc5E, symObjAddr: 0x250, symBinAddr: 0x100006DC0, symSize: 0x736 }
  - { offsetInCU: 0x1E, offset: 0x1E60A, size: 0x8, addend: 0x0, symName: '__ZN102_$LT$core..iter..adapters..map..Map$LT$I$C$F$GT$$u20$as$u20$core..iter..traits..iterator..Iterator$GT$4next17h0a9cc31644e4566fE', symObjAddr: 0x0, symBinAddr: 0x100007500, symSize: 0x270 }
  - { offsetInCU: 0xDFB, offset: 0x1F3E7, size: 0x8, addend: 0x0, symName: '__ZN102_$LT$core..iter..adapters..map..Map$LT$I$C$F$GT$$u20$as$u20$core..iter..traits..iterator..Iterator$GT$4next17h0a9cc31644e4566fE', symObjAddr: 0x0, symBinAddr: 0x100007500, symSize: 0x270 }
  - { offsetInCU: 0x1A0C, offset: 0x1FFF8, size: 0x8, addend: 0x0, symName: '__ZN70_$LT$alloc..vec..Vec$LT$T$C$A$GT$$u20$as$u20$core..ops..drop..Drop$GT$4drop17h76943f0a9ea10d40E', symObjAddr: 0x350, symBinAddr: 0x100007770, symSize: 0xF0 }
  - { offsetInCU: 0x1E40, offset: 0x2042C, size: 0x8, addend: 0x0, symName: '__ZN70_$LT$alloc..vec..Vec$LT$T$C$A$GT$$u20$as$u20$core..ops..drop..Drop$GT$4drop17hae0cb1b87259bea5E', symObjAddr: 0x440, symBinAddr: 0x100007860, symSize: 0x50 }
  - { offsetInCU: 0x21CE, offset: 0x207BA, size: 0x8, addend: 0x0, symName: '__ZN98_$LT$alloc..vec..Vec$LT$T$GT$$u20$as$u20$alloc..vec..spec_from_iter..SpecFromIter$LT$T$C$I$GT$$GT$9from_iter17hb7f2a3db02b7951aE', symObjAddr: 0x490, symBinAddr: 0x1000078B0, symSize: 0x210 }
  - { offsetInCU: 0x2989, offset: 0x20F75, size: 0x8, addend: 0x0, symName: '__ZN98_$LT$alloc..vec..Vec$LT$T$GT$$u20$as$u20$alloc..vec..spec_from_iter..SpecFromIter$LT$T$C$I$GT$$GT$9from_iter17hf76ced1acdf33d12E', symObjAddr: 0x6A0, symBinAddr: 0x100007AC0, symSize: 0x2B3 }
  - { offsetInCU: 0x476, offset: 0x2361D, size: 0x8, addend: 0x0, symName: '__ZN4core3str21_$LT$impl$u20$str$GT$12trim_matches17hcd2de05483a8b544E', symObjAddr: 0x40, symBinAddr: 0x100007D80, symSize: 0x2C1 }
  - { offsetInCU: 0x6C7, offset: 0x253D5, size: 0x8, addend: 0x0, symName: '__ZN102_$LT$core..iter..adapters..map..Map$LT$I$C$F$GT$$u20$as$u20$core..iter..traits..iterator..Iterator$GT$8try_fold17hf247460f497f7979E', symObjAddr: 0x220, symBinAddr: 0x100008050, symSize: 0x3F1 }
  - { offsetInCU: 0x1E, offset: 0x25DF8, size: 0x8, addend: 0x0, symName: __ZN4core3fmt5Write10write_char17hc579d4f94c4b9836E, symObjAddr: 0x0, symBinAddr: 0x100008450, symSize: 0x100 }
  - { offsetInCU: 0xC8, offset: 0x25EA2, size: 0x8, addend: 0x0, symName: '__ZN80_$LT$std..io..Write..write_fmt..Adapter$LT$T$GT$$u20$as$u20$core..fmt..Write$GT$9write_str17hb60b9d721d347be1E', symObjAddr: 0x1E0, symBinAddr: 0x100008630, symSize: 0x3E }
  - { offsetInCU: 0xA55, offset: 0x2682F, size: 0x8, addend: 0x0, symName: '__ZN4core3ptr81drop_in_place$LT$core..result..Result$LT$$LP$$RP$$C$std..io..error..Error$GT$$GT$17h8952ce65e73a3624E', symObjAddr: 0x120, symBinAddr: 0x100008570, symSize: 0xB0 }
  - { offsetInCU: 0xEC6, offset: 0x26CA0, size: 0x8, addend: 0x0, symName: '__ZN4core3ptr87drop_in_place$LT$std..io..Write..write_fmt..Adapter$LT$std..process..ChildStdin$GT$$GT$17h4e5756f365c2d61fE', symObjAddr: 0x1D0, symBinAddr: 0x100008620, symSize: 0x10 }
  - { offsetInCU: 0x104C, offset: 0x26E26, size: 0x8, addend: 0x0, symName: __ZN4core3fmt5Write10write_char17hc579d4f94c4b9836E, symObjAddr: 0x0, symBinAddr: 0x100008450, symSize: 0x100 }
  - { offsetInCU: 0x11B5, offset: 0x26F8F, size: 0x8, addend: 0x0, symName: __ZN4core3fmt5Write9write_fmt17h4651df555c70c5a9E, symObjAddr: 0x100, symBinAddr: 0x100008550, symSize: 0x20 }
  - { offsetInCU: 0x1E, offset: 0x276F8, size: 0x8, addend: 0x0, symName: '__ZN99_$LT$alloc..collections..btree..map..BTreeMap$LT$K$C$V$C$A$GT$$u20$as$u20$core..ops..drop..Drop$GT$4drop17h0096fd29960dadadE', symObjAddr: 0x0, symBinAddr: 0x100008670, symSize: 0x3A8 }
  - { offsetInCU: 0xA24, offset: 0x280FE, size: 0x8, addend: 0x0, symName: '__ZN99_$LT$alloc..collections..btree..map..BTreeMap$LT$K$C$V$C$A$GT$$u20$as$u20$core..ops..drop..Drop$GT$4drop17h0096fd29960dadadE', symObjAddr: 0x0, symBinAddr: 0x100008670, symSize: 0x3A8 }
  - { offsetInCU: 0x1E, offset: 0x2A35F, size: 0x8, addend: 0x0, symName: '__ZN42_$LT$$RF$T$u20$as$u20$core..fmt..Debug$GT$3fmt17hdb11bc2cea17656dE', symObjAddr: 0x0, symBinAddr: 0x100008A20, symSize: 0xF0 }
  - { offsetInCU: 0x307, offset: 0x2A648, size: 0x8, addend: 0x0, symName: '__ZN4core3ptr32drop_in_place$LT$$RF$$RF$str$GT$17h0042e995d717c75bE', symObjAddr: 0xF0, symBinAddr: 0x100008B10, symSize: 0x10 }
  - { offsetInCU: 0x505, offset: 0x2A846, size: 0x8, addend: 0x0, symName: '__ZN42_$LT$$RF$T$u20$as$u20$core..fmt..Debug$GT$3fmt17hdb11bc2cea17656dE', symObjAddr: 0x0, symBinAddr: 0x100008A20, symSize: 0xF0 }
  - { offsetInCU: 0x1E, offset: 0x2AC3F, size: 0x8, addend: 0x0, symName: '__ZN42_$LT$$RF$T$u20$as$u20$core..fmt..Debug$GT$3fmt17h437e3159094bd660E', symObjAddr: 0x0, symBinAddr: 0x100008B20, symSize: 0x50 }
  - { offsetInCU: 0x173, offset: 0x2AD94, size: 0x8, addend: 0x0, symName: '__ZN42_$LT$$RF$T$u20$as$u20$core..fmt..Debug$GT$3fmt17h437e3159094bd660E', symObjAddr: 0x0, symBinAddr: 0x100008B20, symSize: 0x50 }
  - { offsetInCU: 0x1E3, offset: 0x2AE04, size: 0x8, addend: 0x0, symName: '__ZN42_$LT$$RF$T$u20$as$u20$core..fmt..Debug$GT$3fmt17h81e67e229c899bc4E', symObjAddr: 0x50, symBinAddr: 0x100008B70, symSize: 0x30 }
  - { offsetInCU: 0x336, offset: 0x2AF57, size: 0x8, addend: 0x0, symName: '__ZN4core3ptr55drop_in_place$LT$$RF$core..num..error..IntErrorKind$GT$17hb8c873db63fe88dbE', symObjAddr: 0x80, symBinAddr: 0x100008BA0, symSize: 0x6 }
  - { offsetInCU: 0x1E, offset: 0x2B04F, size: 0x8, addend: 0x0, symName: '__ZN42_$LT$$RF$T$u20$as$u20$core..fmt..Debug$GT$3fmt17h005b9801719be0d6E', symObjAddr: 0x0, symBinAddr: 0x100008BB0, symSize: 0x70 }
  - { offsetInCU: 0x19B, offset: 0x2B1CC, size: 0x8, addend: 0x0, symName: '__ZN42_$LT$$RF$T$u20$as$u20$core..fmt..Debug$GT$3fmt17h005b9801719be0d6E', symObjAddr: 0x0, symBinAddr: 0x100008BB0, symSize: 0x70 }
  - { offsetInCU: 0x214, offset: 0x2B245, size: 0x8, addend: 0x0, symName: '__ZN4core3fmt3num52_$LT$impl$u20$core..fmt..Debug$u20$for$u20$usize$GT$3fmt17h05928cb6857c498fE', symObjAddr: 0x70, symBinAddr: 0x100008C20, symSize: 0x30 }
  - { offsetInCU: 0x356, offset: 0x2B387, size: 0x8, addend: 0x0, symName: '__ZN4core3ptr26drop_in_place$LT$usize$GT$17h820450331ada10f8E', symObjAddr: 0xA0, symBinAddr: 0x100008C50, symSize: 0x6 }
  - { offsetInCU: 0x1E, offset: 0x2B4A8, size: 0x8, addend: 0x0, symName: '__ZN42_$LT$$RF$T$u20$as$u20$core..fmt..Debug$GT$3fmt17h61cd22c8e03f5b85E', symObjAddr: 0x0, symBinAddr: 0x100008C60, symSize: 0x20 }
  - { offsetInCU: 0x97, offset: 0x2B521, size: 0x8, addend: 0x0, symName: '__ZN42_$LT$$RF$T$u20$as$u20$core..fmt..Debug$GT$3fmt17h61cd22c8e03f5b85E', symObjAddr: 0x0, symBinAddr: 0x100008C60, symSize: 0x20 }
  - { offsetInCU: 0xFC, offset: 0x2B586, size: 0x8, addend: 0x0, symName: '__ZN42_$LT$$RF$T$u20$as$u20$core..fmt..Debug$GT$3fmt17h82e999fa050fcc48E', symObjAddr: 0x20, symBinAddr: 0x100008C80, symSize: 0x30 }
  - { offsetInCU: 0x231, offset: 0x2B6BB, size: 0x8, addend: 0x0, symName: '__ZN44_$LT$$RF$T$u20$as$u20$core..fmt..Display$GT$3fmt17h3ce46f273c5738b5E', symObjAddr: 0x50, symBinAddr: 0x100008CB0, symSize: 0x17 }
  - { offsetInCU: 0x1E, offset: 0x2B913, size: 0x8, addend: 0x0, symName: '__ZN42_$LT$$RF$T$u20$as$u20$core..fmt..Debug$GT$3fmt17h918bb57b1b63ff24E', symObjAddr: 0x0, symBinAddr: 0x100008CD0, symSize: 0x60 }
  - { offsetInCU: 0xD7, offset: 0x2B9CC, size: 0x8, addend: 0x0, symName: '__ZN42_$LT$$RF$T$u20$as$u20$core..fmt..Debug$GT$3fmt17h918bb57b1b63ff24E', symObjAddr: 0x0, symBinAddr: 0x100008CD0, symSize: 0x60 }
  - { offsetInCU: 0x2DE, offset: 0x2BBD3, size: 0x8, addend: 0x0, symName: '__ZN4core3ptr27drop_in_place$LT$$RF$u8$GT$17hfce289ab7919937aE', symObjAddr: 0x60, symBinAddr: 0x100008D30, symSize: 0x6 }
  - { offsetInCU: 0x1E, offset: 0x2BCB7, size: 0x8, addend: 0x0, symName: '__ZN42_$LT$$RF$T$u20$as$u20$core..fmt..Debug$GT$3fmt17h6757f695b99bdefdE', symObjAddr: 0x0, symBinAddr: 0x100008D40, symSize: 0xD }
  - { offsetInCU: 0x2AF, offset: 0x2BF48, size: 0x8, addend: 0x0, symName: '__ZN42_$LT$$RF$T$u20$as$u20$core..fmt..Debug$GT$3fmt17h6757f695b99bdefdE', symObjAddr: 0x0, symBinAddr: 0x100008D40, symSize: 0xD }
  - { offsetInCU: 0x1E, offset: 0x2C241, size: 0x8, addend: 0x0, symName: '__ZN42_$LT$$RF$T$u20$as$u20$core..fmt..Debug$GT$3fmt17h7c64d2e706403b61E', symObjAddr: 0x0, symBinAddr: 0x100008D50, symSize: 0xD }
  - { offsetInCU: 0x64, offset: 0x2C287, size: 0x8, addend: 0x0, symName: '__ZN42_$LT$$RF$T$u20$as$u20$core..fmt..Debug$GT$3fmt17h7c64d2e706403b61E', symObjAddr: 0x0, symBinAddr: 0x100008D50, symSize: 0xD }
...
