---
triple:          'x86_64-apple-darwin'
binary-path:     "/Users/justinlanouette/Chaos/ChaöS-Token/hello_world/target/release/deps/libderivative-7afc99b368be71fd.dylib"
relocations:
  - { offsetInCU: 0x1E, offset: 0x1E, size: 0x8, addend: 0x0, symName: __ZN4core3ops8function6FnOnce9call_once17hf95def506008e836E.llvm.1010933097065815542, symObjAddr: 0x0, symBinAddr: 0xD60, symSize: 0x10 }
  - { offsetInCU: 0xA8, offset: 0xA8, size: 0x8, addend: 0x0, symName: '__ZN58_$LT$alloc..string..String$u20$as$u20$core..fmt..Write$GT$10write_char17h04bc467bd68a934bE', symObjAddr: 0x7830, symBinAddr: 0x8590, symSize: 0x140 }
  - { offsetInCU: 0x4AD, offset: 0x4AD, size: 0x8, addend: 0x0, symName: '__ZN58_$LT$alloc..string..String$u20$as$u20$core..fmt..Write$GT$9write_str17h46a93205c3443fbaE', symObjAddr: 0x7970, symBinAddr: 0x86D0, symSize: 0x60 }
  - { offsetInCU: 0x340A, offset: 0x340A, size: 0x8, addend: 0x0, symName: '__ZN4core3ptr100drop_in_place$LT$core..option..Option$LT$alloc..boxed..Box$LT$syn..generics..LifetimeDef$GT$$GT$$GT$17h82b6930fbf453d3cE', symObjAddr: 0x10, symBinAddr: 0xD70, symSize: 0x150 }
  - { offsetInCU: 0x3986, offset: 0x3986, size: 0x8, addend: 0x0, symName: '__ZN4core3ptr100drop_in_place$LT$core..option..Option$LT$alloc..boxed..Box$LT$syn..path..GenericArgument$GT$$GT$$GT$17hdec1aac3c1c32b1aE', symObjAddr: 0x160, symBinAddr: 0xEC0, symSize: 0x50 }
  - { offsetInCU: 0x3B53, offset: 0x3B53, size: 0x8, addend: 0x0, symName: '__ZN4core3ptr103drop_in_place$LT$core..option..Option$LT$alloc..boxed..Box$LT$syn..generics..TypeParamBound$GT$$GT$$GT$17h4e76aebe6f41d1a7E', symObjAddr: 0x1B0, symBinAddr: 0xF10, symSize: 0x90 }
  - { offsetInCU: 0x3EC8, offset: 0x3EC8, size: 0x8, addend: 0x0, symName: '__ZN4core3ptr103drop_in_place$LT$syn..punctuated..Punctuated$LT$syn..generics..TypeParamBound$C$syn..token..Add$GT$$GT$17h283d6fefb1c71cfaE', symObjAddr: 0x240, symBinAddr: 0xFA0, symSize: 0x200 }
  - { offsetInCU: 0x47A6, offset: 0x47A6, size: 0x8, addend: 0x0, symName: '__ZN4core3ptr108drop_in_place$LT$syn..punctuated..Punctuated$LT$syn..expr..GenericMethodArgument$C$syn..token..Comma$GT$$GT$17h2aec9c03103ab694E', symObjAddr: 0x440, symBinAddr: 0x11A0, symSize: 0x150 }
  - { offsetInCU: 0x4C83, offset: 0x4C83, size: 0x8, addend: 0x0, symName: '__ZN4core3ptr111drop_in_place$LT$$LP$proc_macro2..TokenStream$C$alloc..vec..Vec$LT$derivative..matcher..BindingInfo$GT$$RP$$GT$17h4303abbe0827ec63E', symObjAddr: 0x590, symBinAddr: 0x12F0, symSize: 0x90 }
  - { offsetInCU: 0x4EEA, offset: 0x4EEA, size: 0x8, addend: 0x0, symName: '__ZN4core3ptr179drop_in_place$LT$alloc..vec..Vec$LT$$LP$derivative..matcher..CommonVariant$C$$LP$proc_macro2..TokenStream$C$alloc..vec..Vec$LT$derivative..matcher..BindingInfo$GT$$RP$$RP$$GT$$GT$17h7a3e10f61752a900E', symObjAddr: 0x620, symBinAddr: 0x1380, symSize: 0xD0 }
  - { offsetInCU: 0x5277, offset: 0x5277, size: 0x8, addend: 0x0, symName: '__ZN4core3ptr34drop_in_place$LT$syn..lit..Lit$GT$17ha842b5e81e8582b3E', symObjAddr: 0x6F0, symBinAddr: 0x1450, symSize: 0x110 }
  - { offsetInCU: 0x56E9, offset: 0x56E9, size: 0x8, addend: 0x0, symName: '__ZN4core3ptr34drop_in_place$LT$syn..pat..Pat$GT$17h0621b062377aebcbE', symObjAddr: 0x800, symBinAddr: 0x1560, symSize: 0x1180 }
  - { offsetInCU: 0x95C1, offset: 0x95C1, size: 0x8, addend: 0x0, symName: '__ZN4core3ptr34drop_in_place$LT$syn..ty..Type$GT$17h3d55b11c281dc967E', symObjAddr: 0x1980, symBinAddr: 0x26E0, symSize: 0x580 }
  - { offsetInCU: 0xAED2, offset: 0xAED2, size: 0x8, addend: 0x0, symName: '__ZN4core3ptr36drop_in_place$LT$syn..expr..Expr$GT$17h68b218bdcee4a3c7E', symObjAddr: 0x1F00, symBinAddr: 0x2C60, symSize: 0x32B0 }
  - { offsetInCU: 0x15856, offset: 0x15856, size: 0x8, addend: 0x0, symName: '__ZN4core3ptr36drop_in_place$LT$syn..mac..Macro$GT$17h158bcec479486e24E', symObjAddr: 0x51B0, symBinAddr: 0x5F10, symSize: 0x40 }
  - { offsetInCU: 0x159A7, offset: 0x159A7, size: 0x8, addend: 0x0, symName: '__ZN4core3ptr36drop_in_place$LT$syn..path..Path$GT$17hdc92c6b0523379a3E', symObjAddr: 0x51F0, symBinAddr: 0x5F50, symSize: 0x230 }
  - { offsetInCU: 0x1633D, offset: 0x1633D, size: 0x8, addend: 0x0, symName: '__ZN4core3ptr37drop_in_place$LT$syn..stmt..Block$GT$17hfffa15f159ccade9E', symObjAddr: 0x5420, symBinAddr: 0x6180, symSize: 0xD0 }
  - { offsetInCU: 0x16614, offset: 0x16614, size: 0x8, addend: 0x0, symName: '__ZN4core3ptr38drop_in_place$LT$syn..expr..Member$GT$17h24b2f28a51f276afE', symObjAddr: 0x54F0, symBinAddr: 0x6250, symSize: 0x30 }
  - { offsetInCU: 0x16710, offset: 0x16710, size: 0x8, addend: 0x0, symName: '__ZN4core3ptr39drop_in_place$LT$proc_macro2..Ident$GT$17he0509ca0076c6db2E', symObjAddr: 0x5520, symBinAddr: 0x6280, symSize: 0x30 }
  - { offsetInCU: 0x167ED, offset: 0x167ED, size: 0x8, addend: 0x0, symName: '__ZN4core3ptr39drop_in_place$LT$syn..pat..PatTuple$GT$17ha1d19a764bcc1cb3E', symObjAddr: 0x5550, symBinAddr: 0x62B0, symSize: 0x100 }
  - { offsetInCU: 0x16AF6, offset: 0x16AF6, size: 0x8, addend: 0x0, symName: '__ZN4core3ptr40drop_in_place$LT$syn..ty..ReturnType$GT$17h2d60777f70ee0d22E', symObjAddr: 0x5650, symBinAddr: 0x63B0, symSize: 0x50 }
  - { offsetInCU: 0x16C66, offset: 0x16C66, size: 0x8, addend: 0x0, symName: '__ZN4core3ptr42drop_in_place$LT$alloc..string..String$GT$17h073d01a47536ee6fE', symObjAddr: 0x56A0, symBinAddr: 0x6400, symSize: 0x20 }
  - { offsetInCU: 0x16D6E, offset: 0x16D6E, size: 0x8, addend: 0x0, symName: '__ZN4core3ptr44drop_in_place$LT$syn..lifetime..Lifetime$GT$17he83b0b529a581d24E', symObjAddr: 0x56C0, symBinAddr: 0x6420, symSize: 0x30 }
  - { offsetInCU: 0x16FA0, offset: 0x16FA0, size: 0x8, addend: 0x0, symName: '__ZN4core3ptr45drop_in_place$LT$proc_macro2..TokenStream$GT$17h7e9a94df6c9afdc7E', symObjAddr: 0x56F0, symBinAddr: 0x6450, symSize: 0x140 }
  - { offsetInCU: 0x17427, offset: 0x17427, size: 0x8, addend: 0x0, symName: '__ZN4core3ptr460drop_in_place$LT$core..iter..adapters..enumerate..Enumerate$LT$core..iter..adapters..zip..Zip$LT$alloc..vec..into_iter..IntoIter$LT$$LP$derivative..matcher..CommonVariant$C$$LP$proc_macro2..TokenStream$C$alloc..vec..Vec$LT$derivative..matcher..BindingInfo$GT$$RP$$RP$$GT$$C$alloc..vec..into_iter..IntoIter$LT$$LP$derivative..matcher..CommonVariant$C$$LP$proc_macro2..TokenStream$C$alloc..vec..Vec$LT$derivative..matcher..BindingInfo$GT$$RP$$RP$$GT$$GT$$GT$$GT$17h1e34b4d741a2475fE', symObjAddr: 0x5830, symBinAddr: 0x6590, symSize: 0x40 }
  - { offsetInCU: 0x174FA, offset: 0x174FA, size: 0x8, addend: 0x0, symName: '__ZN4core3ptr47drop_in_place$LT$syn..path..GenericArgument$GT$17hc55a20af1acae48eE', symObjAddr: 0x5870, symBinAddr: 0x65D0, symSize: 0x110 }
  - { offsetInCU: 0x17815, offset: 0x17815, size: 0x8, addend: 0x0, symName: '__ZN4core3ptr53drop_in_place$LT$derivative..matcher..BindingInfo$GT$17h6302cdf95d571aecE', symObjAddr: 0x5980, symBinAddr: 0x66E0, symSize: 0x50 }
  - { offsetInCU: 0x17911, offset: 0x17911, size: 0x8, addend: 0x0, symName: '__ZN4core3ptr58drop_in_place$LT$alloc..vec..Vec$LT$syn..expr..Arm$GT$$GT$17hdd3822aa758753c7E', symObjAddr: 0x59D0, symBinAddr: 0x6730, symSize: 0xD0 }
  - { offsetInCU: 0x17BD1, offset: 0x17BD1, size: 0x8, addend: 0x0, symName: '__ZN4core3ptr59drop_in_place$LT$alloc..boxed..Box$LT$syn..pat..Pat$GT$$GT$17h48ec1dbe47a00c61E', symObjAddr: 0x5AA0, symBinAddr: 0x6800, symSize: 0x50 }
  - { offsetInCU: 0x17D2A, offset: 0x17D2A, size: 0x8, addend: 0x0, symName: '__ZN4core3ptr59drop_in_place$LT$alloc..boxed..Box$LT$syn..ty..Type$GT$$GT$17h454cab832bb38812E', symObjAddr: 0x5AF0, symBinAddr: 0x6850, symSize: 0x50 }
  - { offsetInCU: 0x17E83, offset: 0x17E83, size: 0x8, addend: 0x0, symName: '__ZN4core3ptr61drop_in_place$LT$alloc..boxed..Box$LT$syn..expr..Expr$GT$$GT$17hbe6f5e1c721a6cd9E', symObjAddr: 0x5B40, symBinAddr: 0x68A0, symSize: 0x50 }
  - { offsetInCU: 0x18058, offset: 0x18058, size: 0x8, addend: 0x0, symName: '__ZN4core3ptr61drop_in_place$LT$syn..path..ParenthesizedGenericArguments$GT$17h2d220a34adaf921bE', symObjAddr: 0x5B90, symBinAddr: 0x68F0, symSize: 0x170 }
  - { offsetInCU: 0x1864E, offset: 0x1864E, size: 0x8, addend: 0x0, symName: '__ZN4core3ptr63drop_in_place$LT$alloc..boxed..Box$LT$syn..lit..LitRepr$GT$$GT$17h44c55dd7d5499a10E', symObjAddr: 0x5D00, symBinAddr: 0x6A60, symSize: 0x60 }
  - { offsetInCU: 0x18955, offset: 0x18955, size: 0x8, addend: 0x0, symName: '__ZN4core3ptr64drop_in_place$LT$alloc..boxed..Box$LT$syn..pat..FieldPat$GT$$GT$17h8a4c0395922411f9E', symObjAddr: 0x5D60, symBinAddr: 0x6AC0, symSize: 0x180 }
  - { offsetInCU: 0x19072, offset: 0x19072, size: 0x8, addend: 0x0, symName: '__ZN4core3ptr64drop_in_place$LT$alloc..boxed..Box$LT$syn..ty..BareFnArg$GT$$GT$17h145502f35dc7a34dE', symObjAddr: 0x5EE0, symBinAddr: 0x6C40, symSize: 0x160 }
  - { offsetInCU: 0x19608, offset: 0x19608, size: 0x8, addend: 0x0, symName: '__ZN4core3ptr64drop_in_place$LT$alloc..vec..Vec$LT$syn..attr..Attribute$GT$$GT$17h41e2ed10f03c75c3E', symObjAddr: 0x6040, symBinAddr: 0x6DA0, symSize: 0xF0 }
  - { offsetInCU: 0x198FE, offset: 0x198FE, size: 0x8, addend: 0x0, symName: '__ZN4core3ptr65drop_in_place$LT$alloc..vec..Vec$LT$proc_macro..TokenTree$GT$$GT$17h27434ef986fc0c8fE', symObjAddr: 0x6130, symBinAddr: 0x6E90, symSize: 0x110 }
  - { offsetInCU: 0x19CF6, offset: 0x19CF6, size: 0x8, addend: 0x0, symName: '__ZN4core3ptr65drop_in_place$LT$core..option..Option$LT$syn..expr..Label$GT$$GT$17hf88e6caa939fd4b3E', symObjAddr: 0x6240, symBinAddr: 0x6FA0, symSize: 0x30 }
  - { offsetInCU: 0x19E30, offset: 0x19E30, size: 0x8, addend: 0x0, symName: '__ZN4core3ptr65drop_in_place$LT$core..option..Option$LT$syn..path..QSelf$GT$$GT$17h67c5ac27e1115beaE', symObjAddr: 0x6270, symBinAddr: 0x6FD0, symSize: 0x50 }
  - { offsetInCU: 0x19FC7, offset: 0x19FC7, size: 0x8, addend: 0x0, symName: '__ZN4core3ptr66drop_in_place$LT$core..option..Option$LT$syn..ty..Variadic$GT$$GT$17hd53494a084af7b6fE', symObjAddr: 0x62C0, symBinAddr: 0x7020, symSize: 0xF0 }
  - { offsetInCU: 0x1A2F1, offset: 0x1A2F1, size: 0x8, addend: 0x0, symName: '__ZN4core3ptr67drop_in_place$LT$alloc..boxed..Box$LT$syn..expr..FieldValue$GT$$GT$17hee600943c39f373eE', symObjAddr: 0x63B0, symBinAddr: 0x7110, symSize: 0x160 }
  - { offsetInCU: 0x1A886, offset: 0x1A886, size: 0x8, addend: 0x0, symName: '__ZN4core3ptr68drop_in_place$LT$alloc..boxed..Box$LT$syn..path..PathSegment$GT$$GT$17he2e359177565069bE', symObjAddr: 0x6510, symBinAddr: 0x7270, symSize: 0x190 }
  - { offsetInCU: 0x1AFAF, offset: 0x1AFAF, size: 0x8, addend: 0x0, symName: '__ZN4core3ptr72drop_in_place$LT$alloc..boxed..Box$LT$syn..path..GenericArgument$GT$$GT$17h193e4d7337ac8d1fE', symObjAddr: 0x66A0, symBinAddr: 0x7400, symSize: 0x1D0 }
  - { offsetInCU: 0x1B6D6, offset: 0x1B6D6, size: 0x8, addend: 0x0, symName: '__ZN4core3ptr72drop_in_place$LT$core..option..Option$LT$syn..lifetime..Lifetime$GT$$GT$17h496ffbcd02d279ceE', symObjAddr: 0x6870, symBinAddr: 0x75D0, symSize: 0x30 }
  - { offsetInCU: 0x1B7F1, offset: 0x1B7F1, size: 0x8, addend: 0x0, symName: '__ZN4core3ptr75drop_in_place$LT$alloc..boxed..Box$LT$syn..generics..TypeParamBound$GT$$GT$17h0d539f38c26df380E', symObjAddr: 0x68A0, symBinAddr: 0x7600, symSize: 0x140 }
  - { offsetInCU: 0x1BD4C, offset: 0x1BD4C, size: 0x8, addend: 0x0, symName: '__ZN4core3ptr76drop_in_place$LT$alloc..vec..Vec$LT$derivative..matcher..BindingInfo$GT$$GT$17he8c6e023241e79d6E', symObjAddr: 0x69E0, symBinAddr: 0x7740, symSize: 0x60 }
  - { offsetInCU: 0x1BF79, offset: 0x1BF79, size: 0x8, addend: 0x0, symName: '__ZN4core3ptr78drop_in_place$LT$alloc..boxed..Box$LT$syn..expr..GenericMethodArgument$GT$$GT$17h2e8ab754b2d35f4bE', symObjAddr: 0x6A40, symBinAddr: 0x77A0, symSize: 0x60 }
  - { offsetInCU: 0x1C16B, offset: 0x1C16B, size: 0x8, addend: 0x0, symName: '__ZN4core3ptr78drop_in_place$LT$core..option..Option$LT$syn..generics..BoundLifetimes$GT$$GT$17he70d317fbad5b599E', symObjAddr: 0x6AA0, symBinAddr: 0x7800, symSize: 0x90 }
  - { offsetInCU: 0x1C459, offset: 0x1C459, size: 0x8, addend: 0x0, symName: '__ZN4core3ptr86drop_in_place$LT$syn..punctuated..Punctuated$LT$syn..pat..Pat$C$syn..token..Or$GT$$GT$17h2004905335266fbeE', symObjAddr: 0x6B30, symBinAddr: 0x7890, symSize: 0x120 }
  - { offsetInCU: 0x1C8D4, offset: 0x1C8D4, size: 0x8, addend: 0x0, symName: '__ZN4core3ptr87drop_in_place$LT$core..option..Option$LT$alloc..boxed..Box$LT$syn..pat..Pat$GT$$GT$$GT$17h9151a9d5e0aa7e1eE', symObjAddr: 0x6C50, symBinAddr: 0x79B0, symSize: 0x50 }
  - { offsetInCU: 0x1CA44, offset: 0x1CA44, size: 0x8, addend: 0x0, symName: '__ZN4core3ptr87drop_in_place$LT$core..option..Option$LT$alloc..boxed..Box$LT$syn..ty..Type$GT$$GT$$GT$17hd3cb46ad48d34655E', symObjAddr: 0x6CA0, symBinAddr: 0x7A00, symSize: 0x50 }
  - { offsetInCU: 0x1CBB4, offset: 0x1CBB4, size: 0x8, addend: 0x0, symName: '__ZN4core3ptr89drop_in_place$LT$core..option..Option$LT$alloc..boxed..Box$LT$syn..expr..Expr$GT$$GT$$GT$17h9693feaa41001291E', symObjAddr: 0x6CF0, symBinAddr: 0x7A50, symSize: 0x50 }
  - { offsetInCU: 0x1CD62, offset: 0x1CD62, size: 0x8, addend: 0x0, symName: '__ZN4core3ptr89drop_in_place$LT$syn..punctuated..Punctuated$LT$syn..pat..Pat$C$syn..token..Comma$GT$$GT$17hc735db3a40e860f2E', symObjAddr: 0x6D40, symBinAddr: 0x7AA0, symSize: 0x120 }
  - { offsetInCU: 0x1D1F4, offset: 0x1D1F4, size: 0x8, addend: 0x0, symName: '__ZN4core3ptr89drop_in_place$LT$syn..punctuated..Punctuated$LT$syn..ty..Type$C$syn..token..Comma$GT$$GT$17he63552f348a6dc51E', symObjAddr: 0x6E60, symBinAddr: 0x7BC0, symSize: 0x120 }
  - { offsetInCU: 0x1D6AD, offset: 0x1D6AD, size: 0x8, addend: 0x0, symName: '__ZN4core3ptr91drop_in_place$LT$syn..punctuated..Punctuated$LT$syn..expr..Expr$C$syn..token..Comma$GT$$GT$17h4abaeb5cfb586772E', symObjAddr: 0x6F80, symBinAddr: 0x7CE0, symSize: 0x120 }
  - { offsetInCU: 0x1DB3B, offset: 0x1DB3B, size: 0x8, addend: 0x0, symName: '__ZN4core3ptr94drop_in_place$LT$syn..punctuated..Punctuated$LT$syn..pat..FieldPat$C$syn..token..Comma$GT$$GT$17hf9927b8b52e25a50E', symObjAddr: 0x70A0, symBinAddr: 0x7E00, symSize: 0xF0 }
  - { offsetInCU: 0x1DE3A, offset: 0x1DE3A, size: 0x8, addend: 0x0, symName: '__ZN4core3ptr94drop_in_place$LT$syn..punctuated..Punctuated$LT$syn..ty..BareFnArg$C$syn..token..Comma$GT$$GT$17h577c8aa515f26074E', symObjAddr: 0x7190, symBinAddr: 0x7EF0, symSize: 0xF0 }
  - { offsetInCU: 0x1E137, offset: 0x1E137, size: 0x8, addend: 0x0, symName: '__ZN4core3ptr96drop_in_place$LT$core..option..Option$LT$alloc..boxed..Box$LT$syn..path..PathSegment$GT$$GT$$GT$17hb35e105c29269971E', symObjAddr: 0x7280, symBinAddr: 0x7FE0, symSize: 0x180 }
  - { offsetInCU: 0x1E7F4, offset: 0x1E7F4, size: 0x8, addend: 0x0, symName: '__ZN4core3ptr97drop_in_place$LT$syn..punctuated..Punctuated$LT$syn..expr..FieldValue$C$syn..token..Comma$GT$$GT$17h15366382fde2131eE', symObjAddr: 0x7400, symBinAddr: 0x8160, symSize: 0xF0 }
  - { offsetInCU: 0x1EB6D, offset: 0x1EB6D, size: 0x8, addend: 0x0, symName: '__ZN4core3ptr97drop_in_place$LT$syn..punctuated..Punctuated$LT$syn..lifetime..Lifetime$C$syn..token..Add$GT$$GT$17hd50f0bf96210475aE', symObjAddr: 0x74F0, symBinAddr: 0x8250, symSize: 0xD0 }
  - { offsetInCU: 0x1EFE1, offset: 0x1EFE1, size: 0x8, addend: 0x0, symName: '__ZN4core3ptr99drop_in_place$LT$syn..punctuated..Punctuated$LT$syn..path..PathSegment$C$syn..token..Colon2$GT$$GT$17h603ba227c074f4bfE', symObjAddr: 0x75C0, symBinAddr: 0x8320, symSize: 0x250 }
  - { offsetInCU: 0x2043A, offset: 0x2043A, size: 0x8, addend: 0x0, symName: '__ZN53_$LT$core..fmt..Error$u20$as$u20$core..fmt..Debug$GT$3fmt17h03dc662ab152f3aeE', symObjAddr: 0x7810, symBinAddr: 0x8570, symSize: 0x20 }
  - { offsetInCU: 0x20728, offset: 0x20728, size: 0x8, addend: 0x0, symName: __ZN4core3ops8function6FnOnce9call_once17hf95def506008e836E.llvm.1010933097065815542, symObjAddr: 0x0, symBinAddr: 0xD60, symSize: 0x10 }
  - { offsetInCU: 0x2601B, offset: 0x2601B, size: 0x8, addend: 0x0, symName: '__ZN80_$LT$derivative..matcher..BindingStyle$u20$as$u20$quote..to_tokens..ToTokens$GT$9to_tokens17hb4868207c6ee4691E', symObjAddr: 0x7D70, symBinAddr: 0x8AD0, symSize: 0x120 }
  - { offsetInCU: 0x28BAE, offset: 0x28BAE, size: 0x8, addend: 0x0, symName: '__ZN10derivative3cmp17derive_partial_eq28_$u7b$$u7b$closure$u7d$$u7d$17h1bf2b27e141eec95E', symObjAddr: 0x79D0, symBinAddr: 0x8730, symSize: 0x3A0 }
  - { offsetInCU: 0x2C1DA, offset: 0x2C1DA, size: 0x8, addend: 0x0, symName: '__ZN10derivative7matcher16Matcher$LT$T$GT$10build_arms17h19cb68139b9855b7E', symObjAddr: 0x7F30, symBinAddr: 0x8BF0, symSize: 0x950 }
  - { offsetInCU: 0x2E978, offset: 0x2E978, size: 0x8, addend: 0x0, symName: '__ZN10derivative7matcher16Matcher$LT$T$GT$10build_arms17h1ac57f856d72f92dE', symObjAddr: 0x8880, symBinAddr: 0x9540, symSize: 0x5E10 }
  - { offsetInCU: 0x38EF6, offset: 0x38EF6, size: 0x8, addend: 0x0, symName: '__ZN10derivative7matcher16Matcher$LT$T$GT$10build_arms17h3a29035abb5ba409E', symObjAddr: 0xE690, symBinAddr: 0xF350, symSize: 0xEA0 }
  - { offsetInCU: 0x3AF88, offset: 0x3AF88, size: 0x8, addend: 0x0, symName: '__ZN10derivative7matcher16Matcher$LT$T$GT$10build_arms17h5832447df82e9005E', symObjAddr: 0xF530, symBinAddr: 0x101F0, symSize: 0x1C10 }
  - { offsetInCU: 0x3FF9C, offset: 0x3FF9C, size: 0x8, addend: 0x0, symName: '__ZN10derivative7matcher16Matcher$LT$T$GT$10build_arms17ha4028956b8ab1f45E', symObjAddr: 0x11140, symBinAddr: 0x11E00, symSize: 0x6050 }
  - { offsetInCU: 0x4AADA, offset: 0x4AADA, size: 0x8, addend: 0x0, symName: '__ZN10derivative7matcher16Matcher$LT$T$GT$10build_arms17hcd647c71d6972000E', symObjAddr: 0x17190, symBinAddr: 0x17E50, symSize: 0x2780 }
  - { offsetInCU: 0x4E085, offset: 0x4E085, size: 0x8, addend: 0x0, symName: '__ZN10derivative7matcher16Matcher$LT$T$GT$12build_2_arms17h667cfbdf114035fdE', symObjAddr: 0x19910, symBinAddr: 0x1A5D0, symSize: 0x11A0 }
  - { offsetInCU: 0x4F626, offset: 0x4F626, size: 0x8, addend: 0x0, symName: '__ZN10derivative7matcher16Matcher$LT$T$GT$19build_match_pattern17h24b853afc07af67bE', symObjAddr: 0x1AAB0, symBinAddr: 0x1B770, symSize: 0x1770 }
  - { offsetInCU: 0x5134D, offset: 0x5134D, size: 0x8, addend: 0x0, symName: '__ZN10derivative7matcher16Matcher$LT$T$GT$19build_match_pattern17h325108076388b0aaE', symObjAddr: 0x1C220, symBinAddr: 0x1CEE0, symSize: 0x1770 }
  - { offsetInCU: 0x52E58, offset: 0x52E58, size: 0x8, addend: 0x0, symName: '__ZN10derivative7matcher16Matcher$LT$T$GT$24build_match_pattern_impl17h065977b7cb6bbaf0E', symObjAddr: 0x1D990, symBinAddr: 0x1E650, symSize: 0x0 }
  - { offsetInCU: 0x5441A, offset: 0x5441A, size: 0x8, addend: 0x0, symName: '__ZN10derivative7matcher16Matcher$LT$T$GT$24build_match_pattern_impl17h6950665ffcb7ec40E', symObjAddr: 0x1EDF0, symBinAddr: 0x1FAB0, symSize: 0x14A0 }
  - { offsetInCU: 0x559D4, offset: 0x559D4, size: 0x8, addend: 0x0, symName: '__ZN10derivative7matcher16Matcher$LT$T$GT$24build_match_pattern_impl17ha2579085c23c8575E', symObjAddr: 0x20290, symBinAddr: 0x20F50, symSize: 0x1460 }
  - { offsetInCU: 0x56F96, offset: 0x56F96, size: 0x8, addend: 0x0, symName: '__ZN10derivative7matcher16Matcher$LT$T$GT$24build_match_pattern_impl17ha9370cc0a3288127E', symObjAddr: 0x216F0, symBinAddr: 0x223B0, symSize: 0x1480 }
  - { offsetInCU: 0x58558, offset: 0x58558, size: 0x8, addend: 0x0, symName: '__ZN10derivative7matcher16Matcher$LT$T$GT$24build_match_pattern_impl17hb7757d0d867fbe03E', symObjAddr: 0x22B70, symBinAddr: 0x23830, symSize: 0x0 }
  - { offsetInCU: 0x1E, offset: 0x66A4D, size: 0x8, addend: 0x0, symName: '__ZN100_$LT$syn..punctuated..PrivateIter$LT$T$C$P$GT$$u20$as$u20$core..iter..traits..iterator..Iterator$GT$4next17h17a1f5cd28a28fe8E.llvm.8852401028553457079', symObjAddr: 0x0, symBinAddr: 0x24C90, symSize: 0x30 }
  - { offsetInCU: 0x35, offset: 0x66A64, size: 0x8, addend: 0x0, symName: _anon.277a399a9e2cb59c822d5d0bf1a61af3.4.llvm.8852401028553457079, symObjAddr: 0xEA38, symBinAddr: 0x310340, symSize: 0x0 }
  - { offsetInCU: 0xD6F, offset: 0x6779E, size: 0x8, addend: 0x0, symName: '__ZN100_$LT$syn..punctuated..PrivateIter$LT$T$C$P$GT$$u20$as$u20$core..iter..traits..iterator..Iterator$GT$4next17h17a1f5cd28a28fe8E.llvm.8852401028553457079', symObjAddr: 0x0, symBinAddr: 0x24C90, symSize: 0x30 }
  - { offsetInCU: 0xFE9, offset: 0x67A18, size: 0x8, addend: 0x0, symName: '__ZN100_$LT$syn..punctuated..PrivateIter$LT$T$C$P$GT$$u20$as$u20$core..iter..traits..iterator..Iterator$GT$4next17h19788c059c8f84ccE.llvm.8852401028553457079', symObjAddr: 0x30, symBinAddr: 0x24CC0, symSize: 0x30 }
  - { offsetInCU: 0x1263, offset: 0x67C92, size: 0x8, addend: 0x0, symName: '__ZN100_$LT$syn..punctuated..PrivateIter$LT$T$C$P$GT$$u20$as$u20$core..iter..traits..iterator..Iterator$GT$4next17hee289c43b15339f1E.llvm.8852401028553457079', symObjAddr: 0x60, symBinAddr: 0x24CF0, symSize: 0x30 }
  - { offsetInCU: 0x14DD, offset: 0x67F0C, size: 0x8, addend: 0x0, symName: '__ZN100_$LT$syn..punctuated..PrivateIter$LT$T$C$P$GT$$u20$as$u20$core..iter..traits..iterator..Iterator$GT$4next17hf0a8c582c73ee3b9E.llvm.8852401028553457079', symObjAddr: 0x90, symBinAddr: 0x24D20, symSize: 0x30 }
  - { offsetInCU: 0x18AF, offset: 0x682DE, size: 0x8, addend: 0x0, symName: '__ZN102_$LT$syn..punctuated..Punctuated$LT$T$C$P$GT$$u20$as$u20$core..iter..traits..collect..IntoIterator$GT$9into_iter17h2120a6566b0cf8cdE', symObjAddr: 0xC0, symBinAddr: 0x24D50, symSize: 0x2D0 }
  - { offsetInCU: 0x25A6, offset: 0x68FD5, size: 0x8, addend: 0x0, symName: '__ZN102_$LT$syn..punctuated..Punctuated$LT$T$C$P$GT$$u20$as$u20$core..iter..traits..collect..IntoIterator$GT$9into_iter17hc1dd3ba86809badcE', symObjAddr: 0x390, symBinAddr: 0x25020, symSize: 0x2E0 }
  - { offsetInCU: 0x32A9, offset: 0x69CD8, size: 0x8, addend: 0x0, symName: '__ZN105_$LT$syn..punctuated..Punctuated$LT$T$C$P$GT$$u20$as$u20$core..iter..traits..collect..Extend$LT$T$GT$$GT$6extend17h08be40e71d3c785eE', symObjAddr: 0x670, symBinAddr: 0x25300, symSize: 0x310 }
  - { offsetInCU: 0x3911, offset: 0x6A340, size: 0x8, addend: 0x0, symName: '__ZN105_$LT$syn..punctuated..Punctuated$LT$T$C$P$GT$$u20$as$u20$core..iter..traits..collect..Extend$LT$T$GT$$GT$6extend17h2d89a584317949deE', symObjAddr: 0x980, symBinAddr: 0x25610, symSize: 0x170 }
  - { offsetInCU: 0x3C09, offset: 0x6A638, size: 0x8, addend: 0x0, symName: '__ZN105_$LT$syn..punctuated..Punctuated$LT$T$C$P$GT$$u20$as$u20$core..iter..traits..collect..Extend$LT$T$GT$$GT$6extend17h58ea226ce19e40d2E', symObjAddr: 0xB90, symBinAddr: 0x25780, symSize: 0x100 }
  - { offsetInCU: 0x40C7, offset: 0x6AAF6, size: 0x8, addend: 0x0, symName: '__ZN105_$LT$syn..punctuated..Punctuated$LT$T$C$P$GT$$u20$as$u20$core..iter..traits..collect..Extend$LT$T$GT$$GT$6extend17h63e888d99950683aE', symObjAddr: 0xC90, symBinAddr: 0x25880, symSize: 0x170 }
  - { offsetInCU: 0x43BF, offset: 0x6ADEE, size: 0x8, addend: 0x0, symName: '__ZN105_$LT$syn..punctuated..Punctuated$LT$T$C$P$GT$$u20$as$u20$core..iter..traits..collect..Extend$LT$T$GT$$GT$6extend17h6528e91f72a62768E', symObjAddr: 0xE00, symBinAddr: 0x259F0, symSize: 0x170 }
  - { offsetInCU: 0x46B7, offset: 0x6B0E6, size: 0x8, addend: 0x0, symName: '__ZN105_$LT$syn..punctuated..Punctuated$LT$T$C$P$GT$$u20$as$u20$core..iter..traits..collect..Extend$LT$T$GT$$GT$6extend17h6d2f6c0340b81bc9E', symObjAddr: 0xF70, symBinAddr: 0x25B60, symSize: 0x310 }
  - { offsetInCU: 0x4D1F, offset: 0x6B74E, size: 0x8, addend: 0x0, symName: '__ZN105_$LT$syn..punctuated..Punctuated$LT$T$C$P$GT$$u20$as$u20$core..iter..traits..collect..Extend$LT$T$GT$$GT$6extend17h708f800b0aaf7025E', symObjAddr: 0x1280, symBinAddr: 0x25E70, symSize: 0x310 }
  - { offsetInCU: 0x5387, offset: 0x6BDB6, size: 0x8, addend: 0x0, symName: '__ZN105_$LT$syn..punctuated..Punctuated$LT$T$C$P$GT$$u20$as$u20$core..iter..traits..collect..Extend$LT$T$GT$$GT$6extend17h7106d3f7b812367dE', symObjAddr: 0x1590, symBinAddr: 0x26180, symSize: 0x310 }
  - { offsetInCU: 0x59EF, offset: 0x6C41E, size: 0x8, addend: 0x0, symName: '__ZN105_$LT$syn..punctuated..Punctuated$LT$T$C$P$GT$$u20$as$u20$core..iter..traits..collect..Extend$LT$T$GT$$GT$6extend17h74f5933319fa8eaeE', symObjAddr: 0x18A0, symBinAddr: 0x26490, symSize: 0x310 }
  - { offsetInCU: 0x6057, offset: 0x6CA86, size: 0x8, addend: 0x0, symName: '__ZN105_$LT$syn..punctuated..Punctuated$LT$T$C$P$GT$$u20$as$u20$core..iter..traits..collect..Extend$LT$T$GT$$GT$6extend17h78a64b8c9a0f1783E', symObjAddr: 0x1BB0, symBinAddr: 0x267A0, symSize: 0x100 }
  - { offsetInCU: 0x6515, offset: 0x6CF44, size: 0x8, addend: 0x0, symName: '__ZN105_$LT$syn..punctuated..Punctuated$LT$T$C$P$GT$$u20$as$u20$core..iter..traits..collect..Extend$LT$T$GT$$GT$6extend17h7a3f69340ebb06f7E', symObjAddr: 0x1CB0, symBinAddr: 0x268A0, symSize: 0x100 }
  - { offsetInCU: 0x69D3, offset: 0x6D402, size: 0x8, addend: 0x0, symName: '__ZN105_$LT$syn..punctuated..Punctuated$LT$T$C$P$GT$$u20$as$u20$core..iter..traits..collect..Extend$LT$T$GT$$GT$6extend17h8c07e5106a6d601dE', symObjAddr: 0x1DB0, symBinAddr: 0x269A0, symSize: 0x310 }
  - { offsetInCU: 0x703B, offset: 0x6DA6A, size: 0x8, addend: 0x0, symName: '__ZN105_$LT$syn..punctuated..Punctuated$LT$T$C$P$GT$$u20$as$u20$core..iter..traits..collect..Extend$LT$T$GT$$GT$6extend17h9079edcf5056e5ffE', symObjAddr: 0x20C0, symBinAddr: 0x26CB0, symSize: 0x170 }
  - { offsetInCU: 0x7333, offset: 0x6DD62, size: 0x8, addend: 0x0, symName: '__ZN105_$LT$syn..punctuated..Punctuated$LT$T$C$P$GT$$u20$as$u20$core..iter..traits..collect..Extend$LT$T$GT$$GT$6extend17ha89ec66d90a4592bE', symObjAddr: 0x2230, symBinAddr: 0x26E20, symSize: 0x170 }
  - { offsetInCU: 0x762B, offset: 0x6E05A, size: 0x8, addend: 0x0, symName: '__ZN105_$LT$syn..punctuated..Punctuated$LT$T$C$P$GT$$u20$as$u20$core..iter..traits..collect..Extend$LT$T$GT$$GT$6extend17hb092650c0d42231fE', symObjAddr: 0x23A0, symBinAddr: 0x26F90, symSize: 0x170 }
  - { offsetInCU: 0x7923, offset: 0x6E352, size: 0x8, addend: 0x0, symName: '__ZN105_$LT$syn..punctuated..Punctuated$LT$T$C$P$GT$$u20$as$u20$core..iter..traits..collect..Extend$LT$T$GT$$GT$6extend17hb90c16c0f93d671bE', symObjAddr: 0x2510, symBinAddr: 0x27100, symSize: 0x310 }
  - { offsetInCU: 0x7F8C, offset: 0x6E9BB, size: 0x8, addend: 0x0, symName: '__ZN105_$LT$syn..punctuated..Punctuated$LT$T$C$P$GT$$u20$as$u20$core..iter..traits..collect..Extend$LT$T$GT$$GT$6extend17hbab488f89d1b7250E', symObjAddr: 0x2820, symBinAddr: 0x27410, symSize: 0x310 }
  - { offsetInCU: 0x85F4, offset: 0x6F023, size: 0x8, addend: 0x0, symName: '__ZN105_$LT$syn..punctuated..Punctuated$LT$T$C$P$GT$$u20$as$u20$core..iter..traits..collect..Extend$LT$T$GT$$GT$6extend17hd3693d911782602aE', symObjAddr: 0x2C20, symBinAddr: 0x27720, symSize: 0x170 }
  - { offsetInCU: 0x88EC, offset: 0x6F31B, size: 0x8, addend: 0x0, symName: '__ZN105_$LT$syn..punctuated..Punctuated$LT$T$C$P$GT$$u20$as$u20$core..iter..traits..collect..Extend$LT$T$GT$$GT$6extend17hdd2a55115f14374fE', symObjAddr: 0x2D90, symBinAddr: 0x27890, symSize: 0x310 }
  - { offsetInCU: 0x8F54, offset: 0x6F983, size: 0x8, addend: 0x0, symName: '__ZN105_$LT$syn..punctuated..Punctuated$LT$T$C$P$GT$$u20$as$u20$core..iter..traits..collect..Extend$LT$T$GT$$GT$6extend17he5b543afaeef9ceaE', symObjAddr: 0x30A0, symBinAddr: 0x27BA0, symSize: 0x100 }
  - { offsetInCU: 0x9412, offset: 0x6FE41, size: 0x8, addend: 0x0, symName: '__ZN105_$LT$syn..punctuated..Punctuated$LT$T$C$P$GT$$u20$as$u20$core..iter..traits..collect..Extend$LT$T$GT$$GT$6extend17hf35dbdf49f57922eE', symObjAddr: 0x31A0, symBinAddr: 0x27CA0, symSize: 0x170 }
  - { offsetInCU: 0x970A, offset: 0x70139, size: 0x8, addend: 0x0, symName: '__ZN105_$LT$syn..punctuated..Punctuated$LT$T$C$P$GT$$u20$as$u20$core..iter..traits..collect..Extend$LT$T$GT$$GT$6extend17hfd89d6e4bb644003E', symObjAddr: 0x3310, symBinAddr: 0x27E10, symSize: 0x170 }
  - { offsetInCU: 0x9A85, offset: 0x704B4, size: 0x8, addend: 0x0, symName: '__ZN111_$LT$syn..punctuated..PrivateIter$LT$T$C$P$GT$$u20$as$u20$core..iter..traits..exact_size..ExactSizeIterator$GT$3len17h06c289910fb1e22cE.llvm.8852401028553457079', symObjAddr: 0x3480, symBinAddr: 0x27F80, symSize: 0x30 }
  - { offsetInCU: 0x9B50, offset: 0x7057F, size: 0x8, addend: 0x0, symName: '__ZN111_$LT$syn..punctuated..PrivateIter$LT$T$C$P$GT$$u20$as$u20$core..iter..traits..exact_size..ExactSizeIterator$GT$3len17h77ec68257ebba8dfE.llvm.8852401028553457079', symObjAddr: 0x34B0, symBinAddr: 0x27FB0, symSize: 0x30 }
  - { offsetInCU: 0x9C1A, offset: 0x70649, size: 0x8, addend: 0x0, symName: '__ZN111_$LT$syn..punctuated..PrivateIter$LT$T$C$P$GT$$u20$as$u20$core..iter..traits..exact_size..ExactSizeIterator$GT$3len17ha80fb29c55be192cE.llvm.8852401028553457079', symObjAddr: 0x34E0, symBinAddr: 0x27FE0, symSize: 0x30 }
  - { offsetInCU: 0x9CE5, offset: 0x70714, size: 0x8, addend: 0x0, symName: '__ZN111_$LT$syn..punctuated..PrivateIter$LT$T$C$P$GT$$u20$as$u20$core..iter..traits..exact_size..ExactSizeIterator$GT$3len17hb6ec34efb56fa76dE.llvm.8852401028553457079', symObjAddr: 0x3510, symBinAddr: 0x28010, symSize: 0x30 }
  - { offsetInCU: 0x9EA3, offset: 0x708D2, size: 0x8, addend: 0x0, symName: '__ZN111_$LT$syn..punctuated..Punctuated$LT$T$C$P$GT$$u20$as$u20$core..iter..traits..collect..FromIterator$LT$T$GT$$GT$9from_iter17h7339fd5403533114E', symObjAddr: 0x3540, symBinAddr: 0x28040, symSize: 0x2A0 }
  - { offsetInCU: 0xA2BB, offset: 0x70CEA, size: 0x8, addend: 0x0, symName: '__ZN115_$LT$syn..punctuated..PrivateIter$LT$T$C$P$GT$$u20$as$u20$core..iter..traits..double_ended..DoubleEndedIterator$GT$9next_back17h6e6b9ef96647ca37E.llvm.8852401028553457079', symObjAddr: 0x37E0, symBinAddr: 0x282E0, symSize: 0x30 }
  - { offsetInCU: 0xA561, offset: 0x70F90, size: 0x8, addend: 0x0, symName: '__ZN115_$LT$syn..punctuated..PrivateIter$LT$T$C$P$GT$$u20$as$u20$core..iter..traits..double_ended..DoubleEndedIterator$GT$9next_back17h9eb72ef965c76e35E.llvm.8852401028553457079', symObjAddr: 0x3810, symBinAddr: 0x28310, symSize: 0x30 }
  - { offsetInCU: 0xA807, offset: 0x71236, size: 0x8, addend: 0x0, symName: '__ZN115_$LT$syn..punctuated..PrivateIter$LT$T$C$P$GT$$u20$as$u20$core..iter..traits..double_ended..DoubleEndedIterator$GT$9next_back17hdc27cc7ae226e579E.llvm.8852401028553457079', symObjAddr: 0x3840, symBinAddr: 0x28340, symSize: 0x30 }
  - { offsetInCU: 0xAAAD, offset: 0x714DC, size: 0x8, addend: 0x0, symName: '__ZN115_$LT$syn..punctuated..PrivateIter$LT$T$C$P$GT$$u20$as$u20$core..iter..traits..double_ended..DoubleEndedIterator$GT$9next_back17hebc0a0d921574e76E.llvm.8852401028553457079', symObjAddr: 0x3870, symBinAddr: 0x28370, symSize: 0x30 }
  - { offsetInCU: 0xB2BA, offset: 0x71CE9, size: 0x8, addend: 0x0, symName: '__ZN57_$LT$I$u20$as$u20$syn..punctuated..IterTrait$LT$T$GT$$GT$9clone_box17h302eea82629522e8E.llvm.8852401028553457079', symObjAddr: 0xC860, symBinAddr: 0x30E30, symSize: 0x60 }
  - { offsetInCU: 0xB4C7, offset: 0x71EF6, size: 0x8, addend: 0x0, symName: '__ZN57_$LT$I$u20$as$u20$syn..punctuated..IterTrait$LT$T$GT$$GT$9clone_box17h37a6f6d80b9b57e1E.llvm.8852401028553457079', symObjAddr: 0xC8C0, symBinAddr: 0x30E90, symSize: 0x60 }
  - { offsetInCU: 0xB6D4, offset: 0x72103, size: 0x8, addend: 0x0, symName: '__ZN57_$LT$I$u20$as$u20$syn..punctuated..IterTrait$LT$T$GT$$GT$9clone_box17h3ed1f9de69c69e6fE.llvm.8852401028553457079', symObjAddr: 0xC920, symBinAddr: 0x30EF0, symSize: 0x60 }
  - { offsetInCU: 0xB8E1, offset: 0x72310, size: 0x8, addend: 0x0, symName: '__ZN57_$LT$I$u20$as$u20$syn..punctuated..IterTrait$LT$T$GT$$GT$9clone_box17hed60fea5203d7553E.llvm.8852401028553457079', symObjAddr: 0xC980, symBinAddr: 0x30F50, symSize: 0x60 }
  - { offsetInCU: 0x17135, offset: 0x7DB64, size: 0x8, addend: 0x0, symName: '__ZN4core3ptr100drop_in_place$LT$core..option..Option$LT$alloc..boxed..Box$LT$syn..generics..LifetimeDef$GT$$GT$$GT$17h82b6930fbf453d3cE.llvm.8852401028553457079', symObjAddr: 0x43B0, symBinAddr: 0x28980, symSize: 0x50 }
  - { offsetInCU: 0x172B7, offset: 0x7DCE6, size: 0x8, addend: 0x0, symName: '__ZN4core3ptr100drop_in_place$LT$core..option..Option$LT$alloc..boxed..Box$LT$syn..path..GenericArgument$GT$$GT$$GT$17hdec1aac3c1c32b1aE.llvm.8852401028553457079', symObjAddr: 0x4400, symBinAddr: 0x289D0, symSize: 0x50 }
  - { offsetInCU: 0x17446, offset: 0x7DE75, size: 0x8, addend: 0x0, symName: '__ZN4core3ptr101drop_in_place$LT$alloc..vec..Vec$LT$$LP$syn..generics..WherePredicate$C$syn..token..Comma$RP$$GT$$GT$17h58d2da3339bd0fbfE.llvm.8852401028553457079', symObjAddr: 0x4450, symBinAddr: 0x28A20, symSize: 0xD0 }
  - { offsetInCU: 0x1776C, offset: 0x7E19B, size: 0x8, addend: 0x0, symName: '__ZN4core3ptr101drop_in_place$LT$core..option..Option$LT$alloc..boxed..Box$LT$syn..generics..GenericParam$GT$$GT$$GT$17he31815cd43ed0b1bE.llvm.8852401028553457079', symObjAddr: 0x4520, symBinAddr: 0x28AF0, symSize: 0x50 }
  - { offsetInCU: 0x178EE, offset: 0x7E31D, size: 0x8, addend: 0x0, symName: '__ZN4core3ptr103drop_in_place$LT$core..option..Option$LT$alloc..boxed..Box$LT$syn..generics..WherePredicate$GT$$GT$$GT$17h3290cb3de36508f1E.llvm.8852401028553457079', symObjAddr: 0x4570, symBinAddr: 0x28B40, symSize: 0x50 }
  - { offsetInCU: 0x17AC1, offset: 0x7E4F0, size: 0x8, addend: 0x0, symName: '__ZN4core3ptr103drop_in_place$LT$syn..punctuated..Punctuated$LT$syn..generics..GenericParam$C$syn..token..Comma$GT$$GT$17hee00b3f5faf5db24E.llvm.8852401028553457079', symObjAddr: 0x45C0, symBinAddr: 0x28B90, symSize: 0xB0 }
  - { offsetInCU: 0x1803F, offset: 0x7EA6E, size: 0x8, addend: 0x0, symName: '__ZN4core3ptr103drop_in_place$LT$syn..punctuated..Punctuated$LT$syn..generics..TypeParamBound$C$syn..token..Add$GT$$GT$17h283d6fefb1c71cfaE', symObjAddr: 0x4670, symBinAddr: 0x28C40, symSize: 0x200 }
  - { offsetInCU: 0x18930, offset: 0x7F35F, size: 0x8, addend: 0x0, symName: '__ZN4core3ptr108drop_in_place$LT$syn..punctuated..Punctuated$LT$syn..expr..GenericMethodArgument$C$syn..token..Comma$GT$$GT$17h2aec9c03103ab694E', symObjAddr: 0x4870, symBinAddr: 0x28E40, symSize: 0x150 }
  - { offsetInCU: 0x18DCF, offset: 0x7F7FE, size: 0x8, addend: 0x0, symName: '__ZN4core3ptr182drop_in_place$LT$core..iter..adapters..map..Map$LT$syn..punctuated..Iter$LT$syn..generics..GenericParam$GT$$C$derivative..bound..without_defaults..$u7b$$u7b$closure$u7d$$u7d$$GT$$GT$17h0a60dfba1de8844bE.llvm.8852401028553457079', symObjAddr: 0x49C0, symBinAddr: 0x28F90, symSize: 0x0 }
  - { offsetInCU: 0x18FC4, offset: 0x7F9F3, size: 0x8, addend: 0x0, symName: '__ZN4core3ptr34drop_in_place$LT$syn..lit..Lit$GT$17ha842b5e81e8582b3E.llvm.8852401028553457079', symObjAddr: 0x49F0, symBinAddr: 0x28FC0, symSize: 0x120 }
  - { offsetInCU: 0x194DE, offset: 0x7FF0D, size: 0x8, addend: 0x0, symName: '__ZN4core3ptr34drop_in_place$LT$syn..pat..Pat$GT$17h0621b062377aebcbE', symObjAddr: 0x4B10, symBinAddr: 0x290E0, symSize: 0x1050 }
  - { offsetInCU: 0x1CE9D, offset: 0x838CC, size: 0x8, addend: 0x0, symName: '__ZN4core3ptr34drop_in_place$LT$syn..ty..Type$GT$17h3d55b11c281dc967E.llvm.8852401028553457079', symObjAddr: 0x5B60, symBinAddr: 0x2A130, symSize: 0x620 }
  - { offsetInCU: 0x1EAD5, offset: 0x85504, size: 0x8, addend: 0x0, symName: '__ZN4core3ptr36drop_in_place$LT$syn..expr..Expr$GT$17h68b218bdcee4a3c7E', symObjAddr: 0x6180, symBinAddr: 0x2A750, symSize: 0x31D0 }
  - { offsetInCU: 0x2905E, offset: 0x8FA8D, size: 0x8, addend: 0x0, symName: '__ZN4core3ptr36drop_in_place$LT$syn..mac..Macro$GT$17h158bcec479486e24E', symObjAddr: 0x9350, symBinAddr: 0x2D920, symSize: 0xE0 }
  - { offsetInCU: 0x2938B, offset: 0x8FDBA, size: 0x8, addend: 0x0, symName: '__ZN4core3ptr36drop_in_place$LT$syn..path..Path$GT$17hdc92c6b0523379a3E.llvm.8852401028553457079', symObjAddr: 0x9430, symBinAddr: 0x2DA00, symSize: 0x120 }
  - { offsetInCU: 0x297D4, offset: 0x90203, size: 0x8, addend: 0x0, symName: '__ZN4core3ptr37drop_in_place$LT$syn..stmt..Block$GT$17hfffa15f159ccade9E', symObjAddr: 0x9550, symBinAddr: 0x2DB20, symSize: 0xD0 }
  - { offsetInCU: 0x29AAB, offset: 0x904DA, size: 0x8, addend: 0x0, symName: '__ZN4core3ptr38drop_in_place$LT$syn..expr..Member$GT$17h24b2f28a51f276afE', symObjAddr: 0x9620, symBinAddr: 0x2DBF0, symSize: 0x30 }
  - { offsetInCU: 0x29BA7, offset: 0x905D6, size: 0x8, addend: 0x0, symName: '__ZN4core3ptr39drop_in_place$LT$proc_macro2..Ident$GT$17he0509ca0076c6db2E', symObjAddr: 0x9650, symBinAddr: 0x2DC20, symSize: 0x30 }
  - { offsetInCU: 0x29C84, offset: 0x906B3, size: 0x8, addend: 0x0, symName: '__ZN4core3ptr39drop_in_place$LT$syn..pat..PatTuple$GT$17ha1d19a764bcc1cb3E', symObjAddr: 0x9680, symBinAddr: 0x2DC50, symSize: 0x100 }
  - { offsetInCU: 0x29FEA, offset: 0x90A19, size: 0x8, addend: 0x0, symName: '__ZN4core3ptr40drop_in_place$LT$syn..attr..MetaList$GT$17h383fdef68c687f54E.llvm.8852401028553457079', symObjAddr: 0x9780, symBinAddr: 0x2DD50, symSize: 0x120 }
  - { offsetInCU: 0x2A30A, offset: 0x90D39, size: 0x8, addend: 0x0, symName: '__ZN4core3ptr40drop_in_place$LT$syn..ty..ReturnType$GT$17h2d60777f70ee0d22E', symObjAddr: 0x98A0, symBinAddr: 0x2DE70, symSize: 0x50 }
  - { offsetInCU: 0x2A4D7, offset: 0x90F06, size: 0x8, addend: 0x0, symName: '__ZN4core3ptr42drop_in_place$LT$syn..attr..NestedMeta$GT$17h76ee2438ec543c86E.llvm.8852401028553457079', symObjAddr: 0x98F0, symBinAddr: 0x2DEC0, symSize: 0x1A0 }
  - { offsetInCU: 0x2A8F6, offset: 0x91325, size: 0x8, addend: 0x0, symName: '__ZN4core3ptr43drop_in_place$LT$syn..path..PathSegment$GT$17h9147feed36ce0317E.llvm.8852401028553457079', symObjAddr: 0x9A90, symBinAddr: 0x2E060, symSize: 0x170 }
  - { offsetInCU: 0x2AE56, offset: 0x91885, size: 0x8, addend: 0x0, symName: '__ZN4core3ptr44drop_in_place$LT$syn..lifetime..Lifetime$GT$17he83b0b529a581d24E', symObjAddr: 0x9C00, symBinAddr: 0x2E1D0, symSize: 0x30 }
  - { offsetInCU: 0x2B088, offset: 0x91AB7, size: 0x8, addend: 0x0, symName: '__ZN4core3ptr45drop_in_place$LT$proc_macro2..TokenStream$GT$17h7e9a94df6c9afdc7E', symObjAddr: 0x9C30, symBinAddr: 0x2E200, symSize: 0x140 }
  - { offsetInCU: 0x2B4E4, offset: 0x91F13, size: 0x8, addend: 0x0, symName: '__ZN4core3ptr47drop_in_place$LT$syn..generics..LifetimeDef$GT$17h8d3cfa3ea57a860bE.llvm.8852401028553457079', symObjAddr: 0x9D70, symBinAddr: 0x2E340, symSize: 0x120 }
  - { offsetInCU: 0x2B93F, offset: 0x9236E, size: 0x8, addend: 0x0, symName: '__ZN4core3ptr47drop_in_place$LT$syn..path..GenericArgument$GT$17hc55a20af1acae48eE.llvm.8852401028553457079', symObjAddr: 0x9E90, symBinAddr: 0x2E460, symSize: 0x110 }
  - { offsetInCU: 0x2BCE9, offset: 0x92718, size: 0x8, addend: 0x0, symName: '__ZN4core3ptr48drop_in_place$LT$syn..generics..GenericParam$GT$17h8f5f8652e56a420dE.llvm.8852401028553457079', symObjAddr: 0x9FA0, symBinAddr: 0x2E570, symSize: 0x300 }
  - { offsetInCU: 0x2C50D, offset: 0x92F3C, size: 0x8, addend: 0x0, symName: '__ZN4core3ptr50drop_in_place$LT$syn..generics..TypeParamBound$GT$17hdee7562eebe04f7aE.llvm.8852401028553457079', symObjAddr: 0xA2A0, symBinAddr: 0x2E870, symSize: 0x70 }
  - { offsetInCU: 0x2C69C, offset: 0x930CB, size: 0x8, addend: 0x0, symName: '__ZN4core3ptr50drop_in_place$LT$syn..generics..WherePredicate$GT$17h5f6316e378219a95E.llvm.8852401028553457079', symObjAddr: 0xA310, symBinAddr: 0x2E8E0, symSize: 0x100 }
  - { offsetInCU: 0x2C824, offset: 0x93253, size: 0x8, addend: 0x0, symName: '__ZN4core3ptr589drop_in_place$LT$core..iter..adapters..flatten..FlatMap$LT$core..iter..adapters..flatten..FlatMap$LT$core..slice..iter..Iter$LT$$RF$derivative..ast..Field$GT$$C$core..option..Option$LT$$RF$$u5b$syn..generics..WherePredicate$u5d$$GT$$C$derivative..bound..with_where_predicates_from_fields$LT$derivative..hash..derive..$u7b$$u7b$closure$u7d$$u7d$$GT$..$u7b$$u7b$closure$u7d$$u7d$$GT$$C$alloc..vec..Vec$LT$syn..generics..WherePredicate$GT$$C$derivative..bound..with_where_predicates_from_fields$LT$derivative..hash..derive..$u7b$$u7b$closure$u7d$$u7d$$GT$..$u7b$$u7b$closure$u7d$$u7d$$GT$$GT$17h8bf2bd4299f28376E', symObjAddr: 0xA410, symBinAddr: 0x2E9E0, symSize: 0x60 }
  - { offsetInCU: 0x2C8F6, offset: 0x93325, size: 0x8, addend: 0x0, symName: '__ZN4core3ptr58drop_in_place$LT$alloc..vec..Vec$LT$syn..expr..Arm$GT$$GT$17hdd3822aa758753c7E', symObjAddr: 0xA470, symBinAddr: 0x2EA40, symSize: 0xD0 }
  - { offsetInCU: 0x2CBB6, offset: 0x935E5, size: 0x8, addend: 0x0, symName: '__ZN4core3ptr59drop_in_place$LT$alloc..boxed..Box$LT$syn..pat..Pat$GT$$GT$17h48ec1dbe47a00c61E', symObjAddr: 0xA540, symBinAddr: 0x2EB10, symSize: 0x50 }
  - { offsetInCU: 0x2CD0F, offset: 0x9373E, size: 0x8, addend: 0x0, symName: '__ZN4core3ptr59drop_in_place$LT$alloc..boxed..Box$LT$syn..ty..Type$GT$$GT$17h454cab832bb38812E.llvm.8852401028553457079', symObjAddr: 0xA590, symBinAddr: 0x2EB60, symSize: 0x50 }
  - { offsetInCU: 0x2CE68, offset: 0x93897, size: 0x8, addend: 0x0, symName: '__ZN4core3ptr61drop_in_place$LT$alloc..boxed..Box$LT$syn..expr..Expr$GT$$GT$17hbe6f5e1c721a6cd9E', symObjAddr: 0xA5E0, symBinAddr: 0x2EBB0, symSize: 0x50 }
  - { offsetInCU: 0x2CFC1, offset: 0x939F0, size: 0x8, addend: 0x0, symName: '__ZN4core3ptr61drop_in_place$LT$syn..path..ParenthesizedGenericArguments$GT$17h2d220a34adaf921bE.llvm.8852401028553457079', symObjAddr: 0xA630, symBinAddr: 0x2EC00, symSize: 0x170 }
  - { offsetInCU: 0x2D5CA, offset: 0x93FF9, size: 0x8, addend: 0x0, symName: '__ZN4core3ptr63drop_in_place$LT$alloc..boxed..Box$LT$syn..lit..LitRepr$GT$$GT$17h44c55dd7d5499a10E', symObjAddr: 0xA7A0, symBinAddr: 0x2ED70, symSize: 0x60 }
  - { offsetInCU: 0x2D8D1, offset: 0x94300, size: 0x8, addend: 0x0, symName: '__ZN4core3ptr64drop_in_place$LT$alloc..boxed..Box$LT$syn..pat..FieldPat$GT$$GT$17h8a4c0395922411f9E', symObjAddr: 0xA800, symBinAddr: 0x2EDD0, symSize: 0x180 }
  - { offsetInCU: 0x2DFEE, offset: 0x94A1D, size: 0x8, addend: 0x0, symName: '__ZN4core3ptr64drop_in_place$LT$alloc..boxed..Box$LT$syn..ty..BareFnArg$GT$$GT$17h145502f35dc7a34dE', symObjAddr: 0xA980, symBinAddr: 0x2EF50, symSize: 0x160 }
  - { offsetInCU: 0x2E584, offset: 0x94FB3, size: 0x8, addend: 0x0, symName: '__ZN4core3ptr65drop_in_place$LT$alloc..vec..Vec$LT$proc_macro..TokenTree$GT$$GT$17h27434ef986fc0c8fE', symObjAddr: 0xAAE0, symBinAddr: 0x2F0B0, symSize: 0x110 }
  - { offsetInCU: 0x2E99B, offset: 0x953CA, size: 0x8, addend: 0x0, symName: '__ZN4core3ptr65drop_in_place$LT$alloc..vec..Vec$LT$syn..attr..NestedMeta$GT$$GT$17h5f580779c5afec61E.llvm.8852401028553457079', symObjAddr: 0xABF0, symBinAddr: 0x2F1C0, symSize: 0xC0 }
  - { offsetInCU: 0x2EC6C, offset: 0x9569B, size: 0x8, addend: 0x0, symName: '__ZN4core3ptr65drop_in_place$LT$core..option..Option$LT$syn..expr..Label$GT$$GT$17hf88e6caa939fd4b3E', symObjAddr: 0xACB0, symBinAddr: 0x2F280, symSize: 0x30 }
  - { offsetInCU: 0x2EDA6, offset: 0x957D5, size: 0x8, addend: 0x0, symName: '__ZN4core3ptr66drop_in_place$LT$core..option..Option$LT$syn..ty..Variadic$GT$$GT$17hd53494a084af7b6fE', symObjAddr: 0xACE0, symBinAddr: 0x2F2B0, symSize: 0xF0 }
  - { offsetInCU: 0x2F0D0, offset: 0x95AFF, size: 0x8, addend: 0x0, symName: '__ZN4core3ptr67drop_in_place$LT$alloc..boxed..Box$LT$syn..expr..FieldValue$GT$$GT$17hee600943c39f373eE', symObjAddr: 0xADD0, symBinAddr: 0x2F3A0, symSize: 0x160 }
  - { offsetInCU: 0x2F646, offset: 0x96075, size: 0x8, addend: 0x0, symName: '__ZN4core3ptr72drop_in_place$LT$core..option..Option$LT$syn..lifetime..Lifetime$GT$$GT$17h496ffbcd02d279ceE', symObjAddr: 0xAF30, symBinAddr: 0x2F500, symSize: 0x30 }
  - { offsetInCU: 0x2F780, offset: 0x961AF, size: 0x8, addend: 0x0, symName: '__ZN4core3ptr73drop_in_place$LT$alloc..vec..Vec$LT$syn..generics..WherePredicate$GT$$GT$17h6e47b26cbb7e8828E.llvm.8852401028553457079', symObjAddr: 0xAF60, symBinAddr: 0x2F530, symSize: 0xD0 }
  - { offsetInCU: 0x2FA53, offset: 0x96482, size: 0x8, addend: 0x0, symName: '__ZN4core3ptr75drop_in_place$LT$alloc..boxed..Box$LT$syn..generics..TypeParamBound$GT$$GT$17h0d539f38c26df380E', symObjAddr: 0xB030, symBinAddr: 0x2F600, symSize: 0x140 }
  - { offsetInCU: 0x2FFAE, offset: 0x969DD, size: 0x8, addend: 0x0, symName: '__ZN4core3ptr76drop_in_place$LT$$LP$syn..generics..TypeParamBound$C$syn..token..Add$RP$$GT$17hf913db4357631e83E.llvm.8852401028553457079', symObjAddr: 0xB170, symBinAddr: 0x2F740, symSize: 0x70 }
  - { offsetInCU: 0x3010A, offset: 0x96B39, size: 0x8, addend: 0x0, symName: '__ZN4core3ptr78drop_in_place$LT$alloc..boxed..Box$LT$syn..expr..GenericMethodArgument$GT$$GT$17h2e8ab754b2d35f4bE', symObjAddr: 0xB1E0, symBinAddr: 0x2F7B0, symSize: 0x60 }
  - { offsetInCU: 0x3031B, offset: 0x96D4A, size: 0x8, addend: 0x0, symName: '__ZN4core3ptr78drop_in_place$LT$core..option..Option$LT$syn..generics..BoundLifetimes$GT$$GT$17he70d317fbad5b599E.llvm.8852401028553457079', symObjAddr: 0xB240, symBinAddr: 0x2F810, symSize: 0xC0 }
  - { offsetInCU: 0x30751, offset: 0x97180, size: 0x8, addend: 0x0, symName: '__ZN4core3ptr86drop_in_place$LT$syn..punctuated..Punctuated$LT$syn..pat..Pat$C$syn..token..Or$GT$$GT$17h2004905335266fbeE', symObjAddr: 0xB300, symBinAddr: 0x2F8D0, symSize: 0x120 }
  - { offsetInCU: 0x30BCC, offset: 0x975FB, size: 0x8, addend: 0x0, symName: '__ZN4core3ptr87drop_in_place$LT$core..option..Option$LT$alloc..boxed..Box$LT$syn..pat..Pat$GT$$GT$$GT$17h9151a9d5e0aa7e1eE', symObjAddr: 0xB420, symBinAddr: 0x2F9F0, symSize: 0x50 }
  - { offsetInCU: 0x30D3C, offset: 0x9776B, size: 0x8, addend: 0x0, symName: '__ZN4core3ptr87drop_in_place$LT$core..option..Option$LT$alloc..boxed..Box$LT$syn..ty..Type$GT$$GT$$GT$17hd3cb46ad48d34655E.llvm.8852401028553457079', symObjAddr: 0xB470, symBinAddr: 0x2FA40, symSize: 0x50 }
  - { offsetInCU: 0x30EAC, offset: 0x978DB, size: 0x8, addend: 0x0, symName: '__ZN4core3ptr89drop_in_place$LT$core..option..Option$LT$alloc..boxed..Box$LT$syn..expr..Expr$GT$$GT$$GT$17h9693feaa41001291E', symObjAddr: 0xB4C0, symBinAddr: 0x2FA90, symSize: 0x50 }
  - { offsetInCU: 0x3105A, offset: 0x97A89, size: 0x8, addend: 0x0, symName: '__ZN4core3ptr89drop_in_place$LT$syn..punctuated..Punctuated$LT$syn..pat..Pat$C$syn..token..Comma$GT$$GT$17hc735db3a40e860f2E', symObjAddr: 0xB510, symBinAddr: 0x2FAE0, symSize: 0x120 }
  - { offsetInCU: 0x3152A, offset: 0x97F59, size: 0x8, addend: 0x0, symName: '__ZN4core3ptr91drop_in_place$LT$syn..punctuated..Punctuated$LT$syn..expr..Expr$C$syn..token..Comma$GT$$GT$17h4abaeb5cfb586772E', symObjAddr: 0xB630, symBinAddr: 0x2FC00, symSize: 0x120 }
  - { offsetInCU: 0x319B8, offset: 0x983E7, size: 0x8, addend: 0x0, symName: '__ZN4core3ptr93drop_in_place$LT$alloc..vec..Vec$LT$$LP$syn..attr..NestedMeta$C$syn..token..Comma$RP$$GT$$GT$17h7470b618f9583b46E.llvm.8852401028553457079', symObjAddr: 0xB750, symBinAddr: 0x2FD20, symSize: 0xF0 }
  - { offsetInCU: 0x31CA8, offset: 0x986D7, size: 0x8, addend: 0x0, symName: '__ZN4core3ptr94drop_in_place$LT$syn..punctuated..Punctuated$LT$syn..pat..FieldPat$C$syn..token..Comma$GT$$GT$17hf9927b8b52e25a50E', symObjAddr: 0xB840, symBinAddr: 0x2FE10, symSize: 0xF0 }
  - { offsetInCU: 0x31FA7, offset: 0x989D6, size: 0x8, addend: 0x0, symName: '__ZN4core3ptr94drop_in_place$LT$syn..punctuated..Punctuated$LT$syn..ty..BareFnArg$C$syn..token..Comma$GT$$GT$17h577c8aa515f26074E', symObjAddr: 0xB930, symBinAddr: 0x2FF00, symSize: 0xF0 }
  - { offsetInCU: 0x322E2, offset: 0x98D11, size: 0x8, addend: 0x0, symName: '__ZN4core3ptr95drop_in_place$LT$core..option..Option$LT$alloc..boxed..Box$LT$syn..attr..NestedMeta$GT$$GT$$GT$17h275352fed8fdd97aE.llvm.8852401028553457079', symObjAddr: 0xBA20, symBinAddr: 0x2FFF0, symSize: 0xC0 }
  - { offsetInCU: 0x324B6, offset: 0x98EE5, size: 0x8, addend: 0x0, symName: '__ZN4core3ptr96drop_in_place$LT$core..option..Option$LT$alloc..boxed..Box$LT$syn..path..PathSegment$GT$$GT$$GT$17hb35e105c29269971E.llvm.8852401028553457079', symObjAddr: 0xBAE0, symBinAddr: 0x300B0, symSize: 0x180 }
  - { offsetInCU: 0x32B92, offset: 0x995C1, size: 0x8, addend: 0x0, symName: '__ZN4core3ptr97drop_in_place$LT$syn..punctuated..Punctuated$LT$syn..attr..NestedMeta$C$syn..token..Comma$GT$$GT$17h80d0bc3906f4abdeE.llvm.8852401028553457079', symObjAddr: 0xBC60, symBinAddr: 0x30230, symSize: 0x140 }
  - { offsetInCU: 0x32FF2, offset: 0x99A21, size: 0x8, addend: 0x0, symName: '__ZN4core3ptr97drop_in_place$LT$syn..punctuated..Punctuated$LT$syn..expr..FieldValue$C$syn..token..Comma$GT$$GT$17h15366382fde2131eE', symObjAddr: 0xBDA0, symBinAddr: 0x30370, symSize: 0xF0 }
  - { offsetInCU: 0x3336B, offset: 0x99D9A, size: 0x8, addend: 0x0, symName: '__ZN4core3ptr97drop_in_place$LT$syn..punctuated..Punctuated$LT$syn..lifetime..Lifetime$C$syn..token..Add$GT$$GT$17hd50f0bf96210475aE', symObjAddr: 0xBE90, symBinAddr: 0x30460, symSize: 0xD0 }
  - { offsetInCU: 0x3E854, offset: 0xA5283, size: 0x8, addend: 0x0, symName: __ZN4core4iter6traits8iterator8Iterator10advance_by17h0bb93bb9a1508518E.llvm.8852401028553457079, symObjAddr: 0xC490, symBinAddr: 0x30A60, symSize: 0x70 }
  - { offsetInCU: 0x3EB55, offset: 0xA5584, size: 0x8, addend: 0x0, symName: __ZN4core4iter6traits8iterator8Iterator10advance_by17h238cff54d1a41a66E.llvm.8852401028553457079, symObjAddr: 0xC500, symBinAddr: 0x30AD0, symSize: 0x60 }
  - { offsetInCU: 0x3EE56, offset: 0xA5885, size: 0x8, addend: 0x0, symName: __ZN4core4iter6traits8iterator8Iterator10advance_by17h3198d1114cfe21ecE.llvm.8852401028553457079, symObjAddr: 0xC560, symBinAddr: 0x30B30, symSize: 0x70 }
  - { offsetInCU: 0x3F157, offset: 0xA5B86, size: 0x8, addend: 0x0, symName: __ZN4core4iter6traits8iterator8Iterator10advance_by17h807d0f6c19d4a039E.llvm.8852401028553457079, symObjAddr: 0xC5D0, symBinAddr: 0x30BA0, symSize: 0x70 }
  - { offsetInCU: 0x3F4A9, offset: 0xA5ED8, size: 0x8, addend: 0x0, symName: __ZN4core4iter6traits8iterator8Iterator3nth17h2f9cc30ce725af06E.llvm.8852401028553457079, symObjAddr: 0xC640, symBinAddr: 0x30C10, symSize: 0x80 }
  - { offsetInCU: 0x3FA94, offset: 0xA64C3, size: 0x8, addend: 0x0, symName: __ZN4core4iter6traits8iterator8Iterator3nth17h45c46d31fb21dc7fE.llvm.8852401028553457079, symObjAddr: 0xC6C0, symBinAddr: 0x30C90, symSize: 0x80 }
  - { offsetInCU: 0x4007F, offset: 0xA6AAE, size: 0x8, addend: 0x0, symName: __ZN4core4iter6traits8iterator8Iterator3nth17h746d9452e80b39caE.llvm.8852401028553457079, symObjAddr: 0xC740, symBinAddr: 0x30D10, symSize: 0x80 }
  - { offsetInCU: 0x4066A, offset: 0xA7099, size: 0x8, addend: 0x0, symName: __ZN4core4iter6traits8iterator8Iterator3nth17he94ab80b51839e57E.llvm.8852401028553457079, symObjAddr: 0xC7C0, symBinAddr: 0x30D90, symSize: 0x80 }
  - { offsetInCU: 0x40C04, offset: 0xA7633, size: 0x8, addend: 0x0, symName: __ZN4core4iter6traits8iterator8Iterator9size_hint17h004389924c09755bE.llvm.8852401028553457079, symObjAddr: 0xC840, symBinAddr: 0x30E10, symSize: 0x0 }
  - { offsetInCU: 0x40CA8, offset: 0xA76D7, size: 0x8, addend: 0x0, symName: __ZN4core4iter6traits10exact_size17ExactSizeIterator8is_empty17h0f88b7ef12697245E.llvm.8852401028553457079, symObjAddr: 0xBF60, symBinAddr: 0x30530, symSize: 0x30 }
  - { offsetInCU: 0x40E7A, offset: 0xA78A9, size: 0x8, addend: 0x0, symName: __ZN4core4iter6traits10exact_size17ExactSizeIterator8is_empty17h4c64a7fa7536c5e1E.llvm.8852401028553457079, symObjAddr: 0xBF90, symBinAddr: 0x30560, symSize: 0x30 }
  - { offsetInCU: 0x4104B, offset: 0xA7A7A, size: 0x8, addend: 0x0, symName: __ZN4core4iter6traits10exact_size17ExactSizeIterator8is_empty17h84cccc7bf7315e1eE.llvm.8852401028553457079, symObjAddr: 0xBFC0, symBinAddr: 0x30590, symSize: 0x30 }
  - { offsetInCU: 0x4121D, offset: 0xA7C4C, size: 0x8, addend: 0x0, symName: __ZN4core4iter6traits10exact_size17ExactSizeIterator8is_empty17hc44752722a7117afE.llvm.8852401028553457079, symObjAddr: 0xBFF0, symBinAddr: 0x305C0, symSize: 0x30 }
  - { offsetInCU: 0x41395, offset: 0xA7DC4, size: 0x8, addend: 0x0, symName: __ZN4core4iter6traits12double_ended19DoubleEndedIterator15advance_back_by17h676cebfbf6865a8aE.llvm.8852401028553457079, symObjAddr: 0xC020, symBinAddr: 0x305F0, symSize: 0x80 }
  - { offsetInCU: 0x415AE, offset: 0xA7FDD, size: 0x8, addend: 0x0, symName: __ZN4core4iter6traits12double_ended19DoubleEndedIterator15advance_back_by17ha18bb52bb743d27eE.llvm.8852401028553457079, symObjAddr: 0xC0A0, symBinAddr: 0x30670, symSize: 0x80 }
  - { offsetInCU: 0x417C7, offset: 0xA81F6, size: 0x8, addend: 0x0, symName: __ZN4core4iter6traits12double_ended19DoubleEndedIterator15advance_back_by17he1716090cdeec000E.llvm.8852401028553457079, symObjAddr: 0xC120, symBinAddr: 0x306F0, symSize: 0x80 }
  - { offsetInCU: 0x419E0, offset: 0xA840F, size: 0x8, addend: 0x0, symName: __ZN4core4iter6traits12double_ended19DoubleEndedIterator15advance_back_by17hfb6d001b1347d1cdE.llvm.8852401028553457079, symObjAddr: 0xC1A0, symBinAddr: 0x30770, symSize: 0x70 }
  - { offsetInCU: 0x41C45, offset: 0xA8674, size: 0x8, addend: 0x0, symName: __ZN4core4iter6traits12double_ended19DoubleEndedIterator8nth_back17h70c2637304ea73ddE.llvm.8852401028553457079, symObjAddr: 0xC210, symBinAddr: 0x307E0, symSize: 0xA0 }
  - { offsetInCU: 0x4211D, offset: 0xA8B4C, size: 0x8, addend: 0x0, symName: __ZN4core4iter6traits12double_ended19DoubleEndedIterator8nth_back17h907b35009c452d67E.llvm.8852401028553457079, symObjAddr: 0xC2B0, symBinAddr: 0x30880, symSize: 0xA0 }
  - { offsetInCU: 0x425F5, offset: 0xA9024, size: 0x8, addend: 0x0, symName: __ZN4core4iter6traits12double_ended19DoubleEndedIterator8nth_back17hb945bfa6c78ccff3E.llvm.8852401028553457079, symObjAddr: 0xC350, symBinAddr: 0x30920, symSize: 0xA0 }
  - { offsetInCU: 0x42ACD, offset: 0xA94FC, size: 0x8, addend: 0x0, symName: __ZN4core4iter6traits12double_ended19DoubleEndedIterator8nth_back17hfaf4fa850cc07b64E.llvm.8852401028553457079, symObjAddr: 0xC3F0, symBinAddr: 0x309C0, symSize: 0xA0 }
  - { offsetInCU: 0x43B7A, offset: 0xAA5A9, size: 0x8, addend: 0x0, symName: _anon.277a399a9e2cb59c822d5d0bf1a61af3.6.llvm.8852401028553457079, symObjAddr: 0xEAF0, symBinAddr: 0x3103F8, symSize: 0x0 }
  - { offsetInCU: 0x43C4F, offset: 0xAA67E, size: 0x8, addend: 0x0, symName: _anon.277a399a9e2cb59c822d5d0bf1a61af3.8.llvm.8852401028553457079, symObjAddr: 0xEBA8, symBinAddr: 0x3104B0, symSize: 0x0 }
  - { offsetInCU: 0x43D5C, offset: 0xAA78B, size: 0x8, addend: 0x0, symName: _anon.277a399a9e2cb59c822d5d0bf1a61af3.10.llvm.8852401028553457079, symObjAddr: 0xEC60, symBinAddr: 0x310568, symSize: 0x0 }
  - { offsetInCU: 0x470E2, offset: 0xADB11, size: 0x8, addend: 0x0, symName: '__ZN3syn10punctuated23Punctuated$LT$T$C$P$GT$10push_value17hb377784afd33d0e3E', symObjAddr: 0x38A0, symBinAddr: 0x283A0, symSize: 0xD0 }
  - { offsetInCU: 0x4776A, offset: 0xAE199, size: 0x8, addend: 0x0, symName: '__ZN3syn10punctuated23Punctuated$LT$T$C$P$GT$4push17h613ad5e7b542559fE.llvm.8852401028553457079', symObjAddr: 0x3B70, symBinAddr: 0x28470, symSize: 0x1C0 }
  - { offsetInCU: 0x47E4B, offset: 0xAE87A, size: 0x8, addend: 0x0, symName: '__ZN3syn10punctuated23Punctuated$LT$T$C$P$GT$4push17hbd6bcbdfb7c82c6dE', symObjAddr: 0x3D30, symBinAddr: 0x28630, symSize: 0x1C0 }
  - { offsetInCU: 0x48560, offset: 0xAEF8F, size: 0x8, addend: 0x0, symName: '__ZN3syn10punctuated23Punctuated$LT$T$C$P$GT$4push17hdf24cde71d58208cE', symObjAddr: 0x3EF0, symBinAddr: 0x287F0, symSize: 0x190 }
  - { offsetInCU: 0x1E, offset: 0xB7374, size: 0x8, addend: 0x0, symName: '__ZN4core3ptr100drop_in_place$LT$core..option..Option$LT$alloc..boxed..Box$LT$syn..generics..LifetimeDef$GT$$GT$$GT$17h82b6930fbf453d3cE', symObjAddr: 0x0, symBinAddr: 0x30FB0, symSize: 0x150 }
  - { offsetInCU: 0xBE, offset: 0xB7414, size: 0x8, addend: 0x0, symName: '__ZN58_$LT$alloc..string..String$u20$as$u20$core..fmt..Write$GT$10write_char17h04bc467bd68a934bE', symObjAddr: 0x7E90, symBinAddr: 0x38E40, symSize: 0x140 }
  - { offsetInCU: 0x4C3, offset: 0xB7819, size: 0x8, addend: 0x0, symName: '__ZN58_$LT$alloc..string..String$u20$as$u20$core..fmt..Write$GT$9write_str17h46a93205c3443fbaE', symObjAddr: 0x7FD0, symBinAddr: 0x38F80, symSize: 0x60 }
  - { offsetInCU: 0x988, offset: 0xB7CDE, size: 0x8, addend: 0x0, symName: '__ZN60_$LT$alloc..string..String$u20$as$u20$core..fmt..Display$GT$3fmt17h0d0eb46f3054e2dfE', symObjAddr: 0x8030, symBinAddr: 0x38FE0, symSize: 0x20 }
  - { offsetInCU: 0x2A0B, offset: 0xB9D61, size: 0x8, addend: 0x0, symName: '__ZN4core3ptr100drop_in_place$LT$core..option..Option$LT$alloc..boxed..Box$LT$syn..generics..LifetimeDef$GT$$GT$$GT$17h82b6930fbf453d3cE', symObjAddr: 0x0, symBinAddr: 0x30FB0, symSize: 0x150 }
  - { offsetInCU: 0x2F87, offset: 0xBA2DD, size: 0x8, addend: 0x0, symName: '__ZN4core3ptr100drop_in_place$LT$core..option..Option$LT$alloc..boxed..Box$LT$syn..path..GenericArgument$GT$$GT$$GT$17hdec1aac3c1c32b1aE', symObjAddr: 0x150, symBinAddr: 0x31100, symSize: 0x50 }
  - { offsetInCU: 0x3135, offset: 0xBA48B, size: 0x8, addend: 0x0, symName: '__ZN4core3ptr101drop_in_place$LT$core..option..Option$LT$alloc..vec..Vec$LT$syn..generics..WherePredicate$GT$$GT$$GT$17h4f8ab547d15f2fe5E', symObjAddr: 0x1A0, symBinAddr: 0x31150, symSize: 0xD0 }
  - { offsetInCU: 0x3529, offset: 0xBA87F, size: 0x8, addend: 0x0, symName: '__ZN4core3ptr103drop_in_place$LT$syn..punctuated..Punctuated$LT$syn..generics..TypeParamBound$C$syn..token..Add$GT$$GT$17h283d6fefb1c71cfaE', symObjAddr: 0x270, symBinAddr: 0x31220, symSize: 0x200 }
  - { offsetInCU: 0x3E1A, offset: 0xBB170, size: 0x8, addend: 0x0, symName: '__ZN4core3ptr108drop_in_place$LT$syn..punctuated..Punctuated$LT$syn..expr..GenericMethodArgument$C$syn..token..Comma$GT$$GT$17h2aec9c03103ab694E', symObjAddr: 0x470, symBinAddr: 0x31420, symSize: 0x150 }
  - { offsetInCU: 0x4373, offset: 0xBB6C9, size: 0x8, addend: 0x0, symName: '__ZN4core3ptr34drop_in_place$LT$syn..lit..Lit$GT$17ha842b5e81e8582b3E', symObjAddr: 0x5C0, symBinAddr: 0x31570, symSize: 0x110 }
  - { offsetInCU: 0x47E5, offset: 0xBBB3B, size: 0x8, addend: 0x0, symName: '__ZN4core3ptr34drop_in_place$LT$syn..pat..Pat$GT$17h0621b062377aebcbE', symObjAddr: 0x6D0, symBinAddr: 0x31680, symSize: 0x1050 }
  - { offsetInCU: 0x81A4, offset: 0xBF4FA, size: 0x8, addend: 0x0, symName: '__ZN4core3ptr34drop_in_place$LT$syn..ty..Type$GT$17h3d55b11c281dc967E', symObjAddr: 0x1720, symBinAddr: 0x326D0, symSize: 0x620 }
  - { offsetInCU: 0x9771, offset: 0xC0AC7, size: 0x8, addend: 0x0, symName: '__ZN4core3ptr36drop_in_place$LT$syn..attr..Meta$GT$17hafe452618260d1f8E', symObjAddr: 0x1D40, symBinAddr: 0x32CF0, symSize: 0xB0 }
  - { offsetInCU: 0x9E80, offset: 0xC11D6, size: 0x8, addend: 0x0, symName: '__ZN4core3ptr36drop_in_place$LT$syn..expr..Expr$GT$17h68b218bdcee4a3c7E', symObjAddr: 0x1DF0, symBinAddr: 0x32DA0, symSize: 0x31D0 }
  - { offsetInCU: 0x14409, offset: 0xCB75F, size: 0x8, addend: 0x0, symName: '__ZN4core3ptr36drop_in_place$LT$syn..mac..Macro$GT$17h158bcec479486e24E', symObjAddr: 0x4FC0, symBinAddr: 0x35F70, symSize: 0xE0 }
  - { offsetInCU: 0x1480F, offset: 0xCBB65, size: 0x8, addend: 0x0, symName: '__ZN4core3ptr36drop_in_place$LT$syn..path..Path$GT$17hdc92c6b0523379a3E', symObjAddr: 0x50A0, symBinAddr: 0x36050, symSize: 0x230 }
  - { offsetInCU: 0x151A5, offset: 0xCC4FB, size: 0x8, addend: 0x0, symName: '__ZN4core3ptr37drop_in_place$LT$syn..stmt..Block$GT$17hfffa15f159ccade9E', symObjAddr: 0x52D0, symBinAddr: 0x36280, symSize: 0xD0 }
  - { offsetInCU: 0x154BA, offset: 0xCC810, size: 0x8, addend: 0x0, symName: '__ZN4core3ptr38drop_in_place$LT$syn..error..Error$GT$17h3aa27a792d2ab4d2E', symObjAddr: 0x53A0, symBinAddr: 0x36350, symSize: 0x80 }
  - { offsetInCU: 0x15767, offset: 0xCCABD, size: 0x8, addend: 0x0, symName: '__ZN4core3ptr38drop_in_place$LT$syn..expr..Member$GT$17h24b2f28a51f276afE', symObjAddr: 0x5420, symBinAddr: 0x363D0, symSize: 0x30 }
  - { offsetInCU: 0x15863, offset: 0xCCBB9, size: 0x8, addend: 0x0, symName: '__ZN4core3ptr39drop_in_place$LT$proc_macro2..Ident$GT$17he0509ca0076c6db2E', symObjAddr: 0x5450, symBinAddr: 0x36400, symSize: 0x30 }
  - { offsetInCU: 0x15940, offset: 0xCCC96, size: 0x8, addend: 0x0, symName: '__ZN4core3ptr39drop_in_place$LT$syn..pat..PatTuple$GT$17ha1d19a764bcc1cb3E', symObjAddr: 0x5480, symBinAddr: 0x36430, symSize: 0x100 }
  - { offsetInCU: 0x15C49, offset: 0xCCF9F, size: 0x8, addend: 0x0, symName: '__ZN4core3ptr40drop_in_place$LT$syn..attr..MetaList$GT$17h383fdef68c687f54E', symObjAddr: 0x5580, symBinAddr: 0x36530, symSize: 0x40 }
  - { offsetInCU: 0x15C66, offset: 0xCCFBC, size: 0x8, addend: 0x0, symName: '__ZN4core3ptr40drop_in_place$LT$syn..ty..ReturnType$GT$17h2d60777f70ee0d22E', symObjAddr: 0x55C0, symBinAddr: 0x36570, symSize: 0x50 }
  - { offsetInCU: 0x15DD6, offset: 0xCD12C, size: 0x8, addend: 0x0, symName: '__ZN4core3ptr42drop_in_place$LT$alloc..string..String$GT$17h073d01a47536ee6fE', symObjAddr: 0x5610, symBinAddr: 0x365C0, symSize: 0x20 }
  - { offsetInCU: 0x15F3B, offset: 0xCD291, size: 0x8, addend: 0x0, symName: '__ZN4core3ptr44drop_in_place$LT$derivative..attr..Field$GT$17h6b32fb97664cf7f6E', symObjAddr: 0x5630, symBinAddr: 0x365E0, symSize: 0x320 }
  - { offsetInCU: 0x16A2B, offset: 0xCDD81, size: 0x8, addend: 0x0, symName: '__ZN4core3ptr44drop_in_place$LT$derivative..attr..Input$GT$17h2e78d5bbabc2a494E', symObjAddr: 0x5950, symBinAddr: 0x36900, symSize: 0x680 }
  - { offsetInCU: 0x184DC, offset: 0xCF832, size: 0x8, addend: 0x0, symName: '__ZN4core3ptr44drop_in_place$LT$syn..lifetime..Lifetime$GT$17he83b0b529a581d24E', symObjAddr: 0x5FD0, symBinAddr: 0x36F80, symSize: 0x30 }
  - { offsetInCU: 0x1870E, offset: 0xCFA64, size: 0x8, addend: 0x0, symName: '__ZN4core3ptr45drop_in_place$LT$proc_macro2..TokenStream$GT$17h7e9a94df6c9afdc7E', symObjAddr: 0x6000, symBinAddr: 0x36FB0, symSize: 0x140 }
  - { offsetInCU: 0x18B6A, offset: 0xCFEC0, size: 0x8, addend: 0x0, symName: '__ZN4core3ptr47drop_in_place$LT$derivative..attr..FieldOrd$GT$17ha1a37adb0bf1297dE', symObjAddr: 0x6140, symBinAddr: 0x370F0, symSize: 0x120 }
  - { offsetInCU: 0x18E95, offset: 0xD01EB, size: 0x8, addend: 0x0, symName: '__ZN4core3ptr47drop_in_place$LT$derivative..attr..InputOrd$GT$17h5bc9fb867f8c7092E', symObjAddr: 0x6260, symBinAddr: 0x37210, symSize: 0xD0 }
  - { offsetInCU: 0x191A8, offset: 0xD04FE, size: 0x8, addend: 0x0, symName: '__ZN4core3ptr47drop_in_place$LT$syn..path..GenericArgument$GT$17hc55a20af1acae48eE', symObjAddr: 0x6330, symBinAddr: 0x372E0, symSize: 0x110 }
  - { offsetInCU: 0x194F5, offset: 0xD084B, size: 0x8, addend: 0x0, symName: '__ZN4core3ptr51drop_in_place$LT$derivative..attr..FieldDefault$GT$17h9488281bc361fcc4E', symObjAddr: 0x6440, symBinAddr: 0x373F0, symSize: 0x100 }
  - { offsetInCU: 0x1980C, offset: 0xD0B62, size: 0x8, addend: 0x0, symName: '__ZN4core3ptr58drop_in_place$LT$alloc..vec..Vec$LT$syn..expr..Arm$GT$$GT$17hdd3822aa758753c7E', symObjAddr: 0x6540, symBinAddr: 0x374F0, symSize: 0xD0 }
  - { offsetInCU: 0x19ACC, offset: 0xD0E22, size: 0x8, addend: 0x0, symName: '__ZN4core3ptr59drop_in_place$LT$alloc..boxed..Box$LT$syn..pat..Pat$GT$$GT$17h48ec1dbe47a00c61E', symObjAddr: 0x6610, symBinAddr: 0x375C0, symSize: 0x50 }
  - { offsetInCU: 0x19C25, offset: 0xD0F7B, size: 0x8, addend: 0x0, symName: '__ZN4core3ptr59drop_in_place$LT$alloc..boxed..Box$LT$syn..ty..Type$GT$$GT$17h454cab832bb38812E', symObjAddr: 0x6660, symBinAddr: 0x37610, symSize: 0x50 }
  - { offsetInCU: 0x19D7E, offset: 0xD10D4, size: 0x8, addend: 0x0, symName: '__ZN4core3ptr61drop_in_place$LT$alloc..boxed..Box$LT$syn..expr..Expr$GT$$GT$17hbe6f5e1c721a6cd9E', symObjAddr: 0x66B0, symBinAddr: 0x37660, symSize: 0x50 }
  - { offsetInCU: 0x19ED7, offset: 0xD122D, size: 0x8, addend: 0x0, symName: '__ZN4core3ptr61drop_in_place$LT$syn..path..ParenthesizedGenericArguments$GT$17h2d220a34adaf921bE', symObjAddr: 0x6700, symBinAddr: 0x376B0, symSize: 0x170 }
  - { offsetInCU: 0x1A4E0, offset: 0xD1836, size: 0x8, addend: 0x0, symName: '__ZN4core3ptr63drop_in_place$LT$alloc..boxed..Box$LT$syn..lit..LitRepr$GT$$GT$17h44c55dd7d5499a10E', symObjAddr: 0x6870, symBinAddr: 0x37820, symSize: 0x60 }
  - { offsetInCU: 0x1A7E7, offset: 0xD1B3D, size: 0x8, addend: 0x0, symName: '__ZN4core3ptr64drop_in_place$LT$alloc..boxed..Box$LT$syn..pat..FieldPat$GT$$GT$17h8a4c0395922411f9E', symObjAddr: 0x68D0, symBinAddr: 0x37880, symSize: 0x180 }
  - { offsetInCU: 0x1AF04, offset: 0xD225A, size: 0x8, addend: 0x0, symName: '__ZN4core3ptr64drop_in_place$LT$alloc..boxed..Box$LT$syn..ty..BareFnArg$GT$$GT$17h145502f35dc7a34dE', symObjAddr: 0x6A50, symBinAddr: 0x37A00, symSize: 0x160 }
  - { offsetInCU: 0x1B49A, offset: 0xD27F0, size: 0x8, addend: 0x0, symName: '__ZN4core3ptr65drop_in_place$LT$alloc..vec..Vec$LT$proc_macro..TokenTree$GT$$GT$17h27434ef986fc0c8fE', symObjAddr: 0x6BB0, symBinAddr: 0x37B60, symSize: 0x110 }
  - { offsetInCU: 0x1B892, offset: 0xD2BE8, size: 0x8, addend: 0x0, symName: '__ZN4core3ptr65drop_in_place$LT$core..option..Option$LT$syn..expr..Label$GT$$GT$17hf88e6caa939fd4b3E', symObjAddr: 0x6CC0, symBinAddr: 0x37C70, symSize: 0x30 }
  - { offsetInCU: 0x1B9CC, offset: 0xD2D22, size: 0x8, addend: 0x0, symName: '__ZN4core3ptr66drop_in_place$LT$core..option..Option$LT$syn..ty..Variadic$GT$$GT$17hd53494a084af7b6fE', symObjAddr: 0x6CF0, symBinAddr: 0x37CA0, symSize: 0xF0 }
  - { offsetInCU: 0x1BCF6, offset: 0xD304C, size: 0x8, addend: 0x0, symName: '__ZN4core3ptr67drop_in_place$LT$alloc..boxed..Box$LT$syn..attr..NestedMeta$GT$$GT$17ha580df8ef7897d5cE', symObjAddr: 0x6DE0, symBinAddr: 0x37D90, symSize: 0x70 }
  - { offsetInCU: 0x1BE8B, offset: 0xD31E1, size: 0x8, addend: 0x0, symName: '__ZN4core3ptr67drop_in_place$LT$alloc..boxed..Box$LT$syn..expr..FieldValue$GT$$GT$17hee600943c39f373eE', symObjAddr: 0x6E50, symBinAddr: 0x37E00, symSize: 0x160 }
  - { offsetInCU: 0x1C401, offset: 0xD3757, size: 0x8, addend: 0x0, symName: '__ZN4core3ptr72drop_in_place$LT$core..option..Option$LT$syn..lifetime..Lifetime$GT$$GT$17h496ffbcd02d279ceE', symObjAddr: 0x6FB0, symBinAddr: 0x37F60, symSize: 0x30 }
  - { offsetInCU: 0x1C51C, offset: 0xD3872, size: 0x8, addend: 0x0, symName: '__ZN4core3ptr74drop_in_place$LT$core..option..Option$LT$derivative..attr..InputEq$GT$$GT$17h5c6528a7271c33f0E', symObjAddr: 0x6FE0, symBinAddr: 0x37F90, symSize: 0xD0 }
  - { offsetInCU: 0x1C7F6, offset: 0xD3B4C, size: 0x8, addend: 0x0, symName: '__ZN4core3ptr75drop_in_place$LT$alloc..boxed..Box$LT$syn..generics..TypeParamBound$GT$$GT$17h0d539f38c26df380E', symObjAddr: 0x70B0, symBinAddr: 0x38060, symSize: 0x140 }
  - { offsetInCU: 0x1CD51, offset: 0xD40A7, size: 0x8, addend: 0x0, symName: '__ZN4core3ptr75drop_in_place$LT$core..option..Option$LT$derivative..attr..InputOrd$GT$$GT$17h65b3c0526b6be967E', symObjAddr: 0x71F0, symBinAddr: 0x381A0, symSize: 0xD0 }
  - { offsetInCU: 0x1D02B, offset: 0xD4381, size: 0x8, addend: 0x0, symName: '__ZN4core3ptr78drop_in_place$LT$alloc..boxed..Box$LT$syn..expr..GenericMethodArgument$GT$$GT$17h2e8ab754b2d35f4bE', symObjAddr: 0x72C0, symBinAddr: 0x38270, symSize: 0x60 }
  - { offsetInCU: 0x1D21D, offset: 0xD4573, size: 0x8, addend: 0x0, symName: '__ZN4core3ptr78drop_in_place$LT$core..option..Option$LT$syn..generics..BoundLifetimes$GT$$GT$17he70d317fbad5b599E', symObjAddr: 0x7320, symBinAddr: 0x382D0, symSize: 0x90 }
  - { offsetInCU: 0x1D50C, offset: 0xD4862, size: 0x8, addend: 0x0, symName: '__ZN4core3ptr86drop_in_place$LT$syn..punctuated..Punctuated$LT$syn..pat..Pat$C$syn..token..Or$GT$$GT$17h2004905335266fbeE', symObjAddr: 0x73B0, symBinAddr: 0x38360, symSize: 0x120 }
  - { offsetInCU: 0x1D987, offset: 0xD4CDD, size: 0x8, addend: 0x0, symName: '__ZN4core3ptr87drop_in_place$LT$core..option..Option$LT$alloc..boxed..Box$LT$syn..pat..Pat$GT$$GT$$GT$17h9151a9d5e0aa7e1eE', symObjAddr: 0x74D0, symBinAddr: 0x38480, symSize: 0x50 }
  - { offsetInCU: 0x1DAF7, offset: 0xD4E4D, size: 0x8, addend: 0x0, symName: '__ZN4core3ptr87drop_in_place$LT$core..option..Option$LT$alloc..boxed..Box$LT$syn..ty..Type$GT$$GT$$GT$17hd3cb46ad48d34655E', symObjAddr: 0x7520, symBinAddr: 0x384D0, symSize: 0x50 }
  - { offsetInCU: 0x1DC67, offset: 0xD4FBD, size: 0x8, addend: 0x0, symName: '__ZN4core3ptr89drop_in_place$LT$core..option..Option$LT$alloc..boxed..Box$LT$syn..expr..Expr$GT$$GT$$GT$17h9693feaa41001291E', symObjAddr: 0x7570, symBinAddr: 0x38520, symSize: 0x50 }
  - { offsetInCU: 0x1DE15, offset: 0xD516B, size: 0x8, addend: 0x0, symName: '__ZN4core3ptr89drop_in_place$LT$syn..punctuated..Punctuated$LT$syn..pat..Pat$C$syn..token..Comma$GT$$GT$17hc735db3a40e860f2E', symObjAddr: 0x75C0, symBinAddr: 0x38570, symSize: 0x120 }
  - { offsetInCU: 0x1E2E5, offset: 0xD563B, size: 0x8, addend: 0x0, symName: '__ZN4core3ptr91drop_in_place$LT$syn..punctuated..Punctuated$LT$syn..expr..Expr$C$syn..token..Comma$GT$$GT$17h4abaeb5cfb586772E', symObjAddr: 0x76E0, symBinAddr: 0x38690, symSize: 0x120 }
  - { offsetInCU: 0x1E773, offset: 0xD5AC9, size: 0x8, addend: 0x0, symName: '__ZN4core3ptr94drop_in_place$LT$syn..punctuated..Punctuated$LT$syn..pat..FieldPat$C$syn..token..Comma$GT$$GT$17hf9927b8b52e25a50E', symObjAddr: 0x7800, symBinAddr: 0x387B0, symSize: 0xF0 }
  - { offsetInCU: 0x1EA72, offset: 0xD5DC8, size: 0x8, addend: 0x0, symName: '__ZN4core3ptr94drop_in_place$LT$syn..punctuated..Punctuated$LT$syn..ty..BareFnArg$C$syn..token..Comma$GT$$GT$17h577c8aa515f26074E', symObjAddr: 0x78F0, symBinAddr: 0x388A0, symSize: 0xF0 }
  - { offsetInCU: 0x1ED6F, offset: 0xD60C5, size: 0x8, addend: 0x0, symName: '__ZN4core3ptr96drop_in_place$LT$core..option..Option$LT$alloc..boxed..Box$LT$syn..path..PathSegment$GT$$GT$$GT$17hb35e105c29269971E', symObjAddr: 0x79E0, symBinAddr: 0x38990, symSize: 0x180 }
  - { offsetInCU: 0x1F4A8, offset: 0xD67FE, size: 0x8, addend: 0x0, symName: '__ZN4core3ptr97drop_in_place$LT$syn..punctuated..Punctuated$LT$syn..attr..NestedMeta$C$syn..token..Comma$GT$$GT$17h80d0bc3906f4abdeE', symObjAddr: 0x7B60, symBinAddr: 0x38B10, symSize: 0x150 }
  - { offsetInCU: 0x1F949, offset: 0xD6C9F, size: 0x8, addend: 0x0, symName: '__ZN4core3ptr97drop_in_place$LT$syn..punctuated..Punctuated$LT$syn..expr..FieldValue$C$syn..token..Comma$GT$$GT$17h15366382fde2131eE', symObjAddr: 0x7CB0, symBinAddr: 0x38C60, symSize: 0xF0 }
  - { offsetInCU: 0x1FCC2, offset: 0xD7018, size: 0x8, addend: 0x0, symName: '__ZN4core3ptr97drop_in_place$LT$syn..punctuated..Punctuated$LT$syn..lifetime..Lifetime$C$syn..token..Add$GT$$GT$17hd50f0bf96210475aE', symObjAddr: 0x7DA0, symBinAddr: 0x38D50, symSize: 0xD0 }
  - { offsetInCU: 0x209CE, offset: 0xD7D24, size: 0x8, addend: 0x0, symName: '__ZN53_$LT$core..fmt..Error$u20$as$u20$core..fmt..Debug$GT$3fmt17h03dc662ab152f3aeE', symObjAddr: 0x7E70, symBinAddr: 0x38E20, symSize: 0x20 }
  - { offsetInCU: 0x26856, offset: 0xDDBAC, size: 0x8, addend: 0x0, symName: __ZN10derivative4attr10read_items17h43683bd7c0933417E, symObjAddr: 0x13280, symBinAddr: 0x43EE0, symSize: 0x5D0 }
  - { offsetInCU: 0x27578, offset: 0xDE8CE, size: 0x8, addend: 0x0, symName: __ZN10derivative4attr20derivative_attribute17h71658fac2424d2b1E, symObjAddr: 0x13850, symBinAddr: 0x444B0, symSize: 0x400 }
  - { offsetInCU: 0x27FD9, offset: 0xDF32F, size: 0x8, addend: 0x0, symName: __ZN10derivative4attr23parse_boolean_meta_item17h79baae2b7154863bE, symObjAddr: 0x13C50, symBinAddr: 0x448B0, symSize: 0x320 }
  - { offsetInCU: 0x28A39, offset: 0xDFD8F, size: 0x8, addend: 0x0, symName: __ZN10derivative4attr11parse_bound17h9d01b3c180147d6bE, symObjAddr: 0x13F70, symBinAddr: 0x44BD0, symSize: 0x750 }
  - { offsetInCU: 0x29EA9, offset: 0xE11FF, size: 0x8, addend: 0x0, symName: __ZN10derivative4attr13parse_str_lit17h1b13a6854d6739e5E, symObjAddr: 0x146C0, symBinAddr: 0x45320, symSize: 0x2D0 }
  - { offsetInCU: 0x2A59A, offset: 0xE18F0, size: 0x8, addend: 0x0, symName: __ZN10derivative4attr13parse_str_lit17h8c54655a4379c7b6E, symObjAddr: 0x14990, symBinAddr: 0x455F0, symSize: 0x2F0 }
  - { offsetInCU: 0x2AC8B, offset: 0xE1FE1, size: 0x8, addend: 0x0, symName: __ZN10derivative4attr14ensure_str_lit17hd96b5918c50fbcbcE, symObjAddr: 0x14C80, symBinAddr: 0x458E0, symSize: 0x31C }
  - { offsetInCU: 0x2CE5F, offset: 0xE41B5, size: 0x8, addend: 0x0, symName: __ZN10derivative4attr5Input8from_ast17hb72a08f1db39b825E, symObjAddr: 0x8050, symBinAddr: 0x39000, symSize: 0x63F0 }
  - { offsetInCU: 0x3E5C1, offset: 0xF5917, size: 0x8, addend: 0x0, symName: __ZN10derivative4attr5Field8from_ast17hdd1ef6846e4b2314E, symObjAddr: 0xE670, symBinAddr: 0x3F3F0, symSize: 0x4AF0 }
  - { offsetInCU: 0x1E, offset: 0x10C422, size: 0x8, addend: 0x0, symName: __ZN3syn3gen5visit10visit_expr17hb90e58580382a0f4E, symObjAddr: 0x0, symBinAddr: 0x45C00, symSize: 0x13F0 }
  - { offsetInCU: 0xB0AF, offset: 0x1174B3, size: 0x8, addend: 0x0, symName: __ZN3syn3gen5visit10visit_expr17hb90e58580382a0f4E, symObjAddr: 0x0, symBinAddr: 0x45C00, symSize: 0x13F0 }
  - { offsetInCU: 0x115F5, offset: 0x11D9F9, size: 0x8, addend: 0x0, symName: __ZN3syn3gen5visit10visit_item17hc9c6598d2a287a37E, symObjAddr: 0x13F0, symBinAddr: 0x46FF0, symSize: 0x730 }
  - { offsetInCU: 0x13D31, offset: 0x120135, size: 0x8, addend: 0x0, symName: __ZN3syn3gen5visit10visit_stmt17h557513b40c5c5037E, symObjAddr: 0x1C40, symBinAddr: 0x47720, symSize: 0xC0 }
  - { offsetInCU: 0x14365, offset: 0x120769, size: 0x8, addend: 0x0, symName: __ZN3syn3gen5visit10visit_type17h4e1c002bac094757E, symObjAddr: 0x1D00, symBinAddr: 0x477E0, symSize: 0x430 }
  - { offsetInCU: 0x15E73, offset: 0x122277, size: 0x8, addend: 0x0, symName: __ZN3syn3gen5visit12visit_fields17h8e06dc8edf309009E, symObjAddr: 0x2390, symBinAddr: 0x47C10, symSize: 0x1F0 }
  - { offsetInCU: 0x16C19, offset: 0x12301D, size: 0x8, addend: 0x0, symName: __ZN3syn3gen5visit14visit_generics17heeb908e1fc6d1042E, symObjAddr: 0x2A70, symBinAddr: 0x47E00, symSize: 0x290 }
  - { offsetInCU: 0x17EF2, offset: 0x1242F6, size: 0x8, addend: 0x0, symName: __ZN3syn3gen5visit15visit_impl_item17h98a234ffb6514f97E, symObjAddr: 0x3290, symBinAddr: 0x48090, symSize: 0x260 }
  - { offsetInCU: 0x18BAF, offset: 0x124FB3, size: 0x8, addend: 0x0, symName: __ZN3syn3gen5visit15visit_item_enum17hce68529457985772E, symObjAddr: 0x34F0, symBinAddr: 0x482F0, symSize: 0x5D0 }
  - { offsetInCU: 0x1AF30, offset: 0x127334, size: 0x8, addend: 0x0, symName: __ZN3syn3gen5visit15visit_item_impl17h26942f4d40b28773E, symObjAddr: 0x3AC0, symBinAddr: 0x488C0, symSize: 0x340 }
  - { offsetInCU: 0x1C46A, offset: 0x12886E, size: 0x8, addend: 0x0, symName: __ZN3syn3gen5visit15visit_signature17h55e82736ece327baE, symObjAddr: 0x3FD0, symBinAddr: 0x48C00, symSize: 0x440 }
  - { offsetInCU: 0x1DF67, offset: 0x12A36B, size: 0x8, addend: 0x0, symName: __ZN3syn3gen5visit16visit_item_trait17h23728f2e72253736E, symObjAddr: 0x4C60, symBinAddr: 0x49040, symSize: 0x4C0 }
  - { offsetInCU: 0x20098, offset: 0x12C49C, size: 0x8, addend: 0x0, symName: __ZN3syn3gen5visit16visit_trait_item17hc79b0af35c2df408E, symObjAddr: 0x5380, symBinAddr: 0x49500, symSize: 0x1E0 }
  - { offsetInCU: 0x2088A, offset: 0x12CC8E, size: 0x8, addend: 0x0, symName: __ZN3syn3gen5visit16visit_type_param17h87938d6e55eebc1bE, symObjAddr: 0x55A0, symBinAddr: 0x496E0, symSize: 0x1E0 }
  - { offsetInCU: 0x2155F, offset: 0x12D963, size: 0x8, addend: 0x0, symName: __ZN3syn3gen5visit17visit_expr_struct17h5c0fbfad2fb02958E, symObjAddr: 0x5910, symBinAddr: 0x498C0, symSize: 0x130 }
  - { offsetInCU: 0x21D29, offset: 0x12E12D, size: 0x8, addend: 0x0, symName: __ZN3syn3gen5visit18visit_foreign_item17hd8008c19100d8e32E, symObjAddr: 0x5F80, symBinAddr: 0x499F0, symSize: 0x1C0 }
  - { offsetInCU: 0x2276A, offset: 0x12EB6E, size: 0x8, addend: 0x0, symName: __ZN3syn3gen5visit18visit_type_bare_fn17h98f2e5072d70a7ddE, symObjAddr: 0x61F0, symBinAddr: 0x49BB0, symSize: 0x220 }
  - { offsetInCU: 0x235BA, offset: 0x12F9BE, size: 0x8, addend: 0x0, symName: __ZN3syn3gen5visit20visit_predicate_type17h8e90f0ed0a253842E, symObjAddr: 0x6950, symBinAddr: 0x49DD0, symSize: 0x260 }
  - { offsetInCU: 0x247AA, offset: 0x130BAE, size: 0x8, addend: 0x0, symName: __ZN3syn3gen5visit21visit_trait_item_type17hd0ed30f56a133562E, symObjAddr: 0x6E30, symBinAddr: 0x4A030, symSize: 0x4C0 }
  - { offsetInCU: 0x2668C, offset: 0x132A90, size: 0x8, addend: 0x0, symName: __ZN3syn3gen5visit22visit_expr_method_call17h13403182857a34e9E, symObjAddr: 0x7500, symBinAddr: 0x4A4F0, symSize: 0x150 }
  - { offsetInCU: 0x26F83, offset: 0x133387, size: 0x8, addend: 0x0, symName: __ZN3syn3gen5visit22visit_item_trait_alias17h9d5b2ae37a3b5a0aE, symObjAddr: 0x7980, symBinAddr: 0x4A640, symSize: 0x480 }
  - { offsetInCU: 0x293AC, offset: 0x1357B0, size: 0x8, addend: 0x0, symName: __ZN3syn3gen5visit9visit_pat17haa2615edc726ffa6E, symObjAddr: 0x8530, symBinAddr: 0x4AAC0, symSize: 0x640 }
  - { offsetInCU: 0x1E, offset: 0x144882, size: 0x8, addend: 0x0, symName: '__ZN106_$LT$core..iter..adapters..chain..Chain$LT$A$C$B$GT$$u20$as$u20$core..iter..traits..iterator..Iterator$GT$4next17hfe20fa769fbaa708E', symObjAddr: 0x0, symBinAddr: 0x4B100, symSize: 0x1C0 }
  - { offsetInCU: 0x2E1A, offset: 0x14767E, size: 0x8, addend: 0x0, symName: '__ZN4core3ptr100drop_in_place$LT$core..option..Option$LT$alloc..boxed..Box$LT$syn..generics..LifetimeDef$GT$$GT$$GT$17h82b6930fbf453d3cE', symObjAddr: 0x810, symBinAddr: 0x4B910, symSize: 0x50 }
  - { offsetInCU: 0x2FA9, offset: 0x14780D, size: 0x8, addend: 0x0, symName: '__ZN4core3ptr100drop_in_place$LT$core..option..Option$LT$alloc..boxed..Box$LT$syn..path..GenericArgument$GT$$GT$$GT$17hdec1aac3c1c32b1aE', symObjAddr: 0x860, symBinAddr: 0x4B960, symSize: 0x50 }
  - { offsetInCU: 0x3138, offset: 0x14799C, size: 0x8, addend: 0x0, symName: '__ZN4core3ptr101drop_in_place$LT$core..option..Option$LT$alloc..boxed..Box$LT$syn..generics..GenericParam$GT$$GT$$GT$17he31815cd43ed0b1bE', symObjAddr: 0x8B0, symBinAddr: 0x4B9B0, symSize: 0x50 }
  - { offsetInCU: 0x3305, offset: 0x147B69, size: 0x8, addend: 0x0, symName: '__ZN4core3ptr101drop_in_place$LT$core..option..Option$LT$alloc..vec..Vec$LT$syn..generics..WherePredicate$GT$$GT$$GT$17h4f8ab547d15f2fe5E', symObjAddr: 0x900, symBinAddr: 0x4BA00, symSize: 0xD0 }
  - { offsetInCU: 0x372B, offset: 0x147F8F, size: 0x8, addend: 0x0, symName: '__ZN4core3ptr102drop_in_place$LT$syn..punctuated..Punctuated$LT$syn..generics..LifetimeDef$C$syn..token..Comma$GT$$GT$17h89838dbc9e38b224E.llvm.4475236510565339259', symObjAddr: 0x9D0, symBinAddr: 0x4BAD0, symSize: 0x170 }
  - { offsetInCU: 0x3C22, offset: 0x148486, size: 0x8, addend: 0x0, symName: '__ZN4core3ptr102drop_in_place$LT$syn..punctuated..Punctuated$LT$syn..path..GenericArgument$C$syn..token..Comma$GT$$GT$17h9733fce26811b739E.llvm.4475236510565339259', symObjAddr: 0xB40, symBinAddr: 0x4BC40, symSize: 0xF0 }
  - { offsetInCU: 0x3FC1, offset: 0x148825, size: 0x8, addend: 0x0, symName: '__ZN4core3ptr103drop_in_place$LT$core..option..Option$LT$alloc..boxed..Box$LT$syn..generics..TypeParamBound$GT$$GT$$GT$17h4e76aebe6f41d1a7E', symObjAddr: 0xC30, symBinAddr: 0x4BD30, symSize: 0xA0 }
  - { offsetInCU: 0x42B0, offset: 0x148B14, size: 0x8, addend: 0x0, symName: '__ZN4core3ptr103drop_in_place$LT$core..option..Option$LT$alloc..boxed..Box$LT$syn..generics..WherePredicate$GT$$GT$$GT$17h3290cb3de36508f1E', symObjAddr: 0xCD0, symBinAddr: 0x4BDD0, symSize: 0x50 }
  - { offsetInCU: 0x44DA, offset: 0x148D3E, size: 0x8, addend: 0x0, symName: '__ZN4core3ptr103drop_in_place$LT$syn..punctuated..Punctuated$LT$syn..generics..GenericParam$C$syn..token..Comma$GT$$GT$17hee00b3f5faf5db24E', symObjAddr: 0xD20, symBinAddr: 0x4BE20, symSize: 0x1A0 }
  - { offsetInCU: 0x4AC6, offset: 0x14932A, size: 0x8, addend: 0x0, symName: '__ZN4core3ptr103drop_in_place$LT$syn..punctuated..Punctuated$LT$syn..generics..TypeParamBound$C$syn..token..Add$GT$$GT$17h283d6fefb1c71cfaE.llvm.4475236510565339259', symObjAddr: 0xEC0, symBinAddr: 0x4BFC0, symSize: 0x2E0 }
  - { offsetInCU: 0x5876, offset: 0x14A0DA, size: 0x8, addend: 0x0, symName: '__ZN4core3ptr105drop_in_place$LT$syn..punctuated..Punctuated$LT$syn..generics..WherePredicate$C$syn..token..Comma$GT$$GT$17h5db03e273e5fd9d3E', symObjAddr: 0x11A0, symBinAddr: 0x4C2A0, symSize: 0x120 }
  - { offsetInCU: 0x5DD1, offset: 0x14A635, size: 0x8, addend: 0x0, symName: '__ZN4core3ptr108drop_in_place$LT$syn..punctuated..Punctuated$LT$syn..expr..GenericMethodArgument$C$syn..token..Comma$GT$$GT$17h2aec9c03103ab694E', symObjAddr: 0x12C0, symBinAddr: 0x4C3C0, symSize: 0x150 }
  - { offsetInCU: 0x62B5, offset: 0x14AB19, size: 0x8, addend: 0x0, symName: '__ZN4core3ptr111drop_in_place$LT$$LP$proc_macro2..TokenStream$C$alloc..vec..Vec$LT$derivative..matcher..BindingInfo$GT$$RP$$GT$17h4303abbe0827ec63E.llvm.4475236510565339259', symObjAddr: 0x1410, symBinAddr: 0x4C510, symSize: 0x90 }
  - { offsetInCU: 0x653B, offset: 0x14AD9F, size: 0x8, addend: 0x0, symName: '__ZN4core3ptr126drop_in_place$LT$core..option..Option$LT$$LP$syn..token..And$C$core..option..Option$LT$syn..lifetime..Lifetime$GT$$RP$$GT$$GT$17hbb9f792328af5059E', symObjAddr: 0x14A0, symBinAddr: 0x4C5A0, symSize: 0x30 }
  - { offsetInCU: 0x66D2, offset: 0x14AF36, size: 0x8, addend: 0x0, symName: '__ZN4core3ptr156drop_in_place$LT$$LP$derivative..matcher..CommonVariant$C$$LP$proc_macro2..TokenStream$C$alloc..vec..Vec$LT$derivative..matcher..BindingInfo$GT$$RP$$RP$$GT$17hd0b3433743bde851E.llvm.4475236510565339259', symObjAddr: 0x14D0, symBinAddr: 0x4C5D0, symSize: 0xB0 }
  - { offsetInCU: 0x699F, offset: 0x14B203, size: 0x8, addend: 0x0, symName: '__ZN4core3ptr179drop_in_place$LT$alloc..vec..Vec$LT$$LP$derivative..matcher..CommonVariant$C$$LP$proc_macro2..TokenStream$C$alloc..vec..Vec$LT$derivative..matcher..BindingInfo$GT$$RP$$RP$$GT$$GT$17h7a3e10f61752a900E.llvm.4475236510565339259', symObjAddr: 0x1580, symBinAddr: 0x4C680, symSize: 0xD0 }
  - { offsetInCU: 0x6DAF, offset: 0x14B613, size: 0x8, addend: 0x0, symName: '__ZN4core3ptr33drop_in_place$LT$syn..ty..Abi$GT$17hb8fec02696e594cbE', symObjAddr: 0x1650, symBinAddr: 0x4C750, symSize: 0x70 }
  - { offsetInCU: 0x6DCB, offset: 0x14B62F, size: 0x8, addend: 0x0, symName: '__ZN4core3ptr33drop_in_place$LT$syn..ty..Abi$GT$17hb8fec02696e594cbE', symObjAddr: 0x1650, symBinAddr: 0x4C750, symSize: 0x70 }
  - { offsetInCU: 0x70A3, offset: 0x14B907, size: 0x8, addend: 0x0, symName: '__ZN4core3ptr34drop_in_place$LT$syn..lit..Lit$GT$17ha842b5e81e8582b3E.llvm.4475236510565339259', symObjAddr: 0x16C0, symBinAddr: 0x4C7C0, symSize: 0x120 }
  - { offsetInCU: 0x7541, offset: 0x14BDA5, size: 0x8, addend: 0x0, symName: '__ZN4core3ptr34drop_in_place$LT$syn..pat..Pat$GT$17h0621b062377aebcbE.llvm.4475236510565339259', symObjAddr: 0x17E0, symBinAddr: 0x4C8E0, symSize: 0xA70 }
  - { offsetInCU: 0xAA2B, offset: 0x14F28F, size: 0x8, addend: 0x0, symName: '__ZN4core3ptr34drop_in_place$LT$syn..ty..Type$GT$17h3d55b11c281dc967E.llvm.4475236510565339259', symObjAddr: 0x2250, symBinAddr: 0x4D350, symSize: 0x410 }
  - { offsetInCU: 0xB795, offset: 0x14FFF9, size: 0x8, addend: 0x0, symName: '__ZN4core3ptr35drop_in_place$LT$syn..expr..Arm$GT$17hae94f3be3c4f68c1E.llvm.4475236510565339259', symObjAddr: 0x2660, symBinAddr: 0x4D760, symSize: 0x1A0 }
  - { offsetInCU: 0xBE97, offset: 0x1506FB, size: 0x8, addend: 0x0, symName: '__ZN4core3ptr36drop_in_place$LT$syn..attr..Meta$GT$17hafe452618260d1f8E.llvm.4475236510565339259', symObjAddr: 0x2800, symBinAddr: 0x4D900, symSize: 0x1B0 }
  - { offsetInCU: 0xC87E, offset: 0x1510E2, size: 0x8, addend: 0x0, symName: '__ZN4core3ptr36drop_in_place$LT$syn..expr..Expr$GT$17h68b218bdcee4a3c7E.llvm.4475236510565339259', symObjAddr: 0x29B0, symBinAddr: 0x4DAB0, symSize: 0x1EE0 }
  - { offsetInCU: 0x168E6, offset: 0x15B14A, size: 0x8, addend: 0x0, symName: '__ZN4core3ptr36drop_in_place$LT$syn..item..Item$GT$17hb91fa69ac575061cE.llvm.4475236510565339259', symObjAddr: 0x4890, symBinAddr: 0x4F990, symSize: 0x1650 }
  - { offsetInCU: 0x1D254, offset: 0x161AB8, size: 0x8, addend: 0x0, symName: '__ZN4core3ptr36drop_in_place$LT$syn..path..Path$GT$17hdc92c6b0523379a3E.llvm.4475236510565339259', symObjAddr: 0x5EE0, symBinAddr: 0x50FE0, symSize: 0x160 }
  - { offsetInCU: 0x1D7FC, offset: 0x162060, size: 0x8, addend: 0x0, symName: '__ZN4core3ptr36drop_in_place$LT$syn..stmt..Stmt$GT$17hf6e3dc997d4d0ea8E.llvm.4475236510565339259', symObjAddr: 0x6040, symBinAddr: 0x51140, symSize: 0x140 }
  - { offsetInCU: 0x1DC8E, offset: 0x1624F2, size: 0x8, addend: 0x0, symName: '__ZN4core3ptr37drop_in_place$LT$syn..data..Field$GT$17hbf85568c58d51743E.llvm.4475236510565339259', symObjAddr: 0x6180, symBinAddr: 0x51280, symSize: 0x1B0 }
  - { offsetInCU: 0x1E288, offset: 0x162AEC, size: 0x8, addend: 0x0, symName: '__ZN4core3ptr37drop_in_place$LT$syn..item..FnArg$GT$17hb0567c5cf487f73cE', symObjAddr: 0x6330, symBinAddr: 0x51430, symSize: 0x190 }
  - { offsetInCU: 0x1EC2A, offset: 0x16348E, size: 0x8, addend: 0x0, symName: '__ZN4core3ptr37drop_in_place$LT$syn..stmt..Block$GT$17hfffa15f159ccade9E', symObjAddr: 0x64C0, symBinAddr: 0x515C0, symSize: 0xD0 }
  - { offsetInCU: 0x1EF08, offset: 0x16376C, size: 0x8, addend: 0x0, symName: '__ZN4core3ptr38drop_in_place$LT$syn..expr..Member$GT$17h24b2f28a51f276afE.llvm.4475236510565339259', symObjAddr: 0x6590, symBinAddr: 0x51690, symSize: 0x30 }
  - { offsetInCU: 0x1F004, offset: 0x163868, size: 0x8, addend: 0x0, symName: '__ZN4core3ptr38drop_in_place$LT$syn..pat..PatType$GT$17h53cb87bfca12891fE', symObjAddr: 0x65C0, symBinAddr: 0x516C0, symSize: 0x160 }
  - { offsetInCU: 0x1F5BC, offset: 0x163E20, size: 0x8, addend: 0x0, symName: '__ZN4core3ptr38drop_in_place$LT$syn..ty..Variadic$GT$17h6a7e3cd8d242fd58E', symObjAddr: 0x6720, symBinAddr: 0x51820, symSize: 0xF0 }
  - { offsetInCU: 0x1F8D0, offset: 0x164134, size: 0x8, addend: 0x0, symName: '__ZN4core3ptr39drop_in_place$LT$proc_macro2..Ident$GT$17he0509ca0076c6db2E.llvm.4475236510565339259', symObjAddr: 0x6810, symBinAddr: 0x51910, symSize: 0x30 }
  - { offsetInCU: 0x1FA0A, offset: 0x16426E, size: 0x8, addend: 0x0, symName: '__ZN4core3ptr39drop_in_place$LT$syn..data..Variant$GT$17hf400c5e4fc37fd2fE.llvm.4475236510565339259', symObjAddr: 0x6840, symBinAddr: 0x51940, symSize: 0x330 }
  - { offsetInCU: 0x206B3, offset: 0x164F17, size: 0x8, addend: 0x0, symName: '__ZN4core3ptr39drop_in_place$LT$syn..item..UseTree$GT$17hf4952d72e106b165E', symObjAddr: 0x6B70, symBinAddr: 0x51C70, symSize: 0x1F0 }
  - { offsetInCU: 0x20E8B, offset: 0x1656EF, size: 0x8, addend: 0x0, symName: '__ZN4core3ptr39drop_in_place$LT$syn..pat..PatTuple$GT$17ha1d19a764bcc1cb3E', symObjAddr: 0x6D60, symBinAddr: 0x51E60, symSize: 0x1F0 }
  - { offsetInCU: 0x2164E, offset: 0x165EB2, size: 0x8, addend: 0x0, symName: '__ZN4core3ptr40drop_in_place$LT$syn..attr..MetaList$GT$17h383fdef68c687f54E.llvm.4475236510565339259', symObjAddr: 0x6F50, symBinAddr: 0x52050, symSize: 0x1C0 }
  - { offsetInCU: 0x21AE1, offset: 0x166345, size: 0x8, addend: 0x0, symName: '__ZN4core3ptr40drop_in_place$LT$syn..item..ImplItem$GT$17ha799a65425f52abbE', symObjAddr: 0x7110, symBinAddr: 0x52210, symSize: 0x130 }
  - { offsetInCU: 0x21DF5, offset: 0x166659, size: 0x8, addend: 0x0, symName: '__ZN4core3ptr40drop_in_place$LT$syn..item..Receiver$GT$17hee856c8ef37f85d0E', symObjAddr: 0x7240, symBinAddr: 0x52340, symSize: 0x140 }
  - { offsetInCU: 0x22283, offset: 0x166AE7, size: 0x8, addend: 0x0, symName: '__ZN4core3ptr40drop_in_place$LT$syn..ty..ReturnType$GT$17h2d60777f70ee0d22E.llvm.4475236510565339259', symObjAddr: 0x7380, symBinAddr: 0x52480, symSize: 0x50 }
  - { offsetInCU: 0x223F3, offset: 0x166C57, size: 0x8, addend: 0x0, symName: '__ZN4core3ptr41drop_in_place$LT$syn..attr..Attribute$GT$17h57a73e3c67eedde8E.llvm.4475236510565339259', symObjAddr: 0x73D0, symBinAddr: 0x524D0, symSize: 0x40 }
  - { offsetInCU: 0x22563, offset: 0x166DC7, size: 0x8, addend: 0x0, symName: '__ZN4core3ptr41drop_in_place$LT$syn..item..Signature$GT$17h67faa0eef5b81ea4E', symObjAddr: 0x7410, symBinAddr: 0x52510, symSize: 0x330 }
  - { offsetInCU: 0x23335, offset: 0x167B99, size: 0x8, addend: 0x0, symName: '__ZN4core3ptr42drop_in_place$LT$syn..attr..NestedMeta$GT$17h76ee2438ec543c86E.llvm.4475236510565339259', symObjAddr: 0x7740, symBinAddr: 0x52840, symSize: 0x90 }
  - { offsetInCU: 0x234B6, offset: 0x167D1A, size: 0x8, addend: 0x0, symName: '__ZN4core3ptr43drop_in_place$LT$derivative..ast..Field$GT$17hb22a6df21666b053E.llvm.4475236510565339259', symObjAddr: 0x77D0, symBinAddr: 0x528D0, symSize: 0x2F0 }
  - { offsetInCU: 0x23914, offset: 0x168178, size: 0x8, addend: 0x0, symName: '__ZN4core3ptr43drop_in_place$LT$proc_macro2..TokenTree$GT$17he27aeea45f7c43c0E.llvm.4475236510565339259', symObjAddr: 0x7AC0, symBinAddr: 0x52BC0, symSize: 0xB0 }
  - { offsetInCU: 0x23C6F, offset: 0x1684D3, size: 0x8, addend: 0x0, symName: '__ZN4core3ptr43drop_in_place$LT$syn..data..FieldsNamed$GT$17h6c4b7d5e021f45f4E', symObjAddr: 0x7B70, symBinAddr: 0x52C70, symSize: 0x120 }
  - { offsetInCU: 0x2414E, offset: 0x1689B2, size: 0x8, addend: 0x0, symName: '__ZN4core3ptr43drop_in_place$LT$syn..path..PathSegment$GT$17h9147feed36ce0317E.llvm.4475236510565339259', symObjAddr: 0x7C90, symBinAddr: 0x52D90, symSize: 0x170 }
  - { offsetInCU: 0x24729, offset: 0x168F8D, size: 0x8, addend: 0x0, symName: '__ZN4core3ptr44drop_in_place$LT$syn..generics..Generics$GT$17h04fed1a77f85cbfaE', symObjAddr: 0x7E00, symBinAddr: 0x52F00, symSize: 0x230 }
  - { offsetInCU: 0x25066, offset: 0x1698CA, size: 0x8, addend: 0x0, symName: '__ZN4core3ptr44drop_in_place$LT$syn..item..ImplItemType$GT$17hf8797b9ca4d4c42fE', symObjAddr: 0x8030, symBinAddr: 0x53130, symSize: 0x200 }
  - { offsetInCU: 0x25683, offset: 0x169EE7, size: 0x8, addend: 0x0, symName: '__ZN4core3ptr44drop_in_place$LT$syn..lifetime..Lifetime$GT$17he83b0b529a581d24E.llvm.4475236510565339259', symObjAddr: 0x8230, symBinAddr: 0x53330, symSize: 0x30 }
  - { offsetInCU: 0x25A29, offset: 0x16A28D, size: 0x8, addend: 0x0, symName: '__ZN4core3ptr45drop_in_place$LT$derivative..ast..Variant$GT$17h202118f58b8c420dE.llvm.4475236510565339259', symObjAddr: 0x8260, symBinAddr: 0x53360, symSize: 0x2A0 }
  - { offsetInCU: 0x261D9, offset: 0x16AA3D, size: 0x8, addend: 0x0, symName: '__ZN4core3ptr45drop_in_place$LT$proc_macro2..TokenStream$GT$17h7e9a94df6c9afdc7E.llvm.4475236510565339259', symObjAddr: 0x8500, symBinAddr: 0x53600, symSize: 0x70 }
  - { offsetInCU: 0x2630E, offset: 0x16AB72, size: 0x8, addend: 0x0, symName: '__ZN4core3ptr45drop_in_place$LT$syn..data..VisRestricted$GT$17h6e42f156e060f3b0E', symObjAddr: 0x8570, symBinAddr: 0x53670, symSize: 0x100 }
  - { offsetInCU: 0x267D1, offset: 0x16B035, size: 0x8, addend: 0x0, symName: '__ZN4core3ptr45drop_in_place$LT$syn..generics..TypeParam$GT$17h413a138a5729d456E.llvm.4475236510565339259', symObjAddr: 0x8670, symBinAddr: 0x53770, symSize: 0x260 }
  - { offsetInCU: 0x2718E, offset: 0x16B9F2, size: 0x8, addend: 0x0, symName: '__ZN4core3ptr45drop_in_place$LT$syn..item..ImplItemConst$GT$17h05e1f79a0520ed0cE', symObjAddr: 0x88D0, symBinAddr: 0x539D0, symSize: 0x1D0 }
  - { offsetInCU: 0x27768, offset: 0x16BFCC, size: 0x8, addend: 0x0, symName: '__ZN4core3ptr45drop_in_place$LT$syn..item..TraitItemType$GT$17he39be866e682fcd2E', symObjAddr: 0x8AA0, symBinAddr: 0x53BA0, symSize: 0x2D0 }
  - { offsetInCU: 0x281FE, offset: 0x16CA62, size: 0x8, addend: 0x0, symName: '__ZN4core3ptr46drop_in_place$LT$syn..generics..ConstParam$GT$17hff51aac831a4e15dE.llvm.4475236510565339259', symObjAddr: 0x8D70, symBinAddr: 0x53E70, symSize: 0x180 }
  - { offsetInCU: 0x28636, offset: 0x16CE9A, size: 0x8, addend: 0x0, symName: '__ZN4core3ptr46drop_in_place$LT$syn..item..ImplItemMethod$GT$17h6b29cd0e2f92824dE', symObjAddr: 0x8EF0, symBinAddr: 0x53FF0, symSize: 0x240 }
  - { offsetInCU: 0x28DB4, offset: 0x16D618, size: 0x8, addend: 0x0, symName: '__ZN4core3ptr46drop_in_place$LT$syn..item..TraitItemConst$GT$17h748dc84da91cd66eE', symObjAddr: 0x9130, symBinAddr: 0x54230, symSize: 0x180 }
  - { offsetInCU: 0x2921E, offset: 0x16DA82, size: 0x8, addend: 0x0, symName: '__ZN4core3ptr475drop_in_place$LT$core..iter..adapters..chain..Chain$LT$core..iter..adapters..map..Map$LT$syn..generics..TypeParams$C$derivative..debug..format_with..$u7b$$u7b$closure$u7d$$u7d$$GT$$C$core..iter..adapters..flatten..FlatMap$LT$core..option..Iter$LT$$RF$$u5b$syn..generics..WherePredicate$u5d$$GT$$C$core..iter..adapters..cloned..Cloned$LT$core..slice..iter..Iter$LT$syn..generics..WherePredicate$GT$$GT$$C$derivative..debug..format_with..$u7b$$u7b$closure$u7d$$u7d$$GT$$GT$$GT$17hdbfc192ecaa36a9cE', symObjAddr: 0x92B0, symBinAddr: 0x543B0, symSize: 0x30 }
  - { offsetInCU: 0x2939B, offset: 0x16DBFF, size: 0x8, addend: 0x0, symName: '__ZN4core3ptr47drop_in_place$LT$derivative..attr..FieldOrd$GT$17ha1a37adb0bf1297dE', symObjAddr: 0x92E0, symBinAddr: 0x543E0, symSize: 0x70 }
  - { offsetInCU: 0x293E6, offset: 0x16DC4A, size: 0x8, addend: 0x0, symName: '__ZN4core3ptr47drop_in_place$LT$syn..generics..LifetimeDef$GT$17h8d3cfa3ea57a860bE.llvm.4475236510565339259', symObjAddr: 0x9350, symBinAddr: 0x54450, symSize: 0xB0 }
  - { offsetInCU: 0x297AE, offset: 0x16E012, size: 0x8, addend: 0x0, symName: '__ZN4core3ptr47drop_in_place$LT$syn..generics..WhereClause$GT$17h1b98f6923c0917b2E', symObjAddr: 0x9400, symBinAddr: 0x54500, symSize: 0x120 }
  - { offsetInCU: 0x29C6E, offset: 0x16E4D2, size: 0x8, addend: 0x0, symName: '__ZN4core3ptr47drop_in_place$LT$syn..path..GenericArgument$GT$17hc55a20af1acae48eE', symObjAddr: 0x9520, symBinAddr: 0x54620, symSize: 0x110 }
  - { offsetInCU: 0x29F89, offset: 0x16E7ED, size: 0x8, addend: 0x0, symName: '__ZN4core3ptr48drop_in_place$LT$syn..generics..GenericParam$GT$17h8f5f8652e56a420dE', symObjAddr: 0x9630, symBinAddr: 0x54730, symSize: 0xF0 }
  - { offsetInCU: 0x2A36E, offset: 0x16EBD2, size: 0x8, addend: 0x0, symName: '__ZN4core3ptr49drop_in_place$LT$syn..item..ForeignItemStatic$GT$17hbbf64181457e7895E', symObjAddr: 0x9720, symBinAddr: 0x54820, symSize: 0x1D0 }
  - { offsetInCU: 0x2AB32, offset: 0x16F396, size: 0x8, addend: 0x0, symName: '__ZN4core3ptr50drop_in_place$LT$$u5b$syn..item..ImplItem$u5d$$GT$17heaeedb7482bbc751E', symObjAddr: 0x98F0, symBinAddr: 0x549F0, symSize: 0x420 }
  - { offsetInCU: 0x2B290, offset: 0x16FAF4, size: 0x8, addend: 0x0, symName: '__ZN4core3ptr50drop_in_place$LT$syn..generics..BoundLifetimes$GT$17h1f764a5abcca3d7dE.llvm.4475236510565339259', symObjAddr: 0x9D10, symBinAddr: 0x54E10, symSize: 0x110 }
  - { offsetInCU: 0x2B710, offset: 0x16FF74, size: 0x8, addend: 0x0, symName: '__ZN4core3ptr50drop_in_place$LT$syn..generics..TypeParamBound$GT$17hdee7562eebe04f7aE', symObjAddr: 0x9E20, symBinAddr: 0x54F20, symSize: 0x80 }
  - { offsetInCU: 0x2B8D3, offset: 0x170137, size: 0x8, addend: 0x0, symName: '__ZN4core3ptr50drop_in_place$LT$syn..generics..WherePredicate$GT$17h5f6316e378219a95E.llvm.4475236510565339259', symObjAddr: 0x9EA0, symBinAddr: 0x54FA0, symSize: 0x110 }
  - { offsetInCU: 0x2BA87, offset: 0x1702EB, size: 0x8, addend: 0x0, symName: '__ZN4core3ptr51drop_in_place$LT$$u5b$syn..attr..Attribute$u5d$$GT$17h6de968ae5f58227dE.llvm.4475236510565339259', symObjAddr: 0x9FB0, symBinAddr: 0x550B0, symSize: 0x1A0 }
  - { offsetInCU: 0x2BE6D, offset: 0x1706D1, size: 0x8, addend: 0x0, symName: '__ZN4core3ptr51drop_in_place$LT$$u5b$syn..item..TraitItem$u5d$$GT$17hbd78c73fe5278d78E', symObjAddr: 0xA150, symBinAddr: 0x55250, symSize: 0x9D0 }
  - { offsetInCU: 0x2D880, offset: 0x1720E4, size: 0x8, addend: 0x0, symName: '__ZN4core3ptr51drop_in_place$LT$derivative..attr..FieldDefault$GT$17h9488281bc361fcc4E', symObjAddr: 0xAB20, symBinAddr: 0x55C20, symSize: 0x70 }
  - { offsetInCU: 0x2D947, offset: 0x1721AB, size: 0x8, addend: 0x0, symName: '__ZN4core3ptr53drop_in_place$LT$$u5b$syn..item..ForeignItem$u5d$$GT$17h83d2f73e08108b90E', symObjAddr: 0xAB90, symBinAddr: 0x55C90, symSize: 0xE80 }
  - { offsetInCU: 0x30424, offset: 0x174C88, size: 0x8, addend: 0x0, symName: '__ZN4core3ptr53drop_in_place$LT$derivative..matcher..BindingInfo$GT$17h6302cdf95d571aecE.llvm.4475236510565339259', symObjAddr: 0xBA10, symBinAddr: 0x56B10, symSize: 0x50 }
  - { offsetInCU: 0x30520, offset: 0x174D84, size: 0x8, addend: 0x0, symName: '__ZN4core3ptr58drop_in_place$LT$alloc..vec..Vec$LT$syn..expr..Arm$GT$$GT$17hdd3822aa758753c7E', symObjAddr: 0xBA60, symBinAddr: 0x56B60, symSize: 0xD0 }
  - { offsetInCU: 0x307E7, offset: 0x17504B, size: 0x8, addend: 0x0, symName: '__ZN4core3ptr59drop_in_place$LT$alloc..boxed..Box$LT$syn..pat..Pat$GT$$GT$17h48ec1dbe47a00c61E.llvm.4475236510565339259', symObjAddr: 0xBB30, symBinAddr: 0x56C30, symSize: 0x50 }
  - { offsetInCU: 0x30940, offset: 0x1751A4, size: 0x8, addend: 0x0, symName: '__ZN4core3ptr59drop_in_place$LT$alloc..boxed..Box$LT$syn..ty..Type$GT$$GT$17h454cab832bb38812E', symObjAddr: 0xBB80, symBinAddr: 0x56C80, symSize: 0x50 }
  - { offsetInCU: 0x30A99, offset: 0x1752FD, size: 0x8, addend: 0x0, symName: '__ZN4core3ptr59drop_in_place$LT$alloc..vec..Vec$LT$syn..item..Item$GT$$GT$17h34bf101bc85db3b4E', symObjAddr: 0xBBD0, symBinAddr: 0x56CD0, symSize: 0xD0 }
  - { offsetInCU: 0x30D60, offset: 0x1755C4, size: 0x8, addend: 0x0, symName: '__ZN4core3ptr61drop_in_place$LT$alloc..boxed..Box$LT$syn..expr..Expr$GT$$GT$17hbe6f5e1c721a6cd9E.llvm.4475236510565339259', symObjAddr: 0xBCA0, symBinAddr: 0x56DA0, symSize: 0x50 }
  - { offsetInCU: 0x30EB9, offset: 0x17571D, size: 0x8, addend: 0x0, symName: '__ZN4core3ptr61drop_in_place$LT$alloc..boxed..Box$LT$syn..path..Path$GT$$GT$17h9e197c428b4f16ceE', symObjAddr: 0xBCF0, symBinAddr: 0x56DF0, symSize: 0x50 }
  - { offsetInCU: 0x310E9, offset: 0x17594D, size: 0x8, addend: 0x0, symName: '__ZN4core3ptr61drop_in_place$LT$syn..path..ParenthesizedGenericArguments$GT$17h2d220a34adaf921bE.llvm.4475236510565339259', symObjAddr: 0xBD40, symBinAddr: 0x56E40, symSize: 0x170 }
  - { offsetInCU: 0x316E6, offset: 0x175F4A, size: 0x8, addend: 0x0, symName: '__ZN4core3ptr62drop_in_place$LT$alloc..boxed..Box$LT$syn..data..Field$GT$$GT$17hcd3434919f281438E', symObjAddr: 0xBEB0, symBinAddr: 0x56FB0, symSize: 0x50 }
  - { offsetInCU: 0x3185E, offset: 0x1760C2, size: 0x8, addend: 0x0, symName: '__ZN4core3ptr62drop_in_place$LT$alloc..boxed..Box$LT$syn..item..FnArg$GT$$GT$17hc4fcc51bfcec916dE', symObjAddr: 0xBF00, symBinAddr: 0x57000, symSize: 0x60 }
  - { offsetInCU: 0x319D4, offset: 0x176238, size: 0x8, addend: 0x0, symName: '__ZN4core3ptr62drop_in_place$LT$alloc..boxed..Box$LT$syn..stmt..Block$GT$$GT$17hbde72b585c7d70c0E', symObjAddr: 0xBF60, symBinAddr: 0x57060, symSize: 0xE0 }
  - { offsetInCU: 0x31DED, offset: 0x176651, size: 0x8, addend: 0x0, symName: '__ZN4core3ptr62drop_in_place$LT$syn..path..AngleBracketedGenericArguments$GT$17h1c6f7cd58bd7d821E.llvm.4475236510565339259', symObjAddr: 0xC040, symBinAddr: 0x57140, symSize: 0x120 }
  - { offsetInCU: 0x3226F, offset: 0x176AD3, size: 0x8, addend: 0x0, symName: '__ZN4core3ptr63drop_in_place$LT$alloc..vec..Vec$LT$syn..item..ImplItem$GT$$GT$17h097736606837446cE', symObjAddr: 0xC160, symBinAddr: 0x57260, symSize: 0x80 }
  - { offsetInCU: 0x32527, offset: 0x176D8B, size: 0x8, addend: 0x0, symName: '__ZN4core3ptr64drop_in_place$LT$alloc..boxed..Box$LT$syn..data..Variant$GT$$GT$17h86243cf9b0b906c7E', symObjAddr: 0xC1E0, symBinAddr: 0x572E0, symSize: 0x50 }
  - { offsetInCU: 0x32680, offset: 0x176EE4, size: 0x8, addend: 0x0, symName: '__ZN4core3ptr64drop_in_place$LT$alloc..boxed..Box$LT$syn..item..UseTree$GT$$GT$17h2a18ba7fffd42525E', symObjAddr: 0xC230, symBinAddr: 0x57330, symSize: 0x50 }
  - { offsetInCU: 0x32817, offset: 0x17707B, size: 0x8, addend: 0x0, symName: '__ZN4core3ptr64drop_in_place$LT$alloc..boxed..Box$LT$syn..pat..FieldPat$GT$$GT$17h8a4c0395922411f9E', symObjAddr: 0xC280, symBinAddr: 0x57380, symSize: 0x100 }
  - { offsetInCU: 0x32EDC, offset: 0x177740, size: 0x8, addend: 0x0, symName: '__ZN4core3ptr64drop_in_place$LT$alloc..boxed..Box$LT$syn..ty..BareFnArg$GT$$GT$17h145502f35dc7a34dE', symObjAddr: 0xC380, symBinAddr: 0x57480, symSize: 0xE0 }
  - { offsetInCU: 0x3341A, offset: 0x177C7E, size: 0x8, addend: 0x0, symName: '__ZN4core3ptr64drop_in_place$LT$alloc..vec..Vec$LT$syn..attr..Attribute$GT$$GT$17h41e2ed10f03c75c3E.llvm.4475236510565339259', symObjAddr: 0xC460, symBinAddr: 0x57560, symSize: 0xF0 }
  - { offsetInCU: 0x336FA, offset: 0x177F5E, size: 0x8, addend: 0x0, symName: '__ZN4core3ptr64drop_in_place$LT$alloc..vec..Vec$LT$syn..item..TraitItem$GT$$GT$17h41a9e90b1ece726bE', symObjAddr: 0xC550, symBinAddr: 0x57650, symSize: 0x80 }
  - { offsetInCU: 0x339B2, offset: 0x178216, size: 0x8, addend: 0x0, symName: '__ZN4core3ptr65drop_in_place$LT$$LP$syn..item..FnArg$C$syn..token..Comma$RP$$GT$17h9f1c12336be924aeE', symObjAddr: 0xC5D0, symBinAddr: 0x576D0, symSize: 0x20 }
  - { offsetInCU: 0x339EE, offset: 0x178252, size: 0x8, addend: 0x0, symName: '__ZN4core3ptr65drop_in_place$LT$alloc..vec..Vec$LT$proc_macro..TokenTree$GT$$GT$17h27434ef986fc0c8fE.llvm.4475236510565339259', symObjAddr: 0xC5F0, symBinAddr: 0x576F0, symSize: 0x110 }
  - { offsetInCU: 0x33DED, offset: 0x178651, size: 0x8, addend: 0x0, symName: '__ZN4core3ptr65drop_in_place$LT$core..option..Option$LT$syn..expr..Label$GT$$GT$17hf88e6caa939fd4b3E', symObjAddr: 0xC700, symBinAddr: 0x57800, symSize: 0x30 }
  - { offsetInCU: 0x33F27, offset: 0x17878B, size: 0x8, addend: 0x0, symName: '__ZN4core3ptr65drop_in_place$LT$core..option..Option$LT$syn..stmt..Block$GT$$GT$17h87f4abd9e6a06ce8E', symObjAddr: 0xC730, symBinAddr: 0x57830, symSize: 0xD0 }
  - { offsetInCU: 0x341FC, offset: 0x178A60, size: 0x8, addend: 0x0, symName: '__ZN4core3ptr66drop_in_place$LT$alloc..vec..Vec$LT$derivative..ast..Field$GT$$GT$17h3b6e5f36e682f9fbE', symObjAddr: 0xC800, symBinAddr: 0x57900, symSize: 0xD0 }
  - { offsetInCU: 0x34501, offset: 0x178D65, size: 0x8, addend: 0x0, symName: '__ZN4core3ptr66drop_in_place$LT$alloc..vec..Vec$LT$proc_macro2..TokenTree$GT$$GT$17h1e74667e6d90d503E', symObjAddr: 0xC8D0, symBinAddr: 0x579D0, symSize: 0xC0 }
  - { offsetInCU: 0x347D9, offset: 0x17903D, size: 0x8, addend: 0x0, symName: '__ZN4core3ptr66drop_in_place$LT$alloc..vec..Vec$LT$syn..item..ForeignItem$GT$$GT$17hb4fd662c6eb10c78E', symObjAddr: 0xC990, symBinAddr: 0x57A90, symSize: 0x80 }
  - { offsetInCU: 0x34A91, offset: 0x1792F5, size: 0x8, addend: 0x0, symName: '__ZN4core3ptr67drop_in_place$LT$$LP$syn..pat..FieldPat$C$syn..token..Comma$RP$$GT$17h531979bf24d87827E.llvm.4475236510565339259', symObjAddr: 0xCA10, symBinAddr: 0x57B10, symSize: 0xF0 }
  - { offsetInCU: 0x34FE3, offset: 0x179847, size: 0x8, addend: 0x0, symName: '__ZN4core3ptr67drop_in_place$LT$$LP$syn..ty..BareFnArg$C$syn..token..Comma$RP$$GT$17h76f6ff2f4b293781E.llvm.4475236510565339259', symObjAddr: 0xCB00, symBinAddr: 0x57C00, symSize: 0xD0 }
  - { offsetInCU: 0x353FD, offset: 0x179C61, size: 0x8, addend: 0x0, symName: '__ZN4core3ptr67drop_in_place$LT$alloc..boxed..Box$LT$syn..attr..NestedMeta$GT$$GT$17ha580df8ef7897d5cE.llvm.4475236510565339259', symObjAddr: 0xCBD0, symBinAddr: 0x57CD0, symSize: 0x180 }
  - { offsetInCU: 0x35736, offset: 0x179F9A, size: 0x8, addend: 0x0, symName: '__ZN4core3ptr67drop_in_place$LT$alloc..boxed..Box$LT$syn..expr..FieldValue$GT$$GT$17hee600943c39f373eE', symObjAddr: 0xCD50, symBinAddr: 0x57E50, symSize: 0xE0 }
  - { offsetInCU: 0x35C73, offset: 0x17A4D7, size: 0x8, addend: 0x0, symName: '__ZN4core3ptr68drop_in_place$LT$alloc..boxed..Box$LT$syn..path..PathSegment$GT$$GT$17he2e359177565069bE', symObjAddr: 0xCE30, symBinAddr: 0x57F30, symSize: 0xD0 }
  - { offsetInCU: 0x360AA, offset: 0x17A90E, size: 0x8, addend: 0x0, symName: '__ZN4core3ptr68drop_in_place$LT$alloc..vec..Vec$LT$derivative..ast..Variant$GT$$GT$17h2f655ad0f2d342bbE', symObjAddr: 0xCF00, symBinAddr: 0x58000, symSize: 0xD0 }
  - { offsetInCU: 0x36388, offset: 0x17ABEC, size: 0x8, addend: 0x0, symName: '__ZN4core3ptr70drop_in_place$LT$$LP$syn..attr..NestedMeta$C$syn..token..Comma$RP$$GT$17h7749dce7f2328fd0E.llvm.4475236510565339259', symObjAddr: 0xCFD0, symBinAddr: 0x580D0, symSize: 0x30 }
  - { offsetInCU: 0x363C4, offset: 0x17AC28, size: 0x8, addend: 0x0, symName: '__ZN4core3ptr70drop_in_place$LT$$LP$syn..expr..FieldValue$C$syn..token..Comma$RP$$GT$17h4838148b2d092228E.llvm.4475236510565339259', symObjAddr: 0xD000, symBinAddr: 0x58100, symSize: 0xD0 }
  - { offsetInCU: 0x367BE, offset: 0x17B022, size: 0x8, addend: 0x0, symName: '__ZN4core3ptr72drop_in_place$LT$$LP$syn..path..PathSegment$C$syn..token..Colon2$RP$$GT$17hadee91acd5ba4224E.llvm.4475236510565339259', symObjAddr: 0xD0D0, symBinAddr: 0x581D0, symSize: 0xC0 }
  - { offsetInCU: 0x36A81, offset: 0x17B2E5, size: 0x8, addend: 0x0, symName: '__ZN4core3ptr72drop_in_place$LT$alloc..boxed..Box$LT$syn..generics..LifetimeDef$GT$$GT$17h97c337ccc7f626feE', symObjAddr: 0xD190, symBinAddr: 0x58290, symSize: 0x80 }
  - { offsetInCU: 0x36D30, offset: 0x17B594, size: 0x8, addend: 0x0, symName: '__ZN4core3ptr72drop_in_place$LT$alloc..boxed..Box$LT$syn..path..GenericArgument$GT$$GT$17h193e4d7337ac8d1fE.llvm.4475236510565339259', symObjAddr: 0xD210, symBinAddr: 0x58310, symSize: 0x220 }
  - { offsetInCU: 0x375A0, offset: 0x17BE04, size: 0x8, addend: 0x0, symName: '__ZN4core3ptr73drop_in_place$LT$alloc..boxed..Box$LT$syn..generics..GenericParam$GT$$GT$17ha8b6f174f89d667dE', symObjAddr: 0xD430, symBinAddr: 0x58530, symSize: 0x80 }
  - { offsetInCU: 0x37716, offset: 0x17BF7A, size: 0x8, addend: 0x0, symName: '__ZN4core3ptr73drop_in_place$LT$alloc..vec..Vec$LT$syn..generics..WherePredicate$GT$$GT$17h6e47b26cbb7e8828E', symObjAddr: 0xD4B0, symBinAddr: 0x585B0, symSize: 0xD0 }
  - { offsetInCU: 0x379DD, offset: 0x17C241, size: 0x8, addend: 0x0, symName: '__ZN4core3ptr75drop_in_place$LT$$LP$syn..generics..LifetimeDef$C$syn..token..Comma$RP$$GT$17h8863d754f694b2aaE.llvm.4475236510565339259', symObjAddr: 0xD580, symBinAddr: 0x58680, symSize: 0x60 }
  - { offsetInCU: 0x37B1A, offset: 0x17C37E, size: 0x8, addend: 0x0, symName: '__ZN4core3ptr75drop_in_place$LT$$LP$syn..path..GenericArgument$C$syn..token..Comma$RP$$GT$17hf1354dce5b03bd64E.llvm.4475236510565339259', symObjAddr: 0xD5E0, symBinAddr: 0x586E0, symSize: 0x220 }
  - { offsetInCU: 0x3824E, offset: 0x17CAB2, size: 0x8, addend: 0x0, symName: '__ZN4core3ptr75drop_in_place$LT$alloc..boxed..Box$LT$syn..generics..TypeParamBound$GT$$GT$17h0d539f38c26df380E', symObjAddr: 0xD800, symBinAddr: 0x58900, symSize: 0x150 }
  - { offsetInCU: 0x387FB, offset: 0x17D05F, size: 0x8, addend: 0x0, symName: '__ZN4core3ptr75drop_in_place$LT$alloc..boxed..Box$LT$syn..generics..WherePredicate$GT$$GT$17ha9613780c100f350E', symObjAddr: 0xD950, symBinAddr: 0x58A50, symSize: 0x50 }
  - { offsetInCU: 0x38954, offset: 0x17D1B8, size: 0x8, addend: 0x0, symName: '__ZN4core3ptr76drop_in_place$LT$$LP$syn..generics..GenericParam$C$syn..token..Comma$RP$$GT$17h4adce2f2117203c3E.llvm.4475236510565339259', symObjAddr: 0xD9A0, symBinAddr: 0x58AA0, symSize: 0x50 }
  - { offsetInCU: 0x38990, offset: 0x17D1F4, size: 0x8, addend: 0x0, symName: '__ZN4core3ptr76drop_in_place$LT$$LP$syn..generics..TypeParamBound$C$syn..token..Add$RP$$GT$17hf913db4357631e83E.llvm.4475236510565339259', symObjAddr: 0xD9F0, symBinAddr: 0x58AF0, symSize: 0x160 }
  - { offsetInCU: 0x38E0F, offset: 0x17D673, size: 0x8, addend: 0x0, symName: '__ZN4core3ptr76drop_in_place$LT$alloc..vec..Vec$LT$derivative..matcher..BindingInfo$GT$$GT$17he8c6e023241e79d6E.llvm.4475236510565339259', symObjAddr: 0xDB50, symBinAddr: 0x58C50, symSize: 0x60 }
  - { offsetInCU: 0x3903C, offset: 0x17D8A0, size: 0x8, addend: 0x0, symName: '__ZN4core3ptr78drop_in_place$LT$alloc..boxed..Box$LT$syn..expr..GenericMethodArgument$GT$$GT$17h2e8ab754b2d35f4bE', symObjAddr: 0xDBB0, symBinAddr: 0x58CB0, symSize: 0x60 }
  - { offsetInCU: 0x391B2, offset: 0x17DA16, size: 0x8, addend: 0x0, symName: '__ZN4core3ptr81drop_in_place$LT$$LP$syn..expr..GenericMethodArgument$C$syn..token..Comma$RP$$GT$17h85e0da6b0d395bf4E.llvm.4475236510565339259', symObjAddr: 0xDC10, symBinAddr: 0x58D10, symSize: 0x30 }
  - { offsetInCU: 0x391EE, offset: 0x17DA52, size: 0x8, addend: 0x0, symName: '__ZN4core3ptr86drop_in_place$LT$$LP$syn..token..If$C$alloc..boxed..Box$LT$syn..expr..Expr$GT$$RP$$GT$17hb87fbba18db7333bE', symObjAddr: 0xDC40, symBinAddr: 0x58D40, symSize: 0x50 }
  - { offsetInCU: 0x39366, offset: 0x17DBCA, size: 0x8, addend: 0x0, symName: '__ZN4core3ptr86drop_in_place$LT$$u5b$$LP$syn..generics..TypeParamBound$C$syn..token..Add$RP$$u5d$$GT$17hd357c3560078a29aE', symObjAddr: 0xDC90, symBinAddr: 0x58D90, symSize: 0xE0 }
  - { offsetInCU: 0x39599, offset: 0x17DDFD, size: 0x8, addend: 0x0, symName: '__ZN4core3ptr86drop_in_place$LT$syn..punctuated..Punctuated$LT$syn..pat..Pat$C$syn..token..Or$GT$$GT$17h2004905335266fbeE', symObjAddr: 0xDD70, symBinAddr: 0x58E70, symSize: 0x120 }
  - { offsetInCU: 0x39A32, offset: 0x17E296, size: 0x8, addend: 0x0, symName: '__ZN4core3ptr87drop_in_place$LT$core..option..Option$LT$alloc..boxed..Box$LT$syn..pat..Pat$GT$$GT$$GT$17h9151a9d5e0aa7e1eE', symObjAddr: 0xDE90, symBinAddr: 0x58F90, symSize: 0x50 }
  - { offsetInCU: 0x39BA2, offset: 0x17E406, size: 0x8, addend: 0x0, symName: '__ZN4core3ptr87drop_in_place$LT$core..option..Option$LT$alloc..boxed..Box$LT$syn..ty..Type$GT$$GT$$GT$17hd3cb46ad48d34655E', symObjAddr: 0xDEE0, symBinAddr: 0x58FE0, symSize: 0x50 }
  - { offsetInCU: 0x39D12, offset: 0x17E576, size: 0x8, addend: 0x0, symName: '__ZN4core3ptr89drop_in_place$LT$core..option..Option$LT$alloc..boxed..Box$LT$syn..expr..Expr$GT$$GT$$GT$17h9693feaa41001291E', symObjAddr: 0xDF30, symBinAddr: 0x59030, symSize: 0x50 }
  - { offsetInCU: 0x39E82, offset: 0x17E6E6, size: 0x8, addend: 0x0, symName: '__ZN4core3ptr89drop_in_place$LT$syn..punctuated..Punctuated$LT$syn..ty..Type$C$syn..token..Comma$GT$$GT$17he63552f348a6dc51E.llvm.4475236510565339259', symObjAddr: 0xDF80, symBinAddr: 0x59080, symSize: 0x120 }
  - { offsetInCU: 0x3A304, offset: 0x17EB68, size: 0x8, addend: 0x0, symName: '__ZN4core3ptr90drop_in_place$LT$core..option..Option$LT$alloc..boxed..Box$LT$syn..data..Field$GT$$GT$$GT$17h885e62f652b164a6E', symObjAddr: 0xE0A0, symBinAddr: 0x591A0, symSize: 0x50 }
  - { offsetInCU: 0x3A474, offset: 0x17ECD8, size: 0x8, addend: 0x0, symName: '__ZN4core3ptr90drop_in_place$LT$core..option..Option$LT$alloc..boxed..Box$LT$syn..item..FnArg$GT$$GT$$GT$17h53a3a6b881432f4dE', symObjAddr: 0xE0F0, symBinAddr: 0x591F0, symSize: 0x50 }
  - { offsetInCU: 0x3A660, offset: 0x17EEC4, size: 0x8, addend: 0x0, symName: '__ZN4core3ptr91drop_in_place$LT$syn..punctuated..Punctuated$LT$syn..expr..Expr$C$syn..token..Comma$GT$$GT$17h4abaeb5cfb586772E', symObjAddr: 0xE140, symBinAddr: 0x59240, symSize: 0x120 }
  - { offsetInCU: 0x3AAF5, offset: 0x17F359, size: 0x8, addend: 0x0, symName: '__ZN4core3ptr92drop_in_place$LT$core..option..Option$LT$$LP$syn..token..As$C$proc_macro2..Ident$RP$$GT$$GT$17hc6045d82fef3f6b3E', symObjAddr: 0xE260, symBinAddr: 0x59360, symSize: 0x30 }
  - { offsetInCU: 0x3AC10, offset: 0x17F474, size: 0x8, addend: 0x0, symName: '__ZN4core3ptr92drop_in_place$LT$syn..punctuated..Punctuated$LT$syn..data..Field$C$syn..token..Comma$GT$$GT$17heb0dcf86736645d1E', symObjAddr: 0xE290, symBinAddr: 0x59390, symSize: 0x120 }
  - { offsetInCU: 0x3B092, offset: 0x17F8F6, size: 0x8, addend: 0x0, symName: '__ZN4core3ptr92drop_in_place$LT$syn..punctuated..Punctuated$LT$syn..item..FnArg$C$syn..token..Comma$GT$$GT$17hd3e5a197a1dc8f5eE', symObjAddr: 0xE3B0, symBinAddr: 0x594B0, symSize: 0x150 }
  - { offsetInCU: 0x3B523, offset: 0x17FD87, size: 0x8, addend: 0x0, symName: '__ZN4core3ptr93drop_in_place$LT$alloc..vec..Vec$LT$$LP$syn..attr..NestedMeta$C$syn..token..Comma$RP$$GT$$GT$17h7470b618f9583b46E.llvm.4475236510565339259', symObjAddr: 0xE500, symBinAddr: 0x59600, symSize: 0xF0 }
  - { offsetInCU: 0x3B8D4, offset: 0x180138, size: 0x8, addend: 0x0, symName: '__ZN4core3ptr94drop_in_place$LT$syn..punctuated..Punctuated$LT$syn..data..Variant$C$syn..token..Comma$GT$$GT$17h29154b06f55e4e90E', symObjAddr: 0xE5F0, symBinAddr: 0x596F0, symSize: 0x120 }
  - { offsetInCU: 0x3BDE5, offset: 0x180649, size: 0x8, addend: 0x0, symName: '__ZN4core3ptr94drop_in_place$LT$syn..punctuated..Punctuated$LT$syn..pat..FieldPat$C$syn..token..Comma$GT$$GT$17hf9927b8b52e25a50E', symObjAddr: 0xE710, symBinAddr: 0x59810, symSize: 0xF0 }
  - { offsetInCU: 0x3C17A, offset: 0x1809DE, size: 0x8, addend: 0x0, symName: '__ZN4core3ptr94drop_in_place$LT$syn..punctuated..Punctuated$LT$syn..ty..BareFnArg$C$syn..token..Comma$GT$$GT$17h577c8aa515f26074E', symObjAddr: 0xE800, symBinAddr: 0x59900, symSize: 0xF0 }
  - { offsetInCU: 0x3C491, offset: 0x180CF5, size: 0x8, addend: 0x0, symName: '__ZN4core3ptr95drop_in_place$LT$core..option..Option$LT$$LP$proc_macro2..Ident$C$syn..token..Colon$RP$$GT$$GT$17hcf8e5710bca584bbE.llvm.4475236510565339259', symObjAddr: 0xE8F0, symBinAddr: 0x599F0, symSize: 0x30 }
  - { offsetInCU: 0x3C5AC, offset: 0x180E10, size: 0x8, addend: 0x0, symName: '__ZN4core3ptr95drop_in_place$LT$core..option..Option$LT$alloc..boxed..Box$LT$syn..attr..NestedMeta$GT$$GT$$GT$17h275352fed8fdd97aE.llvm.4475236510565339259', symObjAddr: 0xE920, symBinAddr: 0x59A20, symSize: 0xC0 }
  - { offsetInCU: 0x3C706, offset: 0x180F6A, size: 0x8, addend: 0x0, symName: '__ZN4core3ptr96drop_in_place$LT$core..option..Option$LT$alloc..boxed..Box$LT$syn..path..PathSegment$GT$$GT$$GT$17hb35e105c29269971E.llvm.4475236510565339259', symObjAddr: 0xE9E0, symBinAddr: 0x59AE0, symSize: 0x90 }
  - { offsetInCU: 0x3C9A4, offset: 0x181208, size: 0x8, addend: 0x0, symName: '__ZN4core3ptr97drop_in_place$LT$syn..punctuated..Punctuated$LT$syn..attr..NestedMeta$C$syn..token..Comma$GT$$GT$17h80d0bc3906f4abdeE.llvm.4475236510565339259', symObjAddr: 0xEAC0, symBinAddr: 0x59B70, symSize: 0x110 }
  - { offsetInCU: 0x3CD4D, offset: 0x1815B1, size: 0x8, addend: 0x0, symName: '__ZN4core3ptr97drop_in_place$LT$syn..punctuated..Punctuated$LT$syn..expr..FieldValue$C$syn..token..Comma$GT$$GT$17h15366382fde2131eE', symObjAddr: 0xEBD0, symBinAddr: 0x59C80, symSize: 0xF0 }
  - { offsetInCU: 0x3D0FF, offset: 0x181963, size: 0x8, addend: 0x0, symName: '__ZN4core3ptr97drop_in_place$LT$syn..punctuated..Punctuated$LT$syn..lifetime..Lifetime$C$syn..token..Add$GT$$GT$17hd50f0bf96210475aE.llvm.4475236510565339259', symObjAddr: 0xECC0, symBinAddr: 0x59D70, symSize: 0xD0 }
  - { offsetInCU: 0x3D571, offset: 0x181DD5, size: 0x8, addend: 0x0, symName: '__ZN4core3ptr99drop_in_place$LT$syn..punctuated..Punctuated$LT$syn..path..PathSegment$C$syn..token..Colon2$GT$$GT$17h603ba227c074f4bfE.llvm.4475236510565339259', symObjAddr: 0xED90, symBinAddr: 0x59E40, symSize: 0x1A0 }
  - { offsetInCU: 0x41370, offset: 0x185BD4, size: 0x8, addend: 0x0, symName: '__ZN106_$LT$core..iter..adapters..chain..Chain$LT$A$C$B$GT$$u20$as$u20$core..iter..traits..iterator..Iterator$GT$4next17hfe20fa769fbaa708E', symObjAddr: 0x0, symBinAddr: 0x4B100, symSize: 0x1C0 }
  - { offsetInCU: 0x438E5, offset: 0x188149, size: 0x8, addend: 0x0, symName: '__ZN48_$LT$T$u20$as$u20$core..clone..CloneToUninit$GT$15clone_to_uninit17h152485f7f3cab980E', symObjAddr: 0x4E0, symBinAddr: 0x4B5E0, symSize: 0x330 }
  - { offsetInCU: 0x4A054, offset: 0x18E8B8, size: 0x8, addend: 0x0, symName: '__ZN111_$LT$alloc..vec..Vec$LT$T$GT$$u20$as$u20$alloc..vec..spec_from_iter_nested..SpecFromIterNested$LT$T$C$I$GT$$GT$9from_iter17hbdf74b5956c850b1E', symObjAddr: 0x1C0, symBinAddr: 0x4B2C0, symSize: 0x320 }
  - { offsetInCU: 0x4B414, offset: 0x18FC78, size: 0x8, addend: 0x0, symName: '__ZN70_$LT$alloc..vec..Vec$LT$T$C$A$GT$$u20$as$u20$core..ops..drop..Drop$GT$4drop17h2466104b3ed77983E', symObjAddr: 0xF210, symBinAddr: 0x59FE0, symSize: 0xB0 }
  - { offsetInCU: 0x4B54B, offset: 0x18FDAF, size: 0x8, addend: 0x0, symName: '__ZN70_$LT$alloc..vec..Vec$LT$T$C$A$GT$$u20$as$u20$core..ops..drop..Drop$GT$4drop17ha6db9f6223285f59E', symObjAddr: 0xF8B0, symBinAddr: 0x5A090, symSize: 0xA0 }
  - { offsetInCU: 0x4B695, offset: 0x18FEF9, size: 0x8, addend: 0x0, symName: '__ZN70_$LT$alloc..vec..Vec$LT$T$C$A$GT$$u20$as$u20$core..ops..drop..Drop$GT$4drop17hab60988e582ba244E', symObjAddr: 0xF950, symBinAddr: 0x5A130, symSize: 0xC0 }
  - { offsetInCU: 0x4BD78, offset: 0x1905DC, size: 0x8, addend: 0x0, symName: '__ZN98_$LT$alloc..vec..Vec$LT$T$GT$$u20$as$u20$alloc..vec..spec_from_iter..SpecFromIter$LT$T$C$I$GT$$GT$9from_iter17h2f59a0e32a98cc75E', symObjAddr: 0x102D0, symBinAddr: 0x5A1F0, symSize: 0x3C0 }
  - { offsetInCU: 0x4C7B2, offset: 0x191016, size: 0x8, addend: 0x0, symName: '__ZN98_$LT$alloc..vec..Vec$LT$T$GT$$u20$as$u20$alloc..vec..spec_from_iter..SpecFromIter$LT$T$C$I$GT$$GT$9from_iter17h36e1c52a51bb12f8E', symObjAddr: 0x10690, symBinAddr: 0x5A5B0, symSize: 0x120 }
  - { offsetInCU: 0x4CB47, offset: 0x1913AB, size: 0x8, addend: 0x0, symName: '__ZN98_$LT$alloc..vec..Vec$LT$T$GT$$u20$as$u20$alloc..vec..spec_from_iter..SpecFromIter$LT$T$C$I$GT$$GT$9from_iter17h3e7be0ae4b49a247E', symObjAddr: 0x107B0, symBinAddr: 0x5A6D0, symSize: 0x120 }
  - { offsetInCU: 0x4CEDC, offset: 0x191740, size: 0x8, addend: 0x0, symName: '__ZN98_$LT$alloc..vec..Vec$LT$T$GT$$u20$as$u20$alloc..vec..spec_from_iter..SpecFromIter$LT$T$C$I$GT$$GT$9from_iter17h608ac7ff24094ed3E', symObjAddr: 0x108D0, symBinAddr: 0x5A7F0, symSize: 0x2F0 }
  - { offsetInCU: 0x4DF9C, offset: 0x192800, size: 0x8, addend: 0x0, symName: '__ZN98_$LT$alloc..vec..Vec$LT$T$GT$$u20$as$u20$alloc..vec..spec_from_iter..SpecFromIter$LT$T$C$I$GT$$GT$9from_iter17h704c94bf3bdd8a74E', symObjAddr: 0x10BC0, symBinAddr: 0x5AAE0, symSize: 0x120 }
  - { offsetInCU: 0x4E331, offset: 0x192B95, size: 0x8, addend: 0x0, symName: '__ZN98_$LT$alloc..vec..Vec$LT$T$GT$$u20$as$u20$alloc..vec..spec_from_iter..SpecFromIter$LT$T$C$I$GT$$GT$9from_iter17h788cb98285d4bbd5E', symObjAddr: 0x10CE0, symBinAddr: 0x5AC00, symSize: 0x2A0 }
  - { offsetInCU: 0x4EF08, offset: 0x19376C, size: 0x8, addend: 0x0, symName: '__ZN98_$LT$alloc..vec..Vec$LT$T$GT$$u20$as$u20$alloc..vec..spec_from_iter..SpecFromIter$LT$T$C$I$GT$$GT$9from_iter17h7f2b8ca019b827ffE', symObjAddr: 0x10F80, symBinAddr: 0x5AEA0, symSize: 0x380 }
  - { offsetInCU: 0x4F9C7, offset: 0x19422B, size: 0x8, addend: 0x0, symName: '__ZN98_$LT$alloc..vec..Vec$LT$T$GT$$u20$as$u20$alloc..vec..spec_from_iter..SpecFromIter$LT$T$C$I$GT$$GT$9from_iter17h9c4c918f9f0d297bE', symObjAddr: 0x11300, symBinAddr: 0x5B220, symSize: 0x380 }
  - { offsetInCU: 0x50486, offset: 0x194CEA, size: 0x8, addend: 0x0, symName: '__ZN98_$LT$alloc..vec..Vec$LT$T$GT$$u20$as$u20$alloc..vec..spec_from_iter..SpecFromIter$LT$T$C$I$GT$$GT$9from_iter17h9c8cae56a67b6a23E', symObjAddr: 0x11680, symBinAddr: 0x5B5A0, symSize: 0x120 }
  - { offsetInCU: 0x5081B, offset: 0x19507F, size: 0x8, addend: 0x0, symName: '__ZN98_$LT$alloc..vec..Vec$LT$T$GT$$u20$as$u20$alloc..vec..spec_from_iter..SpecFromIter$LT$T$C$I$GT$$GT$9from_iter17hb5b0b8d22b2bade8E', symObjAddr: 0x117A0, symBinAddr: 0x5B6C0, symSize: 0x120 }
  - { offsetInCU: 0x50BB0, offset: 0x195414, size: 0x8, addend: 0x0, symName: '__ZN98_$LT$alloc..vec..Vec$LT$T$GT$$u20$as$u20$alloc..vec..spec_from_iter..SpecFromIter$LT$T$C$I$GT$$GT$9from_iter17hb85a4125b4dc83ffE', symObjAddr: 0x118C0, symBinAddr: 0x5B7E0, symSize: 0x120 }
  - { offsetInCU: 0x50F45, offset: 0x1957A9, size: 0x8, addend: 0x0, symName: '__ZN98_$LT$alloc..vec..Vec$LT$T$GT$$u20$as$u20$alloc..vec..spec_from_iter..SpecFromIter$LT$T$C$I$GT$$GT$9from_iter17hee1b3ba579dfd9a4E', symObjAddr: 0x119E0, symBinAddr: 0x5B900, symSize: 0x120 }
  - { offsetInCU: 0x1721, offset: 0x1A301E, size: 0x8, addend: 0x0, symName: '__ZN4core3ptr100drop_in_place$LT$core..option..Option$LT$alloc..boxed..Box$LT$syn..generics..LifetimeDef$GT$$GT$$GT$17h82b6930fbf453d3cE', symObjAddr: 0x3CB0, symBinAddr: 0x5BE30, symSize: 0x50 }
  - { offsetInCU: 0x18A3, offset: 0x1A31A0, size: 0x8, addend: 0x0, symName: '__ZN4core3ptr100drop_in_place$LT$core..option..Option$LT$alloc..boxed..Box$LT$syn..path..GenericArgument$GT$$GT$$GT$17hdec1aac3c1c32b1aE', symObjAddr: 0x3D00, symBinAddr: 0x5BE80, symSize: 0x50 }
  - { offsetInCU: 0x1B68, offset: 0x1A3465, size: 0x8, addend: 0x0, symName: '__ZN4core3ptr101drop_in_place$LT$core..option..Option$LT$alloc..boxed..Box$LT$syn..generics..GenericParam$GT$$GT$$GT$17he31815cd43ed0b1bE.llvm.855718832074822891', symObjAddr: 0x3D50, symBinAddr: 0x5BED0, symSize: 0x310 }
  - { offsetInCU: 0x2565, offset: 0x1A3E62, size: 0x8, addend: 0x0, symName: '__ZN4core3ptr103drop_in_place$LT$core..option..Option$LT$alloc..boxed..Box$LT$syn..generics..TypeParamBound$GT$$GT$$GT$17h4e76aebe6f41d1a7E', symObjAddr: 0x4060, symBinAddr: 0x5C1E0, symSize: 0x90 }
  - { offsetInCU: 0x289C, offset: 0x1A4199, size: 0x8, addend: 0x0, symName: '__ZN4core3ptr103drop_in_place$LT$core..option..Option$LT$alloc..boxed..Box$LT$syn..generics..WherePredicate$GT$$GT$$GT$17h3290cb3de36508f1E.llvm.855718832074822891', symObjAddr: 0x40F0, symBinAddr: 0x5C270, symSize: 0x120 }
  - { offsetInCU: 0x2BB6, offset: 0x1A44B3, size: 0x8, addend: 0x0, symName: '__ZN4core3ptr103drop_in_place$LT$syn..punctuated..Punctuated$LT$syn..generics..GenericParam$C$syn..token..Comma$GT$$GT$17hee00b3f5faf5db24E.llvm.855718832074822891', symObjAddr: 0x4210, symBinAddr: 0x5C390, symSize: 0x70 }
  - { offsetInCU: 0x2ED1, offset: 0x1A47CE, size: 0x8, addend: 0x0, symName: '__ZN4core3ptr103drop_in_place$LT$syn..punctuated..Punctuated$LT$syn..generics..TypeParamBound$C$syn..token..Add$GT$$GT$17h283d6fefb1c71cfaE', symObjAddr: 0x4280, symBinAddr: 0x5C400, symSize: 0x200 }
  - { offsetInCU: 0x37AF, offset: 0x1A50AC, size: 0x8, addend: 0x0, symName: '__ZN4core3ptr108drop_in_place$LT$syn..punctuated..Punctuated$LT$syn..expr..GenericMethodArgument$C$syn..token..Comma$GT$$GT$17h2aec9c03103ab694E', symObjAddr: 0x4480, symBinAddr: 0x5C600, symSize: 0x150 }
  - { offsetInCU: 0x3CAB, offset: 0x1A55A8, size: 0x8, addend: 0x0, symName: '__ZN4core3ptr184drop_in_place$LT$core..iter..adapters..map..Map$LT$syn..generics..TypeParams$C$derivative..bound..with_bound$LT$derivative..cmp..needs_eq_bound$GT$..$u7b$$u7b$closure$u7d$$u7d$$GT$$GT$17h930b9ef055c61663E', symObjAddr: 0x45D0, symBinAddr: 0x5C750, symSize: 0x30 }
  - { offsetInCU: 0x3EC9, offset: 0x1A57C6, size: 0x8, addend: 0x0, symName: '__ZN4core3ptr34drop_in_place$LT$syn..lit..Lit$GT$17ha842b5e81e8582b3E', symObjAddr: 0x4600, symBinAddr: 0x5C780, symSize: 0x110 }
  - { offsetInCU: 0x433B, offset: 0x1A5C38, size: 0x8, addend: 0x0, symName: '__ZN4core3ptr34drop_in_place$LT$syn..pat..Pat$GT$17h0621b062377aebcbE', symObjAddr: 0x4710, symBinAddr: 0x5C890, symSize: 0x1190 }
  - { offsetInCU: 0x8253, offset: 0x1A9B50, size: 0x8, addend: 0x0, symName: '__ZN4core3ptr34drop_in_place$LT$syn..ty..Type$GT$17h3d55b11c281dc967E.llvm.855718832074822891', symObjAddr: 0x58A0, symBinAddr: 0x5DA20, symSize: 0x580 }
  - { offsetInCU: 0x9B64, offset: 0x1AB461, size: 0x8, addend: 0x0, symName: '__ZN4core3ptr36drop_in_place$LT$syn..expr..Expr$GT$17h68b218bdcee4a3c7E', symObjAddr: 0x5E20, symBinAddr: 0x5DFA0, symSize: 0x3290 }
  - { offsetInCU: 0x143F5, offset: 0x1B5CF2, size: 0x8, addend: 0x0, symName: '__ZN4core3ptr36drop_in_place$LT$syn..mac..Macro$GT$17h158bcec479486e24E', symObjAddr: 0x90B0, symBinAddr: 0x61230, symSize: 0x40 }
  - { offsetInCU: 0x14546, offset: 0x1B5E43, size: 0x8, addend: 0x0, symName: '__ZN4core3ptr36drop_in_place$LT$syn..path..Path$GT$17hdc92c6b0523379a3E', symObjAddr: 0x90F0, symBinAddr: 0x61270, symSize: 0x230 }
  - { offsetInCU: 0x14EDC, offset: 0x1B67D9, size: 0x8, addend: 0x0, symName: '__ZN4core3ptr37drop_in_place$LT$syn..stmt..Block$GT$17hfffa15f159ccade9E', symObjAddr: 0x9320, symBinAddr: 0x614A0, symSize: 0xD0 }
  - { offsetInCU: 0x151B3, offset: 0x1B6AB0, size: 0x8, addend: 0x0, symName: '__ZN4core3ptr38drop_in_place$LT$syn..expr..Member$GT$17h24b2f28a51f276afE', symObjAddr: 0x93F0, symBinAddr: 0x61570, symSize: 0x30 }
  - { offsetInCU: 0x152AF, offset: 0x1B6BAC, size: 0x8, addend: 0x0, symName: '__ZN4core3ptr39drop_in_place$LT$proc_macro2..Ident$GT$17he0509ca0076c6db2E', symObjAddr: 0x9420, symBinAddr: 0x615A0, symSize: 0x30 }
  - { offsetInCU: 0x1538C, offset: 0x1B6C89, size: 0x8, addend: 0x0, symName: '__ZN4core3ptr39drop_in_place$LT$syn..pat..PatTuple$GT$17ha1d19a764bcc1cb3E', symObjAddr: 0x9450, symBinAddr: 0x615D0, symSize: 0x100 }
  - { offsetInCU: 0x15695, offset: 0x1B6F92, size: 0x8, addend: 0x0, symName: '__ZN4core3ptr40drop_in_place$LT$syn..ty..ReturnType$GT$17h2d60777f70ee0d22E', symObjAddr: 0x9550, symBinAddr: 0x616D0, symSize: 0x50 }
  - { offsetInCU: 0x15824, offset: 0x1B7121, size: 0x8, addend: 0x0, symName: '__ZN4core3ptr44drop_in_place$LT$syn..generics..Generics$GT$17h04fed1a77f85cbfaE.llvm.855718832074822891', symObjAddr: 0x95A0, symBinAddr: 0x61720, symSize: 0xA0 }
  - { offsetInCU: 0x15A90, offset: 0x1B738D, size: 0x8, addend: 0x0, symName: '__ZN4core3ptr44drop_in_place$LT$syn..lifetime..Lifetime$GT$17he83b0b529a581d24E', symObjAddr: 0x9640, symBinAddr: 0x617C0, symSize: 0x30 }
  - { offsetInCU: 0x15CC2, offset: 0x1B75BF, size: 0x8, addend: 0x0, symName: '__ZN4core3ptr45drop_in_place$LT$proc_macro2..TokenStream$GT$17h7e9a94df6c9afdc7E.llvm.855718832074822891', symObjAddr: 0x9670, symBinAddr: 0x617F0, symSize: 0x140 }
  - { offsetInCU: 0x1611E, offset: 0x1B7A1B, size: 0x8, addend: 0x0, symName: '__ZN4core3ptr47drop_in_place$LT$syn..generics..LifetimeDef$GT$17h8d3cfa3ea57a860bE', symObjAddr: 0x97B0, symBinAddr: 0x61930, symSize: 0x120 }
  - { offsetInCU: 0x16579, offset: 0x1B7E76, size: 0x8, addend: 0x0, symName: '__ZN4core3ptr47drop_in_place$LT$syn..path..GenericArgument$GT$17hc55a20af1acae48eE', symObjAddr: 0x98D0, symBinAddr: 0x61A50, symSize: 0x110 }
  - { offsetInCU: 0x168F1, offset: 0x1B81EE, size: 0x8, addend: 0x0, symName: '__ZN4core3ptr589drop_in_place$LT$core..iter..adapters..flatten..FlatMap$LT$core..iter..adapters..flatten..FlatMap$LT$core..slice..iter..Iter$LT$$RF$derivative..ast..Field$GT$$C$core..option..Option$LT$$RF$$u5b$syn..generics..WherePredicate$u5d$$GT$$C$derivative..bound..with_where_predicates_from_fields$LT$derivative..hash..derive..$u7b$$u7b$closure$u7d$$u7d$$GT$..$u7b$$u7b$closure$u7d$$u7d$$GT$$C$alloc..vec..Vec$LT$syn..generics..WherePredicate$GT$$C$derivative..bound..with_where_predicates_from_fields$LT$derivative..hash..derive..$u7b$$u7b$closure$u7d$$u7d$$GT$..$u7b$$u7b$closure$u7d$$u7d$$GT$$GT$17h8bf2bd4299f28376E.llvm.855718832074822891', symObjAddr: 0x99E0, symBinAddr: 0x61B60, symSize: 0x0 }
  - { offsetInCU: 0x169D6, offset: 0x1B82D3, size: 0x8, addend: 0x0, symName: '__ZN4core3ptr58drop_in_place$LT$alloc..vec..Vec$LT$syn..expr..Arm$GT$$GT$17hdd3822aa758753c7E', symObjAddr: 0x9A40, symBinAddr: 0x61BC0, symSize: 0xD0 }
  - { offsetInCU: 0x16C96, offset: 0x1B8593, size: 0x8, addend: 0x0, symName: '__ZN4core3ptr59drop_in_place$LT$alloc..boxed..Box$LT$syn..pat..Pat$GT$$GT$17h48ec1dbe47a00c61E', symObjAddr: 0x9B10, symBinAddr: 0x61C90, symSize: 0x50 }
  - { offsetInCU: 0x16DEF, offset: 0x1B86EC, size: 0x8, addend: 0x0, symName: '__ZN4core3ptr59drop_in_place$LT$alloc..boxed..Box$LT$syn..ty..Type$GT$$GT$17h454cab832bb38812E', symObjAddr: 0x9B60, symBinAddr: 0x61CE0, symSize: 0x50 }
  - { offsetInCU: 0x16F48, offset: 0x1B8845, size: 0x8, addend: 0x0, symName: '__ZN4core3ptr61drop_in_place$LT$alloc..boxed..Box$LT$syn..expr..Expr$GT$$GT$17hbe6f5e1c721a6cd9E', symObjAddr: 0x9BB0, symBinAddr: 0x61D30, symSize: 0x50 }
  - { offsetInCU: 0x1711D, offset: 0x1B8A1A, size: 0x8, addend: 0x0, symName: '__ZN4core3ptr61drop_in_place$LT$syn..path..ParenthesizedGenericArguments$GT$17h2d220a34adaf921bE', symObjAddr: 0x9C00, symBinAddr: 0x61D80, symSize: 0x170 }
  - { offsetInCU: 0x17713, offset: 0x1B9010, size: 0x8, addend: 0x0, symName: '__ZN4core3ptr63drop_in_place$LT$alloc..boxed..Box$LT$syn..lit..LitRepr$GT$$GT$17h44c55dd7d5499a10E', symObjAddr: 0x9D70, symBinAddr: 0x61EF0, symSize: 0x60 }
  - { offsetInCU: 0x17A1A, offset: 0x1B9317, size: 0x8, addend: 0x0, symName: '__ZN4core3ptr64drop_in_place$LT$alloc..boxed..Box$LT$syn..pat..FieldPat$GT$$GT$17h8a4c0395922411f9E', symObjAddr: 0x9DD0, symBinAddr: 0x61F50, symSize: 0x180 }
  - { offsetInCU: 0x18137, offset: 0x1B9A34, size: 0x8, addend: 0x0, symName: '__ZN4core3ptr64drop_in_place$LT$alloc..boxed..Box$LT$syn..ty..BareFnArg$GT$$GT$17h145502f35dc7a34dE', symObjAddr: 0x9F50, symBinAddr: 0x620D0, symSize: 0x160 }
  - { offsetInCU: 0x186CD, offset: 0x1B9FCA, size: 0x8, addend: 0x0, symName: '__ZN4core3ptr65drop_in_place$LT$alloc..vec..Vec$LT$proc_macro..TokenTree$GT$$GT$17h27434ef986fc0c8fE.llvm.855718832074822891', symObjAddr: 0xA0B0, symBinAddr: 0x62230, symSize: 0x110 }
  - { offsetInCU: 0x18AC5, offset: 0x1BA3C2, size: 0x8, addend: 0x0, symName: '__ZN4core3ptr65drop_in_place$LT$core..option..Option$LT$syn..expr..Label$GT$$GT$17hf88e6caa939fd4b3E', symObjAddr: 0xA1C0, symBinAddr: 0x62340, symSize: 0x30 }
  - { offsetInCU: 0x18BFF, offset: 0x1BA4FC, size: 0x8, addend: 0x0, symName: '__ZN4core3ptr66drop_in_place$LT$core..option..Option$LT$syn..ty..Variadic$GT$$GT$17hd53494a084af7b6fE', symObjAddr: 0xA1F0, symBinAddr: 0x62370, symSize: 0xF0 }
  - { offsetInCU: 0x18F29, offset: 0x1BA826, size: 0x8, addend: 0x0, symName: '__ZN4core3ptr67drop_in_place$LT$alloc..boxed..Box$LT$syn..expr..FieldValue$GT$$GT$17hee600943c39f373eE', symObjAddr: 0xA2E0, symBinAddr: 0x62460, symSize: 0x160 }
  - { offsetInCU: 0x194BE, offset: 0x1BADBB, size: 0x8, addend: 0x0, symName: '__ZN4core3ptr68drop_in_place$LT$alloc..boxed..Box$LT$syn..path..PathSegment$GT$$GT$17he2e359177565069bE', symObjAddr: 0xA440, symBinAddr: 0x625C0, symSize: 0x190 }
  - { offsetInCU: 0x19C06, offset: 0x1BB503, size: 0x8, addend: 0x0, symName: '__ZN4core3ptr72drop_in_place$LT$alloc..boxed..Box$LT$syn..path..GenericArgument$GT$$GT$17h193e4d7337ac8d1fE', symObjAddr: 0xA600, symBinAddr: 0x62750, symSize: 0x1D0 }
  - { offsetInCU: 0x1A32D, offset: 0x1BBC2A, size: 0x8, addend: 0x0, symName: '__ZN4core3ptr72drop_in_place$LT$core..option..Option$LT$syn..lifetime..Lifetime$GT$$GT$17h496ffbcd02d279ceE', symObjAddr: 0xA7D0, symBinAddr: 0x62920, symSize: 0x30 }
  - { offsetInCU: 0x1A467, offset: 0x1BBD64, size: 0x8, addend: 0x0, symName: '__ZN4core3ptr73drop_in_place$LT$alloc..vec..Vec$LT$syn..generics..WherePredicate$GT$$GT$17h6e47b26cbb7e8828E.llvm.855718832074822891', symObjAddr: 0xA800, symBinAddr: 0x62950, symSize: 0xD0 }
  - { offsetInCU: 0x1A73A, offset: 0x1BC037, size: 0x8, addend: 0x0, symName: '__ZN4core3ptr75drop_in_place$LT$alloc..boxed..Box$LT$syn..generics..TypeParamBound$GT$$GT$17h0d539f38c26df380E', symObjAddr: 0xA8D0, symBinAddr: 0x62A20, symSize: 0x140 }
  - { offsetInCU: 0x1AD11, offset: 0x1BC60E, size: 0x8, addend: 0x0, symName: '__ZN4core3ptr75drop_in_place$LT$core..option..Option$LT$syn..generics..WhereClause$GT$$GT$17h84be8bcb2f09b9d1E.llvm.855718832074822891', symObjAddr: 0xAA10, symBinAddr: 0x62B60, symSize: 0xF0 }
  - { offsetInCU: 0x1B067, offset: 0x1BC964, size: 0x8, addend: 0x0, symName: '__ZN4core3ptr78drop_in_place$LT$alloc..boxed..Box$LT$syn..expr..GenericMethodArgument$GT$$GT$17h2e8ab754b2d35f4bE', symObjAddr: 0xAB00, symBinAddr: 0x62C50, symSize: 0x60 }
  - { offsetInCU: 0x1B278, offset: 0x1BCB75, size: 0x8, addend: 0x0, symName: '__ZN4core3ptr78drop_in_place$LT$core..option..Option$LT$syn..generics..BoundLifetimes$GT$$GT$17he70d317fbad5b599E', symObjAddr: 0xAB60, symBinAddr: 0x62CB0, symSize: 0xC0 }
  - { offsetInCU: 0x1B6AE, offset: 0x1BCFAB, size: 0x8, addend: 0x0, symName: '__ZN4core3ptr86drop_in_place$LT$syn..punctuated..Punctuated$LT$syn..pat..Pat$C$syn..token..Or$GT$$GT$17h2004905335266fbeE', symObjAddr: 0xAC20, symBinAddr: 0x62D70, symSize: 0x120 }
  - { offsetInCU: 0x1BB29, offset: 0x1BD426, size: 0x8, addend: 0x0, symName: '__ZN4core3ptr87drop_in_place$LT$core..option..Option$LT$alloc..boxed..Box$LT$syn..pat..Pat$GT$$GT$$GT$17h9151a9d5e0aa7e1eE', symObjAddr: 0xAD40, symBinAddr: 0x62E90, symSize: 0x50 }
  - { offsetInCU: 0x1BC99, offset: 0x1BD596, size: 0x8, addend: 0x0, symName: '__ZN4core3ptr87drop_in_place$LT$core..option..Option$LT$alloc..boxed..Box$LT$syn..ty..Type$GT$$GT$$GT$17hd3cb46ad48d34655E', symObjAddr: 0xAD90, symBinAddr: 0x62EE0, symSize: 0x50 }
  - { offsetInCU: 0x1BE09, offset: 0x1BD706, size: 0x8, addend: 0x0, symName: '__ZN4core3ptr89drop_in_place$LT$core..option..Option$LT$alloc..boxed..Box$LT$syn..expr..Expr$GT$$GT$$GT$17h9693feaa41001291E', symObjAddr: 0xADE0, symBinAddr: 0x62F30, symSize: 0x50 }
  - { offsetInCU: 0x1BFB7, offset: 0x1BD8B4, size: 0x8, addend: 0x0, symName: '__ZN4core3ptr89drop_in_place$LT$syn..punctuated..Punctuated$LT$syn..pat..Pat$C$syn..token..Comma$GT$$GT$17hc735db3a40e860f2E', symObjAddr: 0xAE30, symBinAddr: 0x62F80, symSize: 0x120 }
  - { offsetInCU: 0x1C449, offset: 0x1BDD46, size: 0x8, addend: 0x0, symName: '__ZN4core3ptr89drop_in_place$LT$syn..punctuated..Punctuated$LT$syn..ty..Type$C$syn..token..Comma$GT$$GT$17he63552f348a6dc51E', symObjAddr: 0xAF50, symBinAddr: 0x630A0, symSize: 0x120 }
  - { offsetInCU: 0x1C902, offset: 0x1BE1FF, size: 0x8, addend: 0x0, symName: '__ZN4core3ptr91drop_in_place$LT$syn..punctuated..Punctuated$LT$syn..expr..Expr$C$syn..token..Comma$GT$$GT$17h4abaeb5cfb586772E', symObjAddr: 0xB070, symBinAddr: 0x631C0, symSize: 0x120 }
  - { offsetInCU: 0x1CD90, offset: 0x1BE68D, size: 0x8, addend: 0x0, symName: '__ZN4core3ptr94drop_in_place$LT$syn..punctuated..Punctuated$LT$syn..pat..FieldPat$C$syn..token..Comma$GT$$GT$17hf9927b8b52e25a50E', symObjAddr: 0xB190, symBinAddr: 0x632E0, symSize: 0xF0 }
  - { offsetInCU: 0x1D08F, offset: 0x1BE98C, size: 0x8, addend: 0x0, symName: '__ZN4core3ptr94drop_in_place$LT$syn..punctuated..Punctuated$LT$syn..ty..BareFnArg$C$syn..token..Comma$GT$$GT$17h577c8aa515f26074E', symObjAddr: 0xB280, symBinAddr: 0x633D0, symSize: 0xF0 }
  - { offsetInCU: 0x1D38C, offset: 0x1BEC89, size: 0x8, addend: 0x0, symName: '__ZN4core3ptr96drop_in_place$LT$core..option..Option$LT$alloc..boxed..Box$LT$syn..path..PathSegment$GT$$GT$$GT$17hb35e105c29269971E', symObjAddr: 0xB370, symBinAddr: 0x634C0, symSize: 0x180 }
  - { offsetInCU: 0x1DA49, offset: 0x1BF346, size: 0x8, addend: 0x0, symName: '__ZN4core3ptr97drop_in_place$LT$syn..punctuated..Punctuated$LT$syn..expr..FieldValue$C$syn..token..Comma$GT$$GT$17h15366382fde2131eE', symObjAddr: 0xB4F0, symBinAddr: 0x63640, symSize: 0xF0 }
  - { offsetInCU: 0x1DDC2, offset: 0x1BF6BF, size: 0x8, addend: 0x0, symName: '__ZN4core3ptr97drop_in_place$LT$syn..punctuated..Punctuated$LT$syn..lifetime..Lifetime$C$syn..token..Add$GT$$GT$17hd50f0bf96210475aE', symObjAddr: 0xB5E0, symBinAddr: 0x63730, symSize: 0xD0 }
  - { offsetInCU: 0x1E236, offset: 0x1BFB33, size: 0x8, addend: 0x0, symName: '__ZN4core3ptr99drop_in_place$LT$syn..punctuated..Punctuated$LT$syn..path..PathSegment$C$syn..token..Colon2$GT$$GT$17h603ba227c074f4bfE', symObjAddr: 0xB6B0, symBinAddr: 0x63800, symSize: 0x250 }
  - { offsetInCU: 0x2032D, offset: 0x1C1C2A, size: 0x8, addend: 0x0, symName: '__ZN4core3ops8function5impls80_$LT$impl$u20$core..ops..function..FnOnce$LT$A$GT$$u20$for$u20$$RF$mut$u20$F$GT$9call_once17h1a687ba986f9d12eE', symObjAddr: 0x3830, symBinAddr: 0x5BCF0, symSize: 0x0 }
  - { offsetInCU: 0x24C26, offset: 0x1C6523, size: 0x8, addend: 0x0, symName: '__ZN86_$LT$derivative..bound..with_bound..FindTyParams$u20$as$u20$syn..gen..visit..Visit$GT$10visit_path17h49a7e2f9639cc4a5E', symObjAddr: 0x10FB0, symBinAddr: 0x69100, symSize: 0x3A0 }
  - { offsetInCU: 0x26311, offset: 0x1C7C0E, size: 0x8, addend: 0x0, symName: __ZN10derivative5bound16without_defaults17h6df9b056acfdad95E, symObjAddr: 0xB900, symBinAddr: 0x63A50, symSize: 0x220 }
  - { offsetInCU: 0x268E5, offset: 0x1C81E2, size: 0x8, addend: 0x0, symName: __ZN10derivative5bound21with_where_predicates17h5c4d54c40808dba4E, symObjAddr: 0xBB20, symBinAddr: 0x63C70, symSize: 0xF0 }
  - { offsetInCU: 0x26A59, offset: 0x1C8356, size: 0x8, addend: 0x0, symName: __ZN10derivative5bound33with_where_predicates_from_fields17h0e94737259592c2cE, symObjAddr: 0xBC10, symBinAddr: 0x63D60, symSize: 0x2B0 }
  - { offsetInCU: 0x273D3, offset: 0x1C8CD0, size: 0x8, addend: 0x0, symName: __ZN10derivative5bound33with_where_predicates_from_fields17h1f655729988be4a0E, symObjAddr: 0xBEC0, symBinAddr: 0x64010, symSize: 0x2B0 }
  - { offsetInCU: 0x27D4D, offset: 0x1C964A, size: 0x8, addend: 0x0, symName: __ZN10derivative5bound33with_where_predicates_from_fields17h57477ee7afce2606E, symObjAddr: 0xC170, symBinAddr: 0x642C0, symSize: 0x2B0 }
  - { offsetInCU: 0x286C7, offset: 0x1C9FC4, size: 0x8, addend: 0x0, symName: __ZN10derivative5bound33with_where_predicates_from_fields17h5dfb7cc4560147c3E, symObjAddr: 0xC420, symBinAddr: 0x64570, symSize: 0x2B0 }
  - { offsetInCU: 0x29041, offset: 0x1CA93E, size: 0x8, addend: 0x0, symName: __ZN10derivative5bound33with_where_predicates_from_fields17h6aa9998b9b65fea4E, symObjAddr: 0xC6D0, symBinAddr: 0x64820, symSize: 0x2B0 }
  - { offsetInCU: 0x299BB, offset: 0x1CB2B8, size: 0x8, addend: 0x0, symName: __ZN10derivative5bound33with_where_predicates_from_fields17h6ab61ff9b4ddc894E, symObjAddr: 0xC980, symBinAddr: 0x64AD0, symSize: 0x2B0 }
  - { offsetInCU: 0x2A335, offset: 0x1CBC32, size: 0x8, addend: 0x0, symName: __ZN10derivative5bound33with_where_predicates_from_fields17ha4282ccce4506459E, symObjAddr: 0xCC30, symBinAddr: 0x64D80, symSize: 0x2B0 }
  - { offsetInCU: 0x2ACAF, offset: 0x1CC5AC, size: 0x8, addend: 0x0, symName: __ZN10derivative5bound33with_where_predicates_from_fields17hbd734216d3692f15E, symObjAddr: 0xCEE0, symBinAddr: 0x65030, symSize: 0x2B0 }
  - { offsetInCU: 0x2B629, offset: 0x1CCF26, size: 0x8, addend: 0x0, symName: __ZN10derivative5bound33with_where_predicates_from_fields17heeff766b37f8cf90E, symObjAddr: 0xD190, symBinAddr: 0x652E0, symSize: 0x2B0 }
  - { offsetInCU: 0x2BFD9, offset: 0x1CD8D6, size: 0x8, addend: 0x0, symName: __ZN10derivative5bound10with_bound17h2a5d0197a5923506E, symObjAddr: 0xD440, symBinAddr: 0x65590, symSize: 0x690 }
  - { offsetInCU: 0x2DE83, offset: 0x1CF780, size: 0x8, addend: 0x0, symName: __ZN10derivative5bound10with_bound17h568b5cebc9bbd5a0E, symObjAddr: 0xDAD0, symBinAddr: 0x65C20, symSize: 0x6A0 }
  - { offsetInCU: 0x2FC77, offset: 0x1D1574, size: 0x8, addend: 0x0, symName: __ZN10derivative5bound10with_bound17h5cda9f9213c3fa0cE, symObjAddr: 0xE170, symBinAddr: 0x662C0, symSize: 0x6A0 }
  - { offsetInCU: 0x31A6B, offset: 0x1D3368, size: 0x8, addend: 0x0, symName: __ZN10derivative5bound10with_bound17h748f48cfd729f00fE, symObjAddr: 0xE810, symBinAddr: 0x66960, symSize: 0x6A0 }
  - { offsetInCU: 0x3385F, offset: 0x1D515C, size: 0x8, addend: 0x0, symName: __ZN10derivative5bound10with_bound17h7f96347e04e4ef2dE, symObjAddr: 0xEEB0, symBinAddr: 0x67000, symSize: 0x6A0 }
  - { offsetInCU: 0x35653, offset: 0x1D6F50, size: 0x8, addend: 0x0, symName: __ZN10derivative5bound10with_bound17h8b556c5459a9b19bE, symObjAddr: 0xF550, symBinAddr: 0x676A0, symSize: 0x690 }
  - { offsetInCU: 0x37516, offset: 0x1D8E13, size: 0x8, addend: 0x0, symName: __ZN10derivative5bound10with_bound17had35be8a78152428E, symObjAddr: 0xFBE0, symBinAddr: 0x67D30, symSize: 0x690 }
  - { offsetInCU: 0x393C0, offset: 0x1DACBD, size: 0x8, addend: 0x0, symName: __ZN10derivative5bound10with_bound17he586d282fe464691E, symObjAddr: 0x10270, symBinAddr: 0x683C0, symSize: 0x6A0 }
  - { offsetInCU: 0x3B1B4, offset: 0x1DCAB1, size: 0x8, addend: 0x0, symName: __ZN10derivative5bound10with_bound17hfa9b4fab6ece9cb1E, symObjAddr: 0x10910, symBinAddr: 0x68A60, symSize: 0x6A0 }
  - { offsetInCU: 0x3D37C, offset: 0x1DEC79, size: 0x8, addend: 0x0, symName: __ZN3syn3gen5visit5Visit10visit_stmt17hc1cc3fb14c93a5eaE, symObjAddr: 0x20, symBinAddr: 0x5BA20, symSize: 0x10 }
  - { offsetInCU: 0x3D4B2, offset: 0x1DEDAF, size: 0x8, addend: 0x0, symName: __ZN3syn3gen5visit5Visit14visit_use_tree17h81af144f47a27e7cE, symObjAddr: 0xA20, symBinAddr: 0x5BA30, symSize: 0xA0 }
  - { offsetInCU: 0x3DA6E, offset: 0x1DF36B, size: 0x8, addend: 0x0, symName: __ZN3syn3gen5visit5Visit39visit_angle_bracketed_generic_arguments17hf3c75210cc4de573E, symObjAddr: 0x3300, symBinAddr: 0x5BAD0, symSize: 0x220 }
  - { offsetInCU: 0x1E, offset: 0x1F7C72, size: 0x8, addend: 0x0, symName: '__ZN102_$LT$core..iter..adapters..map..Map$LT$I$C$F$GT$$u20$as$u20$core..iter..traits..iterator..Iterator$GT$4fold17h055b68fa3874856cE', symObjAddr: 0x0, symBinAddr: 0x694A0, symSize: 0x300 }
  - { offsetInCU: 0x31E0, offset: 0x1FAE34, size: 0x8, addend: 0x0, symName: '__ZN4core3ptr100drop_in_place$LT$core..option..Option$LT$alloc..boxed..Box$LT$syn..generics..LifetimeDef$GT$$GT$$GT$17h82b6930fbf453d3cE', symObjAddr: 0x20E0, symBinAddr: 0x6B450, symSize: 0x150 }
  - { offsetInCU: 0x375C, offset: 0x1FB3B0, size: 0x8, addend: 0x0, symName: '__ZN4core3ptr100drop_in_place$LT$core..option..Option$LT$alloc..boxed..Box$LT$syn..path..GenericArgument$GT$$GT$$GT$17hdec1aac3c1c32b1aE', symObjAddr: 0x2230, symBinAddr: 0x6B5A0, symSize: 0x50 }
  - { offsetInCU: 0x390A, offset: 0x1FB55E, size: 0x8, addend: 0x0, symName: '__ZN4core3ptr101drop_in_place$LT$core..option..Option$LT$alloc..vec..Vec$LT$syn..generics..WherePredicate$GT$$GT$$GT$17h4f8ab547d15f2fe5E', symObjAddr: 0x2280, symBinAddr: 0x6B5F0, symSize: 0xD0 }
  - { offsetInCU: 0x3CFE, offset: 0x1FB952, size: 0x8, addend: 0x0, symName: '__ZN4core3ptr103drop_in_place$LT$syn..punctuated..Punctuated$LT$syn..generics..TypeParamBound$C$syn..token..Add$GT$$GT$17h283d6fefb1c71cfaE', symObjAddr: 0x2350, symBinAddr: 0x6B6C0, symSize: 0x200 }
  - { offsetInCU: 0x45EF, offset: 0x1FC243, size: 0x8, addend: 0x0, symName: '__ZN4core3ptr108drop_in_place$LT$syn..punctuated..Punctuated$LT$syn..expr..GenericMethodArgument$C$syn..token..Comma$GT$$GT$17h2aec9c03103ab694E', symObjAddr: 0x2550, symBinAddr: 0x6B8C0, symSize: 0x150 }
  - { offsetInCU: 0x4B48, offset: 0x1FC79C, size: 0x8, addend: 0x0, symName: '__ZN4core3ptr34drop_in_place$LT$syn..lit..Lit$GT$17ha842b5e81e8582b3E', symObjAddr: 0x26A0, symBinAddr: 0x6BA10, symSize: 0x110 }
  - { offsetInCU: 0x4FBA, offset: 0x1FCC0E, size: 0x8, addend: 0x0, symName: '__ZN4core3ptr34drop_in_place$LT$syn..pat..Pat$GT$17h0621b062377aebcbE', symObjAddr: 0x27B0, symBinAddr: 0x6BB20, symSize: 0x1050 }
  - { offsetInCU: 0x8979, offset: 0x2005CD, size: 0x8, addend: 0x0, symName: '__ZN4core3ptr34drop_in_place$LT$syn..ty..Type$GT$17h3d55b11c281dc967E', symObjAddr: 0x3800, symBinAddr: 0x6CB70, symSize: 0x620 }
  - { offsetInCU: 0xA5B1, offset: 0x202205, size: 0x8, addend: 0x0, symName: '__ZN4core3ptr36drop_in_place$LT$syn..expr..Expr$GT$17h68b218bdcee4a3c7E', symObjAddr: 0x3E20, symBinAddr: 0x6D190, symSize: 0x31D0 }
  - { offsetInCU: 0x14B3A, offset: 0x20C78E, size: 0x8, addend: 0x0, symName: '__ZN4core3ptr36drop_in_place$LT$syn..mac..Macro$GT$17h158bcec479486e24E', symObjAddr: 0x6FF0, symBinAddr: 0x70360, symSize: 0xE0 }
  - { offsetInCU: 0x14F40, offset: 0x20CB94, size: 0x8, addend: 0x0, symName: '__ZN4core3ptr36drop_in_place$LT$syn..path..Path$GT$17hdc92c6b0523379a3E', symObjAddr: 0x70D0, symBinAddr: 0x70440, symSize: 0x230 }
  - { offsetInCU: 0x158D6, offset: 0x20D52A, size: 0x8, addend: 0x0, symName: '__ZN4core3ptr37drop_in_place$LT$syn..stmt..Block$GT$17hfffa15f159ccade9E', symObjAddr: 0x7300, symBinAddr: 0x70670, symSize: 0xD0 }
  - { offsetInCU: 0x15BAD, offset: 0x20D801, size: 0x8, addend: 0x0, symName: '__ZN4core3ptr38drop_in_place$LT$syn..expr..Member$GT$17h24b2f28a51f276afE', symObjAddr: 0x73D0, symBinAddr: 0x70740, symSize: 0x30 }
  - { offsetInCU: 0x15CA9, offset: 0x20D8FD, size: 0x8, addend: 0x0, symName: '__ZN4core3ptr39drop_in_place$LT$proc_macro2..Ident$GT$17he0509ca0076c6db2E', symObjAddr: 0x7400, symBinAddr: 0x70770, symSize: 0x30 }
  - { offsetInCU: 0x15D86, offset: 0x20D9DA, size: 0x8, addend: 0x0, symName: '__ZN4core3ptr39drop_in_place$LT$syn..pat..PatTuple$GT$17ha1d19a764bcc1cb3E', symObjAddr: 0x7430, symBinAddr: 0x707A0, symSize: 0x100 }
  - { offsetInCU: 0x1608F, offset: 0x20DCE3, size: 0x8, addend: 0x0, symName: '__ZN4core3ptr40drop_in_place$LT$syn..ty..ReturnType$GT$17h2d60777f70ee0d22E', symObjAddr: 0x7530, symBinAddr: 0x708A0, symSize: 0x50 }
  - { offsetInCU: 0x1625C, offset: 0x20DEB0, size: 0x8, addend: 0x0, symName: '__ZN4core3ptr44drop_in_place$LT$derivative..attr..Field$GT$17h6b32fb97664cf7f6E', symObjAddr: 0x7580, symBinAddr: 0x708F0, symSize: 0x320 }
  - { offsetInCU: 0x16D4C, offset: 0x20E9A0, size: 0x8, addend: 0x0, symName: '__ZN4core3ptr44drop_in_place$LT$derivative..attr..Input$GT$17h2e78d5bbabc2a494E', symObjAddr: 0x78A0, symBinAddr: 0x70C10, symSize: 0x680 }
  - { offsetInCU: 0x187FD, offset: 0x210451, size: 0x8, addend: 0x0, symName: '__ZN4core3ptr44drop_in_place$LT$syn..lifetime..Lifetime$GT$17he83b0b529a581d24E', symObjAddr: 0x7F20, symBinAddr: 0x71290, symSize: 0x30 }
  - { offsetInCU: 0x18A2F, offset: 0x210683, size: 0x8, addend: 0x0, symName: '__ZN4core3ptr45drop_in_place$LT$proc_macro2..TokenStream$GT$17h7e9a94df6c9afdc7E.llvm.10197280977311890043', symObjAddr: 0x7F50, symBinAddr: 0x712C0, symSize: 0x140 }
  - { offsetInCU: 0x18E8B, offset: 0x210ADF, size: 0x8, addend: 0x0, symName: '__ZN4core3ptr46drop_in_place$LT$syn..generics..TypeParams$GT$17hdce84e53cb2165b0E.llvm.10197280977311890043', symObjAddr: 0x8090, symBinAddr: 0x71400, symSize: 0x30 }
  - { offsetInCU: 0x18FC6, offset: 0x210C1A, size: 0x8, addend: 0x0, symName: '__ZN4core3ptr47drop_in_place$LT$derivative..attr..FieldOrd$GT$17ha1a37adb0bf1297dE', symObjAddr: 0x80C0, symBinAddr: 0x71430, symSize: 0x120 }
  - { offsetInCU: 0x1932F, offset: 0x210F83, size: 0x8, addend: 0x0, symName: '__ZN4core3ptr47drop_in_place$LT$syn..path..GenericArgument$GT$17hc55a20af1acae48eE', symObjAddr: 0x81E0, symBinAddr: 0x71550, symSize: 0x110 }
  - { offsetInCU: 0x1967C, offset: 0x2112D0, size: 0x8, addend: 0x0, symName: '__ZN4core3ptr51drop_in_place$LT$derivative..attr..FieldDefault$GT$17h9488281bc361fcc4E', symObjAddr: 0x82F0, symBinAddr: 0x71660, symSize: 0x100 }
  - { offsetInCU: 0x19993, offset: 0x2115E7, size: 0x8, addend: 0x0, symName: '__ZN4core3ptr58drop_in_place$LT$alloc..vec..Vec$LT$syn..expr..Arm$GT$$GT$17hdd3822aa758753c7E', symObjAddr: 0x83F0, symBinAddr: 0x71760, symSize: 0xD0 }
  - { offsetInCU: 0x19C53, offset: 0x2118A7, size: 0x8, addend: 0x0, symName: '__ZN4core3ptr59drop_in_place$LT$alloc..boxed..Box$LT$syn..pat..Pat$GT$$GT$17h48ec1dbe47a00c61E', symObjAddr: 0x84C0, symBinAddr: 0x71830, symSize: 0x50 }
  - { offsetInCU: 0x19DAC, offset: 0x211A00, size: 0x8, addend: 0x0, symName: '__ZN4core3ptr59drop_in_place$LT$alloc..boxed..Box$LT$syn..ty..Type$GT$$GT$17h454cab832bb38812E', symObjAddr: 0x8510, symBinAddr: 0x71880, symSize: 0x50 }
  - { offsetInCU: 0x19F05, offset: 0x211B59, size: 0x8, addend: 0x0, symName: '__ZN4core3ptr61drop_in_place$LT$alloc..boxed..Box$LT$syn..expr..Expr$GT$$GT$17hbe6f5e1c721a6cd9E', symObjAddr: 0x8560, symBinAddr: 0x718D0, symSize: 0x50 }
  - { offsetInCU: 0x1A05E, offset: 0x211CB2, size: 0x8, addend: 0x0, symName: '__ZN4core3ptr61drop_in_place$LT$syn..path..ParenthesizedGenericArguments$GT$17h2d220a34adaf921bE', symObjAddr: 0x85B0, symBinAddr: 0x71920, symSize: 0x170 }
  - { offsetInCU: 0x1A667, offset: 0x2122BB, size: 0x8, addend: 0x0, symName: '__ZN4core3ptr63drop_in_place$LT$alloc..boxed..Box$LT$syn..lit..LitRepr$GT$$GT$17h44c55dd7d5499a10E', symObjAddr: 0x8720, symBinAddr: 0x71A90, symSize: 0x60 }
  - { offsetInCU: 0x1A96E, offset: 0x2125C2, size: 0x8, addend: 0x0, symName: '__ZN4core3ptr64drop_in_place$LT$alloc..boxed..Box$LT$syn..pat..FieldPat$GT$$GT$17h8a4c0395922411f9E', symObjAddr: 0x8780, symBinAddr: 0x71AF0, symSize: 0x180 }
  - { offsetInCU: 0x1B08B, offset: 0x212CDF, size: 0x8, addend: 0x0, symName: '__ZN4core3ptr64drop_in_place$LT$alloc..boxed..Box$LT$syn..ty..BareFnArg$GT$$GT$17h145502f35dc7a34dE', symObjAddr: 0x8900, symBinAddr: 0x71C70, symSize: 0x160 }
  - { offsetInCU: 0x1B621, offset: 0x213275, size: 0x8, addend: 0x0, symName: '__ZN4core3ptr65drop_in_place$LT$alloc..vec..Vec$LT$proc_macro..TokenTree$GT$$GT$17h27434ef986fc0c8fE.llvm.10197280977311890043', symObjAddr: 0x8A60, symBinAddr: 0x71DD0, symSize: 0x110 }
  - { offsetInCU: 0x1BA19, offset: 0x21366D, size: 0x8, addend: 0x0, symName: '__ZN4core3ptr65drop_in_place$LT$core..option..Option$LT$syn..expr..Label$GT$$GT$17hf88e6caa939fd4b3E', symObjAddr: 0x8B70, symBinAddr: 0x71EE0, symSize: 0x30 }
  - { offsetInCU: 0x1BB53, offset: 0x2137A7, size: 0x8, addend: 0x0, symName: '__ZN4core3ptr66drop_in_place$LT$alloc..vec..Vec$LT$derivative..ast..Field$GT$$GT$17h3b6e5f36e682f9fbE', symObjAddr: 0x8BA0, symBinAddr: 0x71F10, symSize: 0xD0 }
  - { offsetInCU: 0x1BE13, offset: 0x213A67, size: 0x8, addend: 0x0, symName: '__ZN4core3ptr66drop_in_place$LT$core..option..Option$LT$syn..ty..Variadic$GT$$GT$17hd53494a084af7b6fE', symObjAddr: 0x8C70, symBinAddr: 0x71FE0, symSize: 0xF0 }
  - { offsetInCU: 0x1C13D, offset: 0x213D91, size: 0x8, addend: 0x0, symName: '__ZN4core3ptr67drop_in_place$LT$alloc..boxed..Box$LT$syn..expr..FieldValue$GT$$GT$17hee600943c39f373eE', symObjAddr: 0x8D60, symBinAddr: 0x720D0, symSize: 0x160 }
  - { offsetInCU: 0x1C6B3, offset: 0x214307, size: 0x8, addend: 0x0, symName: '__ZN4core3ptr72drop_in_place$LT$core..option..Option$LT$syn..lifetime..Lifetime$GT$$GT$17h496ffbcd02d279ceE', symObjAddr: 0x8EC0, symBinAddr: 0x72230, symSize: 0x30 }
  - { offsetInCU: 0x1C7CE, offset: 0x214422, size: 0x8, addend: 0x0, symName: '__ZN4core3ptr74drop_in_place$LT$core..option..Option$LT$derivative..attr..InputEq$GT$$GT$17h5c6528a7271c33f0E', symObjAddr: 0x8EF0, symBinAddr: 0x72260, symSize: 0xD0 }
  - { offsetInCU: 0x1CAA8, offset: 0x2146FC, size: 0x8, addend: 0x0, symName: '__ZN4core3ptr75drop_in_place$LT$alloc..boxed..Box$LT$syn..generics..TypeParamBound$GT$$GT$17h0d539f38c26df380E', symObjAddr: 0x8FC0, symBinAddr: 0x72330, symSize: 0x140 }
  - { offsetInCU: 0x1D003, offset: 0x214C57, size: 0x8, addend: 0x0, symName: '__ZN4core3ptr75drop_in_place$LT$core..option..Option$LT$derivative..attr..InputOrd$GT$$GT$17h65b3c0526b6be967E', symObjAddr: 0x9100, symBinAddr: 0x72470, symSize: 0xD0 }
  - { offsetInCU: 0x1D2DD, offset: 0x214F31, size: 0x8, addend: 0x0, symName: '__ZN4core3ptr78drop_in_place$LT$alloc..boxed..Box$LT$syn..expr..GenericMethodArgument$GT$$GT$17h2e8ab754b2d35f4bE', symObjAddr: 0x91D0, symBinAddr: 0x72540, symSize: 0x60 }
  - { offsetInCU: 0x1D4CF, offset: 0x215123, size: 0x8, addend: 0x0, symName: '__ZN4core3ptr78drop_in_place$LT$core..option..Option$LT$syn..generics..BoundLifetimes$GT$$GT$17he70d317fbad5b599E', symObjAddr: 0x9230, symBinAddr: 0x725A0, symSize: 0x90 }
  - { offsetInCU: 0x1D7BD, offset: 0x215411, size: 0x8, addend: 0x0, symName: '__ZN4core3ptr86drop_in_place$LT$syn..punctuated..Punctuated$LT$syn..pat..Pat$C$syn..token..Or$GT$$GT$17h2004905335266fbeE', symObjAddr: 0x92C0, symBinAddr: 0x72630, symSize: 0x120 }
  - { offsetInCU: 0x1DC38, offset: 0x21588C, size: 0x8, addend: 0x0, symName: '__ZN4core3ptr87drop_in_place$LT$core..option..Option$LT$alloc..boxed..Box$LT$syn..pat..Pat$GT$$GT$$GT$17h9151a9d5e0aa7e1eE', symObjAddr: 0x93E0, symBinAddr: 0x72750, symSize: 0x50 }
  - { offsetInCU: 0x1DDA8, offset: 0x2159FC, size: 0x8, addend: 0x0, symName: '__ZN4core3ptr87drop_in_place$LT$core..option..Option$LT$alloc..boxed..Box$LT$syn..ty..Type$GT$$GT$$GT$17hd3cb46ad48d34655E', symObjAddr: 0x9430, symBinAddr: 0x727A0, symSize: 0x50 }
  - { offsetInCU: 0x1DF18, offset: 0x215B6C, size: 0x8, addend: 0x0, symName: '__ZN4core3ptr89drop_in_place$LT$core..option..Option$LT$alloc..boxed..Box$LT$syn..expr..Expr$GT$$GT$$GT$17h9693feaa41001291E', symObjAddr: 0x9480, symBinAddr: 0x727F0, symSize: 0x50 }
  - { offsetInCU: 0x1E0C6, offset: 0x215D1A, size: 0x8, addend: 0x0, symName: '__ZN4core3ptr89drop_in_place$LT$syn..punctuated..Punctuated$LT$syn..pat..Pat$C$syn..token..Comma$GT$$GT$17hc735db3a40e860f2E', symObjAddr: 0x94D0, symBinAddr: 0x72840, symSize: 0x120 }
  - { offsetInCU: 0x1E596, offset: 0x2161EA, size: 0x8, addend: 0x0, symName: '__ZN4core3ptr91drop_in_place$LT$syn..punctuated..Punctuated$LT$syn..expr..Expr$C$syn..token..Comma$GT$$GT$17h4abaeb5cfb586772E', symObjAddr: 0x95F0, symBinAddr: 0x72960, symSize: 0x120 }
  - { offsetInCU: 0x1EA24, offset: 0x216678, size: 0x8, addend: 0x0, symName: '__ZN4core3ptr94drop_in_place$LT$syn..punctuated..Punctuated$LT$syn..pat..FieldPat$C$syn..token..Comma$GT$$GT$17hf9927b8b52e25a50E', symObjAddr: 0x9710, symBinAddr: 0x72A80, symSize: 0xF0 }
  - { offsetInCU: 0x1ED23, offset: 0x216977, size: 0x8, addend: 0x0, symName: '__ZN4core3ptr94drop_in_place$LT$syn..punctuated..Punctuated$LT$syn..ty..BareFnArg$C$syn..token..Comma$GT$$GT$17h577c8aa515f26074E', symObjAddr: 0x9800, symBinAddr: 0x72B70, symSize: 0xF0 }
  - { offsetInCU: 0x1F020, offset: 0x216C74, size: 0x8, addend: 0x0, symName: '__ZN4core3ptr96drop_in_place$LT$core..option..Option$LT$alloc..boxed..Box$LT$syn..path..PathSegment$GT$$GT$$GT$17hb35e105c29269971E', symObjAddr: 0x98F0, symBinAddr: 0x72C60, symSize: 0x180 }
  - { offsetInCU: 0x1F6DD, offset: 0x217331, size: 0x8, addend: 0x0, symName: '__ZN4core3ptr97drop_in_place$LT$syn..punctuated..Punctuated$LT$syn..expr..FieldValue$C$syn..token..Comma$GT$$GT$17h15366382fde2131eE', symObjAddr: 0x9A70, symBinAddr: 0x72DE0, symSize: 0xF0 }
  - { offsetInCU: 0x1FA56, offset: 0x2176AA, size: 0x8, addend: 0x0, symName: '__ZN4core3ptr97drop_in_place$LT$syn..punctuated..Punctuated$LT$syn..lifetime..Lifetime$C$syn..token..Add$GT$$GT$17hd50f0bf96210475aE', symObjAddr: 0x9B60, symBinAddr: 0x72ED0, symSize: 0xC6 }
  - { offsetInCU: 0x20422, offset: 0x218076, size: 0x8, addend: 0x0, symName: '__ZN102_$LT$core..iter..adapters..map..Map$LT$I$C$F$GT$$u20$as$u20$core..iter..traits..iterator..Iterator$GT$4fold17h055b68fa3874856cE', symObjAddr: 0x0, symBinAddr: 0x694A0, symSize: 0x300 }
  - { offsetInCU: 0x207F9, offset: 0x21844D, size: 0x8, addend: 0x0, symName: '__ZN102_$LT$core..iter..adapters..map..Map$LT$I$C$F$GT$$u20$as$u20$core..iter..traits..iterator..Iterator$GT$4fold17h0cfdb068bd257b5dE', symObjAddr: 0x300, symBinAddr: 0x697A0, symSize: 0x300 }
  - { offsetInCU: 0x20C2B, offset: 0x21887F, size: 0x8, addend: 0x0, symName: '__ZN102_$LT$core..iter..adapters..map..Map$LT$I$C$F$GT$$u20$as$u20$core..iter..traits..iterator..Iterator$GT$4fold17h32587326edc35c68E', symObjAddr: 0x600, symBinAddr: 0x69AA0, symSize: 0x0 }
  - { offsetInCU: 0x20F19, offset: 0x218B6D, size: 0x8, addend: 0x0, symName: '__ZN102_$LT$core..iter..adapters..map..Map$LT$I$C$F$GT$$u20$as$u20$core..iter..traits..iterator..Iterator$GT$4fold17h4e8c99f3b380b34cE', symObjAddr: 0x790, symBinAddr: 0x69B90, symSize: 0x300 }
  - { offsetInCU: 0x212F0, offset: 0x218F44, size: 0x8, addend: 0x0, symName: '__ZN102_$LT$core..iter..adapters..map..Map$LT$I$C$F$GT$$u20$as$u20$core..iter..traits..iterator..Iterator$GT$4fold17h969d67c9d26333aeE', symObjAddr: 0xB20, symBinAddr: 0x69E90, symSize: 0x300 }
  - { offsetInCU: 0x216C7, offset: 0x21931B, size: 0x8, addend: 0x0, symName: '__ZN102_$LT$core..iter..adapters..map..Map$LT$I$C$F$GT$$u20$as$u20$core..iter..traits..iterator..Iterator$GT$4fold17hbfc3022552149842E', symObjAddr: 0xE20, symBinAddr: 0x6A190, symSize: 0x300 }
  - { offsetInCU: 0x21A9E, offset: 0x2196F2, size: 0x8, addend: 0x0, symName: '__ZN102_$LT$core..iter..adapters..map..Map$LT$I$C$F$GT$$u20$as$u20$core..iter..traits..iterator..Iterator$GT$4fold17hc2d4e8051169611cE', symObjAddr: 0x1120, symBinAddr: 0x6A490, symSize: 0x300 }
  - { offsetInCU: 0x21E75, offset: 0x219AC9, size: 0x8, addend: 0x0, symName: '__ZN102_$LT$core..iter..adapters..map..Map$LT$I$C$F$GT$$u20$as$u20$core..iter..traits..iterator..Iterator$GT$4fold17hd6459b102704e04cE', symObjAddr: 0x1420, symBinAddr: 0x6A790, symSize: 0x300 }
  - { offsetInCU: 0x2224C, offset: 0x219EA0, size: 0x8, addend: 0x0, symName: '__ZN102_$LT$core..iter..adapters..map..Map$LT$I$C$F$GT$$u20$as$u20$core..iter..traits..iterator..Iterator$GT$8try_fold17h0f63f1d30fe99b22E', symObjAddr: 0x1720, symBinAddr: 0x6AA90, symSize: 0x0 }
  - { offsetInCU: 0x228DF, offset: 0x21A533, size: 0x8, addend: 0x0, symName: '__ZN102_$LT$core..iter..adapters..map..Map$LT$I$C$F$GT$$u20$as$u20$core..iter..traits..iterator..Iterator$GT$8try_fold17h6bd391daf51bf11bE', symObjAddr: 0x1870, symBinAddr: 0x6ABE0, symSize: 0x300 }
  - { offsetInCU: 0x22D2B, offset: 0x21A97F, size: 0x8, addend: 0x0, symName: '__ZN102_$LT$core..iter..adapters..map..Map$LT$I$C$F$GT$$u20$as$u20$core..iter..traits..iterator..Iterator$GT$8try_fold17hc53fcaf32432b26aE', symObjAddr: 0x1B70, symBinAddr: 0x6AEE0, symSize: 0x1D0 }
  - { offsetInCU: 0x22FB6, offset: 0x21AC0A, size: 0x8, addend: 0x0, symName: '__ZN102_$LT$core..iter..adapters..map..Map$LT$I$C$F$GT$$u20$as$u20$core..iter..traits..iterator..Iterator$GT$8try_fold17hd4100ef5e23f6ee0E', symObjAddr: 0x1D40, symBinAddr: 0x6B0B0, symSize: 0x3A0 }
  - { offsetInCU: 0x20E9, offset: 0x22E61D, size: 0x8, addend: 0x0, symName: '__ZN4core3ptr100drop_in_place$LT$core..option..Option$LT$alloc..boxed..Box$LT$syn..generics..LifetimeDef$GT$$GT$$GT$17h82b6930fbf453d3cE.llvm.3362984653123252776', symObjAddr: 0x6A0, symBinAddr: 0x72FA0, symSize: 0x150 }
  - { offsetInCU: 0x2665, offset: 0x22EB99, size: 0x8, addend: 0x0, symName: '__ZN4core3ptr100drop_in_place$LT$core..option..Option$LT$alloc..boxed..Box$LT$syn..path..GenericArgument$GT$$GT$$GT$17hdec1aac3c1c32b1aE', symObjAddr: 0x7F0, symBinAddr: 0x730F0, symSize: 0x50 }
  - { offsetInCU: 0x290B, offset: 0x22EE3F, size: 0x8, addend: 0x0, symName: '__ZN4core3ptr103drop_in_place$LT$syn..punctuated..Punctuated$LT$syn..generics..TypeParamBound$C$syn..token..Add$GT$$GT$17h283d6fefb1c71cfaE.llvm.3362984653123252776', symObjAddr: 0x840, symBinAddr: 0x73140, symSize: 0x200 }
  - { offsetInCU: 0x31FC, offset: 0x22F730, size: 0x8, addend: 0x0, symName: '__ZN4core3ptr108drop_in_place$LT$syn..punctuated..Punctuated$LT$syn..expr..GenericMethodArgument$C$syn..token..Comma$GT$$GT$17h2aec9c03103ab694E', symObjAddr: 0xA40, symBinAddr: 0x73340, symSize: 0x150 }
  - { offsetInCU: 0x36D9, offset: 0x22FC0D, size: 0x8, addend: 0x0, symName: '__ZN4core3ptr111drop_in_place$LT$$LP$proc_macro2..TokenStream$C$alloc..vec..Vec$LT$derivative..matcher..BindingInfo$GT$$RP$$GT$17h4303abbe0827ec63E.llvm.3362984653123252776', symObjAddr: 0xB90, symBinAddr: 0x73490, symSize: 0x90 }
  - { offsetInCU: 0x395F, offset: 0x22FE93, size: 0x8, addend: 0x0, symName: '__ZN4core3ptr156drop_in_place$LT$$LP$derivative..matcher..CommonVariant$C$$LP$proc_macro2..TokenStream$C$alloc..vec..Vec$LT$derivative..matcher..BindingInfo$GT$$RP$$RP$$GT$17hd0b3433743bde851E.llvm.3362984653123252776', symObjAddr: 0xC20, symBinAddr: 0x73520, symSize: 0xB0 }
  - { offsetInCU: 0x3CA8, offset: 0x2301DC, size: 0x8, addend: 0x0, symName: '__ZN4core3ptr34drop_in_place$LT$syn..lit..Lit$GT$17ha842b5e81e8582b3E.llvm.3362984653123252776', symObjAddr: 0xCD0, symBinAddr: 0x735D0, symSize: 0x120 }
  - { offsetInCU: 0x4184, offset: 0x2306B8, size: 0x8, addend: 0x0, symName: '__ZN4core3ptr34drop_in_place$LT$syn..pat..Pat$GT$17h0621b062377aebcbE', symObjAddr: 0xDF0, symBinAddr: 0x736F0, symSize: 0x1050 }
  - { offsetInCU: 0x7B43, offset: 0x234077, size: 0x8, addend: 0x0, symName: '__ZN4core3ptr34drop_in_place$LT$syn..ty..Type$GT$17h3d55b11c281dc967E.llvm.3362984653123252776', symObjAddr: 0x1E40, symBinAddr: 0x74740, symSize: 0x620 }
  - { offsetInCU: 0x977B, offset: 0x235CAF, size: 0x8, addend: 0x0, symName: '__ZN4core3ptr36drop_in_place$LT$syn..expr..Expr$GT$17h68b218bdcee4a3c7E', symObjAddr: 0x2460, symBinAddr: 0x74D60, symSize: 0x31D0 }
  - { offsetInCU: 0x13D04, offset: 0x240238, size: 0x8, addend: 0x0, symName: '__ZN4core3ptr36drop_in_place$LT$syn..mac..Macro$GT$17h158bcec479486e24E', symObjAddr: 0x5630, symBinAddr: 0x77F30, symSize: 0xE0 }
  - { offsetInCU: 0x1410A, offset: 0x24063E, size: 0x8, addend: 0x0, symName: '__ZN4core3ptr36drop_in_place$LT$syn..path..Path$GT$17hdc92c6b0523379a3E.llvm.3362984653123252776', symObjAddr: 0x5710, symBinAddr: 0x78010, symSize: 0x230 }
  - { offsetInCU: 0x14AA0, offset: 0x240FD4, size: 0x8, addend: 0x0, symName: '__ZN4core3ptr37drop_in_place$LT$syn..stmt..Block$GT$17hfffa15f159ccade9E', symObjAddr: 0x5940, symBinAddr: 0x78240, symSize: 0xD0 }
  - { offsetInCU: 0x14D77, offset: 0x2412AB, size: 0x8, addend: 0x0, symName: '__ZN4core3ptr38drop_in_place$LT$syn..expr..Member$GT$17h24b2f28a51f276afE', symObjAddr: 0x5A10, symBinAddr: 0x78310, symSize: 0x30 }
  - { offsetInCU: 0x14E73, offset: 0x2413A7, size: 0x8, addend: 0x0, symName: '__ZN4core3ptr39drop_in_place$LT$proc_macro2..Ident$GT$17he0509ca0076c6db2E.llvm.3362984653123252776', symObjAddr: 0x5A40, symBinAddr: 0x78340, symSize: 0x30 }
  - { offsetInCU: 0x14F50, offset: 0x241484, size: 0x8, addend: 0x0, symName: '__ZN4core3ptr39drop_in_place$LT$syn..pat..PatTuple$GT$17ha1d19a764bcc1cb3E', symObjAddr: 0x5A70, symBinAddr: 0x78370, symSize: 0x100 }
  - { offsetInCU: 0x152F4, offset: 0x241828, size: 0x8, addend: 0x0, symName: '__ZN4core3ptr40drop_in_place$LT$syn..attr..MetaList$GT$17h383fdef68c687f54E.llvm.3362984653123252776', symObjAddr: 0x5B70, symBinAddr: 0x78470, symSize: 0x160 }
  - { offsetInCU: 0x15775, offset: 0x241CA9, size: 0x8, addend: 0x0, symName: '__ZN4core3ptr40drop_in_place$LT$syn..ty..ReturnType$GT$17h2d60777f70ee0d22E', symObjAddr: 0x5CD0, symBinAddr: 0x785D0, symSize: 0x50 }
  - { offsetInCU: 0x15942, offset: 0x241E76, size: 0x8, addend: 0x0, symName: '__ZN4core3ptr42drop_in_place$LT$syn..attr..NestedMeta$GT$17h76ee2438ec543c86E.llvm.3362984653123252776', symObjAddr: 0x5D20, symBinAddr: 0x78620, symSize: 0x1F0 }
  - { offsetInCU: 0x15F3E, offset: 0x242472, size: 0x8, addend: 0x0, symName: '__ZN4core3ptr43drop_in_place$LT$proc_macro2..TokenTree$GT$17he27aeea45f7c43c0E.llvm.3362984653123252776', symObjAddr: 0x5F10, symBinAddr: 0x78810, symSize: 0xB0 }
  - { offsetInCU: 0x16299, offset: 0x2427CD, size: 0x8, addend: 0x0, symName: '__ZN4core3ptr44drop_in_place$LT$syn..lifetime..Lifetime$GT$17he83b0b529a581d24E', symObjAddr: 0x5FC0, symBinAddr: 0x788C0, symSize: 0x30 }
  - { offsetInCU: 0x16430, offset: 0x242964, size: 0x8, addend: 0x0, symName: '__ZN4core3ptr45drop_in_place$LT$proc_macro2..TokenStream$GT$17h7e9a94df6c9afdc7E.llvm.3362984653123252776', symObjAddr: 0x5FF0, symBinAddr: 0x788F0, symSize: 0x140 }
  - { offsetInCU: 0x168CA, offset: 0x242DFE, size: 0x8, addend: 0x0, symName: '__ZN4core3ptr47drop_in_place$LT$syn..path..GenericArgument$GT$17hc55a20af1acae48eE', symObjAddr: 0x6130, symBinAddr: 0x78A30, symSize: 0x110 }
  - { offsetInCU: 0x16C55, offset: 0x243189, size: 0x8, addend: 0x0, symName: '__ZN4core3ptr50drop_in_place$LT$syn..generics..WherePredicate$GT$17h5f6316e378219a95E.llvm.3362984653123252776', symObjAddr: 0x6240, symBinAddr: 0x78B40, symSize: 0x100 }
  - { offsetInCU: 0x16DDC, offset: 0x243310, size: 0x8, addend: 0x0, symName: '__ZN4core3ptr53drop_in_place$LT$derivative..matcher..BindingInfo$GT$17h6302cdf95d571aecE.llvm.3362984653123252776', symObjAddr: 0x6340, symBinAddr: 0x78C40, symSize: 0x50 }
  - { offsetInCU: 0x16ED8, offset: 0x24340C, size: 0x8, addend: 0x0, symName: '__ZN4core3ptr58drop_in_place$LT$alloc..vec..Vec$LT$syn..expr..Arm$GT$$GT$17hdd3822aa758753c7E', symObjAddr: 0x6390, symBinAddr: 0x78C90, symSize: 0xD0 }
  - { offsetInCU: 0x17198, offset: 0x2436CC, size: 0x8, addend: 0x0, symName: '__ZN4core3ptr59drop_in_place$LT$alloc..boxed..Box$LT$syn..pat..Pat$GT$$GT$17h48ec1dbe47a00c61E', symObjAddr: 0x6460, symBinAddr: 0x78D60, symSize: 0x50 }
  - { offsetInCU: 0x172F1, offset: 0x243825, size: 0x8, addend: 0x0, symName: '__ZN4core3ptr59drop_in_place$LT$alloc..boxed..Box$LT$syn..ty..Type$GT$$GT$17h454cab832bb38812E', symObjAddr: 0x64B0, symBinAddr: 0x78DB0, symSize: 0x50 }
  - { offsetInCU: 0x1744A, offset: 0x24397E, size: 0x8, addend: 0x0, symName: '__ZN4core3ptr61drop_in_place$LT$alloc..boxed..Box$LT$syn..expr..Expr$GT$$GT$17hbe6f5e1c721a6cd9E', symObjAddr: 0x6500, symBinAddr: 0x78E00, symSize: 0x50 }
  - { offsetInCU: 0x175A3, offset: 0x243AD7, size: 0x8, addend: 0x0, symName: '__ZN4core3ptr61drop_in_place$LT$syn..path..ParenthesizedGenericArguments$GT$17h2d220a34adaf921bE', symObjAddr: 0x6550, symBinAddr: 0x78E50, symSize: 0x170 }
  - { offsetInCU: 0x17BAC, offset: 0x2440E0, size: 0x8, addend: 0x0, symName: '__ZN4core3ptr63drop_in_place$LT$alloc..boxed..Box$LT$syn..lit..LitRepr$GT$$GT$17h44c55dd7d5499a10E', symObjAddr: 0x66C0, symBinAddr: 0x78FC0, symSize: 0x60 }
  - { offsetInCU: 0x17EB3, offset: 0x2443E7, size: 0x8, addend: 0x0, symName: '__ZN4core3ptr64drop_in_place$LT$alloc..boxed..Box$LT$syn..pat..FieldPat$GT$$GT$17h8a4c0395922411f9E', symObjAddr: 0x6720, symBinAddr: 0x79020, symSize: 0x180 }
  - { offsetInCU: 0x185D0, offset: 0x244B04, size: 0x8, addend: 0x0, symName: '__ZN4core3ptr64drop_in_place$LT$alloc..boxed..Box$LT$syn..ty..BareFnArg$GT$$GT$17h145502f35dc7a34dE', symObjAddr: 0x68A0, symBinAddr: 0x791A0, symSize: 0x160 }
  - { offsetInCU: 0x18B66, offset: 0x24509A, size: 0x8, addend: 0x0, symName: '__ZN4core3ptr65drop_in_place$LT$alloc..vec..Vec$LT$proc_macro..TokenTree$GT$$GT$17h27434ef986fc0c8fE.llvm.3362984653123252776', symObjAddr: 0x6A00, symBinAddr: 0x79300, symSize: 0x110 }
  - { offsetInCU: 0x18F5E, offset: 0x245492, size: 0x8, addend: 0x0, symName: '__ZN4core3ptr65drop_in_place$LT$core..option..Option$LT$syn..expr..Label$GT$$GT$17hf88e6caa939fd4b3E', symObjAddr: 0x6B10, symBinAddr: 0x79410, symSize: 0x30 }
  - { offsetInCU: 0x19098, offset: 0x2455CC, size: 0x8, addend: 0x0, symName: '__ZN4core3ptr66drop_in_place$LT$core..option..Option$LT$syn..ty..Variadic$GT$$GT$17hd53494a084af7b6fE', symObjAddr: 0x6B40, symBinAddr: 0x79440, symSize: 0xF0 }
  - { offsetInCU: 0x193C2, offset: 0x2458F6, size: 0x8, addend: 0x0, symName: '__ZN4core3ptr67drop_in_place$LT$alloc..boxed..Box$LT$syn..attr..NestedMeta$GT$$GT$17ha580df8ef7897d5cE.llvm.3362984653123252776', symObjAddr: 0x6C30, symBinAddr: 0x79530, symSize: 0xB0 }
  - { offsetInCU: 0x1957F, offset: 0x245AB3, size: 0x8, addend: 0x0, symName: '__ZN4core3ptr67drop_in_place$LT$alloc..boxed..Box$LT$syn..expr..FieldValue$GT$$GT$17hee600943c39f373eE', symObjAddr: 0x6CE0, symBinAddr: 0x795E0, symSize: 0x160 }
  - { offsetInCU: 0x19AF5, offset: 0x246029, size: 0x8, addend: 0x0, symName: '__ZN4core3ptr72drop_in_place$LT$core..option..Option$LT$syn..lifetime..Lifetime$GT$$GT$17h496ffbcd02d279ceE', symObjAddr: 0x6E40, symBinAddr: 0x79740, symSize: 0x30 }
  - { offsetInCU: 0x19C10, offset: 0x246144, size: 0x8, addend: 0x0, symName: '__ZN4core3ptr75drop_in_place$LT$alloc..boxed..Box$LT$syn..generics..TypeParamBound$GT$$GT$17h0d539f38c26df380E', symObjAddr: 0x6E70, symBinAddr: 0x79770, symSize: 0x140 }
  - { offsetInCU: 0x1A16B, offset: 0x24669F, size: 0x8, addend: 0x0, symName: '__ZN4core3ptr76drop_in_place$LT$alloc..vec..Vec$LT$derivative..matcher..BindingInfo$GT$$GT$17he8c6e023241e79d6E.llvm.3362984653123252776', symObjAddr: 0x6FB0, symBinAddr: 0x798B0, symSize: 0x60 }
  - { offsetInCU: 0x1A398, offset: 0x2468CC, size: 0x8, addend: 0x0, symName: '__ZN4core3ptr78drop_in_place$LT$alloc..boxed..Box$LT$syn..expr..GenericMethodArgument$GT$$GT$17h2e8ab754b2d35f4bE', symObjAddr: 0x7010, symBinAddr: 0x79910, symSize: 0x60 }
  - { offsetInCU: 0x1A58A, offset: 0x246ABE, size: 0x8, addend: 0x0, symName: '__ZN4core3ptr78drop_in_place$LT$core..option..Option$LT$syn..generics..BoundLifetimes$GT$$GT$17he70d317fbad5b599E.llvm.3362984653123252776', symObjAddr: 0x7070, symBinAddr: 0x79970, symSize: 0x90 }
  - { offsetInCU: 0x1A878, offset: 0x246DAC, size: 0x8, addend: 0x0, symName: '__ZN4core3ptr86drop_in_place$LT$syn..punctuated..Punctuated$LT$syn..pat..Pat$C$syn..token..Or$GT$$GT$17h2004905335266fbeE', symObjAddr: 0x7100, symBinAddr: 0x79A00, symSize: 0x120 }
  - { offsetInCU: 0x1ACF3, offset: 0x247227, size: 0x8, addend: 0x0, symName: '__ZN4core3ptr87drop_in_place$LT$core..option..Option$LT$alloc..boxed..Box$LT$syn..pat..Pat$GT$$GT$$GT$17h9151a9d5e0aa7e1eE', symObjAddr: 0x7220, symBinAddr: 0x79B20, symSize: 0x50 }
  - { offsetInCU: 0x1AE63, offset: 0x247397, size: 0x8, addend: 0x0, symName: '__ZN4core3ptr87drop_in_place$LT$core..option..Option$LT$alloc..boxed..Box$LT$syn..ty..Type$GT$$GT$$GT$17hd3cb46ad48d34655E', symObjAddr: 0x7270, symBinAddr: 0x79B70, symSize: 0x50 }
  - { offsetInCU: 0x1AFD3, offset: 0x247507, size: 0x8, addend: 0x0, symName: '__ZN4core3ptr89drop_in_place$LT$core..option..Option$LT$alloc..boxed..Box$LT$syn..expr..Expr$GT$$GT$$GT$17h9693feaa41001291E', symObjAddr: 0x72C0, symBinAddr: 0x79BC0, symSize: 0x50 }
  - { offsetInCU: 0x1B181, offset: 0x2476B5, size: 0x8, addend: 0x0, symName: '__ZN4core3ptr89drop_in_place$LT$syn..punctuated..Punctuated$LT$syn..pat..Pat$C$syn..token..Comma$GT$$GT$17hc735db3a40e860f2E', symObjAddr: 0x7310, symBinAddr: 0x79C10, symSize: 0x120 }
  - { offsetInCU: 0x1B651, offset: 0x247B85, size: 0x8, addend: 0x0, symName: '__ZN4core3ptr91drop_in_place$LT$syn..punctuated..Punctuated$LT$syn..expr..Expr$C$syn..token..Comma$GT$$GT$17h4abaeb5cfb586772E', symObjAddr: 0x7430, symBinAddr: 0x79D30, symSize: 0x120 }
  - { offsetInCU: 0x1BADF, offset: 0x248013, size: 0x8, addend: 0x0, symName: '__ZN4core3ptr94drop_in_place$LT$syn..punctuated..Punctuated$LT$syn..pat..FieldPat$C$syn..token..Comma$GT$$GT$17hf9927b8b52e25a50E', symObjAddr: 0x7550, symBinAddr: 0x79E50, symSize: 0xF0 }
  - { offsetInCU: 0x1BDDE, offset: 0x248312, size: 0x8, addend: 0x0, symName: '__ZN4core3ptr94drop_in_place$LT$syn..punctuated..Punctuated$LT$syn..ty..BareFnArg$C$syn..token..Comma$GT$$GT$17h577c8aa515f26074E', symObjAddr: 0x7640, symBinAddr: 0x79F40, symSize: 0xF0 }
  - { offsetInCU: 0x1C0DB, offset: 0x24860F, size: 0x8, addend: 0x0, symName: '__ZN4core3ptr95drop_in_place$LT$core..option..Option$LT$alloc..boxed..Box$LT$syn..attr..NestedMeta$GT$$GT$$GT$17h275352fed8fdd97aE.llvm.3362984653123252776', symObjAddr: 0x7730, symBinAddr: 0x7A030, symSize: 0x50 }
  - { offsetInCU: 0x1C24B, offset: 0x24877F, size: 0x8, addend: 0x0, symName: '__ZN4core3ptr96drop_in_place$LT$core..option..Option$LT$alloc..boxed..Box$LT$syn..path..PathSegment$GT$$GT$$GT$17hb35e105c29269971E', symObjAddr: 0x7780, symBinAddr: 0x7A080, symSize: 0x180 }
  - { offsetInCU: 0x1C927, offset: 0x248E5B, size: 0x8, addend: 0x0, symName: '__ZN4core3ptr97drop_in_place$LT$syn..punctuated..Punctuated$LT$syn..attr..NestedMeta$C$syn..token..Comma$GT$$GT$17h80d0bc3906f4abdeE.llvm.3362984653123252776', symObjAddr: 0x7950, symBinAddr: 0x7A200, symSize: 0x110 }
  - { offsetInCU: 0x1CC54, offset: 0x249188, size: 0x8, addend: 0x0, symName: '__ZN4core3ptr97drop_in_place$LT$syn..punctuated..Punctuated$LT$syn..expr..FieldValue$C$syn..token..Comma$GT$$GT$17h15366382fde2131eE', symObjAddr: 0x7A60, symBinAddr: 0x7A310, symSize: 0xF0 }
  - { offsetInCU: 0x1CFAE, offset: 0x2494E2, size: 0x8, addend: 0x0, symName: '__ZN4core3ptr97drop_in_place$LT$syn..punctuated..Punctuated$LT$syn..lifetime..Lifetime$C$syn..token..Add$GT$$GT$17hd50f0bf96210475aE.llvm.3362984653123252776', symObjAddr: 0x7B50, symBinAddr: 0x7A400, symSize: 0xD0 }
  - { offsetInCU: 0x25FA4, offset: 0x2524D8, size: 0x8, addend: 0x0, symName: '__ZN86_$LT$alloc..vec..into_iter..IntoIter$LT$T$C$A$GT$$u20$as$u20$core..ops..drop..Drop$GT$4drop17h1c166d8c07356c14E', symObjAddr: 0x7C20, symBinAddr: 0x7A4D0, symSize: 0xD0 }
  - { offsetInCU: 0x2630F, offset: 0x252843, size: 0x8, addend: 0x0, symName: '__ZN86_$LT$alloc..vec..into_iter..IntoIter$LT$T$C$A$GT$$u20$as$u20$core..ops..drop..Drop$GT$4drop17h1c2d668722fcb7c8E', symObjAddr: 0x7CF0, symBinAddr: 0x7A5A0, symSize: 0xF0 }
  - { offsetInCU: 0x266C8, offset: 0x252BFC, size: 0x8, addend: 0x0, symName: '__ZN86_$LT$alloc..vec..into_iter..IntoIter$LT$T$C$A$GT$$u20$as$u20$core..ops..drop..Drop$GT$4drop17h462453ad76495bceE', symObjAddr: 0x7E10, symBinAddr: 0x7A690, symSize: 0xF0 }
  - { offsetInCU: 0x26A6B, offset: 0x252F9F, size: 0x8, addend: 0x0, symName: '__ZN86_$LT$alloc..vec..into_iter..IntoIter$LT$T$C$A$GT$$u20$as$u20$core..ops..drop..Drop$GT$4drop17h663c00155884664fE', symObjAddr: 0x7F00, symBinAddr: 0x7A780, symSize: 0xD0 }
  - { offsetInCU: 0x26DD9, offset: 0x25330D, size: 0x8, addend: 0x0, symName: '__ZN86_$LT$alloc..vec..into_iter..IntoIter$LT$T$C$A$GT$$u20$as$u20$core..ops..drop..Drop$GT$4drop17h77920f3b2fa78851E', symObjAddr: 0x7FD0, symBinAddr: 0x7A850, symSize: 0x110 }
  - { offsetInCU: 0x271D0, offset: 0x253704, size: 0x8, addend: 0x0, symName: '__ZN86_$LT$alloc..vec..into_iter..IntoIter$LT$T$C$A$GT$$u20$as$u20$core..ops..drop..Drop$GT$4drop17h7aba09498a5c9f35E', symObjAddr: 0x80E0, symBinAddr: 0x7A960, symSize: 0xF0 }
  - { offsetInCU: 0x2753E, offset: 0x253A72, size: 0x8, addend: 0x0, symName: '__ZN86_$LT$alloc..vec..into_iter..IntoIter$LT$T$C$A$GT$$u20$as$u20$core..ops..drop..Drop$GT$4drop17hb881b8cbf735c437E', symObjAddr: 0x8200, symBinAddr: 0x7AA50, symSize: 0xF0 }
  - { offsetInCU: 0x278E0, offset: 0x253E14, size: 0x8, addend: 0x0, symName: '__ZN86_$LT$alloc..vec..into_iter..IntoIter$LT$T$C$A$GT$$u20$as$u20$core..ops..drop..Drop$GT$4drop17hd2d311b9cc17b33cE', symObjAddr: 0x82F0, symBinAddr: 0x7AB40, symSize: 0xDD }
  - { offsetInCU: 0x1E, offset: 0x259B32, size: 0x8, addend: 0x0, symName: __ZN5alloc7raw_vec11finish_grow17h4803593f7e06b7b1E.llvm.8131036050816051842, symObjAddr: 0x0, symBinAddr: 0x7AC20, symSize: 0xA0 }
  - { offsetInCU: 0x5BEF, offset: 0x25F703, size: 0x8, addend: 0x0, symName: __ZN5alloc7raw_vec11finish_grow17h4803593f7e06b7b1E.llvm.8131036050816051842, symObjAddr: 0x0, symBinAddr: 0x7AC20, symSize: 0xA0 }
  - { offsetInCU: 0x72F4, offset: 0x260E08, size: 0x8, addend: 0x0, symName: '__ZN5alloc7raw_vec19RawVec$LT$T$C$A$GT$7reserve21do_reserve_and_handle17h274b41a057034a36E', symObjAddr: 0x740, symBinAddr: 0x28C710, symSize: 0xA0 }
  - { offsetInCU: 0x75ED, offset: 0x261101, size: 0x8, addend: 0x0, symName: '__ZN5alloc7raw_vec19RawVec$LT$T$C$A$GT$7reserve21do_reserve_and_handle17h5b21dfae37a53021E', symObjAddr: 0x890, symBinAddr: 0x28C7B0, symSize: 0xB0 }
  - { offsetInCU: 0x7919, offset: 0x26142D, size: 0x8, addend: 0x0, symName: '__ZN5alloc7raw_vec19RawVec$LT$T$C$A$GT$7reserve21do_reserve_and_handle17h5beeef785ce6fff5E', symObjAddr: 0x940, symBinAddr: 0x28C860, symSize: 0xB0 }
  - { offsetInCU: 0x7C45, offset: 0x261759, size: 0x8, addend: 0x0, symName: '__ZN5alloc7raw_vec19RawVec$LT$T$C$A$GT$7reserve21do_reserve_and_handle17h8c8628a1c9575622E', symObjAddr: 0x9F0, symBinAddr: 0x28C910, symSize: 0xC0 }
  - { offsetInCU: 0x7F75, offset: 0x261A89, size: 0x8, addend: 0x0, symName: '__ZN5alloc7raw_vec19RawVec$LT$T$C$A$GT$7reserve21do_reserve_and_handle17h99e846b6c9022a7dE', symObjAddr: 0xAB0, symBinAddr: 0x28C9D0, symSize: 0xB0 }
  - { offsetInCU: 0x82A1, offset: 0x261DB5, size: 0x8, addend: 0x0, symName: '__ZN5alloc7raw_vec19RawVec$LT$T$C$A$GT$7reserve21do_reserve_and_handle17hbcb876501df22d25E', symObjAddr: 0xB60, symBinAddr: 0x28CA80, symSize: 0xC0 }
  - { offsetInCU: 0x85CF, offset: 0x2620E3, size: 0x8, addend: 0x0, symName: '__ZN5alloc7raw_vec19RawVec$LT$T$C$A$GT$7reserve21do_reserve_and_handle17heff9cc88fa69d712E', symObjAddr: 0xC20, symBinAddr: 0x28CB40, symSize: 0xC0 }
  - { offsetInCU: 0xF6E6, offset: 0x2691FA, size: 0x8, addend: 0x0, symName: '__ZN5alloc7raw_vec19RawVec$LT$T$C$A$GT$8grow_one17h211695ed86bae383E', symObjAddr: 0xCE0, symBinAddr: 0x7ACC0, symSize: 0xB0 }
  - { offsetInCU: 0xFBB3, offset: 0x2696C7, size: 0x8, addend: 0x0, symName: '__ZN5alloc7raw_vec19RawVec$LT$T$C$A$GT$8grow_one17h3dcbc0f11165a137E', symObjAddr: 0xD90, symBinAddr: 0x7AD70, symSize: 0xC0 }
  - { offsetInCU: 0x10080, offset: 0x269B94, size: 0x8, addend: 0x0, symName: '__ZN5alloc7raw_vec19RawVec$LT$T$C$A$GT$8grow_one17h5b5ff68e6ef6cd68E', symObjAddr: 0xE50, symBinAddr: 0x7AE30, symSize: 0xC0 }
  - { offsetInCU: 0x1054F, offset: 0x26A063, size: 0x8, addend: 0x0, symName: '__ZN5alloc7raw_vec19RawVec$LT$T$C$A$GT$8grow_one17h5e00b729e0c4dc8fE', symObjAddr: 0xF10, symBinAddr: 0x7AEF0, symSize: 0xC0 }
  - { offsetInCU: 0x10A1E, offset: 0x26A532, size: 0x8, addend: 0x0, symName: '__ZN5alloc7raw_vec19RawVec$LT$T$C$A$GT$8grow_one17h6893d7d7b6ade775E', symObjAddr: 0xFD0, symBinAddr: 0x7AFB0, symSize: 0xB0 }
  - { offsetInCU: 0x10EF8, offset: 0x26AA0C, size: 0x8, addend: 0x0, symName: '__ZN5alloc7raw_vec19RawVec$LT$T$C$A$GT$8grow_one17h914caa58c6d94f01E', symObjAddr: 0x1080, symBinAddr: 0x7B060, symSize: 0xB0 }
  - { offsetInCU: 0x11238, offset: 0x26AD4C, size: 0x8, addend: 0x0, symName: '__ZN5alloc7raw_vec19RawVec$LT$T$C$A$GT$8grow_one17had15e3ccbb4ad41bE', symObjAddr: 0x1130, symBinAddr: 0x7B110, symSize: 0xA0 }
  - { offsetInCU: 0x1E, offset: 0x26B164, size: 0x8, addend: 0x0, symName: '__ZN4core3ops8function5impls79_$LT$impl$u20$core..ops..function..FnMut$LT$A$GT$$u20$for$u20$$RF$mut$u20$F$GT$8call_mut17he7077e1ca3a85fecE', symObjAddr: 0x0, symBinAddr: 0x7B1B0, symSize: 0x1AB0 }
  - { offsetInCU: 0xE6, offset: 0x26B22C, size: 0x8, addend: 0x0, symName: '__ZN58_$LT$alloc..string..String$u20$as$u20$core..fmt..Write$GT$10write_char17h04bc467bd68a934bE', symObjAddr: 0x98E0, symBinAddr: 0x84A70, symSize: 0x140 }
  - { offsetInCU: 0x4EB, offset: 0x26B631, size: 0x8, addend: 0x0, symName: '__ZN58_$LT$alloc..string..String$u20$as$u20$core..fmt..Write$GT$9write_str17h46a93205c3443fbaE', symObjAddr: 0x9A20, symBinAddr: 0x84BB0, symSize: 0x60 }
  - { offsetInCU: 0x3B24, offset: 0x26EC6A, size: 0x8, addend: 0x0, symName: '__ZN4core3ptr100drop_in_place$LT$core..option..Option$LT$alloc..boxed..Box$LT$syn..generics..LifetimeDef$GT$$GT$$GT$17h82b6930fbf453d3cE.llvm.50969871205756260', symObjAddr: 0x1D80, symBinAddr: 0x7CF10, symSize: 0x50 }
  - { offsetInCU: 0x3CA6, offset: 0x26EDEC, size: 0x8, addend: 0x0, symName: '__ZN4core3ptr100drop_in_place$LT$core..option..Option$LT$alloc..boxed..Box$LT$syn..path..GenericArgument$GT$$GT$$GT$17hdec1aac3c1c32b1aE', symObjAddr: 0x1DD0, symBinAddr: 0x7CF60, symSize: 0x50 }
  - { offsetInCU: 0x3F8A, offset: 0x26F0D0, size: 0x8, addend: 0x0, symName: '__ZN4core3ptr101drop_in_place$LT$core..option..Option$LT$alloc..boxed..Box$LT$syn..generics..GenericParam$GT$$GT$$GT$17he31815cd43ed0b1bE', symObjAddr: 0x1E20, symBinAddr: 0x7CFB0, symSize: 0x310 }
  - { offsetInCU: 0x4987, offset: 0x26FACD, size: 0x8, addend: 0x0, symName: '__ZN4core3ptr103drop_in_place$LT$core..option..Option$LT$alloc..boxed..Box$LT$syn..generics..TypeParamBound$GT$$GT$$GT$17h4e76aebe6f41d1a7E', symObjAddr: 0x2130, symBinAddr: 0x7D2C0, symSize: 0x90 }
  - { offsetInCU: 0x4CBE, offset: 0x26FE04, size: 0x8, addend: 0x0, symName: '__ZN4core3ptr103drop_in_place$LT$core..option..Option$LT$alloc..boxed..Box$LT$syn..generics..WherePredicate$GT$$GT$$GT$17h3290cb3de36508f1E', symObjAddr: 0x21C0, symBinAddr: 0x7D350, symSize: 0x120 }
  - { offsetInCU: 0x5073, offset: 0x2701B9, size: 0x8, addend: 0x0, symName: '__ZN4core3ptr103drop_in_place$LT$syn..punctuated..Punctuated$LT$syn..generics..TypeParamBound$C$syn..token..Add$GT$$GT$17h283d6fefb1c71cfaE.llvm.50969871205756260', symObjAddr: 0x22E0, symBinAddr: 0x7D470, symSize: 0x200 }
  - { offsetInCU: 0x5951, offset: 0x270A97, size: 0x8, addend: 0x0, symName: '__ZN4core3ptr108drop_in_place$LT$syn..punctuated..Punctuated$LT$syn..expr..GenericMethodArgument$C$syn..token..Comma$GT$$GT$17h2aec9c03103ab694E', symObjAddr: 0x24E0, symBinAddr: 0x7D670, symSize: 0x150 }
  - { offsetInCU: 0x5E4D, offset: 0x270F93, size: 0x8, addend: 0x0, symName: '__ZN4core3ptr34drop_in_place$LT$syn..lit..Lit$GT$17ha842b5e81e8582b3E', symObjAddr: 0x2630, symBinAddr: 0x7D7C0, symSize: 0x110 }
  - { offsetInCU: 0x62BF, offset: 0x271405, size: 0x8, addend: 0x0, symName: '__ZN4core3ptr34drop_in_place$LT$syn..pat..Pat$GT$17h0621b062377aebcbE', symObjAddr: 0x2740, symBinAddr: 0x7D8D0, symSize: 0x1190 }
  - { offsetInCU: 0xA1D7, offset: 0x27531D, size: 0x8, addend: 0x0, symName: '__ZN4core3ptr34drop_in_place$LT$syn..ty..Type$GT$17h3d55b11c281dc967E.llvm.50969871205756260', symObjAddr: 0x38D0, symBinAddr: 0x7EA60, symSize: 0x580 }
  - { offsetInCU: 0xBAE8, offset: 0x276C2E, size: 0x8, addend: 0x0, symName: '__ZN4core3ptr36drop_in_place$LT$syn..expr..Expr$GT$17h68b218bdcee4a3c7E', symObjAddr: 0x3E50, symBinAddr: 0x7EFE0, symSize: 0x3290 }
  - { offsetInCU: 0x16379, offset: 0x2814BF, size: 0x8, addend: 0x0, symName: '__ZN4core3ptr36drop_in_place$LT$syn..mac..Macro$GT$17h158bcec479486e24E', symObjAddr: 0x70E0, symBinAddr: 0x82270, symSize: 0x40 }
  - { offsetInCU: 0x164CA, offset: 0x281610, size: 0x8, addend: 0x0, symName: '__ZN4core3ptr36drop_in_place$LT$syn..path..Path$GT$17hdc92c6b0523379a3E', symObjAddr: 0x7120, symBinAddr: 0x822B0, symSize: 0x230 }
  - { offsetInCU: 0x16E60, offset: 0x281FA6, size: 0x8, addend: 0x0, symName: '__ZN4core3ptr37drop_in_place$LT$syn..stmt..Block$GT$17hfffa15f159ccade9E', symObjAddr: 0x7350, symBinAddr: 0x824E0, symSize: 0xD0 }
  - { offsetInCU: 0x17137, offset: 0x28227D, size: 0x8, addend: 0x0, symName: '__ZN4core3ptr38drop_in_place$LT$syn..expr..Member$GT$17h24b2f28a51f276afE', symObjAddr: 0x7420, symBinAddr: 0x825B0, symSize: 0x30 }
  - { offsetInCU: 0x17233, offset: 0x282379, size: 0x8, addend: 0x0, symName: '__ZN4core3ptr39drop_in_place$LT$proc_macro2..Ident$GT$17he0509ca0076c6db2E', symObjAddr: 0x7450, symBinAddr: 0x825E0, symSize: 0x30 }
  - { offsetInCU: 0x17310, offset: 0x282456, size: 0x8, addend: 0x0, symName: '__ZN4core3ptr39drop_in_place$LT$syn..pat..PatTuple$GT$17ha1d19a764bcc1cb3E', symObjAddr: 0x7480, symBinAddr: 0x82610, symSize: 0x100 }
  - { offsetInCU: 0x17619, offset: 0x28275F, size: 0x8, addend: 0x0, symName: '__ZN4core3ptr40drop_in_place$LT$syn..ty..ReturnType$GT$17h2d60777f70ee0d22E', symObjAddr: 0x7580, symBinAddr: 0x82710, symSize: 0x50 }
  - { offsetInCU: 0x17789, offset: 0x2828CF, size: 0x8, addend: 0x0, symName: '__ZN4core3ptr42drop_in_place$LT$alloc..string..String$GT$17h073d01a47536ee6fE', symObjAddr: 0x75D0, symBinAddr: 0x82760, symSize: 0x20 }
  - { offsetInCU: 0x178EE, offset: 0x282A34, size: 0x8, addend: 0x0, symName: '__ZN4core3ptr44drop_in_place$LT$syn..generics..Generics$GT$17h04fed1a77f85cbfaE', symObjAddr: 0x75F0, symBinAddr: 0x82780, symSize: 0xA0 }
  - { offsetInCU: 0x17B5A, offset: 0x282CA0, size: 0x8, addend: 0x0, symName: '__ZN4core3ptr44drop_in_place$LT$syn..lifetime..Lifetime$GT$17he83b0b529a581d24E.llvm.50969871205756260', symObjAddr: 0x7690, symBinAddr: 0x82820, symSize: 0x30 }
  - { offsetInCU: 0x17D8C, offset: 0x282ED2, size: 0x8, addend: 0x0, symName: '__ZN4core3ptr45drop_in_place$LT$proc_macro2..TokenStream$GT$17h7e9a94df6c9afdc7E', symObjAddr: 0x76C0, symBinAddr: 0x82850, symSize: 0x140 }
  - { offsetInCU: 0x181E8, offset: 0x28332E, size: 0x8, addend: 0x0, symName: '__ZN4core3ptr47drop_in_place$LT$syn..generics..LifetimeDef$GT$17h8d3cfa3ea57a860bE.llvm.50969871205756260', symObjAddr: 0x7800, symBinAddr: 0x82990, symSize: 0x120 }
  - { offsetInCU: 0x18643, offset: 0x283789, size: 0x8, addend: 0x0, symName: '__ZN4core3ptr47drop_in_place$LT$syn..path..GenericArgument$GT$17hc55a20af1acae48eE', symObjAddr: 0x7920, symBinAddr: 0x82AB0, symSize: 0x110 }
  - { offsetInCU: 0x1895E, offset: 0x283AA4, size: 0x8, addend: 0x0, symName: '__ZN4core3ptr58drop_in_place$LT$alloc..vec..Vec$LT$syn..expr..Arm$GT$$GT$17hdd3822aa758753c7E', symObjAddr: 0x7A30, symBinAddr: 0x82BC0, symSize: 0xD0 }
  - { offsetInCU: 0x18C1E, offset: 0x283D64, size: 0x8, addend: 0x0, symName: '__ZN4core3ptr59drop_in_place$LT$alloc..boxed..Box$LT$syn..pat..Pat$GT$$GT$17h48ec1dbe47a00c61E', symObjAddr: 0x7B00, symBinAddr: 0x82C90, symSize: 0x50 }
  - { offsetInCU: 0x18D77, offset: 0x283EBD, size: 0x8, addend: 0x0, symName: '__ZN4core3ptr59drop_in_place$LT$alloc..boxed..Box$LT$syn..ty..Type$GT$$GT$17h454cab832bb38812E', symObjAddr: 0x7B50, symBinAddr: 0x82CE0, symSize: 0x50 }
  - { offsetInCU: 0x18ED0, offset: 0x284016, size: 0x8, addend: 0x0, symName: '__ZN4core3ptr61drop_in_place$LT$alloc..boxed..Box$LT$syn..expr..Expr$GT$$GT$17hbe6f5e1c721a6cd9E', symObjAddr: 0x7BA0, symBinAddr: 0x82D30, symSize: 0x50 }
  - { offsetInCU: 0x190A5, offset: 0x2841EB, size: 0x8, addend: 0x0, symName: '__ZN4core3ptr61drop_in_place$LT$syn..path..ParenthesizedGenericArguments$GT$17h2d220a34adaf921bE', symObjAddr: 0x7BF0, symBinAddr: 0x82D80, symSize: 0x170 }
  - { offsetInCU: 0x1969B, offset: 0x2847E1, size: 0x8, addend: 0x0, symName: '__ZN4core3ptr63drop_in_place$LT$alloc..boxed..Box$LT$syn..lit..LitRepr$GT$$GT$17h44c55dd7d5499a10E', symObjAddr: 0x7D60, symBinAddr: 0x82EF0, symSize: 0x60 }
  - { offsetInCU: 0x199A2, offset: 0x284AE8, size: 0x8, addend: 0x0, symName: '__ZN4core3ptr64drop_in_place$LT$alloc..boxed..Box$LT$syn..pat..FieldPat$GT$$GT$17h8a4c0395922411f9E', symObjAddr: 0x7DC0, symBinAddr: 0x82F50, symSize: 0x180 }
  - { offsetInCU: 0x1A0BF, offset: 0x285205, size: 0x8, addend: 0x0, symName: '__ZN4core3ptr64drop_in_place$LT$alloc..boxed..Box$LT$syn..ty..BareFnArg$GT$$GT$17h145502f35dc7a34dE', symObjAddr: 0x7F40, symBinAddr: 0x830D0, symSize: 0x160 }
  - { offsetInCU: 0x1A655, offset: 0x28579B, size: 0x8, addend: 0x0, symName: '__ZN4core3ptr65drop_in_place$LT$alloc..vec..Vec$LT$proc_macro..TokenTree$GT$$GT$17h27434ef986fc0c8fE', symObjAddr: 0x80A0, symBinAddr: 0x83230, symSize: 0x110 }
  - { offsetInCU: 0x1AA4D, offset: 0x285B93, size: 0x8, addend: 0x0, symName: '__ZN4core3ptr65drop_in_place$LT$core..option..Option$LT$syn..expr..Label$GT$$GT$17hf88e6caa939fd4b3E', symObjAddr: 0x81B0, symBinAddr: 0x83340, symSize: 0x30 }
  - { offsetInCU: 0x1AB87, offset: 0x285CCD, size: 0x8, addend: 0x0, symName: '__ZN4core3ptr66drop_in_place$LT$core..option..Option$LT$syn..ty..Variadic$GT$$GT$17hd53494a084af7b6fE', symObjAddr: 0x81E0, symBinAddr: 0x83370, symSize: 0xF0 }
  - { offsetInCU: 0x1AEB1, offset: 0x285FF7, size: 0x8, addend: 0x0, symName: '__ZN4core3ptr67drop_in_place$LT$alloc..boxed..Box$LT$syn..expr..FieldValue$GT$$GT$17hee600943c39f373eE', symObjAddr: 0x82D0, symBinAddr: 0x83460, symSize: 0x160 }
  - { offsetInCU: 0x1B446, offset: 0x28658C, size: 0x8, addend: 0x0, symName: '__ZN4core3ptr68drop_in_place$LT$alloc..boxed..Box$LT$syn..path..PathSegment$GT$$GT$17he2e359177565069bE', symObjAddr: 0x8430, symBinAddr: 0x835C0, symSize: 0x190 }
  - { offsetInCU: 0x1BB6F, offset: 0x286CB5, size: 0x8, addend: 0x0, symName: '__ZN4core3ptr72drop_in_place$LT$alloc..boxed..Box$LT$syn..path..GenericArgument$GT$$GT$17h193e4d7337ac8d1fE', symObjAddr: 0x85C0, symBinAddr: 0x83750, symSize: 0x1D0 }
  - { offsetInCU: 0x1C296, offset: 0x2873DC, size: 0x8, addend: 0x0, symName: '__ZN4core3ptr72drop_in_place$LT$core..option..Option$LT$syn..lifetime..Lifetime$GT$$GT$17h496ffbcd02d279ceE', symObjAddr: 0x8790, symBinAddr: 0x83920, symSize: 0x30 }
  - { offsetInCU: 0x1C3D0, offset: 0x287516, size: 0x8, addend: 0x0, symName: '__ZN4core3ptr73drop_in_place$LT$alloc..vec..Vec$LT$syn..generics..WherePredicate$GT$$GT$17h6e47b26cbb7e8828E', symObjAddr: 0x87C0, symBinAddr: 0x83950, symSize: 0xD0 }
  - { offsetInCU: 0x1C6A3, offset: 0x2877E9, size: 0x8, addend: 0x0, symName: '__ZN4core3ptr75drop_in_place$LT$alloc..boxed..Box$LT$syn..generics..TypeParamBound$GT$$GT$17h0d539f38c26df380E', symObjAddr: 0x8890, symBinAddr: 0x83A20, symSize: 0x140 }
  - { offsetInCU: 0x1CC7A, offset: 0x287DC0, size: 0x8, addend: 0x0, symName: '__ZN4core3ptr75drop_in_place$LT$core..option..Option$LT$syn..generics..WhereClause$GT$$GT$17h84be8bcb2f09b9d1E', symObjAddr: 0x89D0, symBinAddr: 0x83B60, symSize: 0xF0 }
  - { offsetInCU: 0x1CFD0, offset: 0x288116, size: 0x8, addend: 0x0, symName: '__ZN4core3ptr78drop_in_place$LT$alloc..boxed..Box$LT$syn..expr..GenericMethodArgument$GT$$GT$17h2e8ab754b2d35f4bE', symObjAddr: 0x8AC0, symBinAddr: 0x83C50, symSize: 0x60 }
  - { offsetInCU: 0x1D1E1, offset: 0x288327, size: 0x8, addend: 0x0, symName: '__ZN4core3ptr78drop_in_place$LT$core..option..Option$LT$syn..generics..BoundLifetimes$GT$$GT$17he70d317fbad5b599E.llvm.50969871205756260', symObjAddr: 0x8B20, symBinAddr: 0x83CB0, symSize: 0xC0 }
  - { offsetInCU: 0x1D617, offset: 0x28875D, size: 0x8, addend: 0x0, symName: '__ZN4core3ptr86drop_in_place$LT$syn..punctuated..Punctuated$LT$syn..pat..Pat$C$syn..token..Or$GT$$GT$17h2004905335266fbeE', symObjAddr: 0x8BE0, symBinAddr: 0x83D70, symSize: 0x120 }
  - { offsetInCU: 0x1DA92, offset: 0x288BD8, size: 0x8, addend: 0x0, symName: '__ZN4core3ptr87drop_in_place$LT$core..option..Option$LT$alloc..boxed..Box$LT$syn..pat..Pat$GT$$GT$$GT$17h9151a9d5e0aa7e1eE', symObjAddr: 0x8D00, symBinAddr: 0x83E90, symSize: 0x50 }
  - { offsetInCU: 0x1DC02, offset: 0x288D48, size: 0x8, addend: 0x0, symName: '__ZN4core3ptr87drop_in_place$LT$core..option..Option$LT$alloc..boxed..Box$LT$syn..ty..Type$GT$$GT$$GT$17hd3cb46ad48d34655E', symObjAddr: 0x8D50, symBinAddr: 0x83EE0, symSize: 0x50 }
  - { offsetInCU: 0x1DD72, offset: 0x288EB8, size: 0x8, addend: 0x0, symName: '__ZN4core3ptr89drop_in_place$LT$core..option..Option$LT$alloc..boxed..Box$LT$syn..expr..Expr$GT$$GT$$GT$17h9693feaa41001291E', symObjAddr: 0x8DA0, symBinAddr: 0x83F30, symSize: 0x50 }
  - { offsetInCU: 0x1DF20, offset: 0x289066, size: 0x8, addend: 0x0, symName: '__ZN4core3ptr89drop_in_place$LT$syn..punctuated..Punctuated$LT$syn..pat..Pat$C$syn..token..Comma$GT$$GT$17hc735db3a40e860f2E', symObjAddr: 0x8DF0, symBinAddr: 0x83F80, symSize: 0x120 }
  - { offsetInCU: 0x1E3B2, offset: 0x2894F8, size: 0x8, addend: 0x0, symName: '__ZN4core3ptr89drop_in_place$LT$syn..punctuated..Punctuated$LT$syn..ty..Type$C$syn..token..Comma$GT$$GT$17he63552f348a6dc51E', symObjAddr: 0x8F10, symBinAddr: 0x840A0, symSize: 0x120 }
  - { offsetInCU: 0x1E86B, offset: 0x2899B1, size: 0x8, addend: 0x0, symName: '__ZN4core3ptr91drop_in_place$LT$syn..punctuated..Punctuated$LT$syn..expr..Expr$C$syn..token..Comma$GT$$GT$17h4abaeb5cfb586772E', symObjAddr: 0x9030, symBinAddr: 0x841C0, symSize: 0x120 }
  - { offsetInCU: 0x1ECF9, offset: 0x289E3F, size: 0x8, addend: 0x0, symName: '__ZN4core3ptr94drop_in_place$LT$syn..punctuated..Punctuated$LT$syn..pat..FieldPat$C$syn..token..Comma$GT$$GT$17hf9927b8b52e25a50E', symObjAddr: 0x9150, symBinAddr: 0x842E0, symSize: 0xF0 }
  - { offsetInCU: 0x1EFF8, offset: 0x28A13E, size: 0x8, addend: 0x0, symName: '__ZN4core3ptr94drop_in_place$LT$syn..punctuated..Punctuated$LT$syn..ty..BareFnArg$C$syn..token..Comma$GT$$GT$17h577c8aa515f26074E', symObjAddr: 0x9240, symBinAddr: 0x843D0, symSize: 0xF0 }
  - { offsetInCU: 0x1F2F5, offset: 0x28A43B, size: 0x8, addend: 0x0, symName: '__ZN4core3ptr96drop_in_place$LT$core..option..Option$LT$alloc..boxed..Box$LT$syn..path..PathSegment$GT$$GT$$GT$17hb35e105c29269971E', symObjAddr: 0x9330, symBinAddr: 0x844C0, symSize: 0x180 }
  - { offsetInCU: 0x1F9B2, offset: 0x28AAF8, size: 0x8, addend: 0x0, symName: '__ZN4core3ptr97drop_in_place$LT$syn..punctuated..Punctuated$LT$syn..expr..FieldValue$C$syn..token..Comma$GT$$GT$17h15366382fde2131eE', symObjAddr: 0x94B0, symBinAddr: 0x84640, symSize: 0xF0 }
  - { offsetInCU: 0x1FD2B, offset: 0x28AE71, size: 0x8, addend: 0x0, symName: '__ZN4core3ptr97drop_in_place$LT$syn..punctuated..Punctuated$LT$syn..lifetime..Lifetime$C$syn..token..Add$GT$$GT$17hd50f0bf96210475aE.llvm.50969871205756260', symObjAddr: 0x95A0, symBinAddr: 0x84730, symSize: 0xD0 }
  - { offsetInCU: 0x2019F, offset: 0x28B2E5, size: 0x8, addend: 0x0, symName: '__ZN4core3ptr99drop_in_place$LT$syn..punctuated..Punctuated$LT$syn..path..PathSegment$C$syn..token..Colon2$GT$$GT$17h603ba227c074f4bfE', symObjAddr: 0x9670, symBinAddr: 0x84800, symSize: 0x250 }
  - { offsetInCU: 0x20FD8, offset: 0x28C11E, size: 0x8, addend: 0x0, symName: '__ZN53_$LT$core..fmt..Error$u20$as$u20$core..fmt..Debug$GT$3fmt17h03dc662ab152f3aeE', symObjAddr: 0x98C0, symBinAddr: 0x84A50, symSize: 0x20 }
  - { offsetInCU: 0x23A5E, offset: 0x28EBA4, size: 0x8, addend: 0x0, symName: '__ZN4core3ops8function5impls80_$LT$impl$u20$core..ops..function..FnOnce$LT$A$GT$$u20$for$u20$$RF$mut$u20$F$GT$9call_once17hb8a819acd5cf97e3E', symObjAddr: 0x1AD0, symBinAddr: 0x7CC60, symSize: 0x2B0 }
  - { offsetInCU: 0x23BFE, offset: 0x28ED44, size: 0x8, addend: 0x0, symName: '__ZN4core3ops8function5impls79_$LT$impl$u20$core..ops..function..FnMut$LT$A$GT$$u20$for$u20$$RF$mut$u20$F$GT$8call_mut17he7077e1ca3a85fecE', symObjAddr: 0x0, symBinAddr: 0x7B1B0, symSize: 0x1AB0 }
  - { offsetInCU: 0x2698A, offset: 0x291AD0, size: 0x8, addend: 0x0, symName: __ZN10derivative5debug6derive17h62dce79c331bc766E, symObjAddr: 0x9A80, symBinAddr: 0x84C10, symSize: 0x870 }
  - { offsetInCU: 0x26FE7, offset: 0x29212D, size: 0x8, addend: 0x0, symName: __ZN10derivative5debug16debug_trait_path17h4fd2be28123794b0E, symObjAddr: 0xA310, symBinAddr: 0x85480, symSize: 0xD0 }
  - { offsetInCU: 0x27022, offset: 0x292168, size: 0x8, addend: 0x0, symName: __ZN10derivative5debug8fmt_path17h9248650704966386E, symObjAddr: 0xA3E0, symBinAddr: 0x85550, symSize: 0xA3 }
  - { offsetInCU: 0xE51, offset: 0x29D6AD, size: 0x8, addend: 0x0, symName: __ZN10derivative3cmp9derive_eq17h5c2a25a2ec6393d2E, symObjAddr: 0x7640, symBinAddr: 0x8CBE0, symSize: 0x780 }
  - { offsetInCU: 0x1AF9, offset: 0x29E355, size: 0x8, addend: 0x0, symName: __ZN10derivative3cmp17derive_partial_eq17h44250dcf2e6d9264E, symObjAddr: 0x7DC0, symBinAddr: 0x8D360, symSize: 0x1040 }
  - { offsetInCU: 0x2F14, offset: 0x29F770, size: 0x8, addend: 0x0, symName: __ZN10derivative3cmp18derive_partial_ord17he2eff6f16b079b35E, symObjAddr: 0x8E00, symBinAddr: 0x8E3A0, symSize: 0xD30 }
  - { offsetInCU: 0x4256, offset: 0x2A0AB2, size: 0x8, addend: 0x0, symName: __ZN10derivative3cmp10derive_ord17hcecdd08397670df6E, symObjAddr: 0x9B30, symBinAddr: 0x8F0D0, symSize: 0xBF0 }
  - { offsetInCU: 0x550D, offset: 0x2A1D69, size: 0x8, addend: 0x0, symName: __ZN10derivative3cmp22partial_ord_trait_path17h8f1fa673223d5918E, symObjAddr: 0xA7A0, symBinAddr: 0x8FCC0, symSize: 0xD0 }
  - { offsetInCU: 0x554A, offset: 0x2A1DA6, size: 0x8, addend: 0x0, symName: __ZN10derivative3cmp14ord_trait_path17hf3e041393bd7f071E, symObjAddr: 0xA870, symBinAddr: 0x8FD90, symSize: 0xD0 }
  - { offsetInCU: 0x5587, offset: 0x2A1DE3, size: 0x8, addend: 0x0, symName: __ZN10derivative3cmp13ordering_path17hc54e9eabb754c494E, symObjAddr: 0xA940, symBinAddr: 0x8FE60, symSize: 0xC1 }
  - { offsetInCU: 0x6A4E, offset: 0x2A32AA, size: 0x8, addend: 0x0, symName: '__ZN4core3ptr100drop_in_place$LT$core..option..Option$LT$alloc..boxed..Box$LT$syn..generics..LifetimeDef$GT$$GT$$GT$17h82b6930fbf453d3cE', symObjAddr: 0x2B0, symBinAddr: 0x85850, symSize: 0x50 }
  - { offsetInCU: 0x6BD0, offset: 0x2A342C, size: 0x8, addend: 0x0, symName: '__ZN4core3ptr100drop_in_place$LT$core..option..Option$LT$alloc..boxed..Box$LT$syn..path..GenericArgument$GT$$GT$$GT$17hdec1aac3c1c32b1aE', symObjAddr: 0x300, symBinAddr: 0x858A0, symSize: 0x50 }
  - { offsetInCU: 0x6EB4, offset: 0x2A3710, size: 0x8, addend: 0x0, symName: '__ZN4core3ptr101drop_in_place$LT$core..option..Option$LT$alloc..boxed..Box$LT$syn..generics..GenericParam$GT$$GT$$GT$17he31815cd43ed0b1bE', symObjAddr: 0x350, symBinAddr: 0x858F0, symSize: 0x310 }
  - { offsetInCU: 0x78EF, offset: 0x2A414B, size: 0x8, addend: 0x0, symName: '__ZN4core3ptr103drop_in_place$LT$core..option..Option$LT$alloc..boxed..Box$LT$syn..generics..WherePredicate$GT$$GT$$GT$17h3290cb3de36508f1E', symObjAddr: 0x660, symBinAddr: 0x85C00, symSize: 0x120 }
  - { offsetInCU: 0x7D01, offset: 0x2A455D, size: 0x8, addend: 0x0, symName: '__ZN4core3ptr103drop_in_place$LT$syn..punctuated..Punctuated$LT$syn..generics..TypeParamBound$C$syn..token..Add$GT$$GT$17h283d6fefb1c71cfaE', symObjAddr: 0x780, symBinAddr: 0x85D20, symSize: 0x200 }
  - { offsetInCU: 0x85F2, offset: 0x2A4E4E, size: 0x8, addend: 0x0, symName: '__ZN4core3ptr108drop_in_place$LT$syn..punctuated..Punctuated$LT$syn..expr..GenericMethodArgument$C$syn..token..Comma$GT$$GT$17h2aec9c03103ab694E', symObjAddr: 0x980, symBinAddr: 0x85F20, symSize: 0x150 }
  - { offsetInCU: 0x8B4B, offset: 0x2A53A7, size: 0x8, addend: 0x0, symName: '__ZN4core3ptr34drop_in_place$LT$syn..lit..Lit$GT$17ha842b5e81e8582b3E', symObjAddr: 0xAD0, symBinAddr: 0x86070, symSize: 0x110 }
  - { offsetInCU: 0x8FBD, offset: 0x2A5819, size: 0x8, addend: 0x0, symName: '__ZN4core3ptr34drop_in_place$LT$syn..pat..Pat$GT$17h0621b062377aebcbE', symObjAddr: 0xBE0, symBinAddr: 0x86180, symSize: 0x1050 }
  - { offsetInCU: 0xC97C, offset: 0x2A91D8, size: 0x8, addend: 0x0, symName: '__ZN4core3ptr34drop_in_place$LT$syn..ty..Type$GT$17h3d55b11c281dc967E', symObjAddr: 0x1C30, symBinAddr: 0x871D0, symSize: 0x620 }
  - { offsetInCU: 0xE5B4, offset: 0x2AAE10, size: 0x8, addend: 0x0, symName: '__ZN4core3ptr36drop_in_place$LT$syn..expr..Expr$GT$17h68b218bdcee4a3c7E', symObjAddr: 0x2250, symBinAddr: 0x877F0, symSize: 0x31D0 }
  - { offsetInCU: 0x18B3D, offset: 0x2B5399, size: 0x8, addend: 0x0, symName: '__ZN4core3ptr36drop_in_place$LT$syn..mac..Macro$GT$17h158bcec479486e24E', symObjAddr: 0x5420, symBinAddr: 0x8A9C0, symSize: 0xE0 }
  - { offsetInCU: 0x18F43, offset: 0x2B579F, size: 0x8, addend: 0x0, symName: '__ZN4core3ptr36drop_in_place$LT$syn..path..Path$GT$17hdc92c6b0523379a3E', symObjAddr: 0x5500, symBinAddr: 0x8AAA0, symSize: 0x230 }
  - { offsetInCU: 0x198D9, offset: 0x2B6135, size: 0x8, addend: 0x0, symName: '__ZN4core3ptr37drop_in_place$LT$syn..stmt..Block$GT$17hfffa15f159ccade9E', symObjAddr: 0x5730, symBinAddr: 0x8ACD0, symSize: 0xD0 }
  - { offsetInCU: 0x19BEE, offset: 0x2B644A, size: 0x8, addend: 0x0, symName: '__ZN4core3ptr38drop_in_place$LT$syn..error..Error$GT$17h3aa27a792d2ab4d2E', symObjAddr: 0x5800, symBinAddr: 0x8ADA0, symSize: 0x80 }
  - { offsetInCU: 0x19E9B, offset: 0x2B66F7, size: 0x8, addend: 0x0, symName: '__ZN4core3ptr38drop_in_place$LT$syn..expr..Member$GT$17h24b2f28a51f276afE', symObjAddr: 0x5880, symBinAddr: 0x8AE20, symSize: 0x30 }
  - { offsetInCU: 0x19F97, offset: 0x2B67F3, size: 0x8, addend: 0x0, symName: '__ZN4core3ptr39drop_in_place$LT$proc_macro2..Ident$GT$17he0509ca0076c6db2E', symObjAddr: 0x58B0, symBinAddr: 0x8AE50, symSize: 0x30 }
  - { offsetInCU: 0x1A074, offset: 0x2B68D0, size: 0x8, addend: 0x0, symName: '__ZN4core3ptr39drop_in_place$LT$syn..pat..PatTuple$GT$17ha1d19a764bcc1cb3E', symObjAddr: 0x58E0, symBinAddr: 0x8AE80, symSize: 0x100 }
  - { offsetInCU: 0x1A37D, offset: 0x2B6BD9, size: 0x8, addend: 0x0, symName: '__ZN4core3ptr40drop_in_place$LT$syn..ty..ReturnType$GT$17h2d60777f70ee0d22E', symObjAddr: 0x59E0, symBinAddr: 0x8AF80, symSize: 0x50 }
  - { offsetInCU: 0x1A54A, offset: 0x2B6DA6, size: 0x8, addend: 0x0, symName: '__ZN4core3ptr44drop_in_place$LT$syn..generics..Generics$GT$17h04fed1a77f85cbfaE', symObjAddr: 0x5A30, symBinAddr: 0x8AFD0, symSize: 0xA0 }
  - { offsetInCU: 0x1A7B6, offset: 0x2B7012, size: 0x8, addend: 0x0, symName: '__ZN4core3ptr44drop_in_place$LT$syn..lifetime..Lifetime$GT$17he83b0b529a581d24E', symObjAddr: 0x5AD0, symBinAddr: 0x8B070, symSize: 0x30 }
  - { offsetInCU: 0x1A9E8, offset: 0x2B7244, size: 0x8, addend: 0x0, symName: '__ZN4core3ptr45drop_in_place$LT$proc_macro2..TokenStream$GT$17h7e9a94df6c9afdc7E.llvm.10239574435929229044', symObjAddr: 0x5B00, symBinAddr: 0x8B0A0, symSize: 0x140 }
  - { offsetInCU: 0x1AE44, offset: 0x2B76A0, size: 0x8, addend: 0x0, symName: '__ZN4core3ptr47drop_in_place$LT$syn..generics..LifetimeDef$GT$17h8d3cfa3ea57a860bE', symObjAddr: 0x5C40, symBinAddr: 0x8B1E0, symSize: 0x120 }
  - { offsetInCU: 0x1B2BE, offset: 0x2B7B1A, size: 0x8, addend: 0x0, symName: '__ZN4core3ptr47drop_in_place$LT$syn..generics..WhereClause$GT$17h1b98f6923c0917b2E', symObjAddr: 0x5D60, symBinAddr: 0x8B300, symSize: 0xE0 }
  - { offsetInCU: 0x1B61E, offset: 0x2B7E7A, size: 0x8, addend: 0x0, symName: '__ZN4core3ptr47drop_in_place$LT$syn..path..GenericArgument$GT$17hc55a20af1acae48eE', symObjAddr: 0x5E40, symBinAddr: 0x8B3E0, symSize: 0x110 }
  - { offsetInCU: 0x1B94C, offset: 0x2B81A8, size: 0x8, addend: 0x0, symName: '__ZN4core3ptr58drop_in_place$LT$alloc..vec..Vec$LT$syn..expr..Arm$GT$$GT$17hdd3822aa758753c7E', symObjAddr: 0x5F50, symBinAddr: 0x8B4F0, symSize: 0xD0 }
  - { offsetInCU: 0x1BC0C, offset: 0x2B8468, size: 0x8, addend: 0x0, symName: '__ZN4core3ptr59drop_in_place$LT$alloc..boxed..Box$LT$syn..pat..Pat$GT$$GT$17h48ec1dbe47a00c61E', symObjAddr: 0x6020, symBinAddr: 0x8B5C0, symSize: 0x50 }
  - { offsetInCU: 0x1BD65, offset: 0x2B85C1, size: 0x8, addend: 0x0, symName: '__ZN4core3ptr59drop_in_place$LT$alloc..boxed..Box$LT$syn..ty..Type$GT$$GT$17h454cab832bb38812E', symObjAddr: 0x6070, symBinAddr: 0x8B610, symSize: 0x50 }
  - { offsetInCU: 0x1BEBE, offset: 0x2B871A, size: 0x8, addend: 0x0, symName: '__ZN4core3ptr61drop_in_place$LT$alloc..boxed..Box$LT$syn..expr..Expr$GT$$GT$17hbe6f5e1c721a6cd9E', symObjAddr: 0x60C0, symBinAddr: 0x8B660, symSize: 0x50 }
  - { offsetInCU: 0x1C017, offset: 0x2B8873, size: 0x8, addend: 0x0, symName: '__ZN4core3ptr61drop_in_place$LT$syn..path..ParenthesizedGenericArguments$GT$17h2d220a34adaf921bE', symObjAddr: 0x6110, symBinAddr: 0x8B6B0, symSize: 0x170 }
  - { offsetInCU: 0x1C620, offset: 0x2B8E7C, size: 0x8, addend: 0x0, symName: '__ZN4core3ptr63drop_in_place$LT$alloc..boxed..Box$LT$syn..lit..LitRepr$GT$$GT$17h44c55dd7d5499a10E', symObjAddr: 0x6280, symBinAddr: 0x8B820, symSize: 0x60 }
  - { offsetInCU: 0x1C927, offset: 0x2B9183, size: 0x8, addend: 0x0, symName: '__ZN4core3ptr64drop_in_place$LT$alloc..boxed..Box$LT$syn..pat..FieldPat$GT$$GT$17h8a4c0395922411f9E', symObjAddr: 0x62E0, symBinAddr: 0x8B880, symSize: 0x180 }
  - { offsetInCU: 0x1D044, offset: 0x2B98A0, size: 0x8, addend: 0x0, symName: '__ZN4core3ptr64drop_in_place$LT$alloc..boxed..Box$LT$syn..ty..BareFnArg$GT$$GT$17h145502f35dc7a34dE', symObjAddr: 0x6460, symBinAddr: 0x8BA00, symSize: 0x160 }
  - { offsetInCU: 0x1D5DA, offset: 0x2B9E36, size: 0x8, addend: 0x0, symName: '__ZN4core3ptr65drop_in_place$LT$alloc..vec..Vec$LT$proc_macro..TokenTree$GT$$GT$17h27434ef986fc0c8fE.llvm.10239574435929229044', symObjAddr: 0x65C0, symBinAddr: 0x8BB60, symSize: 0x110 }
  - { offsetInCU: 0x1D9D2, offset: 0x2BA22E, size: 0x8, addend: 0x0, symName: '__ZN4core3ptr65drop_in_place$LT$core..option..Option$LT$syn..expr..Label$GT$$GT$17hf88e6caa939fd4b3E', symObjAddr: 0x66D0, symBinAddr: 0x8BC70, symSize: 0x30 }
  - { offsetInCU: 0x1DB0C, offset: 0x2BA368, size: 0x8, addend: 0x0, symName: '__ZN4core3ptr66drop_in_place$LT$core..option..Option$LT$syn..ty..Variadic$GT$$GT$17hd53494a084af7b6fE', symObjAddr: 0x6700, symBinAddr: 0x8BCA0, symSize: 0xF0 }
  - { offsetInCU: 0x1DE36, offset: 0x2BA692, size: 0x8, addend: 0x0, symName: '__ZN4core3ptr67drop_in_place$LT$alloc..boxed..Box$LT$syn..expr..FieldValue$GT$$GT$17hee600943c39f373eE', symObjAddr: 0x67F0, symBinAddr: 0x8BD90, symSize: 0x160 }
  - { offsetInCU: 0x1E3AC, offset: 0x2BAC08, size: 0x8, addend: 0x0, symName: '__ZN4core3ptr72drop_in_place$LT$core..option..Option$LT$syn..lifetime..Lifetime$GT$$GT$17h496ffbcd02d279ceE', symObjAddr: 0x6950, symBinAddr: 0x8BEF0, symSize: 0x30 }
  - { offsetInCU: 0x1E4C7, offset: 0x2BAD23, size: 0x8, addend: 0x0, symName: '__ZN4core3ptr75drop_in_place$LT$alloc..boxed..Box$LT$syn..generics..TypeParamBound$GT$$GT$17h0d539f38c26df380E', symObjAddr: 0x6980, symBinAddr: 0x8BF20, symSize: 0x140 }
  - { offsetInCU: 0x1EA41, offset: 0x2BB29D, size: 0x8, addend: 0x0, symName: '__ZN4core3ptr75drop_in_place$LT$core..option..Option$LT$syn..generics..WhereClause$GT$$GT$17h84be8bcb2f09b9d1E', symObjAddr: 0x6AC0, symBinAddr: 0x8C060, symSize: 0xF0 }
  - { offsetInCU: 0x1ED97, offset: 0x2BB5F3, size: 0x8, addend: 0x0, symName: '__ZN4core3ptr78drop_in_place$LT$alloc..boxed..Box$LT$syn..expr..GenericMethodArgument$GT$$GT$17h2e8ab754b2d35f4bE', symObjAddr: 0x6BB0, symBinAddr: 0x8C150, symSize: 0x60 }
  - { offsetInCU: 0x1EFA8, offset: 0x2BB804, size: 0x8, addend: 0x0, symName: '__ZN4core3ptr78drop_in_place$LT$core..option..Option$LT$syn..generics..BoundLifetimes$GT$$GT$17he70d317fbad5b599E', symObjAddr: 0x6C10, symBinAddr: 0x8C1B0, symSize: 0xC0 }
  - { offsetInCU: 0x1F3DE, offset: 0x2BBC3A, size: 0x8, addend: 0x0, symName: '__ZN4core3ptr86drop_in_place$LT$syn..punctuated..Punctuated$LT$syn..pat..Pat$C$syn..token..Or$GT$$GT$17h2004905335266fbeE', symObjAddr: 0x6CD0, symBinAddr: 0x8C270, symSize: 0x120 }
  - { offsetInCU: 0x1F859, offset: 0x2BC0B5, size: 0x8, addend: 0x0, symName: '__ZN4core3ptr87drop_in_place$LT$core..option..Option$LT$alloc..boxed..Box$LT$syn..pat..Pat$GT$$GT$$GT$17h9151a9d5e0aa7e1eE', symObjAddr: 0x6DF0, symBinAddr: 0x8C390, symSize: 0x50 }
  - { offsetInCU: 0x1F9C9, offset: 0x2BC225, size: 0x8, addend: 0x0, symName: '__ZN4core3ptr87drop_in_place$LT$core..option..Option$LT$alloc..boxed..Box$LT$syn..ty..Type$GT$$GT$$GT$17hd3cb46ad48d34655E', symObjAddr: 0x6E40, symBinAddr: 0x8C3E0, symSize: 0x50 }
  - { offsetInCU: 0x1FB39, offset: 0x2BC395, size: 0x8, addend: 0x0, symName: '__ZN4core3ptr89drop_in_place$LT$core..option..Option$LT$alloc..boxed..Box$LT$syn..expr..Expr$GT$$GT$$GT$17h9693feaa41001291E', symObjAddr: 0x6E90, symBinAddr: 0x8C430, symSize: 0x50 }
  - { offsetInCU: 0x1FCE7, offset: 0x2BC543, size: 0x8, addend: 0x0, symName: '__ZN4core3ptr89drop_in_place$LT$syn..punctuated..Punctuated$LT$syn..pat..Pat$C$syn..token..Comma$GT$$GT$17hc735db3a40e860f2E', symObjAddr: 0x6EE0, symBinAddr: 0x8C480, symSize: 0x120 }
  - { offsetInCU: 0x201B7, offset: 0x2BCA13, size: 0x8, addend: 0x0, symName: '__ZN4core3ptr91drop_in_place$LT$syn..punctuated..Punctuated$LT$syn..expr..Expr$C$syn..token..Comma$GT$$GT$17h4abaeb5cfb586772E', symObjAddr: 0x7000, symBinAddr: 0x8C5A0, symSize: 0x120 }
  - { offsetInCU: 0x20645, offset: 0x2BCEA1, size: 0x8, addend: 0x0, symName: '__ZN4core3ptr94drop_in_place$LT$syn..punctuated..Punctuated$LT$syn..pat..FieldPat$C$syn..token..Comma$GT$$GT$17hf9927b8b52e25a50E', symObjAddr: 0x7120, symBinAddr: 0x8C6C0, symSize: 0xF0 }
  - { offsetInCU: 0x20944, offset: 0x2BD1A0, size: 0x8, addend: 0x0, symName: '__ZN4core3ptr94drop_in_place$LT$syn..punctuated..Punctuated$LT$syn..ty..BareFnArg$C$syn..token..Comma$GT$$GT$17h577c8aa515f26074E', symObjAddr: 0x7210, symBinAddr: 0x8C7B0, symSize: 0xF0 }
  - { offsetInCU: 0x20C41, offset: 0x2BD49D, size: 0x8, addend: 0x0, symName: '__ZN4core3ptr96drop_in_place$LT$core..option..Option$LT$alloc..boxed..Box$LT$syn..path..PathSegment$GT$$GT$$GT$17hb35e105c29269971E', symObjAddr: 0x7300, symBinAddr: 0x8C8A0, symSize: 0x180 }
  - { offsetInCU: 0x212FE, offset: 0x2BDB5A, size: 0x8, addend: 0x0, symName: '__ZN4core3ptr97drop_in_place$LT$syn..punctuated..Punctuated$LT$syn..expr..FieldValue$C$syn..token..Comma$GT$$GT$17h15366382fde2131eE', symObjAddr: 0x7480, symBinAddr: 0x8CA20, symSize: 0xF0 }
  - { offsetInCU: 0x21677, offset: 0x2BDED3, size: 0x8, addend: 0x0, symName: '__ZN4core3ptr97drop_in_place$LT$syn..punctuated..Punctuated$LT$syn..lifetime..Lifetime$C$syn..token..Add$GT$$GT$17hd50f0bf96210475aE', symObjAddr: 0x7570, symBinAddr: 0x8CB10, symSize: 0xD0 }
  - { offsetInCU: 0x240B7, offset: 0x2C0913, size: 0x8, addend: 0x0, symName: '__ZN4core3ops8function5impls80_$LT$impl$u20$core..ops..function..FnOnce$LT$A$GT$$u20$for$u20$$RF$mut$u20$F$GT$9call_once17h164a656be6444984E', symObjAddr: 0x60, symBinAddr: 0x85600, symSize: 0x0 }
  - { offsetInCU: 0x24164, offset: 0x2C09C0, size: 0x8, addend: 0x0, symName: '__ZN4core3ops8function5impls80_$LT$impl$u20$core..ops..function..FnOnce$LT$A$GT$$u20$for$u20$$RF$mut$u20$F$GT$9call_once17h8bd6317b0baeeb9aE', symObjAddr: 0x100, symBinAddr: 0x856A0, symSize: 0x1B0 }
  - { offsetInCU: 0x1E, offset: 0x2CD723, size: 0x8, addend: 0x0, symName: '__ZN4core3ptr181drop_in_place$LT$hashbrown..scopeguard..ScopeGuard$LT$$RF$mut$u20$hashbrown..raw..RawTableInner$C$hashbrown..raw..RawTableInner..rehash_in_place..$u7b$$u7b$closure$u7d$$u7d$$GT$$GT$17h3ab12fda3278efbeE', symObjAddr: 0x0, symBinAddr: 0x8FF30, symSize: 0xC0 }
  - { offsetInCU: 0xA09, offset: 0x2CE10E, size: 0x8, addend: 0x0, symName: '__ZN79_$LT$hashbrown..raw..RawTable$LT$T$C$A$GT$$u20$as$u20$core..ops..drop..Drop$GT$4drop17h9f1150d62c73825dE', symObjAddr: 0x130, symBinAddr: 0x90060, symSize: 0x120 }
  - { offsetInCU: 0x1CBB, offset: 0x2CF3C0, size: 0x8, addend: 0x0, symName: '__ZN4core3ptr181drop_in_place$LT$hashbrown..scopeguard..ScopeGuard$LT$$RF$mut$u20$hashbrown..raw..RawTableInner$C$hashbrown..raw..RawTableInner..rehash_in_place..$u7b$$u7b$closure$u7d$$u7d$$GT$$GT$17h3ab12fda3278efbeE', symObjAddr: 0x0, symBinAddr: 0x8FF30, symSize: 0xC0 }
  - { offsetInCU: 0x23B4, offset: 0x2CFAB9, size: 0x8, addend: 0x0, symName: '__ZN4core3ptr196drop_in_place$LT$hashbrown..scopeguard..ScopeGuard$LT$hashbrown..raw..RawTableInner$C$hashbrown..raw..RawTableInner..prepare_resize$LT$alloc..alloc..Global$GT$..$u7b$$u7b$closure$u7d$$u7d$$GT$$GT$17hd1fc3c031bdb2f97E', symObjAddr: 0xC0, symBinAddr: 0x8FFF0, symSize: 0x40 }
  - { offsetInCU: 0x26A3, offset: 0x2CFDA8, size: 0x8, addend: 0x0, symName: '__ZN4core3ptr58drop_in_place$LT$$LP$proc_macro2..Ident$C$$LP$$RP$$RP$$GT$17h90e1a1dedf86b79dE', symObjAddr: 0x100, symBinAddr: 0x90030, symSize: 0x30 }
  - { offsetInCU: 0x5B69, offset: 0x2D326E, size: 0x8, addend: 0x0, symName: '__ZN9hashbrown3raw21RawTable$LT$T$C$A$GT$14reserve_rehash17hc0faa08cdc273051E.llvm.11020841065431188245', symObjAddr: 0x250, symBinAddr: 0x28CC00, symSize: 0x850 }
  - { offsetInCU: 0x1E, offset: 0x2D56F4, size: 0x8, addend: 0x0, symName: '__ZN4core3ptr100drop_in_place$LT$core..option..Option$LT$alloc..boxed..Box$LT$syn..generics..LifetimeDef$GT$$GT$$GT$17h82b6930fbf453d3cE', symObjAddr: 0x0, symBinAddr: 0x90180, symSize: 0x50 }
  - { offsetInCU: 0xEAD, offset: 0x2D6583, size: 0x8, addend: 0x0, symName: __ZN10derivative7default6derive17make_variant_data17hbceb8801e84471cfE, symObjAddr: 0x7F80, symBinAddr: 0x98100, symSize: 0x810 }
  - { offsetInCU: 0x1AD7, offset: 0x2D71AD, size: 0x8, addend: 0x0, symName: __ZN10derivative7default6derive17hbc95b7e779132979E, symObjAddr: 0x72F0, symBinAddr: 0x97470, symSize: 0xC90 }
  - { offsetInCU: 0x2793, offset: 0x2D7E69, size: 0x8, addend: 0x0, symName: __ZN10derivative7default18default_trait_path17h10cfa6a80228f864E, symObjAddr: 0x8790, symBinAddr: 0x98910, symSize: 0xC1 }
  - { offsetInCU: 0x38EE, offset: 0x2D8FC4, size: 0x8, addend: 0x0, symName: '__ZN4core3ptr100drop_in_place$LT$core..option..Option$LT$alloc..boxed..Box$LT$syn..generics..LifetimeDef$GT$$GT$$GT$17h82b6930fbf453d3cE', symObjAddr: 0x0, symBinAddr: 0x90180, symSize: 0x50 }
  - { offsetInCU: 0x3A70, offset: 0x2D9146, size: 0x8, addend: 0x0, symName: '__ZN4core3ptr100drop_in_place$LT$core..option..Option$LT$alloc..boxed..Box$LT$syn..path..GenericArgument$GT$$GT$$GT$17hdec1aac3c1c32b1aE', symObjAddr: 0x50, symBinAddr: 0x901D0, symSize: 0x50 }
  - { offsetInCU: 0x3D54, offset: 0x2D942A, size: 0x8, addend: 0x0, symName: '__ZN4core3ptr101drop_in_place$LT$core..option..Option$LT$alloc..boxed..Box$LT$syn..generics..GenericParam$GT$$GT$$GT$17he31815cd43ed0b1bE', symObjAddr: 0xA0, symBinAddr: 0x90220, symSize: 0x310 }
  - { offsetInCU: 0x478F, offset: 0x2D9E65, size: 0x8, addend: 0x0, symName: '__ZN4core3ptr103drop_in_place$LT$core..option..Option$LT$alloc..boxed..Box$LT$syn..generics..WherePredicate$GT$$GT$$GT$17h3290cb3de36508f1E', symObjAddr: 0x3B0, symBinAddr: 0x90530, symSize: 0x120 }
  - { offsetInCU: 0x4BA1, offset: 0x2DA277, size: 0x8, addend: 0x0, symName: '__ZN4core3ptr103drop_in_place$LT$syn..punctuated..Punctuated$LT$syn..generics..TypeParamBound$C$syn..token..Add$GT$$GT$17h283d6fefb1c71cfaE', symObjAddr: 0x4D0, symBinAddr: 0x90650, symSize: 0x200 }
  - { offsetInCU: 0x5492, offset: 0x2DAB68, size: 0x8, addend: 0x0, symName: '__ZN4core3ptr108drop_in_place$LT$syn..punctuated..Punctuated$LT$syn..expr..GenericMethodArgument$C$syn..token..Comma$GT$$GT$17h2aec9c03103ab694E', symObjAddr: 0x6D0, symBinAddr: 0x90850, symSize: 0x150 }
  - { offsetInCU: 0x59EB, offset: 0x2DB0C1, size: 0x8, addend: 0x0, symName: '__ZN4core3ptr34drop_in_place$LT$syn..lit..Lit$GT$17ha842b5e81e8582b3E', symObjAddr: 0x820, symBinAddr: 0x909A0, symSize: 0x110 }
  - { offsetInCU: 0x5E5D, offset: 0x2DB533, size: 0x8, addend: 0x0, symName: '__ZN4core3ptr34drop_in_place$LT$syn..pat..Pat$GT$17h0621b062377aebcbE', symObjAddr: 0x930, symBinAddr: 0x90AB0, symSize: 0x1050 }
  - { offsetInCU: 0x981C, offset: 0x2DEEF2, size: 0x8, addend: 0x0, symName: '__ZN4core3ptr34drop_in_place$LT$syn..ty..Type$GT$17h3d55b11c281dc967E', symObjAddr: 0x1980, symBinAddr: 0x91B00, symSize: 0x620 }
  - { offsetInCU: 0xB454, offset: 0x2E0B2A, size: 0x8, addend: 0x0, symName: '__ZN4core3ptr36drop_in_place$LT$syn..expr..Expr$GT$17h68b218bdcee4a3c7E', symObjAddr: 0x1FA0, symBinAddr: 0x92120, symSize: 0x31D0 }
  - { offsetInCU: 0x159DD, offset: 0x2EB0B3, size: 0x8, addend: 0x0, symName: '__ZN4core3ptr36drop_in_place$LT$syn..mac..Macro$GT$17h158bcec479486e24E', symObjAddr: 0x5170, symBinAddr: 0x952F0, symSize: 0xE0 }
  - { offsetInCU: 0x15DE3, offset: 0x2EB4B9, size: 0x8, addend: 0x0, symName: '__ZN4core3ptr36drop_in_place$LT$syn..path..Path$GT$17hdc92c6b0523379a3E', symObjAddr: 0x5250, symBinAddr: 0x953D0, symSize: 0x230 }
  - { offsetInCU: 0x16779, offset: 0x2EBE4F, size: 0x8, addend: 0x0, symName: '__ZN4core3ptr37drop_in_place$LT$syn..stmt..Block$GT$17hfffa15f159ccade9E', symObjAddr: 0x5480, symBinAddr: 0x95600, symSize: 0xD0 }
  - { offsetInCU: 0x16A50, offset: 0x2EC126, size: 0x8, addend: 0x0, symName: '__ZN4core3ptr38drop_in_place$LT$syn..expr..Member$GT$17h24b2f28a51f276afE', symObjAddr: 0x5550, symBinAddr: 0x956D0, symSize: 0x30 }
  - { offsetInCU: 0x16B4C, offset: 0x2EC222, size: 0x8, addend: 0x0, symName: '__ZN4core3ptr39drop_in_place$LT$proc_macro2..Ident$GT$17he0509ca0076c6db2E', symObjAddr: 0x5580, symBinAddr: 0x95700, symSize: 0x30 }
  - { offsetInCU: 0x16C29, offset: 0x2EC2FF, size: 0x8, addend: 0x0, symName: '__ZN4core3ptr39drop_in_place$LT$syn..pat..PatTuple$GT$17ha1d19a764bcc1cb3E', symObjAddr: 0x55B0, symBinAddr: 0x95730, symSize: 0x100 }
  - { offsetInCU: 0x16F32, offset: 0x2EC608, size: 0x8, addend: 0x0, symName: '__ZN4core3ptr40drop_in_place$LT$syn..ty..ReturnType$GT$17h2d60777f70ee0d22E', symObjAddr: 0x56B0, symBinAddr: 0x95830, symSize: 0x50 }
  - { offsetInCU: 0x170FF, offset: 0x2EC7D5, size: 0x8, addend: 0x0, symName: '__ZN4core3ptr44drop_in_place$LT$syn..generics..Generics$GT$17h04fed1a77f85cbfaE', symObjAddr: 0x5700, symBinAddr: 0x95880, symSize: 0xA0 }
  - { offsetInCU: 0x1736B, offset: 0x2ECA41, size: 0x8, addend: 0x0, symName: '__ZN4core3ptr44drop_in_place$LT$syn..lifetime..Lifetime$GT$17he83b0b529a581d24E', symObjAddr: 0x57A0, symBinAddr: 0x95920, symSize: 0x30 }
  - { offsetInCU: 0x1759D, offset: 0x2ECC73, size: 0x8, addend: 0x0, symName: '__ZN4core3ptr45drop_in_place$LT$proc_macro2..TokenStream$GT$17h7e9a94df6c9afdc7E', symObjAddr: 0x57D0, symBinAddr: 0x95950, symSize: 0x140 }
  - { offsetInCU: 0x179E6, offset: 0x2ED0BC, size: 0x8, addend: 0x0, symName: '__ZN4core3ptr47drop_in_place$LT$syn..generics..LifetimeDef$GT$17h8d3cfa3ea57a860bE', symObjAddr: 0x5910, symBinAddr: 0x95A90, symSize: 0x120 }
  - { offsetInCU: 0x17E41, offset: 0x2ED517, size: 0x8, addend: 0x0, symName: '__ZN4core3ptr47drop_in_place$LT$syn..path..GenericArgument$GT$17hc55a20af1acae48eE', symObjAddr: 0x5A30, symBinAddr: 0x95BB0, symSize: 0x110 }
  - { offsetInCU: 0x1816F, offset: 0x2ED845, size: 0x8, addend: 0x0, symName: '__ZN4core3ptr58drop_in_place$LT$alloc..vec..Vec$LT$syn..expr..Arm$GT$$GT$17hdd3822aa758753c7E', symObjAddr: 0x5B40, symBinAddr: 0x95CC0, symSize: 0xD0 }
  - { offsetInCU: 0x1842F, offset: 0x2EDB05, size: 0x8, addend: 0x0, symName: '__ZN4core3ptr59drop_in_place$LT$alloc..boxed..Box$LT$syn..pat..Pat$GT$$GT$17h48ec1dbe47a00c61E', symObjAddr: 0x5C10, symBinAddr: 0x95D90, symSize: 0x50 }
  - { offsetInCU: 0x18588, offset: 0x2EDC5E, size: 0x8, addend: 0x0, symName: '__ZN4core3ptr59drop_in_place$LT$alloc..boxed..Box$LT$syn..ty..Type$GT$$GT$17h454cab832bb38812E', symObjAddr: 0x5C60, symBinAddr: 0x95DE0, symSize: 0x50 }
  - { offsetInCU: 0x186E1, offset: 0x2EDDB7, size: 0x8, addend: 0x0, symName: '__ZN4core3ptr61drop_in_place$LT$alloc..boxed..Box$LT$syn..expr..Expr$GT$$GT$17hbe6f5e1c721a6cd9E', symObjAddr: 0x5CB0, symBinAddr: 0x95E30, symSize: 0x50 }
  - { offsetInCU: 0x1883A, offset: 0x2EDF10, size: 0x8, addend: 0x0, symName: '__ZN4core3ptr61drop_in_place$LT$syn..path..ParenthesizedGenericArguments$GT$17h2d220a34adaf921bE', symObjAddr: 0x5D00, symBinAddr: 0x95E80, symSize: 0x170 }
  - { offsetInCU: 0x18E43, offset: 0x2EE519, size: 0x8, addend: 0x0, symName: '__ZN4core3ptr63drop_in_place$LT$alloc..boxed..Box$LT$syn..lit..LitRepr$GT$$GT$17h44c55dd7d5499a10E', symObjAddr: 0x5E70, symBinAddr: 0x95FF0, symSize: 0x60 }
  - { offsetInCU: 0x1914A, offset: 0x2EE820, size: 0x8, addend: 0x0, symName: '__ZN4core3ptr64drop_in_place$LT$alloc..boxed..Box$LT$syn..pat..FieldPat$GT$$GT$17h8a4c0395922411f9E', symObjAddr: 0x5ED0, symBinAddr: 0x96050, symSize: 0x180 }
  - { offsetInCU: 0x19867, offset: 0x2EEF3D, size: 0x8, addend: 0x0, symName: '__ZN4core3ptr64drop_in_place$LT$alloc..boxed..Box$LT$syn..ty..BareFnArg$GT$$GT$17h145502f35dc7a34dE', symObjAddr: 0x6050, symBinAddr: 0x961D0, symSize: 0x160 }
  - { offsetInCU: 0x19DFD, offset: 0x2EF4D3, size: 0x8, addend: 0x0, symName: '__ZN4core3ptr65drop_in_place$LT$alloc..vec..Vec$LT$proc_macro..TokenTree$GT$$GT$17h27434ef986fc0c8fE', symObjAddr: 0x61B0, symBinAddr: 0x96330, symSize: 0x110 }
  - { offsetInCU: 0x1A1F5, offset: 0x2EF8CB, size: 0x8, addend: 0x0, symName: '__ZN4core3ptr65drop_in_place$LT$core..option..Option$LT$syn..expr..Label$GT$$GT$17hf88e6caa939fd4b3E', symObjAddr: 0x62C0, symBinAddr: 0x96440, symSize: 0x30 }
  - { offsetInCU: 0x1A32F, offset: 0x2EFA05, size: 0x8, addend: 0x0, symName: '__ZN4core3ptr66drop_in_place$LT$core..option..Option$LT$syn..ty..Variadic$GT$$GT$17hd53494a084af7b6fE', symObjAddr: 0x62F0, symBinAddr: 0x96470, symSize: 0xF0 }
  - { offsetInCU: 0x1A659, offset: 0x2EFD2F, size: 0x8, addend: 0x0, symName: '__ZN4core3ptr67drop_in_place$LT$alloc..boxed..Box$LT$syn..expr..FieldValue$GT$$GT$17hee600943c39f373eE', symObjAddr: 0x63E0, symBinAddr: 0x96560, symSize: 0x160 }
  - { offsetInCU: 0x1ABEE, offset: 0x2F02C4, size: 0x8, addend: 0x0, symName: '__ZN4core3ptr68drop_in_place$LT$alloc..vec..Vec$LT$proc_macro2..TokenStream$GT$$GT$17h10b9bb952c4a2f6bE', symObjAddr: 0x6540, symBinAddr: 0x966C0, symSize: 0xC0 }
  - { offsetInCU: 0x1AEAC, offset: 0x2F0582, size: 0x8, addend: 0x0, symName: '__ZN4core3ptr72drop_in_place$LT$core..option..Option$LT$syn..lifetime..Lifetime$GT$$GT$17h496ffbcd02d279ceE', symObjAddr: 0x6600, symBinAddr: 0x96780, symSize: 0x30 }
  - { offsetInCU: 0x1AFC7, offset: 0x2F069D, size: 0x8, addend: 0x0, symName: '__ZN4core3ptr75drop_in_place$LT$alloc..boxed..Box$LT$syn..generics..TypeParamBound$GT$$GT$17h0d539f38c26df380E', symObjAddr: 0x6630, symBinAddr: 0x967B0, symSize: 0x140 }
  - { offsetInCU: 0x1B59E, offset: 0x2F0C74, size: 0x8, addend: 0x0, symName: '__ZN4core3ptr75drop_in_place$LT$core..option..Option$LT$syn..generics..WhereClause$GT$$GT$17h84be8bcb2f09b9d1E', symObjAddr: 0x6770, symBinAddr: 0x968F0, symSize: 0xF0 }
  - { offsetInCU: 0x1B8F4, offset: 0x2F0FCA, size: 0x8, addend: 0x0, symName: '__ZN4core3ptr78drop_in_place$LT$alloc..boxed..Box$LT$syn..expr..GenericMethodArgument$GT$$GT$17h2e8ab754b2d35f4bE', symObjAddr: 0x6860, symBinAddr: 0x969E0, symSize: 0x60 }
  - { offsetInCU: 0x1BB05, offset: 0x2F11DB, size: 0x8, addend: 0x0, symName: '__ZN4core3ptr78drop_in_place$LT$core..option..Option$LT$syn..generics..BoundLifetimes$GT$$GT$17he70d317fbad5b599E', symObjAddr: 0x68C0, symBinAddr: 0x96A40, symSize: 0xC0 }
  - { offsetInCU: 0x1BF3B, offset: 0x2F1611, size: 0x8, addend: 0x0, symName: '__ZN4core3ptr86drop_in_place$LT$syn..punctuated..Punctuated$LT$syn..pat..Pat$C$syn..token..Or$GT$$GT$17h2004905335266fbeE', symObjAddr: 0x6980, symBinAddr: 0x96B00, symSize: 0x120 }
  - { offsetInCU: 0x1C3B6, offset: 0x2F1A8C, size: 0x8, addend: 0x0, symName: '__ZN4core3ptr87drop_in_place$LT$core..option..Option$LT$alloc..boxed..Box$LT$syn..pat..Pat$GT$$GT$$GT$17h9151a9d5e0aa7e1eE', symObjAddr: 0x6AA0, symBinAddr: 0x96C20, symSize: 0x50 }
  - { offsetInCU: 0x1C526, offset: 0x2F1BFC, size: 0x8, addend: 0x0, symName: '__ZN4core3ptr87drop_in_place$LT$core..option..Option$LT$alloc..boxed..Box$LT$syn..ty..Type$GT$$GT$$GT$17hd3cb46ad48d34655E', symObjAddr: 0x6AF0, symBinAddr: 0x96C70, symSize: 0x50 }
  - { offsetInCU: 0x1C696, offset: 0x2F1D6C, size: 0x8, addend: 0x0, symName: '__ZN4core3ptr89drop_in_place$LT$core..option..Option$LT$alloc..boxed..Box$LT$syn..expr..Expr$GT$$GT$$GT$17h9693feaa41001291E', symObjAddr: 0x6B40, symBinAddr: 0x96CC0, symSize: 0x50 }
  - { offsetInCU: 0x1C844, offset: 0x2F1F1A, size: 0x8, addend: 0x0, symName: '__ZN4core3ptr89drop_in_place$LT$syn..punctuated..Punctuated$LT$syn..pat..Pat$C$syn..token..Comma$GT$$GT$17hc735db3a40e860f2E', symObjAddr: 0x6B90, symBinAddr: 0x96D10, symSize: 0x120 }
  - { offsetInCU: 0x1CD14, offset: 0x2F23EA, size: 0x8, addend: 0x0, symName: '__ZN4core3ptr91drop_in_place$LT$syn..punctuated..Punctuated$LT$syn..expr..Expr$C$syn..token..Comma$GT$$GT$17h4abaeb5cfb586772E', symObjAddr: 0x6CB0, symBinAddr: 0x96E30, symSize: 0x120 }
  - { offsetInCU: 0x1D1A2, offset: 0x2F2878, size: 0x8, addend: 0x0, symName: '__ZN4core3ptr94drop_in_place$LT$syn..punctuated..Punctuated$LT$syn..pat..FieldPat$C$syn..token..Comma$GT$$GT$17hf9927b8b52e25a50E', symObjAddr: 0x6DD0, symBinAddr: 0x96F50, symSize: 0xF0 }
  - { offsetInCU: 0x1D4A1, offset: 0x2F2B77, size: 0x8, addend: 0x0, symName: '__ZN4core3ptr94drop_in_place$LT$syn..punctuated..Punctuated$LT$syn..ty..BareFnArg$C$syn..token..Comma$GT$$GT$17h577c8aa515f26074E', symObjAddr: 0x6EC0, symBinAddr: 0x97040, symSize: 0xF0 }
  - { offsetInCU: 0x1D79E, offset: 0x2F2E74, size: 0x8, addend: 0x0, symName: '__ZN4core3ptr96drop_in_place$LT$core..option..Option$LT$alloc..boxed..Box$LT$syn..path..PathSegment$GT$$GT$$GT$17hb35e105c29269971E', symObjAddr: 0x6FB0, symBinAddr: 0x97130, symSize: 0x180 }
  - { offsetInCU: 0x1DE5B, offset: 0x2F3531, size: 0x8, addend: 0x0, symName: '__ZN4core3ptr97drop_in_place$LT$syn..punctuated..Punctuated$LT$syn..expr..FieldValue$C$syn..token..Comma$GT$$GT$17h15366382fde2131eE', symObjAddr: 0x7130, symBinAddr: 0x972B0, symSize: 0xF0 }
  - { offsetInCU: 0x1E1D4, offset: 0x2F38AA, size: 0x8, addend: 0x0, symName: '__ZN4core3ptr97drop_in_place$LT$syn..punctuated..Punctuated$LT$syn..lifetime..Lifetime$C$syn..token..Add$GT$$GT$17hd50f0bf96210475aE', symObjAddr: 0x7220, symBinAddr: 0x973A0, symSize: 0xD0 }
  - { offsetInCU: 0x1E, offset: 0x301793, size: 0x8, addend: 0x0, symName: '__ZN4core3ptr100drop_in_place$LT$core..option..Option$LT$alloc..boxed..Box$LT$syn..generics..LifetimeDef$GT$$GT$$GT$17h82b6930fbf453d3cE', symObjAddr: 0x0, symBinAddr: 0x989E0, symSize: 0x50 }
  - { offsetInCU: 0x1BA3, offset: 0x303318, size: 0x8, addend: 0x0, symName: '__ZN4core3ptr100drop_in_place$LT$core..option..Option$LT$alloc..boxed..Box$LT$syn..generics..LifetimeDef$GT$$GT$$GT$17h82b6930fbf453d3cE', symObjAddr: 0x0, symBinAddr: 0x989E0, symSize: 0x50 }
  - { offsetInCU: 0x1D25, offset: 0x30349A, size: 0x8, addend: 0x0, symName: '__ZN4core3ptr100drop_in_place$LT$core..option..Option$LT$alloc..boxed..Box$LT$syn..path..GenericArgument$GT$$GT$$GT$17hdec1aac3c1c32b1aE', symObjAddr: 0x50, symBinAddr: 0x98A30, symSize: 0x50 }
  - { offsetInCU: 0x2009, offset: 0x30377E, size: 0x8, addend: 0x0, symName: '__ZN4core3ptr101drop_in_place$LT$core..option..Option$LT$alloc..boxed..Box$LT$syn..generics..GenericParam$GT$$GT$$GT$17he31815cd43ed0b1bE.llvm.9158789977196475576', symObjAddr: 0xA0, symBinAddr: 0x98A80, symSize: 0x310 }
  - { offsetInCU: 0x2A06, offset: 0x30417B, size: 0x8, addend: 0x0, symName: '__ZN4core3ptr103drop_in_place$LT$core..option..Option$LT$alloc..boxed..Box$LT$syn..generics..TypeParamBound$GT$$GT$$GT$17h4e76aebe6f41d1a7E', symObjAddr: 0x3B0, symBinAddr: 0x98D90, symSize: 0x90 }
  - { offsetInCU: 0x2D3D, offset: 0x3044B2, size: 0x8, addend: 0x0, symName: '__ZN4core3ptr103drop_in_place$LT$core..option..Option$LT$alloc..boxed..Box$LT$syn..generics..WherePredicate$GT$$GT$$GT$17h3290cb3de36508f1E.llvm.9158789977196475576', symObjAddr: 0x440, symBinAddr: 0x98E20, symSize: 0x120 }
  - { offsetInCU: 0x30F2, offset: 0x304867, size: 0x8, addend: 0x0, symName: '__ZN4core3ptr103drop_in_place$LT$syn..punctuated..Punctuated$LT$syn..generics..TypeParamBound$C$syn..token..Add$GT$$GT$17h283d6fefb1c71cfaE', symObjAddr: 0x560, symBinAddr: 0x98F40, symSize: 0x200 }
  - { offsetInCU: 0x39D0, offset: 0x305145, size: 0x8, addend: 0x0, symName: '__ZN4core3ptr108drop_in_place$LT$syn..punctuated..Punctuated$LT$syn..expr..GenericMethodArgument$C$syn..token..Comma$GT$$GT$17h2aec9c03103ab694E', symObjAddr: 0x760, symBinAddr: 0x99140, symSize: 0x150 }
  - { offsetInCU: 0x3F29, offset: 0x30569E, size: 0x8, addend: 0x0, symName: '__ZN4core3ptr34drop_in_place$LT$syn..lit..Lit$GT$17ha842b5e81e8582b3E', symObjAddr: 0x8B0, symBinAddr: 0x99290, symSize: 0x110 }
  - { offsetInCU: 0x439B, offset: 0x305B10, size: 0x8, addend: 0x0, symName: '__ZN4core3ptr34drop_in_place$LT$syn..pat..Pat$GT$17h0621b062377aebcbE', symObjAddr: 0x9C0, symBinAddr: 0x993A0, symSize: 0x1190 }
  - { offsetInCU: 0x82B3, offset: 0x309A28, size: 0x8, addend: 0x0, symName: '__ZN4core3ptr34drop_in_place$LT$syn..ty..Type$GT$17h3d55b11c281dc967E', symObjAddr: 0x1B50, symBinAddr: 0x9A530, symSize: 0x580 }
  - { offsetInCU: 0x9BC4, offset: 0x30B339, size: 0x8, addend: 0x0, symName: '__ZN4core3ptr36drop_in_place$LT$syn..expr..Expr$GT$17h68b218bdcee4a3c7E', symObjAddr: 0x20D0, symBinAddr: 0x9AAB0, symSize: 0x3290 }
  - { offsetInCU: 0x14455, offset: 0x315BCA, size: 0x8, addend: 0x0, symName: '__ZN4core3ptr36drop_in_place$LT$syn..mac..Macro$GT$17h158bcec479486e24E', symObjAddr: 0x5360, symBinAddr: 0x9DD40, symSize: 0x40 }
  - { offsetInCU: 0x145A6, offset: 0x315D1B, size: 0x8, addend: 0x0, symName: '__ZN4core3ptr36drop_in_place$LT$syn..path..Path$GT$17hdc92c6b0523379a3E', symObjAddr: 0x53A0, symBinAddr: 0x9DD80, symSize: 0x230 }
  - { offsetInCU: 0x14F3C, offset: 0x3166B1, size: 0x8, addend: 0x0, symName: '__ZN4core3ptr37drop_in_place$LT$syn..stmt..Block$GT$17hfffa15f159ccade9E', symObjAddr: 0x55D0, symBinAddr: 0x9DFB0, symSize: 0xD0 }
  - { offsetInCU: 0x15213, offset: 0x316988, size: 0x8, addend: 0x0, symName: '__ZN4core3ptr38drop_in_place$LT$syn..expr..Member$GT$17h24b2f28a51f276afE', symObjAddr: 0x56A0, symBinAddr: 0x9E080, symSize: 0x30 }
  - { offsetInCU: 0x1530F, offset: 0x316A84, size: 0x8, addend: 0x0, symName: '__ZN4core3ptr39drop_in_place$LT$proc_macro2..Ident$GT$17he0509ca0076c6db2E', symObjAddr: 0x56D0, symBinAddr: 0x9E0B0, symSize: 0x30 }
  - { offsetInCU: 0x153EC, offset: 0x316B61, size: 0x8, addend: 0x0, symName: '__ZN4core3ptr39drop_in_place$LT$syn..pat..PatTuple$GT$17ha1d19a764bcc1cb3E', symObjAddr: 0x5700, symBinAddr: 0x9E0E0, symSize: 0x100 }
  - { offsetInCU: 0x156F5, offset: 0x316E6A, size: 0x8, addend: 0x0, symName: '__ZN4core3ptr40drop_in_place$LT$syn..ty..ReturnType$GT$17h2d60777f70ee0d22E', symObjAddr: 0x5800, symBinAddr: 0x9E1E0, symSize: 0x50 }
  - { offsetInCU: 0x158C2, offset: 0x317037, size: 0x8, addend: 0x0, symName: '__ZN4core3ptr44drop_in_place$LT$syn..generics..Generics$GT$17h04fed1a77f85cbfaE.llvm.9158789977196475576', symObjAddr: 0x5850, symBinAddr: 0x9E230, symSize: 0xA0 }
  - { offsetInCU: 0x15B2E, offset: 0x3172A3, size: 0x8, addend: 0x0, symName: '__ZN4core3ptr44drop_in_place$LT$syn..lifetime..Lifetime$GT$17he83b0b529a581d24E', symObjAddr: 0x58F0, symBinAddr: 0x9E2D0, symSize: 0x30 }
  - { offsetInCU: 0x15D60, offset: 0x3174D5, size: 0x8, addend: 0x0, symName: '__ZN4core3ptr45drop_in_place$LT$proc_macro2..TokenStream$GT$17h7e9a94df6c9afdc7E', symObjAddr: 0x5920, symBinAddr: 0x9E300, symSize: 0x140 }
  - { offsetInCU: 0x161BC, offset: 0x317931, size: 0x8, addend: 0x0, symName: '__ZN4core3ptr47drop_in_place$LT$syn..generics..LifetimeDef$GT$17h8d3cfa3ea57a860bE', symObjAddr: 0x5A60, symBinAddr: 0x9E440, symSize: 0x120 }
  - { offsetInCU: 0x16617, offset: 0x317D8C, size: 0x8, addend: 0x0, symName: '__ZN4core3ptr47drop_in_place$LT$syn..path..GenericArgument$GT$17hc55a20af1acae48eE', symObjAddr: 0x5B80, symBinAddr: 0x9E560, symSize: 0x110 }
  - { offsetInCU: 0x16932, offset: 0x3180A7, size: 0x8, addend: 0x0, symName: '__ZN4core3ptr58drop_in_place$LT$alloc..vec..Vec$LT$syn..expr..Arm$GT$$GT$17hdd3822aa758753c7E', symObjAddr: 0x5C90, symBinAddr: 0x9E670, symSize: 0xD0 }
  - { offsetInCU: 0x16BF2, offset: 0x318367, size: 0x8, addend: 0x0, symName: '__ZN4core3ptr59drop_in_place$LT$alloc..boxed..Box$LT$syn..pat..Pat$GT$$GT$17h48ec1dbe47a00c61E', symObjAddr: 0x5D60, symBinAddr: 0x9E740, symSize: 0x50 }
  - { offsetInCU: 0x16D4B, offset: 0x3184C0, size: 0x8, addend: 0x0, symName: '__ZN4core3ptr59drop_in_place$LT$alloc..boxed..Box$LT$syn..ty..Type$GT$$GT$17h454cab832bb38812E', symObjAddr: 0x5DB0, symBinAddr: 0x9E790, symSize: 0x50 }
  - { offsetInCU: 0x16EA4, offset: 0x318619, size: 0x8, addend: 0x0, symName: '__ZN4core3ptr61drop_in_place$LT$alloc..boxed..Box$LT$syn..expr..Expr$GT$$GT$17hbe6f5e1c721a6cd9E', symObjAddr: 0x5E00, symBinAddr: 0x9E7E0, symSize: 0x50 }
  - { offsetInCU: 0x17079, offset: 0x3187EE, size: 0x8, addend: 0x0, symName: '__ZN4core3ptr61drop_in_place$LT$syn..path..ParenthesizedGenericArguments$GT$17h2d220a34adaf921bE', symObjAddr: 0x5E50, symBinAddr: 0x9E830, symSize: 0x170 }
  - { offsetInCU: 0x1766F, offset: 0x318DE4, size: 0x8, addend: 0x0, symName: '__ZN4core3ptr63drop_in_place$LT$alloc..boxed..Box$LT$syn..lit..LitRepr$GT$$GT$17h44c55dd7d5499a10E', symObjAddr: 0x5FC0, symBinAddr: 0x9E9A0, symSize: 0x60 }
  - { offsetInCU: 0x17976, offset: 0x3190EB, size: 0x8, addend: 0x0, symName: '__ZN4core3ptr64drop_in_place$LT$alloc..boxed..Box$LT$syn..pat..FieldPat$GT$$GT$17h8a4c0395922411f9E', symObjAddr: 0x6020, symBinAddr: 0x9EA00, symSize: 0x180 }
  - { offsetInCU: 0x18093, offset: 0x319808, size: 0x8, addend: 0x0, symName: '__ZN4core3ptr64drop_in_place$LT$alloc..boxed..Box$LT$syn..ty..BareFnArg$GT$$GT$17h145502f35dc7a34dE', symObjAddr: 0x61A0, symBinAddr: 0x9EB80, symSize: 0x160 }
  - { offsetInCU: 0x18629, offset: 0x319D9E, size: 0x8, addend: 0x0, symName: '__ZN4core3ptr65drop_in_place$LT$alloc..vec..Vec$LT$proc_macro..TokenTree$GT$$GT$17h27434ef986fc0c8fE', symObjAddr: 0x6300, symBinAddr: 0x9ECE0, symSize: 0x110 }
  - { offsetInCU: 0x18A21, offset: 0x31A196, size: 0x8, addend: 0x0, symName: '__ZN4core3ptr65drop_in_place$LT$core..option..Option$LT$syn..expr..Label$GT$$GT$17hf88e6caa939fd4b3E', symObjAddr: 0x6410, symBinAddr: 0x9EDF0, symSize: 0x30 }
  - { offsetInCU: 0x18B5B, offset: 0x31A2D0, size: 0x8, addend: 0x0, symName: '__ZN4core3ptr66drop_in_place$LT$core..option..Option$LT$syn..ty..Variadic$GT$$GT$17hd53494a084af7b6fE', symObjAddr: 0x6440, symBinAddr: 0x9EE20, symSize: 0xF0 }
  - { offsetInCU: 0x18E85, offset: 0x31A5FA, size: 0x8, addend: 0x0, symName: '__ZN4core3ptr67drop_in_place$LT$alloc..boxed..Box$LT$syn..expr..FieldValue$GT$$GT$17hee600943c39f373eE', symObjAddr: 0x6530, symBinAddr: 0x9EF10, symSize: 0x160 }
  - { offsetInCU: 0x1941A, offset: 0x31AB8F, size: 0x8, addend: 0x0, symName: '__ZN4core3ptr68drop_in_place$LT$alloc..boxed..Box$LT$syn..path..PathSegment$GT$$GT$17he2e359177565069bE', symObjAddr: 0x6690, symBinAddr: 0x9F070, symSize: 0x190 }
  - { offsetInCU: 0x19B43, offset: 0x31B2B8, size: 0x8, addend: 0x0, symName: '__ZN4core3ptr72drop_in_place$LT$alloc..boxed..Box$LT$syn..path..GenericArgument$GT$$GT$17h193e4d7337ac8d1fE', symObjAddr: 0x6820, symBinAddr: 0x9F200, symSize: 0x1D0 }
  - { offsetInCU: 0x1A26A, offset: 0x31B9DF, size: 0x8, addend: 0x0, symName: '__ZN4core3ptr72drop_in_place$LT$core..option..Option$LT$syn..lifetime..Lifetime$GT$$GT$17h496ffbcd02d279ceE', symObjAddr: 0x69F0, symBinAddr: 0x9F3D0, symSize: 0x30 }
  - { offsetInCU: 0x1A385, offset: 0x31BAFA, size: 0x8, addend: 0x0, symName: '__ZN4core3ptr75drop_in_place$LT$alloc..boxed..Box$LT$syn..generics..TypeParamBound$GT$$GT$17h0d539f38c26df380E', symObjAddr: 0x6A20, symBinAddr: 0x9F400, symSize: 0x140 }
  - { offsetInCU: 0x1A95C, offset: 0x31C0D1, size: 0x8, addend: 0x0, symName: '__ZN4core3ptr75drop_in_place$LT$core..option..Option$LT$syn..generics..WhereClause$GT$$GT$17h84be8bcb2f09b9d1E.llvm.9158789977196475576', symObjAddr: 0x6B60, symBinAddr: 0x9F540, symSize: 0xF0 }
  - { offsetInCU: 0x1ACB2, offset: 0x31C427, size: 0x8, addend: 0x0, symName: '__ZN4core3ptr78drop_in_place$LT$alloc..boxed..Box$LT$syn..expr..GenericMethodArgument$GT$$GT$17h2e8ab754b2d35f4bE', symObjAddr: 0x6C50, symBinAddr: 0x9F630, symSize: 0x60 }
  - { offsetInCU: 0x1AEC3, offset: 0x31C638, size: 0x8, addend: 0x0, symName: '__ZN4core3ptr78drop_in_place$LT$core..option..Option$LT$syn..generics..BoundLifetimes$GT$$GT$17he70d317fbad5b599E', symObjAddr: 0x6CB0, symBinAddr: 0x9F690, symSize: 0xC0 }
  - { offsetInCU: 0x1B2F9, offset: 0x31CA6E, size: 0x8, addend: 0x0, symName: '__ZN4core3ptr86drop_in_place$LT$syn..punctuated..Punctuated$LT$syn..pat..Pat$C$syn..token..Or$GT$$GT$17h2004905335266fbeE', symObjAddr: 0x6D70, symBinAddr: 0x9F750, symSize: 0x120 }
  - { offsetInCU: 0x1B774, offset: 0x31CEE9, size: 0x8, addend: 0x0, symName: '__ZN4core3ptr87drop_in_place$LT$core..option..Option$LT$alloc..boxed..Box$LT$syn..pat..Pat$GT$$GT$$GT$17h9151a9d5e0aa7e1eE', symObjAddr: 0x6E90, symBinAddr: 0x9F870, symSize: 0x50 }
  - { offsetInCU: 0x1B8E4, offset: 0x31D059, size: 0x8, addend: 0x0, symName: '__ZN4core3ptr87drop_in_place$LT$core..option..Option$LT$alloc..boxed..Box$LT$syn..ty..Type$GT$$GT$$GT$17hd3cb46ad48d34655E', symObjAddr: 0x6EE0, symBinAddr: 0x9F8C0, symSize: 0x50 }
  - { offsetInCU: 0x1BA54, offset: 0x31D1C9, size: 0x8, addend: 0x0, symName: '__ZN4core3ptr89drop_in_place$LT$core..option..Option$LT$alloc..boxed..Box$LT$syn..expr..Expr$GT$$GT$$GT$17h9693feaa41001291E', symObjAddr: 0x6F30, symBinAddr: 0x9F910, symSize: 0x50 }
  - { offsetInCU: 0x1BC02, offset: 0x31D377, size: 0x8, addend: 0x0, symName: '__ZN4core3ptr89drop_in_place$LT$syn..punctuated..Punctuated$LT$syn..pat..Pat$C$syn..token..Comma$GT$$GT$17hc735db3a40e860f2E', symObjAddr: 0x6F80, symBinAddr: 0x9F960, symSize: 0x120 }
  - { offsetInCU: 0x1C094, offset: 0x31D809, size: 0x8, addend: 0x0, symName: '__ZN4core3ptr89drop_in_place$LT$syn..punctuated..Punctuated$LT$syn..ty..Type$C$syn..token..Comma$GT$$GT$17he63552f348a6dc51E', symObjAddr: 0x70A0, symBinAddr: 0x9FA80, symSize: 0x120 }
  - { offsetInCU: 0x1C54D, offset: 0x31DCC2, size: 0x8, addend: 0x0, symName: '__ZN4core3ptr91drop_in_place$LT$syn..punctuated..Punctuated$LT$syn..expr..Expr$C$syn..token..Comma$GT$$GT$17h4abaeb5cfb586772E', symObjAddr: 0x71C0, symBinAddr: 0x9FBA0, symSize: 0x120 }
  - { offsetInCU: 0x1C9DB, offset: 0x31E150, size: 0x8, addend: 0x0, symName: '__ZN4core3ptr94drop_in_place$LT$syn..punctuated..Punctuated$LT$syn..pat..FieldPat$C$syn..token..Comma$GT$$GT$17hf9927b8b52e25a50E', symObjAddr: 0x72E0, symBinAddr: 0x9FCC0, symSize: 0xF0 }
  - { offsetInCU: 0x1CCDA, offset: 0x31E44F, size: 0x8, addend: 0x0, symName: '__ZN4core3ptr94drop_in_place$LT$syn..punctuated..Punctuated$LT$syn..ty..BareFnArg$C$syn..token..Comma$GT$$GT$17h577c8aa515f26074E', symObjAddr: 0x73D0, symBinAddr: 0x9FDB0, symSize: 0xF0 }
  - { offsetInCU: 0x1CFD7, offset: 0x31E74C, size: 0x8, addend: 0x0, symName: '__ZN4core3ptr96drop_in_place$LT$core..option..Option$LT$alloc..boxed..Box$LT$syn..path..PathSegment$GT$$GT$$GT$17hb35e105c29269971E', symObjAddr: 0x74C0, symBinAddr: 0x9FEA0, symSize: 0x180 }
  - { offsetInCU: 0x1D694, offset: 0x31EE09, size: 0x8, addend: 0x0, symName: '__ZN4core3ptr97drop_in_place$LT$syn..punctuated..Punctuated$LT$syn..expr..FieldValue$C$syn..token..Comma$GT$$GT$17h15366382fde2131eE', symObjAddr: 0x7640, symBinAddr: 0xA0020, symSize: 0xF0 }
  - { offsetInCU: 0x1DA0D, offset: 0x31F182, size: 0x8, addend: 0x0, symName: '__ZN4core3ptr97drop_in_place$LT$syn..punctuated..Punctuated$LT$syn..lifetime..Lifetime$C$syn..token..Add$GT$$GT$17hd50f0bf96210475aE', symObjAddr: 0x7730, symBinAddr: 0xA0110, symSize: 0xD0 }
  - { offsetInCU: 0x1DE81, offset: 0x31F5F6, size: 0x8, addend: 0x0, symName: '__ZN4core3ptr99drop_in_place$LT$syn..punctuated..Punctuated$LT$syn..path..PathSegment$C$syn..token..Colon2$GT$$GT$17h603ba227c074f4bfE', symObjAddr: 0x7800, symBinAddr: 0xA01E0, symSize: 0x250 }
  - { offsetInCU: 0x20D6A, offset: 0x3224DF, size: 0x8, addend: 0x0, symName: __ZN10derivative5utils19build_impl_generics17h0448ee2fcbef1e66E, symObjAddr: 0x7A50, symBinAddr: 0xA0430, symSize: 0xE0 }
  - { offsetInCU: 0x20E71, offset: 0x3225E6, size: 0x8, addend: 0x0, symName: __ZN10derivative5utils19build_impl_generics17h1353399e0bc0e8f3E, symObjAddr: 0x7B30, symBinAddr: 0xA0510, symSize: 0xE0 }
  - { offsetInCU: 0x20F78, offset: 0x3226ED, size: 0x8, addend: 0x0, symName: __ZN10derivative5utils19build_impl_generics17h37e67cea897205d2E, symObjAddr: 0x7C10, symBinAddr: 0xA05F0, symSize: 0xE0 }
  - { offsetInCU: 0x2107F, offset: 0x3227F4, size: 0x8, addend: 0x0, symName: __ZN10derivative5utils19build_impl_generics17h3eac87fcee8569a4E, symObjAddr: 0x7CF0, symBinAddr: 0xA06D0, symSize: 0xE0 }
  - { offsetInCU: 0x21186, offset: 0x3228FB, size: 0x8, addend: 0x0, symName: __ZN10derivative5utils19build_impl_generics17h5a2fed7e34f4a0abE, symObjAddr: 0x7DD0, symBinAddr: 0xA07B0, symSize: 0xE0 }
  - { offsetInCU: 0x2128D, offset: 0x322A02, size: 0x8, addend: 0x0, symName: __ZN10derivative5utils19build_impl_generics17h8ac0c5d760a1303bE, symObjAddr: 0x7EB0, symBinAddr: 0xA0890, symSize: 0xE0 }
  - { offsetInCU: 0x21395, offset: 0x322B0A, size: 0x8, addend: 0x0, symName: __ZN10derivative5utils19build_impl_generics17ha71915f7a390a2fcE, symObjAddr: 0x7F90, symBinAddr: 0xA0970, symSize: 0xE0 }
  - { offsetInCU: 0x2149C, offset: 0x322C11, size: 0x8, addend: 0x0, symName: __ZN10derivative5utils19build_impl_generics17hbd545c5a9bd49b4dE, symObjAddr: 0x8070, symBinAddr: 0xA0A50, symSize: 0xE0 }
  - { offsetInCU: 0x215A3, offset: 0x322D18, size: 0x8, addend: 0x0, symName: __ZN10derivative5utils19build_impl_generics17hc0f92d6bb80522c2E, symObjAddr: 0x8150, symBinAddr: 0xA0B30, symSize: 0xE0 }
  - { offsetInCU: 0x216F3, offset: 0x322E68, size: 0x8, addend: 0x0, symName: __ZN10derivative5utils23hygienic_type_parameter17haf41d822c5a8c418E, symObjAddr: 0x8230, symBinAddr: 0xA0C10, symSize: 0x306 }
  - { offsetInCU: 0x1E, offset: 0x32F93B, size: 0x8, addend: 0x0, symName: '__ZN4core3ops8function5impls80_$LT$impl$u20$core..ops..function..FnOnce$LT$A$GT$$u20$for$u20$$RF$mut$u20$F$GT$9call_once17hcf603f4553fdd7a8E', symObjAddr: 0x0, symBinAddr: 0xA0F20, symSize: 0x250 }
  - { offsetInCU: 0x1A04, offset: 0x331321, size: 0x8, addend: 0x0, symName: '__ZN4core3ptr100drop_in_place$LT$core..option..Option$LT$alloc..boxed..Box$LT$syn..generics..LifetimeDef$GT$$GT$$GT$17h82b6930fbf453d3cE', symObjAddr: 0x400, symBinAddr: 0xA1320, symSize: 0x50 }
  - { offsetInCU: 0x1B86, offset: 0x3314A3, size: 0x8, addend: 0x0, symName: '__ZN4core3ptr100drop_in_place$LT$core..option..Option$LT$alloc..boxed..Box$LT$syn..path..GenericArgument$GT$$GT$$GT$17hdec1aac3c1c32b1aE', symObjAddr: 0x450, symBinAddr: 0xA1370, symSize: 0x50 }
  - { offsetInCU: 0x1DEE, offset: 0x33170B, size: 0x8, addend: 0x0, symName: '__ZN4core3ptr101drop_in_place$LT$core..option..Option$LT$alloc..boxed..Box$LT$syn..generics..GenericParam$GT$$GT$$GT$17he31815cd43ed0b1bE', symObjAddr: 0x4A0, symBinAddr: 0xA13C0, symSize: 0x310 }
  - { offsetInCU: 0x2829, offset: 0x332146, size: 0x8, addend: 0x0, symName: '__ZN4core3ptr103drop_in_place$LT$core..option..Option$LT$alloc..boxed..Box$LT$syn..generics..WherePredicate$GT$$GT$$GT$17h3290cb3de36508f1E', symObjAddr: 0x7B0, symBinAddr: 0xA16D0, symSize: 0x120 }
  - { offsetInCU: 0x2C3B, offset: 0x332558, size: 0x8, addend: 0x0, symName: '__ZN4core3ptr103drop_in_place$LT$syn..punctuated..Punctuated$LT$syn..generics..TypeParamBound$C$syn..token..Add$GT$$GT$17h283d6fefb1c71cfaE', symObjAddr: 0x8D0, symBinAddr: 0xA17F0, symSize: 0x200 }
  - { offsetInCU: 0x352C, offset: 0x332E49, size: 0x8, addend: 0x0, symName: '__ZN4core3ptr108drop_in_place$LT$syn..punctuated..Punctuated$LT$syn..expr..GenericMethodArgument$C$syn..token..Comma$GT$$GT$17h2aec9c03103ab694E', symObjAddr: 0xAD0, symBinAddr: 0xA19F0, symSize: 0x150 }
  - { offsetInCU: 0x3A85, offset: 0x3333A2, size: 0x8, addend: 0x0, symName: '__ZN4core3ptr34drop_in_place$LT$syn..lit..Lit$GT$17ha842b5e81e8582b3E', symObjAddr: 0xC20, symBinAddr: 0xA1B40, symSize: 0x110 }
  - { offsetInCU: 0x3EF7, offset: 0x333814, size: 0x8, addend: 0x0, symName: '__ZN4core3ptr34drop_in_place$LT$syn..pat..Pat$GT$17h0621b062377aebcbE', symObjAddr: 0xD30, symBinAddr: 0xA1C50, symSize: 0x1050 }
  - { offsetInCU: 0x78B6, offset: 0x3371D3, size: 0x8, addend: 0x0, symName: '__ZN4core3ptr34drop_in_place$LT$syn..ty..Type$GT$17h3d55b11c281dc967E', symObjAddr: 0x1D80, symBinAddr: 0xA2CA0, symSize: 0x620 }
  - { offsetInCU: 0x94EE, offset: 0x338E0B, size: 0x8, addend: 0x0, symName: '__ZN4core3ptr36drop_in_place$LT$syn..expr..Expr$GT$17h68b218bdcee4a3c7E', symObjAddr: 0x23A0, symBinAddr: 0xA32C0, symSize: 0x31D0 }
  - { offsetInCU: 0x13A77, offset: 0x343394, size: 0x8, addend: 0x0, symName: '__ZN4core3ptr36drop_in_place$LT$syn..mac..Macro$GT$17h158bcec479486e24E', symObjAddr: 0x5570, symBinAddr: 0xA6490, symSize: 0xE0 }
  - { offsetInCU: 0x13E7D, offset: 0x34379A, size: 0x8, addend: 0x0, symName: '__ZN4core3ptr36drop_in_place$LT$syn..path..Path$GT$17hdc92c6b0523379a3E', symObjAddr: 0x5650, symBinAddr: 0xA6570, symSize: 0x230 }
  - { offsetInCU: 0x14813, offset: 0x344130, size: 0x8, addend: 0x0, symName: '__ZN4core3ptr37drop_in_place$LT$syn..stmt..Block$GT$17hfffa15f159ccade9E', symObjAddr: 0x5880, symBinAddr: 0xA67A0, symSize: 0xD0 }
  - { offsetInCU: 0x14AEA, offset: 0x344407, size: 0x8, addend: 0x0, symName: '__ZN4core3ptr38drop_in_place$LT$syn..expr..Member$GT$17h24b2f28a51f276afE', symObjAddr: 0x5950, symBinAddr: 0xA6870, symSize: 0x30 }
  - { offsetInCU: 0x14BE6, offset: 0x344503, size: 0x8, addend: 0x0, symName: '__ZN4core3ptr39drop_in_place$LT$proc_macro2..Ident$GT$17he0509ca0076c6db2E.llvm.2761315025663350956', symObjAddr: 0x5980, symBinAddr: 0xA68A0, symSize: 0x30 }
  - { offsetInCU: 0x14CC3, offset: 0x3445E0, size: 0x8, addend: 0x0, symName: '__ZN4core3ptr39drop_in_place$LT$syn..pat..PatTuple$GT$17ha1d19a764bcc1cb3E', symObjAddr: 0x59B0, symBinAddr: 0xA68D0, symSize: 0x100 }
  - { offsetInCU: 0x14FCC, offset: 0x3448E9, size: 0x8, addend: 0x0, symName: '__ZN4core3ptr40drop_in_place$LT$syn..ty..ReturnType$GT$17h2d60777f70ee0d22E', symObjAddr: 0x5AB0, symBinAddr: 0xA69D0, symSize: 0x50 }
  - { offsetInCU: 0x15199, offset: 0x344AB6, size: 0x8, addend: 0x0, symName: '__ZN4core3ptr44drop_in_place$LT$syn..generics..Generics$GT$17h04fed1a77f85cbfaE', symObjAddr: 0x5B00, symBinAddr: 0xA6A20, symSize: 0xA0 }
  - { offsetInCU: 0x15405, offset: 0x344D22, size: 0x8, addend: 0x0, symName: '__ZN4core3ptr44drop_in_place$LT$syn..lifetime..Lifetime$GT$17he83b0b529a581d24E', symObjAddr: 0x5BA0, symBinAddr: 0xA6AC0, symSize: 0x30 }
  - { offsetInCU: 0x15637, offset: 0x344F54, size: 0x8, addend: 0x0, symName: '__ZN4core3ptr45drop_in_place$LT$proc_macro2..TokenStream$GT$17h7e9a94df6c9afdc7E.llvm.2761315025663350956', symObjAddr: 0x5BD0, symBinAddr: 0xA6AF0, symSize: 0x140 }
  - { offsetInCU: 0x15A93, offset: 0x3453B0, size: 0x8, addend: 0x0, symName: '__ZN4core3ptr47drop_in_place$LT$syn..generics..LifetimeDef$GT$17h8d3cfa3ea57a860bE', symObjAddr: 0x5D10, symBinAddr: 0xA6C30, symSize: 0x120 }
  - { offsetInCU: 0x15EEE, offset: 0x34580B, size: 0x8, addend: 0x0, symName: '__ZN4core3ptr47drop_in_place$LT$syn..path..GenericArgument$GT$17hc55a20af1acae48eE', symObjAddr: 0x5E30, symBinAddr: 0xA6D50, symSize: 0x110 }
  - { offsetInCU: 0x1621C, offset: 0x345B39, size: 0x8, addend: 0x0, symName: '__ZN4core3ptr53drop_in_place$LT$derivative..matcher..BindingInfo$GT$17h6302cdf95d571aecE.llvm.2761315025663350956', symObjAddr: 0x5F40, symBinAddr: 0xA6E60, symSize: 0x50 }
  - { offsetInCU: 0x16318, offset: 0x345C35, size: 0x8, addend: 0x0, symName: '__ZN4core3ptr58drop_in_place$LT$alloc..vec..Vec$LT$syn..expr..Arm$GT$$GT$17hdd3822aa758753c7E', symObjAddr: 0x5F90, symBinAddr: 0xA6EB0, symSize: 0xD0 }
  - { offsetInCU: 0x165D8, offset: 0x345EF5, size: 0x8, addend: 0x0, symName: '__ZN4core3ptr59drop_in_place$LT$alloc..boxed..Box$LT$syn..pat..Pat$GT$$GT$17h48ec1dbe47a00c61E', symObjAddr: 0x6060, symBinAddr: 0xA6F80, symSize: 0x50 }
  - { offsetInCU: 0x16731, offset: 0x34604E, size: 0x8, addend: 0x0, symName: '__ZN4core3ptr59drop_in_place$LT$alloc..boxed..Box$LT$syn..ty..Type$GT$$GT$17h454cab832bb38812E', symObjAddr: 0x60B0, symBinAddr: 0xA6FD0, symSize: 0x50 }
  - { offsetInCU: 0x1688A, offset: 0x3461A7, size: 0x8, addend: 0x0, symName: '__ZN4core3ptr61drop_in_place$LT$alloc..boxed..Box$LT$syn..expr..Expr$GT$$GT$17hbe6f5e1c721a6cd9E', symObjAddr: 0x6100, symBinAddr: 0xA7020, symSize: 0x50 }
  - { offsetInCU: 0x169E3, offset: 0x346300, size: 0x8, addend: 0x0, symName: '__ZN4core3ptr61drop_in_place$LT$syn..path..ParenthesizedGenericArguments$GT$17h2d220a34adaf921bE', symObjAddr: 0x6150, symBinAddr: 0xA7070, symSize: 0x170 }
  - { offsetInCU: 0x16FEC, offset: 0x346909, size: 0x8, addend: 0x0, symName: '__ZN4core3ptr63drop_in_place$LT$alloc..boxed..Box$LT$syn..lit..LitRepr$GT$$GT$17h44c55dd7d5499a10E', symObjAddr: 0x62C0, symBinAddr: 0xA71E0, symSize: 0x60 }
  - { offsetInCU: 0x172F3, offset: 0x346C10, size: 0x8, addend: 0x0, symName: '__ZN4core3ptr64drop_in_place$LT$alloc..boxed..Box$LT$syn..pat..FieldPat$GT$$GT$17h8a4c0395922411f9E', symObjAddr: 0x6320, symBinAddr: 0xA7240, symSize: 0x180 }
  - { offsetInCU: 0x17A10, offset: 0x34732D, size: 0x8, addend: 0x0, symName: '__ZN4core3ptr64drop_in_place$LT$alloc..boxed..Box$LT$syn..ty..BareFnArg$GT$$GT$17h145502f35dc7a34dE', symObjAddr: 0x64A0, symBinAddr: 0xA73C0, symSize: 0x160 }
  - { offsetInCU: 0x17FA6, offset: 0x3478C3, size: 0x8, addend: 0x0, symName: '__ZN4core3ptr65drop_in_place$LT$alloc..vec..Vec$LT$proc_macro..TokenTree$GT$$GT$17h27434ef986fc0c8fE.llvm.2761315025663350956', symObjAddr: 0x6600, symBinAddr: 0xA7520, symSize: 0x110 }
  - { offsetInCU: 0x1839E, offset: 0x347CBB, size: 0x8, addend: 0x0, symName: '__ZN4core3ptr65drop_in_place$LT$core..option..Option$LT$syn..expr..Label$GT$$GT$17hf88e6caa939fd4b3E', symObjAddr: 0x6710, symBinAddr: 0xA7630, symSize: 0x30 }
  - { offsetInCU: 0x184D8, offset: 0x347DF5, size: 0x8, addend: 0x0, symName: '__ZN4core3ptr66drop_in_place$LT$core..option..Option$LT$syn..ty..Variadic$GT$$GT$17hd53494a084af7b6fE', symObjAddr: 0x6740, symBinAddr: 0xA7660, symSize: 0xF0 }
  - { offsetInCU: 0x18802, offset: 0x34811F, size: 0x8, addend: 0x0, symName: '__ZN4core3ptr67drop_in_place$LT$alloc..boxed..Box$LT$syn..expr..FieldValue$GT$$GT$17hee600943c39f373eE', symObjAddr: 0x6830, symBinAddr: 0xA7750, symSize: 0x160 }
  - { offsetInCU: 0x18D78, offset: 0x348695, size: 0x8, addend: 0x0, symName: '__ZN4core3ptr72drop_in_place$LT$core..option..Option$LT$syn..lifetime..Lifetime$GT$$GT$17h496ffbcd02d279ceE', symObjAddr: 0x6990, symBinAddr: 0xA78B0, symSize: 0x30 }
  - { offsetInCU: 0x18E93, offset: 0x3487B0, size: 0x8, addend: 0x0, symName: '__ZN4core3ptr75drop_in_place$LT$alloc..boxed..Box$LT$syn..generics..TypeParamBound$GT$$GT$17h0d539f38c26df380E', symObjAddr: 0x69C0, symBinAddr: 0xA78E0, symSize: 0x140 }
  - { offsetInCU: 0x1946A, offset: 0x348D87, size: 0x8, addend: 0x0, symName: '__ZN4core3ptr75drop_in_place$LT$core..option..Option$LT$syn..generics..WhereClause$GT$$GT$17h84be8bcb2f09b9d1E', symObjAddr: 0x6B00, symBinAddr: 0xA7A20, symSize: 0xF0 }
  - { offsetInCU: 0x197C0, offset: 0x3490DD, size: 0x8, addend: 0x0, symName: '__ZN4core3ptr78drop_in_place$LT$alloc..boxed..Box$LT$syn..expr..GenericMethodArgument$GT$$GT$17h2e8ab754b2d35f4bE', symObjAddr: 0x6BF0, symBinAddr: 0xA7B10, symSize: 0x60 }
  - { offsetInCU: 0x199D1, offset: 0x3492EE, size: 0x8, addend: 0x0, symName: '__ZN4core3ptr78drop_in_place$LT$core..option..Option$LT$syn..generics..BoundLifetimes$GT$$GT$17he70d317fbad5b599E', symObjAddr: 0x6C50, symBinAddr: 0xA7B70, symSize: 0xC0 }
  - { offsetInCU: 0x19E07, offset: 0x349724, size: 0x8, addend: 0x0, symName: '__ZN4core3ptr86drop_in_place$LT$syn..punctuated..Punctuated$LT$syn..pat..Pat$C$syn..token..Or$GT$$GT$17h2004905335266fbeE', symObjAddr: 0x6D10, symBinAddr: 0xA7C30, symSize: 0x120 }
  - { offsetInCU: 0x1A282, offset: 0x349B9F, size: 0x8, addend: 0x0, symName: '__ZN4core3ptr87drop_in_place$LT$core..option..Option$LT$alloc..boxed..Box$LT$syn..pat..Pat$GT$$GT$$GT$17h9151a9d5e0aa7e1eE', symObjAddr: 0x6E30, symBinAddr: 0xA7D50, symSize: 0x50 }
  - { offsetInCU: 0x1A3F2, offset: 0x349D0F, size: 0x8, addend: 0x0, symName: '__ZN4core3ptr87drop_in_place$LT$core..option..Option$LT$alloc..boxed..Box$LT$syn..ty..Type$GT$$GT$$GT$17hd3cb46ad48d34655E', symObjAddr: 0x6E80, symBinAddr: 0xA7DA0, symSize: 0x50 }
  - { offsetInCU: 0x1A562, offset: 0x349E7F, size: 0x8, addend: 0x0, symName: '__ZN4core3ptr89drop_in_place$LT$core..option..Option$LT$alloc..boxed..Box$LT$syn..expr..Expr$GT$$GT$$GT$17h9693feaa41001291E', symObjAddr: 0x6ED0, symBinAddr: 0xA7DF0, symSize: 0x50 }
  - { offsetInCU: 0x1A710, offset: 0x34A02D, size: 0x8, addend: 0x0, symName: '__ZN4core3ptr89drop_in_place$LT$syn..punctuated..Punctuated$LT$syn..pat..Pat$C$syn..token..Comma$GT$$GT$17hc735db3a40e860f2E', symObjAddr: 0x6F20, symBinAddr: 0xA7E40, symSize: 0x120 }
  - { offsetInCU: 0x1ABE0, offset: 0x34A4FD, size: 0x8, addend: 0x0, symName: '__ZN4core3ptr91drop_in_place$LT$syn..punctuated..Punctuated$LT$syn..expr..Expr$C$syn..token..Comma$GT$$GT$17h4abaeb5cfb586772E', symObjAddr: 0x7040, symBinAddr: 0xA7F60, symSize: 0x120 }
  - { offsetInCU: 0x1B06E, offset: 0x34A98B, size: 0x8, addend: 0x0, symName: '__ZN4core3ptr94drop_in_place$LT$syn..punctuated..Punctuated$LT$syn..pat..FieldPat$C$syn..token..Comma$GT$$GT$17hf9927b8b52e25a50E', symObjAddr: 0x7160, symBinAddr: 0xA8080, symSize: 0xF0 }
  - { offsetInCU: 0x1B36D, offset: 0x34AC8A, size: 0x8, addend: 0x0, symName: '__ZN4core3ptr94drop_in_place$LT$syn..punctuated..Punctuated$LT$syn..ty..BareFnArg$C$syn..token..Comma$GT$$GT$17h577c8aa515f26074E', symObjAddr: 0x7250, symBinAddr: 0xA8170, symSize: 0xF0 }
  - { offsetInCU: 0x1B66A, offset: 0x34AF87, size: 0x8, addend: 0x0, symName: '__ZN4core3ptr96drop_in_place$LT$core..option..Option$LT$alloc..boxed..Box$LT$syn..path..PathSegment$GT$$GT$$GT$17hb35e105c29269971E', symObjAddr: 0x7340, symBinAddr: 0xA8260, symSize: 0x180 }
  - { offsetInCU: 0x1BD27, offset: 0x34B644, size: 0x8, addend: 0x0, symName: '__ZN4core3ptr97drop_in_place$LT$syn..punctuated..Punctuated$LT$syn..expr..FieldValue$C$syn..token..Comma$GT$$GT$17h15366382fde2131eE', symObjAddr: 0x74C0, symBinAddr: 0xA83E0, symSize: 0xF0 }
  - { offsetInCU: 0x1C0A0, offset: 0x34B9BD, size: 0x8, addend: 0x0, symName: '__ZN4core3ptr97drop_in_place$LT$syn..punctuated..Punctuated$LT$syn..lifetime..Lifetime$C$syn..token..Add$GT$$GT$17hd50f0bf96210475aE', symObjAddr: 0x75B0, symBinAddr: 0xA84D0, symSize: 0xD0 }
  - { offsetInCU: 0x1E746, offset: 0x34E063, size: 0x8, addend: 0x0, symName: '__ZN4core3ops8function5impls80_$LT$impl$u20$core..ops..function..FnOnce$LT$A$GT$$u20$for$u20$$RF$mut$u20$F$GT$9call_once17hcf603f4553fdd7a8E', symObjAddr: 0x0, symBinAddr: 0xA0F20, symSize: 0x250 }
  - { offsetInCU: 0x1E94D, offset: 0x34E26A, size: 0x8, addend: 0x0, symName: '__ZN4core3ops8function5impls80_$LT$impl$u20$core..ops..function..FnOnce$LT$A$GT$$u20$for$u20$$RF$mut$u20$F$GT$9call_once17hd0482d3863c422cdE', symObjAddr: 0x250, symBinAddr: 0xA1170, symSize: 0x1B0 }
  - { offsetInCU: 0x1F15B, offset: 0x34EA78, size: 0x8, addend: 0x0, symName: __ZN10derivative5clone11derive_copy17h8a6544160575b3e1E, symObjAddr: 0x7680, symBinAddr: 0xA85A0, symSize: 0x310 }
  - { offsetInCU: 0x1F348, offset: 0x34EC65, size: 0x8, addend: 0x0, symName: __ZN10derivative5clone12derive_clone17ha206443ed5465fe8E, symObjAddr: 0x7990, symBinAddr: 0xA88B0, symSize: 0x10A0 }
  - { offsetInCU: 0x1E, offset: 0x35B01B, size: 0x8, addend: 0x0, symName: '__ZN40_$LT$F$u20$as$u20$syn..parse..Parser$GT$6parse217h61f86bdebb2441e5E', symObjAddr: 0x0, symBinAddr: 0xA9950, symSize: 0x380 }
  - { offsetInCU: 0x1B76, offset: 0x35CB73, size: 0x8, addend: 0x0, symName: '__ZN4core3ptr100drop_in_place$LT$core..option..Option$LT$alloc..boxed..Box$LT$syn..generics..LifetimeDef$GT$$GT$$GT$17h82b6930fbf453d3cE', symObjAddr: 0xF80, symBinAddr: 0xAA8D0, symSize: 0x50 }
  - { offsetInCU: 0x1CF8, offset: 0x35CCF5, size: 0x8, addend: 0x0, symName: '__ZN4core3ptr100drop_in_place$LT$core..option..Option$LT$alloc..boxed..Box$LT$syn..path..GenericArgument$GT$$GT$$GT$17hdec1aac3c1c32b1aE', symObjAddr: 0xFD0, symBinAddr: 0xAA920, symSize: 0x50 }
  - { offsetInCU: 0x1FDC, offset: 0x35CFD9, size: 0x8, addend: 0x0, symName: '__ZN4core3ptr101drop_in_place$LT$core..option..Option$LT$alloc..boxed..Box$LT$syn..generics..GenericParam$GT$$GT$$GT$17he31815cd43ed0b1bE', symObjAddr: 0x1020, symBinAddr: 0xAA970, symSize: 0x310 }
  - { offsetInCU: 0x2A17, offset: 0x35DA14, size: 0x8, addend: 0x0, symName: '__ZN4core3ptr103drop_in_place$LT$core..option..Option$LT$alloc..boxed..Box$LT$syn..generics..WherePredicate$GT$$GT$$GT$17h3290cb3de36508f1E', symObjAddr: 0x1330, symBinAddr: 0xAAC80, symSize: 0x120 }
  - { offsetInCU: 0x2E29, offset: 0x35DE26, size: 0x8, addend: 0x0, symName: '__ZN4core3ptr103drop_in_place$LT$syn..punctuated..Punctuated$LT$syn..generics..TypeParamBound$C$syn..token..Add$GT$$GT$17h283d6fefb1c71cfaE', symObjAddr: 0x1450, symBinAddr: 0xAADA0, symSize: 0x200 }
  - { offsetInCU: 0x371A, offset: 0x35E717, size: 0x8, addend: 0x0, symName: '__ZN4core3ptr108drop_in_place$LT$syn..punctuated..Punctuated$LT$syn..expr..GenericMethodArgument$C$syn..token..Comma$GT$$GT$17h2aec9c03103ab694E', symObjAddr: 0x1650, symBinAddr: 0xAAFA0, symSize: 0x150 }
  - { offsetInCU: 0x3C73, offset: 0x35EC70, size: 0x8, addend: 0x0, symName: '__ZN4core3ptr34drop_in_place$LT$syn..lit..Lit$GT$17ha842b5e81e8582b3E', symObjAddr: 0x17A0, symBinAddr: 0xAB0F0, symSize: 0x110 }
  - { offsetInCU: 0x40E5, offset: 0x35F0E2, size: 0x8, addend: 0x0, symName: '__ZN4core3ptr34drop_in_place$LT$syn..pat..Pat$GT$17h0621b062377aebcbE', symObjAddr: 0x18B0, symBinAddr: 0xAB200, symSize: 0x1050 }
  - { offsetInCU: 0x7AA4, offset: 0x362AA1, size: 0x8, addend: 0x0, symName: '__ZN4core3ptr34drop_in_place$LT$syn..ty..Type$GT$17h3d55b11c281dc967E', symObjAddr: 0x2900, symBinAddr: 0xAC250, symSize: 0x620 }
  - { offsetInCU: 0x96DC, offset: 0x3646D9, size: 0x8, addend: 0x0, symName: '__ZN4core3ptr36drop_in_place$LT$syn..expr..Expr$GT$17h68b218bdcee4a3c7E', symObjAddr: 0x2F20, symBinAddr: 0xAC870, symSize: 0x31D0 }
  - { offsetInCU: 0x13C65, offset: 0x36EC62, size: 0x8, addend: 0x0, symName: '__ZN4core3ptr36drop_in_place$LT$syn..mac..Macro$GT$17h158bcec479486e24E', symObjAddr: 0x60F0, symBinAddr: 0xAFA40, symSize: 0xE0 }
  - { offsetInCU: 0x1406B, offset: 0x36F068, size: 0x8, addend: 0x0, symName: '__ZN4core3ptr36drop_in_place$LT$syn..path..Path$GT$17hdc92c6b0523379a3E', symObjAddr: 0x61D0, symBinAddr: 0xAFB20, symSize: 0x230 }
  - { offsetInCU: 0x14A01, offset: 0x36F9FE, size: 0x8, addend: 0x0, symName: '__ZN4core3ptr37drop_in_place$LT$syn..stmt..Block$GT$17hfffa15f159ccade9E', symObjAddr: 0x6400, symBinAddr: 0xAFD50, symSize: 0xD0 }
  - { offsetInCU: 0x14D73, offset: 0x36FD70, size: 0x8, addend: 0x0, symName: '__ZN4core3ptr38drop_in_place$LT$syn..data..Fields$GT$17h19f200f8ddc57bcdE', symObjAddr: 0x64D0, symBinAddr: 0xAFE20, symSize: 0x180 }
  - { offsetInCU: 0x15273, offset: 0x370270, size: 0x8, addend: 0x0, symName: '__ZN4core3ptr38drop_in_place$LT$syn..derive..Data$GT$17h8ac85faea1fc80a9E', symObjAddr: 0x6650, symBinAddr: 0xAFFA0, symSize: 0x1C0 }
  - { offsetInCU: 0x15915, offset: 0x370912, size: 0x8, addend: 0x0, symName: '__ZN4core3ptr38drop_in_place$LT$syn..expr..Member$GT$17h24b2f28a51f276afE', symObjAddr: 0x6810, symBinAddr: 0xB0160, symSize: 0x30 }
  - { offsetInCU: 0x15A11, offset: 0x370A0E, size: 0x8, addend: 0x0, symName: '__ZN4core3ptr39drop_in_place$LT$proc_macro2..Ident$GT$17he0509ca0076c6db2E', symObjAddr: 0x6840, symBinAddr: 0xB0190, symSize: 0x30 }
  - { offsetInCU: 0x15C24, offset: 0x370C21, size: 0x8, addend: 0x0, symName: '__ZN4core3ptr39drop_in_place$LT$syn..buffer..Entry$GT$17hc51967d7645907a7E', symObjAddr: 0x6870, symBinAddr: 0xB01C0, symSize: 0xB0 }
  - { offsetInCU: 0x15FAF, offset: 0x370FAC, size: 0x8, addend: 0x0, symName: '__ZN4core3ptr39drop_in_place$LT$syn..pat..PatTuple$GT$17ha1d19a764bcc1cb3E', symObjAddr: 0x6920, symBinAddr: 0xB0270, symSize: 0x100 }
  - { offsetInCU: 0x162B8, offset: 0x3712B5, size: 0x8, addend: 0x0, symName: '__ZN4core3ptr40drop_in_place$LT$syn..ty..ReturnType$GT$17h2d60777f70ee0d22E', symObjAddr: 0x6A20, symBinAddr: 0xB0370, symSize: 0x50 }
  - { offsetInCU: 0x16466, offset: 0x371463, size: 0x8, addend: 0x0, symName: '__ZN4core3ptr42drop_in_place$LT$syn..data..Visibility$GT$17h3005b5cee3cfc4b6E', symObjAddr: 0x6A70, symBinAddr: 0xB03C0, symSize: 0x60 }
  - { offsetInCU: 0x16634, offset: 0x371631, size: 0x8, addend: 0x0, symName: '__ZN4core3ptr44drop_in_place$LT$syn..generics..Generics$GT$17h04fed1a77f85cbfaE', symObjAddr: 0x6AD0, symBinAddr: 0xB0420, symSize: 0xA0 }
  - { offsetInCU: 0x168A0, offset: 0x37189D, size: 0x8, addend: 0x0, symName: '__ZN4core3ptr44drop_in_place$LT$syn..lifetime..Lifetime$GT$17he83b0b529a581d24E', symObjAddr: 0x6B70, symBinAddr: 0xB04C0, symSize: 0x30 }
  - { offsetInCU: 0x1699C, offset: 0x371999, size: 0x8, addend: 0x0, symName: '__ZN4core3ptr44drop_in_place$LT$syn..parse..ParseBuffer$GT$17h0deb71e62c5b7f14E', symObjAddr: 0x6BA0, symBinAddr: 0xB04F0, symSize: 0x70 }
  - { offsetInCU: 0x16D18, offset: 0x371D15, size: 0x8, addend: 0x0, symName: '__ZN4core3ptr45drop_in_place$LT$proc_macro2..TokenStream$GT$17h7e9a94df6c9afdc7E', symObjAddr: 0x6C10, symBinAddr: 0xB0560, symSize: 0x140 }
  - { offsetInCU: 0x17174, offset: 0x372171, size: 0x8, addend: 0x0, symName: '__ZN4core3ptr45drop_in_place$LT$syn..buffer..TokenBuffer$GT$17h753024007ce6bf14E', symObjAddr: 0x6D50, symBinAddr: 0xB06A0, symSize: 0xC0 }
  - { offsetInCU: 0x173BD, offset: 0x3723BA, size: 0x8, addend: 0x0, symName: '__ZN4core3ptr45drop_in_place$LT$syn..derive..DeriveInput$GT$17h4729d40a100b2151E', symObjAddr: 0x6E10, symBinAddr: 0xB0760, symSize: 0x190 }
  - { offsetInCU: 0x17929, offset: 0x372926, size: 0x8, addend: 0x0, symName: '__ZN4core3ptr47drop_in_place$LT$syn..generics..LifetimeDef$GT$17h8d3cfa3ea57a860bE', symObjAddr: 0x6FA0, symBinAddr: 0xB08F0, symSize: 0x120 }
  - { offsetInCU: 0x17D46, offset: 0x372D43, size: 0x8, addend: 0x0, symName: '__ZN4core3ptr47drop_in_place$LT$syn..generics..WhereClause$GT$17h1b98f6923c0917b2E', symObjAddr: 0x70C0, symBinAddr: 0xB0A10, symSize: 0xE0 }
  - { offsetInCU: 0x180A6, offset: 0x3730A3, size: 0x8, addend: 0x0, symName: '__ZN4core3ptr47drop_in_place$LT$syn..path..GenericArgument$GT$17hc55a20af1acae48eE', symObjAddr: 0x71A0, symBinAddr: 0xB0AF0, symSize: 0x110 }
  - { offsetInCU: 0x183D4, offset: 0x3733D1, size: 0x8, addend: 0x0, symName: '__ZN4core3ptr58drop_in_place$LT$alloc..vec..Vec$LT$syn..expr..Arm$GT$$GT$17hdd3822aa758753c7E', symObjAddr: 0x72B0, symBinAddr: 0xB0C00, symSize: 0xD0 }
  - { offsetInCU: 0x18694, offset: 0x373691, size: 0x8, addend: 0x0, symName: '__ZN4core3ptr59drop_in_place$LT$alloc..boxed..Box$LT$syn..pat..Pat$GT$$GT$17h48ec1dbe47a00c61E', symObjAddr: 0x7380, symBinAddr: 0xB0CD0, symSize: 0x50 }
  - { offsetInCU: 0x187ED, offset: 0x3737EA, size: 0x8, addend: 0x0, symName: '__ZN4core3ptr59drop_in_place$LT$alloc..boxed..Box$LT$syn..ty..Type$GT$$GT$17h454cab832bb38812E', symObjAddr: 0x73D0, symBinAddr: 0xB0D20, symSize: 0x50 }
  - { offsetInCU: 0x18946, offset: 0x373943, size: 0x8, addend: 0x0, symName: '__ZN4core3ptr61drop_in_place$LT$alloc..boxed..Box$LT$syn..expr..Expr$GT$$GT$17hbe6f5e1c721a6cd9E', symObjAddr: 0x7420, symBinAddr: 0xB0D70, symSize: 0x50 }
  - { offsetInCU: 0x18A9F, offset: 0x373A9C, size: 0x8, addend: 0x0, symName: '__ZN4core3ptr61drop_in_place$LT$syn..path..ParenthesizedGenericArguments$GT$17h2d220a34adaf921bE', symObjAddr: 0x7470, symBinAddr: 0xB0DC0, symSize: 0x170 }
  - { offsetInCU: 0x190A8, offset: 0x3740A5, size: 0x8, addend: 0x0, symName: '__ZN4core3ptr63drop_in_place$LT$alloc..boxed..Box$LT$syn..lit..LitRepr$GT$$GT$17h44c55dd7d5499a10E', symObjAddr: 0x75E0, symBinAddr: 0xB0F30, symSize: 0x60 }
  - { offsetInCU: 0x193AF, offset: 0x3743AC, size: 0x8, addend: 0x0, symName: '__ZN4core3ptr64drop_in_place$LT$alloc..boxed..Box$LT$syn..pat..FieldPat$GT$$GT$17h8a4c0395922411f9E', symObjAddr: 0x7640, symBinAddr: 0xB0F90, symSize: 0x180 }
  - { offsetInCU: 0x19ACC, offset: 0x374AC9, size: 0x8, addend: 0x0, symName: '__ZN4core3ptr64drop_in_place$LT$alloc..boxed..Box$LT$syn..ty..BareFnArg$GT$$GT$17h145502f35dc7a34dE', symObjAddr: 0x77C0, symBinAddr: 0xB1110, symSize: 0x160 }
  - { offsetInCU: 0x1A062, offset: 0x37505F, size: 0x8, addend: 0x0, symName: '__ZN4core3ptr65drop_in_place$LT$alloc..vec..Vec$LT$proc_macro..TokenTree$GT$$GT$17h27434ef986fc0c8fE', symObjAddr: 0x7920, symBinAddr: 0xB1270, symSize: 0x110 }
  - { offsetInCU: 0x1A45A, offset: 0x375457, size: 0x8, addend: 0x0, symName: '__ZN4core3ptr65drop_in_place$LT$core..option..Option$LT$syn..expr..Label$GT$$GT$17hf88e6caa939fd4b3E', symObjAddr: 0x7A30, symBinAddr: 0xB1380, symSize: 0x30 }
  - { offsetInCU: 0x1A594, offset: 0x375591, size: 0x8, addend: 0x0, symName: '__ZN4core3ptr66drop_in_place$LT$core..option..Option$LT$syn..ty..Variadic$GT$$GT$17hd53494a084af7b6fE', symObjAddr: 0x7A60, symBinAddr: 0xB13B0, symSize: 0xF0 }
  - { offsetInCU: 0x1A8BE, offset: 0x3758BB, size: 0x8, addend: 0x0, symName: '__ZN4core3ptr67drop_in_place$LT$alloc..boxed..Box$LT$syn..expr..FieldValue$GT$$GT$17hee600943c39f373eE', symObjAddr: 0x7B50, symBinAddr: 0xB14A0, symSize: 0x160 }
  - { offsetInCU: 0x1AE34, offset: 0x375E31, size: 0x8, addend: 0x0, symName: '__ZN4core3ptr72drop_in_place$LT$core..option..Option$LT$syn..lifetime..Lifetime$GT$$GT$17h496ffbcd02d279ceE', symObjAddr: 0x7CB0, symBinAddr: 0xB1600, symSize: 0x30 }
  - { offsetInCU: 0x1AF4F, offset: 0x375F4C, size: 0x8, addend: 0x0, symName: '__ZN4core3ptr75drop_in_place$LT$alloc..boxed..Box$LT$syn..generics..TypeParamBound$GT$$GT$17h0d539f38c26df380E', symObjAddr: 0x7CE0, symBinAddr: 0xB1630, symSize: 0x140 }
  - { offsetInCU: 0x1B4AA, offset: 0x3764A7, size: 0x8, addend: 0x0, symName: '__ZN4core3ptr75drop_in_place$LT$core..option..Option$LT$syn..generics..WhereClause$GT$$GT$17h84be8bcb2f09b9d1E', symObjAddr: 0x7E20, symBinAddr: 0xB1770, symSize: 0xF0 }
  - { offsetInCU: 0x1B800, offset: 0x3767FD, size: 0x8, addend: 0x0, symName: '__ZN4core3ptr78drop_in_place$LT$alloc..boxed..Box$LT$syn..expr..GenericMethodArgument$GT$$GT$17h2e8ab754b2d35f4bE', symObjAddr: 0x7F10, symBinAddr: 0xB1860, symSize: 0x60 }
  - { offsetInCU: 0x1BA11, offset: 0x376A0E, size: 0x8, addend: 0x0, symName: '__ZN4core3ptr78drop_in_place$LT$core..option..Option$LT$syn..generics..BoundLifetimes$GT$$GT$17he70d317fbad5b599E', symObjAddr: 0x7F70, symBinAddr: 0xB18C0, symSize: 0xC0 }
  - { offsetInCU: 0x1BE47, offset: 0x376E44, size: 0x8, addend: 0x0, symName: '__ZN4core3ptr86drop_in_place$LT$syn..punctuated..Punctuated$LT$syn..pat..Pat$C$syn..token..Or$GT$$GT$17h2004905335266fbeE', symObjAddr: 0x8030, symBinAddr: 0xB1980, symSize: 0x120 }
  - { offsetInCU: 0x1C2C2, offset: 0x3772BF, size: 0x8, addend: 0x0, symName: '__ZN4core3ptr87drop_in_place$LT$core..option..Option$LT$alloc..boxed..Box$LT$syn..pat..Pat$GT$$GT$$GT$17h9151a9d5e0aa7e1eE', symObjAddr: 0x8150, symBinAddr: 0xB1AA0, symSize: 0x50 }
  - { offsetInCU: 0x1C432, offset: 0x37742F, size: 0x8, addend: 0x0, symName: '__ZN4core3ptr87drop_in_place$LT$core..option..Option$LT$alloc..boxed..Box$LT$syn..ty..Type$GT$$GT$$GT$17hd3cb46ad48d34655E', symObjAddr: 0x81A0, symBinAddr: 0xB1AF0, symSize: 0x50 }
  - { offsetInCU: 0x1C5A2, offset: 0x37759F, size: 0x8, addend: 0x0, symName: '__ZN4core3ptr89drop_in_place$LT$core..option..Option$LT$alloc..boxed..Box$LT$syn..expr..Expr$GT$$GT$$GT$17h9693feaa41001291E', symObjAddr: 0x81F0, symBinAddr: 0xB1B40, symSize: 0x50 }
  - { offsetInCU: 0x1C750, offset: 0x37774D, size: 0x8, addend: 0x0, symName: '__ZN4core3ptr89drop_in_place$LT$syn..punctuated..Punctuated$LT$syn..pat..Pat$C$syn..token..Comma$GT$$GT$17hc735db3a40e860f2E', symObjAddr: 0x8240, symBinAddr: 0xB1B90, symSize: 0x120 }
  - { offsetInCU: 0x1CC3F, offset: 0x377C3C, size: 0x8, addend: 0x0, symName: '__ZN4core3ptr90drop_in_place$LT$core..option..Option$LT$alloc..boxed..Box$LT$syn..data..Field$GT$$GT$$GT$17h885e62f652b164a6E', symObjAddr: 0x8360, symBinAddr: 0xB1CB0, symSize: 0x1D0 }
  - { offsetInCU: 0x1D33A, offset: 0x378337, size: 0x8, addend: 0x0, symName: '__ZN4core3ptr91drop_in_place$LT$syn..punctuated..Punctuated$LT$syn..expr..Expr$C$syn..token..Comma$GT$$GT$17h4abaeb5cfb586772E', symObjAddr: 0x8530, symBinAddr: 0xB1E80, symSize: 0x120 }
  - { offsetInCU: 0x1D844, offset: 0x378841, size: 0x8, addend: 0x0, symName: '__ZN4core3ptr92drop_in_place$LT$core..option..Option$LT$alloc..boxed..Box$LT$syn..data..Variant$GT$$GT$$GT$17h3f1f05953b619900E', symObjAddr: 0x8650, symBinAddr: 0xB1FA0, symSize: 0x1A0 }
  - { offsetInCU: 0x1DE0B, offset: 0x378E08, size: 0x8, addend: 0x0, symName: '__ZN4core3ptr94drop_in_place$LT$syn..punctuated..Punctuated$LT$syn..pat..FieldPat$C$syn..token..Comma$GT$$GT$17hf9927b8b52e25a50E', symObjAddr: 0x87F0, symBinAddr: 0xB2140, symSize: 0xF0 }
  - { offsetInCU: 0x1E10A, offset: 0x379107, size: 0x8, addend: 0x0, symName: '__ZN4core3ptr94drop_in_place$LT$syn..punctuated..Punctuated$LT$syn..ty..BareFnArg$C$syn..token..Comma$GT$$GT$17h577c8aa515f26074E', symObjAddr: 0x88E0, symBinAddr: 0xB2230, symSize: 0xF0 }
  - { offsetInCU: 0x1E407, offset: 0x379404, size: 0x8, addend: 0x0, symName: '__ZN4core3ptr96drop_in_place$LT$core..option..Option$LT$alloc..boxed..Box$LT$syn..path..PathSegment$GT$$GT$$GT$17hb35e105c29269971E', symObjAddr: 0x89D0, symBinAddr: 0xB2320, symSize: 0x180 }
  - { offsetInCU: 0x1EAC4, offset: 0x379AC1, size: 0x8, addend: 0x0, symName: '__ZN4core3ptr97drop_in_place$LT$syn..punctuated..Punctuated$LT$syn..expr..FieldValue$C$syn..token..Comma$GT$$GT$17h15366382fde2131eE', symObjAddr: 0x8B50, symBinAddr: 0xB24A0, symSize: 0xF0 }
  - { offsetInCU: 0x1EE3D, offset: 0x379E3A, size: 0x8, addend: 0x0, symName: '__ZN4core3ptr97drop_in_place$LT$syn..punctuated..Punctuated$LT$syn..lifetime..Lifetime$C$syn..token..Add$GT$$GT$17hd50f0bf96210475aE', symObjAddr: 0x8C40, symBinAddr: 0xB2590, symSize: 0xC6 }
  - { offsetInCU: 0x26C59, offset: 0x381C56, size: 0x8, addend: 0x0, symName: '__ZN40_$LT$F$u20$as$u20$syn..parse..Parser$GT$6parse217h61f86bdebb2441e5E', symObjAddr: 0x0, symBinAddr: 0xA9950, symSize: 0x380 }
  - { offsetInCU: 0x27498, offset: 0x382495, size: 0x8, addend: 0x0, symName: '__ZN40_$LT$F$u20$as$u20$syn..parse..Parser$GT$6parse217hcefd1443c95477b0E', symObjAddr: 0x380, symBinAddr: 0xA9CD0, symSize: 0x380 }
  - { offsetInCU: 0x27CEE, offset: 0x382CEB, size: 0x8, addend: 0x0, symName: '__ZN40_$LT$F$u20$as$u20$syn..parse..Parser$GT$6parse217hdc858755bc6a38bcE', symObjAddr: 0x700, symBinAddr: 0xAA050, symSize: 0x4D0 }
  - { offsetInCU: 0x28B7B, offset: 0x383B78, size: 0x8, addend: 0x0, symName: '__ZN40_$LT$F$u20$as$u20$syn..parse..Parser$GT$6parse217hf1a333fb59da5c88E', symObjAddr: 0xBD0, symBinAddr: 0xAA520, symSize: 0x3B0 }
  - { offsetInCU: 0x1E, offset: 0x38A45E, size: 0x8, addend: 0x0, symName: __ZN10proc_macro6bridge6client14HandleCounters3get17h2c76d49220b98e92E, symObjAddr: 0x0, symBinAddr: 0xB2660, symSize: 0x10 }
  - { offsetInCU: 0x40, offset: 0x38A480, size: 0x8, addend: 0x0, symName: ___rustc_proc_macro_decls_d10a4e1c533119b4__, symObjAddr: 0x9CC8, symBinAddr: 0x310B98, symSize: 0x0 }
  - { offsetInCU: 0x1AE, offset: 0x38A5EE, size: 0x8, addend: 0x0, symName: __ZN10derivative10derivative17hfa5c38080ceb1ac5E, symObjAddr: 0x8530, symBinAddr: 0xBAB90, symSize: 0x517 }
  - { offsetInCU: 0x429C, offset: 0x38E6DC, size: 0x8, addend: 0x0, symName: '__ZN4core3ptr100drop_in_place$LT$core..option..Option$LT$alloc..boxed..Box$LT$syn..generics..LifetimeDef$GT$$GT$$GT$17h82b6930fbf453d3cE', symObjAddr: 0x10, symBinAddr: 0xB2670, symSize: 0x50 }
  - { offsetInCU: 0x441E, offset: 0x38E85E, size: 0x8, addend: 0x0, symName: '__ZN4core3ptr100drop_in_place$LT$core..option..Option$LT$alloc..boxed..Box$LT$syn..path..GenericArgument$GT$$GT$$GT$17hdec1aac3c1c32b1aE', symObjAddr: 0x60, symBinAddr: 0xB26C0, symSize: 0x50 }
  - { offsetInCU: 0x4702, offset: 0x38EB42, size: 0x8, addend: 0x0, symName: '__ZN4core3ptr101drop_in_place$LT$core..option..Option$LT$alloc..boxed..Box$LT$syn..generics..GenericParam$GT$$GT$$GT$17he31815cd43ed0b1bE', symObjAddr: 0xB0, symBinAddr: 0xB2710, symSize: 0x310 }
  - { offsetInCU: 0x513D, offset: 0x38F57D, size: 0x8, addend: 0x0, symName: '__ZN4core3ptr103drop_in_place$LT$core..option..Option$LT$alloc..boxed..Box$LT$syn..generics..WherePredicate$GT$$GT$$GT$17h3290cb3de36508f1E', symObjAddr: 0x3C0, symBinAddr: 0xB2A20, symSize: 0x120 }
  - { offsetInCU: 0x554F, offset: 0x38F98F, size: 0x8, addend: 0x0, symName: '__ZN4core3ptr103drop_in_place$LT$syn..punctuated..Punctuated$LT$syn..generics..TypeParamBound$C$syn..token..Add$GT$$GT$17h283d6fefb1c71cfaE', symObjAddr: 0x4E0, symBinAddr: 0xB2B40, symSize: 0x200 }
  - { offsetInCU: 0x5E40, offset: 0x390280, size: 0x8, addend: 0x0, symName: '__ZN4core3ptr108drop_in_place$LT$syn..punctuated..Punctuated$LT$syn..expr..GenericMethodArgument$C$syn..token..Comma$GT$$GT$17h2aec9c03103ab694E', symObjAddr: 0x6E0, symBinAddr: 0xB2D40, symSize: 0x150 }
  - { offsetInCU: 0x6399, offset: 0x3907D9, size: 0x8, addend: 0x0, symName: '__ZN4core3ptr34drop_in_place$LT$syn..lit..Lit$GT$17ha842b5e81e8582b3E', symObjAddr: 0x830, symBinAddr: 0xB2E90, symSize: 0x110 }
  - { offsetInCU: 0x680B, offset: 0x390C4B, size: 0x8, addend: 0x0, symName: '__ZN4core3ptr34drop_in_place$LT$syn..pat..Pat$GT$17h0621b062377aebcbE', symObjAddr: 0x940, symBinAddr: 0xB2FA0, symSize: 0x1050 }
  - { offsetInCU: 0xA1CA, offset: 0x39460A, size: 0x8, addend: 0x0, symName: '__ZN4core3ptr34drop_in_place$LT$syn..ty..Type$GT$17h3d55b11c281dc967E', symObjAddr: 0x1990, symBinAddr: 0xB3FF0, symSize: 0x620 }
  - { offsetInCU: 0xBE02, offset: 0x396242, size: 0x8, addend: 0x0, symName: '__ZN4core3ptr36drop_in_place$LT$syn..expr..Expr$GT$17h68b218bdcee4a3c7E', symObjAddr: 0x1FB0, symBinAddr: 0xB4610, symSize: 0x31D0 }
  - { offsetInCU: 0x1638B, offset: 0x3A07CB, size: 0x8, addend: 0x0, symName: '__ZN4core3ptr36drop_in_place$LT$syn..mac..Macro$GT$17h158bcec479486e24E', symObjAddr: 0x5180, symBinAddr: 0xB77E0, symSize: 0xE0 }
  - { offsetInCU: 0x16791, offset: 0x3A0BD1, size: 0x8, addend: 0x0, symName: '__ZN4core3ptr36drop_in_place$LT$syn..path..Path$GT$17hdc92c6b0523379a3E', symObjAddr: 0x5260, symBinAddr: 0xB78C0, symSize: 0x230 }
  - { offsetInCU: 0x17127, offset: 0x3A1567, size: 0x8, addend: 0x0, symName: '__ZN4core3ptr37drop_in_place$LT$syn..stmt..Block$GT$17hfffa15f159ccade9E', symObjAddr: 0x5490, symBinAddr: 0xB7AF0, symSize: 0xD0 }
  - { offsetInCU: 0x17499, offset: 0x3A18D9, size: 0x8, addend: 0x0, symName: '__ZN4core3ptr38drop_in_place$LT$syn..data..Fields$GT$17h19f200f8ddc57bcdE', symObjAddr: 0x5560, symBinAddr: 0xB7BC0, symSize: 0x180 }
  - { offsetInCU: 0x17999, offset: 0x3A1DD9, size: 0x8, addend: 0x0, symName: '__ZN4core3ptr38drop_in_place$LT$syn..derive..Data$GT$17h8ac85faea1fc80a9E', symObjAddr: 0x56E0, symBinAddr: 0xB7D40, symSize: 0x1C0 }
  - { offsetInCU: 0x18079, offset: 0x3A24B9, size: 0x8, addend: 0x0, symName: '__ZN4core3ptr38drop_in_place$LT$syn..error..Error$GT$17h3aa27a792d2ab4d2E', symObjAddr: 0x58A0, symBinAddr: 0xB7F00, symSize: 0x80 }
  - { offsetInCU: 0x18326, offset: 0x3A2766, size: 0x8, addend: 0x0, symName: '__ZN4core3ptr38drop_in_place$LT$syn..expr..Member$GT$17h24b2f28a51f276afE', symObjAddr: 0x5920, symBinAddr: 0xB7F80, symSize: 0x30 }
  - { offsetInCU: 0x18422, offset: 0x3A2862, size: 0x8, addend: 0x0, symName: '__ZN4core3ptr39drop_in_place$LT$proc_macro2..Ident$GT$17he0509ca0076c6db2E', symObjAddr: 0x5950, symBinAddr: 0xB7FB0, symSize: 0x30 }
  - { offsetInCU: 0x184FF, offset: 0x3A293F, size: 0x8, addend: 0x0, symName: '__ZN4core3ptr39drop_in_place$LT$syn..pat..PatTuple$GT$17ha1d19a764bcc1cb3E', symObjAddr: 0x5980, symBinAddr: 0xB7FE0, symSize: 0x100 }
  - { offsetInCU: 0x18808, offset: 0x3A2C48, size: 0x8, addend: 0x0, symName: '__ZN4core3ptr40drop_in_place$LT$syn..ty..ReturnType$GT$17h2d60777f70ee0d22E', symObjAddr: 0x5A80, symBinAddr: 0xB80E0, symSize: 0x50 }
  - { offsetInCU: 0x189F4, offset: 0x3A2E34, size: 0x8, addend: 0x0, symName: '__ZN4core3ptr42drop_in_place$LT$derivative..ast..Body$GT$17hf36b7f23ef58f03fE', symObjAddr: 0x5AD0, symBinAddr: 0xB8130, symSize: 0x150 }
  - { offsetInCU: 0x18EFD, offset: 0x3A333D, size: 0x8, addend: 0x0, symName: '__ZN4core3ptr42drop_in_place$LT$syn..data..Visibility$GT$17h3005b5cee3cfc4b6E', symObjAddr: 0x5C20, symBinAddr: 0xB8280, symSize: 0x60 }
  - { offsetInCU: 0x19318, offset: 0x3A3758, size: 0x8, addend: 0x0, symName: '__ZN4core3ptr43drop_in_place$LT$derivative..ast..Input$GT$17h711dad44087bfd7bE', symObjAddr: 0x5C80, symBinAddr: 0xB82E0, symSize: 0x6E0 }
  - { offsetInCU: 0x1AF4C, offset: 0x3A538C, size: 0x8, addend: 0x0, symName: '__ZN4core3ptr44drop_in_place$LT$syn..generics..Generics$GT$17h04fed1a77f85cbfaE', symObjAddr: 0x6360, symBinAddr: 0xB89C0, symSize: 0xA0 }
  - { offsetInCU: 0x1B1B8, offset: 0x3A55F8, size: 0x8, addend: 0x0, symName: '__ZN4core3ptr44drop_in_place$LT$syn..lifetime..Lifetime$GT$17he83b0b529a581d24E', symObjAddr: 0x6400, symBinAddr: 0xB8A60, symSize: 0x30 }
  - { offsetInCU: 0x1B3EA, offset: 0x3A582A, size: 0x8, addend: 0x0, symName: '__ZN4core3ptr45drop_in_place$LT$proc_macro2..TokenStream$GT$17h7e9a94df6c9afdc7E', symObjAddr: 0x6430, symBinAddr: 0xB8A90, symSize: 0x140 }
  - { offsetInCU: 0x1B865, offset: 0x3A5CA5, size: 0x8, addend: 0x0, symName: '__ZN4core3ptr45drop_in_place$LT$syn..derive..DeriveInput$GT$17h4729d40a100b2151E', symObjAddr: 0x6570, symBinAddr: 0xB8BD0, symSize: 0x190 }
  - { offsetInCU: 0x1BDD1, offset: 0x3A6211, size: 0x8, addend: 0x0, symName: '__ZN4core3ptr47drop_in_place$LT$syn..generics..LifetimeDef$GT$17h8d3cfa3ea57a860bE', symObjAddr: 0x6700, symBinAddr: 0xB8D60, symSize: 0x120 }
  - { offsetInCU: 0x1C22C, offset: 0x3A666C, size: 0x8, addend: 0x0, symName: '__ZN4core3ptr47drop_in_place$LT$syn..path..GenericArgument$GT$17hc55a20af1acae48eE', symObjAddr: 0x6820, symBinAddr: 0xB8E80, symSize: 0x110 }
  - { offsetInCU: 0x1C55A, offset: 0x3A699A, size: 0x8, addend: 0x0, symName: '__ZN4core3ptr58drop_in_place$LT$alloc..vec..Vec$LT$syn..expr..Arm$GT$$GT$17hdd3822aa758753c7E', symObjAddr: 0x6930, symBinAddr: 0xB8F90, symSize: 0xD0 }
  - { offsetInCU: 0x1C81A, offset: 0x3A6C5A, size: 0x8, addend: 0x0, symName: '__ZN4core3ptr59drop_in_place$LT$alloc..boxed..Box$LT$syn..pat..Pat$GT$$GT$17h48ec1dbe47a00c61E', symObjAddr: 0x6A00, symBinAddr: 0xB9060, symSize: 0x50 }
  - { offsetInCU: 0x1C973, offset: 0x3A6DB3, size: 0x8, addend: 0x0, symName: '__ZN4core3ptr59drop_in_place$LT$alloc..boxed..Box$LT$syn..ty..Type$GT$$GT$17h454cab832bb38812E', symObjAddr: 0x6A50, symBinAddr: 0xB90B0, symSize: 0x50 }
  - { offsetInCU: 0x1CACC, offset: 0x3A6F0C, size: 0x8, addend: 0x0, symName: '__ZN4core3ptr61drop_in_place$LT$alloc..boxed..Box$LT$syn..expr..Expr$GT$$GT$17hbe6f5e1c721a6cd9E', symObjAddr: 0x6AA0, symBinAddr: 0xB9100, symSize: 0x50 }
  - { offsetInCU: 0x1CC25, offset: 0x3A7065, size: 0x8, addend: 0x0, symName: '__ZN4core3ptr61drop_in_place$LT$syn..path..ParenthesizedGenericArguments$GT$17h2d220a34adaf921bE', symObjAddr: 0x6AF0, symBinAddr: 0xB9150, symSize: 0x170 }
  - { offsetInCU: 0x1D22E, offset: 0x3A766E, size: 0x8, addend: 0x0, symName: '__ZN4core3ptr63drop_in_place$LT$alloc..boxed..Box$LT$syn..lit..LitRepr$GT$$GT$17h44c55dd7d5499a10E', symObjAddr: 0x6C60, symBinAddr: 0xB92C0, symSize: 0x60 }
  - { offsetInCU: 0x1D535, offset: 0x3A7975, size: 0x8, addend: 0x0, symName: '__ZN4core3ptr64drop_in_place$LT$alloc..boxed..Box$LT$syn..pat..FieldPat$GT$$GT$17h8a4c0395922411f9E', symObjAddr: 0x6CC0, symBinAddr: 0xB9320, symSize: 0x180 }
  - { offsetInCU: 0x1DC52, offset: 0x3A8092, size: 0x8, addend: 0x0, symName: '__ZN4core3ptr64drop_in_place$LT$alloc..boxed..Box$LT$syn..ty..BareFnArg$GT$$GT$17h145502f35dc7a34dE', symObjAddr: 0x6E40, symBinAddr: 0xB94A0, symSize: 0x160 }
  - { offsetInCU: 0x1E1E8, offset: 0x3A8628, size: 0x8, addend: 0x0, symName: '__ZN4core3ptr65drop_in_place$LT$alloc..vec..Vec$LT$proc_macro..TokenTree$GT$$GT$17h27434ef986fc0c8fE', symObjAddr: 0x6FA0, symBinAddr: 0xB9600, symSize: 0x110 }
  - { offsetInCU: 0x1E5E0, offset: 0x3A8A20, size: 0x8, addend: 0x0, symName: '__ZN4core3ptr65drop_in_place$LT$core..option..Option$LT$syn..expr..Label$GT$$GT$17hf88e6caa939fd4b3E', symObjAddr: 0x70B0, symBinAddr: 0xB9710, symSize: 0x30 }
  - { offsetInCU: 0x1E71A, offset: 0x3A8B5A, size: 0x8, addend: 0x0, symName: '__ZN4core3ptr66drop_in_place$LT$core..option..Option$LT$syn..ty..Variadic$GT$$GT$17hd53494a084af7b6fE', symObjAddr: 0x70E0, symBinAddr: 0xB9740, symSize: 0xF0 }
  - { offsetInCU: 0x1EA44, offset: 0x3A8E84, size: 0x8, addend: 0x0, symName: '__ZN4core3ptr67drop_in_place$LT$alloc..boxed..Box$LT$syn..expr..FieldValue$GT$$GT$17hee600943c39f373eE', symObjAddr: 0x71D0, symBinAddr: 0xB9830, symSize: 0x160 }
  - { offsetInCU: 0x1EFBA, offset: 0x3A93FA, size: 0x8, addend: 0x0, symName: '__ZN4core3ptr72drop_in_place$LT$core..option..Option$LT$syn..lifetime..Lifetime$GT$$GT$17h496ffbcd02d279ceE', symObjAddr: 0x7330, symBinAddr: 0xB9990, symSize: 0x30 }
  - { offsetInCU: 0x1F0D5, offset: 0x3A9515, size: 0x8, addend: 0x0, symName: '__ZN4core3ptr74drop_in_place$LT$core..option..Option$LT$derivative..attr..InputEq$GT$$GT$17h5c6528a7271c33f0E', symObjAddr: 0x7360, symBinAddr: 0xB99C0, symSize: 0xD0 }
  - { offsetInCU: 0x1F3AF, offset: 0x3A97EF, size: 0x8, addend: 0x0, symName: '__ZN4core3ptr75drop_in_place$LT$alloc..boxed..Box$LT$syn..generics..TypeParamBound$GT$$GT$17h0d539f38c26df380E', symObjAddr: 0x7430, symBinAddr: 0xB9A90, symSize: 0x140 }
  - { offsetInCU: 0x1F90A, offset: 0x3A9D4A, size: 0x8, addend: 0x0, symName: '__ZN4core3ptr75drop_in_place$LT$core..option..Option$LT$derivative..attr..InputOrd$GT$$GT$17h65b3c0526b6be967E', symObjAddr: 0x7570, symBinAddr: 0xB9BD0, symSize: 0xD0 }
  - { offsetInCU: 0x1FC60, offset: 0x3AA0A0, size: 0x8, addend: 0x0, symName: '__ZN4core3ptr75drop_in_place$LT$core..option..Option$LT$syn..generics..WhereClause$GT$$GT$17h84be8bcb2f09b9d1E', symObjAddr: 0x7640, symBinAddr: 0xB9CA0, symSize: 0xF0 }
  - { offsetInCU: 0x1FFB6, offset: 0x3AA3F6, size: 0x8, addend: 0x0, symName: '__ZN4core3ptr78drop_in_place$LT$alloc..boxed..Box$LT$syn..expr..GenericMethodArgument$GT$$GT$17h2e8ab754b2d35f4bE', symObjAddr: 0x7730, symBinAddr: 0xB9D90, symSize: 0x60 }
  - { offsetInCU: 0x201C7, offset: 0x3AA607, size: 0x8, addend: 0x0, symName: '__ZN4core3ptr78drop_in_place$LT$core..option..Option$LT$syn..generics..BoundLifetimes$GT$$GT$17he70d317fbad5b599E', symObjAddr: 0x7790, symBinAddr: 0xB9DF0, symSize: 0xC0 }
  - { offsetInCU: 0x205FD, offset: 0x3AAA3D, size: 0x8, addend: 0x0, symName: '__ZN4core3ptr86drop_in_place$LT$syn..punctuated..Punctuated$LT$syn..pat..Pat$C$syn..token..Or$GT$$GT$17h2004905335266fbeE', symObjAddr: 0x7850, symBinAddr: 0xB9EB0, symSize: 0x120 }
  - { offsetInCU: 0x20A78, offset: 0x3AAEB8, size: 0x8, addend: 0x0, symName: '__ZN4core3ptr87drop_in_place$LT$core..option..Option$LT$alloc..boxed..Box$LT$syn..pat..Pat$GT$$GT$$GT$17h9151a9d5e0aa7e1eE', symObjAddr: 0x7970, symBinAddr: 0xB9FD0, symSize: 0x50 }
  - { offsetInCU: 0x20BE8, offset: 0x3AB028, size: 0x8, addend: 0x0, symName: '__ZN4core3ptr87drop_in_place$LT$core..option..Option$LT$alloc..boxed..Box$LT$syn..ty..Type$GT$$GT$$GT$17hd3cb46ad48d34655E', symObjAddr: 0x79C0, symBinAddr: 0xBA020, symSize: 0x50 }
  - { offsetInCU: 0x20D58, offset: 0x3AB198, size: 0x8, addend: 0x0, symName: '__ZN4core3ptr89drop_in_place$LT$core..option..Option$LT$alloc..boxed..Box$LT$syn..expr..Expr$GT$$GT$$GT$17h9693feaa41001291E', symObjAddr: 0x7A10, symBinAddr: 0xBA070, symSize: 0x50 }
  - { offsetInCU: 0x20F06, offset: 0x3AB346, size: 0x8, addend: 0x0, symName: '__ZN4core3ptr89drop_in_place$LT$syn..punctuated..Punctuated$LT$syn..pat..Pat$C$syn..token..Comma$GT$$GT$17hc735db3a40e860f2E', symObjAddr: 0x7A60, symBinAddr: 0xBA0C0, symSize: 0x120 }
  - { offsetInCU: 0x213F5, offset: 0x3AB835, size: 0x8, addend: 0x0, symName: '__ZN4core3ptr90drop_in_place$LT$core..option..Option$LT$alloc..boxed..Box$LT$syn..data..Field$GT$$GT$$GT$17h885e62f652b164a6E', symObjAddr: 0x7B80, symBinAddr: 0xBA1E0, symSize: 0x1D0 }
  - { offsetInCU: 0x21AF0, offset: 0x3ABF30, size: 0x8, addend: 0x0, symName: '__ZN4core3ptr91drop_in_place$LT$syn..punctuated..Punctuated$LT$syn..expr..Expr$C$syn..token..Comma$GT$$GT$17h4abaeb5cfb586772E', symObjAddr: 0x7D50, symBinAddr: 0xBA3B0, symSize: 0x120 }
  - { offsetInCU: 0x21FFA, offset: 0x3AC43A, size: 0x8, addend: 0x0, symName: '__ZN4core3ptr92drop_in_place$LT$core..option..Option$LT$alloc..boxed..Box$LT$syn..data..Variant$GT$$GT$$GT$17h3f1f05953b619900E', symObjAddr: 0x7E70, symBinAddr: 0xBA4D0, symSize: 0x1A0 }
  - { offsetInCU: 0x225C1, offset: 0x3ACA01, size: 0x8, addend: 0x0, symName: '__ZN4core3ptr94drop_in_place$LT$syn..punctuated..Punctuated$LT$syn..pat..FieldPat$C$syn..token..Comma$GT$$GT$17hf9927b8b52e25a50E', symObjAddr: 0x8010, symBinAddr: 0xBA670, symSize: 0xF0 }
  - { offsetInCU: 0x228C0, offset: 0x3ACD00, size: 0x8, addend: 0x0, symName: '__ZN4core3ptr94drop_in_place$LT$syn..punctuated..Punctuated$LT$syn..ty..BareFnArg$C$syn..token..Comma$GT$$GT$17h577c8aa515f26074E', symObjAddr: 0x8100, symBinAddr: 0xBA760, symSize: 0xF0 }
  - { offsetInCU: 0x22BBD, offset: 0x3ACFFD, size: 0x8, addend: 0x0, symName: '__ZN4core3ptr96drop_in_place$LT$core..option..Option$LT$alloc..boxed..Box$LT$syn..path..PathSegment$GT$$GT$$GT$17hb35e105c29269971E', symObjAddr: 0x81F0, symBinAddr: 0xBA850, symSize: 0x180 }
  - { offsetInCU: 0x2327A, offset: 0x3AD6BA, size: 0x8, addend: 0x0, symName: '__ZN4core3ptr97drop_in_place$LT$syn..punctuated..Punctuated$LT$syn..expr..FieldValue$C$syn..token..Comma$GT$$GT$17h15366382fde2131eE', symObjAddr: 0x8370, symBinAddr: 0xBA9D0, symSize: 0xF0 }
  - { offsetInCU: 0x235F3, offset: 0x3ADA33, size: 0x8, addend: 0x0, symName: '__ZN4core3ptr97drop_in_place$LT$syn..punctuated..Punctuated$LT$syn..lifetime..Lifetime$C$syn..token..Add$GT$$GT$17hd50f0bf96210475aE', symObjAddr: 0x8460, symBinAddr: 0xBAAC0, symSize: 0xD0 }
  - { offsetInCU: 0x244E8, offset: 0x3AE928, size: 0x8, addend: 0x0, symName: __ZN10proc_macro6bridge6client14HandleCounters3get17h2c76d49220b98e92E, symObjAddr: 0x0, symBinAddr: 0xB2660, symSize: 0x10 }
  - { offsetInCU: 0x1E, offset: 0x3BAB89, size: 0x8, addend: 0x0, symName: __ZN3syn11parse_quote5parse17h2767e4965d86fc38E, symObjAddr: 0x0, symBinAddr: 0xBB0B0, symSize: 0x4A0 }
  - { offsetInCU: 0x1CD9, offset: 0x3BC844, size: 0x8, addend: 0x0, symName: '__ZN4core3ptr100drop_in_place$LT$core..option..Option$LT$alloc..boxed..Box$LT$syn..generics..LifetimeDef$GT$$GT$$GT$17h82b6930fbf453d3cE', symObjAddr: 0x10F0, symBinAddr: 0xBC1A0, symSize: 0x150 }
  - { offsetInCU: 0x2255, offset: 0x3BCDC0, size: 0x8, addend: 0x0, symName: '__ZN4core3ptr100drop_in_place$LT$core..option..Option$LT$alloc..boxed..Box$LT$syn..path..GenericArgument$GT$$GT$$GT$17hdec1aac3c1c32b1aE', symObjAddr: 0x1240, symBinAddr: 0xBC2F0, symSize: 0x50 }
  - { offsetInCU: 0x2422, offset: 0x3BCF8D, size: 0x8, addend: 0x0, symName: '__ZN4core3ptr103drop_in_place$LT$core..option..Option$LT$alloc..boxed..Box$LT$syn..generics..TypeParamBound$GT$$GT$$GT$17h4e76aebe6f41d1a7E', symObjAddr: 0x1290, symBinAddr: 0xBC340, symSize: 0x90 }
  - { offsetInCU: 0x2797, offset: 0x3BD302, size: 0x8, addend: 0x0, symName: '__ZN4core3ptr103drop_in_place$LT$syn..punctuated..Punctuated$LT$syn..generics..TypeParamBound$C$syn..token..Add$GT$$GT$17h283d6fefb1c71cfaE', symObjAddr: 0x1320, symBinAddr: 0xBC3D0, symSize: 0x200 }
  - { offsetInCU: 0x3075, offset: 0x3BDBE0, size: 0x8, addend: 0x0, symName: '__ZN4core3ptr108drop_in_place$LT$syn..punctuated..Punctuated$LT$syn..expr..GenericMethodArgument$C$syn..token..Comma$GT$$GT$17h2aec9c03103ab694E', symObjAddr: 0x1520, symBinAddr: 0xBC5D0, symSize: 0x150 }
  - { offsetInCU: 0x35CE, offset: 0x3BE139, size: 0x8, addend: 0x0, symName: '__ZN4core3ptr34drop_in_place$LT$syn..lit..Lit$GT$17ha842b5e81e8582b3E', symObjAddr: 0x1670, symBinAddr: 0xBC720, symSize: 0x110 }
  - { offsetInCU: 0x3A40, offset: 0x3BE5AB, size: 0x8, addend: 0x0, symName: '__ZN4core3ptr34drop_in_place$LT$syn..pat..Pat$GT$17h0621b062377aebcbE', symObjAddr: 0x1780, symBinAddr: 0xBC830, symSize: 0x1190 }
  - { offsetInCU: 0x7958, offset: 0x3C24C3, size: 0x8, addend: 0x0, symName: '__ZN4core3ptr34drop_in_place$LT$syn..ty..Type$GT$17h3d55b11c281dc967E', symObjAddr: 0x2910, symBinAddr: 0xBD9C0, symSize: 0x580 }
  - { offsetInCU: 0x9269, offset: 0x3C3DD4, size: 0x8, addend: 0x0, symName: '__ZN4core3ptr36drop_in_place$LT$syn..expr..Expr$GT$17h68b218bdcee4a3c7E', symObjAddr: 0x2E90, symBinAddr: 0xBDF40, symSize: 0x3290 }
  - { offsetInCU: 0x13AFA, offset: 0x3CE665, size: 0x8, addend: 0x0, symName: '__ZN4core3ptr36drop_in_place$LT$syn..mac..Macro$GT$17h158bcec479486e24E', symObjAddr: 0x6120, symBinAddr: 0xC11D0, symSize: 0x40 }
  - { offsetInCU: 0x13C4B, offset: 0x3CE7B6, size: 0x8, addend: 0x0, symName: '__ZN4core3ptr36drop_in_place$LT$syn..path..Path$GT$17hdc92c6b0523379a3E', symObjAddr: 0x6160, symBinAddr: 0xC1210, symSize: 0x230 }
  - { offsetInCU: 0x145E1, offset: 0x3CF14C, size: 0x8, addend: 0x0, symName: '__ZN4core3ptr37drop_in_place$LT$syn..stmt..Block$GT$17hfffa15f159ccade9E', symObjAddr: 0x6390, symBinAddr: 0xC1440, symSize: 0xD0 }
  - { offsetInCU: 0x148F6, offset: 0x3CF461, size: 0x8, addend: 0x0, symName: '__ZN4core3ptr38drop_in_place$LT$syn..error..Error$GT$17h3aa27a792d2ab4d2E', symObjAddr: 0x6460, symBinAddr: 0xC1510, symSize: 0x80 }
  - { offsetInCU: 0x14BB6, offset: 0x3CF721, size: 0x8, addend: 0x0, symName: '__ZN4core3ptr38drop_in_place$LT$syn..expr..Member$GT$17h24b2f28a51f276afE', symObjAddr: 0x64E0, symBinAddr: 0xC1590, symSize: 0x30 }
  - { offsetInCU: 0x14CB2, offset: 0x3CF81D, size: 0x8, addend: 0x0, symName: '__ZN4core3ptr39drop_in_place$LT$proc_macro2..Ident$GT$17he0509ca0076c6db2E', symObjAddr: 0x6510, symBinAddr: 0xC15C0, symSize: 0x30 }
  - { offsetInCU: 0x14EC5, offset: 0x3CFA30, size: 0x8, addend: 0x0, symName: '__ZN4core3ptr39drop_in_place$LT$syn..buffer..Entry$GT$17hc51967d7645907a7E', symObjAddr: 0x6540, symBinAddr: 0xC15F0, symSize: 0xB0 }
  - { offsetInCU: 0x15250, offset: 0x3CFDBB, size: 0x8, addend: 0x0, symName: '__ZN4core3ptr39drop_in_place$LT$syn..pat..PatTuple$GT$17ha1d19a764bcc1cb3E', symObjAddr: 0x65F0, symBinAddr: 0xC16A0, symSize: 0x100 }
  - { offsetInCU: 0x15559, offset: 0x3D00C4, size: 0x8, addend: 0x0, symName: '__ZN4core3ptr40drop_in_place$LT$syn..ty..ReturnType$GT$17h2d60777f70ee0d22E', symObjAddr: 0x66F0, symBinAddr: 0xC17A0, symSize: 0x50 }
  - { offsetInCU: 0x156C9, offset: 0x3D0234, size: 0x8, addend: 0x0, symName: '__ZN4core3ptr44drop_in_place$LT$syn..lifetime..Lifetime$GT$17he83b0b529a581d24E', symObjAddr: 0x6740, symBinAddr: 0xC17F0, symSize: 0x30 }
  - { offsetInCU: 0x157C5, offset: 0x3D0330, size: 0x8, addend: 0x0, symName: '__ZN4core3ptr44drop_in_place$LT$syn..parse..ParseBuffer$GT$17h0deb71e62c5b7f14E', symObjAddr: 0x6770, symBinAddr: 0xC1820, symSize: 0x70 }
  - { offsetInCU: 0x15B41, offset: 0x3D06AC, size: 0x8, addend: 0x0, symName: '__ZN4core3ptr45drop_in_place$LT$proc_macro2..TokenStream$GT$17h7e9a94df6c9afdc7E', symObjAddr: 0x67E0, symBinAddr: 0xC1890, symSize: 0x140 }
  - { offsetInCU: 0x15F9D, offset: 0x3D0B08, size: 0x8, addend: 0x0, symName: '__ZN4core3ptr45drop_in_place$LT$syn..buffer..TokenBuffer$GT$17h753024007ce6bf14E', symObjAddr: 0x6920, symBinAddr: 0xC19D0, symSize: 0xC0 }
  - { offsetInCU: 0x16205, offset: 0x3D0D70, size: 0x8, addend: 0x0, symName: '__ZN4core3ptr47drop_in_place$LT$syn..path..GenericArgument$GT$17hc55a20af1acae48eE', symObjAddr: 0x69E0, symBinAddr: 0xC1A90, symSize: 0x110 }
  - { offsetInCU: 0x1657D, offset: 0x3D10E8, size: 0x8, addend: 0x0, symName: '__ZN4core3ptr50drop_in_place$LT$syn..generics..WherePredicate$GT$17h5f6316e378219a95E', symObjAddr: 0x6AF0, symBinAddr: 0xC1BA0, symSize: 0x100 }
  - { offsetInCU: 0x16704, offset: 0x3D126F, size: 0x8, addend: 0x0, symName: '__ZN4core3ptr58drop_in_place$LT$alloc..vec..Vec$LT$syn..expr..Arm$GT$$GT$17hdd3822aa758753c7E', symObjAddr: 0x6BF0, symBinAddr: 0xC1CA0, symSize: 0xD0 }
  - { offsetInCU: 0x169C4, offset: 0x3D152F, size: 0x8, addend: 0x0, symName: '__ZN4core3ptr59drop_in_place$LT$alloc..boxed..Box$LT$syn..pat..Pat$GT$$GT$17h48ec1dbe47a00c61E', symObjAddr: 0x6CC0, symBinAddr: 0xC1D70, symSize: 0x50 }
  - { offsetInCU: 0x16B1D, offset: 0x3D1688, size: 0x8, addend: 0x0, symName: '__ZN4core3ptr59drop_in_place$LT$alloc..boxed..Box$LT$syn..ty..Type$GT$$GT$17h454cab832bb38812E', symObjAddr: 0x6D10, symBinAddr: 0xC1DC0, symSize: 0x50 }
  - { offsetInCU: 0x16C76, offset: 0x3D17E1, size: 0x8, addend: 0x0, symName: '__ZN4core3ptr61drop_in_place$LT$alloc..boxed..Box$LT$syn..expr..Expr$GT$$GT$17hbe6f5e1c721a6cd9E', symObjAddr: 0x6D60, symBinAddr: 0xC1E10, symSize: 0x50 }
  - { offsetInCU: 0x16E4B, offset: 0x3D19B6, size: 0x8, addend: 0x0, symName: '__ZN4core3ptr61drop_in_place$LT$syn..path..ParenthesizedGenericArguments$GT$17h2d220a34adaf921bE', symObjAddr: 0x6DB0, symBinAddr: 0xC1E60, symSize: 0x170 }
  - { offsetInCU: 0x17441, offset: 0x3D1FAC, size: 0x8, addend: 0x0, symName: '__ZN4core3ptr63drop_in_place$LT$alloc..boxed..Box$LT$syn..lit..LitRepr$GT$$GT$17h44c55dd7d5499a10E', symObjAddr: 0x6F20, symBinAddr: 0xC1FD0, symSize: 0x60 }
  - { offsetInCU: 0x17748, offset: 0x3D22B3, size: 0x8, addend: 0x0, symName: '__ZN4core3ptr64drop_in_place$LT$alloc..boxed..Box$LT$syn..pat..FieldPat$GT$$GT$17h8a4c0395922411f9E', symObjAddr: 0x6F80, symBinAddr: 0xC2030, symSize: 0x180 }
  - { offsetInCU: 0x17E65, offset: 0x3D29D0, size: 0x8, addend: 0x0, symName: '__ZN4core3ptr64drop_in_place$LT$alloc..boxed..Box$LT$syn..ty..BareFnArg$GT$$GT$17h145502f35dc7a34dE', symObjAddr: 0x7100, symBinAddr: 0xC21B0, symSize: 0x160 }
  - { offsetInCU: 0x183FB, offset: 0x3D2F66, size: 0x8, addend: 0x0, symName: '__ZN4core3ptr65drop_in_place$LT$alloc..vec..Vec$LT$proc_macro..TokenTree$GT$$GT$17h27434ef986fc0c8fE', symObjAddr: 0x7260, symBinAddr: 0xC2310, symSize: 0x110 }
  - { offsetInCU: 0x187F3, offset: 0x3D335E, size: 0x8, addend: 0x0, symName: '__ZN4core3ptr65drop_in_place$LT$core..option..Option$LT$syn..expr..Label$GT$$GT$17hf88e6caa939fd4b3E', symObjAddr: 0x7370, symBinAddr: 0xC2420, symSize: 0x30 }
  - { offsetInCU: 0x1892D, offset: 0x3D3498, size: 0x8, addend: 0x0, symName: '__ZN4core3ptr66drop_in_place$LT$core..option..Option$LT$syn..ty..Variadic$GT$$GT$17hd53494a084af7b6fE', symObjAddr: 0x73A0, symBinAddr: 0xC2450, symSize: 0xF0 }
  - { offsetInCU: 0x18C57, offset: 0x3D37C2, size: 0x8, addend: 0x0, symName: '__ZN4core3ptr67drop_in_place$LT$alloc..boxed..Box$LT$syn..expr..FieldValue$GT$$GT$17hee600943c39f373eE', symObjAddr: 0x7490, symBinAddr: 0xC2540, symSize: 0x160 }
  - { offsetInCU: 0x191EC, offset: 0x3D3D57, size: 0x8, addend: 0x0, symName: '__ZN4core3ptr68drop_in_place$LT$alloc..boxed..Box$LT$syn..path..PathSegment$GT$$GT$17he2e359177565069bE', symObjAddr: 0x75F0, symBinAddr: 0xC26A0, symSize: 0x190 }
  - { offsetInCU: 0x19915, offset: 0x3D4480, size: 0x8, addend: 0x0, symName: '__ZN4core3ptr72drop_in_place$LT$alloc..boxed..Box$LT$syn..path..GenericArgument$GT$$GT$17h193e4d7337ac8d1fE', symObjAddr: 0x7780, symBinAddr: 0xC2830, symSize: 0x1D0 }
  - { offsetInCU: 0x1A03C, offset: 0x3D4BA7, size: 0x8, addend: 0x0, symName: '__ZN4core3ptr72drop_in_place$LT$core..option..Option$LT$syn..lifetime..Lifetime$GT$$GT$17h496ffbcd02d279ceE', symObjAddr: 0x7950, symBinAddr: 0xC2A00, symSize: 0x30 }
  - { offsetInCU: 0x1A157, offset: 0x3D4CC2, size: 0x8, addend: 0x0, symName: '__ZN4core3ptr75drop_in_place$LT$alloc..boxed..Box$LT$syn..generics..TypeParamBound$GT$$GT$17h0d539f38c26df380E', symObjAddr: 0x7980, symBinAddr: 0xC2A30, symSize: 0x140 }
  - { offsetInCU: 0x1A6B2, offset: 0x3D521D, size: 0x8, addend: 0x0, symName: '__ZN4core3ptr78drop_in_place$LT$alloc..boxed..Box$LT$syn..expr..GenericMethodArgument$GT$$GT$17h2e8ab754b2d35f4bE', symObjAddr: 0x7AC0, symBinAddr: 0xC2B70, symSize: 0x60 }
  - { offsetInCU: 0x1A8A4, offset: 0x3D540F, size: 0x8, addend: 0x0, symName: '__ZN4core3ptr78drop_in_place$LT$core..option..Option$LT$syn..generics..BoundLifetimes$GT$$GT$17he70d317fbad5b599E', symObjAddr: 0x7B20, symBinAddr: 0xC2BD0, symSize: 0x90 }
  - { offsetInCU: 0x1AB92, offset: 0x3D56FD, size: 0x8, addend: 0x0, symName: '__ZN4core3ptr86drop_in_place$LT$syn..punctuated..Punctuated$LT$syn..pat..Pat$C$syn..token..Or$GT$$GT$17h2004905335266fbeE', symObjAddr: 0x7BB0, symBinAddr: 0xC2C60, symSize: 0x120 }
  - { offsetInCU: 0x1B00D, offset: 0x3D5B78, size: 0x8, addend: 0x0, symName: '__ZN4core3ptr87drop_in_place$LT$core..option..Option$LT$alloc..boxed..Box$LT$syn..pat..Pat$GT$$GT$$GT$17h9151a9d5e0aa7e1eE', symObjAddr: 0x7CD0, symBinAddr: 0xC2D80, symSize: 0x50 }
  - { offsetInCU: 0x1B17D, offset: 0x3D5CE8, size: 0x8, addend: 0x0, symName: '__ZN4core3ptr87drop_in_place$LT$core..option..Option$LT$alloc..boxed..Box$LT$syn..ty..Type$GT$$GT$$GT$17hd3cb46ad48d34655E', symObjAddr: 0x7D20, symBinAddr: 0xC2DD0, symSize: 0x50 }
  - { offsetInCU: 0x1B2ED, offset: 0x3D5E58, size: 0x8, addend: 0x0, symName: '__ZN4core3ptr89drop_in_place$LT$core..option..Option$LT$alloc..boxed..Box$LT$syn..expr..Expr$GT$$GT$$GT$17h9693feaa41001291E', symObjAddr: 0x7D70, symBinAddr: 0xC2E20, symSize: 0x50 }
  - { offsetInCU: 0x1B49B, offset: 0x3D6006, size: 0x8, addend: 0x0, symName: '__ZN4core3ptr89drop_in_place$LT$syn..punctuated..Punctuated$LT$syn..pat..Pat$C$syn..token..Comma$GT$$GT$17hc735db3a40e860f2E', symObjAddr: 0x7DC0, symBinAddr: 0xC2E70, symSize: 0x120 }
  - { offsetInCU: 0x1B92D, offset: 0x3D6498, size: 0x8, addend: 0x0, symName: '__ZN4core3ptr89drop_in_place$LT$syn..punctuated..Punctuated$LT$syn..ty..Type$C$syn..token..Comma$GT$$GT$17he63552f348a6dc51E', symObjAddr: 0x7EE0, symBinAddr: 0xC2F90, symSize: 0x120 }
  - { offsetInCU: 0x1BDE6, offset: 0x3D6951, size: 0x8, addend: 0x0, symName: '__ZN4core3ptr91drop_in_place$LT$syn..punctuated..Punctuated$LT$syn..expr..Expr$C$syn..token..Comma$GT$$GT$17h4abaeb5cfb586772E', symObjAddr: 0x8000, symBinAddr: 0xC30B0, symSize: 0x120 }
  - { offsetInCU: 0x1C274, offset: 0x3D6DDF, size: 0x8, addend: 0x0, symName: '__ZN4core3ptr94drop_in_place$LT$syn..punctuated..Punctuated$LT$syn..pat..FieldPat$C$syn..token..Comma$GT$$GT$17hf9927b8b52e25a50E', symObjAddr: 0x8120, symBinAddr: 0xC31D0, symSize: 0xF0 }
  - { offsetInCU: 0x1C573, offset: 0x3D70DE, size: 0x8, addend: 0x0, symName: '__ZN4core3ptr94drop_in_place$LT$syn..punctuated..Punctuated$LT$syn..ty..BareFnArg$C$syn..token..Comma$GT$$GT$17h577c8aa515f26074E', symObjAddr: 0x8210, symBinAddr: 0xC32C0, symSize: 0xF0 }
  - { offsetInCU: 0x1C870, offset: 0x3D73DB, size: 0x8, addend: 0x0, symName: '__ZN4core3ptr96drop_in_place$LT$core..option..Option$LT$alloc..boxed..Box$LT$syn..path..PathSegment$GT$$GT$$GT$17hb35e105c29269971E', symObjAddr: 0x8300, symBinAddr: 0xC33B0, symSize: 0x180 }
  - { offsetInCU: 0x1CF2D, offset: 0x3D7A98, size: 0x8, addend: 0x0, symName: '__ZN4core3ptr97drop_in_place$LT$syn..punctuated..Punctuated$LT$syn..expr..FieldValue$C$syn..token..Comma$GT$$GT$17h15366382fde2131eE', symObjAddr: 0x8480, symBinAddr: 0xC3530, symSize: 0xF0 }
  - { offsetInCU: 0x1D2A6, offset: 0x3D7E11, size: 0x8, addend: 0x0, symName: '__ZN4core3ptr97drop_in_place$LT$syn..punctuated..Punctuated$LT$syn..lifetime..Lifetime$C$syn..token..Add$GT$$GT$17hd50f0bf96210475aE', symObjAddr: 0x8570, symBinAddr: 0xC3620, symSize: 0xD0 }
  - { offsetInCU: 0x1D71A, offset: 0x3D8285, size: 0x8, addend: 0x0, symName: '__ZN4core3ptr99drop_in_place$LT$syn..punctuated..Punctuated$LT$syn..path..PathSegment$C$syn..token..Colon2$GT$$GT$17h603ba227c074f4bfE', symObjAddr: 0x8640, symBinAddr: 0xC36F0, symSize: 0x24A }
  - { offsetInCU: 0x21151, offset: 0x3DBCBC, size: 0x8, addend: 0x0, symName: __ZN3syn11parse_quote5parse17h2767e4965d86fc38E, symObjAddr: 0x0, symBinAddr: 0xBB0B0, symSize: 0x4A0 }
  - { offsetInCU: 0x21CC5, offset: 0x3DC830, size: 0x8, addend: 0x0, symName: __ZN3syn11parse_quote5parse17h40b33fc462435f3bE, symObjAddr: 0x4A0, symBinAddr: 0xBB550, symSize: 0x360 }
  - { offsetInCU: 0x2250E, offset: 0x3DD079, size: 0x8, addend: 0x0, symName: __ZN3syn11parse_quote5parse17hbf1eb2cb994c4d31E, symObjAddr: 0x800, symBinAddr: 0xBB8B0, symSize: 0x480 }
  - { offsetInCU: 0x22D6E, offset: 0x3DD8D9, size: 0x8, addend: 0x0, symName: __ZN3syn11parse_quote5parse17hf223814a27f8a9cfE, symObjAddr: 0xC80, symBinAddr: 0xBBD30, symSize: 0x470 }
  - { offsetInCU: 0x1E, offset: 0x3E8677, size: 0x8, addend: 0x0, symName: '__ZN4core3ops8function5impls79_$LT$impl$u20$core..ops..function..FnMut$LT$A$GT$$u20$for$u20$$RF$mut$u20$F$GT$8call_mut17h3b6878fb31671415E', symObjAddr: 0x0, symBinAddr: 0xC3940, symSize: 0x200 }
  - { offsetInCU: 0x1921, offset: 0x3E9F7A, size: 0x8, addend: 0x0, symName: '__ZN4core3ptr100drop_in_place$LT$core..option..Option$LT$alloc..boxed..Box$LT$syn..generics..LifetimeDef$GT$$GT$$GT$17h82b6930fbf453d3cE', symObjAddr: 0x200, symBinAddr: 0xC3B40, symSize: 0x50 }
  - { offsetInCU: 0x1AA3, offset: 0x3EA0FC, size: 0x8, addend: 0x0, symName: '__ZN4core3ptr100drop_in_place$LT$core..option..Option$LT$alloc..boxed..Box$LT$syn..path..GenericArgument$GT$$GT$$GT$17hdec1aac3c1c32b1aE', symObjAddr: 0x250, symBinAddr: 0xC3B90, symSize: 0x50 }
  - { offsetInCU: 0x1D87, offset: 0x3EA3E0, size: 0x8, addend: 0x0, symName: '__ZN4core3ptr101drop_in_place$LT$core..option..Option$LT$alloc..boxed..Box$LT$syn..generics..GenericParam$GT$$GT$$GT$17he31815cd43ed0b1bE', symObjAddr: 0x2A0, symBinAddr: 0xC3BE0, symSize: 0x310 }
  - { offsetInCU: 0x27C2, offset: 0x3EAE1B, size: 0x8, addend: 0x0, symName: '__ZN4core3ptr103drop_in_place$LT$core..option..Option$LT$alloc..boxed..Box$LT$syn..generics..WherePredicate$GT$$GT$$GT$17h3290cb3de36508f1E', symObjAddr: 0x5B0, symBinAddr: 0xC3EF0, symSize: 0x120 }
  - { offsetInCU: 0x2BD4, offset: 0x3EB22D, size: 0x8, addend: 0x0, symName: '__ZN4core3ptr103drop_in_place$LT$syn..punctuated..Punctuated$LT$syn..generics..TypeParamBound$C$syn..token..Add$GT$$GT$17h283d6fefb1c71cfaE', symObjAddr: 0x6D0, symBinAddr: 0xC4010, symSize: 0x200 }
  - { offsetInCU: 0x34C5, offset: 0x3EBB1E, size: 0x8, addend: 0x0, symName: '__ZN4core3ptr108drop_in_place$LT$syn..punctuated..Punctuated$LT$syn..expr..GenericMethodArgument$C$syn..token..Comma$GT$$GT$17h2aec9c03103ab694E', symObjAddr: 0x8D0, symBinAddr: 0xC4210, symSize: 0x150 }
  - { offsetInCU: 0x3A1E, offset: 0x3EC077, size: 0x8, addend: 0x0, symName: '__ZN4core3ptr34drop_in_place$LT$syn..lit..Lit$GT$17ha842b5e81e8582b3E', symObjAddr: 0xA20, symBinAddr: 0xC4360, symSize: 0x110 }
  - { offsetInCU: 0x3E90, offset: 0x3EC4E9, size: 0x8, addend: 0x0, symName: '__ZN4core3ptr34drop_in_place$LT$syn..pat..Pat$GT$17h0621b062377aebcbE', symObjAddr: 0xB30, symBinAddr: 0xC4470, symSize: 0x1050 }
  - { offsetInCU: 0x784F, offset: 0x3EFEA8, size: 0x8, addend: 0x0, symName: '__ZN4core3ptr34drop_in_place$LT$syn..ty..Type$GT$17h3d55b11c281dc967E', symObjAddr: 0x1B80, symBinAddr: 0xC54C0, symSize: 0x620 }
  - { offsetInCU: 0x9487, offset: 0x3F1AE0, size: 0x8, addend: 0x0, symName: '__ZN4core3ptr36drop_in_place$LT$syn..expr..Expr$GT$17h68b218bdcee4a3c7E', symObjAddr: 0x21A0, symBinAddr: 0xC5AE0, symSize: 0x31D0 }
  - { offsetInCU: 0x13A10, offset: 0x3FC069, size: 0x8, addend: 0x0, symName: '__ZN4core3ptr36drop_in_place$LT$syn..mac..Macro$GT$17h158bcec479486e24E', symObjAddr: 0x5370, symBinAddr: 0xC8CB0, symSize: 0xE0 }
  - { offsetInCU: 0x13E16, offset: 0x3FC46F, size: 0x8, addend: 0x0, symName: '__ZN4core3ptr36drop_in_place$LT$syn..path..Path$GT$17hdc92c6b0523379a3E', symObjAddr: 0x5450, symBinAddr: 0xC8D90, symSize: 0x230 }
  - { offsetInCU: 0x147AC, offset: 0x3FCE05, size: 0x8, addend: 0x0, symName: '__ZN4core3ptr37drop_in_place$LT$syn..stmt..Block$GT$17hfffa15f159ccade9E', symObjAddr: 0x5680, symBinAddr: 0xC8FC0, symSize: 0xD0 }
  - { offsetInCU: 0x14A83, offset: 0x3FD0DC, size: 0x8, addend: 0x0, symName: '__ZN4core3ptr38drop_in_place$LT$syn..expr..Member$GT$17h24b2f28a51f276afE', symObjAddr: 0x5750, symBinAddr: 0xC9090, symSize: 0x30 }
  - { offsetInCU: 0x14B7F, offset: 0x3FD1D8, size: 0x8, addend: 0x0, symName: '__ZN4core3ptr39drop_in_place$LT$proc_macro2..Ident$GT$17he0509ca0076c6db2E', symObjAddr: 0x5780, symBinAddr: 0xC90C0, symSize: 0x30 }
  - { offsetInCU: 0x14C5C, offset: 0x3FD2B5, size: 0x8, addend: 0x0, symName: '__ZN4core3ptr39drop_in_place$LT$syn..pat..PatTuple$GT$17ha1d19a764bcc1cb3E', symObjAddr: 0x57B0, symBinAddr: 0xC90F0, symSize: 0x100 }
  - { offsetInCU: 0x14F65, offset: 0x3FD5BE, size: 0x8, addend: 0x0, symName: '__ZN4core3ptr40drop_in_place$LT$syn..ty..ReturnType$GT$17h2d60777f70ee0d22E', symObjAddr: 0x58B0, symBinAddr: 0xC91F0, symSize: 0x50 }
  - { offsetInCU: 0x15132, offset: 0x3FD78B, size: 0x8, addend: 0x0, symName: '__ZN4core3ptr44drop_in_place$LT$syn..generics..Generics$GT$17h04fed1a77f85cbfaE', symObjAddr: 0x5900, symBinAddr: 0xC9240, symSize: 0xA0 }
  - { offsetInCU: 0x1539E, offset: 0x3FD9F7, size: 0x8, addend: 0x0, symName: '__ZN4core3ptr44drop_in_place$LT$syn..lifetime..Lifetime$GT$17he83b0b529a581d24E', symObjAddr: 0x59A0, symBinAddr: 0xC92E0, symSize: 0x30 }
  - { offsetInCU: 0x155D0, offset: 0x3FDC29, size: 0x8, addend: 0x0, symName: '__ZN4core3ptr45drop_in_place$LT$proc_macro2..TokenStream$GT$17h7e9a94df6c9afdc7E.llvm.11886446125083399923', symObjAddr: 0x59D0, symBinAddr: 0xC9310, symSize: 0x140 }
  - { offsetInCU: 0x15A2C, offset: 0x3FE085, size: 0x8, addend: 0x0, symName: '__ZN4core3ptr47drop_in_place$LT$syn..generics..LifetimeDef$GT$17h8d3cfa3ea57a860bE', symObjAddr: 0x5B10, symBinAddr: 0xC9450, symSize: 0x120 }
  - { offsetInCU: 0x15E87, offset: 0x3FE4E0, size: 0x8, addend: 0x0, symName: '__ZN4core3ptr47drop_in_place$LT$syn..path..GenericArgument$GT$17hc55a20af1acae48eE', symObjAddr: 0x5C30, symBinAddr: 0xC9570, symSize: 0x110 }
  - { offsetInCU: 0x161B5, offset: 0x3FE80E, size: 0x8, addend: 0x0, symName: '__ZN4core3ptr58drop_in_place$LT$alloc..vec..Vec$LT$syn..expr..Arm$GT$$GT$17hdd3822aa758753c7E', symObjAddr: 0x5D40, symBinAddr: 0xC9680, symSize: 0xD0 }
  - { offsetInCU: 0x16475, offset: 0x3FEACE, size: 0x8, addend: 0x0, symName: '__ZN4core3ptr59drop_in_place$LT$alloc..boxed..Box$LT$syn..pat..Pat$GT$$GT$17h48ec1dbe47a00c61E', symObjAddr: 0x5E10, symBinAddr: 0xC9750, symSize: 0x50 }
  - { offsetInCU: 0x165CE, offset: 0x3FEC27, size: 0x8, addend: 0x0, symName: '__ZN4core3ptr59drop_in_place$LT$alloc..boxed..Box$LT$syn..ty..Type$GT$$GT$17h454cab832bb38812E', symObjAddr: 0x5E60, symBinAddr: 0xC97A0, symSize: 0x50 }
  - { offsetInCU: 0x16727, offset: 0x3FED80, size: 0x8, addend: 0x0, symName: '__ZN4core3ptr61drop_in_place$LT$alloc..boxed..Box$LT$syn..expr..Expr$GT$$GT$17hbe6f5e1c721a6cd9E', symObjAddr: 0x5EB0, symBinAddr: 0xC97F0, symSize: 0x50 }
  - { offsetInCU: 0x16880, offset: 0x3FEED9, size: 0x8, addend: 0x0, symName: '__ZN4core3ptr61drop_in_place$LT$syn..path..ParenthesizedGenericArguments$GT$17h2d220a34adaf921bE', symObjAddr: 0x5F00, symBinAddr: 0xC9840, symSize: 0x170 }
  - { offsetInCU: 0x16E89, offset: 0x3FF4E2, size: 0x8, addend: 0x0, symName: '__ZN4core3ptr63drop_in_place$LT$alloc..boxed..Box$LT$syn..lit..LitRepr$GT$$GT$17h44c55dd7d5499a10E', symObjAddr: 0x6070, symBinAddr: 0xC99B0, symSize: 0x60 }
  - { offsetInCU: 0x17190, offset: 0x3FF7E9, size: 0x8, addend: 0x0, symName: '__ZN4core3ptr64drop_in_place$LT$alloc..boxed..Box$LT$syn..pat..FieldPat$GT$$GT$17h8a4c0395922411f9E', symObjAddr: 0x60D0, symBinAddr: 0xC9A10, symSize: 0x180 }
  - { offsetInCU: 0x178AD, offset: 0x3FFF06, size: 0x8, addend: 0x0, symName: '__ZN4core3ptr64drop_in_place$LT$alloc..boxed..Box$LT$syn..ty..BareFnArg$GT$$GT$17h145502f35dc7a34dE', symObjAddr: 0x6250, symBinAddr: 0xC9B90, symSize: 0x160 }
  - { offsetInCU: 0x17E43, offset: 0x40049C, size: 0x8, addend: 0x0, symName: '__ZN4core3ptr65drop_in_place$LT$alloc..vec..Vec$LT$proc_macro..TokenTree$GT$$GT$17h27434ef986fc0c8fE.llvm.11886446125083399923', symObjAddr: 0x63B0, symBinAddr: 0xC9CF0, symSize: 0x110 }
  - { offsetInCU: 0x1823B, offset: 0x400894, size: 0x8, addend: 0x0, symName: '__ZN4core3ptr65drop_in_place$LT$core..option..Option$LT$syn..expr..Label$GT$$GT$17hf88e6caa939fd4b3E', symObjAddr: 0x64C0, symBinAddr: 0xC9E00, symSize: 0x30 }
  - { offsetInCU: 0x18375, offset: 0x4009CE, size: 0x8, addend: 0x0, symName: '__ZN4core3ptr66drop_in_place$LT$core..option..Option$LT$syn..ty..Variadic$GT$$GT$17hd53494a084af7b6fE', symObjAddr: 0x64F0, symBinAddr: 0xC9E30, symSize: 0xF0 }
  - { offsetInCU: 0x1869F, offset: 0x400CF8, size: 0x8, addend: 0x0, symName: '__ZN4core3ptr67drop_in_place$LT$alloc..boxed..Box$LT$syn..expr..FieldValue$GT$$GT$17hee600943c39f373eE', symObjAddr: 0x65E0, symBinAddr: 0xC9F20, symSize: 0x160 }
  - { offsetInCU: 0x18C15, offset: 0x40126E, size: 0x8, addend: 0x0, symName: '__ZN4core3ptr72drop_in_place$LT$core..option..Option$LT$syn..lifetime..Lifetime$GT$$GT$17h496ffbcd02d279ceE', symObjAddr: 0x6740, symBinAddr: 0xCA080, symSize: 0x30 }
  - { offsetInCU: 0x18D30, offset: 0x401389, size: 0x8, addend: 0x0, symName: '__ZN4core3ptr75drop_in_place$LT$alloc..boxed..Box$LT$syn..generics..TypeParamBound$GT$$GT$17h0d539f38c26df380E', symObjAddr: 0x6770, symBinAddr: 0xCA0B0, symSize: 0x140 }
  - { offsetInCU: 0x19307, offset: 0x401960, size: 0x8, addend: 0x0, symName: '__ZN4core3ptr75drop_in_place$LT$core..option..Option$LT$syn..generics..WhereClause$GT$$GT$17h84be8bcb2f09b9d1E', symObjAddr: 0x68B0, symBinAddr: 0xCA1F0, symSize: 0xF0 }
  - { offsetInCU: 0x1965D, offset: 0x401CB6, size: 0x8, addend: 0x0, symName: '__ZN4core3ptr78drop_in_place$LT$alloc..boxed..Box$LT$syn..expr..GenericMethodArgument$GT$$GT$17h2e8ab754b2d35f4bE', symObjAddr: 0x69A0, symBinAddr: 0xCA2E0, symSize: 0x60 }
  - { offsetInCU: 0x1986E, offset: 0x401EC7, size: 0x8, addend: 0x0, symName: '__ZN4core3ptr78drop_in_place$LT$core..option..Option$LT$syn..generics..BoundLifetimes$GT$$GT$17he70d317fbad5b599E', symObjAddr: 0x6A00, symBinAddr: 0xCA340, symSize: 0xC0 }
  - { offsetInCU: 0x19CA4, offset: 0x4022FD, size: 0x8, addend: 0x0, symName: '__ZN4core3ptr86drop_in_place$LT$syn..punctuated..Punctuated$LT$syn..pat..Pat$C$syn..token..Or$GT$$GT$17h2004905335266fbeE', symObjAddr: 0x6AC0, symBinAddr: 0xCA400, symSize: 0x120 }
  - { offsetInCU: 0x1A11F, offset: 0x402778, size: 0x8, addend: 0x0, symName: '__ZN4core3ptr87drop_in_place$LT$core..option..Option$LT$alloc..boxed..Box$LT$syn..pat..Pat$GT$$GT$$GT$17h9151a9d5e0aa7e1eE', symObjAddr: 0x6BE0, symBinAddr: 0xCA520, symSize: 0x50 }
  - { offsetInCU: 0x1A28F, offset: 0x4028E8, size: 0x8, addend: 0x0, symName: '__ZN4core3ptr87drop_in_place$LT$core..option..Option$LT$alloc..boxed..Box$LT$syn..ty..Type$GT$$GT$$GT$17hd3cb46ad48d34655E', symObjAddr: 0x6C30, symBinAddr: 0xCA570, symSize: 0x50 }
  - { offsetInCU: 0x1A3FF, offset: 0x402A58, size: 0x8, addend: 0x0, symName: '__ZN4core3ptr89drop_in_place$LT$core..option..Option$LT$alloc..boxed..Box$LT$syn..expr..Expr$GT$$GT$$GT$17h9693feaa41001291E', symObjAddr: 0x6C80, symBinAddr: 0xCA5C0, symSize: 0x50 }
  - { offsetInCU: 0x1A5AD, offset: 0x402C06, size: 0x8, addend: 0x0, symName: '__ZN4core3ptr89drop_in_place$LT$syn..punctuated..Punctuated$LT$syn..pat..Pat$C$syn..token..Comma$GT$$GT$17hc735db3a40e860f2E', symObjAddr: 0x6CD0, symBinAddr: 0xCA610, symSize: 0x120 }
  - { offsetInCU: 0x1AA7D, offset: 0x4030D6, size: 0x8, addend: 0x0, symName: '__ZN4core3ptr91drop_in_place$LT$syn..punctuated..Punctuated$LT$syn..expr..Expr$C$syn..token..Comma$GT$$GT$17h4abaeb5cfb586772E', symObjAddr: 0x6DF0, symBinAddr: 0xCA730, symSize: 0x120 }
  - { offsetInCU: 0x1AF0B, offset: 0x403564, size: 0x8, addend: 0x0, symName: '__ZN4core3ptr94drop_in_place$LT$syn..punctuated..Punctuated$LT$syn..pat..FieldPat$C$syn..token..Comma$GT$$GT$17hf9927b8b52e25a50E', symObjAddr: 0x6F10, symBinAddr: 0xCA850, symSize: 0xF0 }
  - { offsetInCU: 0x1B20A, offset: 0x403863, size: 0x8, addend: 0x0, symName: '__ZN4core3ptr94drop_in_place$LT$syn..punctuated..Punctuated$LT$syn..ty..BareFnArg$C$syn..token..Comma$GT$$GT$17h577c8aa515f26074E', symObjAddr: 0x7000, symBinAddr: 0xCA940, symSize: 0xF0 }
  - { offsetInCU: 0x1B507, offset: 0x403B60, size: 0x8, addend: 0x0, symName: '__ZN4core3ptr96drop_in_place$LT$core..option..Option$LT$alloc..boxed..Box$LT$syn..path..PathSegment$GT$$GT$$GT$17hb35e105c29269971E', symObjAddr: 0x70F0, symBinAddr: 0xCAA30, symSize: 0x180 }
  - { offsetInCU: 0x1BBC4, offset: 0x40421D, size: 0x8, addend: 0x0, symName: '__ZN4core3ptr97drop_in_place$LT$syn..punctuated..Punctuated$LT$syn..expr..FieldValue$C$syn..token..Comma$GT$$GT$17h15366382fde2131eE', symObjAddr: 0x7270, symBinAddr: 0xCABB0, symSize: 0xF0 }
  - { offsetInCU: 0x1BF3D, offset: 0x404596, size: 0x8, addend: 0x0, symName: '__ZN4core3ptr97drop_in_place$LT$syn..punctuated..Punctuated$LT$syn..lifetime..Lifetime$C$syn..token..Add$GT$$GT$17hd50f0bf96210475aE', symObjAddr: 0x7360, symBinAddr: 0xCACA0, symSize: 0xD0 }
  - { offsetInCU: 0x1E7D8, offset: 0x406E31, size: 0x8, addend: 0x0, symName: '__ZN4core3ops8function5impls79_$LT$impl$u20$core..ops..function..FnMut$LT$A$GT$$u20$for$u20$$RF$mut$u20$F$GT$8call_mut17h3b6878fb31671415E', symObjAddr: 0x0, symBinAddr: 0xC3940, symSize: 0x200 }
  - { offsetInCU: 0x1EC28, offset: 0x407281, size: 0x8, addend: 0x0, symName: __ZN10derivative4hash6derive17h94a3608df19880ebE, symObjAddr: 0x7430, symBinAddr: 0xCAD70, symSize: 0xA50 }
  - { offsetInCU: 0x176B, offset: 0x413DF6, size: 0x8, addend: 0x0, symName: __ZN4core4iter8adapters11try_process17h6dd217adb5f9e88dE, symObjAddr: 0x1D0, symBinAddr: 0xCB7C0, symSize: 0x130 }
  - { offsetInCU: 0x1B87, offset: 0x414212, size: 0x8, addend: 0x0, symName: __ZN4core4iter8adapters11try_process17hac09490f0060c5adE, symObjAddr: 0x390, symBinAddr: 0xCB8F0, symSize: 0x124 }
  - { offsetInCU: 0xE25, offset: 0x41E44E, size: 0x8, addend: 0x0, symName: '__ZN4core3ptr39drop_in_place$LT$proc_macro2..Ident$GT$17he0509ca0076c6db2E', symObjAddr: 0x180, symBinAddr: 0xCBA80, symSize: 0x30 }
  - { offsetInCU: 0x150C, offset: 0x41EB35, size: 0x8, addend: 0x0, symName: __ZN4core3ops8function6FnOnce9call_once17hd5ab3a614e17c2bdE.llvm.10228135301617772972, symObjAddr: 0x120, symBinAddr: 0xCBA20, symSize: 0x60 }
  - { offsetInCU: 0x28D1, offset: 0x41FEFA, size: 0x8, addend: 0x0, symName: '__ZN9hashbrown3map28HashMap$LT$K$C$V$C$S$C$A$GT$6insert17haf65bb35ca6ab7d0E', symObjAddr: 0x280, symBinAddr: 0xCBAB0, symSize: 0x1F7 }
  - { offsetInCU: 0x1722, offset: 0x422668, size: 0x8, addend: 0x0, symName: '__ZN4core3ptr100drop_in_place$LT$core..option..Option$LT$alloc..boxed..Box$LT$syn..generics..LifetimeDef$GT$$GT$$GT$17h82b6930fbf453d3cE', symObjAddr: 0xA0, symBinAddr: 0xCBCB0, symSize: 0x150 }
  - { offsetInCU: 0x1C9E, offset: 0x422BE4, size: 0x8, addend: 0x0, symName: '__ZN4core3ptr100drop_in_place$LT$core..option..Option$LT$alloc..boxed..Box$LT$syn..path..GenericArgument$GT$$GT$$GT$17hdec1aac3c1c32b1aE', symObjAddr: 0x1F0, symBinAddr: 0xCBE00, symSize: 0x50 }
  - { offsetInCU: 0x1F44, offset: 0x422E8A, size: 0x8, addend: 0x0, symName: '__ZN4core3ptr103drop_in_place$LT$syn..punctuated..Punctuated$LT$syn..generics..TypeParamBound$C$syn..token..Add$GT$$GT$17h283d6fefb1c71cfaE', symObjAddr: 0x240, symBinAddr: 0xCBE50, symSize: 0x200 }
  - { offsetInCU: 0x2835, offset: 0x42377B, size: 0x8, addend: 0x0, symName: '__ZN4core3ptr108drop_in_place$LT$syn..punctuated..Punctuated$LT$syn..expr..GenericMethodArgument$C$syn..token..Comma$GT$$GT$17h2aec9c03103ab694E', symObjAddr: 0x440, symBinAddr: 0xCC050, symSize: 0x150 }
  - { offsetInCU: 0x2D8E, offset: 0x423CD4, size: 0x8, addend: 0x0, symName: '__ZN4core3ptr34drop_in_place$LT$syn..lit..Lit$GT$17ha842b5e81e8582b3E', symObjAddr: 0x590, symBinAddr: 0xCC1A0, symSize: 0x110 }
  - { offsetInCU: 0x3200, offset: 0x424146, size: 0x8, addend: 0x0, symName: '__ZN4core3ptr34drop_in_place$LT$syn..pat..Pat$GT$17h0621b062377aebcbE', symObjAddr: 0x6A0, symBinAddr: 0xCC2B0, symSize: 0x1050 }
  - { offsetInCU: 0x6BBF, offset: 0x427B05, size: 0x8, addend: 0x0, symName: '__ZN4core3ptr34drop_in_place$LT$syn..ty..Type$GT$17h3d55b11c281dc967E', symObjAddr: 0x16F0, symBinAddr: 0xCD300, symSize: 0x620 }
  - { offsetInCU: 0x87F7, offset: 0x42973D, size: 0x8, addend: 0x0, symName: '__ZN4core3ptr36drop_in_place$LT$syn..expr..Expr$GT$17h68b218bdcee4a3c7E', symObjAddr: 0x1D10, symBinAddr: 0xCD920, symSize: 0x31D0 }
  - { offsetInCU: 0x12D80, offset: 0x433CC6, size: 0x8, addend: 0x0, symName: '__ZN4core3ptr36drop_in_place$LT$syn..mac..Macro$GT$17h158bcec479486e24E', symObjAddr: 0x4EE0, symBinAddr: 0xD0AF0, symSize: 0xE0 }
  - { offsetInCU: 0x13186, offset: 0x4340CC, size: 0x8, addend: 0x0, symName: '__ZN4core3ptr36drop_in_place$LT$syn..path..Path$GT$17hdc92c6b0523379a3E.llvm.8436730799956523297', symObjAddr: 0x4FC0, symBinAddr: 0xD0BD0, symSize: 0x230 }
  - { offsetInCU: 0x13B1C, offset: 0x434A62, size: 0x8, addend: 0x0, symName: '__ZN4core3ptr37drop_in_place$LT$syn..stmt..Block$GT$17hfffa15f159ccade9E', symObjAddr: 0x51F0, symBinAddr: 0xD0E00, symSize: 0xD0 }
  - { offsetInCU: 0x13DF3, offset: 0x434D39, size: 0x8, addend: 0x0, symName: '__ZN4core3ptr38drop_in_place$LT$syn..expr..Member$GT$17h24b2f28a51f276afE', symObjAddr: 0x52C0, symBinAddr: 0xD0ED0, symSize: 0x30 }
  - { offsetInCU: 0x13EEF, offset: 0x434E35, size: 0x8, addend: 0x0, symName: '__ZN4core3ptr39drop_in_place$LT$proc_macro2..Ident$GT$17he0509ca0076c6db2E', symObjAddr: 0x52F0, symBinAddr: 0xD0F00, symSize: 0x30 }
  - { offsetInCU: 0x13FCC, offset: 0x434F12, size: 0x8, addend: 0x0, symName: '__ZN4core3ptr39drop_in_place$LT$syn..pat..PatTuple$GT$17ha1d19a764bcc1cb3E', symObjAddr: 0x5320, symBinAddr: 0xD0F30, symSize: 0x100 }
  - { offsetInCU: 0x142D5, offset: 0x43521B, size: 0x8, addend: 0x0, symName: '__ZN4core3ptr40drop_in_place$LT$syn..ty..ReturnType$GT$17h2d60777f70ee0d22E', symObjAddr: 0x5420, symBinAddr: 0xD1030, symSize: 0x50 }
  - { offsetInCU: 0x14445, offset: 0x43538B, size: 0x8, addend: 0x0, symName: '__ZN4core3ptr44drop_in_place$LT$syn..lifetime..Lifetime$GT$17he83b0b529a581d24E', symObjAddr: 0x5470, symBinAddr: 0xD1080, symSize: 0x30 }
  - { offsetInCU: 0x14677, offset: 0x4355BD, size: 0x8, addend: 0x0, symName: '__ZN4core3ptr45drop_in_place$LT$proc_macro2..TokenStream$GT$17h7e9a94df6c9afdc7E.llvm.8436730799956523297', symObjAddr: 0x54A0, symBinAddr: 0xD10B0, symSize: 0x140 }
  - { offsetInCU: 0x14B11, offset: 0x435A57, size: 0x8, addend: 0x0, symName: '__ZN4core3ptr47drop_in_place$LT$syn..path..GenericArgument$GT$17hc55a20af1acae48eE', symObjAddr: 0x55E0, symBinAddr: 0xD11F0, symSize: 0x110 }
  - { offsetInCU: 0x14E3F, offset: 0x435D85, size: 0x8, addend: 0x0, symName: '__ZN4core3ptr58drop_in_place$LT$alloc..vec..Vec$LT$syn..expr..Arm$GT$$GT$17hdd3822aa758753c7E', symObjAddr: 0x56F0, symBinAddr: 0xD1300, symSize: 0xD0 }
  - { offsetInCU: 0x150FF, offset: 0x436045, size: 0x8, addend: 0x0, symName: '__ZN4core3ptr59drop_in_place$LT$alloc..boxed..Box$LT$syn..pat..Pat$GT$$GT$17h48ec1dbe47a00c61E', symObjAddr: 0x57C0, symBinAddr: 0xD13D0, symSize: 0x50 }
  - { offsetInCU: 0x15258, offset: 0x43619E, size: 0x8, addend: 0x0, symName: '__ZN4core3ptr59drop_in_place$LT$alloc..boxed..Box$LT$syn..ty..Type$GT$$GT$17h454cab832bb38812E', symObjAddr: 0x5810, symBinAddr: 0xD1420, symSize: 0x50 }
  - { offsetInCU: 0x153B1, offset: 0x4362F7, size: 0x8, addend: 0x0, symName: '__ZN4core3ptr61drop_in_place$LT$alloc..boxed..Box$LT$syn..expr..Expr$GT$$GT$17hbe6f5e1c721a6cd9E', symObjAddr: 0x5860, symBinAddr: 0xD1470, symSize: 0x50 }
  - { offsetInCU: 0x1550A, offset: 0x436450, size: 0x8, addend: 0x0, symName: '__ZN4core3ptr61drop_in_place$LT$syn..path..ParenthesizedGenericArguments$GT$17h2d220a34adaf921bE', symObjAddr: 0x58B0, symBinAddr: 0xD14C0, symSize: 0x170 }
  - { offsetInCU: 0x15B13, offset: 0x436A59, size: 0x8, addend: 0x0, symName: '__ZN4core3ptr63drop_in_place$LT$alloc..boxed..Box$LT$syn..lit..LitRepr$GT$$GT$17h44c55dd7d5499a10E', symObjAddr: 0x5A20, symBinAddr: 0xD1630, symSize: 0x60 }
  - { offsetInCU: 0x15E1A, offset: 0x436D60, size: 0x8, addend: 0x0, symName: '__ZN4core3ptr64drop_in_place$LT$alloc..boxed..Box$LT$syn..pat..FieldPat$GT$$GT$17h8a4c0395922411f9E', symObjAddr: 0x5A80, symBinAddr: 0xD1690, symSize: 0x180 }
  - { offsetInCU: 0x16537, offset: 0x43747D, size: 0x8, addend: 0x0, symName: '__ZN4core3ptr64drop_in_place$LT$alloc..boxed..Box$LT$syn..ty..BareFnArg$GT$$GT$17h145502f35dc7a34dE', symObjAddr: 0x5C00, symBinAddr: 0xD1810, symSize: 0x160 }
  - { offsetInCU: 0x16ACD, offset: 0x437A13, size: 0x8, addend: 0x0, symName: '__ZN4core3ptr65drop_in_place$LT$alloc..vec..Vec$LT$proc_macro..TokenTree$GT$$GT$17h27434ef986fc0c8fE.llvm.8436730799956523297', symObjAddr: 0x5D60, symBinAddr: 0xD1970, symSize: 0x110 }
  - { offsetInCU: 0x16EC5, offset: 0x437E0B, size: 0x8, addend: 0x0, symName: '__ZN4core3ptr65drop_in_place$LT$core..option..Option$LT$syn..expr..Label$GT$$GT$17hf88e6caa939fd4b3E', symObjAddr: 0x5E70, symBinAddr: 0xD1A80, symSize: 0x30 }
  - { offsetInCU: 0x16FFF, offset: 0x437F45, size: 0x8, addend: 0x0, symName: '__ZN4core3ptr66drop_in_place$LT$core..option..Option$LT$syn..ty..Variadic$GT$$GT$17hd53494a084af7b6fE', symObjAddr: 0x5EA0, symBinAddr: 0xD1AB0, symSize: 0xF0 }
  - { offsetInCU: 0x17329, offset: 0x43826F, size: 0x8, addend: 0x0, symName: '__ZN4core3ptr67drop_in_place$LT$alloc..boxed..Box$LT$syn..expr..FieldValue$GT$$GT$17hee600943c39f373eE', symObjAddr: 0x5F90, symBinAddr: 0xD1BA0, symSize: 0x160 }
  - { offsetInCU: 0x1789F, offset: 0x4387E5, size: 0x8, addend: 0x0, symName: '__ZN4core3ptr72drop_in_place$LT$core..option..Option$LT$syn..lifetime..Lifetime$GT$$GT$17h496ffbcd02d279ceE', symObjAddr: 0x60F0, symBinAddr: 0xD1D00, symSize: 0x30 }
  - { offsetInCU: 0x179BA, offset: 0x438900, size: 0x8, addend: 0x0, symName: '__ZN4core3ptr75drop_in_place$LT$alloc..boxed..Box$LT$syn..generics..TypeParamBound$GT$$GT$17h0d539f38c26df380E', symObjAddr: 0x6120, symBinAddr: 0xD1D30, symSize: 0x140 }
  - { offsetInCU: 0x17F15, offset: 0x438E5B, size: 0x8, addend: 0x0, symName: '__ZN4core3ptr78drop_in_place$LT$alloc..boxed..Box$LT$syn..expr..GenericMethodArgument$GT$$GT$17h2e8ab754b2d35f4bE', symObjAddr: 0x6260, symBinAddr: 0xD1E70, symSize: 0x60 }
  - { offsetInCU: 0x18107, offset: 0x43904D, size: 0x8, addend: 0x0, symName: '__ZN4core3ptr78drop_in_place$LT$core..option..Option$LT$syn..generics..BoundLifetimes$GT$$GT$17he70d317fbad5b599E', symObjAddr: 0x62C0, symBinAddr: 0xD1ED0, symSize: 0x90 }
  - { offsetInCU: 0x183F5, offset: 0x43933B, size: 0x8, addend: 0x0, symName: '__ZN4core3ptr86drop_in_place$LT$syn..punctuated..Punctuated$LT$syn..pat..Pat$C$syn..token..Or$GT$$GT$17h2004905335266fbeE', symObjAddr: 0x6350, symBinAddr: 0xD1F60, symSize: 0x120 }
  - { offsetInCU: 0x18870, offset: 0x4397B6, size: 0x8, addend: 0x0, symName: '__ZN4core3ptr87drop_in_place$LT$core..option..Option$LT$alloc..boxed..Box$LT$syn..pat..Pat$GT$$GT$$GT$17h9151a9d5e0aa7e1eE', symObjAddr: 0x6470, symBinAddr: 0xD2080, symSize: 0x50 }
  - { offsetInCU: 0x189E0, offset: 0x439926, size: 0x8, addend: 0x0, symName: '__ZN4core3ptr87drop_in_place$LT$core..option..Option$LT$alloc..boxed..Box$LT$syn..ty..Type$GT$$GT$$GT$17hd3cb46ad48d34655E', symObjAddr: 0x64C0, symBinAddr: 0xD20D0, symSize: 0x50 }
  - { offsetInCU: 0x18B50, offset: 0x439A96, size: 0x8, addend: 0x0, symName: '__ZN4core3ptr89drop_in_place$LT$core..option..Option$LT$alloc..boxed..Box$LT$syn..expr..Expr$GT$$GT$$GT$17h9693feaa41001291E', symObjAddr: 0x6510, symBinAddr: 0xD2120, symSize: 0x50 }
  - { offsetInCU: 0x18CFE, offset: 0x439C44, size: 0x8, addend: 0x0, symName: '__ZN4core3ptr89drop_in_place$LT$syn..punctuated..Punctuated$LT$syn..pat..Pat$C$syn..token..Comma$GT$$GT$17hc735db3a40e860f2E', symObjAddr: 0x6560, symBinAddr: 0xD2170, symSize: 0x120 }
  - { offsetInCU: 0x191CE, offset: 0x43A114, size: 0x8, addend: 0x0, symName: '__ZN4core3ptr91drop_in_place$LT$syn..punctuated..Punctuated$LT$syn..expr..Expr$C$syn..token..Comma$GT$$GT$17h4abaeb5cfb586772E', symObjAddr: 0x6680, symBinAddr: 0xD2290, symSize: 0x120 }
  - { offsetInCU: 0x1965C, offset: 0x43A5A2, size: 0x8, addend: 0x0, symName: '__ZN4core3ptr94drop_in_place$LT$syn..punctuated..Punctuated$LT$syn..pat..FieldPat$C$syn..token..Comma$GT$$GT$17hf9927b8b52e25a50E', symObjAddr: 0x67A0, symBinAddr: 0xD23B0, symSize: 0xF0 }
  - { offsetInCU: 0x1995B, offset: 0x43A8A1, size: 0x8, addend: 0x0, symName: '__ZN4core3ptr94drop_in_place$LT$syn..punctuated..Punctuated$LT$syn..ty..BareFnArg$C$syn..token..Comma$GT$$GT$17h577c8aa515f26074E', symObjAddr: 0x6890, symBinAddr: 0xD24A0, symSize: 0xF0 }
  - { offsetInCU: 0x19C58, offset: 0x43AB9E, size: 0x8, addend: 0x0, symName: '__ZN4core3ptr96drop_in_place$LT$core..option..Option$LT$alloc..boxed..Box$LT$syn..path..PathSegment$GT$$GT$$GT$17hb35e105c29269971E', symObjAddr: 0x6980, symBinAddr: 0xD2590, symSize: 0x180 }
  - { offsetInCU: 0x1A315, offset: 0x43B25B, size: 0x8, addend: 0x0, symName: '__ZN4core3ptr97drop_in_place$LT$syn..punctuated..Punctuated$LT$syn..expr..FieldValue$C$syn..token..Comma$GT$$GT$17h15366382fde2131eE', symObjAddr: 0x6B00, symBinAddr: 0xD2710, symSize: 0xF0 }
  - { offsetInCU: 0x1A68E, offset: 0x43B5D4, size: 0x8, addend: 0x0, symName: '__ZN4core3ptr97drop_in_place$LT$syn..punctuated..Punctuated$LT$syn..lifetime..Lifetime$C$syn..token..Add$GT$$GT$17hd50f0bf96210475aE', symObjAddr: 0x6BF0, symBinAddr: 0xD2800, symSize: 0xD0 }
  - { offsetInCU: 0x1E, offset: 0x447425, size: 0x8, addend: 0x0, symName: '__ZN4core3ptr100drop_in_place$LT$core..option..Option$LT$alloc..boxed..Box$LT$syn..generics..LifetimeDef$GT$$GT$$GT$17h82b6930fbf453d3cE', symObjAddr: 0x0, symBinAddr: 0xD28D0, symSize: 0x150 }
  - { offsetInCU: 0x852, offset: 0x447C59, size: 0x8, addend: 0x0, symName: '__ZN4core3ptr100drop_in_place$LT$core..option..Option$LT$alloc..boxed..Box$LT$syn..generics..LifetimeDef$GT$$GT$$GT$17h82b6930fbf453d3cE', symObjAddr: 0x0, symBinAddr: 0xD28D0, symSize: 0x150 }
  - { offsetInCU: 0xDCE, offset: 0x4481D5, size: 0x8, addend: 0x0, symName: '__ZN4core3ptr100drop_in_place$LT$core..option..Option$LT$alloc..boxed..Box$LT$syn..path..GenericArgument$GT$$GT$$GT$17hdec1aac3c1c32b1aE', symObjAddr: 0x150, symBinAddr: 0xD2A20, symSize: 0x50 }
  - { offsetInCU: 0x1017, offset: 0x44841E, size: 0x8, addend: 0x0, symName: '__ZN4core3ptr103drop_in_place$LT$syn..punctuated..Punctuated$LT$syn..generics..TypeParamBound$C$syn..token..Add$GT$$GT$17h283d6fefb1c71cfaE', symObjAddr: 0x1A0, symBinAddr: 0xD2A70, symSize: 0x160 }
  - { offsetInCU: 0x1670, offset: 0x448A77, size: 0x8, addend: 0x0, symName: '__ZN4core3ptr108drop_in_place$LT$syn..punctuated..Punctuated$LT$syn..expr..GenericMethodArgument$C$syn..token..Comma$GT$$GT$17h2aec9c03103ab694E', symObjAddr: 0x300, symBinAddr: 0xD2BD0, symSize: 0x150 }
  - { offsetInCU: 0x1BC9, offset: 0x448FD0, size: 0x8, addend: 0x0, symName: '__ZN4core3ptr34drop_in_place$LT$syn..lit..Lit$GT$17ha842b5e81e8582b3E', symObjAddr: 0x450, symBinAddr: 0xD2D20, symSize: 0x110 }
  - { offsetInCU: 0x2098, offset: 0x44949F, size: 0x8, addend: 0x0, symName: '__ZN4core3ptr34drop_in_place$LT$syn..pat..Pat$GT$17h0621b062377aebcbE', symObjAddr: 0x560, symBinAddr: 0xD2E30, symSize: 0x1190 }
  - { offsetInCU: 0x5FB0, offset: 0x44D3B7, size: 0x8, addend: 0x0, symName: '__ZN4core3ptr34drop_in_place$LT$syn..ty..Type$GT$17h3d55b11c281dc967E', symObjAddr: 0x16F0, symBinAddr: 0xD3FC0, symSize: 0x580 }
  - { offsetInCU: 0x78C1, offset: 0x44ECC8, size: 0x8, addend: 0x0, symName: '__ZN4core3ptr36drop_in_place$LT$syn..expr..Expr$GT$17h68b218bdcee4a3c7E.llvm.3398145766579467214', symObjAddr: 0x1C70, symBinAddr: 0xD4540, symSize: 0x3290 }
  - { offsetInCU: 0x12152, offset: 0x459559, size: 0x8, addend: 0x0, symName: '__ZN4core3ptr36drop_in_place$LT$syn..mac..Macro$GT$17h158bcec479486e24E', symObjAddr: 0x4F00, symBinAddr: 0xD77D0, symSize: 0x40 }
  - { offsetInCU: 0x122A3, offset: 0x4596AA, size: 0x8, addend: 0x0, symName: '__ZN4core3ptr36drop_in_place$LT$syn..path..Path$GT$17hdc92c6b0523379a3E', symObjAddr: 0x4F40, symBinAddr: 0xD7810, symSize: 0x230 }
  - { offsetInCU: 0x12C39, offset: 0x45A040, size: 0x8, addend: 0x0, symName: '__ZN4core3ptr37drop_in_place$LT$syn..stmt..Block$GT$17hfffa15f159ccade9E', symObjAddr: 0x5170, symBinAddr: 0xD7A40, symSize: 0xD0 }
  - { offsetInCU: 0x12F10, offset: 0x45A317, size: 0x8, addend: 0x0, symName: '__ZN4core3ptr38drop_in_place$LT$syn..expr..Member$GT$17h24b2f28a51f276afE', symObjAddr: 0x5240, symBinAddr: 0xD7B10, symSize: 0x30 }
  - { offsetInCU: 0x1300C, offset: 0x45A413, size: 0x8, addend: 0x0, symName: '__ZN4core3ptr39drop_in_place$LT$proc_macro2..Ident$GT$17he0509ca0076c6db2E', symObjAddr: 0x5270, symBinAddr: 0xD7B40, symSize: 0x30 }
  - { offsetInCU: 0x130E9, offset: 0x45A4F0, size: 0x8, addend: 0x0, symName: '__ZN4core3ptr39drop_in_place$LT$syn..pat..PatTuple$GT$17ha1d19a764bcc1cb3E', symObjAddr: 0x52A0, symBinAddr: 0xD7B70, symSize: 0x100 }
  - { offsetInCU: 0x133F2, offset: 0x45A7F9, size: 0x8, addend: 0x0, symName: '__ZN4core3ptr40drop_in_place$LT$syn..ty..ReturnType$GT$17h2d60777f70ee0d22E', symObjAddr: 0x53A0, symBinAddr: 0xD7C70, symSize: 0x50 }
  - { offsetInCU: 0x13562, offset: 0x45A969, size: 0x8, addend: 0x0, symName: '__ZN4core3ptr44drop_in_place$LT$syn..lifetime..Lifetime$GT$17he83b0b529a581d24E', symObjAddr: 0x53F0, symBinAddr: 0xD7CC0, symSize: 0x30 }
  - { offsetInCU: 0x13794, offset: 0x45AB9B, size: 0x8, addend: 0x0, symName: '__ZN4core3ptr45drop_in_place$LT$proc_macro2..TokenStream$GT$17h7e9a94df6c9afdc7E.llvm.3398145766579467214', symObjAddr: 0x5420, symBinAddr: 0xD7CF0, symSize: 0x140 }
  - { offsetInCU: 0x13C2E, offset: 0x45B035, size: 0x8, addend: 0x0, symName: '__ZN4core3ptr47drop_in_place$LT$syn..path..GenericArgument$GT$17hc55a20af1acae48eE', symObjAddr: 0x5560, symBinAddr: 0xD7E30, symSize: 0x110 }
  - { offsetInCU: 0x13F49, offset: 0x45B350, size: 0x8, addend: 0x0, symName: '__ZN4core3ptr58drop_in_place$LT$alloc..vec..Vec$LT$syn..expr..Arm$GT$$GT$17hdd3822aa758753c7E', symObjAddr: 0x5670, symBinAddr: 0xD7F40, symSize: 0xD0 }
  - { offsetInCU: 0x14209, offset: 0x45B610, size: 0x8, addend: 0x0, symName: '__ZN4core3ptr59drop_in_place$LT$alloc..boxed..Box$LT$syn..pat..Pat$GT$$GT$17h48ec1dbe47a00c61E', symObjAddr: 0x5740, symBinAddr: 0xD8010, symSize: 0x50 }
  - { offsetInCU: 0x14362, offset: 0x45B769, size: 0x8, addend: 0x0, symName: '__ZN4core3ptr59drop_in_place$LT$alloc..boxed..Box$LT$syn..ty..Type$GT$$GT$17h454cab832bb38812E', symObjAddr: 0x5790, symBinAddr: 0xD8060, symSize: 0x50 }
  - { offsetInCU: 0x144BB, offset: 0x45B8C2, size: 0x8, addend: 0x0, symName: '__ZN4core3ptr61drop_in_place$LT$alloc..boxed..Box$LT$syn..expr..Expr$GT$$GT$17hbe6f5e1c721a6cd9E', symObjAddr: 0x57E0, symBinAddr: 0xD80B0, symSize: 0x50 }
  - { offsetInCU: 0x14690, offset: 0x45BA97, size: 0x8, addend: 0x0, symName: '__ZN4core3ptr61drop_in_place$LT$syn..path..ParenthesizedGenericArguments$GT$17h2d220a34adaf921bE', symObjAddr: 0x5830, symBinAddr: 0xD8100, symSize: 0x170 }
  - { offsetInCU: 0x14C86, offset: 0x45C08D, size: 0x8, addend: 0x0, symName: '__ZN4core3ptr63drop_in_place$LT$alloc..boxed..Box$LT$syn..lit..LitRepr$GT$$GT$17h44c55dd7d5499a10E', symObjAddr: 0x59A0, symBinAddr: 0xD8270, symSize: 0x60 }
  - { offsetInCU: 0x14F8D, offset: 0x45C394, size: 0x8, addend: 0x0, symName: '__ZN4core3ptr64drop_in_place$LT$alloc..boxed..Box$LT$syn..pat..FieldPat$GT$$GT$17h8a4c0395922411f9E', symObjAddr: 0x5A00, symBinAddr: 0xD82D0, symSize: 0x180 }
  - { offsetInCU: 0x156AA, offset: 0x45CAB1, size: 0x8, addend: 0x0, symName: '__ZN4core3ptr64drop_in_place$LT$alloc..boxed..Box$LT$syn..ty..BareFnArg$GT$$GT$17h145502f35dc7a34dE', symObjAddr: 0x5B80, symBinAddr: 0xD8450, symSize: 0x160 }
  - { offsetInCU: 0x15C40, offset: 0x45D047, size: 0x8, addend: 0x0, symName: '__ZN4core3ptr65drop_in_place$LT$alloc..vec..Vec$LT$proc_macro..TokenTree$GT$$GT$17h27434ef986fc0c8fE.llvm.3398145766579467214', symObjAddr: 0x5CE0, symBinAddr: 0xD85B0, symSize: 0x110 }
  - { offsetInCU: 0x16038, offset: 0x45D43F, size: 0x8, addend: 0x0, symName: '__ZN4core3ptr65drop_in_place$LT$core..option..Option$LT$syn..expr..Label$GT$$GT$17hf88e6caa939fd4b3E', symObjAddr: 0x5DF0, symBinAddr: 0xD86C0, symSize: 0x30 }
  - { offsetInCU: 0x16172, offset: 0x45D579, size: 0x8, addend: 0x0, symName: '__ZN4core3ptr66drop_in_place$LT$core..option..Option$LT$syn..ty..Variadic$GT$$GT$17hd53494a084af7b6fE', symObjAddr: 0x5E20, symBinAddr: 0xD86F0, symSize: 0xF0 }
  - { offsetInCU: 0x1649C, offset: 0x45D8A3, size: 0x8, addend: 0x0, symName: '__ZN4core3ptr67drop_in_place$LT$alloc..boxed..Box$LT$syn..expr..FieldValue$GT$$GT$17hee600943c39f373eE', symObjAddr: 0x5F10, symBinAddr: 0xD87E0, symSize: 0x160 }
  - { offsetInCU: 0x16A31, offset: 0x45DE38, size: 0x8, addend: 0x0, symName: '__ZN4core3ptr68drop_in_place$LT$alloc..boxed..Box$LT$syn..path..PathSegment$GT$$GT$17he2e359177565069bE', symObjAddr: 0x6070, symBinAddr: 0xD8940, symSize: 0x190 }
  - { offsetInCU: 0x1713B, offset: 0x45E542, size: 0x8, addend: 0x0, symName: '__ZN4core3ptr72drop_in_place$LT$alloc..boxed..Box$LT$syn..path..GenericArgument$GT$$GT$17h193e4d7337ac8d1fE', symObjAddr: 0x6200, symBinAddr: 0xD8AD0, symSize: 0x120 }
  - { offsetInCU: 0x175B3, offset: 0x45E9BA, size: 0x8, addend: 0x0, symName: '__ZN4core3ptr72drop_in_place$LT$core..option..Option$LT$syn..lifetime..Lifetime$GT$$GT$17h496ffbcd02d279ceE', symObjAddr: 0x6320, symBinAddr: 0xD8BF0, symSize: 0x30 }
  - { offsetInCU: 0x176CE, offset: 0x45EAD5, size: 0x8, addend: 0x0, symName: '__ZN4core3ptr75drop_in_place$LT$alloc..boxed..Box$LT$syn..generics..TypeParamBound$GT$$GT$17h0d539f38c26df380E', symObjAddr: 0x6350, symBinAddr: 0xD8C20, symSize: 0x90 }
  - { offsetInCU: 0x17991, offset: 0x45ED98, size: 0x8, addend: 0x0, symName: '__ZN4core3ptr78drop_in_place$LT$alloc..boxed..Box$LT$syn..expr..GenericMethodArgument$GT$$GT$17h2e8ab754b2d35f4bE', symObjAddr: 0x63E0, symBinAddr: 0xD8CB0, symSize: 0x60 }
  - { offsetInCU: 0x17B83, offset: 0x45EF8A, size: 0x8, addend: 0x0, symName: '__ZN4core3ptr78drop_in_place$LT$core..option..Option$LT$syn..generics..BoundLifetimes$GT$$GT$17he70d317fbad5b599E', symObjAddr: 0x6440, symBinAddr: 0xD8D10, symSize: 0x90 }
  - { offsetInCU: 0x17E71, offset: 0x45F278, size: 0x8, addend: 0x0, symName: '__ZN4core3ptr86drop_in_place$LT$syn..punctuated..Punctuated$LT$syn..pat..Pat$C$syn..token..Or$GT$$GT$17h2004905335266fbeE', symObjAddr: 0x64D0, symBinAddr: 0xD8DA0, symSize: 0x120 }
  - { offsetInCU: 0x182EC, offset: 0x45F6F3, size: 0x8, addend: 0x0, symName: '__ZN4core3ptr87drop_in_place$LT$core..option..Option$LT$alloc..boxed..Box$LT$syn..pat..Pat$GT$$GT$$GT$17h9151a9d5e0aa7e1eE', symObjAddr: 0x65F0, symBinAddr: 0xD8EC0, symSize: 0x50 }
  - { offsetInCU: 0x1845C, offset: 0x45F863, size: 0x8, addend: 0x0, symName: '__ZN4core3ptr87drop_in_place$LT$core..option..Option$LT$alloc..boxed..Box$LT$syn..ty..Type$GT$$GT$$GT$17hd3cb46ad48d34655E', symObjAddr: 0x6640, symBinAddr: 0xD8F10, symSize: 0x50 }
  - { offsetInCU: 0x185CC, offset: 0x45F9D3, size: 0x8, addend: 0x0, symName: '__ZN4core3ptr89drop_in_place$LT$core..option..Option$LT$alloc..boxed..Box$LT$syn..expr..Expr$GT$$GT$$GT$17h9693feaa41001291E', symObjAddr: 0x6690, symBinAddr: 0xD8F60, symSize: 0x50 }
  - { offsetInCU: 0x1877A, offset: 0x45FB81, size: 0x8, addend: 0x0, symName: '__ZN4core3ptr89drop_in_place$LT$syn..punctuated..Punctuated$LT$syn..pat..Pat$C$syn..token..Comma$GT$$GT$17hc735db3a40e860f2E', symObjAddr: 0x66E0, symBinAddr: 0xD8FB0, symSize: 0x120 }
  - { offsetInCU: 0x18C0C, offset: 0x460013, size: 0x8, addend: 0x0, symName: '__ZN4core3ptr89drop_in_place$LT$syn..punctuated..Punctuated$LT$syn..ty..Type$C$syn..token..Comma$GT$$GT$17he63552f348a6dc51E', symObjAddr: 0x6800, symBinAddr: 0xD90D0, symSize: 0x120 }
  - { offsetInCU: 0x190C5, offset: 0x4604CC, size: 0x8, addend: 0x0, symName: '__ZN4core3ptr91drop_in_place$LT$syn..punctuated..Punctuated$LT$syn..expr..Expr$C$syn..token..Comma$GT$$GT$17h4abaeb5cfb586772E', symObjAddr: 0x6920, symBinAddr: 0xD91F0, symSize: 0x120 }
  - { offsetInCU: 0x19553, offset: 0x46095A, size: 0x8, addend: 0x0, symName: '__ZN4core3ptr94drop_in_place$LT$syn..punctuated..Punctuated$LT$syn..pat..FieldPat$C$syn..token..Comma$GT$$GT$17hf9927b8b52e25a50E', symObjAddr: 0x6A40, symBinAddr: 0xD9310, symSize: 0xF0 }
  - { offsetInCU: 0x19852, offset: 0x460C59, size: 0x8, addend: 0x0, symName: '__ZN4core3ptr94drop_in_place$LT$syn..punctuated..Punctuated$LT$syn..ty..BareFnArg$C$syn..token..Comma$GT$$GT$17h577c8aa515f26074E', symObjAddr: 0x6B30, symBinAddr: 0xD9400, symSize: 0xF0 }
  - { offsetInCU: 0x19B4F, offset: 0x460F56, size: 0x8, addend: 0x0, symName: '__ZN4core3ptr96drop_in_place$LT$core..option..Option$LT$alloc..boxed..Box$LT$syn..path..PathSegment$GT$$GT$$GT$17hb35e105c29269971E', symObjAddr: 0x6C20, symBinAddr: 0xD94F0, symSize: 0x180 }
  - { offsetInCU: 0x1A20C, offset: 0x461613, size: 0x8, addend: 0x0, symName: '__ZN4core3ptr97drop_in_place$LT$syn..punctuated..Punctuated$LT$syn..expr..FieldValue$C$syn..token..Comma$GT$$GT$17h15366382fde2131eE', symObjAddr: 0x6DA0, symBinAddr: 0xD9670, symSize: 0xF0 }
  - { offsetInCU: 0x1A585, offset: 0x46198C, size: 0x8, addend: 0x0, symName: '__ZN4core3ptr97drop_in_place$LT$syn..punctuated..Punctuated$LT$syn..lifetime..Lifetime$C$syn..token..Add$GT$$GT$17hd50f0bf96210475aE', symObjAddr: 0x6E90, symBinAddr: 0xD9760, symSize: 0xD0 }
  - { offsetInCU: 0x1A9F9, offset: 0x461E00, size: 0x8, addend: 0x0, symName: '__ZN4core3ptr99drop_in_place$LT$syn..punctuated..Punctuated$LT$syn..path..PathSegment$C$syn..token..Colon2$GT$$GT$17h603ba227c074f4bfE', symObjAddr: 0x6F60, symBinAddr: 0xD9830, symSize: 0x250 }
  - { offsetInCU: 0x1E, offset: 0x46EEA7, size: 0x8, addend: 0x0, symName: '__ZN44_$LT$$RF$T$u20$as$u20$core..fmt..Display$GT$3fmt17h101158eff37e737eE', symObjAddr: 0x0, symBinAddr: 0xD9A80, symSize: 0x10 }
  - { offsetInCU: 0x35, offset: 0x46EEBE, size: 0x8, addend: 0x0, symName: _anon.dfd9151ce40d0fa3bc6666efaa20cbb9.0.llvm.3373734424702022099, symObjAddr: 0x5A0, symBinAddr: 0x310BE0, symSize: 0x0 }
  - { offsetInCU: 0x1A3, offset: 0x46F02C, size: 0x8, addend: 0x0, symName: '__ZN58_$LT$alloc..string..String$u20$as$u20$core..fmt..Write$GT$10write_char17h04bc467bd68a934bE.llvm.3373734424702022099', symObjAddr: 0x160, symBinAddr: 0xD9BD0, symSize: 0x140 }
  - { offsetInCU: 0x5A8, offset: 0x46F431, size: 0x8, addend: 0x0, symName: '__ZN58_$LT$alloc..string..String$u20$as$u20$core..fmt..Write$GT$9write_str17h46a93205c3443fbaE.llvm.3373734424702022099', symObjAddr: 0x2A0, symBinAddr: 0xD9D10, symSize: 0x60 }
  - { offsetInCU: 0xC6F, offset: 0x46FAF8, size: 0x8, addend: 0x0, symName: '__ZN4core3ptr42drop_in_place$LT$alloc..string..String$GT$17h073d01a47536ee6fE.llvm.3373734424702022099', symObjAddr: 0x10, symBinAddr: 0xD9A90, symSize: 0x20 }
  - { offsetInCU: 0xF12, offset: 0x46FD9B, size: 0x8, addend: 0x0, symName: '__ZN44_$LT$$RF$T$u20$as$u20$core..fmt..Display$GT$3fmt17h101158eff37e737eE', symObjAddr: 0x0, symBinAddr: 0xD9A80, symSize: 0x10 }
  - { offsetInCU: 0xF5F, offset: 0x46FDE8, size: 0x8, addend: 0x0, symName: '__ZN53_$LT$core..fmt..Error$u20$as$u20$core..fmt..Debug$GT$3fmt17h03dc662ab152f3aeE.llvm.3373734424702022099', symObjAddr: 0x40, symBinAddr: 0xD9AB0, symSize: 0x20 }
  - { offsetInCU: 0x145D, offset: 0x4702E6, size: 0x8, addend: 0x0, symName: '__ZN71_$LT$core..hash..sip..Hasher$LT$S$GT$$u20$as$u20$core..hash..Hasher$GT$5write17h0f0ed47000ce7a3cE.llvm.3373734424702022099', symObjAddr: 0x390, symBinAddr: 0xD9D70, symSize: 0x1E0 }
  - { offsetInCU: 0x2082, offset: 0x470F0B, size: 0x8, addend: 0x0, symName: _anon.dfd9151ce40d0fa3bc6666efaa20cbb9.4.llvm.3373734424702022099, symObjAddr: 0x5E8, symBinAddr: 0x310C28, symSize: 0x0 }
  - { offsetInCU: 0x21D5, offset: 0x47105E, size: 0x8, addend: 0x0, symName: '__ZN55_$LT$proc_macro2..Ident$u20$as$u20$core..hash..Hash$GT$4hash17h458d4f4f03887592E', symObjAddr: 0x60, symBinAddr: 0xD9AD0, symSize: 0x100 }
  - { offsetInCU: 0x1E, offset: 0x471BEF, size: 0x8, addend: 0x0, symName: '__ZN4core3ptr73drop_in_place$LT$core..cell..UnsafeCell$LT$syn..parse..Unexpected$GT$$GT$17hb6ebc859086c76e0E.llvm.3788120577680755454', symObjAddr: 0x0, symBinAddr: 0xD9F50, symSize: 0x50 }
  - { offsetInCU: 0xB7D, offset: 0x47274E, size: 0x8, addend: 0x0, symName: '__ZN4core3ptr73drop_in_place$LT$core..cell..UnsafeCell$LT$syn..parse..Unexpected$GT$$GT$17hb6ebc859086c76e0E.llvm.3788120577680755454', symObjAddr: 0x0, symBinAddr: 0xD9F50, symSize: 0x50 }
  - { offsetInCU: 0x171C, offset: 0x4732ED, size: 0x8, addend: 0x0, symName: '__ZN68_$LT$alloc..rc..Rc$LT$T$C$A$GT$$u20$as$u20$core..ops..drop..Drop$GT$4drop17h36845b7040a2e82eE', symObjAddr: 0x100, symBinAddr: 0xD9FA0, symSize: 0x40 }
  - { offsetInCU: 0x1990, offset: 0x473561, size: 0x8, addend: 0x0, symName: '__ZN68_$LT$alloc..rc..Rc$LT$T$C$A$GT$$u20$as$u20$core..ops..drop..Drop$GT$4drop17heb25056fea56791bE', symObjAddr: 0x140, symBinAddr: 0xD9FE0, symSize: 0xE0 }
  - { offsetInCU: 0x2149, offset: 0x473D1A, size: 0x8, addend: 0x0, symName: '__ZN80_$LT$alloc..rc..UniqueRcUninit$LT$T$C$A$GT$$u20$as$u20$core..ops..drop..Drop$GT$4drop17h21c23883182156eeE', symObjAddr: 0x220, symBinAddr: 0xDA0C0, symSize: 0x4F }
  - { offsetInCU: 0x7AF, offset: 0x474F1B, size: 0x8, addend: 0x0, symName: '__ZN68_$LT$$RF$str$u20$as$u20$proc_macro..bridge..rpc..Encode$LT$S$GT$$GT$6encode17h0cb4faa88bb430f1E', symObjAddr: 0x80, symBinAddr: 0xDA110, symSize: 0x230 }
  - { offsetInCU: 0x1E, offset: 0x475578, size: 0x8, addend: 0x0, symName: '__ZN120_$LT$proc_macro2..fallback..TokenStream$u20$as$u20$core..iter..traits..collect..Extend$LT$proc_macro2..TokenTree$GT$$GT$6extend17h7c73d9704ddbea4cE', symObjAddr: 0x0, symBinAddr: 0xDA340, symSize: 0x280 }
  - { offsetInCU: 0x9AC, offset: 0x475F06, size: 0x8, addend: 0x0, symName: '__ZN120_$LT$proc_macro2..fallback..TokenStream$u20$as$u20$core..iter..traits..collect..Extend$LT$proc_macro2..TokenTree$GT$$GT$6extend17h7c73d9704ddbea4cE', symObjAddr: 0x0, symBinAddr: 0xDA340, symSize: 0x280 }
  - { offsetInCU: 0x1B83, offset: 0x4770DD, size: 0x8, addend: 0x0, symName: '__ZN4core3ptr45drop_in_place$LT$proc_macro2..TokenStream$GT$17h7e9a94df6c9afdc7E', symObjAddr: 0x280, symBinAddr: 0xDA5C0, symSize: 0x140 }
  - { offsetInCU: 0x1FDF, offset: 0x477539, size: 0x8, addend: 0x0, symName: '__ZN4core3ptr56drop_in_place$LT$proc_macro2..token_stream..IntoIter$GT$17h65ca94a286643725E', symObjAddr: 0x3C0, symBinAddr: 0xDA700, symSize: 0x20 }
  - { offsetInCU: 0x208F, offset: 0x4775E9, size: 0x8, addend: 0x0, symName: '__ZN4core3ptr65drop_in_place$LT$alloc..vec..Vec$LT$proc_macro..TokenTree$GT$$GT$17h27434ef986fc0c8fE', symObjAddr: 0x3E0, symBinAddr: 0xDA720, symSize: 0x110 }
  - { offsetInCU: 0xC1E, offset: 0x479F0E, size: 0x8, addend: 0x0, symName: __ZN10derivative3ast15struct_from_ast17hf69061106aa97b83E, symObjAddr: 0x1030, symBinAddr: 0xDB680, symSize: 0x1E5 }
  - { offsetInCU: 0x23D9, offset: 0x47B6C9, size: 0x8, addend: 0x0, symName: '__ZN4core3ptr38drop_in_place$LT$syn..error..Error$GT$17h3aa27a792d2ab4d2E', symObjAddr: 0x20, symBinAddr: 0xDA830, symSize: 0x80 }
  - { offsetInCU: 0x2702, offset: 0x47B9F2, size: 0x8, addend: 0x0, symName: '__ZN4core3ptr42drop_in_place$LT$derivative..ast..Body$GT$17hf36b7f23ef58f03fE', symObjAddr: 0xA0, symBinAddr: 0xDA8B0, symSize: 0x150 }
  - { offsetInCU: 0x2E58, offset: 0x47C148, size: 0x8, addend: 0x0, symName: '__ZN4core3ptr44drop_in_place$LT$derivative..attr..Input$GT$17h2e78d5bbabc2a494E', symObjAddr: 0x1F0, symBinAddr: 0xDAA00, symSize: 0x680 }
  - { offsetInCU: 0x4909, offset: 0x47DBF9, size: 0x8, addend: 0x0, symName: '__ZN4core3ptr74drop_in_place$LT$core..option..Option$LT$derivative..attr..InputEq$GT$$GT$17h5c6528a7271c33f0E', symObjAddr: 0x870, symBinAddr: 0xDB080, symSize: 0xD0 }
  - { offsetInCU: 0x4BE3, offset: 0x47DED3, size: 0x8, addend: 0x0, symName: '__ZN4core3ptr75drop_in_place$LT$core..option..Option$LT$derivative..attr..InputOrd$GT$$GT$17h65b3c0526b6be967E', symObjAddr: 0x940, symBinAddr: 0xDB150, symSize: 0xD0 }
  - { offsetInCU: 0xE9DD, offset: 0x487CCD, size: 0x8, addend: 0x0, symName: __ZN10derivative3ast5Input8from_ast17hf436930a97569f83E, symObjAddr: 0xA10, symBinAddr: 0xDB220, symSize: 0x460 }
  - { offsetInCU: 0x1E, offset: 0x489C42, size: 0x8, addend: 0x0, symName: __ZN3syn5error5Error11new_spanned17ha283711290099428E, symObjAddr: 0x0, symBinAddr: 0xDB870, symSize: 0x180 }
  - { offsetInCU: 0x35, offset: 0x489C59, size: 0x8, addend: 0x0, symName: _anon.8e43a218859b6c07bdf58a578ca0313e.0.llvm.3314049561883947312, symObjAddr: 0x750, symBinAddr: 0x310C90, symSize: 0x0 }
  - { offsetInCU: 0x156, offset: 0x489D7A, size: 0x8, addend: 0x0, symName: '__ZN58_$LT$alloc..string..String$u20$as$u20$core..fmt..Write$GT$10write_char17h04bc467bd68a934bE.llvm.3314049561883947312', symObjAddr: 0x500, symBinAddr: 0xDBD70, symSize: 0x140 }
  - { offsetInCU: 0x55C, offset: 0x48A180, size: 0x8, addend: 0x0, symName: '__ZN58_$LT$alloc..string..String$u20$as$u20$core..fmt..Write$GT$9write_str17h46a93205c3443fbaE.llvm.3314049561883947312', symObjAddr: 0x640, symBinAddr: 0xDBEB0, symSize: 0x5B }
  - { offsetInCU: 0xC3C, offset: 0x48A860, size: 0x8, addend: 0x0, symName: '__ZN4core3ptr42drop_in_place$LT$alloc..string..String$GT$17h073d01a47536ee6fE.llvm.3314049561883947312', symObjAddr: 0x270, symBinAddr: 0xDBAE0, symSize: 0x20 }
  - { offsetInCU: 0xE7A, offset: 0x48AA9E, size: 0x8, addend: 0x0, symName: '__ZN4core3ptr45drop_in_place$LT$proc_macro2..TokenStream$GT$17h7e9a94df6c9afdc7E.llvm.3314049561883947312', symObjAddr: 0x290, symBinAddr: 0xDBB00, symSize: 0x140 }
  - { offsetInCU: 0x12D6, offset: 0x48AEFA, size: 0x8, addend: 0x0, symName: '__ZN4core3ptr65drop_in_place$LT$alloc..vec..Vec$LT$proc_macro..TokenTree$GT$$GT$17h27434ef986fc0c8fE.llvm.3314049561883947312', symObjAddr: 0x3D0, symBinAddr: 0xDBC40, symSize: 0x110 }
  - { offsetInCU: 0x1820, offset: 0x48B444, size: 0x8, addend: 0x0, symName: '__ZN53_$LT$core..fmt..Error$u20$as$u20$core..fmt..Debug$GT$3fmt17h03dc662ab152f3aeE.llvm.3314049561883947312', symObjAddr: 0x4E0, symBinAddr: 0xDBD50, symSize: 0x20 }
  - { offsetInCU: 0x1B3F, offset: 0x48B763, size: 0x8, addend: 0x0, symName: _anon.8e43a218859b6c07bdf58a578ca0313e.4.llvm.3314049561883947312, symObjAddr: 0x798, symBinAddr: 0x310CD8, symSize: 0x0 }
  - { offsetInCU: 0x1DFF, offset: 0x48BA23, size: 0x8, addend: 0x0, symName: __ZN3syn5error5Error11new_spanned17ha283711290099428E, symObjAddr: 0x0, symBinAddr: 0xDB870, symSize: 0x180 }
  - { offsetInCU: 0x206A, offset: 0x48BC8E, size: 0x8, addend: 0x0, symName: __ZN3syn5error5Error3new17h6f1cb1fc94b887fcE, symObjAddr: 0x180, symBinAddr: 0xDB9F0, symSize: 0xF0 }
  - { offsetInCU: 0x1E, offset: 0x495804, size: 0x8, addend: 0x0, symName: __ZN4core3fmt5Write9write_fmt17hdfd23684476312a4E, symObjAddr: 0x0, symBinAddr: 0xDBF10, symSize: 0x20 }
  - { offsetInCU: 0x98, offset: 0x49587E, size: 0x8, addend: 0x0, symName: '__ZN58_$LT$alloc..string..String$u20$as$u20$core..fmt..Write$GT$10write_char17h04bc467bd68a934bE', symObjAddr: 0x40, symBinAddr: 0xDBF50, symSize: 0x140 }
  - { offsetInCU: 0x49D, offset: 0x495C83, size: 0x8, addend: 0x0, symName: '__ZN58_$LT$alloc..string..String$u20$as$u20$core..fmt..Write$GT$9write_str17h46a93205c3443fbaE', symObjAddr: 0x180, symBinAddr: 0xDC090, symSize: 0x5B }
  - { offsetInCU: 0xAC1, offset: 0x4962A7, size: 0x8, addend: 0x0, symName: '__ZN4core3ptr42drop_in_place$LT$alloc..string..String$GT$17h073d01a47536ee6fE', symObjAddr: 0x20, symBinAddr: 0xDBF30, symSize: 0x20 }
  - { offsetInCU: 0xE54, offset: 0x49663A, size: 0x8, addend: 0x0, symName: __ZN4core3fmt5Write9write_fmt17hdfd23684476312a4E, symObjAddr: 0x0, symBinAddr: 0xDBF10, symSize: 0x20 }
  - { offsetInCU: 0x1E, offset: 0x4970EE, size: 0x8, addend: 0x0, symName: __ZN4core4hash11BuildHasher8hash_one17hf5fd4a0c7d31a8c8E, symObjAddr: 0x0, symBinAddr: 0xDC0F0, symSize: 0x143 }
  - { offsetInCU: 0x241, offset: 0x497311, size: 0x8, addend: 0x0, symName: __ZN4core4hash11BuildHasher8hash_one17hf5fd4a0c7d31a8c8E, symObjAddr: 0x0, symBinAddr: 0xDC0F0, symSize: 0x143 }
  - { offsetInCU: 0x1E, offset: 0x49833E, size: 0x8, addend: 0x0, symName: __ZN3syn3lit6LitStr10parse_with17h8de5a0449dc2e232E, symObjAddr: 0x0, symBinAddr: 0xDC240, symSize: 0x140 }
  - { offsetInCU: 0x2534, offset: 0x49A854, size: 0x8, addend: 0x0, symName: '__ZN4core3ptr45drop_in_place$LT$proc_macro2..TokenStream$GT$17h7e9a94df6c9afdc7E.llvm.15851436531940408050', symObjAddr: 0x3E0, symBinAddr: 0xDC600, symSize: 0x140 }
  - { offsetInCU: 0x2990, offset: 0x49ACB0, size: 0x8, addend: 0x0, symName: '__ZN4core3ptr65drop_in_place$LT$alloc..vec..Vec$LT$proc_macro..TokenTree$GT$$GT$17h27434ef986fc0c8fE.llvm.15851436531940408050', symObjAddr: 0x520, symBinAddr: 0xDC740, symSize: 0x110 }
  - { offsetInCU: 0xA891, offset: 0x4A2BB1, size: 0x8, addend: 0x0, symName: __ZN3syn3lit6LitStr10parse_with17h8de5a0449dc2e232E, symObjAddr: 0x0, symBinAddr: 0xDC240, symSize: 0x140 }
  - { offsetInCU: 0xAEF7, offset: 0x4A3217, size: 0x8, addend: 0x0, symName: __ZN3syn3lit6LitStr10parse_with17h96dcff07717879a8E, symObjAddr: 0x140, symBinAddr: 0xDC380, symSize: 0x140 }
  - { offsetInCU: 0xB55D, offset: 0x4A387D, size: 0x8, addend: 0x0, symName: __ZN3syn3lit6LitStr10parse_with17ha2d421062465ee11E, symObjAddr: 0x280, symBinAddr: 0xDC4C0, symSize: 0x140 }
  - { offsetInCU: 0x333, offset: 0x4A45C3, size: 0x8, addend: 0x0, symName: __ZN10proc_macro6bridge6client10run_client17h14029dc1ada85e06E, symObjAddr: 0x190, symBinAddr: 0xDC850, symSize: 0x2DB }
  - { offsetInCU: 0x1E, offset: 0x4A5EBC, size: 0x8, addend: 0x0, symName: __ZN3std9panicking11begin_panic17hd2ff20237dafac80E, symObjAddr: 0x0, symBinAddr: 0x28D450, symSize: 0x20 }
  - { offsetInCU: 0x7A8, offset: 0x4A6646, size: 0x8, addend: 0x0, symName: __ZN3std9panicking11begin_panic17hd2ff20237dafac80E, symObjAddr: 0x0, symBinAddr: 0x28D450, symSize: 0x20 }
  - { offsetInCU: 0x804, offset: 0x4A66A2, size: 0x8, addend: 0x0, symName: '__ZN84_$LT$std..panicking..begin_panic..Payload$LT$A$GT$$u20$as$u20$core..fmt..Display$GT$3fmt17hb6578723644460b1E', symObjAddr: 0x20, symBinAddr: 0xDCB30, symSize: 0x40 }
  - { offsetInCU: 0x872, offset: 0x4A6710, size: 0x8, addend: 0x0, symName: '__ZN91_$LT$std..panicking..begin_panic..Payload$LT$A$GT$$u20$as$u20$core..panic..PanicPayload$GT$3get17h969f2c41fcb8db4bE', symObjAddr: 0x60, symBinAddr: 0xDCB70, symSize: 0x20 }
  - { offsetInCU: 0x8AA, offset: 0x4A6748, size: 0x8, addend: 0x0, symName: '__ZN91_$LT$std..panicking..begin_panic..Payload$LT$A$GT$$u20$as$u20$core..panic..PanicPayload$GT$8take_box17h1e169abf9c495e97E', symObjAddr: 0x80, symBinAddr: 0xDCB90, symSize: 0x5F }
  - { offsetInCU: 0x1E, offset: 0x4A6C9A, size: 0x8, addend: 0x0, symName: '__ZN115_$LT$proc_macro2..imp..TokenStream$u20$as$u20$core..iter..traits..collect..Extend$LT$proc_macro2..TokenTree$GT$$GT$6extend17ha6024d6bb52dea14E', symObjAddr: 0x0, symBinAddr: 0xDCBF0, symSize: 0x110 }
  - { offsetInCU: 0x78B, offset: 0x4A7407, size: 0x8, addend: 0x0, symName: '__ZN115_$LT$proc_macro2..imp..TokenStream$u20$as$u20$core..iter..traits..collect..Extend$LT$proc_macro2..TokenTree$GT$$GT$6extend17ha6024d6bb52dea14E', symObjAddr: 0x0, symBinAddr: 0xDCBF0, symSize: 0x110 }
  - { offsetInCU: 0x1672, offset: 0x4A82EE, size: 0x8, addend: 0x0, symName: '__ZN4core3ptr56drop_in_place$LT$proc_macro2..token_stream..IntoIter$GT$17h65ca94a286643725E.llvm.14736279267374294280', symObjAddr: 0x130, symBinAddr: 0xDCD00, symSize: 0x20 }
  - { offsetInCU: 0x1E, offset: 0x4A86B4, size: 0x8, addend: 0x0, symName: '__ZN10proc_macro6bridge104_$LT$impl$u20$proc_macro..bridge..rpc..Encode$LT$S$GT$$u20$for$u20$core..result..Result$LT$T$C$E$GT$$GT$6encode17h28afc1b151d747b0E', symObjAddr: 0x0, symBinAddr: 0xDCD20, symSize: 0x280 }
  - { offsetInCU: 0x170, offset: 0x4A8806, size: 0x8, addend: 0x0, symName: '__ZN10proc_macro6bridge104_$LT$impl$u20$proc_macro..bridge..rpc..Encode$LT$S$GT$$u20$for$u20$core..result..Result$LT$T$C$E$GT$$GT$6encode17h28afc1b151d747b0E', symObjAddr: 0x0, symBinAddr: 0xDCD20, symSize: 0x280 }
  - { offsetInCU: 0x4FD, offset: 0x4A8B93, size: 0x8, addend: 0x0, symName: '__ZN10proc_macro6bridge104_$LT$impl$u20$proc_macro..bridge..rpc..Encode$LT$S$GT$$u20$for$u20$core..result..Result$LT$T$C$E$GT$$GT$6encode17ha5eb27d29e00444cE', symObjAddr: 0x280, symBinAddr: 0xDCFA0, symSize: 0x300 }
  - { offsetInCU: 0x1E, offset: 0x4A9936, size: 0x8, addend: 0x0, symName: '__ZN10proc_macro6bridge100_$LT$impl$u20$proc_macro..bridge..rpc..Encode$LT$S$GT$$u20$for$u20$core..option..Option$LT$T$GT$$GT$6encode17hac72d70880e9f14aE', symObjAddr: 0x0, symBinAddr: 0xDD2A0, symSize: 0x240 }
  - { offsetInCU: 0x354, offset: 0x4A9C6C, size: 0x8, addend: 0x0, symName: '__ZN10proc_macro6bridge100_$LT$impl$u20$proc_macro..bridge..rpc..Encode$LT$S$GT$$u20$for$u20$core..option..Option$LT$T$GT$$GT$6encode17hac72d70880e9f14aE', symObjAddr: 0x0, symBinAddr: 0xDD2A0, symSize: 0x240 }
  - { offsetInCU: 0x6D7, offset: 0x4A9FEF, size: 0x8, addend: 0x0, symName: '__ZN10proc_macro6bridge100_$LT$impl$u20$proc_macro..bridge..rpc..Encode$LT$S$GT$$u20$for$u20$core..option..Option$LT$T$GT$$GT$6encode17hf1bca649d142a1c8E', symObjAddr: 0x240, symBinAddr: 0xDD4E0, symSize: 0x345 }
  - { offsetInCU: 0x29, offset: 0x4AAA0D, size: 0x8, addend: 0x0, symName: _anon.add2649dd63c0914ce639126d3645bdc.3.llvm.8253337915905834988, symObjAddr: 0x100, symBinAddr: 0x310D60, symSize: 0x0 }
  - { offsetInCU: 0x1E, offset: 0x4AAAB8, size: 0x8, addend: 0x0, symName: '__ZN4core3ptr45drop_in_place$LT$proc_macro2..TokenStream$GT$17h7e9a94df6c9afdc7E.llvm.6617419182333486464', symObjAddr: 0x0, symBinAddr: 0xDD830, symSize: 0x140 }
  - { offsetInCU: 0x127C, offset: 0x4ABD16, size: 0x8, addend: 0x0, symName: '__ZN4core3ptr45drop_in_place$LT$proc_macro2..TokenStream$GT$17h7e9a94df6c9afdc7E.llvm.6617419182333486464', symObjAddr: 0x0, symBinAddr: 0xDD830, symSize: 0x140 }
  - { offsetInCU: 0x16D8, offset: 0x4AC172, size: 0x8, addend: 0x0, symName: '__ZN4core3ptr65drop_in_place$LT$alloc..vec..Vec$LT$proc_macro..TokenTree$GT$$GT$17h27434ef986fc0c8fE.llvm.6617419182333486464', symObjAddr: 0x140, symBinAddr: 0xDD970, symSize: 0x110 }
  - { offsetInCU: 0x477B, offset: 0x4AF215, size: 0x8, addend: 0x0, symName: __ZN10derivative5paths17discriminant_path17h69107d6c8a4cc467E, symObjAddr: 0x250, symBinAddr: 0xDDA80, symSize: 0xC4 }
  - { offsetInCU: 0x1E, offset: 0x4B480A, size: 0x8, addend: 0x0, symName: '__ZN4core3ptr45drop_in_place$LT$proc_macro2..TokenStream$GT$17h7e9a94df6c9afdc7E.llvm.14048996263377929847', symObjAddr: 0x0, symBinAddr: 0xDDB50, symSize: 0x140 }
  - { offsetInCU: 0xB2C, offset: 0x4B5318, size: 0x8, addend: 0x0, symName: '__ZN4core3ptr45drop_in_place$LT$proc_macro2..TokenStream$GT$17h7e9a94df6c9afdc7E.llvm.14048996263377929847', symObjAddr: 0x0, symBinAddr: 0xDDB50, symSize: 0x140 }
  - { offsetInCU: 0xF88, offset: 0x4B5774, size: 0x8, addend: 0x0, symName: '__ZN4core3ptr65drop_in_place$LT$alloc..vec..Vec$LT$proc_macro..TokenTree$GT$$GT$17h27434ef986fc0c8fE.llvm.14048996263377929847', symObjAddr: 0x140, symBinAddr: 0xDDC90, symSize: 0x110 }
  - { offsetInCU: 0x1E, offset: 0x4B6504, size: 0x8, addend: 0x0, symName: '__ZN4core3ptr45drop_in_place$LT$proc_macro2..TokenStream$GT$17h7e9a94df6c9afdc7E.llvm.11246820483552121637', symObjAddr: 0x0, symBinAddr: 0xDDDA0, symSize: 0x140 }
  - { offsetInCU: 0xB2C, offset: 0x4B7012, size: 0x8, addend: 0x0, symName: '__ZN4core3ptr45drop_in_place$LT$proc_macro2..TokenStream$GT$17h7e9a94df6c9afdc7E.llvm.11246820483552121637', symObjAddr: 0x0, symBinAddr: 0xDDDA0, symSize: 0x140 }
  - { offsetInCU: 0xF88, offset: 0x4B746E, size: 0x8, addend: 0x0, symName: '__ZN4core3ptr65drop_in_place$LT$alloc..vec..Vec$LT$proc_macro..TokenTree$GT$$GT$17h27434ef986fc0c8fE.llvm.11246820483552121637', symObjAddr: 0x140, symBinAddr: 0xDDEE0, symSize: 0x110 }
  - { offsetInCU: 0x1E, offset: 0x4B81FE, size: 0x8, addend: 0x0, symName: '__ZN4core3ptr45drop_in_place$LT$proc_macro2..TokenStream$GT$17h7e9a94df6c9afdc7E.llvm.17771997497511688347', symObjAddr: 0x0, symBinAddr: 0xDDFF0, symSize: 0x140 }
  - { offsetInCU: 0xB2C, offset: 0x4B8D0C, size: 0x8, addend: 0x0, symName: '__ZN4core3ptr45drop_in_place$LT$proc_macro2..TokenStream$GT$17h7e9a94df6c9afdc7E.llvm.17771997497511688347', symObjAddr: 0x0, symBinAddr: 0xDDFF0, symSize: 0x140 }
  - { offsetInCU: 0xF88, offset: 0x4B9168, size: 0x8, addend: 0x0, symName: '__ZN4core3ptr65drop_in_place$LT$alloc..vec..Vec$LT$proc_macro..TokenTree$GT$$GT$17h27434ef986fc0c8fE.llvm.17771997497511688347', symObjAddr: 0x140, symBinAddr: 0xDE130, symSize: 0x110 }
  - { offsetInCU: 0x1E, offset: 0x4B9EF8, size: 0x8, addend: 0x0, symName: '__ZN42_$LT$$RF$T$u20$as$u20$core..fmt..Debug$GT$3fmt17h18d7f6f4188d369dE', symObjAddr: 0x0, symBinAddr: 0xDE240, symSize: 0x30 }
  - { offsetInCU: 0x106, offset: 0x4B9FE0, size: 0x8, addend: 0x0, symName: '__ZN42_$LT$$RF$T$u20$as$u20$core..fmt..Debug$GT$3fmt17h18d7f6f4188d369dE', symObjAddr: 0x0, symBinAddr: 0xDE240, symSize: 0x30 }
  - { offsetInCU: 0x1A1, offset: 0x4BA07B, size: 0x8, addend: 0x0, symName: '__ZN44_$LT$$RF$T$u20$as$u20$core..fmt..Display$GT$3fmt17h0d7fb36ca8589266E', symObjAddr: 0x30, symBinAddr: 0xDE270, symSize: 0x17 }
  - { offsetInCU: 0x1E, offset: 0x4BA2CF, size: 0x8, addend: 0x0, symName: __ZN10proc_macro6bridge14selfless_reify31reify_to_extern_c_fn_hrt_bridge7wrapper17h7463717c552a9c49E, symObjAddr: 0x0, symBinAddr: 0xDE290, symSize: 0x25 }
  - { offsetInCU: 0x189, offset: 0x4BA43A, size: 0x8, addend: 0x0, symName: __ZN10proc_macro6bridge14selfless_reify31reify_to_extern_c_fn_hrt_bridge7wrapper17h7463717c552a9c49E, symObjAddr: 0x0, symBinAddr: 0xDE290, symSize: 0x25 }
  - { offsetInCU: 0x1E, offset: 0x4BA690, size: 0x8, addend: 0x0, symName: '__ZN77_$LT$$LP$A$C$B$RP$$u20$as$u20$proc_macro..bridge..rpc..DecodeMut$LT$S$GT$$GT$6decode17h3db8ce3a8d8358ccE', symObjAddr: 0x0, symBinAddr: 0xDE2C0, symSize: 0xCA }
  - { offsetInCU: 0xB4, offset: 0x4BA726, size: 0x8, addend: 0x0, symName: '__ZN77_$LT$$LP$A$C$B$RP$$u20$as$u20$proc_macro..bridge..rpc..DecodeMut$LT$S$GT$$GT$6decode17h3db8ce3a8d8358ccE', symObjAddr: 0x0, symBinAddr: 0xDE2C0, symSize: 0xCA }
  - { offsetInCU: 0x1E, offset: 0x4BB994, size: 0x8, addend: 0x0, symName: __ZN3std3sys9backtrace26__rust_end_short_backtrace17h34e1637732d04b50E, symObjAddr: 0x0, symBinAddr: 0xDE390, symSize: 0x10 }
  - { offsetInCU: 0x66, offset: 0x4BB9DC, size: 0x8, addend: 0x0, symName: '__ZN3std9panicking11begin_panic28_$u7b$$u7b$closure$u7d$$u7d$17h9a95f0d82683cd26E', symObjAddr: 0x10, symBinAddr: 0xDE3A0, symSize: 0x40 }
  - { offsetInCU: 0xD9, offset: 0x4BBA4F, size: 0x8, addend: 0x0, symName: __ZN3std3sys9backtrace26__rust_end_short_backtrace17h34e1637732d04b50E, symObjAddr: 0x0, symBinAddr: 0xDE390, symSize: 0x10 }
  - { offsetInCU: 0x1BC, offset: 0x4BBB32, size: 0x8, addend: 0x0, symName: __ZN4core5panic12PanicPayload6as_str17h56f0a0c2ef70b5f0E, symObjAddr: 0x50, symBinAddr: 0xDE3E0, symSize: 0x8 }
  - { offsetInCU: 0x1E, offset: 0x4BBBE7, size: 0x8, addend: 0x0, symName: '__ZN36_$LT$T$u20$as$u20$core..any..Any$GT$7type_id17h4400c234248faef4E', symObjAddr: 0x0, symBinAddr: 0xDE3F0, symSize: 0x1A }
  - { offsetInCU: 0x3A, offset: 0x4BBC03, size: 0x8, addend: 0x0, symName: '__ZN36_$LT$T$u20$as$u20$core..any..Any$GT$7type_id17h4400c234248faef4E', symObjAddr: 0x0, symBinAddr: 0xDE3F0, symSize: 0x1A }
  - { offsetInCU: 0x1E, offset: 0x4BBCD4, size: 0x8, addend: 0x0, symName: __ZN4core9panicking13assert_failed17h46c21b6efdce93ddE, symObjAddr: 0x0, symBinAddr: 0x28D470, symSize: 0x2E }
  - { offsetInCU: 0x1A5, offset: 0x4BBE5B, size: 0x8, addend: 0x0, symName: __ZN4core9panicking13assert_failed17h46c21b6efdce93ddE, symObjAddr: 0x0, symBinAddr: 0x28D470, symSize: 0x2E }
  - { offsetInCU: 0xB1, offset: 0x4BC383, size: 0x8, addend: 0x0, symName: '__ZN58_$LT$alloc..string..String$u20$as$u20$core..fmt..Write$GT$10write_char17h04bc467bd68a934bE', symObjAddr: 0xC7F0, symBinAddr: 0xEA670, symSize: 0x140 }
  - { offsetInCU: 0x4B6, offset: 0x4BC788, size: 0x8, addend: 0x0, symName: '__ZN58_$LT$alloc..string..String$u20$as$u20$core..fmt..Write$GT$9write_str17h46a93205c3443fbaE', symObjAddr: 0xC930, symBinAddr: 0xEA7B0, symSize: 0x60 }
  - { offsetInCU: 0x5468, offset: 0x4C173A, size: 0x8, addend: 0x0, symName: '__ZN4core3ptr100drop_in_place$LT$$LP$syn..data..Visibility$C$core..option..Option$LT$syn..token..Default$GT$$RP$$GT$17hf4681ce2d035d32cE', symObjAddr: 0x5B0, symBinAddr: 0xDE780, symSize: 0x60 }
  - { offsetInCU: 0x5606, offset: 0x4C18D8, size: 0x8, addend: 0x0, symName: '__ZN4core3ptr100drop_in_place$LT$core..option..Option$LT$alloc..boxed..Box$LT$syn..generics..LifetimeDef$GT$$GT$$GT$17h75a6086997697dd7E', symObjAddr: 0x610, symBinAddr: 0xDE7E0, symSize: 0x50 }
  - { offsetInCU: 0x5788, offset: 0x4C1A5A, size: 0x8, addend: 0x0, symName: '__ZN4core3ptr100drop_in_place$LT$core..option..Option$LT$alloc..boxed..Box$LT$syn..path..GenericArgument$GT$$GT$$GT$17h3d29ec00a8f1918dE', symObjAddr: 0x660, symBinAddr: 0xDE830, symSize: 0x50 }
  - { offsetInCU: 0x59F0, offset: 0x4C1CC2, size: 0x8, addend: 0x0, symName: '__ZN4core3ptr101drop_in_place$LT$core..option..Option$LT$alloc..boxed..Box$LT$syn..generics..GenericParam$GT$$GT$$GT$17h1fee4f1c7bd902c4E', symObjAddr: 0x6B0, symBinAddr: 0xDE880, symSize: 0x310 }
  - { offsetInCU: 0x63ED, offset: 0x4C26BF, size: 0x8, addend: 0x0, symName: '__ZN4core3ptr103drop_in_place$LT$core..option..Option$LT$alloc..boxed..Box$LT$syn..generics..TypeParamBound$GT$$GT$$GT$17h6cee73bc2b2ecea8E', symObjAddr: 0x9C0, symBinAddr: 0xDEB90, symSize: 0x90 }
  - { offsetInCU: 0x6724, offset: 0x4C29F6, size: 0x8, addend: 0x0, symName: '__ZN4core3ptr103drop_in_place$LT$core..option..Option$LT$alloc..boxed..Box$LT$syn..generics..WherePredicate$GT$$GT$$GT$17headad361972eced7E', symObjAddr: 0xA50, symBinAddr: 0xDEC20, symSize: 0x120 }
  - { offsetInCU: 0x6A3E, offset: 0x4C2D10, size: 0x8, addend: 0x0, symName: '__ZN4core3ptr103drop_in_place$LT$syn..punctuated..Punctuated$LT$syn..generics..GenericParam$C$syn..token..Comma$GT$$GT$17hae00367f0c570156E', symObjAddr: 0xB70, symBinAddr: 0xDED40, symSize: 0x70 }
  - { offsetInCU: 0x6D59, offset: 0x4C302B, size: 0x8, addend: 0x0, symName: '__ZN4core3ptr103drop_in_place$LT$syn..punctuated..Punctuated$LT$syn..generics..TypeParamBound$C$syn..token..Add$GT$$GT$17he811d520c92af08aE', symObjAddr: 0xBE0, symBinAddr: 0xDEDB0, symSize: 0x1C0 }
  - { offsetInCU: 0x75AA, offset: 0x4C387C, size: 0x8, addend: 0x0, symName: '__ZN4core3ptr108drop_in_place$LT$syn..punctuated..Punctuated$LT$syn..expr..GenericMethodArgument$C$syn..token..Comma$GT$$GT$17h92cbabe4862b2183E', symObjAddr: 0xDA0, symBinAddr: 0xDEF70, symSize: 0x150 }
  - { offsetInCU: 0x7AA6, offset: 0x4C3D78, size: 0x8, addend: 0x0, symName: '__ZN4core3ptr115drop_in_place$LT$core..option..Option$LT$$LP$syn..token..Brace$C$alloc..vec..Vec$LT$syn..item..Item$GT$$RP$$GT$$GT$17hab9d60ee568bdf60E', symObjAddr: 0xEF0, symBinAddr: 0xDF0C0, symSize: 0xD0 }
  - { offsetInCU: 0x7DBD, offset: 0x4C408F, size: 0x8, addend: 0x0, symName: '__ZN4core3ptr126drop_in_place$LT$core..option..Option$LT$$LP$syn..token..And$C$core..option..Option$LT$syn..lifetime..Lifetime$GT$$RP$$GT$$GT$17h5979d670cb45416cE', symObjAddr: 0xFC0, symBinAddr: 0xDF190, symSize: 0x30 }
  - { offsetInCU: 0x806B, offset: 0x4C433D, size: 0x8, addend: 0x0, symName: '__ZN4core3ptr34drop_in_place$LT$syn..lit..Lit$GT$17hbe1efe749a08dd9aE', symObjAddr: 0x1070, symBinAddr: 0xDF1C0, symSize: 0x110 }
  - { offsetInCU: 0x84BE, offset: 0x4C4790, size: 0x8, addend: 0x0, symName: '__ZN4core3ptr34drop_in_place$LT$syn..pat..Pat$GT$17h3201f642e43ac2a2E', symObjAddr: 0x1180, symBinAddr: 0xDF2D0, symSize: 0xFA0 }
  - { offsetInCU: 0xBA73, offset: 0x4C7D45, size: 0x8, addend: 0x0, symName: '__ZN4core3ptr34drop_in_place$LT$syn..ty..Type$GT$17hfb5d159a08190130E', symObjAddr: 0x2120, symBinAddr: 0xE0270, symSize: 0x4B0 }
  - { offsetInCU: 0xD0AB, offset: 0x4C937D, size: 0x8, addend: 0x0, symName: '__ZN4core3ptr36drop_in_place$LT$syn..expr..Expr$GT$17hf1921d1b09462bc3E', symObjAddr: 0x25D0, symBinAddr: 0xE0720, symSize: 0x3110 }
  - { offsetInCU: 0x17333, offset: 0x4D3605, size: 0x8, addend: 0x0, symName: '__ZN4core3ptr36drop_in_place$LT$syn..item..Item$GT$17hf1fe4e69bb0a9b43E', symObjAddr: 0x56E0, symBinAddr: 0xE3830, symSize: 0x120 }
  - { offsetInCU: 0x17382, offset: 0x4D3654, size: 0x8, addend: 0x0, symName: '__ZN4core3ptr36drop_in_place$LT$syn..mac..Macro$GT$17h205613d7ad575f72E', symObjAddr: 0x5800, symBinAddr: 0xE3950, symSize: 0x100 }
  - { offsetInCU: 0x177AA, offset: 0x4D3A7C, size: 0x8, addend: 0x0, symName: '__ZN4core3ptr36drop_in_place$LT$syn..path..Path$GT$17he6d0bec66d66b98aE', symObjAddr: 0x5900, symBinAddr: 0xE3A50, symSize: 0x230 }
  - { offsetInCU: 0x18140, offset: 0x4D4412, size: 0x8, addend: 0x0, symName: '__ZN4core3ptr37drop_in_place$LT$syn..stmt..Block$GT$17h3aa429e75a234230E', symObjAddr: 0x5B30, symBinAddr: 0xE3C80, symSize: 0xD0 }
  - { offsetInCU: 0x184B2, offset: 0x4D4784, size: 0x8, addend: 0x0, symName: '__ZN4core3ptr38drop_in_place$LT$syn..data..Fields$GT$17h0c48fa2402a42137E', symObjAddr: 0x5C00, symBinAddr: 0xE3D50, symSize: 0x180 }
  - { offsetInCU: 0x188F8, offset: 0x4D4BCA, size: 0x8, addend: 0x0, symName: '__ZN4core3ptr38drop_in_place$LT$syn..expr..Member$GT$17ha113d37a67d27aafE', symObjAddr: 0x5D80, symBinAddr: 0xE3ED0, symSize: 0x30 }
  - { offsetInCU: 0x18A13, offset: 0x4D4CE5, size: 0x8, addend: 0x0, symName: '__ZN4core3ptr38drop_in_place$LT$syn..item..ItemFn$GT$17h92bc8390e1d02672E', symObjAddr: 0x5DB0, symBinAddr: 0xE3F00, symSize: 0x230 }
  - { offsetInCU: 0x192B3, offset: 0x4D5585, size: 0x8, addend: 0x0, symName: '__ZN4core3ptr38drop_in_place$LT$syn..pat..PatType$GT$17h833e3c7992399b01E.llvm.2762174853176263616', symObjAddr: 0x5FE0, symBinAddr: 0xE4130, symSize: 0x160 }
  - { offsetInCU: 0x1997B, offset: 0x4D5C4D, size: 0x8, addend: 0x0, symName: '__ZN4core3ptr39drop_in_place$LT$proc_macro2..Group$GT$17ha95b199d42755248E', symObjAddr: 0x6140, symBinAddr: 0xE4290, symSize: 0x60 }
  - { offsetInCU: 0x19ADA, offset: 0x4D5DAC, size: 0x8, addend: 0x0, symName: '__ZN4core3ptr39drop_in_place$LT$proc_macro2..Ident$GT$17hdeec010483268a0dE', symObjAddr: 0x61A0, symBinAddr: 0xE42F0, symSize: 0x30 }
  - { offsetInCU: 0x19BD6, offset: 0x4D5EA8, size: 0x8, addend: 0x0, symName: '__ZN4core3ptr39drop_in_place$LT$syn..item..ItemMod$GT$17hd095082f1c98971dE', symObjAddr: 0x61D0, symBinAddr: 0xE4320, symSize: 0x210 }
  - { offsetInCU: 0x1A40F, offset: 0x4D66E1, size: 0x8, addend: 0x0, symName: '__ZN4core3ptr39drop_in_place$LT$syn..item..ItemUse$GT$17hfee3fd59e1327e89E', symObjAddr: 0x63E0, symBinAddr: 0xE4530, symSize: 0x150 }
  - { offsetInCU: 0x1A910, offset: 0x4D6BE2, size: 0x8, addend: 0x0, symName: '__ZN4core3ptr39drop_in_place$LT$syn..item..UseTree$GT$17h78d4ed19b48b8cbfE', symObjAddr: 0x65A0, symBinAddr: 0xE4680, symSize: 0xE0 }
  - { offsetInCU: 0x1ACB7, offset: 0x4D6F89, size: 0x8, addend: 0x0, symName: '__ZN4core3ptr39drop_in_place$LT$syn..pat..PatTuple$GT$17h96faeea9832d4c4bE', symObjAddr: 0x6680, symBinAddr: 0xE4760, symSize: 0x100 }
  - { offsetInCU: 0x1AFDF, offset: 0x4D72B1, size: 0x8, addend: 0x0, symName: '__ZN4core3ptr40drop_in_place$LT$syn..item..ImplItem$GT$17hb8d8f44c0f04c0e3E', symObjAddr: 0x6780, symBinAddr: 0xE4860, symSize: 0x1B0 }
  - { offsetInCU: 0x1B35C, offset: 0x4D762E, size: 0x8, addend: 0x0, symName: '__ZN4core3ptr40drop_in_place$LT$syn..item..ItemEnum$GT$17hc99b161df783a633E', symObjAddr: 0x6930, symBinAddr: 0xE4A10, symSize: 0x250 }
  - { offsetInCU: 0x1BC2B, offset: 0x4D7EFD, size: 0x8, addend: 0x0, symName: '__ZN4core3ptr40drop_in_place$LT$syn..item..ItemImpl$GT$17haba540031ec64537E', symObjAddr: 0x6B80, symBinAddr: 0xE4C60, symSize: 0x1E0 }
  - { offsetInCU: 0x1C3BB, offset: 0x4D868D, size: 0x8, addend: 0x0, symName: '__ZN4core3ptr40drop_in_place$LT$syn..item..ItemType$GT$17hf26044957f69ac44E', symObjAddr: 0x6D60, symBinAddr: 0xE4E40, symSize: 0x1C0 }
  - { offsetInCU: 0x1CA93, offset: 0x4D8D65, size: 0x8, addend: 0x0, symName: '__ZN4core3ptr40drop_in_place$LT$syn..item..Receiver$GT$17hc8a432a931462f79E.llvm.2762174853176263616', symObjAddr: 0x6F20, symBinAddr: 0xE5000, symSize: 0x120 }
  - { offsetInCU: 0x1CF0A, offset: 0x4D91DC, size: 0x8, addend: 0x0, symName: '__ZN4core3ptr40drop_in_place$LT$syn..ty..ReturnType$GT$17h6f97c9fdb958983eE', symObjAddr: 0x7050, symBinAddr: 0xE5120, symSize: 0x50 }
  - { offsetInCU: 0x1D07A, offset: 0x4D934C, size: 0x8, addend: 0x0, symName: '__ZN4core3ptr41drop_in_place$LT$syn..item..ItemConst$GT$17hf37a2991989c7e8eE', symObjAddr: 0x70A0, symBinAddr: 0xE5170, symSize: 0x1E0 }
  - { offsetInCU: 0x1D89D, offset: 0x4D9B6F, size: 0x8, addend: 0x0, symName: '__ZN4core3ptr41drop_in_place$LT$syn..item..ItemMacro$GT$17h4cf9ca59f66b14edE', symObjAddr: 0x7280, symBinAddr: 0xE5350, symSize: 0x120 }
  - { offsetInCU: 0x1DCDB, offset: 0x4D9FAD, size: 0x8, addend: 0x0, symName: '__ZN4core3ptr41drop_in_place$LT$syn..item..ItemTrait$GT$17h2de0174f2f014913E', symObjAddr: 0x73A0, symBinAddr: 0xE5470, symSize: 0x220 }
  - { offsetInCU: 0x1E500, offset: 0x4DA7D2, size: 0x8, addend: 0x0, symName: '__ZN4core3ptr41drop_in_place$LT$syn..item..ItemUnion$GT$17h03d15eff3b9ef21aE', symObjAddr: 0x75C0, symBinAddr: 0xE5690, symSize: 0x250 }
  - { offsetInCU: 0x1ED89, offset: 0x4DB05B, size: 0x8, addend: 0x0, symName: '__ZN4core3ptr41drop_in_place$LT$syn..item..Signature$GT$17hd57cfba25994ce69E', symObjAddr: 0x7810, symBinAddr: 0xE58E0, symSize: 0x210 }
  - { offsetInCU: 0x1F663, offset: 0x4DB935, size: 0x8, addend: 0x0, symName: '__ZN4core3ptr41drop_in_place$LT$syn..item..TraitItem$GT$17h4b7d90364e3eddf8E', symObjAddr: 0x7A20, symBinAddr: 0xE5AF0, symSize: 0x1B0 }
  - { offsetInCU: 0x1F983, offset: 0x4DBC55, size: 0x8, addend: 0x0, symName: '__ZN4core3ptr42drop_in_place$LT$alloc..string..String$GT$17hef974c60cd9900dbE', symObjAddr: 0x7C20, symBinAddr: 0xE5CA0, symSize: 0x20 }
  - { offsetInCU: 0x1FA8B, offset: 0x4DBD5D, size: 0x8, addend: 0x0, symName: '__ZN4core3ptr42drop_in_place$LT$syn..data..Visibility$GT$17h27e8b6ad307fcbc7E', symObjAddr: 0x7C40, symBinAddr: 0xE5CC0, symSize: 0x60 }
  - { offsetInCU: 0x1FC00, offset: 0x4DBED2, size: 0x8, addend: 0x0, symName: '__ZN4core3ptr42drop_in_place$LT$syn..item..ItemMacro2$GT$17h642967b8eb4a8104E', symObjAddr: 0x7CA0, symBinAddr: 0xE5D20, symSize: 0x170 }
  - { offsetInCU: 0x20149, offset: 0x4DC41B, size: 0x8, addend: 0x0, symName: '__ZN4core3ptr42drop_in_place$LT$syn..item..ItemStatic$GT$17hc6b586b851814ed2E', symObjAddr: 0x7E10, symBinAddr: 0xE5E90, symSize: 0x1E0 }
  - { offsetInCU: 0x2094D, offset: 0x4DCC1F, size: 0x8, addend: 0x0, symName: '__ZN4core3ptr42drop_in_place$LT$syn..item..ItemStruct$GT$17h3f822312b443c40dE', symObjAddr: 0x7FF0, symBinAddr: 0xE6070, symSize: 0x190 }
  - { offsetInCU: 0x20EBD, offset: 0x4DD18F, size: 0x8, addend: 0x0, symName: '__ZN4core3ptr43drop_in_place$LT$syn..data..FieldsNamed$GT$17h73293dd81bcfeab6E', symObjAddr: 0x8180, symBinAddr: 0xE6200, symSize: 0xE0 }
  - { offsetInCU: 0x211FE, offset: 0x4DD4D0, size: 0x8, addend: 0x0, symName: '__ZN4core3ptr43drop_in_place$LT$syn..item..ForeignItem$GT$17h21c815f2fbdfe296E', symObjAddr: 0x8260, symBinAddr: 0xE62E0, symSize: 0x1A0 }
  - { offsetInCU: 0x2153D, offset: 0x4DD80F, size: 0x8, addend: 0x0, symName: '__ZN4core3ptr44drop_in_place$LT$syn..generics..Generics$GT$17he0d6eb6045503c84E', symObjAddr: 0x8400, symBinAddr: 0xE6480, symSize: 0xA0 }
  - { offsetInCU: 0x217A9, offset: 0x4DDA7B, size: 0x8, addend: 0x0, symName: '__ZN4core3ptr44drop_in_place$LT$syn..item..ImplItemType$GT$17hfa117ac59836f12aE', symObjAddr: 0x84A0, symBinAddr: 0xE6520, symSize: 0x190 }
  - { offsetInCU: 0x21CF2, offset: 0x4DDFC4, size: 0x8, addend: 0x0, symName: '__ZN4core3ptr44drop_in_place$LT$syn..lifetime..Lifetime$GT$17h3858225df033648aE', symObjAddr: 0x8630, symBinAddr: 0xE66B0, symSize: 0x30 }
  - { offsetInCU: 0x21E6A, offset: 0x4DE13C, size: 0x8, addend: 0x0, symName: '__ZN4core3ptr44drop_in_place$LT$syn..parse..ParseBuffer$GT$17h19c266fcccc430cbE', symObjAddr: 0x8660, symBinAddr: 0xE66E0, symSize: 0x70 }
  - { offsetInCU: 0x221E6, offset: 0x4DE4B8, size: 0x8, addend: 0x0, symName: '__ZN4core3ptr45drop_in_place$LT$proc_macro2..TokenStream$GT$17h2507cb30e765dc85E', symObjAddr: 0x86D0, symBinAddr: 0xE6750, symSize: 0x140 }
  - { offsetInCU: 0x22642, offset: 0x4DE914, size: 0x8, addend: 0x0, symName: '__ZN4core3ptr45drop_in_place$LT$syn..item..ForeignItemFn$GT$17hac464df7ca671242E', symObjAddr: 0x8810, symBinAddr: 0xE6890, symSize: 0x160 }
  - { offsetInCU: 0x22AD6, offset: 0x4DEDA8, size: 0x8, addend: 0x0, symName: '__ZN4core3ptr45drop_in_place$LT$syn..item..ImplItemConst$GT$17hcd481022683c9056E', symObjAddr: 0x8970, symBinAddr: 0xE69F0, symSize: 0x1A0 }
  - { offsetInCU: 0x2305D, offset: 0x4DF32F, size: 0x8, addend: 0x0, symName: '__ZN4core3ptr45drop_in_place$LT$syn..item..TraitItemType$GT$17hff73dc4d6b73b6f1E', symObjAddr: 0x8C10, symBinAddr: 0xE6B90, symSize: 0x190 }
  - { offsetInCU: 0x2349D, offset: 0x4DF76F, size: 0x8, addend: 0x0, symName: '__ZN4core3ptr46drop_in_place$LT$syn..item..ImplItemMethod$GT$17h81d5acf604d84d52E', symObjAddr: 0x8DA0, symBinAddr: 0xE6D20, symSize: 0x230 }
  - { offsetInCU: 0x23C49, offset: 0x4DFF1B, size: 0x8, addend: 0x0, symName: '__ZN4core3ptr46drop_in_place$LT$syn..item..ItemForeignMod$GT$17he0cb10e3a3005942E', symObjAddr: 0x8FD0, symBinAddr: 0xE6F50, symSize: 0x1C0 }
  - { offsetInCU: 0x2456E, offset: 0x4E0840, size: 0x8, addend: 0x0, symName: '__ZN4core3ptr46drop_in_place$LT$syn..item..ItemTraitAlias$GT$17h92af75cf6c1f4732E', symObjAddr: 0x9190, symBinAddr: 0xE7110, symSize: 0x190 }
  - { offsetInCU: 0x24B12, offset: 0x4E0DE4, size: 0x8, addend: 0x0, symName: '__ZN4core3ptr46drop_in_place$LT$syn..item..TraitItemConst$GT$17ha3f3e5595f870971E', symObjAddr: 0x9320, symBinAddr: 0xE72A0, symSize: 0x170 }
  - { offsetInCU: 0x24F52, offset: 0x4E1224, size: 0x8, addend: 0x0, symName: '__ZN4core3ptr47drop_in_place$LT$syn..generics..LifetimeDef$GT$17hd04bc9e6ed9dfb47E', symObjAddr: 0x9490, symBinAddr: 0xE7410, symSize: 0x120 }
  - { offsetInCU: 0x2536F, offset: 0x4E1641, size: 0x8, addend: 0x0, symName: '__ZN4core3ptr47drop_in_place$LT$syn..item..ForeignItemType$GT$17h1c4d82a7ec021a30E', symObjAddr: 0x95B0, symBinAddr: 0xE7530, symSize: 0x170 }
  - { offsetInCU: 0x25911, offset: 0x4E1BE3, size: 0x8, addend: 0x0, symName: '__ZN4core3ptr47drop_in_place$LT$syn..item..ItemExternCrate$GT$17h97b05889785eea32E', symObjAddr: 0x9720, symBinAddr: 0xE76A0, symSize: 0x1A0 }
  - { offsetInCU: 0x25FB1, offset: 0x4E2283, size: 0x8, addend: 0x0, symName: '__ZN4core3ptr47drop_in_place$LT$syn..item..TraitItemMethod$GT$17h21cb304020f3ba1eE', symObjAddr: 0x98C0, symBinAddr: 0xE7840, symSize: 0x1F0 }
  - { offsetInCU: 0x265EF, offset: 0x4E28C1, size: 0x8, addend: 0x0, symName: '__ZN4core3ptr47drop_in_place$LT$syn..path..GenericArgument$GT$17h8c0a0d8c6deaefb4E', symObjAddr: 0x9AB0, symBinAddr: 0xE7A30, symSize: 0x110 }
  - { offsetInCU: 0x2690A, offset: 0x4E2BDC, size: 0x8, addend: 0x0, symName: '__ZN4core3ptr49drop_in_place$LT$syn..item..ForeignItemStatic$GT$17hfe9f44f9dab5bcd1E', symObjAddr: 0x9BC0, symBinAddr: 0xE7B40, symSize: 0x190 }
  - { offsetInCU: 0x26FC1, offset: 0x4E3293, size: 0x8, addend: 0x0, symName: '__ZN4core3ptr58drop_in_place$LT$alloc..vec..Vec$LT$syn..expr..Arm$GT$$GT$17hf3db0825f3d9c861E', symObjAddr: 0x9D50, symBinAddr: 0xE7CD0, symSize: 0xD0 }
  - { offsetInCU: 0x27281, offset: 0x4E3553, size: 0x8, addend: 0x0, symName: '__ZN4core3ptr59drop_in_place$LT$alloc..boxed..Box$LT$syn..pat..Pat$GT$$GT$17h7037ce9bbd3729c6E', symObjAddr: 0x9E20, symBinAddr: 0xE7DA0, symSize: 0x50 }
  - { offsetInCU: 0x273DA, offset: 0x4E36AC, size: 0x8, addend: 0x0, symName: '__ZN4core3ptr59drop_in_place$LT$alloc..boxed..Box$LT$syn..ty..Type$GT$$GT$17h2eccd13329dbe4faE', symObjAddr: 0x9E70, symBinAddr: 0xE7DF0, symSize: 0x50 }
  - { offsetInCU: 0x27533, offset: 0x4E3805, size: 0x8, addend: 0x0, symName: '__ZN4core3ptr59drop_in_place$LT$alloc..vec..Vec$LT$syn..item..Item$GT$$GT$17h544d8e20d05b2f97E', symObjAddr: 0x9EC0, symBinAddr: 0xE7E40, symSize: 0xD0 }
  - { offsetInCU: 0x277F3, offset: 0x4E3AC5, size: 0x8, addend: 0x0, symName: '__ZN4core3ptr59drop_in_place$LT$alloc..vec..Vec$LT$syn..stmt..Stmt$GT$$GT$17hed4646381107e302E', symObjAddr: 0x9F90, symBinAddr: 0xE7F10, symSize: 0xD0 }
  - { offsetInCU: 0x27AB3, offset: 0x4E3D85, size: 0x8, addend: 0x0, symName: '__ZN4core3ptr61drop_in_place$LT$alloc..boxed..Box$LT$syn..expr..Expr$GT$$GT$17h66094ddc89015516E', symObjAddr: 0xA060, symBinAddr: 0xE7FE0, symSize: 0x50 }
  - { offsetInCU: 0x27C88, offset: 0x4E3F5A, size: 0x8, addend: 0x0, symName: '__ZN4core3ptr61drop_in_place$LT$syn..path..ParenthesizedGenericArguments$GT$17h21be9b1d7a6fab55E', symObjAddr: 0xA120, symBinAddr: 0xE8030, symSize: 0x170 }
  - { offsetInCU: 0x2827E, offset: 0x4E4550, size: 0x8, addend: 0x0, symName: '__ZN4core3ptr62drop_in_place$LT$alloc..boxed..Box$LT$syn..stmt..Block$GT$$GT$17h0633c21446a415f4E', symObjAddr: 0xA290, symBinAddr: 0xE81A0, symSize: 0xE0 }
  - { offsetInCU: 0x28690, offset: 0x4E4962, size: 0x8, addend: 0x0, symName: '__ZN4core3ptr63drop_in_place$LT$alloc..boxed..Box$LT$syn..lit..LitRepr$GT$$GT$17h9c509b794406150eE', symObjAddr: 0xA370, symBinAddr: 0xE8280, symSize: 0x60 }
  - { offsetInCU: 0x28959, offset: 0x4E4C2B, size: 0x8, addend: 0x0, symName: '__ZN4core3ptr63drop_in_place$LT$alloc..vec..Vec$LT$syn..item..ImplItem$GT$$GT$17ha4d5b54edb0d5cb7E', symObjAddr: 0xA3D0, symBinAddr: 0xE82E0, symSize: 0x80 }
  - { offsetInCU: 0x28C30, offset: 0x4E4F02, size: 0x8, addend: 0x0, symName: '__ZN4core3ptr64drop_in_place$LT$alloc..boxed..Box$LT$syn..item..UseTree$GT$$GT$17h2fbb30105f88b737E', symObjAddr: 0xA450, symBinAddr: 0xE8360, symSize: 0x100 }
  - { offsetInCU: 0x2917D, offset: 0x4E544F, size: 0x8, addend: 0x0, symName: '__ZN4core3ptr64drop_in_place$LT$alloc..boxed..Box$LT$syn..pat..FieldPat$GT$$GT$17hb167b355d0d4733fE', symObjAddr: 0xA550, symBinAddr: 0xE8460, symSize: 0x180 }
  - { offsetInCU: 0x2989A, offset: 0x4E5B6C, size: 0x8, addend: 0x0, symName: '__ZN4core3ptr64drop_in_place$LT$alloc..boxed..Box$LT$syn..ty..BareFnArg$GT$$GT$17h6488be9448346678E', symObjAddr: 0xA6D0, symBinAddr: 0xE85E0, symSize: 0x160 }
  - { offsetInCU: 0x29E30, offset: 0x4E6102, size: 0x8, addend: 0x0, symName: '__ZN4core3ptr64drop_in_place$LT$alloc..vec..Vec$LT$syn..attr..Attribute$GT$$GT$17h386324d8ea9bc309E.llvm.2762174853176263616', symObjAddr: 0xA830, symBinAddr: 0xE8740, symSize: 0xF0 }
  - { offsetInCU: 0x2A126, offset: 0x4E63F8, size: 0x8, addend: 0x0, symName: '__ZN4core3ptr64drop_in_place$LT$alloc..vec..Vec$LT$syn..item..TraitItem$GT$$GT$17h0ef3c4b7ce592e9eE', symObjAddr: 0xA920, symBinAddr: 0xE8830, symSize: 0x80 }
  - { offsetInCU: 0x2A3DE, offset: 0x4E66B0, size: 0x8, addend: 0x0, symName: '__ZN4core3ptr65drop_in_place$LT$alloc..vec..Vec$LT$proc_macro..TokenTree$GT$$GT$17hc3670dd5608d5259E', symObjAddr: 0xA9A0, symBinAddr: 0xE88B0, symSize: 0x110 }
  - { offsetInCU: 0x2A7D6, offset: 0x4E6AA8, size: 0x8, addend: 0x0, symName: '__ZN4core3ptr65drop_in_place$LT$core..option..Option$LT$syn..expr..Label$GT$$GT$17ha723640fd01bec5dE', symObjAddr: 0xAAB0, symBinAddr: 0xE89C0, symSize: 0x30 }
  - { offsetInCU: 0x2A910, offset: 0x4E6BE2, size: 0x8, addend: 0x0, symName: '__ZN4core3ptr65drop_in_place$LT$core..option..Option$LT$syn..stmt..Block$GT$$GT$17hdff81fd7cb2986caE', symObjAddr: 0xAAE0, symBinAddr: 0xE89F0, symSize: 0xD0 }
  - { offsetInCU: 0x2ABE5, offset: 0x4E6EB7, size: 0x8, addend: 0x0, symName: '__ZN4core3ptr66drop_in_place$LT$alloc..vec..Vec$LT$syn..item..ForeignItem$GT$$GT$17hc5d281d65e9f4398E', symObjAddr: 0xABB0, symBinAddr: 0xE8AC0, symSize: 0x80 }
  - { offsetInCU: 0x2AE9D, offset: 0x4E716F, size: 0x8, addend: 0x0, symName: '__ZN4core3ptr66drop_in_place$LT$core..option..Option$LT$syn..ty..Variadic$GT$$GT$17hc32134bb3933b0dfE', symObjAddr: 0xAC30, symBinAddr: 0xE8B40, symSize: 0xF0 }
  - { offsetInCU: 0x2B1C7, offset: 0x4E7499, size: 0x8, addend: 0x0, symName: '__ZN4core3ptr67drop_in_place$LT$alloc..boxed..Box$LT$syn..expr..FieldValue$GT$$GT$17h8df780aa600ea8c2E', symObjAddr: 0xAD20, symBinAddr: 0xE8C30, symSize: 0x160 }
  - { offsetInCU: 0x2B73D, offset: 0x4E7A0F, size: 0x8, addend: 0x0, symName: '__ZN4core3ptr67drop_in_place$LT$core..option..Option$LT$proc_macro2..Ident$GT$$GT$17h67578850954384a1E', symObjAddr: 0xAE80, symBinAddr: 0xE8D90, symSize: 0x30 }
  - { offsetInCU: 0x2B858, offset: 0x4E7B2A, size: 0x8, addend: 0x0, symName: '__ZN4core3ptr68drop_in_place$LT$alloc..boxed..Box$LT$syn..path..PathSegment$GT$$GT$17h1957b54eed39c0bbE', symObjAddr: 0xAEB0, symBinAddr: 0xE8DC0, symSize: 0x190 }
  - { offsetInCU: 0x2BF81, offset: 0x4E8253, size: 0x8, addend: 0x0, symName: '__ZN4core3ptr72drop_in_place$LT$alloc..boxed..Box$LT$syn..path..GenericArgument$GT$$GT$17ha8f8136d0c2b505bE', symObjAddr: 0xB040, symBinAddr: 0xE8F50, symSize: 0x180 }
  - { offsetInCU: 0x2C621, offset: 0x4E88F3, size: 0x8, addend: 0x0, symName: '__ZN4core3ptr72drop_in_place$LT$core..option..Option$LT$syn..lifetime..Lifetime$GT$$GT$17h31b55b93749c174dE', symObjAddr: 0xB1C0, symBinAddr: 0xE90D0, symSize: 0x30 }
  - { offsetInCU: 0x2C73C, offset: 0x4E8A0E, size: 0x8, addend: 0x0, symName: '__ZN4core3ptr75drop_in_place$LT$alloc..boxed..Box$LT$syn..generics..TypeParamBound$GT$$GT$17h8f156ce07ea0b8b2E', symObjAddr: 0xB1F0, symBinAddr: 0xE9100, symSize: 0x140 }
  - { offsetInCU: 0x2CD13, offset: 0x4E8FE5, size: 0x8, addend: 0x0, symName: '__ZN4core3ptr75drop_in_place$LT$core..option..Option$LT$syn..generics..WhereClause$GT$$GT$17h9a6b9b305741da86E', symObjAddr: 0xB330, symBinAddr: 0xE9240, symSize: 0xF0 }
  - { offsetInCU: 0x2D035, offset: 0x4E9307, size: 0x8, addend: 0x0, symName: '__ZN4core3ptr78drop_in_place$LT$alloc..boxed..Box$LT$syn..expr..GenericMethodArgument$GT$$GT$17h3384c00b5bd54c2aE', symObjAddr: 0xB420, symBinAddr: 0xE9330, symSize: 0x60 }
  - { offsetInCU: 0x2D246, offset: 0x4E9518, size: 0x8, addend: 0x0, symName: '__ZN4core3ptr78drop_in_place$LT$core..option..Option$LT$syn..generics..BoundLifetimes$GT$$GT$17h8175e66ad0c4a156E', symObjAddr: 0xB480, symBinAddr: 0xE9390, symSize: 0x120 }
  - { offsetInCU: 0x2D70B, offset: 0x4E99DD, size: 0x8, addend: 0x0, symName: '__ZN4core3ptr86drop_in_place$LT$syn..punctuated..Punctuated$LT$syn..pat..Pat$C$syn..token..Or$GT$$GT$17h1078c5d178d382b7E', symObjAddr: 0xB5A0, symBinAddr: 0xE94B0, symSize: 0x120 }
  - { offsetInCU: 0x2DB86, offset: 0x4E9E58, size: 0x8, addend: 0x0, symName: '__ZN4core3ptr87drop_in_place$LT$core..option..Option$LT$alloc..boxed..Box$LT$syn..pat..Pat$GT$$GT$$GT$17ha7f5fe0e6f73e820E', symObjAddr: 0xB6E0, symBinAddr: 0xE95D0, symSize: 0x50 }
  - { offsetInCU: 0x2DCF6, offset: 0x4E9FC8, size: 0x8, addend: 0x0, symName: '__ZN4core3ptr87drop_in_place$LT$core..option..Option$LT$alloc..boxed..Box$LT$syn..ty..Type$GT$$GT$$GT$17hc8292da82d129de3E', symObjAddr: 0xB730, symBinAddr: 0xE9620, symSize: 0x50 }
  - { offsetInCU: 0x2DE66, offset: 0x4EA138, size: 0x8, addend: 0x0, symName: '__ZN4core3ptr89drop_in_place$LT$core..option..Option$LT$alloc..boxed..Box$LT$syn..expr..Expr$GT$$GT$$GT$17hdc211ccd33f196f2E', symObjAddr: 0xB7A0, symBinAddr: 0xE9670, symSize: 0x50 }
  - { offsetInCU: 0x2E014, offset: 0x4EA2E6, size: 0x8, addend: 0x0, symName: '__ZN4core3ptr89drop_in_place$LT$syn..punctuated..Punctuated$LT$syn..pat..Pat$C$syn..token..Comma$GT$$GT$17hf8371102b0500adcE', symObjAddr: 0xB7F0, symBinAddr: 0xE96C0, symSize: 0x120 }
  - { offsetInCU: 0x2E4A6, offset: 0x4EA778, size: 0x8, addend: 0x0, symName: '__ZN4core3ptr89drop_in_place$LT$syn..punctuated..Punctuated$LT$syn..ty..Type$C$syn..token..Comma$GT$$GT$17h1c6e43341fabea97E', symObjAddr: 0xB910, symBinAddr: 0xE97E0, symSize: 0x120 }
  - { offsetInCU: 0x2E95F, offset: 0x4EAC31, size: 0x8, addend: 0x0, symName: '__ZN4core3ptr90drop_in_place$LT$core..option..Option$LT$alloc..boxed..Box$LT$syn..data..Field$GT$$GT$$GT$17he146e9f4e32c136fE', symObjAddr: 0xBA30, symBinAddr: 0xE9900, symSize: 0x1C0 }
  - { offsetInCU: 0x2F063, offset: 0x4EB335, size: 0x8, addend: 0x0, symName: '__ZN4core3ptr90drop_in_place$LT$core..option..Option$LT$alloc..boxed..Box$LT$syn..item..FnArg$GT$$GT$$GT$17ha72e545cf6ea6548E', symObjAddr: 0xBBF0, symBinAddr: 0xE9AC0, symSize: 0x70 }
  - { offsetInCU: 0x2F21B, offset: 0x4EB4ED, size: 0x8, addend: 0x0, symName: '__ZN4core3ptr91drop_in_place$LT$syn..punctuated..Punctuated$LT$syn..expr..Expr$C$syn..token..Comma$GT$$GT$17hd2dfeb0c522d9a18E', symObjAddr: 0xBC60, symBinAddr: 0xE9B30, symSize: 0x120 }
  - { offsetInCU: 0x2F6A9, offset: 0x4EB97B, size: 0x8, addend: 0x0, symName: '__ZN4core3ptr92drop_in_place$LT$core..option..Option$LT$$LP$syn..token..As$C$proc_macro2..Ident$RP$$GT$$GT$17hdb8e08992a006501E', symObjAddr: 0xBD80, symBinAddr: 0xE9C50, symSize: 0x30 }
  - { offsetInCU: 0x2F802, offset: 0x4EBAD4, size: 0x8, addend: 0x0, symName: '__ZN4core3ptr92drop_in_place$LT$core..option..Option$LT$alloc..boxed..Box$LT$syn..data..Variant$GT$$GT$$GT$17h9c9c8f3c1dc56a70E', symObjAddr: 0xBDB0, symBinAddr: 0xE9C80, symSize: 0x1A0 }
  - { offsetInCU: 0x2FE26, offset: 0x4EC0F8, size: 0x8, addend: 0x0, symName: '__ZN4core3ptr92drop_in_place$LT$syn..punctuated..Punctuated$LT$syn..item..FnArg$C$syn..token..Comma$GT$$GT$17h3049a14d789de61dE', symObjAddr: 0xBF50, symBinAddr: 0xE9E20, symSize: 0x140 }
  - { offsetInCU: 0x302A3, offset: 0x4EC575, size: 0x8, addend: 0x0, symName: '__ZN4core3ptr94drop_in_place$LT$syn..punctuated..Punctuated$LT$syn..data..Variant$C$syn..token..Comma$GT$$GT$17hb4480d65f74dc9d7E', symObjAddr: 0xC090, symBinAddr: 0xE9F60, symSize: 0xE0 }
  - { offsetInCU: 0x30603, offset: 0x4EC8D5, size: 0x8, addend: 0x0, symName: '__ZN4core3ptr94drop_in_place$LT$syn..punctuated..Punctuated$LT$syn..item..UseTree$C$syn..token..Comma$GT$$GT$17ha837d38586774c87E', symObjAddr: 0xC170, symBinAddr: 0xEA040, symSize: 0xF0 }
  - { offsetInCU: 0x30945, offset: 0x4ECC17, size: 0x8, addend: 0x0, symName: '__ZN4core3ptr94drop_in_place$LT$syn..punctuated..Punctuated$LT$syn..pat..FieldPat$C$syn..token..Comma$GT$$GT$17h612cbc9066d5afb1E', symObjAddr: 0xC260, symBinAddr: 0xEA130, symSize: 0xF0 }
  - { offsetInCU: 0x30C44, offset: 0x4ECF16, size: 0x8, addend: 0x0, symName: '__ZN4core3ptr94drop_in_place$LT$syn..punctuated..Punctuated$LT$syn..ty..BareFnArg$C$syn..token..Comma$GT$$GT$17ha9a668ce9972795bE', symObjAddr: 0xC350, symBinAddr: 0xEA220, symSize: 0xF0 }
  - { offsetInCU: 0x30F41, offset: 0x4ED213, size: 0x8, addend: 0x0, symName: '__ZN4core3ptr96drop_in_place$LT$core..option..Option$LT$alloc..boxed..Box$LT$syn..path..PathSegment$GT$$GT$$GT$17h2e81cbe3c70bb71cE', symObjAddr: 0xC440, symBinAddr: 0xEA310, symSize: 0x180 }
  - { offsetInCU: 0x315FE, offset: 0x4ED8D0, size: 0x8, addend: 0x0, symName: '__ZN4core3ptr97drop_in_place$LT$syn..punctuated..Punctuated$LT$syn..expr..FieldValue$C$syn..token..Comma$GT$$GT$17h11a5fffb46adfb11E', symObjAddr: 0xC5C0, symBinAddr: 0xEA490, symSize: 0xF0 }
  - { offsetInCU: 0x31977, offset: 0x4EDC49, size: 0x8, addend: 0x0, symName: '__ZN4core3ptr97drop_in_place$LT$syn..punctuated..Punctuated$LT$syn..lifetime..Lifetime$C$syn..token..Add$GT$$GT$17h5c54dea2c838d109E', symObjAddr: 0xC6B0, symBinAddr: 0xEA580, symSize: 0xD0 }
  - { offsetInCU: 0x326DB, offset: 0x4EE9AD, size: 0x8, addend: 0x0, symName: '__ZN53_$LT$core..fmt..Error$u20$as$u20$core..fmt..Debug$GT$3fmt17h03dc662ab152f3aeE', symObjAddr: 0xC7D0, symBinAddr: 0xEA650, symSize: 0x20 }
  - { offsetInCU: 0x3A9AA, offset: 0x4F6C7C, size: 0x8, addend: 0x0, symName: '__ZN48_$LT$T$u20$as$u20$core..clone..CloneToUninit$GT$15clone_to_uninit17h1e72921f8281f1fbE', symObjAddr: 0x240, symBinAddr: 0xDE450, symSize: 0x330 }
  - { offsetInCU: 0x3B6C0, offset: 0x4F7992, size: 0x8, addend: 0x0, symName: '__ZN73_$LT$$u5b$A$u5d$$u20$as$u20$core..slice..cmp..SlicePartialEq$LT$B$GT$$GT$5equal17hca44ca93895e50ddE', symObjAddr: 0xD170, symBinAddr: 0xEA880, symSize: 0x140 }
  - { offsetInCU: 0x43A9D, offset: 0x4FFD6F, size: 0x8, addend: 0x0, symName: '__ZN3syn4item7parsing63_$LT$impl$u20$syn..parse..Parse$u20$for$u20$syn..item..Item$GT$5parse17hd5092b6f019cd3c8E', symObjAddr: 0xD550, symBinAddr: 0xEAB80, symSize: 0x48A0 }
  - { offsetInCU: 0x51CB7, offset: 0x50DF89, size: 0x8, addend: 0x0, symName: '__ZN3syn4item7parsing68_$LT$impl$u20$syn..parse..Parse$u20$for$u20$syn..item..ItemMacro$GT$5parse17h31dd6e83a6883425E', symObjAddr: 0x11DF0, symBinAddr: 0xEF420, symSize: 0x620 }
  - { offsetInCU: 0x52757, offset: 0x50EA29, size: 0x8, addend: 0x0, symName: '__ZN3syn4item7parsing69_$LT$impl$u20$syn..parse..Parse$u20$for$u20$syn..item..ItemMacro2$GT$5parse17hcf95eda47eb68e7aE', symObjAddr: 0x12410, symBinAddr: 0xEFA40, symSize: 0xC30 }
  - { offsetInCU: 0x54537, offset: 0x510809, size: 0x8, addend: 0x0, symName: '__ZN3syn4item7parsing74_$LT$impl$u20$syn..parse..Parse$u20$for$u20$syn..item..ItemExternCrate$GT$5parse17hae0345cc168adf0eE', symObjAddr: 0x13040, symBinAddr: 0xF0670, symSize: 0x930 }
  - { offsetInCU: 0x558A5, offset: 0x511B77, size: 0x8, addend: 0x0, symName: '__ZN3syn4item7parsing66_$LT$impl$u20$syn..parse..Parse$u20$for$u20$syn..item..ItemUse$GT$5parse17h5d348ec602c9bbe4E', symObjAddr: 0x13970, symBinAddr: 0xF0FA0, symSize: 0x800 }
  - { offsetInCU: 0x563A7, offset: 0x512679, size: 0x8, addend: 0x0, symName: '__ZN3syn4item7parsing66_$LT$impl$u20$syn..parse..Parse$u20$for$u20$syn..item..UseTree$GT$5parse17hf6a79245528f6b50E', symObjAddr: 0x14170, symBinAddr: 0xF17A0, symSize: 0xA90 }
  - { offsetInCU: 0x588A0, offset: 0x514B72, size: 0x8, addend: 0x0, symName: '__ZN3syn4item7parsing68_$LT$impl$u20$syn..parse..Parse$u20$for$u20$syn..item..Signature$GT$5parse17h48c646b2b2858734E', symObjAddr: 0x16420, symBinAddr: 0xF2230, symSize: 0x9D0 }
  - { offsetInCU: 0x59885, offset: 0x515B57, size: 0x8, addend: 0x0, symName: '__ZN3syn4item7parsing64_$LT$impl$u20$syn..parse..Parse$u20$for$u20$syn..item..FnArg$GT$5parse17h6d8e7150f511bd86E', symObjAddr: 0x17130, symBinAddr: 0xF2C00, symSize: 0x710 }
  - { offsetInCU: 0x5AD80, offset: 0x517052, size: 0x8, addend: 0x0, symName: '__ZN3syn4item7parsing67_$LT$impl$u20$syn..parse..Parse$u20$for$u20$syn..item..Receiver$GT$5parse17h7c57eea315a0342bE', symObjAddr: 0x17840, symBinAddr: 0xF3310, symSize: 0x420 }
  - { offsetInCU: 0x5B3AC, offset: 0x51767E, size: 0x8, addend: 0x0, symName: '__ZN3syn4item7parsing66_$LT$impl$u20$syn..parse..Parse$u20$for$u20$syn..item..ItemMod$GT$5parse17h7fe32aa4c994dc9bE', symObjAddr: 0x17C60, symBinAddr: 0xF3730, symSize: 0xC90 }
  - { offsetInCU: 0x5D032, offset: 0x519304, size: 0x8, addend: 0x0, symName: '__ZN3syn4item7parsing73_$LT$impl$u20$syn..parse..Parse$u20$for$u20$syn..item..ItemForeignMod$GT$5parse17hcca74002a17b2fcbE', symObjAddr: 0x188F0, symBinAddr: 0xF43C0, symSize: 0x670 }
  - { offsetInCU: 0x5E501, offset: 0x51A7D3, size: 0x8, addend: 0x0, symName: '__ZN3syn4item7parsing70_$LT$impl$u20$syn..parse..Parse$u20$for$u20$syn..item..ForeignItem$GT$5parse17h24f40baa602f1278E', symObjAddr: 0x18F60, symBinAddr: 0xF4A30, symSize: 0x1B10 }
  - { offsetInCU: 0x62C30, offset: 0x51EF02, size: 0x8, addend: 0x0, symName: '__ZN3syn4item7parsing69_$LT$impl$u20$syn..parse..Parse$u20$for$u20$syn..item..ItemStruct$GT$5parse17he3cfb27f1405a441E', symObjAddr: 0x1C9C0, symBinAddr: 0xF6540, symSize: 0x700 }
  - { offsetInCU: 0x63725, offset: 0x51F9F7, size: 0x8, addend: 0x0, symName: '__ZN3syn4item7parsing67_$LT$impl$u20$syn..parse..Parse$u20$for$u20$syn..item..ItemEnum$GT$5parse17hb2912ec4b9be8655E', symObjAddr: 0x1D0C0, symBinAddr: 0xF6C40, symSize: 0x700 }
  - { offsetInCU: 0x6421D, offset: 0x5204EF, size: 0x8, addend: 0x0, symName: '__ZN3syn4item7parsing68_$LT$impl$u20$syn..parse..Parse$u20$for$u20$syn..item..ItemUnion$GT$5parse17hc3f05c1ec1b84162E', symObjAddr: 0x1D7C0, symBinAddr: 0xF7340, symSize: 0x700 }
  - { offsetInCU: 0x64D06, offset: 0x520FD8, size: 0x8, addend: 0x0, symName: '__ZN3syn4item7parsing68_$LT$impl$u20$syn..parse..Parse$u20$for$u20$syn..item..ItemTrait$GT$5parse17h99b2153937d5d77aE', symObjAddr: 0x1DEC0, symBinAddr: 0xF7A40, symSize: 0x640 }
  - { offsetInCU: 0x65A38, offset: 0x521D0A, size: 0x8, addend: 0x0, symName: '__ZN3syn4item7parsing68_$LT$impl$u20$syn..parse..Parse$u20$for$u20$syn..item..TraitItem$GT$5parse17h4e734d2779733d06E', symObjAddr: 0x1E650, symBinAddr: 0xF8080, symSize: 0x14D0 }
  - { offsetInCU: 0x6ADAF, offset: 0x527081, size: 0x8, addend: 0x0, symName: '__ZN3syn4item7parsing73_$LT$impl$u20$syn..parse..Parse$u20$for$u20$syn..item..TraitItemConst$GT$5parse17h1b0135dfda89c9c6E', symObjAddr: 0x1FB20, symBinAddr: 0xF9550, symSize: 0xAC0 }
  - { offsetInCU: 0x6CA19, offset: 0x528CEB, size: 0x8, addend: 0x0, symName: '__ZN3syn4item7parsing74_$LT$impl$u20$syn..parse..Parse$u20$for$u20$syn..item..TraitItemMethod$GT$5parse17hc56523647cfaf282E', symObjAddr: 0x205E0, symBinAddr: 0xFA010, symSize: 0x7F0 }
  - { offsetInCU: 0x6E060, offset: 0x52A332, size: 0x8, addend: 0x0, symName: '__ZN3syn4item7parsing67_$LT$impl$u20$syn..parse..Parse$u20$for$u20$syn..item..ImplItem$GT$5parse17hd0abc4995f0e27e6E', symObjAddr: 0x218C0, symBinAddr: 0xFA800, symSize: 0x1CE0 }
  - { offsetInCU: 0x73C43, offset: 0x52FF15, size: 0x8, addend: 0x0, symName: '__ZN3syn4item7parsing73_$LT$impl$u20$syn..parse..Parse$u20$for$u20$syn..item..ImplItemMethod$GT$5parse17h40b89290a7d05ae0E', symObjAddr: 0x243E0, symBinAddr: 0xFC4E0, symSize: 0x7B0 }
  - { offsetInCU: 0x74BAD, offset: 0x530E7F, size: 0x8, addend: 0x0, symName: '__ZN3syn4item7parsing72_$LT$impl$u20$syn..parse..Parse$u20$for$u20$syn..item..ImplItemMacro$GT$5parse17h684a98d429e3ccb0E', symObjAddr: 0x25480, symBinAddr: 0xFCC90, symSize: 0x0 }
  - { offsetInCU: 0x7512A, offset: 0x5313FC, size: 0x8, addend: 0x0, symName: '__ZN3syn4item8printing83_$LT$impl$u20$quote..to_tokens..ToTokens$u20$for$u20$syn..item..ItemExternCrate$GT$9to_tokens17h7f9bd73caf323e58E', symObjAddr: 0x257D0, symBinAddr: 0xFCFE0, symSize: 0x250 }
  - { offsetInCU: 0x7574E, offset: 0x531A20, size: 0x8, addend: 0x0, symName: '__ZN3syn4item8printing78_$LT$impl$u20$quote..to_tokens..ToTokens$u20$for$u20$syn..item..ItemStatic$GT$9to_tokens17h08058ed00f2b3dddE', symObjAddr: 0x25BB0, symBinAddr: 0xFD230, symSize: 0x230 }
  - { offsetInCU: 0x75D7C, offset: 0x53204E, size: 0x8, addend: 0x0, symName: '__ZN3syn4item8printing75_$LT$impl$u20$quote..to_tokens..ToTokens$u20$for$u20$syn..item..ItemMod$GT$9to_tokens17hc86d6254ff17a890E', symObjAddr: 0x260B0, symBinAddr: 0xFD460, symSize: 0x1D0 }
  - { offsetInCU: 0x761DC, offset: 0x5324AE, size: 0x8, addend: 0x0, symName: '__ZN3syn4item8printing76_$LT$impl$u20$quote..to_tokens..ToTokens$u20$for$u20$syn..item..ItemType$GT$9to_tokens17hb83cbc1a01934084E', symObjAddr: 0x263F0, symBinAddr: 0xFD630, symSize: 0x1D0 }
  - { offsetInCU: 0x765FE, offset: 0x5328D0, size: 0x8, addend: 0x0, symName: '__ZN3syn4item8printing76_$LT$impl$u20$quote..to_tokens..ToTokens$u20$for$u20$syn..item..ItemEnum$GT$9to_tokens17h842d495a33b205f9E', symObjAddr: 0x265C0, symBinAddr: 0xFD800, symSize: 0x1A0 }
  - { offsetInCU: 0x76998, offset: 0x532C6A, size: 0x8, addend: 0x0, symName: '__ZN3syn4item8printing78_$LT$impl$u20$quote..to_tokens..ToTokens$u20$for$u20$syn..item..ItemStruct$GT$9to_tokens17h10e0d38d73f156efE', symObjAddr: 0x26760, symBinAddr: 0xFD9A0, symSize: 0x230 }
  - { offsetInCU: 0x76EB4, offset: 0x533186, size: 0x8, addend: 0x0, symName: '__ZN3syn4item8printing77_$LT$impl$u20$quote..to_tokens..ToTokens$u20$for$u20$syn..item..ItemUnion$GT$9to_tokens17h21c08048e1f3d099E', symObjAddr: 0x26990, symBinAddr: 0xFDBD0, symSize: 0x1A0 }
  - { offsetInCU: 0x772BE, offset: 0x533590, size: 0x8, addend: 0x0, symName: '__ZN3syn4item8printing77_$LT$impl$u20$quote..to_tokens..ToTokens$u20$for$u20$syn..item..ItemTrait$GT$9to_tokens17h0ddcf38549076bc2E', symObjAddr: 0x26B30, symBinAddr: 0xFDD70, symSize: 0x310 }
  - { offsetInCU: 0x77BCB, offset: 0x533E9D, size: 0x8, addend: 0x0, symName: '__ZN3syn4item8printing82_$LT$impl$u20$quote..to_tokens..ToTokens$u20$for$u20$syn..item..ItemTraitAlias$GT$9to_tokens17hf80e15e3335a9024E', symObjAddr: 0x26E40, symBinAddr: 0xFE080, symSize: 0x1F0 }
  - { offsetInCU: 0x7816C, offset: 0x53443E, size: 0x8, addend: 0x0, symName: '__ZN3syn4item8printing76_$LT$impl$u20$quote..to_tokens..ToTokens$u20$for$u20$syn..item..ItemImpl$GT$9to_tokens17h30df070e852a5931E', symObjAddr: 0x27030, symBinAddr: 0xFE270, symSize: 0x360 }
  - { offsetInCU: 0x78A92, offset: 0x534D64, size: 0x8, addend: 0x0, symName: '__ZN3syn4item8printing77_$LT$impl$u20$quote..to_tokens..ToTokens$u20$for$u20$syn..item..ItemMacro$GT$9to_tokens17h481af589de6f9dcbE', symObjAddr: 0x27390, symBinAddr: 0xFE5D0, symSize: 0x1D0 }
  - { offsetInCU: 0x78FEE, offset: 0x5352C0, size: 0x8, addend: 0x0, symName: '__ZN3syn4item8printing82_$LT$impl$u20$quote..to_tokens..ToTokens$u20$for$u20$syn..item..TraitItemConst$GT$9to_tokens17h48ef6e80aa5ee690E', symObjAddr: 0x27820, symBinAddr: 0xFE7A0, symSize: 0x1E0 }
  - { offsetInCU: 0x7944F, offset: 0x535721, size: 0x8, addend: 0x0, symName: '__ZN3syn4item8printing81_$LT$impl$u20$quote..to_tokens..ToTokens$u20$for$u20$syn..item..TraitItemType$GT$9to_tokens17ha773e15de198d60bE', symObjAddr: 0x27B60, symBinAddr: 0xFE980, symSize: 0x290 }
  - { offsetInCU: 0x79AEB, offset: 0x535DBD, size: 0x8, addend: 0x0, symName: '__ZN3syn4item8printing81_$LT$impl$u20$quote..to_tokens..ToTokens$u20$for$u20$syn..item..ImplItemConst$GT$9to_tokens17h93720e24ccbf6f9aE', symObjAddr: 0x27DF0, symBinAddr: 0xFEC10, symSize: 0x250 }
  - { offsetInCU: 0x7A030, offset: 0x536302, size: 0x8, addend: 0x0, symName: '__ZN3syn4item8printing82_$LT$impl$u20$quote..to_tokens..ToTokens$u20$for$u20$syn..item..ImplItemMethod$GT$9to_tokens17h6dcd8d204ee3d041E', symObjAddr: 0x28040, symBinAddr: 0xFEE60, symSize: 0x2C0 }
  - { offsetInCU: 0x7A95C, offset: 0x536C2E, size: 0x8, addend: 0x0, symName: '__ZN3syn4item8printing80_$LT$impl$u20$quote..to_tokens..ToTokens$u20$for$u20$syn..item..ImplItemType$GT$9to_tokens17h10f82f78812ca34bE', symObjAddr: 0x28300, symBinAddr: 0xFF120, symSize: 0x240 }
  - { offsetInCU: 0x7AEF7, offset: 0x5371C9, size: 0x8, addend: 0x0, symName: '__ZN3syn4item8printing85_$LT$impl$u20$quote..to_tokens..ToTokens$u20$for$u20$syn..item..ForeignItemStatic$GT$9to_tokens17heca0d869ed2edd6aE', symObjAddr: 0x28760, symBinAddr: 0xFF360, symSize: 0x210 }
  - { offsetInCU: 0x7B47F, offset: 0x537751, size: 0x8, addend: 0x0, symName: '__ZN3syn4item8printing77_$LT$impl$u20$quote..to_tokens..ToTokens$u20$for$u20$syn..item..Signature$GT$9to_tokens17hd3d401bd2710c1d3E', symObjAddr: 0x28AE0, symBinAddr: 0xFF570, symSize: 0x340 }
  - { offsetInCU: 0x7BC81, offset: 0x537F53, size: 0x8, addend: 0x0, symName: '__ZN3syn4item8printing76_$LT$impl$u20$quote..to_tokens..ToTokens$u20$for$u20$syn..item..Receiver$GT$9to_tokens17h7bfe4f0f0a2e4435E', symObjAddr: 0x28E20, symBinAddr: 0xFF8B0, symSize: 0x220 }
  - { offsetInCU: 0x7C335, offset: 0x538607, size: 0x8, addend: 0x0, symName: '__ZN62_$LT$syn..item..Item$u20$as$u20$quote..to_tokens..ToTokens$GT$9to_tokens17hcfb6fa0e89cea6efE', symObjAddr: 0x29040, symBinAddr: 0xFFAD0, symSize: 0x810 }
  - { offsetInCU: 0x7D679, offset: 0x53994B, size: 0x8, addend: 0x0, symName: '__ZN65_$LT$syn..item..UseTree$u20$as$u20$quote..to_tokens..ToTokens$GT$9to_tokens17h73b4f1c675b83d74E', symObjAddr: 0x29850, symBinAddr: 0x1002E0, symSize: 0x180 }
  - { offsetInCU: 0x7D992, offset: 0x539C64, size: 0x8, addend: 0x0, symName: '__ZN69_$LT$syn..item..ForeignItem$u20$as$u20$quote..to_tokens..ToTokens$GT$9to_tokens17h5811b213ecf647c3E', symObjAddr: 0x299D0, symBinAddr: 0x100460, symSize: 0x350 }
  - { offsetInCU: 0x7E266, offset: 0x53A538, size: 0x8, addend: 0x0, symName: '__ZN67_$LT$syn..item..TraitItem$u20$as$u20$quote..to_tokens..ToTokens$GT$9to_tokens17he9bf5a11f5abb64eE', symObjAddr: 0x29D20, symBinAddr: 0x1007B0, symSize: 0x2E0 }
  - { offsetInCU: 0x7E8FF, offset: 0x53ABD1, size: 0x8, addend: 0x0, symName: '__ZN66_$LT$syn..item..ImplItem$u20$as$u20$quote..to_tokens..ToTokens$GT$9to_tokens17hc241889665e48d04E', symObjAddr: 0x2A000, symBinAddr: 0x100A90, symSize: 0x1B0 }
  - { offsetInCU: 0x7F3A6, offset: 0x53B678, size: 0x8, addend: 0x0, symName: '__ZN3syn3gen5clone67_$LT$impl$u20$core..clone..Clone$u20$for$u20$syn..item..UseTree$GT$5clone17h8f561418b2b5e44fE', symObjAddr: 0x2EE50, symBinAddr: 0x105110, symSize: 0x290 }
  - { offsetInCU: 0x7FCB1, offset: 0x53BF83, size: 0x8, addend: 0x0, symName: '__ZN3syn3gen5clone65_$LT$impl$u20$core..clone..Clone$u20$for$u20$syn..item..FnArg$GT$5clone17h66f8181604bce7dcE', symObjAddr: 0x2A3F0, symBinAddr: 0x100C40, symSize: 0x100 }
  - { offsetInCU: 0x7FF18, offset: 0x53C1EA, size: 0x8, addend: 0x0, symName: '__ZN3syn3gen5clone71_$LT$impl$u20$core..clone..Clone$u20$for$u20$syn..item..ForeignItem$GT$5clone17h70e70dae6a5d9f7fE', symObjAddr: 0x2A4F0, symBinAddr: 0x100D40, symSize: 0x290 }
  - { offsetInCU: 0x80294, offset: 0x53C566, size: 0x8, addend: 0x0, symName: '__ZN3syn3gen5clone77_$LT$impl$u20$core..clone..Clone$u20$for$u20$syn..item..ForeignItemStatic$GT$5clone17h3664278b73a68d1fE', symObjAddr: 0x2A860, symBinAddr: 0x100FD0, symSize: 0x1D0 }
  - { offsetInCU: 0x80735, offset: 0x53CA07, size: 0x8, addend: 0x0, symName: '__ZN3syn3gen5clone75_$LT$impl$u20$core..clone..Clone$u20$for$u20$syn..item..ForeignItemType$GT$5clone17h0605ebd979d8e0f9E', symObjAddr: 0x2AA30, symBinAddr: 0x1011A0, symSize: 0xE0 }
  - { offsetInCU: 0x8089B, offset: 0x53CB6D, size: 0x8, addend: 0x0, symName: '__ZN3syn3gen5clone68_$LT$impl$u20$core..clone..Clone$u20$for$u20$syn..item..ImplItem$GT$5clone17h9da0c001cb875335E', symObjAddr: 0x2AB10, symBinAddr: 0x101280, symSize: 0x1E0 }
  - { offsetInCU: 0x80BDF, offset: 0x53CEB1, size: 0x8, addend: 0x0, symName: '__ZN3syn3gen5clone73_$LT$impl$u20$core..clone..Clone$u20$for$u20$syn..item..ImplItemConst$GT$5clone17h6c1bdd3e9a111bc9E', symObjAddr: 0x2ACF0, symBinAddr: 0x101460, symSize: 0x200 }
  - { offsetInCU: 0x80E95, offset: 0x53D167, size: 0x8, addend: 0x0, symName: '__ZN3syn3gen5clone74_$LT$impl$u20$core..clone..Clone$u20$for$u20$syn..item..ImplItemMethod$GT$5clone17hc69c6508711c3562E', symObjAddr: 0x2AF80, symBinAddr: 0x101660, symSize: 0x160 }
  - { offsetInCU: 0x80F24, offset: 0x53D1F6, size: 0x8, addend: 0x0, symName: '__ZN3syn3gen5clone72_$LT$impl$u20$core..clone..Clone$u20$for$u20$syn..item..ImplItemType$GT$5clone17h11bf73316dc36436E', symObjAddr: 0x2B0E0, symBinAddr: 0x1017C0, symSize: 0x330 }
  - { offsetInCU: 0x812D7, offset: 0x53D5A9, size: 0x8, addend: 0x0, symName: '__ZN3syn3gen5clone64_$LT$impl$u20$core..clone..Clone$u20$for$u20$syn..item..Item$GT$5clone17hc6ebbc1fee216c73E', symObjAddr: 0x2B410, symBinAddr: 0x101AF0, symSize: 0x390 }
  - { offsetInCU: 0x8185C, offset: 0x53DB2E, size: 0x8, addend: 0x0, symName: '__ZN3syn3gen5clone69_$LT$impl$u20$core..clone..Clone$u20$for$u20$syn..item..ItemConst$GT$5clone17he7f8218fcd09ece6E', symObjAddr: 0x2B7A0, symBinAddr: 0x101E80, symSize: 0x260 }
  - { offsetInCU: 0x81F00, offset: 0x53E1D2, size: 0x8, addend: 0x0, symName: '__ZN3syn3gen5clone68_$LT$impl$u20$core..clone..Clone$u20$for$u20$syn..item..ItemEnum$GT$5clone17hf4df4a6f7e7b24e5E', symObjAddr: 0x2BA00, symBinAddr: 0x1020E0, symSize: 0x300 }
  - { offsetInCU: 0x82232, offset: 0x53E504, size: 0x8, addend: 0x0, symName: '__ZN3syn3gen5clone75_$LT$impl$u20$core..clone..Clone$u20$for$u20$syn..item..ItemExternCrate$GT$5clone17h627a0e79ce1fe893E', symObjAddr: 0x2BD00, symBinAddr: 0x1023E0, symSize: 0x180 }
  - { offsetInCU: 0x82547, offset: 0x53E819, size: 0x8, addend: 0x0, symName: '__ZN3syn3gen5clone66_$LT$impl$u20$core..clone..Clone$u20$for$u20$syn..item..ItemFn$GT$5clone17h940429ce1f3d8207E', symObjAddr: 0x2BE80, symBinAddr: 0x102560, symSize: 0x180 }
  - { offsetInCU: 0x827DF, offset: 0x53EAB1, size: 0x8, addend: 0x0, symName: '__ZN3syn3gen5clone68_$LT$impl$u20$core..clone..Clone$u20$for$u20$syn..item..ItemImpl$GT$5clone17h99822f22f76475b6E', symObjAddr: 0x2C0D0, symBinAddr: 0x1026E0, symSize: 0x460 }
  - { offsetInCU: 0x82CE0, offset: 0x53EFB2, size: 0x8, addend: 0x0, symName: '__ZN3syn3gen5clone69_$LT$impl$u20$core..clone..Clone$u20$for$u20$syn..item..ItemMacro$GT$5clone17h65b79b89ccdb0674E', symObjAddr: 0x2C530, symBinAddr: 0x102B40, symSize: 0x110 }
  - { offsetInCU: 0x82F1C, offset: 0x53F1EE, size: 0x8, addend: 0x0, symName: '__ZN3syn3gen5clone70_$LT$impl$u20$core..clone..Clone$u20$for$u20$syn..item..ItemMacro2$GT$5clone17h991c2df9fefed252E', symObjAddr: 0x2C640, symBinAddr: 0x102C50, symSize: 0x1A0 }
  - { offsetInCU: 0x83325, offset: 0x53F5F7, size: 0x8, addend: 0x0, symName: '__ZN3syn3gen5clone67_$LT$impl$u20$core..clone..Clone$u20$for$u20$syn..item..ItemMod$GT$5clone17h56cf528e17dd7490E', symObjAddr: 0x2C7E0, symBinAddr: 0x102DF0, symSize: 0x160 }
  - { offsetInCU: 0x8359F, offset: 0x53F871, size: 0x8, addend: 0x0, symName: '__ZN3syn3gen5clone70_$LT$impl$u20$core..clone..Clone$u20$for$u20$syn..item..ItemStatic$GT$5clone17hdf091bb88ac38b47E', symObjAddr: 0x2C940, symBinAddr: 0x102F50, symSize: 0x280 }
  - { offsetInCU: 0x83C70, offset: 0x53FF42, size: 0x8, addend: 0x0, symName: '__ZN3syn3gen5clone70_$LT$impl$u20$core..clone..Clone$u20$for$u20$syn..item..ItemStruct$GT$5clone17hd8a59448b138557aE', symObjAddr: 0x2CBC0, symBinAddr: 0x1031D0, symSize: 0x380 }
  - { offsetInCU: 0x84085, offset: 0x540357, size: 0x8, addend: 0x0, symName: '__ZN3syn3gen5clone69_$LT$impl$u20$core..clone..Clone$u20$for$u20$syn..item..ItemTrait$GT$5clone17h05a37713845a0c0bE', symObjAddr: 0x2CF40, symBinAddr: 0x103550, symSize: 0x3C0 }
  - { offsetInCU: 0x84443, offset: 0x540715, size: 0x8, addend: 0x0, symName: '__ZN3syn3gen5clone74_$LT$impl$u20$core..clone..Clone$u20$for$u20$syn..item..ItemTraitAlias$GT$5clone17hf8c8d2db95754afdE', symObjAddr: 0x2D300, symBinAddr: 0x103910, symSize: 0x310 }
  - { offsetInCU: 0x847A3, offset: 0x540A75, size: 0x8, addend: 0x0, symName: '__ZN3syn3gen5clone68_$LT$impl$u20$core..clone..Clone$u20$for$u20$syn..item..ItemType$GT$5clone17h1d1420c2f836bc7eE', symObjAddr: 0x2D610, symBinAddr: 0x103C20, symSize: 0x340 }
  - { offsetInCU: 0x84D1F, offset: 0x540FF1, size: 0x8, addend: 0x0, symName: '__ZN3syn3gen5clone69_$LT$impl$u20$core..clone..Clone$u20$for$u20$syn..item..ItemUnion$GT$5clone17h7b2f56fc86343981E', symObjAddr: 0x2D950, symBinAddr: 0x103F60, symSize: 0x310 }
  - { offsetInCU: 0x8504F, offset: 0x541321, size: 0x8, addend: 0x0, symName: '__ZN3syn3gen5clone67_$LT$impl$u20$core..clone..Clone$u20$for$u20$syn..item..ItemUse$GT$5clone17h16e4d2ca744347fbE', symObjAddr: 0x2DC60, symBinAddr: 0x104270, symSize: 0x110 }
  - { offsetInCU: 0x8510F, offset: 0x5413E1, size: 0x8, addend: 0x0, symName: '__ZN3syn3gen5clone69_$LT$impl$u20$core..clone..Clone$u20$for$u20$syn..item..Signature$GT$5clone17h527c1da3117ac0c2E', symObjAddr: 0x2DE50, symBinAddr: 0x104380, symSize: 0x530 }
  - { offsetInCU: 0x85914, offset: 0x541BE6, size: 0x8, addend: 0x0, symName: '__ZN3syn3gen5clone69_$LT$impl$u20$core..clone..Clone$u20$for$u20$syn..item..TraitItem$GT$5clone17h3b82f8b5271b5af7E', symObjAddr: 0x2E380, symBinAddr: 0x1048B0, symSize: 0x1E0 }
  - { offsetInCU: 0x85C58, offset: 0x541F2A, size: 0x8, addend: 0x0, symName: '__ZN3syn3gen5clone74_$LT$impl$u20$core..clone..Clone$u20$for$u20$syn..item..TraitItemConst$GT$5clone17ha12a3469e74263a0E', symObjAddr: 0x2E560, symBinAddr: 0x104A90, symSize: 0x1E0 }
  - { offsetInCU: 0x85F15, offset: 0x5421E7, size: 0x8, addend: 0x0, symName: '__ZN3syn3gen5clone75_$LT$impl$u20$core..clone..Clone$u20$for$u20$syn..item..TraitItemMethod$GT$5clone17hc5f98fa3110d949bE', symObjAddr: 0x2E740, symBinAddr: 0x104C70, symSize: 0x130 }
  - { offsetInCU: 0x86009, offset: 0x5422DB, size: 0x8, addend: 0x0, symName: '__ZN3syn3gen5clone73_$LT$impl$u20$core..clone..Clone$u20$for$u20$syn..item..TraitItemType$GT$5clone17h322c8f681c4ed7c4E', symObjAddr: 0x2E870, symBinAddr: 0x104DA0, symSize: 0x370 }
  - { offsetInCU: 0x86438, offset: 0x54270A, size: 0x8, addend: 0x0, symName: '__ZN3syn3gen2eq67_$LT$impl$u20$core..cmp..PartialEq$u20$for$u20$syn..item..FnArg$GT$2eq17h102671ba44c422f6E', symObjAddr: 0x2F0E0, symBinAddr: 0x1053A0, symSize: 0xE0 }
  - { offsetInCU: 0x867F8, offset: 0x542ACA, size: 0x8, addend: 0x0, symName: '__ZN3syn3gen2eq73_$LT$impl$u20$core..cmp..PartialEq$u20$for$u20$syn..item..ForeignItem$GT$2eq17h003aa9bdffab973bE', symObjAddr: 0x2F1C0, symBinAddr: 0x105480, symSize: 0x1E0 }
  - { offsetInCU: 0x86CBC, offset: 0x542F8E, size: 0x8, addend: 0x0, symName: '__ZN3syn3gen2eq70_$LT$impl$u20$core..cmp..PartialEq$u20$for$u20$syn..item..ImplItem$GT$2eq17hc0de2d03ed462046E', symObjAddr: 0x2F4E0, symBinAddr: 0x105660, symSize: 0x2D0 }
  - { offsetInCU: 0x872AD, offset: 0x54357F, size: 0x8, addend: 0x0, symName: '__ZN3syn3gen2eq66_$LT$impl$u20$core..cmp..PartialEq$u20$for$u20$syn..item..Item$GT$2eq17h6af37cc9b9e7e670E', symObjAddr: 0x2FA30, symBinAddr: 0x105930, symSize: 0x750 }
  - { offsetInCU: 0x87FB2, offset: 0x544284, size: 0x8, addend: 0x0, symName: '__ZN3syn3gen2eq70_$LT$impl$u20$core..cmp..PartialEq$u20$for$u20$syn..item..ItemImpl$GT$2eq17h563221463a765477E', symObjAddr: 0x30520, symBinAddr: 0x106080, symSize: 0x150 }
  - { offsetInCU: 0x88234, offset: 0x544506, size: 0x8, addend: 0x0, symName: '__ZN3syn3gen2eq69_$LT$impl$u20$core..cmp..PartialEq$u20$for$u20$syn..item..ItemMod$GT$2eq17hdc5f67866ec2af41E', symObjAddr: 0x30770, symBinAddr: 0x1061D0, symSize: 0xE0 }
  - { offsetInCU: 0x884B0, offset: 0x544782, size: 0x8, addend: 0x0, symName: '__ZN3syn3gen2eq72_$LT$impl$u20$core..cmp..PartialEq$u20$for$u20$syn..item..ItemStatic$GT$2eq17h55f9c31921515de1E', symObjAddr: 0x30850, symBinAddr: 0x1062B0, symSize: 0x90 }
  - { offsetInCU: 0x885E5, offset: 0x5448B7, size: 0x8, addend: 0x0, symName: '__ZN3syn3gen2eq71_$LT$impl$u20$core..cmp..PartialEq$u20$for$u20$syn..item..ItemTrait$GT$2eq17hd4919abdb24c2454E', symObjAddr: 0x30970, symBinAddr: 0x106340, symSize: 0x140 }
  - { offsetInCU: 0x887E5, offset: 0x544AB7, size: 0x8, addend: 0x0, symName: '__ZN3syn3gen2eq71_$LT$impl$u20$core..cmp..PartialEq$u20$for$u20$syn..item..Signature$GT$2eq17h799bf65b78394d25E', symObjAddr: 0x30E10, symBinAddr: 0x106480, symSize: 0x1A0 }
  - { offsetInCU: 0x88AB9, offset: 0x544D8B, size: 0x8, addend: 0x0, symName: '__ZN3syn3gen2eq71_$LT$impl$u20$core..cmp..PartialEq$u20$for$u20$syn..item..TraitItem$GT$2eq17h20f33bfda480f0f5E', symObjAddr: 0x30FB0, symBinAddr: 0x106620, symSize: 0x230 }
  - { offsetInCU: 0x88EB7, offset: 0x545189, size: 0x8, addend: 0x0, symName: '__ZN3syn3gen2eq75_$LT$impl$u20$core..cmp..PartialEq$u20$for$u20$syn..item..TraitItemType$GT$2eq17h1d7806cdd6d8f2d2E', symObjAddr: 0x31370, symBinAddr: 0x106850, symSize: 0x110 }
  - { offsetInCU: 0x89151, offset: 0x545423, size: 0x8, addend: 0x0, symName: '__ZN3syn3gen2eq69_$LT$impl$u20$core..cmp..PartialEq$u20$for$u20$syn..item..UseTree$GT$2eq17h78b5bdd9a143770eE', symObjAddr: 0x315B0, symBinAddr: 0x106960, symSize: 0x170 }
  - { offsetInCU: 0x8CFAA, offset: 0x54927C, size: 0x8, addend: 0x0, symName: '__ZN5alloc3vec16Vec$LT$T$C$A$GT$15append_elements17h515b13e7a2841833E', symObjAddr: 0xC990, symBinAddr: 0xEA810, symSize: 0x70 }
  - { offsetInCU: 0x8D221, offset: 0x5494F3, size: 0x8, addend: 0x0, symName: __ZN3syn4item4Item13replace_attrs17h27bc8d233ea7e24cE, symObjAddr: 0xD2C0, symBinAddr: 0xEA9C0, symSize: 0x1C0 }
  - { offsetInCU: 0x1E, offset: 0x55C42A, size: 0x8, addend: 0x0, symName: '__ZN4core3ptr100drop_in_place$LT$core..option..Option$LT$alloc..boxed..Box$LT$syn..generics..LifetimeDef$GT$$GT$$GT$17h75a6086997697dd7E.llvm.16532739692444164112', symObjAddr: 0x0, symBinAddr: 0x106AD0, symSize: 0x50 }
  - { offsetInCU: 0x16D5, offset: 0x55DAE1, size: 0x8, addend: 0x0, symName: '__ZN111_$LT$syn..punctuated..PrivateIter$LT$T$C$P$GT$$u20$as$u20$core..iter..traits..exact_size..ExactSizeIterator$GT$3len17hf0eb6e48e300523aE.llvm.16532739692444164112', symObjAddr: 0x124F0, symBinAddr: 0x1150E0, symSize: 0x0 }
  - { offsetInCU: 0x17A0, offset: 0x55DBAC, size: 0x8, addend: 0x0, symName: '__ZN111_$LT$syn..punctuated..PrivateIter$LT$T$C$P$GT$$u20$as$u20$core..iter..traits..exact_size..ExactSizeIterator$GT$3len17hf961cff6ad363ebcE.llvm.16532739692444164112', symObjAddr: 0x12520, symBinAddr: 0x115110, symSize: 0x30 }
  - { offsetInCU: 0x1A17, offset: 0x55DE23, size: 0x8, addend: 0x0, symName: '__ZN115_$LT$syn..punctuated..PrivateIter$LT$T$C$P$GT$$u20$as$u20$core..iter..traits..double_ended..DoubleEndedIterator$GT$9next_back17h511dcfc6e4846953E.llvm.16532739692444164112', symObjAddr: 0x12400, symBinAddr: 0x115080, symSize: 0x30 }
  - { offsetInCU: 0x1CBD, offset: 0x55E0C9, size: 0x8, addend: 0x0, symName: '__ZN115_$LT$syn..punctuated..PrivateIter$LT$T$C$P$GT$$u20$as$u20$core..iter..traits..double_ended..DoubleEndedIterator$GT$9next_back17hb6748fd670fb3ec7E.llvm.16532739692444164112', symObjAddr: 0x12460, symBinAddr: 0x1150B0, symSize: 0x0 }
  - { offsetInCU: 0x215E, offset: 0x55E56A, size: 0x8, addend: 0x0, symName: '__ZN100_$LT$syn..punctuated..PrivateIter$LT$T$C$P$GT$$u20$as$u20$core..iter..traits..iterator..Iterator$GT$4next17h6d856dbf85f5e49bE.llvm.16532739692444164112', symObjAddr: 0x12340, symBinAddr: 0x114FF0, symSize: 0x30 }
  - { offsetInCU: 0x23D8, offset: 0x55E7E4, size: 0x8, addend: 0x0, symName: '__ZN100_$LT$syn..punctuated..PrivateIter$LT$T$C$P$GT$$u20$as$u20$core..iter..traits..iterator..Iterator$GT$4next17h7d488a113c538d31E.llvm.16532739692444164112', symObjAddr: 0x12370, symBinAddr: 0x115020, symSize: 0x0 }
  - { offsetInCU: 0x2652, offset: 0x55EA5E, size: 0x8, addend: 0x0, symName: '__ZN100_$LT$syn..punctuated..PrivateIter$LT$T$C$P$GT$$u20$as$u20$core..iter..traits..iterator..Iterator$GT$4next17h7d8b0100903e1490E.llvm.16532739692444164112', symObjAddr: 0x123A0, symBinAddr: 0x115050, symSize: 0x30 }
  - { offsetInCU: 0x2E13, offset: 0x55F21F, size: 0x8, addend: 0x0, symName: '__ZN79_$LT$syn..punctuated..Punctuated$LT$T$C$P$GT$$u20$as$u20$core..clone..Clone$GT$5clone17h11f716f7c70263efE', symObjAddr: 0xDDE0, symBinAddr: 0x113290, symSize: 0xE0 }
  - { offsetInCU: 0x3099, offset: 0x55F4A5, size: 0x8, addend: 0x0, symName: '__ZN79_$LT$syn..punctuated..Punctuated$LT$T$C$P$GT$$u20$as$u20$core..clone..Clone$GT$5clone17h16b574025162a927E', symObjAddr: 0xDEC0, symBinAddr: 0x113370, symSize: 0xC0 }
  - { offsetInCU: 0x32C7, offset: 0x55F6D3, size: 0x8, addend: 0x0, symName: '__ZN79_$LT$syn..punctuated..Punctuated$LT$T$C$P$GT$$u20$as$u20$core..clone..Clone$GT$5clone17h248ce364975e5563E', symObjAddr: 0xDF80, symBinAddr: 0x113430, symSize: 0xE0 }
  - { offsetInCU: 0x354E, offset: 0x55F95A, size: 0x8, addend: 0x0, symName: '__ZN79_$LT$syn..punctuated..Punctuated$LT$T$C$P$GT$$u20$as$u20$core..clone..Clone$GT$5clone17h2cb3b5c3adb260feE', symObjAddr: 0xE060, symBinAddr: 0x113510, symSize: 0xE0 }
  - { offsetInCU: 0x37D5, offset: 0x55FBE1, size: 0x8, addend: 0x0, symName: '__ZN79_$LT$syn..punctuated..Punctuated$LT$T$C$P$GT$$u20$as$u20$core..clone..Clone$GT$5clone17h56e1f4ad041a44ceE', symObjAddr: 0xE240, symBinAddr: 0x1135F0, symSize: 0xE0 }
  - { offsetInCU: 0x3A5C, offset: 0x55FE68, size: 0x8, addend: 0x0, symName: '__ZN79_$LT$syn..punctuated..Punctuated$LT$T$C$P$GT$$u20$as$u20$core..clone..Clone$GT$5clone17h5806b3a5c1b4f2a6E', symObjAddr: 0xE320, symBinAddr: 0x1136D0, symSize: 0xE0 }
  - { offsetInCU: 0x3CE2, offset: 0x5600EE, size: 0x8, addend: 0x0, symName: '__ZN79_$LT$syn..punctuated..Punctuated$LT$T$C$P$GT$$u20$as$u20$core..clone..Clone$GT$5clone17h682a84abd40a7cfeE', symObjAddr: 0xE400, symBinAddr: 0x1137B0, symSize: 0xE0 }
  - { offsetInCU: 0x3F69, offset: 0x560375, size: 0x8, addend: 0x0, symName: '__ZN79_$LT$syn..punctuated..Punctuated$LT$T$C$P$GT$$u20$as$u20$core..clone..Clone$GT$5clone17h748e57bad821d612E', symObjAddr: 0xE4E0, symBinAddr: 0x113890, symSize: 0xD0 }
  - { offsetInCU: 0x41EF, offset: 0x5605FB, size: 0x8, addend: 0x0, symName: '__ZN79_$LT$syn..punctuated..Punctuated$LT$T$C$P$GT$$u20$as$u20$core..clone..Clone$GT$5clone17h7dc69fd3509f726bE', symObjAddr: 0xE6D0, symBinAddr: 0x113960, symSize: 0xE0 }
  - { offsetInCU: 0x4476, offset: 0x560882, size: 0x8, addend: 0x0, symName: '__ZN79_$LT$syn..punctuated..Punctuated$LT$T$C$P$GT$$u20$as$u20$core..clone..Clone$GT$5clone17had7f902178348c63E', symObjAddr: 0xE9A0, symBinAddr: 0x113A40, symSize: 0x180 }
  - { offsetInCU: 0x4848, offset: 0x560C54, size: 0x8, addend: 0x0, symName: '__ZN79_$LT$syn..punctuated..Punctuated$LT$T$C$P$GT$$u20$as$u20$core..clone..Clone$GT$5clone17hb75d2d633cc2d1edE', symObjAddr: 0xEB20, symBinAddr: 0x113BC0, symSize: 0x110 }
  - { offsetInCU: 0x4BAB, offset: 0x560FB7, size: 0x8, addend: 0x0, symName: '__ZN79_$LT$syn..punctuated..Punctuated$LT$T$C$P$GT$$u20$as$u20$core..clone..Clone$GT$5clone17hd0e9f97bdac7287eE', symObjAddr: 0xED10, symBinAddr: 0x113CD0, symSize: 0x150 }
  - { offsetInCU: 0x4E7E, offset: 0x56128A, size: 0x8, addend: 0x0, symName: '__ZN79_$LT$syn..punctuated..Punctuated$LT$T$C$P$GT$$u20$as$u20$core..clone..Clone$GT$5clone17he55a9d80253adee0E', symObjAddr: 0xEF40, symBinAddr: 0x113E20, symSize: 0xE0 }
  - { offsetInCU: 0x510B, offset: 0x561517, size: 0x8, addend: 0x0, symName: '__ZN81_$LT$syn..punctuated..Punctuated$LT$T$C$P$GT$$u20$as$u20$core..cmp..PartialEq$GT$2eq17h6e866a1a0cfc4b13E', symObjAddr: 0xF340, symBinAddr: 0x113F00, symSize: 0x60 }
  - { offsetInCU: 0x52BD, offset: 0x5616C9, size: 0x8, addend: 0x0, symName: '__ZN81_$LT$syn..punctuated..Punctuated$LT$T$C$P$GT$$u20$as$u20$core..cmp..PartialEq$GT$2eq17h7ef18cf890f59f33E', symObjAddr: 0xF3A0, symBinAddr: 0x113F60, symSize: 0x330 }
  - { offsetInCU: 0x5C3E, offset: 0x56204A, size: 0x8, addend: 0x0, symName: '__ZN81_$LT$syn..punctuated..Punctuated$LT$T$C$P$GT$$u20$as$u20$core..cmp..PartialEq$GT$2eq17h850cefd32b9902faE', symObjAddr: 0xF6D0, symBinAddr: 0x114290, symSize: 0x0 }
  - { offsetInCU: 0x5E2A, offset: 0x562236, size: 0x8, addend: 0x0, symName: '__ZN81_$LT$syn..punctuated..Punctuated$LT$T$C$P$GT$$u20$as$u20$core..cmp..PartialEq$GT$2eq17ha25b16efd7989bfdE', symObjAddr: 0xF770, symBinAddr: 0x114330, symSize: 0xA0 }
  - { offsetInCU: 0x6016, offset: 0x562422, size: 0x8, addend: 0x0, symName: '__ZN81_$LT$syn..punctuated..Punctuated$LT$T$C$P$GT$$u20$as$u20$core..cmp..PartialEq$GT$2eq17hc76b0cef24d0526dE', symObjAddr: 0xF9B0, symBinAddr: 0x1143D0, symSize: 0xA0 }
  - { offsetInCU: 0x625A, offset: 0x562666, size: 0x8, addend: 0x0, symName: '__ZN81_$LT$syn..punctuated..Punctuated$LT$T$C$P$GT$$u20$as$u20$core..cmp..PartialEq$GT$2eq17hd443eaf912a6ce1bE', symObjAddr: 0xFA50, symBinAddr: 0x114470, symSize: 0x180 }
  - { offsetInCU: 0x6652, offset: 0x562A5E, size: 0x8, addend: 0x0, symName: '__ZN81_$LT$syn..punctuated..Punctuated$LT$T$C$P$GT$$u20$as$u20$core..cmp..PartialEq$GT$2eq17hd6e7e0cc41d0151eE', symObjAddr: 0xFBD0, symBinAddr: 0x1145F0, symSize: 0x60 }
  - { offsetInCU: 0x67AC, offset: 0x562BB8, size: 0x8, addend: 0x0, symName: '__ZN81_$LT$syn..punctuated..Punctuated$LT$T$C$P$GT$$u20$as$u20$core..cmp..PartialEq$GT$2eq17hff34a776e3f01d88E', symObjAddr: 0xFE50, symBinAddr: 0x114650, symSize: 0x60 }
  - { offsetInCU: 0x69A3, offset: 0x562DAF, size: 0x8, addend: 0x0, symName: '__ZN138_$LT$syn..punctuated..Punctuated$LT$T$C$P$GT$$u20$as$u20$core..iter..traits..collect..Extend$LT$syn..punctuated..Pair$LT$T$C$P$GT$$GT$$GT$6extend17h46e8b111646272d1E', symObjAddr: 0x110F0, symBinAddr: 0x1149F0, symSize: 0x340 }
  - { offsetInCU: 0x719F, offset: 0x5635AB, size: 0x8, addend: 0x0, symName: '__ZN144_$LT$syn..punctuated..Punctuated$LT$T$C$P$GT$$u20$as$u20$core..iter..traits..collect..FromIterator$LT$syn..punctuated..Pair$LT$T$C$P$GT$$GT$$GT$9from_iter17he2cbff5f009ca769E', symObjAddr: 0x10DB0, symBinAddr: 0x1146B0, symSize: 0x340 }
  - { offsetInCU: 0x77D4, offset: 0x563BE0, size: 0x8, addend: 0x0, symName: '__ZN102_$LT$syn..punctuated..Punctuated$LT$T$C$P$GT$$u20$as$u20$core..iter..traits..collect..IntoIterator$GT$9into_iter17h83e18cee80a4ec2fE', symObjAddr: 0x11710, symBinAddr: 0x114D30, symSize: 0x2C0 }
  - { offsetInCU: 0x8F50, offset: 0x56535C, size: 0x8, addend: 0x0, symName: '__ZN57_$LT$I$u20$as$u20$syn..punctuated..IterTrait$LT$T$GT$$GT$9clone_box17h4a399b36d0c6d85cE.llvm.16532739692444164112', symObjAddr: 0x125B0, symBinAddr: 0x115140, symSize: 0x60 }
  - { offsetInCU: 0x915D, offset: 0x565569, size: 0x8, addend: 0x0, symName: '__ZN57_$LT$I$u20$as$u20$syn..punctuated..IterTrait$LT$T$GT$$GT$9clone_box17hf91e00e1143972f2E.llvm.16532739692444164112', symObjAddr: 0x12670, symBinAddr: 0x1151A0, symSize: 0x60 }
  - { offsetInCU: 0x9370, offset: 0x56577C, size: 0x8, addend: 0x0, symName: '__ZN97_$LT$syn..punctuated..Punctuated$LT$T$C$P$GT$$u20$as$u20$core..ops..index..Index$LT$usize$GT$$GT$5index17ha3e39e7328b6f7abE', symObjAddr: 0x126D0, symBinAddr: 0x115200, symSize: 0x50 }
  - { offsetInCU: 0x94BE, offset: 0x5658CA, size: 0x8, addend: 0x0, symName: '__ZN3syn10punctuated8printing97_$LT$impl$u20$quote..to_tokens..ToTokens$u20$for$u20$syn..punctuated..Punctuated$LT$T$C$P$GT$$GT$9to_tokens17h4c504ab6a95422ddE', symObjAddr: 0x12880, symBinAddr: 0x115250, symSize: 0x150 }
  - { offsetInCU: 0x15D1A, offset: 0x572126, size: 0x8, addend: 0x0, symName: '__ZN4core3ptr100drop_in_place$LT$core..option..Option$LT$alloc..boxed..Box$LT$syn..generics..LifetimeDef$GT$$GT$$GT$17h75a6086997697dd7E.llvm.16532739692444164112', symObjAddr: 0x0, symBinAddr: 0x106AD0, symSize: 0x50 }
  - { offsetInCU: 0x15E9C, offset: 0x5722A8, size: 0x8, addend: 0x0, symName: '__ZN4core3ptr100drop_in_place$LT$core..option..Option$LT$alloc..boxed..Box$LT$syn..path..GenericArgument$GT$$GT$$GT$17h3d29ec00a8f1918dE.llvm.16532739692444164112', symObjAddr: 0x50, symBinAddr: 0x106B20, symSize: 0x50 }
  - { offsetInCU: 0x1602B, offset: 0x572437, size: 0x8, addend: 0x0, symName: '__ZN4core3ptr101drop_in_place$LT$alloc..vec..Vec$LT$$LP$syn..generics..WherePredicate$C$syn..token..Comma$RP$$GT$$GT$17h08dfdcabd164aa70E.llvm.16532739692444164112', symObjAddr: 0xA0, symBinAddr: 0x106B70, symSize: 0xD0 }
  - { offsetInCU: 0x16472, offset: 0x57287E, size: 0x8, addend: 0x0, symName: '__ZN4core3ptr103drop_in_place$LT$core..option..Option$LT$alloc..boxed..Box$LT$syn..generics..TypeParamBound$GT$$GT$$GT$17h6cee73bc2b2ecea8E.llvm.16532739692444164112', symObjAddr: 0x170, symBinAddr: 0x106C40, symSize: 0x150 }
  - { offsetInCU: 0x16A30, offset: 0x572E3C, size: 0x8, addend: 0x0, symName: '__ZN4core3ptr103drop_in_place$LT$syn..punctuated..Punctuated$LT$syn..generics..TypeParamBound$C$syn..token..Add$GT$$GT$17he811d520c92af08aE.llvm.16532739692444164112', symObjAddr: 0x2C0, symBinAddr: 0x106D90, symSize: 0xF0 }
  - { offsetInCU: 0x16F6D, offset: 0x573379, size: 0x8, addend: 0x0, symName: '__ZN4core3ptr104drop_in_place$LT$alloc..vec..Vec$LT$$LP$syn..expr..GenericMethodArgument$C$syn..token..Comma$RP$$GT$$GT$17heae48b13c44e912aE.llvm.16532739692444164112', symObjAddr: 0x3B0, symBinAddr: 0x106E80, symSize: 0xF0 }
  - { offsetInCU: 0x172D7, offset: 0x5736E3, size: 0x8, addend: 0x0, symName: '__ZN4core3ptr108drop_in_place$LT$syn..punctuated..Punctuated$LT$syn..expr..GenericMethodArgument$C$syn..token..Comma$GT$$GT$17h92cbabe4862b2183E', symObjAddr: 0x4A0, symBinAddr: 0x106F70, symSize: 0x150 }
  - { offsetInCU: 0x177B4, offset: 0x573BC0, size: 0x8, addend: 0x0, symName: '__ZN4core3ptr126drop_in_place$LT$core..option..Option$LT$$LP$syn..token..And$C$core..option..Option$LT$syn..lifetime..Lifetime$GT$$RP$$GT$$GT$17h5979d670cb45416cE', symObjAddr: 0x5F0, symBinAddr: 0x1070C0, symSize: 0x30 }
  - { offsetInCU: 0x179C7, offset: 0x573DD3, size: 0x8, addend: 0x0, symName: '__ZN4core3ptr34drop_in_place$LT$syn..lit..Lit$GT$17hbe1efe749a08dd9aE', symObjAddr: 0x620, symBinAddr: 0x1070F0, symSize: 0x110 }
  - { offsetInCU: 0x17E77, offset: 0x574283, size: 0x8, addend: 0x0, symName: '__ZN4core3ptr34drop_in_place$LT$syn..pat..Pat$GT$17h3201f642e43ac2a2E.llvm.16532739692444164112', symObjAddr: 0x730, symBinAddr: 0x107200, symSize: 0x1190 }
  - { offsetInCU: 0x1BD71, offset: 0x57817D, size: 0x8, addend: 0x0, symName: '__ZN4core3ptr34drop_in_place$LT$syn..ty..Type$GT$17hfb5d159a08190130E.llvm.16532739692444164112', symObjAddr: 0x18C0, symBinAddr: 0x108390, symSize: 0x580 }
  - { offsetInCU: 0x1D018, offset: 0x579424, size: 0x8, addend: 0x0, symName: '__ZN4core3ptr36drop_in_place$LT$syn..attr..Meta$GT$17ha0d33cab48037a79E', symObjAddr: 0x1E40, symBinAddr: 0x108910, symSize: 0x2C0 }
  - { offsetInCU: 0x1DFDB, offset: 0x57A3E7, size: 0x8, addend: 0x0, symName: '__ZN4core3ptr36drop_in_place$LT$syn..expr..Expr$GT$17hf1921d1b09462bc3E.llvm.16532739692444164112', symObjAddr: 0x2100, symBinAddr: 0x108BD0, symSize: 0x3290 }
  - { offsetInCU: 0x2886D, offset: 0x584C79, size: 0x8, addend: 0x0, symName: '__ZN4core3ptr36drop_in_place$LT$syn..mac..Macro$GT$17h205613d7ad575f72E', symObjAddr: 0x5390, symBinAddr: 0x10BE60, symSize: 0x40 }
  - { offsetInCU: 0x288A7, offset: 0x584CB3, size: 0x8, addend: 0x0, symName: '__ZN4core3ptr36drop_in_place$LT$syn..path..Path$GT$17he6d0bec66d66b98aE.llvm.16532739692444164112', symObjAddr: 0x53D0, symBinAddr: 0x10BEA0, symSize: 0xE0 }
  - { offsetInCU: 0x28BB6, offset: 0x584FC2, size: 0x8, addend: 0x0, symName: '__ZN4core3ptr37drop_in_place$LT$syn..data..Field$GT$17h6bfcb460cfa4c863E.llvm.16532739692444164112', symObjAddr: 0x54B0, symBinAddr: 0x10BF80, symSize: 0x150 }
  - { offsetInCU: 0x28FF5, offset: 0x585401, size: 0x8, addend: 0x0, symName: '__ZN4core3ptr37drop_in_place$LT$syn..item..FnArg$GT$17h52a13b3505938de2E.llvm.16532739692444164112', symObjAddr: 0x5600, symBinAddr: 0x10C0D0, symSize: 0x290 }
  - { offsetInCU: 0x29A4D, offset: 0x585E59, size: 0x8, addend: 0x0, symName: '__ZN4core3ptr37drop_in_place$LT$syn..stmt..Block$GT$17h3aa429e75a234230E', symObjAddr: 0x5890, symBinAddr: 0x10C360, symSize: 0xD0 }
  - { offsetInCU: 0x29D24, offset: 0x586130, size: 0x8, addend: 0x0, symName: '__ZN4core3ptr38drop_in_place$LT$syn..expr..Member$GT$17ha113d37a67d27aafE.llvm.16532739692444164112', symObjAddr: 0x5960, symBinAddr: 0x10C430, symSize: 0x30 }
  - { offsetInCU: 0x29E20, offset: 0x58622C, size: 0x8, addend: 0x0, symName: '__ZN4core3ptr39drop_in_place$LT$proc_macro2..Ident$GT$17hdeec010483268a0dE', symObjAddr: 0x5990, symBinAddr: 0x10C460, symSize: 0x30 }
  - { offsetInCU: 0x29F5A, offset: 0x586366, size: 0x8, addend: 0x0, symName: '__ZN4core3ptr39drop_in_place$LT$syn..data..Variant$GT$17hdf59a2045a52b17cE', symObjAddr: 0x59C0, symBinAddr: 0x10C490, symSize: 0x170 }
  - { offsetInCU: 0x2A45B, offset: 0x586867, size: 0x8, addend: 0x0, symName: '__ZN4core3ptr39drop_in_place$LT$syn..item..UseTree$GT$17h78d4ed19b48b8cbfE', symObjAddr: 0x5B30, symBinAddr: 0x10C600, symSize: 0xE0 }
  - { offsetInCU: 0x2A821, offset: 0x586C2D, size: 0x8, addend: 0x0, symName: '__ZN4core3ptr39drop_in_place$LT$syn..pat..FieldPat$GT$17hbb4451e28b58676aE.llvm.16532739692444164112', symObjAddr: 0x5C10, symBinAddr: 0x10C6E0, symSize: 0x150 }
  - { offsetInCU: 0x2AD83, offset: 0x58718F, size: 0x8, addend: 0x0, symName: '__ZN4core3ptr39drop_in_place$LT$syn..pat..PatTuple$GT$17h96faeea9832d4c4bE', symObjAddr: 0x5D60, symBinAddr: 0x10C830, symSize: 0x100 }
  - { offsetInCU: 0x2B0CA, offset: 0x5874D6, size: 0x8, addend: 0x0, symName: '__ZN4core3ptr39drop_in_place$LT$syn..ty..BareFnArg$GT$17hed52ce54f3b53a34E.llvm.16532739692444164112', symObjAddr: 0x5E60, symBinAddr: 0x10C930, symSize: 0x120 }
  - { offsetInCU: 0x2B4D7, offset: 0x5878E3, size: 0x8, addend: 0x0, symName: '__ZN4core3ptr40drop_in_place$LT$syn..ty..ReturnType$GT$17h6f97c9fdb958983eE', symObjAddr: 0x5F80, symBinAddr: 0x10CA50, symSize: 0x50 }
  - { offsetInCU: 0x2B647, offset: 0x587A53, size: 0x8, addend: 0x0, symName: '__ZN4core3ptr42drop_in_place$LT$syn..attr..NestedMeta$GT$17hb8773e095b93d12eE', symObjAddr: 0x5FD0, symBinAddr: 0x10CAA0, symSize: 0x30 }
  - { offsetInCU: 0x2B6A2, offset: 0x587AAE, size: 0x8, addend: 0x0, symName: '__ZN4core3ptr42drop_in_place$LT$syn..data..Visibility$GT$17h27e8b6ad307fcbc7E', symObjAddr: 0x6000, symBinAddr: 0x10CAD0, symSize: 0x120 }
  - { offsetInCU: 0x2BAF8, offset: 0x587F04, size: 0x8, addend: 0x0, symName: '__ZN4core3ptr42drop_in_place$LT$syn..expr..FieldValue$GT$17h42a16bcbdc918058E.llvm.16532739692444164112', symObjAddr: 0x6120, symBinAddr: 0x10CBF0, symSize: 0x120 }
  - { offsetInCU: 0x2BF9F, offset: 0x5883AB, size: 0x8, addend: 0x0, symName: '__ZN4core3ptr43drop_in_place$LT$syn..path..PathSegment$GT$17h3d0f44137dd31bf9E.llvm.16532739692444164112', symObjAddr: 0x6240, symBinAddr: 0x10CD10, symSize: 0x170 }
  - { offsetInCU: 0x2C4FF, offset: 0x58890B, size: 0x8, addend: 0x0, symName: '__ZN4core3ptr44drop_in_place$LT$syn..lifetime..Lifetime$GT$17h3858225df033648aE.llvm.16532739692444164112', symObjAddr: 0x63B0, symBinAddr: 0x10CE80, symSize: 0x30 }
  - { offsetInCU: 0x2C731, offset: 0x588B3D, size: 0x8, addend: 0x0, symName: '__ZN4core3ptr45drop_in_place$LT$proc_macro2..TokenStream$GT$17h2507cb30e765dc85E', symObjAddr: 0x63E0, symBinAddr: 0x10CEB0, symSize: 0x140 }
  - { offsetInCU: 0x2CB8D, offset: 0x588F99, size: 0x8, addend: 0x0, symName: '__ZN4core3ptr47drop_in_place$LT$syn..generics..LifetimeDef$GT$17hd04bc9e6ed9dfb47E.llvm.16532739692444164112', symObjAddr: 0x6520, symBinAddr: 0x10CFF0, symSize: 0x120 }
  - { offsetInCU: 0x2CFE9, offset: 0x5893F5, size: 0x8, addend: 0x0, symName: '__ZN4core3ptr47drop_in_place$LT$syn..path..GenericArgument$GT$17h8c0a0d8c6deaefb4E.llvm.16532739692444164112', symObjAddr: 0x6640, symBinAddr: 0x10D110, symSize: 0x110 }
  - { offsetInCU: 0x2D380, offset: 0x58978C, size: 0x8, addend: 0x0, symName: '__ZN4core3ptr48drop_in_place$LT$syn..generics..GenericParam$GT$17h9292481f35bf25edE.llvm.16532739692444164112', symObjAddr: 0x6750, symBinAddr: 0x10D220, symSize: 0x300 }
  - { offsetInCU: 0x2DBA5, offset: 0x589FB1, size: 0x8, addend: 0x0, symName: '__ZN4core3ptr50drop_in_place$LT$syn..generics..TypeParamBound$GT$17h8d9a306b4a7f920fE.llvm.16532739692444164112', symObjAddr: 0x6A50, symBinAddr: 0x10D520, symSize: 0x150 }
  - { offsetInCU: 0x2E018, offset: 0x58A424, size: 0x8, addend: 0x0, symName: '__ZN4core3ptr50drop_in_place$LT$syn..generics..WherePredicate$GT$17h1fc5b3da95266304E.llvm.16532739692444164112', symObjAddr: 0x6BA0, symBinAddr: 0x10D670, symSize: 0x100 }
  - { offsetInCU: 0x2E1A0, offset: 0x58A5AC, size: 0x8, addend: 0x0, symName: '__ZN4core3ptr53drop_in_place$LT$syn..expr..GenericMethodArgument$GT$17h74a5a2396c2f7da6E.llvm.16532739692444164112', symObjAddr: 0x6CA0, symBinAddr: 0x10D770, symSize: 0x30 }
  - { offsetInCU: 0x2E1BD, offset: 0x58A5C9, size: 0x8, addend: 0x0, symName: '__ZN4core3ptr58drop_in_place$LT$alloc..vec..Vec$LT$syn..expr..Arm$GT$$GT$17hf3db0825f3d9c861E', symObjAddr: 0x6CD0, symBinAddr: 0x10D7A0, symSize: 0xD0 }
  - { offsetInCU: 0x2E47D, offset: 0x58A889, size: 0x8, addend: 0x0, symName: '__ZN4core3ptr59drop_in_place$LT$alloc..boxed..Box$LT$syn..pat..Pat$GT$$GT$17h7037ce9bbd3729c6E.llvm.16532739692444164112', symObjAddr: 0x6DA0, symBinAddr: 0x10D870, symSize: 0x50 }
  - { offsetInCU: 0x2E5D6, offset: 0x58A9E2, size: 0x8, addend: 0x0, symName: '__ZN4core3ptr59drop_in_place$LT$alloc..boxed..Box$LT$syn..ty..Type$GT$$GT$17h2eccd13329dbe4faE.llvm.16532739692444164112', symObjAddr: 0x6DF0, symBinAddr: 0x10D8C0, symSize: 0x50 }
  - { offsetInCU: 0x2E72F, offset: 0x58AB3B, size: 0x8, addend: 0x0, symName: '__ZN4core3ptr61drop_in_place$LT$alloc..boxed..Box$LT$syn..expr..Expr$GT$$GT$17h66094ddc89015516E.llvm.16532739692444164112', symObjAddr: 0x6F10, symBinAddr: 0x10D910, symSize: 0x50 }
  - { offsetInCU: 0x2E904, offset: 0x58AD10, size: 0x8, addend: 0x0, symName: '__ZN4core3ptr61drop_in_place$LT$syn..path..ParenthesizedGenericArguments$GT$17h21be9b1d7a6fab55E.llvm.16532739692444164112', symObjAddr: 0x6F60, symBinAddr: 0x10D960, symSize: 0x170 }
  - { offsetInCU: 0x2EF0D, offset: 0x58B319, size: 0x8, addend: 0x0, symName: '__ZN4core3ptr63drop_in_place$LT$alloc..boxed..Box$LT$syn..lit..LitRepr$GT$$GT$17h9c509b794406150eE', symObjAddr: 0x7170, symBinAddr: 0x10DAD0, symSize: 0x60 }
  - { offsetInCU: 0x2F1F5, offset: 0x58B601, size: 0x8, addend: 0x0, symName: '__ZN4core3ptr64drop_in_place$LT$alloc..boxed..Box$LT$syn..item..UseTree$GT$$GT$17h2fbb30105f88b737E', symObjAddr: 0x7220, symBinAddr: 0x10DB30, symSize: 0x100 }
  - { offsetInCU: 0x2F723, offset: 0x58BB2F, size: 0x8, addend: 0x0, symName: '__ZN4core3ptr64drop_in_place$LT$alloc..boxed..Box$LT$syn..pat..FieldPat$GT$$GT$17hb167b355d0d4733fE', symObjAddr: 0x7320, symBinAddr: 0x10DC30, symSize: 0x180 }
  - { offsetInCU: 0x2FE02, offset: 0x58C20E, size: 0x8, addend: 0x0, symName: '__ZN4core3ptr64drop_in_place$LT$alloc..boxed..Box$LT$syn..ty..BareFnArg$GT$$GT$17h6488be9448346678E', symObjAddr: 0x74A0, symBinAddr: 0x10DDB0, symSize: 0x160 }
  - { offsetInCU: 0x30398, offset: 0x58C7A4, size: 0x8, addend: 0x0, symName: '__ZN4core3ptr65drop_in_place$LT$alloc..vec..Vec$LT$proc_macro..TokenTree$GT$$GT$17hc3670dd5608d5259E', symObjAddr: 0x7600, symBinAddr: 0x10DF10, symSize: 0x110 }
  - { offsetInCU: 0x30790, offset: 0x58CB9C, size: 0x8, addend: 0x0, symName: '__ZN4core3ptr65drop_in_place$LT$core..option..Option$LT$syn..expr..Label$GT$$GT$17ha723640fd01bec5dE', symObjAddr: 0x7710, symBinAddr: 0x10E020, symSize: 0x30 }
  - { offsetInCU: 0x308CA, offset: 0x58CCD6, size: 0x8, addend: 0x0, symName: '__ZN4core3ptr66drop_in_place$LT$core..option..Option$LT$syn..ty..Variadic$GT$$GT$17hc32134bb3933b0dfE', symObjAddr: 0x7740, symBinAddr: 0x10E050, symSize: 0xF0 }
  - { offsetInCU: 0x30BF4, offset: 0x58D000, size: 0x8, addend: 0x0, symName: '__ZN4core3ptr67drop_in_place$LT$alloc..boxed..Box$LT$syn..attr..NestedMeta$GT$$GT$17hd0c3b988a8621445E', symObjAddr: 0x7830, symBinAddr: 0x10E140, symSize: 0x70 }
  - { offsetInCU: 0x30D89, offset: 0x58D195, size: 0x8, addend: 0x0, symName: '__ZN4core3ptr67drop_in_place$LT$alloc..boxed..Box$LT$syn..expr..FieldValue$GT$$GT$17h8df780aa600ea8c2E', symObjAddr: 0x78A0, symBinAddr: 0x10E1B0, symSize: 0x160 }
  - { offsetInCU: 0x312FF, offset: 0x58D70B, size: 0x8, addend: 0x0, symName: '__ZN4core3ptr70drop_in_place$LT$$LP$syn..attr..NestedMeta$C$syn..token..Comma$RP$$GT$17he1b545a7aa3daf93E', symObjAddr: 0x7AA0, symBinAddr: 0x10E310, symSize: 0x30 }
  - { offsetInCU: 0x313AB, offset: 0x58D7B7, size: 0x8, addend: 0x0, symName: '__ZN4core3ptr73drop_in_place$LT$alloc..vec..Vec$LT$syn..generics..TypeParamBound$GT$$GT$17h5d27515ea87a306aE.llvm.16532739692444164112', symObjAddr: 0x7CF0, symBinAddr: 0x10E340, symSize: 0xC0 }
  - { offsetInCU: 0x3167C, offset: 0x58DA88, size: 0x8, addend: 0x0, symName: '__ZN4core3ptr75drop_in_place$LT$alloc..boxed..Box$LT$syn..generics..TypeParamBound$GT$$GT$17h8f156ce07ea0b8b2E', symObjAddr: 0x7DB0, symBinAddr: 0x10E400, symSize: 0x90 }
  - { offsetInCU: 0x3193F, offset: 0x58DD4B, size: 0x8, addend: 0x0, symName: '__ZN4core3ptr78drop_in_place$LT$alloc..boxed..Box$LT$syn..expr..GenericMethodArgument$GT$$GT$17h3384c00b5bd54c2aE', symObjAddr: 0x7E90, symBinAddr: 0x10E490, symSize: 0x60 }
  - { offsetInCU: 0x31B50, offset: 0x58DF5C, size: 0x8, addend: 0x0, symName: '__ZN4core3ptr78drop_in_place$LT$core..option..Option$LT$syn..generics..BoundLifetimes$GT$$GT$17h8175e66ad0c4a156E.llvm.16532739692444164112', symObjAddr: 0x7EF0, symBinAddr: 0x10E4F0, symSize: 0x120 }
  - { offsetInCU: 0x31FB8, offset: 0x58E3C4, size: 0x8, addend: 0x0, symName: '__ZN4core3ptr81drop_in_place$LT$$LP$syn..expr..GenericMethodArgument$C$syn..token..Comma$RP$$GT$17h6cb8506ab56d85d6E.llvm.16532739692444164112', symObjAddr: 0x80E0, symBinAddr: 0x10E610, symSize: 0x30 }
  - { offsetInCU: 0x32026, offset: 0x58E432, size: 0x8, addend: 0x0, symName: '__ZN4core3ptr82drop_in_place$LT$alloc..vec..Vec$LT$$LP$syn..pat..Pat$C$syn..token..Or$RP$$GT$$GT$17he4f1446f4dd0391dE.llvm.16532739692444164112', symObjAddr: 0x8110, symBinAddr: 0x10E640, symSize: 0x0 }
  - { offsetInCU: 0x3231E, offset: 0x58E72A, size: 0x8, addend: 0x0, symName: '__ZN4core3ptr85drop_in_place$LT$alloc..vec..Vec$LT$$LP$syn..ty..Type$C$syn..token..Comma$RP$$GT$$GT$17h2558a6f370e75802E.llvm.16532739692444164112', symObjAddr: 0x81E0, symBinAddr: 0x10E710, symSize: 0xD0 }
  - { offsetInCU: 0x32650, offset: 0x58EA5C, size: 0x8, addend: 0x0, symName: '__ZN4core3ptr86drop_in_place$LT$syn..punctuated..Punctuated$LT$syn..pat..Pat$C$syn..token..Or$GT$$GT$17h1078c5d178d382b7E', symObjAddr: 0x82B0, symBinAddr: 0x10E7E0, symSize: 0x120 }
  - { offsetInCU: 0x32AEA, offset: 0x58EEF6, size: 0x8, addend: 0x0, symName: '__ZN4core3ptr87drop_in_place$LT$alloc..vec..Vec$LT$$LP$syn..expr..Expr$C$syn..token..Comma$RP$$GT$$GT$17ha5588c79c88b2eb2E.llvm.16532739692444164112', symObjAddr: 0x83D0, symBinAddr: 0x10E900, symSize: 0xD0 }
  - { offsetInCU: 0x32DDE, offset: 0x58F1EA, size: 0x8, addend: 0x0, symName: '__ZN4core3ptr87drop_in_place$LT$core..option..Option$LT$alloc..boxed..Box$LT$syn..pat..Pat$GT$$GT$$GT$17ha7f5fe0e6f73e820E', symObjAddr: 0x84A0, symBinAddr: 0x10E9D0, symSize: 0x50 }
  - { offsetInCU: 0x32F4E, offset: 0x58F35A, size: 0x8, addend: 0x0, symName: '__ZN4core3ptr87drop_in_place$LT$core..option..Option$LT$alloc..boxed..Box$LT$syn..ty..Type$GT$$GT$$GT$17hc8292da82d129de3E.llvm.16532739692444164112', symObjAddr: 0x84F0, symBinAddr: 0x10EA20, symSize: 0x50 }
  - { offsetInCU: 0x330DD, offset: 0x58F4E9, size: 0x8, addend: 0x0, symName: '__ZN4core3ptr88drop_in_place$LT$alloc..vec..Vec$LT$$LP$syn..data..Field$C$syn..token..Comma$RP$$GT$$GT$17h92f883c9746a1265E.llvm.16532739692444164112', symObjAddr: 0x8540, symBinAddr: 0x10EA70, symSize: 0xD0 }
  - { offsetInCU: 0x333F0, offset: 0x58F7FC, size: 0x8, addend: 0x0, symName: '__ZN4core3ptr88drop_in_place$LT$alloc..vec..Vec$LT$$LP$syn..item..FnArg$C$syn..token..Comma$RP$$GT$$GT$17h4467406a7c8f89d5E.llvm.16532739692444164112', symObjAddr: 0x8610, symBinAddr: 0x10EB40, symSize: 0xD0 }
  - { offsetInCU: 0x336EF, offset: 0x58FAFB, size: 0x8, addend: 0x0, symName: '__ZN4core3ptr89drop_in_place$LT$core..option..Option$LT$alloc..boxed..Box$LT$syn..expr..Expr$GT$$GT$$GT$17hdc211ccd33f196f2E', symObjAddr: 0x86E0, symBinAddr: 0x10EC10, symSize: 0x50 }
  - { offsetInCU: 0x3389D, offset: 0x58FCA9, size: 0x8, addend: 0x0, symName: '__ZN4core3ptr89drop_in_place$LT$syn..punctuated..Punctuated$LT$syn..pat..Pat$C$syn..token..Comma$GT$$GT$17hf8371102b0500adcE', symObjAddr: 0x8730, symBinAddr: 0x10EC60, symSize: 0x120 }
  - { offsetInCU: 0x33D2F, offset: 0x59013B, size: 0x8, addend: 0x0, symName: '__ZN4core3ptr89drop_in_place$LT$syn..punctuated..Punctuated$LT$syn..ty..Type$C$syn..token..Comma$GT$$GT$17h1c6e43341fabea97E.llvm.16532739692444164112', symObjAddr: 0x8850, symBinAddr: 0x10ED80, symSize: 0x120 }
  - { offsetInCU: 0x341C9, offset: 0x5905D5, size: 0x8, addend: 0x0, symName: '__ZN4core3ptr90drop_in_place$LT$alloc..vec..Vec$LT$$LP$syn..data..Variant$C$syn..token..Comma$RP$$GT$$GT$17h7886d5ad254619b6E.llvm.16532739692444164112', symObjAddr: 0x8970, symBinAddr: 0x10EEA0, symSize: 0xD0 }
  - { offsetInCU: 0x344DC, offset: 0x5908E8, size: 0x8, addend: 0x0, symName: '__ZN4core3ptr90drop_in_place$LT$alloc..vec..Vec$LT$$LP$syn..item..UseTree$C$syn..token..Comma$RP$$GT$$GT$17hd641cf5199af6a96E.llvm.16532739692444164112', symObjAddr: 0x8A40, symBinAddr: 0x10EF70, symSize: 0xC0 }
  - { offsetInCU: 0x347CE, offset: 0x590BDA, size: 0x8, addend: 0x0, symName: '__ZN4core3ptr90drop_in_place$LT$alloc..vec..Vec$LT$$LP$syn..pat..FieldPat$C$syn..token..Comma$RP$$GT$$GT$17h821f3c6217b2c623E.llvm.16532739692444164112', symObjAddr: 0x8B00, symBinAddr: 0x10F030, symSize: 0xD0 }
  - { offsetInCU: 0x34A90, offset: 0x590E9C, size: 0x8, addend: 0x0, symName: '__ZN4core3ptr90drop_in_place$LT$alloc..vec..Vec$LT$$LP$syn..ty..BareFnArg$C$syn..token..Comma$RP$$GT$$GT$17hb8d63f816cfff9deE.llvm.16532739692444164112', symObjAddr: 0x8BD0, symBinAddr: 0x10F100, symSize: 0xD0 }
  - { offsetInCU: 0x34D6F, offset: 0x59117B, size: 0x8, addend: 0x0, symName: '__ZN4core3ptr90drop_in_place$LT$core..option..Option$LT$alloc..boxed..Box$LT$syn..data..Field$GT$$GT$$GT$17he146e9f4e32c136fE.llvm.16532739692444164112', symObjAddr: 0x8CA0, symBinAddr: 0x10F1D0, symSize: 0x50 }
  - { offsetInCU: 0x34EF1, offset: 0x5912FD, size: 0x8, addend: 0x0, symName: '__ZN4core3ptr91drop_in_place$LT$syn..punctuated..Punctuated$LT$syn..expr..Expr$C$syn..token..Comma$GT$$GT$17hd2dfeb0c522d9a18E.llvm.16532739692444164112', symObjAddr: 0x8CF0, symBinAddr: 0x10F220, symSize: 0x120 }
  - { offsetInCU: 0x3539E, offset: 0x5917AA, size: 0x8, addend: 0x0, symName: '__ZN4core3ptr92drop_in_place$LT$core..option..Option$LT$alloc..boxed..Box$LT$syn..data..Variant$GT$$GT$$GT$17h9c9c8f3c1dc56a70E', symObjAddr: 0x8E10, symBinAddr: 0x10F340, symSize: 0x50 }
  - { offsetInCU: 0x3553F, offset: 0x59194B, size: 0x8, addend: 0x0, symName: '__ZN4core3ptr92drop_in_place$LT$syn..punctuated..Punctuated$LT$syn..data..Field$C$syn..token..Comma$GT$$GT$17h907c4fed8ae64bc3E', symObjAddr: 0x8E60, symBinAddr: 0x10F390, symSize: 0x120 }
  - { offsetInCU: 0x359CC, offset: 0x591DD8, size: 0x8, addend: 0x0, symName: '__ZN4core3ptr93drop_in_place$LT$alloc..vec..Vec$LT$$LP$syn..expr..FieldValue$C$syn..token..Comma$RP$$GT$$GT$17hd798ac33b9d22184E.llvm.16532739692444164112', symObjAddr: 0x9050, symBinAddr: 0x10F4B0, symSize: 0xD0 }
  - { offsetInCU: 0x35CAB, offset: 0x5920B7, size: 0x8, addend: 0x0, symName: '__ZN4core3ptr93drop_in_place$LT$alloc..vec..Vec$LT$$LP$syn..lifetime..Lifetime$C$syn..token..Add$RP$$GT$$GT$17hde298d17c652af62E.llvm.16532739692444164112', symObjAddr: 0x9120, symBinAddr: 0x10F580, symSize: 0x90 }
  - { offsetInCU: 0x35F8D, offset: 0x592399, size: 0x8, addend: 0x0, symName: '__ZN4core3ptr94drop_in_place$LT$syn..punctuated..Punctuated$LT$syn..data..Variant$C$syn..token..Comma$GT$$GT$17hb4480d65f74dc9d7E', symObjAddr: 0x91B0, symBinAddr: 0x10F610, symSize: 0x120 }
  - { offsetInCU: 0x36439, offset: 0x592845, size: 0x8, addend: 0x0, symName: '__ZN4core3ptr94drop_in_place$LT$syn..punctuated..Punctuated$LT$syn..item..UseTree$C$syn..token..Comma$GT$$GT$17ha837d38586774c87E', symObjAddr: 0x92D0, symBinAddr: 0x10F730, symSize: 0xF0 }
  - { offsetInCU: 0x3677B, offset: 0x592B87, size: 0x8, addend: 0x0, symName: '__ZN4core3ptr94drop_in_place$LT$syn..punctuated..Punctuated$LT$syn..pat..FieldPat$C$syn..token..Comma$GT$$GT$17h612cbc9066d5afb1E', symObjAddr: 0x93C0, symBinAddr: 0x10F820, symSize: 0xF0 }
  - { offsetInCU: 0x36A7A, offset: 0x592E86, size: 0x8, addend: 0x0, symName: '__ZN4core3ptr94drop_in_place$LT$syn..punctuated..Punctuated$LT$syn..ty..BareFnArg$C$syn..token..Comma$GT$$GT$17ha9a668ce9972795bE', symObjAddr: 0x94B0, symBinAddr: 0x10F910, symSize: 0xF0 }
  - { offsetInCU: 0x36D77, offset: 0x593183, size: 0x8, addend: 0x0, symName: '__ZN4core3ptr95drop_in_place$LT$alloc..vec..Vec$LT$$LP$syn..path..PathSegment$C$syn..token..Colon2$RP$$GT$$GT$17hd4ac5ab6c0f8b220E.llvm.16532739692444164112', symObjAddr: 0x95A0, symBinAddr: 0x10FA00, symSize: 0xD0 }
  - { offsetInCU: 0x37039, offset: 0x593445, size: 0x8, addend: 0x0, symName: '__ZN4core3ptr95drop_in_place$LT$core..option..Option$LT$$LP$proc_macro2..Ident$C$syn..token..Colon$RP$$GT$$GT$17h7314df562090eafdE.llvm.16532739692444164112', symObjAddr: 0x9670, symBinAddr: 0x10FAD0, symSize: 0x30 }
  - { offsetInCU: 0x37192, offset: 0x59359E, size: 0x8, addend: 0x0, symName: '__ZN4core3ptr96drop_in_place$LT$core..option..Option$LT$alloc..boxed..Box$LT$syn..path..PathSegment$GT$$GT$$GT$17h2e81cbe3c70bb71cE.llvm.16532739692444164112', symObjAddr: 0x96A0, symBinAddr: 0x10FB00, symSize: 0x180 }
  - { offsetInCU: 0x378CB, offset: 0x593CD7, size: 0x8, addend: 0x0, symName: '__ZN4core3ptr97drop_in_place$LT$syn..punctuated..Punctuated$LT$syn..attr..NestedMeta$C$syn..token..Comma$GT$$GT$17h975d4de078ee9c5cE', symObjAddr: 0x9870, symBinAddr: 0x10FC80, symSize: 0x140 }
  - { offsetInCU: 0x37D3E, offset: 0x59414A, size: 0x8, addend: 0x0, symName: '__ZN4core3ptr97drop_in_place$LT$syn..punctuated..Punctuated$LT$syn..expr..FieldValue$C$syn..token..Comma$GT$$GT$17h11a5fffb46adfb11E', symObjAddr: 0x99B0, symBinAddr: 0x10FDC0, symSize: 0xF0 }
  - { offsetInCU: 0x38079, offset: 0x594485, size: 0x8, addend: 0x0, symName: '__ZN4core3ptr97drop_in_place$LT$syn..punctuated..Punctuated$LT$syn..lifetime..Lifetime$C$syn..token..Add$GT$$GT$17h5c54dea2c838d109E.llvm.16532739692444164112', symObjAddr: 0x9AA0, symBinAddr: 0x10FEB0, symSize: 0xD0 }
  - { offsetInCU: 0x384ED, offset: 0x5948F9, size: 0x8, addend: 0x0, symName: '__ZN4core3ptr98drop_in_place$LT$alloc..vec..Vec$LT$$LP$syn..generics..LifetimeDef$C$syn..token..Comma$RP$$GT$$GT$17h1ff3008828a3546eE.llvm.16532739692444164112', symObjAddr: 0x9B70, symBinAddr: 0x10FF80, symSize: 0xC0 }
  - { offsetInCU: 0x387AB, offset: 0x594BB7, size: 0x8, addend: 0x0, symName: '__ZN4core3ptr98drop_in_place$LT$alloc..vec..Vec$LT$$LP$syn..path..GenericArgument$C$syn..token..Comma$RP$$GT$$GT$17ha8e33b474744c469E.llvm.16532739692444164112', symObjAddr: 0x9C30, symBinAddr: 0x110040, symSize: 0xD0 }
  - { offsetInCU: 0x38AE7, offset: 0x594EF3, size: 0x8, addend: 0x0, symName: '__ZN4core3ptr98drop_in_place$LT$syn..punctuated..IntoPairs$LT$syn..path..PathSegment$C$syn..token..Colon2$GT$$GT$17ha9c816c5dc080402E', symObjAddr: 0x9D00, symBinAddr: 0x110110, symSize: 0x50 }
  - { offsetInCU: 0x38BDC, offset: 0x594FE8, size: 0x8, addend: 0x0, symName: '__ZN4core3ptr99drop_in_place$LT$alloc..vec..Vec$LT$$LP$syn..generics..GenericParam$C$syn..token..Comma$RP$$GT$$GT$17h6a63382b7b118436E.llvm.16532739692444164112', symObjAddr: 0x9D50, symBinAddr: 0x110160, symSize: 0x60 }
  - { offsetInCU: 0x38E1E, offset: 0x59522A, size: 0x8, addend: 0x0, symName: '__ZN4core3ptr99drop_in_place$LT$alloc..vec..Vec$LT$$LP$syn..generics..TypeParamBound$C$syn..token..Add$RP$$GT$$GT$17h1faee7dfcf042dc4E.llvm.16532739692444164112', symObjAddr: 0x9DB0, symBinAddr: 0x1101C0, symSize: 0x60 }
  - { offsetInCU: 0x3906A, offset: 0x595476, size: 0x8, addend: 0x0, symName: '__ZN4core3ptr99drop_in_place$LT$syn..punctuated..Punctuated$LT$syn..path..PathSegment$C$syn..token..Colon2$GT$$GT$17hb961e4d7989a33ceE', symObjAddr: 0x9E10, symBinAddr: 0x110220, symSize: 0x120 }
  - { offsetInCU: 0x4251E, offset: 0x59E92A, size: 0x8, addend: 0x0, symName: __ZN4core4iter6traits10exact_size17ExactSizeIterator8is_empty17h1bc6241bf1888e40E.llvm.16532739692444164112, symObjAddr: 0x9F30, symBinAddr: 0x110340, symSize: 0x30 }
  - { offsetInCU: 0x426EF, offset: 0x59EAFB, size: 0x8, addend: 0x0, symName: __ZN4core4iter6traits10exact_size17ExactSizeIterator8is_empty17h79802a601d507adbE.llvm.16532739692444164112, symObjAddr: 0x9F90, symBinAddr: 0x110370, symSize: 0x0 }
  - { offsetInCU: 0x42867, offset: 0x59EC73, size: 0x8, addend: 0x0, symName: __ZN4core4iter6traits12double_ended19DoubleEndedIterator15advance_back_by17h5eed97009e157134E.llvm.16532739692444164112, symObjAddr: 0xA070, symBinAddr: 0x1103A0, symSize: 0x0 }
  - { offsetInCU: 0x42AAD, offset: 0x59EEB9, size: 0x8, addend: 0x0, symName: __ZN4core4iter6traits12double_ended19DoubleEndedIterator15advance_back_by17h653dda07e28b399cE.llvm.16532739692444164112, symObjAddr: 0xA0F0, symBinAddr: 0x110420, symSize: 0x70 }
  - { offsetInCU: 0x42D12, offset: 0x59F11E, size: 0x8, addend: 0x0, symName: __ZN4core4iter6traits12double_ended19DoubleEndedIterator8nth_back17h9993a40d5425cb19E.llvm.16532739692444164112, symObjAddr: 0xA310, symBinAddr: 0x110490, symSize: 0x0 }
  - { offsetInCU: 0x431EA, offset: 0x59F5F6, size: 0x8, addend: 0x0, symName: __ZN4core4iter6traits12double_ended19DoubleEndedIterator8nth_back17hed9022273c30defeE.llvm.16532739692444164112, symObjAddr: 0xA3B0, symBinAddr: 0x110530, symSize: 0xA0 }
  - { offsetInCU: 0x43682, offset: 0x59FA8E, size: 0x8, addend: 0x0, symName: __ZN4core4iter6traits8iterator8Iterator10advance_by17h184fda4dfe2fd7b2E.llvm.16532739692444164112, symObjAddr: 0xA450, symBinAddr: 0x1105D0, symSize: 0x0 }
  - { offsetInCU: 0x439B6, offset: 0x59FDC2, size: 0x8, addend: 0x0, symName: __ZN4core4iter6traits8iterator8Iterator10advance_by17he4016f4f7eb36f58E.llvm.16532739692444164112, symObjAddr: 0xA590, symBinAddr: 0x110640, symSize: 0x60 }
  - { offsetInCU: 0x43D08, offset: 0x5A0114, size: 0x8, addend: 0x0, symName: __ZN4core4iter6traits8iterator8Iterator3nth17h5c22b47f8967379dE.llvm.16532739692444164112, symObjAddr: 0xA670, symBinAddr: 0x1106A0, symSize: 0x0 }
  - { offsetInCU: 0x442F3, offset: 0x5A06FF, size: 0x8, addend: 0x0, symName: __ZN4core4iter6traits8iterator8Iterator3nth17he19de029313aec56E.llvm.16532739692444164112, symObjAddr: 0xA770, symBinAddr: 0x110720, symSize: 0x80 }
  - { offsetInCU: 0x4488D, offset: 0x5A0C99, size: 0x8, addend: 0x0, symName: __ZN4core4iter6traits8iterator8Iterator9size_hint17h0104108dabb19d93E.llvm.16532739692444164112, symObjAddr: 0xA7F0, symBinAddr: 0x1107A0, symSize: 0x0 }
  - { offsetInCU: 0x4646A, offset: 0x5A2876, size: 0x8, addend: 0x0, symName: _anon.6d16f1a36471c80d3de82dc9b4f7a556.5.llvm.16532739692444164112, symObjAddr: 0x15610, symBinAddr: 0x310EB8, symSize: 0x0 }
  - { offsetInCU: 0x4653F, offset: 0x5A294B, size: 0x8, addend: 0x0, symName: _anon.6d16f1a36471c80d3de82dc9b4f7a556.7.llvm.16532739692444164112, symObjAddr: 0x156C8, symBinAddr: 0x310F70, symSize: 0x0 }
  - { offsetInCU: 0x4662E, offset: 0x5A2A3A, size: 0x8, addend: 0x0, symName: _anon.6d16f1a36471c80d3de82dc9b4f7a556.11.llvm.16532739692444164112, symObjAddr: 0x15830, symBinAddr: 0x311028, symSize: 0x0 }
  - { offsetInCU: 0x4887C, offset: 0x5A4C88, size: 0x8, addend: 0x0, symName: '__ZN3syn10punctuated23Punctuated$LT$T$C$P$GT$4iter17hb5b1f3ac16f65eacE', symObjAddr: 0xAA10, symBinAddr: 0x1107C0, symSize: 0x70 }
  - { offsetInCU: 0x49319, offset: 0x5A5725, size: 0x8, addend: 0x0, symName: '__ZN3syn10punctuated23Punctuated$LT$T$C$P$GT$10push_value17h14b7c2c4fe5ffb09E', symObjAddr: 0xAF00, symBinAddr: 0x110830, symSize: 0xA0 }
  - { offsetInCU: 0x49558, offset: 0x5A5964, size: 0x8, addend: 0x0, symName: '__ZN3syn10punctuated23Punctuated$LT$T$C$P$GT$10push_value17h39f3d53d0765bd8bE', symObjAddr: 0xAFA0, symBinAddr: 0x1108D0, symSize: 0x0 }
  - { offsetInCU: 0x4978B, offset: 0x5A5B97, size: 0x8, addend: 0x0, symName: '__ZN3syn10punctuated23Punctuated$LT$T$C$P$GT$10push_value17h3ebbefe6892129a3E', symObjAddr: 0xB070, symBinAddr: 0x1109A0, symSize: 0xA0 }
  - { offsetInCU: 0x499BD, offset: 0x5A5DC9, size: 0x8, addend: 0x0, symName: '__ZN3syn10punctuated23Punctuated$LT$T$C$P$GT$10push_value17h6654a5202d87b9adE', symObjAddr: 0xB110, symBinAddr: 0x110A40, symSize: 0xD0 }
  - { offsetInCU: 0x49BF0, offset: 0x5A5FFC, size: 0x8, addend: 0x0, symName: '__ZN3syn10punctuated23Punctuated$LT$T$C$P$GT$10push_value17h68728aa7418e1828E', symObjAddr: 0xB1E0, symBinAddr: 0x110B10, symSize: 0xE0 }
  - { offsetInCU: 0x49F2D, offset: 0x5A6339, size: 0x8, addend: 0x0, symName: '__ZN3syn10punctuated23Punctuated$LT$T$C$P$GT$10push_value17h734c18a193061288E', symObjAddr: 0xB2C0, symBinAddr: 0x110BF0, symSize: 0xD0 }
  - { offsetInCU: 0x4A152, offset: 0x5A655E, size: 0x8, addend: 0x0, symName: '__ZN3syn10punctuated23Punctuated$LT$T$C$P$GT$10push_value17h738c10366c9a624bE', symObjAddr: 0xB390, symBinAddr: 0x110CC0, symSize: 0xD0 }
  - { offsetInCU: 0x4A385, offset: 0x5A6791, size: 0x8, addend: 0x0, symName: '__ZN3syn10punctuated23Punctuated$LT$T$C$P$GT$10push_value17h8a453bad6a782ffeE', symObjAddr: 0xB460, symBinAddr: 0x110D90, symSize: 0xD0 }
  - { offsetInCU: 0x4A5AB, offset: 0x5A69B7, size: 0x8, addend: 0x0, symName: '__ZN3syn10punctuated23Punctuated$LT$T$C$P$GT$10push_value17h958c5485234fa2d2E', symObjAddr: 0xB530, symBinAddr: 0x110E60, symSize: 0xA0 }
  - { offsetInCU: 0x4A7F7, offset: 0x5A6C03, size: 0x8, addend: 0x0, symName: '__ZN3syn10punctuated23Punctuated$LT$T$C$P$GT$10push_value17ha121070897ba71bbE', symObjAddr: 0xB5D0, symBinAddr: 0x110F00, symSize: 0xD0 }
  - { offsetInCU: 0x4AA2A, offset: 0x5A6E36, size: 0x8, addend: 0x0, symName: '__ZN3syn10punctuated23Punctuated$LT$T$C$P$GT$10push_value17hc23a986ec6344064E', symObjAddr: 0xB6A0, symBinAddr: 0x110FD0, symSize: 0xD0 }
  - { offsetInCU: 0x4AC5C, offset: 0x5A7068, size: 0x8, addend: 0x0, symName: '__ZN3syn10punctuated23Punctuated$LT$T$C$P$GT$10push_value17hc8fea27b62230799E', symObjAddr: 0xB770, symBinAddr: 0x1110A0, symSize: 0xD0 }
  - { offsetInCU: 0x4AE8F, offset: 0x5A729B, size: 0x8, addend: 0x0, symName: '__ZN3syn10punctuated23Punctuated$LT$T$C$P$GT$10push_value17hd58984c4db98708fE', symObjAddr: 0xB840, symBinAddr: 0x111170, symSize: 0xD0 }
  - { offsetInCU: 0x4B0C2, offset: 0x5A74CE, size: 0x8, addend: 0x0, symName: '__ZN3syn10punctuated23Punctuated$LT$T$C$P$GT$10push_value17he9d5642b6abab872E', symObjAddr: 0xB910, symBinAddr: 0x111240, symSize: 0xD0 }
  - { offsetInCU: 0x4B31E, offset: 0x5A772A, size: 0x8, addend: 0x0, symName: '__ZN3syn10punctuated23Punctuated$LT$T$C$P$GT$10push_punct17h05097ced3e641863E', symObjAddr: 0xB9E0, symBinAddr: 0x111310, symSize: 0xE0 }
  - { offsetInCU: 0x4B6CE, offset: 0x5A7ADA, size: 0x8, addend: 0x0, symName: '__ZN3syn10punctuated23Punctuated$LT$T$C$P$GT$10push_punct17h11ba52321bf5bea8E', symObjAddr: 0xBAC0, symBinAddr: 0x1113F0, symSize: 0xE0 }
  - { offsetInCU: 0x4BA9E, offset: 0x5A7EAA, size: 0x8, addend: 0x0, symName: '__ZN3syn10punctuated23Punctuated$LT$T$C$P$GT$10push_punct17h2dceda0901d1267aE', symObjAddr: 0xBBA0, symBinAddr: 0x1114D0, symSize: 0xE0 }
  - { offsetInCU: 0x4BE6E, offset: 0x5A827A, size: 0x8, addend: 0x0, symName: '__ZN3syn10punctuated23Punctuated$LT$T$C$P$GT$10push_punct17h30da73095861d121E', symObjAddr: 0xBC80, symBinAddr: 0x1115B0, symSize: 0xE0 }
  - { offsetInCU: 0x4C28C, offset: 0x5A8698, size: 0x8, addend: 0x0, symName: '__ZN3syn10punctuated23Punctuated$LT$T$C$P$GT$10push_punct17h400c66537f83dc5bE', symObjAddr: 0xBD60, symBinAddr: 0x111690, symSize: 0x120 }
  - { offsetInCU: 0x4C7BC, offset: 0x5A8BC8, size: 0x8, addend: 0x0, symName: '__ZN3syn10punctuated23Punctuated$LT$T$C$P$GT$10push_punct17h500d37b1c0505005E', symObjAddr: 0xBE80, symBinAddr: 0x1117B0, symSize: 0xE0 }
  - { offsetInCU: 0x4CB8C, offset: 0x5A8F98, size: 0x8, addend: 0x0, symName: '__ZN3syn10punctuated23Punctuated$LT$T$C$P$GT$10push_punct17h53a23ce0aae9ffc1E', symObjAddr: 0xBF60, symBinAddr: 0x111890, symSize: 0xC0 }
  - { offsetInCU: 0x4CF4F, offset: 0x5A935B, size: 0x8, addend: 0x0, symName: '__ZN3syn10punctuated23Punctuated$LT$T$C$P$GT$10push_punct17h70a79c86c88cff65E', symObjAddr: 0xC020, symBinAddr: 0x111950, symSize: 0xC0 }
  - { offsetInCU: 0x4D32C, offset: 0x5A9738, size: 0x8, addend: 0x0, symName: '__ZN3syn10punctuated23Punctuated$LT$T$C$P$GT$10push_punct17h79f957a4f7bfa4bdE', symObjAddr: 0xC0E0, symBinAddr: 0x111A10, symSize: 0xD0 }
  - { offsetInCU: 0x4D6FC, offset: 0x5A9B08, size: 0x8, addend: 0x0, symName: '__ZN3syn10punctuated23Punctuated$LT$T$C$P$GT$10push_punct17h9ff63fe42d8a305bE', symObjAddr: 0xC1B0, symBinAddr: 0x111AE0, symSize: 0xE0 }
  - { offsetInCU: 0x4DACC, offset: 0x5A9ED8, size: 0x8, addend: 0x0, symName: '__ZN3syn10punctuated23Punctuated$LT$T$C$P$GT$10push_punct17haa5636a409edefeeE', symObjAddr: 0xC290, symBinAddr: 0x111BC0, symSize: 0xE0 }
  - { offsetInCU: 0x4DE9C, offset: 0x5AA2A8, size: 0x8, addend: 0x0, symName: '__ZN3syn10punctuated23Punctuated$LT$T$C$P$GT$10push_punct17had77e3ca97751ca0E', symObjAddr: 0xC370, symBinAddr: 0x111CA0, symSize: 0x100 }
  - { offsetInCU: 0x4E26C, offset: 0x5AA678, size: 0x8, addend: 0x0, symName: '__ZN3syn10punctuated23Punctuated$LT$T$C$P$GT$10push_punct17hd1e26f9cc5ff1a0fE', symObjAddr: 0xC470, symBinAddr: 0x111DA0, symSize: 0xD0 }
  - { offsetInCU: 0x4E649, offset: 0x5AAA55, size: 0x8, addend: 0x0, symName: '__ZN3syn10punctuated23Punctuated$LT$T$C$P$GT$10push_punct17hd921c69c8d719ce4E', symObjAddr: 0xC540, symBinAddr: 0x111E70, symSize: 0xE0 }
  - { offsetInCU: 0x4EA0C, offset: 0x5AAE18, size: 0x8, addend: 0x0, symName: '__ZN3syn10punctuated23Punctuated$LT$T$C$P$GT$10push_punct17he79340c1cde0cc34E', symObjAddr: 0xC620, symBinAddr: 0x111F50, symSize: 0xE0 }
  - { offsetInCU: 0x4EDCF, offset: 0x5AB1DB, size: 0x8, addend: 0x0, symName: '__ZN3syn10punctuated23Punctuated$LT$T$C$P$GT$10push_punct17hec278db3946341f0E', symObjAddr: 0xC700, symBinAddr: 0x112030, symSize: 0xE0 }
  - { offsetInCU: 0x4F24E, offset: 0x5AB65A, size: 0x8, addend: 0x0, symName: '__ZN3syn10punctuated23Punctuated$LT$T$C$P$GT$3pop17h5d3ca22f68e5e0caE', symObjAddr: 0xC7E0, symBinAddr: 0x112110, symSize: 0x90 }
  - { offsetInCU: 0x4F63C, offset: 0x5ABA48, size: 0x8, addend: 0x0, symName: '__ZN3syn10punctuated23Punctuated$LT$T$C$P$GT$4push17hcfa9ee726330b377E', symObjAddr: 0xC870, symBinAddr: 0x1121A0, symSize: 0x130 }
  - { offsetInCU: 0x4F9AB, offset: 0x5ABDB7, size: 0x8, addend: 0x0, symName: '__ZN3syn10punctuated23Punctuated$LT$T$C$P$GT$6insert17h4136fb255bf8292aE', symObjAddr: 0xC9A0, symBinAddr: 0x1122D0, symSize: 0x170 }
  - { offsetInCU: 0x4FD91, offset: 0x5AC19D, size: 0x8, addend: 0x0, symName: '__ZN3syn10punctuated23Punctuated$LT$T$C$P$GT$5clear17h2c657785aa52c10eE', symObjAddr: 0xCB10, symBinAddr: 0x112440, symSize: 0xA0 }
  - { offsetInCU: 0x501B2, offset: 0x5AC5BE, size: 0x8, addend: 0x0, symName: '__ZN3syn10punctuated23Punctuated$LT$T$C$P$GT$21parse_terminated_with17h0d42de968702d743E', symObjAddr: 0xCBB0, symBinAddr: 0x1124E0, symSize: 0x320 }
  - { offsetInCU: 0x50B83, offset: 0x5ACF8F, size: 0x8, addend: 0x0, symName: '__ZN3syn10punctuated23Punctuated$LT$T$C$P$GT$21parse_terminated_with17h3502cbc50f6e66fbE', symObjAddr: 0xCED0, symBinAddr: 0x112800, symSize: 0x340 }
  - { offsetInCU: 0x51531, offset: 0x5AD93D, size: 0x8, addend: 0x0, symName: '__ZN3syn10punctuated23Punctuated$LT$T$C$P$GT$21parse_terminated_with17h5843760d31b55a9fE', symObjAddr: 0xD3E0, symBinAddr: 0x112B40, symSize: 0x330 }
  - { offsetInCU: 0x51F82, offset: 0x5AE38E, size: 0x8, addend: 0x0, symName: '__ZN3syn10punctuated23Punctuated$LT$T$C$P$GT$21parse_terminated_with17ha0e926b3a5c69310E', symObjAddr: 0xD8E0, symBinAddr: 0x112E70, symSize: 0x420 }
  - { offsetInCU: 0x2341, offset: 0x5B8D0E, size: 0x8, addend: 0x0, symName: '__ZN3syn4expr8printing82_$LT$impl$u20$quote..to_tokens..ToTokens$u20$for$u20$syn..expr..ExprMethodCall$GT$9to_tokens17h52deca7c2bdcde8fE', symObjAddr: 0x11080, symBinAddr: 0x123070, symSize: 0x260 }
  - { offsetInCU: 0x2E0F, offset: 0x5B97DC, size: 0x8, addend: 0x0, symName: '__ZN3syn4expr8printing77_$LT$impl$u20$quote..to_tokens..ToTokens$u20$for$u20$syn..expr..ExprWhile$GT$9to_tokens17hb73b17451a9f393bE', symObjAddr: 0x11DD0, symBinAddr: 0x1232D0, symSize: 0x220 }
  - { offsetInCU: 0x3506, offset: 0x5B9ED3, size: 0x8, addend: 0x0, symName: '__ZN3syn4expr8printing79_$LT$impl$u20$quote..to_tokens..ToTokens$u20$for$u20$syn..expr..ExprForLoop$GT$9to_tokens17hc158e0517546c263E', symObjAddr: 0x11FF0, symBinAddr: 0x1234F0, symSize: 0x2A0 }
  - { offsetInCU: 0x3E35, offset: 0x5BA802, size: 0x8, addend: 0x0, symName: '__ZN3syn4expr8printing79_$LT$impl$u20$quote..to_tokens..ToTokens$u20$for$u20$syn..expr..ExprClosure$GT$9to_tokens17h02addd229d205f12E', symObjAddr: 0x12C10, symBinAddr: 0x123790, symSize: 0x350 }
  - { offsetInCU: 0x4B6E, offset: 0x5BB53B, size: 0x8, addend: 0x0, symName: '__ZN3syn4expr8printing74_$LT$impl$u20$quote..to_tokens..ToTokens$u20$for$u20$syn..expr..Member$GT$9to_tokens17hc47f96e76f134d40E', symObjAddr: 0x134F0, symBinAddr: 0x123AE0, symSize: 0xC0 }
  - { offsetInCU: 0x5167, offset: 0x5BBB34, size: 0x8, addend: 0x0, symName: '__ZN3syn4expr8printing78_$LT$impl$u20$quote..to_tokens..ToTokens$u20$for$u20$syn..expr..FieldValue$GT$9to_tokens17hca3924738fecf8aaE', symObjAddr: 0x14670, symBinAddr: 0x123BA0, symSize: 0x1C0 }
  - { offsetInCU: 0x57F6, offset: 0x5BC1C3, size: 0x8, addend: 0x0, symName: '__ZN3syn4expr8printing71_$LT$impl$u20$quote..to_tokens..ToTokens$u20$for$u20$syn..expr..Arm$GT$9to_tokens17hfe03b45f4f23e934E', symObjAddr: 0x14830, symBinAddr: 0x123D60, symSize: 0x1D0 }
  - { offsetInCU: 0x5CCA, offset: 0x5BC697, size: 0x8, addend: 0x0, symName: '__ZN3syn4expr7parsing63_$LT$impl$u20$syn..parse..Parse$u20$for$u20$syn..expr..Expr$GT$5parse17hc5dd14a6ed6ae10aE', symObjAddr: 0xA160, symBinAddr: 0x11D210, symSize: 0xF0 }
  - { offsetInCU: 0x5D7A, offset: 0x5BC747, size: 0x8, addend: 0x0, symName: '__ZN3syn4expr7parsing66_$LT$impl$u20$syn..parse..Parse$u20$for$u20$syn..expr..ExprLit$GT$5parse17hcc638e3114e2713bE', symObjAddr: 0xAB80, symBinAddr: 0x11D300, symSize: 0xF0 }
  - { offsetInCU: 0x5E8D, offset: 0x5BC85A, size: 0x8, addend: 0x0, symName: '__ZN3syn4expr7parsing80_$LT$impl$u20$syn..parse..Parse$u20$for$u20$syn..expr..GenericMethodArgument$GT$5parse17h9e0e87e386c05d46E', symObjAddr: 0xAC90, symBinAddr: 0x11D3F0, symSize: 0x2E0 }
  - { offsetInCU: 0x622B, offset: 0x5BCBF8, size: 0x8, addend: 0x0, symName: '__ZN3syn4expr7parsing74_$LT$impl$u20$syn..parse..Parse$u20$for$u20$syn..expr..MethodTurbofish$GT$5parse17hc687ec8e69e7b20fE', symObjAddr: 0xAF70, symBinAddr: 0x11D6D0, symSize: 0x350 }
  - { offsetInCU: 0x673B, offset: 0x5BD108, size: 0x8, addend: 0x0, symName: '__ZN3syn4expr7parsing66_$LT$impl$u20$syn..parse..Parse$u20$for$u20$syn..expr..ExprLet$GT$5parse17hb569fb53f5daeca8E', symObjAddr: 0xB2C0, symBinAddr: 0x11DA20, symSize: 0x4C0 }
  - { offsetInCU: 0x6CDF, offset: 0x5BD6AC, size: 0x8, addend: 0x0, symName: '__ZN3syn4expr7parsing65_$LT$impl$u20$syn..parse..Parse$u20$for$u20$syn..expr..ExprIf$GT$5parse17hc3bbb8a442518a70E', symObjAddr: 0xB780, symBinAddr: 0x11DEE0, symSize: 0x700 }
  - { offsetInCU: 0x768D, offset: 0x5BE05A, size: 0x8, addend: 0x0, symName: '__ZN3syn4expr7parsing70_$LT$impl$u20$syn..parse..Parse$u20$for$u20$syn..expr..ExprForLoop$GT$5parse17h70f397294e42a49dE', symObjAddr: 0xBE80, symBinAddr: 0x11E5E0, symSize: 0xA40 }
  - { offsetInCU: 0x855F, offset: 0x5BEF2C, size: 0x8, addend: 0x0, symName: '__ZN3syn4expr7parsing67_$LT$impl$u20$syn..parse..Parse$u20$for$u20$syn..expr..ExprLoop$GT$5parse17h2feb6f1c5e586e7dE', symObjAddr: 0xC8C0, symBinAddr: 0x11F020, symSize: 0x560 }
  - { offsetInCU: 0x9257, offset: 0x5BFC24, size: 0x8, addend: 0x0, symName: '__ZN3syn4expr7parsing68_$LT$impl$u20$syn..parse..Parse$u20$for$u20$syn..expr..ExprMatch$GT$5parse17hd6f41d4fa4c8de12E', symObjAddr: 0xCE20, symBinAddr: 0x11F580, symSize: 0x820 }
  - { offsetInCU: 0xA1A5, offset: 0x5C0B72, size: 0x8, addend: 0x0, symName: '__ZN3syn4expr7parsing71_$LT$impl$u20$syn..parse..Parse$u20$for$u20$syn..expr..ExprTryBlock$GT$5parse17h5554543154d3c4b6E', symObjAddr: 0xD9A0, symBinAddr: 0x11FDA0, symSize: 0x140 }
  - { offsetInCU: 0xA335, offset: 0x5C0D02, size: 0x8, addend: 0x0, symName: '__ZN3syn4expr7parsing68_$LT$impl$u20$syn..parse..Parse$u20$for$u20$syn..expr..ExprYield$GT$5parse17hc3f7685155a8ca99E', symObjAddr: 0xDAE0, symBinAddr: 0x11FEE0, symSize: 0x150 }
  - { offsetInCU: 0xA6B9, offset: 0x5C1086, size: 0x8, addend: 0x0, symName: '__ZN3syn4expr7parsing68_$LT$impl$u20$syn..parse..Parse$u20$for$u20$syn..expr..ExprAsync$GT$5parse17he43ed43a6e470a06E', symObjAddr: 0xDC30, symBinAddr: 0x120030, symSize: 0x1D0 }
  - { offsetInCU: 0xA9CC, offset: 0x5C1399, size: 0x8, addend: 0x0, symName: '__ZN3syn4expr7parsing68_$LT$impl$u20$syn..parse..Parse$u20$for$u20$syn..expr..ExprWhile$GT$5parse17h94fbc04744e04bd5E', symObjAddr: 0xDE00, symBinAddr: 0x120200, symSize: 0x8A0 }
  - { offsetInCU: 0xB6EE, offset: 0x5C20BB, size: 0x8, addend: 0x0, symName: '__ZN3syn4expr7parsing64_$LT$impl$u20$syn..parse..Parse$u20$for$u20$syn..expr..Label$GT$5parse17h4b99929e595412a8E', symObjAddr: 0xE6A0, symBinAddr: 0x120AA0, symSize: 0x230 }
  - { offsetInCU: 0xBBA6, offset: 0x5C2573, size: 0x8, addend: 0x0, symName: '__ZN3syn4expr7parsing71_$LT$impl$u20$syn..parse..Parse$u20$for$u20$syn..expr..ExprContinue$GT$5parse17hd8b0e00434855c5dE', symObjAddr: 0xE8D0, symBinAddr: 0x120CD0, symSize: 0x1B0 }
  - { offsetInCU: 0xBD27, offset: 0x5C26F4, size: 0x8, addend: 0x0, symName: '__ZN3syn4expr7parsing69_$LT$impl$u20$syn..parse..Parse$u20$for$u20$syn..expr..FieldValue$GT$5parse17h789c7fa607c23413E', symObjAddr: 0xEA80, symBinAddr: 0x120E80, symSize: 0x6D0 }
  - { offsetInCU: 0xC7E7, offset: 0x5C31B4, size: 0x8, addend: 0x0, symName: '__ZN3syn4expr7parsing69_$LT$impl$u20$syn..parse..Parse$u20$for$u20$syn..expr..ExprUnsafe$GT$5parse17ha2c47789b9924b10E', symObjAddr: 0xF210, symBinAddr: 0x121550, symSize: 0x3A0 }
  - { offsetInCU: 0xD028, offset: 0x5C39F5, size: 0x8, addend: 0x0, symName: '__ZN3syn4expr7parsing68_$LT$impl$u20$syn..parse..Parse$u20$for$u20$syn..expr..ExprBlock$GT$5parse17h5f8eacd79eed7a3aE', symObjAddr: 0xF5B0, symBinAddr: 0x1218F0, symSize: 0x540 }
  - { offsetInCU: 0xDD12, offset: 0x5C46DF, size: 0x8, addend: 0x0, symName: '__ZN3syn4expr7parsing70_$LT$impl$u20$syn..parse..Parse$u20$for$u20$syn..expr..RangeLimits$GT$5parse17h55d2abebfdd8f5b2E', symObjAddr: 0xFAF0, symBinAddr: 0x121E30, symSize: 0x330 }
  - { offsetInCU: 0xEBC9, offset: 0x5C5596, size: 0x8, addend: 0x0, symName: '__ZN3syn4expr7parsing67_$LT$impl$u20$syn..parse..Parse$u20$for$u20$syn..expr..ExprPath$GT$5parse17h5999d7526d4caa01E', symObjAddr: 0xFE20, symBinAddr: 0x122160, symSize: 0x270 }
  - { offsetInCU: 0xF016, offset: 0x5C59E3, size: 0x8, addend: 0x0, symName: '__ZN3syn4expr7parsing65_$LT$impl$u20$syn..parse..Parse$u20$for$u20$syn..expr..Member$GT$5parse17h3c1f6e1ffd72b36eE', symObjAddr: 0x10090, symBinAddr: 0x1223D0, symSize: 0xE0 }
  - { offsetInCU: 0xF286, offset: 0x5C5C53, size: 0x8, addend: 0x0, symName: '__ZN3syn4expr7parsing62_$LT$impl$u20$syn..parse..Parse$u20$for$u20$syn..expr..Arm$GT$5parse17h4853f2ad1c1812eeE', symObjAddr: 0x10170, symBinAddr: 0x1224B0, symSize: 0xA40 }
  - { offsetInCU: 0x101C6, offset: 0x5C6B93, size: 0x8, addend: 0x0, symName: '__ZN3syn4expr7parsing64_$LT$impl$u20$syn..parse..Parse$u20$for$u20$syn..expr..Index$GT$5parse17hde4030d96c40375eE', symObjAddr: 0x10BB0, symBinAddr: 0x122EF0, symSize: 0x180 }
  - { offsetInCU: 0x1084F, offset: 0x5C721C, size: 0x8, addend: 0x0, symName: '__ZN62_$LT$syn..expr..Expr$u20$as$u20$quote..to_tokens..ToTokens$GT$9to_tokens17h26366c1ee5ef5979E', symObjAddr: 0x14A00, symBinAddr: 0x123F30, symSize: 0x2820 }
  - { offsetInCU: 0x1D98B, offset: 0x5D4358, size: 0x8, addend: 0x0, symName: '__ZN3syn3gen5clone63_$LT$impl$u20$core..clone..Clone$u20$for$u20$syn..expr..Arm$GT$5clone17head7f5f2381c2f20E', symObjAddr: 0x1E2C0, symBinAddr: 0x126750, symSize: 0x1F0 }
  - { offsetInCU: 0x1E32B, offset: 0x5D4CF8, size: 0x8, addend: 0x0, symName: '__ZN3syn3gen5clone64_$LT$impl$u20$core..clone..Clone$u20$for$u20$syn..expr..Expr$GT$5clone17h8dc5de0cb7452941E', symObjAddr: 0x1E4B0, symBinAddr: 0x126940, symSize: 0x2100 }
  - { offsetInCU: 0x22B4C, offset: 0x5D9519, size: 0x8, addend: 0x0, symName: '__ZN3syn3gen5clone69_$LT$impl$u20$core..clone..Clone$u20$for$u20$syn..expr..ExprBlock$GT$5clone17ha50b14e34c23c7c7E', symObjAddr: 0x20AD0, symBinAddr: 0x128A40, symSize: 0x130 }
  - { offsetInCU: 0x22E03, offset: 0x5D97D0, size: 0x8, addend: 0x0, symName: '__ZN3syn3gen5clone69_$LT$impl$u20$core..clone..Clone$u20$for$u20$syn..expr..ExprBreak$GT$5clone17hf7f419b5514dda66E', symObjAddr: 0x20CE0, symBinAddr: 0x128B70, symSize: 0x1A0 }
  - { offsetInCU: 0x232B3, offset: 0x5D9C80, size: 0x8, addend: 0x0, symName: '__ZN3syn3gen5clone71_$LT$impl$u20$core..clone..Clone$u20$for$u20$syn..expr..ExprClosure$GT$5clone17ha4bc3a4adb677c0bE', symObjAddr: 0x21130, symBinAddr: 0x128D10, symSize: 0x240 }
  - { offsetInCU: 0x2386C, offset: 0x5DA239, size: 0x8, addend: 0x0, symName: '__ZN3syn3gen5clone71_$LT$impl$u20$core..clone..Clone$u20$for$u20$syn..expr..ExprForLoop$GT$5clone17hb2e9cd210a53c157E', symObjAddr: 0x21580, symBinAddr: 0x128F50, symSize: 0x270 }
  - { offsetInCU: 0x23DA5, offset: 0x5DA772, size: 0x8, addend: 0x0, symName: '__ZN3syn3gen5clone66_$LT$impl$u20$core..clone..Clone$u20$for$u20$syn..expr..ExprIf$GT$5clone17habee9e19780c03d0E', symObjAddr: 0x217F0, symBinAddr: 0x1291C0, symSize: 0x1D0 }
  - { offsetInCU: 0x242C6, offset: 0x5DAC93, size: 0x8, addend: 0x0, symName: '__ZN3syn3gen5clone68_$LT$impl$u20$core..clone..Clone$u20$for$u20$syn..expr..ExprLoop$GT$5clone17hbfc8e04a26dc7d1cE', symObjAddr: 0x21CF0, symBinAddr: 0x129390, symSize: 0x140 }
  - { offsetInCU: 0x245B7, offset: 0x5DAF84, size: 0x8, addend: 0x0, symName: '__ZN3syn3gen5clone74_$LT$impl$u20$core..clone..Clone$u20$for$u20$syn..expr..ExprMethodCall$GT$5clone17h19dd05a260dc7f51E', symObjAddr: 0x22000, symBinAddr: 0x1294D0, symSize: 0x400 }
  - { offsetInCU: 0x24F8B, offset: 0x5DB958, size: 0x8, addend: 0x0, symName: '__ZN3syn3gen5clone68_$LT$impl$u20$core..clone..Clone$u20$for$u20$syn..expr..ExprPath$GT$5clone17hf4002bcc8fbcc188E', symObjAddr: 0x22400, symBinAddr: 0x1298D0, symSize: 0x1B0 }
  - { offsetInCU: 0x252F8, offset: 0x5DBCC5, size: 0x8, addend: 0x0, symName: '__ZN3syn3gen5clone69_$LT$impl$u20$core..clone..Clone$u20$for$u20$syn..expr..ExprRange$GT$5clone17hd8f8dbfaae951ec7E', symObjAddr: 0x225B0, symBinAddr: 0x129A80, symSize: 0x1A0 }
  - { offsetInCU: 0x25805, offset: 0x5DC1D2, size: 0x8, addend: 0x0, symName: '__ZN3syn3gen5clone70_$LT$impl$u20$core..clone..Clone$u20$for$u20$syn..expr..ExprStruct$GT$5clone17h0216c4a487034cceE', symObjAddr: 0x229D0, symBinAddr: 0x129C20, symSize: 0x270 }
  - { offsetInCU: 0x25D8F, offset: 0x5DC75C, size: 0x8, addend: 0x0, symName: '__ZN3syn3gen5clone69_$LT$impl$u20$core..clone..Clone$u20$for$u20$syn..expr..ExprWhile$GT$5clone17h9117bae495ae712bE', symObjAddr: 0x23010, symBinAddr: 0x129E90, symSize: 0x1F0 }
  - { offsetInCU: 0x26299, offset: 0x5DCC66, size: 0x8, addend: 0x0, symName: '__ZN3syn3gen5clone70_$LT$impl$u20$core..clone..Clone$u20$for$u20$syn..expr..FieldValue$GT$5clone17hca1e6a1a3e6abb5fE', symObjAddr: 0x232F0, symBinAddr: 0x12A080, symSize: 0x150 }
  - { offsetInCU: 0x265BC, offset: 0x5DCF89, size: 0x8, addend: 0x0, symName: '__ZN3syn3gen2eq83_$LT$impl$u20$core..cmp..PartialEq$u20$for$u20$syn..expr..GenericMethodArgument$GT$2eq17h923eea9369ec1fe3E', symObjAddr: 0x24D10, symBinAddr: 0x12B810, symSize: 0x40 }
  - { offsetInCU: 0x26678, offset: 0x5DD045, size: 0x8, addend: 0x0, symName: '__ZN3syn3gen2eq66_$LT$impl$u20$core..cmp..PartialEq$u20$for$u20$syn..expr..Expr$GT$2eq17h978b9cbeab2bfa78E', symObjAddr: 0x23630, symBinAddr: 0x12A1D0, symSize: 0x270 }
  - { offsetInCU: 0x26C2A, offset: 0x5DD5F7, size: 0x8, addend: 0x0, symName: '__ZN3syn3gen2eq71_$LT$impl$u20$core..cmp..PartialEq$u20$for$u20$syn..expr..ExprArray$GT$2eq17hb6288ec899a46440E', symObjAddr: 0x238A0, symBinAddr: 0x12A440, symSize: 0x0 }
  - { offsetInCU: 0x26E64, offset: 0x5DD831, size: 0x8, addend: 0x0, symName: '__ZN3syn3gen2eq71_$LT$impl$u20$core..cmp..PartialEq$u20$for$u20$syn..expr..ExprAsync$GT$2eq17hef785b37abe1f2beE', symObjAddr: 0x23960, symBinAddr: 0x12A500, symSize: 0xA0 }
  - { offsetInCU: 0x27046, offset: 0x5DDA13, size: 0x8, addend: 0x0, symName: '__ZN3syn3gen2eq72_$LT$impl$u20$core..cmp..PartialEq$u20$for$u20$syn..expr..ExprBinary$GT$2eq17h63d55b48cad245d9E', symObjAddr: 0x23A00, symBinAddr: 0x12A5A0, symSize: 0x0 }
  - { offsetInCU: 0x27189, offset: 0x5DDB56, size: 0x8, addend: 0x0, symName: '__ZN3syn3gen2eq71_$LT$impl$u20$core..cmp..PartialEq$u20$for$u20$syn..expr..ExprBlock$GT$2eq17h06346384e5e9fd15E', symObjAddr: 0x23A60, symBinAddr: 0x12A600, symSize: 0xB0 }
  - { offsetInCU: 0x2739A, offset: 0x5DDD67, size: 0x8, addend: 0x0, symName: '__ZN3syn3gen2eq69_$LT$impl$u20$core..cmp..PartialEq$u20$for$u20$syn..expr..ExprBox$GT$2eq17hcb3ec3c795e4b354E', symObjAddr: 0x23B10, symBinAddr: 0x12A6B0, symSize: 0x0 }
  - { offsetInCU: 0x27461, offset: 0x5DDE2E, size: 0x8, addend: 0x0, symName: '__ZN3syn3gen2eq71_$LT$impl$u20$core..cmp..PartialEq$u20$for$u20$syn..expr..ExprBreak$GT$2eq17hb10a03af300e9dcaE', symObjAddr: 0x23B50, symBinAddr: 0x12A6F0, symSize: 0x80 }
  - { offsetInCU: 0x275F4, offset: 0x5DDFC1, size: 0x8, addend: 0x0, symName: '__ZN3syn3gen2eq70_$LT$impl$u20$core..cmp..PartialEq$u20$for$u20$syn..expr..ExprCall$GT$2eq17h8a24ded37be90ff9E', symObjAddr: 0x23BD0, symBinAddr: 0x12A770, symSize: 0xD0 }
  - { offsetInCU: 0x27864, offset: 0x5DE231, size: 0x8, addend: 0x0, symName: '__ZN3syn3gen2eq70_$LT$impl$u20$core..cmp..PartialEq$u20$for$u20$syn..expr..ExprCast$GT$2eq17hb2bccbf20bedbf63E', symObjAddr: 0x23CA0, symBinAddr: 0x12A840, symSize: 0x0 }
  - { offsetInCU: 0x27961, offset: 0x5DE32E, size: 0x8, addend: 0x0, symName: '__ZN3syn3gen2eq73_$LT$impl$u20$core..cmp..PartialEq$u20$for$u20$syn..expr..ExprClosure$GT$2eq17h71cb30325b623a60E', symObjAddr: 0x23CF0, symBinAddr: 0x12A890, symSize: 0x140 }
  - { offsetInCU: 0x27CF7, offset: 0x5DE6C4, size: 0x8, addend: 0x0, symName: '__ZN3syn3gen2eq74_$LT$impl$u20$core..cmp..PartialEq$u20$for$u20$syn..expr..ExprContinue$GT$2eq17h0bf157a21fe802ceE', symObjAddr: 0x23E30, symBinAddr: 0x12A9D0, symSize: 0x70 }
  - { offsetInCU: 0x27DF6, offset: 0x5DE7C3, size: 0x8, addend: 0x0, symName: '__ZN3syn3gen2eq71_$LT$impl$u20$core..cmp..PartialEq$u20$for$u20$syn..expr..ExprField$GT$2eq17h3352741af8443366E', symObjAddr: 0x23EA0, symBinAddr: 0x12AA40, symSize: 0x70 }
  - { offsetInCU: 0x27F72, offset: 0x5DE93F, size: 0x8, addend: 0x0, symName: '__ZN3syn3gen2eq73_$LT$impl$u20$core..cmp..PartialEq$u20$for$u20$syn..expr..ExprForLoop$GT$2eq17h1f236e47221377dbE', symObjAddr: 0x23F10, symBinAddr: 0x12AAB0, symSize: 0xF0 }
  - { offsetInCU: 0x281C5, offset: 0x5DEB92, size: 0x8, addend: 0x0, symName: '__ZN3syn3gen2eq68_$LT$impl$u20$core..cmp..PartialEq$u20$for$u20$syn..expr..ExprIf$GT$2eq17h5310f237c397242eE', symObjAddr: 0x24000, symBinAddr: 0x12ABA0, symSize: 0xD0 }
  - { offsetInCU: 0x2842D, offset: 0x5DEDFA, size: 0x8, addend: 0x0, symName: '__ZN3syn3gen2eq71_$LT$impl$u20$core..cmp..PartialEq$u20$for$u20$syn..expr..ExprIndex$GT$2eq17hb51085938f273a65E', symObjAddr: 0x240D0, symBinAddr: 0x12AC70, symSize: 0x0 }
  - { offsetInCU: 0x2852A, offset: 0x5DEEF7, size: 0x8, addend: 0x0, symName: '__ZN3syn3gen2eq69_$LT$impl$u20$core..cmp..PartialEq$u20$for$u20$syn..expr..ExprLet$GT$2eq17h497e43d5b514e4c0E', symObjAddr: 0x24120, symBinAddr: 0x12ACC0, symSize: 0x60 }
  - { offsetInCU: 0x285F1, offset: 0x5DEFBE, size: 0x8, addend: 0x0, symName: '__ZN3syn3gen2eq69_$LT$impl$u20$core..cmp..PartialEq$u20$for$u20$syn..expr..ExprLit$GT$2eq17h9219e58912ed6c87E', symObjAddr: 0x24180, symBinAddr: 0x12AD20, symSize: 0x50 }
  - { offsetInCU: 0x28682, offset: 0x5DF04F, size: 0x8, addend: 0x0, symName: '__ZN3syn3gen2eq70_$LT$impl$u20$core..cmp..PartialEq$u20$for$u20$syn..expr..ExprLoop$GT$2eq17h2f9bf57068ca5ae6E', symObjAddr: 0x241D0, symBinAddr: 0x12AD70, symSize: 0xB0 }
  - { offsetInCU: 0x28893, offset: 0x5DF260, size: 0x8, addend: 0x0, symName: '__ZN3syn3gen2eq71_$LT$impl$u20$core..cmp..PartialEq$u20$for$u20$syn..expr..ExprMacro$GT$2eq17h4bbbde265af0ab8dE', symObjAddr: 0x24280, symBinAddr: 0x12AE20, symSize: 0x50 }
  - { offsetInCU: 0x28924, offset: 0x5DF2F1, size: 0x8, addend: 0x0, symName: '__ZN3syn3gen2eq71_$LT$impl$u20$core..cmp..PartialEq$u20$for$u20$syn..expr..ExprMatch$GT$2eq17h9b21ddca5473a0f6E', symObjAddr: 0x242D0, symBinAddr: 0x12AE70, symSize: 0x150 }
  - { offsetInCU: 0x28CF2, offset: 0x5DF6BF, size: 0x8, addend: 0x0, symName: '__ZN3syn3gen2eq76_$LT$impl$u20$core..cmp..PartialEq$u20$for$u20$syn..expr..ExprMethodCall$GT$2eq17ha3a10c9e028d2498E', symObjAddr: 0x24420, symBinAddr: 0x12AFC0, symSize: 0x1D0 }
  - { offsetInCU: 0x29199, offset: 0x5DFB66, size: 0x8, addend: 0x0, symName: '__ZN3syn3gen2eq70_$LT$impl$u20$core..cmp..PartialEq$u20$for$u20$syn..expr..ExprPath$GT$2eq17h01e1da17659b6ff1E', symObjAddr: 0x245F0, symBinAddr: 0x12B190, symSize: 0xE0 }
  - { offsetInCU: 0x2946F, offset: 0x5DFE3C, size: 0x8, addend: 0x0, symName: '__ZN3syn3gen2eq71_$LT$impl$u20$core..cmp..PartialEq$u20$for$u20$syn..expr..ExprRange$GT$2eq17h95dcc5bc65175401E', symObjAddr: 0x246D0, symBinAddr: 0x12B270, symSize: 0x90 }
  - { offsetInCU: 0x2962E, offset: 0x5DFFFB, size: 0x8, addend: 0x0, symName: '__ZN3syn3gen2eq75_$LT$impl$u20$core..cmp..PartialEq$u20$for$u20$syn..expr..ExprReference$GT$2eq17hd9ed12ebe9d51d1cE', symObjAddr: 0x24760, symBinAddr: 0x12B300, symSize: 0x60 }
  - { offsetInCU: 0x2971B, offset: 0x5E00E8, size: 0x8, addend: 0x0, symName: '__ZN3syn3gen2eq72_$LT$impl$u20$core..cmp..PartialEq$u20$for$u20$syn..expr..ExprStruct$GT$2eq17haff69ac12528ac28E', symObjAddr: 0x247C0, symBinAddr: 0x12B360, symSize: 0x2B0 }
  - { offsetInCU: 0x29DE5, offset: 0x5E07B2, size: 0x8, addend: 0x0, symName: '__ZN3syn3gen2eq71_$LT$impl$u20$core..cmp..PartialEq$u20$for$u20$syn..expr..ExprUnary$GT$2eq17h137f65a4cae896feE', symObjAddr: 0x24A70, symBinAddr: 0x12B610, symSize: 0x60 }
  - { offsetInCU: 0x29ED2, offset: 0x5E089F, size: 0x8, addend: 0x0, symName: '__ZN3syn3gen2eq72_$LT$impl$u20$core..cmp..PartialEq$u20$for$u20$syn..expr..ExprUnsafe$GT$2eq17hb6f3751ae4b25fbbE', symObjAddr: 0x24AD0, symBinAddr: 0x12B670, symSize: 0x0 }
  - { offsetInCU: 0x2A051, offset: 0x5E0A1E, size: 0x8, addend: 0x0, symName: '__ZN3syn3gen2eq71_$LT$impl$u20$core..cmp..PartialEq$u20$for$u20$syn..expr..ExprWhile$GT$2eq17hf8deac637ccd7038E', symObjAddr: 0x24B50, symBinAddr: 0x12B6F0, symSize: 0xC0 }
  - { offsetInCU: 0x2A2A2, offset: 0x5E0C6F, size: 0x8, addend: 0x0, symName: '__ZN3syn3gen2eq71_$LT$impl$u20$core..cmp..PartialEq$u20$for$u20$syn..expr..ExprYield$GT$2eq17h45c60053d9e029b6E', symObjAddr: 0x24C10, symBinAddr: 0x12B7B0, symSize: 0x0 }
  - { offsetInCU: 0x2C5D4, offset: 0x5E2FA1, size: 0x8, addend: 0x0, symName: '__ZN4core3ptr100drop_in_place$LT$core..option..Option$LT$alloc..boxed..Box$LT$syn..generics..LifetimeDef$GT$$GT$$GT$17h75a6086997697dd7E', symObjAddr: 0x300, symBinAddr: 0x1153A0, symSize: 0x150 }
  - { offsetInCU: 0x2CB50, offset: 0x5E351D, size: 0x8, addend: 0x0, symName: '__ZN4core3ptr100drop_in_place$LT$core..option..Option$LT$alloc..boxed..Box$LT$syn..path..GenericArgument$GT$$GT$$GT$17h3d29ec00a8f1918dE', symObjAddr: 0x450, symBinAddr: 0x1154F0, symSize: 0x50 }
  - { offsetInCU: 0x2CD99, offset: 0x5E3766, size: 0x8, addend: 0x0, symName: '__ZN4core3ptr103drop_in_place$LT$syn..punctuated..Punctuated$LT$syn..generics..TypeParamBound$C$syn..token..Add$GT$$GT$17he811d520c92af08aE', symObjAddr: 0x4A0, symBinAddr: 0x115540, symSize: 0xF0 }
  - { offsetInCU: 0x2D308, offset: 0x5E3CD5, size: 0x8, addend: 0x0, symName: '__ZN4core3ptr106drop_in_place$LT$core..option..Option$LT$alloc..boxed..Box$LT$syn..expr..GenericMethodArgument$GT$$GT$$GT$17h96ed0a5acdf7b53bE', symObjAddr: 0x590, symBinAddr: 0x115630, symSize: 0x70 }
  - { offsetInCU: 0x2D4EC, offset: 0x5E3EB9, size: 0x8, addend: 0x0, symName: '__ZN4core3ptr108drop_in_place$LT$syn..punctuated..Punctuated$LT$syn..expr..GenericMethodArgument$C$syn..token..Comma$GT$$GT$17h92cbabe4862b2183E', symObjAddr: 0x600, symBinAddr: 0x1156A0, symSize: 0x150 }
  - { offsetInCU: 0x2D99F, offset: 0x5E436C, size: 0x8, addend: 0x0, symName: '__ZN4core3ptr114drop_in_place$LT$core..option..Option$LT$$LP$syn..token..If$C$alloc..boxed..Box$LT$syn..expr..Expr$GT$$RP$$GT$$GT$17hf2aa3e1ea6c77ac4E.llvm.8444515518860579797', symObjAddr: 0x750, symBinAddr: 0x1157F0, symSize: 0x50 }
  - { offsetInCU: 0x2DBCE, offset: 0x5E459B, size: 0x8, addend: 0x0, symName: '__ZN4core3ptr34drop_in_place$LT$syn..lit..Lit$GT$17hbe1efe749a08dd9aE', symObjAddr: 0x7A0, symBinAddr: 0x115840, symSize: 0x120 }
  - { offsetInCU: 0x2E0E8, offset: 0x5E4AB5, size: 0x8, addend: 0x0, symName: '__ZN4core3ptr34drop_in_place$LT$syn..pat..Pat$GT$17h3201f642e43ac2a2E.llvm.8444515518860579797', symObjAddr: 0x8C0, symBinAddr: 0x115960, symSize: 0x1190 }
  - { offsetInCU: 0x32000, offset: 0x5E89CD, size: 0x8, addend: 0x0, symName: '__ZN4core3ptr34drop_in_place$LT$syn..ty..Type$GT$17hfb5d159a08190130E.llvm.8444515518860579797', symObjAddr: 0x1A50, symBinAddr: 0x116AF0, symSize: 0x580 }
  - { offsetInCU: 0x33288, offset: 0x5E9C55, size: 0x8, addend: 0x0, symName: '__ZN4core3ptr35drop_in_place$LT$syn..expr..Arm$GT$17h2f058dcaecfc86d5E', symObjAddr: 0x1FD0, symBinAddr: 0x117070, symSize: 0x190 }
  - { offsetInCU: 0x33C04, offset: 0x5EA5D1, size: 0x8, addend: 0x0, symName: '__ZN4core3ptr36drop_in_place$LT$syn..expr..Expr$GT$17hf1921d1b09462bc3E.llvm.8444515518860579797', symObjAddr: 0x2160, symBinAddr: 0x117200, symSize: 0x1E60 }
  - { offsetInCU: 0x3A4C0, offset: 0x5F0E8D, size: 0x8, addend: 0x0, symName: '__ZN4core3ptr36drop_in_place$LT$syn..mac..Macro$GT$17h205613d7ad575f72E', symObjAddr: 0x3FC0, symBinAddr: 0x119060, symSize: 0x40 }
  - { offsetInCU: 0x3A611, offset: 0x5F0FDE, size: 0x8, addend: 0x0, symName: '__ZN4core3ptr36drop_in_place$LT$syn..path..Path$GT$17he6d0bec66d66b98aE', symObjAddr: 0x4000, symBinAddr: 0x1190A0, symSize: 0x230 }
  - { offsetInCU: 0x3AFE5, offset: 0x5F19B2, size: 0x8, addend: 0x0, symName: '__ZN4core3ptr37drop_in_place$LT$syn..lit..LitInt$GT$17h81ad5befc6ce2d73E.llvm.8444515518860579797', symObjAddr: 0x4230, symBinAddr: 0x1192D0, symSize: 0x70 }
  - { offsetInCU: 0x3B395, offset: 0x5F1D62, size: 0x8, addend: 0x0, symName: '__ZN4core3ptr37drop_in_place$LT$syn..stmt..Block$GT$17h3aa429e75a234230E', symObjAddr: 0x42A0, symBinAddr: 0x119340, symSize: 0xD0 }
  - { offsetInCU: 0x3B6C9, offset: 0x5F2096, size: 0x8, addend: 0x0, symName: '__ZN4core3ptr38drop_in_place$LT$syn..expr..ExprIf$GT$17hec63a1943e3da109E', symObjAddr: 0x4370, symBinAddr: 0x119410, symSize: 0x220 }
  - { offsetInCU: 0x3BF8B, offset: 0x5F2958, size: 0x8, addend: 0x0, symName: '__ZN4core3ptr38drop_in_place$LT$syn..expr..Member$GT$17ha113d37a67d27aafE.llvm.8444515518860579797', symObjAddr: 0x4590, symBinAddr: 0x119630, symSize: 0x30 }
  - { offsetInCU: 0x3C087, offset: 0x5F2A54, size: 0x8, addend: 0x0, symName: '__ZN4core3ptr39drop_in_place$LT$proc_macro2..Ident$GT$17hdeec010483268a0dE', symObjAddr: 0x45C0, symBinAddr: 0x119660, symSize: 0x30 }
  - { offsetInCU: 0x3C164, offset: 0x5F2B31, size: 0x8, addend: 0x0, symName: '__ZN4core3ptr39drop_in_place$LT$syn..pat..PatTuple$GT$17h96faeea9832d4c4bE', symObjAddr: 0x4950, symBinAddr: 0x119690, symSize: 0x100 }
  - { offsetInCU: 0x3C4AB, offset: 0x5F2E78, size: 0x8, addend: 0x0, symName: '__ZN4core3ptr40drop_in_place$LT$syn..expr..ExprLoop$GT$17h9e505579fd62ef6fE', symObjAddr: 0x4CE0, symBinAddr: 0x119790, symSize: 0x1D0 }
  - { offsetInCU: 0x3CBDA, offset: 0x5F35A7, size: 0x8, addend: 0x0, symName: '__ZN4core3ptr40drop_in_place$LT$syn..ty..ReturnType$GT$17h6f97c9fdb958983eE', symObjAddr: 0x4FF0, symBinAddr: 0x119960, symSize: 0x50 }
  - { offsetInCU: 0x3CD4A, offset: 0x5F3717, size: 0x8, addend: 0x0, symName: '__ZN4core3ptr41drop_in_place$LT$syn..expr..ExprAsync$GT$17ha9124cede2896008E', symObjAddr: 0x5170, symBinAddr: 0x1199B0, symSize: 0x1B0 }
  - { offsetInCU: 0x3D33D, offset: 0x5F3D0A, size: 0x8, addend: 0x0, symName: '__ZN4core3ptr41drop_in_place$LT$syn..expr..ExprBlock$GT$17h7a5a7c5008d30d27E', symObjAddr: 0x5320, symBinAddr: 0x119B60, symSize: 0x1D0 }
  - { offsetInCU: 0x3DA8B, offset: 0x5F4458, size: 0x8, addend: 0x0, symName: '__ZN4core3ptr41drop_in_place$LT$syn..expr..ExprWhile$GT$17hf221395746fac5b6E', symObjAddr: 0x5EC0, symBinAddr: 0x119D30, symSize: 0x220 }
  - { offsetInCU: 0x3E3C5, offset: 0x5F4D92, size: 0x8, addend: 0x0, symName: '__ZN4core3ptr42drop_in_place$LT$syn..expr..ExprStruct$GT$17hcd4a233ae9f7b2e4E', symObjAddr: 0x6380, symBinAddr: 0x119F50, symSize: 0x250 }
  - { offsetInCU: 0x3ECCF, offset: 0x5F569C, size: 0x8, addend: 0x0, symName: '__ZN4core3ptr42drop_in_place$LT$syn..expr..ExprUnsafe$GT$17h1385f05be3ed92a0E', symObjAddr: 0x65D0, symBinAddr: 0x11A1A0, symSize: 0x1B0 }
  - { offsetInCU: 0x3F2C2, offset: 0x5F5C8F, size: 0x8, addend: 0x0, symName: '__ZN4core3ptr42drop_in_place$LT$syn..expr..FieldValue$GT$17h42a16bcbdc918058E', symObjAddr: 0x6780, symBinAddr: 0x11A350, symSize: 0x140 }
  - { offsetInCU: 0x3F74E, offset: 0x5F611B, size: 0x8, addend: 0x0, symName: '__ZN4core3ptr43drop_in_place$LT$syn..expr..ExprClosure$GT$17h33394450256957a8E', symObjAddr: 0x68C0, symBinAddr: 0x11A490, symSize: 0x270 }
  - { offsetInCU: 0x401A7, offset: 0x5F6B74, size: 0x8, addend: 0x0, symName: '__ZN4core3ptr43drop_in_place$LT$syn..expr..ExprForLoop$GT$17hdb72d4fbe32f57c8E', symObjAddr: 0x6B30, symBinAddr: 0x11A700, symSize: 0x240 }
  - { offsetInCU: 0x40A1E, offset: 0x5F73EB, size: 0x8, addend: 0x0, symName: '__ZN4core3ptr44drop_in_place$LT$syn..lifetime..Lifetime$GT$17h3858225df033648aE', symObjAddr: 0x6E80, symBinAddr: 0x11A940, symSize: 0x30 }
  - { offsetInCU: 0x40B96, offset: 0x5F7563, size: 0x8, addend: 0x0, symName: '__ZN4core3ptr44drop_in_place$LT$syn..parse..ParseBuffer$GT$17h19c266fcccc430cbE', symObjAddr: 0x6EB0, symBinAddr: 0x11A970, symSize: 0x70 }
  - { offsetInCU: 0x40FAD, offset: 0x5F797A, size: 0x8, addend: 0x0, symName: '__ZN4core3ptr45drop_in_place$LT$proc_macro2..TokenStream$GT$17h2507cb30e765dc85E.llvm.8444515518860579797', symObjAddr: 0x6F20, symBinAddr: 0x11A9E0, symSize: 0x140 }
  - { offsetInCU: 0x414C4, offset: 0x5F7E91, size: 0x8, addend: 0x0, symName: '__ZN4core3ptr46drop_in_place$LT$syn..expr..ExprMethodCall$GT$17hc2c41e6c148679f7E', symObjAddr: 0x7190, symBinAddr: 0x11AB20, symSize: 0x3A0 }
  - { offsetInCU: 0x42364, offset: 0x5F8D31, size: 0x8, addend: 0x0, symName: '__ZN4core3ptr47drop_in_place$LT$syn..expr..MethodTurbofish$GT$17hfb737c85726076f0E', symObjAddr: 0x7530, symBinAddr: 0x11AEC0, symSize: 0x150 }
  - { offsetInCU: 0x4282E, offset: 0x5F91FB, size: 0x8, addend: 0x0, symName: '__ZN4core3ptr47drop_in_place$LT$syn..path..GenericArgument$GT$17h8c0a0d8c6deaefb4E', symObjAddr: 0x7680, symBinAddr: 0x11B010, symSize: 0x110 }
  - { offsetInCU: 0x42B49, offset: 0x5F9516, size: 0x8, addend: 0x0, symName: '__ZN4core3ptr58drop_in_place$LT$alloc..vec..Vec$LT$syn..expr..Arm$GT$$GT$17hf3db0825f3d9c861E', symObjAddr: 0x7790, symBinAddr: 0x11B120, symSize: 0xD0 }
  - { offsetInCU: 0x42E09, offset: 0x5F97D6, size: 0x8, addend: 0x0, symName: '__ZN4core3ptr59drop_in_place$LT$alloc..boxed..Box$LT$syn..pat..Pat$GT$$GT$17h7037ce9bbd3729c6E', symObjAddr: 0x7860, symBinAddr: 0x11B1F0, symSize: 0x50 }
  - { offsetInCU: 0x42F62, offset: 0x5F992F, size: 0x8, addend: 0x0, symName: '__ZN4core3ptr59drop_in_place$LT$alloc..boxed..Box$LT$syn..ty..Type$GT$$GT$17h2eccd13329dbe4faE', symObjAddr: 0x78B0, symBinAddr: 0x11B240, symSize: 0x50 }
  - { offsetInCU: 0x430BB, offset: 0x5F9A88, size: 0x8, addend: 0x0, symName: '__ZN4core3ptr59drop_in_place$LT$alloc..vec..Vec$LT$syn..stmt..Stmt$GT$$GT$17hed4646381107e302E', symObjAddr: 0x7900, symBinAddr: 0x11B290, symSize: 0xD0 }
  - { offsetInCU: 0x4337B, offset: 0x5F9D48, size: 0x8, addend: 0x0, symName: '__ZN4core3ptr61drop_in_place$LT$alloc..boxed..Box$LT$syn..expr..Expr$GT$$GT$17h66094ddc89015516E', symObjAddr: 0x79D0, symBinAddr: 0x11B360, symSize: 0x50 }
  - { offsetInCU: 0x43550, offset: 0x5F9F1D, size: 0x8, addend: 0x0, symName: '__ZN4core3ptr61drop_in_place$LT$syn..path..ParenthesizedGenericArguments$GT$17h21be9b1d7a6fab55E', symObjAddr: 0x7A20, symBinAddr: 0x11B3B0, symSize: 0x170 }
  - { offsetInCU: 0x43B46, offset: 0x5FA513, size: 0x8, addend: 0x0, symName: '__ZN4core3ptr63drop_in_place$LT$alloc..boxed..Box$LT$syn..lit..LitRepr$GT$$GT$17h9c509b794406150eE', symObjAddr: 0x7B90, symBinAddr: 0x11B520, symSize: 0x60 }
  - { offsetInCU: 0x43E2E, offset: 0x5FA7FB, size: 0x8, addend: 0x0, symName: '__ZN4core3ptr64drop_in_place$LT$alloc..boxed..Box$LT$syn..pat..FieldPat$GT$$GT$17hb167b355d0d4733fE', symObjAddr: 0x7BF0, symBinAddr: 0x11B580, symSize: 0x180 }
  - { offsetInCU: 0x4454B, offset: 0x5FAF18, size: 0x8, addend: 0x0, symName: '__ZN4core3ptr64drop_in_place$LT$alloc..boxed..Box$LT$syn..ty..BareFnArg$GT$$GT$17h6488be9448346678E', symObjAddr: 0x7D70, symBinAddr: 0x11B700, symSize: 0x160 }
  - { offsetInCU: 0x44AE1, offset: 0x5FB4AE, size: 0x8, addend: 0x0, symName: '__ZN4core3ptr64drop_in_place$LT$alloc..vec..Vec$LT$syn..attr..Attribute$GT$$GT$17h386324d8ea9bc309E.llvm.8444515518860579797', symObjAddr: 0x7ED0, symBinAddr: 0x11B860, symSize: 0xF0 }
  - { offsetInCU: 0x44DD7, offset: 0x5FB7A4, size: 0x8, addend: 0x0, symName: '__ZN4core3ptr65drop_in_place$LT$alloc..vec..Vec$LT$proc_macro..TokenTree$GT$$GT$17hc3670dd5608d5259E.llvm.8444515518860579797', symObjAddr: 0x7FC0, symBinAddr: 0x11B950, symSize: 0x110 }
  - { offsetInCU: 0x451CF, offset: 0x5FBB9C, size: 0x8, addend: 0x0, symName: '__ZN4core3ptr65drop_in_place$LT$core..option..Option$LT$syn..expr..Label$GT$$GT$17ha723640fd01bec5dE', symObjAddr: 0x80D0, symBinAddr: 0x11BA60, symSize: 0x30 }
  - { offsetInCU: 0x45309, offset: 0x5FBCD6, size: 0x8, addend: 0x0, symName: '__ZN4core3ptr65drop_in_place$LT$core..option..Option$LT$syn..path..QSelf$GT$$GT$17h213ca1c3399df9f2E', symObjAddr: 0x8100, symBinAddr: 0x11BA90, symSize: 0x50 }
  - { offsetInCU: 0x454A0, offset: 0x5FBE6D, size: 0x8, addend: 0x0, symName: '__ZN4core3ptr66drop_in_place$LT$core..option..Option$LT$syn..ty..Variadic$GT$$GT$17hc32134bb3933b0dfE', symObjAddr: 0x8150, symBinAddr: 0x11BAE0, symSize: 0xF0 }
  - { offsetInCU: 0x457CA, offset: 0x5FC197, size: 0x8, addend: 0x0, symName: '__ZN4core3ptr67drop_in_place$LT$alloc..boxed..Box$LT$syn..expr..FieldValue$GT$$GT$17h8df780aa600ea8c2E', symObjAddr: 0x8240, symBinAddr: 0x11BBD0, symSize: 0x160 }
  - { offsetInCU: 0x45D4C, offset: 0x5FC719, size: 0x8, addend: 0x0, symName: '__ZN4core3ptr68drop_in_place$LT$alloc..boxed..Box$LT$syn..path..PathSegment$GT$$GT$17h1957b54eed39c0bbE', symObjAddr: 0x83A0, symBinAddr: 0x11BD30, symSize: 0x190 }
  - { offsetInCU: 0x46456, offset: 0x5FCE23, size: 0x8, addend: 0x0, symName: '__ZN4core3ptr72drop_in_place$LT$alloc..boxed..Box$LT$syn..path..GenericArgument$GT$$GT$17ha8f8136d0c2b505bE', symObjAddr: 0x8530, symBinAddr: 0x11BEC0, symSize: 0x120 }
  - { offsetInCU: 0x468CE, offset: 0x5FD29B, size: 0x8, addend: 0x0, symName: '__ZN4core3ptr72drop_in_place$LT$core..option..Option$LT$syn..lifetime..Lifetime$GT$$GT$17h31b55b93749c174dE', symObjAddr: 0x8650, symBinAddr: 0x11BFE0, symSize: 0x30 }
  - { offsetInCU: 0x469E9, offset: 0x5FD3B6, size: 0x8, addend: 0x0, symName: '__ZN4core3ptr75drop_in_place$LT$alloc..boxed..Box$LT$syn..generics..TypeParamBound$GT$$GT$17h8f156ce07ea0b8b2E', symObjAddr: 0x8680, symBinAddr: 0x11C010, symSize: 0x90 }
  - { offsetInCU: 0x46D28, offset: 0x5FD6F5, size: 0x8, addend: 0x0, symName: '__ZN4core3ptr78drop_in_place$LT$core..option..Option$LT$syn..generics..BoundLifetimes$GT$$GT$17h8175e66ad0c4a156E', symObjAddr: 0x8730, symBinAddr: 0x11C0A0, symSize: 0xE0 }
  - { offsetInCU: 0x47086, offset: 0x5FDA53, size: 0x8, addend: 0x0, symName: '__ZN4core3ptr86drop_in_place$LT$syn..punctuated..Punctuated$LT$syn..pat..Pat$C$syn..token..Or$GT$$GT$17h1078c5d178d382b7E', symObjAddr: 0x8810, symBinAddr: 0x11C180, symSize: 0x120 }
  - { offsetInCU: 0x47501, offset: 0x5FDECE, size: 0x8, addend: 0x0, symName: '__ZN4core3ptr87drop_in_place$LT$core..option..Option$LT$alloc..boxed..Box$LT$syn..pat..Pat$GT$$GT$$GT$17ha7f5fe0e6f73e820E', symObjAddr: 0x8930, symBinAddr: 0x11C2A0, symSize: 0x50 }
  - { offsetInCU: 0x47671, offset: 0x5FE03E, size: 0x8, addend: 0x0, symName: '__ZN4core3ptr87drop_in_place$LT$core..option..Option$LT$alloc..boxed..Box$LT$syn..ty..Type$GT$$GT$$GT$17hc8292da82d129de3E', symObjAddr: 0x8980, symBinAddr: 0x11C2F0, symSize: 0x50 }
  - { offsetInCU: 0x477E1, offset: 0x5FE1AE, size: 0x8, addend: 0x0, symName: '__ZN4core3ptr88drop_in_place$LT$$LP$syn..token..Else$C$alloc..boxed..Box$LT$syn..expr..Expr$GT$$RP$$GT$17h7dd7c259e93fb46bE', symObjAddr: 0x89D0, symBinAddr: 0x11C340, symSize: 0x50 }
  - { offsetInCU: 0x47959, offset: 0x5FE326, size: 0x8, addend: 0x0, symName: '__ZN4core3ptr89drop_in_place$LT$core..option..Option$LT$alloc..boxed..Box$LT$syn..expr..Expr$GT$$GT$$GT$17hdc211ccd33f196f2E', symObjAddr: 0x8A20, symBinAddr: 0x11C390, symSize: 0x50 }
  - { offsetInCU: 0x47AC9, offset: 0x5FE496, size: 0x8, addend: 0x0, symName: '__ZN4core3ptr89drop_in_place$LT$syn..punctuated..Punctuated$LT$syn..pat..Pat$C$syn..token..Comma$GT$$GT$17hf8371102b0500adcE', symObjAddr: 0x8A70, symBinAddr: 0x11C3E0, symSize: 0x120 }
  - { offsetInCU: 0x47F48, offset: 0x5FE915, size: 0x8, addend: 0x0, symName: '__ZN4core3ptr89drop_in_place$LT$syn..punctuated..Punctuated$LT$syn..ty..Type$C$syn..token..Comma$GT$$GT$17h1c6e43341fabea97E', symObjAddr: 0x8B90, symBinAddr: 0x11C500, symSize: 0x120 }
  - { offsetInCU: 0x483C3, offset: 0x5FED90, size: 0x8, addend: 0x0, symName: '__ZN4core3ptr91drop_in_place$LT$syn..punctuated..Punctuated$LT$syn..expr..Expr$C$syn..token..Comma$GT$$GT$17hd2dfeb0c522d9a18E', symObjAddr: 0x8CB0, symBinAddr: 0x11C620, symSize: 0x120 }
  - { offsetInCU: 0x4883E, offset: 0x5FF20B, size: 0x8, addend: 0x0, symName: '__ZN4core3ptr94drop_in_place$LT$syn..punctuated..Punctuated$LT$syn..pat..FieldPat$C$syn..token..Comma$GT$$GT$17h612cbc9066d5afb1E', symObjAddr: 0x8DD0, symBinAddr: 0x11C740, symSize: 0xF0 }
  - { offsetInCU: 0x48B3D, offset: 0x5FF50A, size: 0x8, addend: 0x0, symName: '__ZN4core3ptr94drop_in_place$LT$syn..punctuated..Punctuated$LT$syn..ty..BareFnArg$C$syn..token..Comma$GT$$GT$17ha9a668ce9972795bE', symObjAddr: 0x8EC0, symBinAddr: 0x11C830, symSize: 0xF0 }
  - { offsetInCU: 0x48E3A, offset: 0x5FF807, size: 0x8, addend: 0x0, symName: '__ZN4core3ptr95drop_in_place$LT$core..option..Option$LT$$LP$proc_macro2..Ident$C$syn..token..Colon$RP$$GT$$GT$17h7314df562090eafdE', symObjAddr: 0x8FB0, symBinAddr: 0x11C920, symSize: 0x30 }
  - { offsetInCU: 0x48F55, offset: 0x5FF922, size: 0x8, addend: 0x0, symName: '__ZN4core3ptr95drop_in_place$LT$core..option..Option$LT$alloc..boxed..Box$LT$syn..expr..FieldValue$GT$$GT$$GT$17hd0d57ae8c6b091c1E', symObjAddr: 0x8FE0, symBinAddr: 0x11C950, symSize: 0x50 }
  - { offsetInCU: 0x490C5, offset: 0x5FFA92, size: 0x8, addend: 0x0, symName: '__ZN4core3ptr96drop_in_place$LT$core..option..Option$LT$alloc..boxed..Box$LT$syn..path..PathSegment$GT$$GT$$GT$17h2e81cbe3c70bb71cE', symObjAddr: 0x9030, symBinAddr: 0x11C9A0, symSize: 0x180 }
  - { offsetInCU: 0x49782, offset: 0x60014F, size: 0x8, addend: 0x0, symName: '__ZN4core3ptr97drop_in_place$LT$syn..punctuated..Punctuated$LT$syn..expr..FieldValue$C$syn..token..Comma$GT$$GT$17h11a5fffb46adfb11E', symObjAddr: 0x91B0, symBinAddr: 0x11CB20, symSize: 0xF0 }
  - { offsetInCU: 0x49AFB, offset: 0x6004C8, size: 0x8, addend: 0x0, symName: '__ZN4core3ptr97drop_in_place$LT$syn..punctuated..Punctuated$LT$syn..lifetime..Lifetime$C$syn..token..Add$GT$$GT$17h5c54dea2c838d109E', symObjAddr: 0x92A0, symBinAddr: 0x11CC10, symSize: 0xD0 }
  - { offsetInCU: 0x49F6F, offset: 0x60093C, size: 0x8, addend: 0x0, symName: '__ZN4core3ptr99drop_in_place$LT$syn..punctuated..Punctuated$LT$syn..path..PathSegment$C$syn..token..Colon2$GT$$GT$17hb961e4d7989a33ceE', symObjAddr: 0x9370, symBinAddr: 0x11CCE0, symSize: 0x250 }
  - { offsetInCU: 0x51E3F, offset: 0x60880C, size: 0x8, addend: 0x0, symName: __ZN5alloc5alloc15exchange_malloc17h9a87608d0224859dE, symObjAddr: 0x9610, symBinAddr: 0x11CF30, symSize: 0x40 }
  - { offsetInCU: 0x543CE, offset: 0x60AD9B, size: 0x8, addend: 0x0, symName: '__ZN69_$LT$alloc..boxed..Box$LT$T$C$A$GT$$u20$as$u20$core..clone..Clone$GT$5clone17hb1b95e73f0a2c98fE', symObjAddr: 0x9BB0, symBinAddr: 0x11CF70, symSize: 0x90 }
  - { offsetInCU: 0x56A4C, offset: 0x60D419, size: 0x8, addend: 0x0, symName: __ZN3syn4expr4Expr13replace_attrs17h45273f69f34fc620E, symObjAddr: 0x9E60, symBinAddr: 0x11D000, symSize: 0x210 }
  - { offsetInCU: 0x19D9, offset: 0x61C87D, size: 0x8, addend: 0x0, symName: '__ZN4core3ptr100drop_in_place$LT$core..option..Option$LT$alloc..boxed..Box$LT$syn..generics..LifetimeDef$GT$$GT$$GT$17h75a6086997697dd7E.llvm.2919429348807089406', symObjAddr: 0x560, symBinAddr: 0x12BC40, symSize: 0x50 }
  - { offsetInCU: 0x1B68, offset: 0x61CA0C, size: 0x8, addend: 0x0, symName: '__ZN4core3ptr100drop_in_place$LT$core..option..Option$LT$alloc..boxed..Box$LT$syn..path..GenericArgument$GT$$GT$$GT$17h3d29ec00a8f1918dE', symObjAddr: 0x5B0, symBinAddr: 0x12BC90, symSize: 0x50 }
  - { offsetInCU: 0x1D35, offset: 0x61CBD9, size: 0x8, addend: 0x0, symName: '__ZN4core3ptr101drop_in_place$LT$alloc..vec..Vec$LT$$LP$syn..generics..WherePredicate$C$syn..token..Comma$RP$$GT$$GT$17h08dfdcabd164aa70E.llvm.2919429348807089406', symObjAddr: 0x600, symBinAddr: 0x12BCE0, symSize: 0xD0 }
  - { offsetInCU: 0x204F, offset: 0x61CEF3, size: 0x8, addend: 0x0, symName: '__ZN4core3ptr101drop_in_place$LT$core..option..Option$LT$alloc..boxed..Box$LT$syn..generics..GenericParam$GT$$GT$$GT$17h1fee4f1c7bd902c4E', symObjAddr: 0x6D0, symBinAddr: 0x12BDB0, symSize: 0x50 }
  - { offsetInCU: 0x223B, offset: 0x61D0DF, size: 0x8, addend: 0x0, symName: '__ZN4core3ptr102drop_in_place$LT$syn..punctuated..Punctuated$LT$syn..generics..LifetimeDef$C$syn..token..Comma$GT$$GT$17h6013ea99e87d4528E.llvm.2919429348807089406', symObjAddr: 0x720, symBinAddr: 0x12BE00, symSize: 0xF0 }
  - { offsetInCU: 0x25B9, offset: 0x61D45D, size: 0x8, addend: 0x0, symName: '__ZN4core3ptr102drop_in_place$LT$syn..punctuated..Punctuated$LT$syn..path..GenericArgument$C$syn..token..Comma$GT$$GT$17h4b445f97c5aefb0eE.llvm.2919429348807089406', symObjAddr: 0x810, symBinAddr: 0x12BEF0, symSize: 0xF0 }
  - { offsetInCU: 0x29F3, offset: 0x61D897, size: 0x8, addend: 0x0, symName: '__ZN4core3ptr103drop_in_place$LT$core..option..Option$LT$alloc..boxed..Box$LT$syn..generics..TypeParamBound$GT$$GT$$GT$17h6cee73bc2b2ecea8E', symObjAddr: 0x900, symBinAddr: 0x12BFE0, symSize: 0xA0 }
  - { offsetInCU: 0x2CE2, offset: 0x61DB86, size: 0x8, addend: 0x0, symName: '__ZN4core3ptr103drop_in_place$LT$core..option..Option$LT$alloc..boxed..Box$LT$syn..generics..WherePredicate$GT$$GT$$GT$17headad361972eced7E', symObjAddr: 0x9A0, symBinAddr: 0x12C080, symSize: 0x50 }
  - { offsetInCU: 0x2F0C, offset: 0x61DDB0, size: 0x8, addend: 0x0, symName: '__ZN4core3ptr103drop_in_place$LT$syn..punctuated..Punctuated$LT$syn..generics..GenericParam$C$syn..token..Comma$GT$$GT$17hae00367f0c570156E', symObjAddr: 0x9F0, symBinAddr: 0x12C0D0, symSize: 0x1A0 }
  - { offsetInCU: 0x349B, offset: 0x61E33F, size: 0x8, addend: 0x0, symName: '__ZN4core3ptr103drop_in_place$LT$syn..punctuated..Punctuated$LT$syn..generics..TypeParamBound$C$syn..token..Add$GT$$GT$17he811d520c92af08aE', symObjAddr: 0xB90, symBinAddr: 0x12C270, symSize: 0x290 }
  - { offsetInCU: 0x40F1, offset: 0x61EF95, size: 0x8, addend: 0x0, symName: '__ZN4core3ptr104drop_in_place$LT$alloc..vec..Vec$LT$$LP$syn..expr..GenericMethodArgument$C$syn..token..Comma$RP$$GT$$GT$17heae48b13c44e912aE.llvm.2919429348807089406', symObjAddr: 0xE20, symBinAddr: 0x12C500, symSize: 0xF0 }
  - { offsetInCU: 0x4481, offset: 0x61F325, size: 0x8, addend: 0x0, symName: '__ZN4core3ptr105drop_in_place$LT$syn..punctuated..Punctuated$LT$syn..generics..WherePredicate$C$syn..token..Comma$GT$$GT$17h53c71b5d1c98483dE', symObjAddr: 0xF10, symBinAddr: 0x12C5F0, symSize: 0x1A0 }
  - { offsetInCU: 0x4A7B, offset: 0x61F91F, size: 0x8, addend: 0x0, symName: '__ZN4core3ptr108drop_in_place$LT$syn..punctuated..Punctuated$LT$syn..expr..GenericMethodArgument$C$syn..token..Comma$GT$$GT$17h92cbabe4862b2183E', symObjAddr: 0x10B0, symBinAddr: 0x12C790, symSize: 0x150 }
  - { offsetInCU: 0x4F9D, offset: 0x61FE41, size: 0x8, addend: 0x0, symName: '__ZN4core3ptr1247drop_in_place$LT$core..iter..adapters..flatten..Flatten$LT$core..iter..adapters..map..Map$LT$core..iter..adapters..map..Map$LT$core..iter..adapters..map..Map$LT$core..slice..iter..Iter$LT$syn..error..ErrorMessage$GT$$C$syn..error..ErrorMessage..to_compile_error$GT$$C$$LT$proc_macro2..TokenStream$u20$as$u20$core..iter..traits..collect..FromIterator$LT$proc_macro2..TokenStream$GT$$GT$..from_iter$LT$core..iter..adapters..map..Map$LT$core..slice..iter..Iter$LT$syn..error..ErrorMessage$GT$$C$syn..error..ErrorMessage..to_compile_error$GT$$GT$..$u7b$$u7b$closure$u7d$$u7d$$GT$$C$$LT$proc_macro2..imp..TokenStream$u20$as$u20$core..iter..traits..collect..FromIterator$LT$proc_macro2..imp..TokenStream$GT$$GT$..from_iter$LT$core..iter..adapters..map..Map$LT$core..iter..adapters..map..Map$LT$core..slice..iter..Iter$LT$syn..error..ErrorMessage$GT$$C$syn..error..ErrorMessage..to_compile_error$GT$$C$$LT$proc_macro2..TokenStream$u20$as$u20$core..iter..traits..collect..FromIterator$LT$proc_macro2..TokenStream$GT$$GT$..from_iter$LT$core..iter..adapters..map..Map$LT$core..slice..iter..Iter$LT$syn..error..ErrorMessage$GT$$C$syn..error..ErrorMessage..to_compile_error$GT$$GT$..$u7b$$u7b$closure$u7d$$u7d$$GT$$GT$..$u7b$$u7b$closure$u7d$$u7d$$GT$$GT$$GT$17he27900d9b890586cE', symObjAddr: 0x1200, symBinAddr: 0x12C8E0, symSize: 0x60 }
  - { offsetInCU: 0x5121, offset: 0x61FFC5, size: 0x8, addend: 0x0, symName: '__ZN4core3ptr126drop_in_place$LT$core..option..Option$LT$$LP$syn..token..And$C$core..option..Option$LT$syn..lifetime..Lifetime$GT$$RP$$GT$$GT$17h5979d670cb45416cE', symObjAddr: 0x1260, symBinAddr: 0x12C940, symSize: 0x30 }
  - { offsetInCU: 0x53B0, offset: 0x620254, size: 0x8, addend: 0x0, symName: '__ZN4core3ptr33drop_in_place$LT$syn..ty..Abi$GT$17h723a10e1a0acbd58E', symObjAddr: 0x1290, symBinAddr: 0x12C970, symSize: 0x70 }
  - { offsetInCU: 0x53CC, offset: 0x620270, size: 0x8, addend: 0x0, symName: '__ZN4core3ptr33drop_in_place$LT$syn..ty..Abi$GT$17h723a10e1a0acbd58E', symObjAddr: 0x1290, symBinAddr: 0x12C970, symSize: 0x70 }
  - { offsetInCU: 0x56A4, offset: 0x620548, size: 0x8, addend: 0x0, symName: '__ZN4core3ptr34drop_in_place$LT$syn..lit..Lit$GT$17hbe1efe749a08dd9aE.llvm.2919429348807089406', symObjAddr: 0x1300, symBinAddr: 0x12C9E0, symSize: 0x120 }
  - { offsetInCU: 0x5B9F, offset: 0x620A43, size: 0x8, addend: 0x0, symName: '__ZN4core3ptr34drop_in_place$LT$syn..pat..Pat$GT$17h3201f642e43ac2a2E.llvm.2919429348807089406', symObjAddr: 0x1420, symBinAddr: 0x12CB00, symSize: 0x930 }
  - { offsetInCU: 0x8BEB, offset: 0x623A8F, size: 0x8, addend: 0x0, symName: '__ZN4core3ptr34drop_in_place$LT$syn..ty..Type$GT$17hfb5d159a08190130E.llvm.2919429348807089406', symObjAddr: 0x1D50, symBinAddr: 0x12D430, symSize: 0x380 }
  - { offsetInCU: 0x97D1, offset: 0x624675, size: 0x8, addend: 0x0, symName: '__ZN4core3ptr35drop_in_place$LT$syn..expr..Arm$GT$17h2f058dcaecfc86d5E.llvm.2919429348807089406', symObjAddr: 0x20D0, symBinAddr: 0x12D7B0, symSize: 0x1A0 }
  - { offsetInCU: 0xA428, offset: 0x6252CC, size: 0x8, addend: 0x0, symName: '__ZN4core3ptr36drop_in_place$LT$syn..expr..Expr$GT$17hf1921d1b09462bc3E.llvm.2919429348807089406', symObjAddr: 0x2270, symBinAddr: 0x12D950, symSize: 0x1E10 }
  - { offsetInCU: 0x14179, offset: 0x62F01D, size: 0x8, addend: 0x0, symName: '__ZN4core3ptr36drop_in_place$LT$syn..item..Item$GT$17hf1fe4e69bb0a9b43E.llvm.2919429348807089406', symObjAddr: 0x4080, symBinAddr: 0x12F760, symSize: 0x1650 }
  - { offsetInCU: 0x1AB07, offset: 0x6359AB, size: 0x8, addend: 0x0, symName: '__ZN4core3ptr36drop_in_place$LT$syn..path..Path$GT$17he6d0bec66d66b98aE.llvm.2919429348807089406', symObjAddr: 0x56D0, symBinAddr: 0x130DB0, symSize: 0x150 }
  - { offsetInCU: 0x1B0C7, offset: 0x635F6B, size: 0x8, addend: 0x0, symName: '__ZN4core3ptr36drop_in_place$LT$syn..stmt..Stmt$GT$17h1cbf7c4dce3085eaE.llvm.2919429348807089406', symObjAddr: 0x5820, symBinAddr: 0x130F00, symSize: 0x140 }
  - { offsetInCU: 0x1B55A, offset: 0x6363FE, size: 0x8, addend: 0x0, symName: '__ZN4core3ptr37drop_in_place$LT$syn..data..Field$GT$17h6bfcb460cfa4c863E.llvm.2919429348807089406', symObjAddr: 0x5960, symBinAddr: 0x131040, symSize: 0x1B0 }
  - { offsetInCU: 0x1BB54, offset: 0x6369F8, size: 0x8, addend: 0x0, symName: '__ZN4core3ptr37drop_in_place$LT$syn..item..FnArg$GT$17h52a13b3505938de2E.llvm.2919429348807089406', symObjAddr: 0x5B10, symBinAddr: 0x1311F0, symSize: 0x190 }
  - { offsetInCU: 0x1C4F6, offset: 0x63739A, size: 0x8, addend: 0x0, symName: '__ZN4core3ptr37drop_in_place$LT$syn..stmt..Block$GT$17h3aa429e75a234230E', symObjAddr: 0x5CA0, symBinAddr: 0x131380, symSize: 0xD0 }
  - { offsetInCU: 0x1C7D4, offset: 0x637678, size: 0x8, addend: 0x0, symName: '__ZN4core3ptr38drop_in_place$LT$syn..expr..Member$GT$17ha113d37a67d27aafE.llvm.2919429348807089406', symObjAddr: 0x5D70, symBinAddr: 0x131450, symSize: 0x30 }
  - { offsetInCU: 0x1C8D0, offset: 0x637774, size: 0x8, addend: 0x0, symName: '__ZN4core3ptr38drop_in_place$LT$syn..pat..PatType$GT$17h833e3c7992399b01E.llvm.2919429348807089406', symObjAddr: 0x5DA0, symBinAddr: 0x131480, symSize: 0x160 }
  - { offsetInCU: 0x1CE88, offset: 0x637D2C, size: 0x8, addend: 0x0, symName: '__ZN4core3ptr38drop_in_place$LT$syn..ty..Variadic$GT$17h354585068960ea23E', symObjAddr: 0x5F00, symBinAddr: 0x1315E0, symSize: 0xF0 }
  - { offsetInCU: 0x1D19C, offset: 0x638040, size: 0x8, addend: 0x0, symName: '__ZN4core3ptr39drop_in_place$LT$proc_macro2..Ident$GT$17hdeec010483268a0dE', symObjAddr: 0x5FF0, symBinAddr: 0x1316D0, symSize: 0x30 }
  - { offsetInCU: 0x1D3AF, offset: 0x638253, size: 0x8, addend: 0x0, symName: '__ZN4core3ptr39drop_in_place$LT$syn..buffer..Entry$GT$17hefeddf49a31e1f79E.llvm.2919429348807089406', symObjAddr: 0x6020, symBinAddr: 0x131700, symSize: 0xB0 }
  - { offsetInCU: 0x1D797, offset: 0x63863B, size: 0x8, addend: 0x0, symName: '__ZN4core3ptr39drop_in_place$LT$syn..data..Variant$GT$17hdf59a2045a52b17cE.llvm.2919429348807089406', symObjAddr: 0x60D0, symBinAddr: 0x1317B0, symSize: 0x330 }
  - { offsetInCU: 0x1E440, offset: 0x6392E4, size: 0x8, addend: 0x0, symName: '__ZN4core3ptr39drop_in_place$LT$syn..item..UseTree$GT$17h78d4ed19b48b8cbfE.llvm.2919429348807089406', symObjAddr: 0x6400, symBinAddr: 0x131AE0, symSize: 0x1F0 }
  - { offsetInCU: 0x1EC18, offset: 0x639ABC, size: 0x8, addend: 0x0, symName: '__ZN4core3ptr39drop_in_place$LT$syn..pat..PatTuple$GT$17h96faeea9832d4c4bE', symObjAddr: 0x65F0, symBinAddr: 0x131CD0, symSize: 0x1F0 }
  - { offsetInCU: 0x1F476, offset: 0x63A31A, size: 0x8, addend: 0x0, symName: '__ZN4core3ptr40drop_in_place$LT$syn..attr..MetaList$GT$17h9457f32d77a909ccE.llvm.2919429348807089406', symObjAddr: 0x67E0, symBinAddr: 0x131EC0, symSize: 0x140 }
  - { offsetInCU: 0x1F8FD, offset: 0x63A7A1, size: 0x8, addend: 0x0, symName: '__ZN4core3ptr40drop_in_place$LT$syn..item..Receiver$GT$17hc8a432a931462f79E.llvm.2919429348807089406', symObjAddr: 0x6920, symBinAddr: 0x132000, symSize: 0x140 }
