---
triple:          'x86_64-apple-darwin'
binary-path:     "/Users/justinlanouette/Chaos/ChaöS-Token/hello_world/target/release/deps/libserde_derive-73d29c20a87d2a70.dylib"
relocations:
  - { offsetInCU: 0x1E, offset: 0x1E, size: 0x8, addend: 0x0, symName: '__ZN102_$LT$core..iter..adapters..map..Map$LT$I$C$F$GT$$u20$as$u20$core..iter..traits..iterator..Iterator$GT$4next17hca5686d80c3a2cc6E', symObjAddr: 0x0, symBinAddr: 0x2940, symSize: 0x2C0 }
  - { offsetInCU: 0x24F, offset: 0x24F, size: 0x8, addend: 0x0, symName: '__ZN58_$LT$alloc..string..String$u20$as$u20$core..fmt..Write$GT$10write_char17hd329c0cb943f081aE', symObjAddr: 0x9160, symBinAddr: 0xB980, symSize: 0x130 }
  - { offsetInCU: 0x5F6, offset: 0x5F6, size: 0x8, addend: 0x0, symName: '__ZN58_$LT$alloc..string..String$u20$as$u20$core..fmt..Write$GT$9write_str17h1ff5aa96ca91c6d5E', symObjAddr: 0x9290, symBinAddr: 0xBAB0, symSize: 0x60 }
  - { offsetInCU: 0x834, offset: 0x834, size: 0x8, addend: 0x0, symName: '__ZN60_$LT$alloc..string..String$u20$as$u20$core..fmt..Display$GT$3fmt17hc365578c40090489E', symObjAddr: 0x92F0, symBinAddr: 0xBB10, symSize: 0x20 }
  - { offsetInCU: 0x4F36, offset: 0x4F36, size: 0x8, addend: 0x0, symName: '__ZN4core3ptr100drop_in_place$LT$core..option..Option$LT$alloc..boxed..Box$LT$syn..path..GenericArgument$GT$$GT$$GT$17h91f76f7535c0ef94E', symObjAddr: 0xDB0, symBinAddr: 0x35D0, symSize: 0x50 }
  - { offsetInCU: 0x525A, offset: 0x525A, size: 0x8, addend: 0x0, symName: '__ZN4core3ptr100drop_in_place$LT$syn..punctuated..Punctuated$LT$syn..path..PathSegment$C$syn..token..PathSep$GT$$GT$17h8967d620e5262808E', symObjAddr: 0xE00, symBinAddr: 0x3620, symSize: 0x260 }
  - { offsetInCU: 0x5BF3, offset: 0x5BF3, size: 0x8, addend: 0x0, symName: '__ZN4core3ptr101drop_in_place$LT$core..option..Option$LT$alloc..boxed..Box$LT$syn..generics..GenericParam$GT$$GT$$GT$17h6aa710718dd81b40E', symObjAddr: 0x1060, symBinAddr: 0x3880, symSize: 0x50 }
  - { offsetInCU: 0x5DA3, offset: 0x5DA3, size: 0x8, addend: 0x0, symName: '__ZN4core3ptr101drop_in_place$LT$core..option..Option$LT$alloc..vec..Vec$LT$syn..generics..WherePredicate$GT$$GT$$GT$17hfc4d4b0edb7e476fE', symObjAddr: 0x10B0, symBinAddr: 0x38D0, symSize: 0xE0 }
  - { offsetInCU: 0x60AB, offset: 0x60AB, size: 0x8, addend: 0x0, symName: '__ZN4core3ptr103drop_in_place$LT$core..option..Option$LT$alloc..boxed..Box$LT$syn..generics..TypeParamBound$GT$$GT$$GT$17h044206982686810cE', symObjAddr: 0x1190, symBinAddr: 0x39B0, symSize: 0xC0 }
  - { offsetInCU: 0x63FE, offset: 0x63FE, size: 0x8, addend: 0x0, symName: '__ZN4core3ptr103drop_in_place$LT$core..option..Option$LT$alloc..boxed..Box$LT$syn..generics..WherePredicate$GT$$GT$$GT$17hdb4f3c209e2b962bE', symObjAddr: 0x1250, symBinAddr: 0x3A70, symSize: 0xD0 }
  - { offsetInCU: 0x6753, offset: 0x6753, size: 0x8, addend: 0x0, symName: '__ZN4core3ptr103drop_in_place$LT$syn..punctuated..Punctuated$LT$syn..generics..GenericParam$C$syn..token..Comma$GT$$GT$17h28897b64a12579c2E', symObjAddr: 0x1320, symBinAddr: 0x3B40, symSize: 0xC0 }
  - { offsetInCU: 0x6B8F, offset: 0x6B8F, size: 0x8, addend: 0x0, symName: '__ZN4core3ptr104drop_in_place$LT$syn..punctuated..Punctuated$LT$syn..generics..TypeParamBound$C$syn..token..Plus$GT$$GT$17h8a3e2526f1805111E', symObjAddr: 0x13E0, symBinAddr: 0x3C00, symSize: 0x2C0 }
  - { offsetInCU: 0x7734, offset: 0x7734, size: 0x8, addend: 0x0, symName: '__ZN4core3ptr112drop_in_place$LT$alloc..vec..Vec$LT$$LP$$RF$serde_derive..internals..ast..Field$C$proc_macro2..Ident$RP$$GT$$GT$17h1c9ef43aa96abddaE', symObjAddr: 0x16A0, symBinAddr: 0x3EC0, symSize: 0x80 }
  - { offsetInCU: 0x7A44, offset: 0x7A44, size: 0x8, addend: 0x0, symName: '__ZN4core3ptr116drop_in_place$LT$core..cell..RefCell$LT$core..option..Option$LT$alloc..vec..Vec$LT$syn..error..Error$GT$$GT$$GT$$GT$17h3001d88d1ea8a791E', symObjAddr: 0x1720, symBinAddr: 0x3F40, symSize: 0x110 }
  - { offsetInCU: 0x7E30, offset: 0x7E30, size: 0x8, addend: 0x0, symName: '__ZN4core3ptr155drop_in_place$LT$alloc..boxed..Box$LT$dyn$u20$core..iter..traits..iterator..Iterator$u2b$Item$u20$$u3d$$u20$$RF$serde_derive..internals..ast..Field$GT$$GT$17ha10ffbb5d34b5f4dE', symObjAddr: 0x1830, symBinAddr: 0x4050, symSize: 0x60 }
  - { offsetInCU: 0x804A, offset: 0x804A, size: 0x8, addend: 0x0, symName: '__ZN4core3ptr156drop_in_place$LT$alloc..vec..Vec$LT$$LP$$RF$str$C$proc_macro2..Ident$C$$RF$alloc..collections..btree..set..BTreeSet$LT$alloc..string..String$GT$$RP$$GT$$GT$17hc346b34372b80530E', symObjAddr: 0x1890, symBinAddr: 0x40B0, symSize: 0x80 }
  - { offsetInCU: 0x82C3, offset: 0x82C3, size: 0x8, addend: 0x0, symName: '__ZN4core3ptr29drop_in_place$LT$$LP$$RP$$GT$17h8c5c6bfc84894575E', symObjAddr: 0x1910, symBinAddr: 0x4130, symSize: 0x10 }
  - { offsetInCU: 0x82EF, offset: 0x82EF, size: 0x8, addend: 0x0, symName: '__ZN4core3ptr34drop_in_place$LT$syn..lit..Lit$GT$17h909e98f6870548d6E', symObjAddr: 0x1920, symBinAddr: 0x4140, symSize: 0x110 }
  - { offsetInCU: 0x8829, offset: 0x8829, size: 0x8, addend: 0x0, symName: '__ZN4core3ptr34drop_in_place$LT$syn..pat..Pat$GT$17h8fcd4c90be46a62aE', symObjAddr: 0x1A30, symBinAddr: 0x4250, symSize: 0x1000 }
  - { offsetInCU: 0xC34E, offset: 0xC34E, size: 0x8, addend: 0x0, symName: '__ZN4core3ptr34drop_in_place$LT$syn..ty..Type$GT$17h774a0ab6b4cf283eE', symObjAddr: 0x2A30, symBinAddr: 0x5250, symSize: 0x4F0 }
  - { offsetInCU: 0xD899, offset: 0xD899, size: 0x8, addend: 0x0, symName: '__ZN4core3ptr36drop_in_place$LT$syn..expr..Expr$GT$17h7fd8f0d642db296eE', symObjAddr: 0x2F20, symBinAddr: 0x5740, symSize: 0x28E0 }
  - { offsetInCU: 0x16D2B, offset: 0x16D2B, size: 0x8, addend: 0x0, symName: '__ZN4core3ptr36drop_in_place$LT$syn..mac..Macro$GT$17hc8e4594548e1fb74E', symObjAddr: 0x5800, symBinAddr: 0x8020, symSize: 0x40 }
  - { offsetInCU: 0x16D65, offset: 0x16D65, size: 0x8, addend: 0x0, symName: '__ZN4core3ptr36drop_in_place$LT$syn..path..Path$GT$17hae91be932b20df1dE', symObjAddr: 0x5840, symBinAddr: 0x8060, symSize: 0x220 }
  - { offsetInCU: 0x1769A, offset: 0x1769A, size: 0x8, addend: 0x0, symName: '__ZN4core3ptr37drop_in_place$LT$syn..stmt..Block$GT$17hba4e7ddf28617bfdE', symObjAddr: 0x5A60, symBinAddr: 0x8280, symSize: 0xD0 }
  - { offsetInCU: 0x1793E, offset: 0x1793E, size: 0x8, addend: 0x0, symName: '__ZN4core3ptr38drop_in_place$LT$syn..expr..Member$GT$17ha7c2806ee150b6f6E', symObjAddr: 0x5B30, symBinAddr: 0x8350, symSize: 0x30 }
  - { offsetInCU: 0x17A3B, offset: 0x17A3B, size: 0x8, addend: 0x0, symName: '__ZN4core3ptr39drop_in_place$LT$proc_macro2..Ident$GT$17h8dfea26593c17b61E', symObjAddr: 0x5B60, symBinAddr: 0x8380, symSize: 0x30 }
  - { offsetInCU: 0x17B19, offset: 0x17B19, size: 0x8, addend: 0x0, symName: '__ZN4core3ptr40drop_in_place$LT$syn..ty..ReturnType$GT$17h3c2856ff70e83fa7E', symObjAddr: 0x5B90, symBinAddr: 0x83B0, symSize: 0x50 }
  - { offsetInCU: 0x17C8B, offset: 0x17C8B, size: 0x8, addend: 0x0, symName: '__ZN4core3ptr41drop_in_place$LT$syn..expr..ExprConst$GT$17h3f369735cc377020E', symObjAddr: 0x5BE0, symBinAddr: 0x8400, symSize: 0x180 }
  - { offsetInCU: 0x181E0, offset: 0x181E0, size: 0x8, addend: 0x0, symName: '__ZN4core3ptr42drop_in_place$LT$alloc..string..String$GT$17h5212a25f3591ed4cE.llvm.17698831472302724612', symObjAddr: 0x5D60, symBinAddr: 0x8580, symSize: 0x20 }
  - { offsetInCU: 0x182E9, offset: 0x182E9, size: 0x8, addend: 0x0, symName: '__ZN4core3ptr44drop_in_place$LT$syn..generics..Generics$GT$17h7c53fa45071f0fc1E', symObjAddr: 0x5D80, symBinAddr: 0x85A0, symSize: 0x40 }
  - { offsetInCU: 0x18306, offset: 0x18306, size: 0x8, addend: 0x0, symName: '__ZN4core3ptr44drop_in_place$LT$syn..lifetime..Lifetime$GT$17h263f9508be5fff98E', symObjAddr: 0x5DC0, symBinAddr: 0x85E0, symSize: 0x30 }
  - { offsetInCU: 0x18539, offset: 0x18539, size: 0x8, addend: 0x0, symName: '__ZN4core3ptr45drop_in_place$LT$proc_macro2..TokenStream$GT$17hcbbbd6ac69a3e46cE.llvm.17698831472302724612', symObjAddr: 0x5DF0, symBinAddr: 0x8610, symSize: 0x140 }
  - { offsetInCU: 0x189C7, offset: 0x189C7, size: 0x8, addend: 0x0, symName: '__ZN4core3ptr47drop_in_place$LT$syn..path..GenericArgument$GT$17ha4d1e2427b5b79f7E', symObjAddr: 0x5F30, symBinAddr: 0x8750, symSize: 0x4A0 }
  - { offsetInCU: 0x19AEA, offset: 0x19AEA, size: 0x8, addend: 0x0, symName: '__ZN4core3ptr48drop_in_place$LT$syn..generics..GenericParam$GT$17hf964096905fcda37E', symObjAddr: 0x63D0, symBinAddr: 0x8BF0, symSize: 0x2B0 }
  - { offsetInCU: 0x1A30C, offset: 0x1A30C, size: 0x8, addend: 0x0, symName: '__ZN4core3ptr49drop_in_place$LT$serde_derive..de..Parameters$GT$17h323786934fbbfb55E', symObjAddr: 0x6680, symBinAddr: 0x8EA0, symSize: 0x180 }
  - { offsetInCU: 0x1A7E7, offset: 0x1A7E7, size: 0x8, addend: 0x0, symName: '__ZN4core3ptr49drop_in_place$LT$syn..generics..LifetimeParam$GT$17h54e59d96d3078601E', symObjAddr: 0x6800, symBinAddr: 0x9020, symSize: 0xF0 }
  - { offsetInCU: 0x1AC1D, offset: 0x1AC1D, size: 0x8, addend: 0x0, symName: '__ZN4core3ptr55drop_in_place$LT$serde_derive..internals..ast..Data$GT$17h87a31a1d27ef916eE', symObjAddr: 0x68F0, symBinAddr: 0x9110, symSize: 0x120 }
  - { offsetInCU: 0x1B0E2, offset: 0x1B0E2, size: 0x8, addend: 0x0, symName: '__ZN4core3ptr56drop_in_place$LT$serde_derive..internals..ctxt..Ctxt$GT$17h0e1171f496fa1fb9E', symObjAddr: 0x6A10, symBinAddr: 0x9230, symSize: 0x180 }
  - { offsetInCU: 0x1B658, offset: 0x1B658, size: 0x8, addend: 0x0, symName: '__ZN4core3ptr58drop_in_place$LT$alloc..vec..Vec$LT$syn..expr..Arm$GT$$GT$17h2816916be2f2c677E', symObjAddr: 0x6B90, symBinAddr: 0x93B0, symSize: 0xD0 }
  - { offsetInCU: 0x1B8E5, offset: 0x1B8E5, size: 0x8, addend: 0x0, symName: '__ZN4core3ptr59drop_in_place$LT$alloc..boxed..Box$LT$syn..pat..Pat$GT$$GT$17h97d5257714c9f93cE', symObjAddr: 0x6C60, symBinAddr: 0x9480, symSize: 0x50 }
  - { offsetInCU: 0x1BA40, offset: 0x1BA40, size: 0x8, addend: 0x0, symName: '__ZN4core3ptr59drop_in_place$LT$alloc..boxed..Box$LT$syn..ty..Type$GT$$GT$17h54564496a417dc0bE', symObjAddr: 0x6CB0, symBinAddr: 0x94D0, symSize: 0x50 }
  - { offsetInCU: 0x1BB9B, offset: 0x1BB9B, size: 0x8, addend: 0x0, symName: '__ZN4core3ptr59drop_in_place$LT$serde_derive..internals..attr..Default$GT$17h3852c3c51f509301E', symObjAddr: 0x6D00, symBinAddr: 0x9520, symSize: 0x150 }
  - { offsetInCU: 0x1C08C, offset: 0x1C08C, size: 0x8, addend: 0x0, symName: '__ZN4core3ptr59drop_in_place$LT$serde_derive..internals..attr..TagType$GT$17h8ebcadab1e08c727E', symObjAddr: 0x6E50, symBinAddr: 0x9670, symSize: 0x70 }
  - { offsetInCU: 0x1C274, offset: 0x1C274, size: 0x8, addend: 0x0, symName: '__ZN4core3ptr60drop_in_place$LT$serde_derive..internals..ast..Container$GT$17he6f2acf5c0d548e8E', symObjAddr: 0x6EC0, symBinAddr: 0x96E0, symSize: 0x70 }
  - { offsetInCU: 0x1C373, offset: 0x1C373, size: 0x8, addend: 0x0, symName: '__ZN4core3ptr61drop_in_place$LT$alloc..boxed..Box$LT$syn..expr..Expr$GT$$GT$17hcb812af949707350E', symObjAddr: 0x6F30, symBinAddr: 0x9750, symSize: 0x50 }
  - { offsetInCU: 0x1C5A7, offset: 0x1C5A7, size: 0x8, addend: 0x0, symName: '__ZN4core3ptr61drop_in_place$LT$serde_derive..internals..attr..Container$GT$17h29ecb40b305798b8E', symObjAddr: 0x6F80, symBinAddr: 0x97A0, symSize: 0x450 }
  - { offsetInCU: 0x1D525, offset: 0x1D525, size: 0x8, addend: 0x0, symName: '__ZN4core3ptr61drop_in_place$LT$syn..path..ParenthesizedGenericArguments$GT$17h2cda518d73cfbc65E', symObjAddr: 0x73D0, symBinAddr: 0x9BF0, symSize: 0x170 }
  - { offsetInCU: 0x1DAEC, offset: 0x1DAEC, size: 0x8, addend: 0x0, symName: '__ZN4core3ptr62drop_in_place$LT$syn..path..AngleBracketedGenericArguments$GT$17h532d3ccffb7c0f6eE', symObjAddr: 0x7540, symBinAddr: 0x9D60, symSize: 0x120 }
  - { offsetInCU: 0x1DF02, offset: 0x1DF02, size: 0x8, addend: 0x0, symName: '__ZN4core3ptr63drop_in_place$LT$alloc..boxed..Box$LT$syn..lit..LitRepr$GT$$GT$17h4f0b7f87f46ca722E', symObjAddr: 0x7660, symBinAddr: 0x9E80, symSize: 0x60 }
  - { offsetInCU: 0x1E1F7, offset: 0x1E1F7, size: 0x8, addend: 0x0, symName: '__ZN4core3ptr64drop_in_place$LT$alloc..boxed..Box$LT$syn..pat..FieldPat$GT$$GT$17h24cd16a7bd79a0afE', symObjAddr: 0x76C0, symBinAddr: 0x9EE0, symSize: 0x140 }
  - { offsetInCU: 0x1E8A2, offset: 0x1E8A2, size: 0x8, addend: 0x0, symName: '__ZN4core3ptr64drop_in_place$LT$alloc..boxed..Box$LT$syn..ty..BareFnArg$GT$$GT$17h8d6c5b973f90cb46E', symObjAddr: 0x7800, symBinAddr: 0xA020, symSize: 0x140 }
  - { offsetInCU: 0x1EDC6, offset: 0x1EDC6, size: 0x8, addend: 0x0, symName: '__ZN4core3ptr64drop_in_place$LT$alloc..vec..Vec$LT$syn..attr..Attribute$GT$$GT$17hbfa410c60a9e774aE', symObjAddr: 0x7940, symBinAddr: 0xA160, symSize: 0xD0 }
  - { offsetInCU: 0x1F053, offset: 0x1F053, size: 0x8, addend: 0x0, symName: '__ZN4core3ptr65drop_in_place$LT$core..option..Option$LT$syn..expr..Label$GT$$GT$17h49c37bc37ca5807aE', symObjAddr: 0x7A10, symBinAddr: 0xA230, symSize: 0x30 }
  - { offsetInCU: 0x1F18E, offset: 0x1F18E, size: 0x8, addend: 0x0, symName: '__ZN4core3ptr66drop_in_place$LT$core..option..Option$LT$syn..pat..PatRest$GT$$GT$17ha0b10c3084c29dd7E', symObjAddr: 0x7A40, symBinAddr: 0xA260, symSize: 0xE0 }
  - { offsetInCU: 0x1F412, offset: 0x1F412, size: 0x8, addend: 0x0, symName: '__ZN4core3ptr67drop_in_place$LT$alloc..boxed..Box$LT$syn..expr..FieldValue$GT$$GT$17h51140dec2dd742b5E', symObjAddr: 0x7B20, symBinAddr: 0xA340, symSize: 0x140 }
  - { offsetInCU: 0x1F916, offset: 0x1F916, size: 0x8, addend: 0x0, symName: '__ZN4core3ptr68drop_in_place$LT$alloc..boxed..Box$LT$syn..path..PathSegment$GT$$GT$17h6663076be8cb9e8fE', symObjAddr: 0x7C60, symBinAddr: 0xA480, symSize: 0x190 }
  - { offsetInCU: 0x1FFF4, offset: 0x1FFF4, size: 0x8, addend: 0x0, symName: '__ZN4core3ptr68drop_in_place$LT$alloc..vec..Vec$LT$proc_macro2..TokenStream$GT$$GT$17hc0cc7efc9619ba65E', symObjAddr: 0x7DF0, symBinAddr: 0xA610, symSize: 0xC0 }
  - { offsetInCU: 0x202A0, offset: 0x202A0, size: 0x8, addend: 0x0, symName: '__ZN4core3ptr70drop_in_place$LT$core..option..Option$LT$syn..ty..BareVariadic$GT$$GT$17h006e7519360f59bbE', symObjAddr: 0x7EB0, symBinAddr: 0xA6D0, symSize: 0x120 }
  - { offsetInCU: 0x207EC, offset: 0x207EC, size: 0x8, addend: 0x0, symName: '__ZN4core3ptr72drop_in_place$LT$alloc..boxed..Box$LT$syn..path..GenericArgument$GT$$GT$17h9e43a058d82d49aaE', symObjAddr: 0x7FD0, symBinAddr: 0xA7F0, symSize: 0x270 }
  - { offsetInCU: 0x21015, offset: 0x21015, size: 0x8, addend: 0x0, symName: '__ZN4core3ptr72drop_in_place$LT$core..option..Option$LT$syn..lifetime..Lifetime$GT$$GT$17h2cbddfd17a7fb6a0E', symObjAddr: 0x8240, symBinAddr: 0xAA60, symSize: 0x30 }
  - { offsetInCU: 0x21131, offset: 0x21131, size: 0x8, addend: 0x0, symName: '__ZN4core3ptr73drop_in_place$LT$alloc..boxed..Box$LT$syn..generics..GenericParam$GT$$GT$17hdf8f6b3d2d504eeeE', symObjAddr: 0x8270, symBinAddr: 0xAA90, symSize: 0x50 }
  - { offsetInCU: 0x2128C, offset: 0x2128C, size: 0x8, addend: 0x0, symName: '__ZN4core3ptr75drop_in_place$LT$alloc..boxed..Box$LT$syn..generics..TypeParamBound$GT$$GT$17he16e1f4f3b231893E', symObjAddr: 0x82C0, symBinAddr: 0xAAE0, symSize: 0x1F0 }
  - { offsetInCU: 0x21BD3, offset: 0x21BD3, size: 0x8, addend: 0x0, symName: '__ZN4core3ptr75drop_in_place$LT$core..option..Option$LT$syn..generics..WhereClause$GT$$GT$17h4809634bfa029adcE', symObjAddr: 0x84B0, symBinAddr: 0xACD0, symSize: 0x100 }
  - { offsetInCU: 0x21EEB, offset: 0x21EEB, size: 0x8, addend: 0x0, symName: '__ZN4core3ptr86drop_in_place$LT$syn..punctuated..Punctuated$LT$syn..pat..Pat$C$syn..token..Or$GT$$GT$17h449b7e6b5537b210E', symObjAddr: 0x85B0, symBinAddr: 0xADD0, symSize: 0x120 }
  - { offsetInCU: 0x22331, offset: 0x22331, size: 0x8, addend: 0x0, symName: '__ZN4core3ptr87drop_in_place$LT$core..option..Option$LT$alloc..boxed..Box$LT$syn..pat..Pat$GT$$GT$$GT$17hbff747ffa5f39bd3E', symObjAddr: 0x86D0, symBinAddr: 0xAEF0, symSize: 0x50 }
  - { offsetInCU: 0x224A3, offset: 0x224A3, size: 0x8, addend: 0x0, symName: '__ZN4core3ptr87drop_in_place$LT$core..option..Option$LT$alloc..boxed..Box$LT$syn..ty..Type$GT$$GT$$GT$17hd404efde6702ff0dE', symObjAddr: 0x8720, symBinAddr: 0xAF40, symSize: 0x50 }
  - { offsetInCU: 0x22615, offset: 0x22615, size: 0x8, addend: 0x0, symName: '__ZN4core3ptr89drop_in_place$LT$core..option..Option$LT$alloc..boxed..Box$LT$syn..expr..Expr$GT$$GT$$GT$17h981df8604670027bE', symObjAddr: 0x8770, symBinAddr: 0xAF90, symSize: 0x50 }
  - { offsetInCU: 0x227C5, offset: 0x227C5, size: 0x8, addend: 0x0, symName: '__ZN4core3ptr89drop_in_place$LT$syn..punctuated..Punctuated$LT$syn..pat..Pat$C$syn..token..Comma$GT$$GT$17h8165fd7eb02b8118E', symObjAddr: 0x87C0, symBinAddr: 0xAFE0, symSize: 0x120 }
  - { offsetInCU: 0x22C22, offset: 0x22C22, size: 0x8, addend: 0x0, symName: '__ZN4core3ptr89drop_in_place$LT$syn..punctuated..Punctuated$LT$syn..ty..Type$C$syn..token..Comma$GT$$GT$17h23a774170e770b9aE', symObjAddr: 0x88E0, symBinAddr: 0xB100, symSize: 0x120 }
  - { offsetInCU: 0x2306C, offset: 0x2306C, size: 0x8, addend: 0x0, symName: '__ZN4core3ptr90drop_in_place$LT$core..option..Option$LT$syn..path..AngleBracketedGenericArguments$GT$$GT$17h28a1c7f1e00311d1E', symObjAddr: 0x8A00, symBinAddr: 0xB220, symSize: 0x130 }
  - { offsetInCU: 0x234D7, offset: 0x234D7, size: 0x8, addend: 0x0, symName: '__ZN4core3ptr91drop_in_place$LT$syn..punctuated..Punctuated$LT$syn..expr..Expr$C$syn..token..Comma$GT$$GT$17ha27fe7b672ce38bdE', symObjAddr: 0x8B30, symBinAddr: 0xB350, symSize: 0x120 }
  - { offsetInCU: 0x23934, offset: 0x23934, size: 0x8, addend: 0x0, symName: '__ZN4core3ptr94drop_in_place$LT$syn..punctuated..Punctuated$LT$syn..pat..FieldPat$C$syn..token..Comma$GT$$GT$17hd9ad3a9ff53c2a49E', symObjAddr: 0x8C50, symBinAddr: 0xB470, symSize: 0xF0 }
  - { offsetInCU: 0x23BFE, offset: 0x23BFE, size: 0x8, addend: 0x0, symName: '__ZN4core3ptr94drop_in_place$LT$syn..punctuated..Punctuated$LT$syn..ty..BareFnArg$C$syn..token..Comma$GT$$GT$17h3ad0ecbb9acc3d94E', symObjAddr: 0x8D40, symBinAddr: 0xB560, symSize: 0xF0 }
  - { offsetInCU: 0x23EC8, offset: 0x23EC8, size: 0x8, addend: 0x0, symName: '__ZN4core3ptr96drop_in_place$LT$core..option..Option$LT$alloc..boxed..Box$LT$syn..path..PathSegment$GT$$GT$$GT$17h15008b031e78f545E', symObjAddr: 0x8E30, symBinAddr: 0xB650, symSize: 0x90 }
  - { offsetInCU: 0x2414A, offset: 0x2414A, size: 0x8, addend: 0x0, symName: '__ZN4core3ptr97drop_in_place$LT$syn..punctuated..Punctuated$LT$syn..expr..FieldValue$C$syn..token..Comma$GT$$GT$17h7dd72fd62fffe077E', symObjAddr: 0x8EC0, symBinAddr: 0xB6E0, symSize: 0xF0 }
  - { offsetInCU: 0x24414, offset: 0x24414, size: 0x8, addend: 0x0, symName: '__ZN4core3ptr98drop_in_place$LT$alloc..vec..Vec$LT$$LP$syn..path..GenericArgument$C$syn..token..Comma$RP$$GT$$GT$17h5d136a881836b500E', symObjAddr: 0x8FB0, symBinAddr: 0xB7D0, symSize: 0xD0 }
  - { offsetInCU: 0x2471D, offset: 0x2471D, size: 0x8, addend: 0x0, symName: '__ZN4core3ptr98drop_in_place$LT$syn..punctuated..Punctuated$LT$syn..lifetime..Lifetime$C$syn..token..Plus$GT$$GT$17haf6d03c18957eb1aE', symObjAddr: 0x9080, symBinAddr: 0xB8A0, symSize: 0xC0 }
  - { offsetInCU: 0x25413, offset: 0x25413, size: 0x8, addend: 0x0, symName: '__ZN45_$LT$$LP$$RP$$u20$as$u20$core..fmt..Debug$GT$3fmt17hfe9fa5b9b74f0d99E', symObjAddr: 0x4F0, symBinAddr: 0x2E30, symSize: 0x20 }
  - { offsetInCU: 0x25454, offset: 0x25454, size: 0x8, addend: 0x0, symName: '__ZN53_$LT$core..fmt..Error$u20$as$u20$core..fmt..Debug$GT$3fmt17h43ae5cec9623af13E', symObjAddr: 0x9140, symBinAddr: 0xB960, symSize: 0x20 }
  - { offsetInCU: 0x2969B, offset: 0x2969B, size: 0x8, addend: 0x0, symName: '__ZN102_$LT$core..iter..adapters..map..Map$LT$I$C$F$GT$$u20$as$u20$core..iter..traits..iterator..Iterator$GT$4next17hca5686d80c3a2cc6E', symObjAddr: 0x0, symBinAddr: 0x2940, symSize: 0x2C0 }
  - { offsetInCU: 0x29DE3, offset: 0x29DE3, size: 0x8, addend: 0x0, symName: '__ZN102_$LT$core..iter..adapters..map..Map$LT$I$C$F$GT$$u20$as$u20$core..iter..traits..iterator..Iterator$GT$4next17hf3b91465feee774cE', symObjAddr: 0x2C0, symBinAddr: 0x2C00, symSize: 0x230 }
  - { offsetInCU: 0x2C4C2, offset: 0x2C4C2, size: 0x8, addend: 0x0, symName: '__ZN4core3ops8function5impls80_$LT$impl$u20$core..ops..function..FnOnce$LT$A$GT$$u20$for$u20$$RF$mut$u20$F$GT$9call_once17hb38e531ea60df283E', symObjAddr: 0xB80, symBinAddr: 0x3410, symSize: 0x1C0 }
  - { offsetInCU: 0x2CADB, offset: 0x2CADB, size: 0x8, addend: 0x0, symName: '__ZN4core3ops8function5impls79_$LT$impl$u20$core..ops..function..FnMut$LT$A$GT$$u20$for$u20$$RF$mut$u20$F$GT$8call_mut17hebafd811b3239f49E', symObjAddr: 0x560, symBinAddr: 0x2E50, symSize: 0x5C0 }
  - { offsetInCU: 0x2F439, offset: 0x2F439, size: 0x8, addend: 0x0, symName: __ZN12serde_derive2de25expand_derive_deserialize17ha6249c116226c9f5E, symObjAddr: 0x9310, symBinAddr: 0xBB30, symSize: 0x1DE0 }
  - { offsetInCU: 0x319A5, offset: 0x319A5, size: 0x8, addend: 0x0, symName: __ZN12serde_derive2de23needs_deserialize_bound17h0201754bc419ab2cE, symObjAddr: 0xB220, symBinAddr: 0xDA40, symSize: 0x50 }
  - { offsetInCU: 0x31AD1, offset: 0x31AD1, size: 0x8, addend: 0x0, symName: __ZN12serde_derive2de16requires_default17h5119a9d861cc2f6cE, symObjAddr: 0xB270, symBinAddr: 0xDA90, symSize: 0x20 }
  - { offsetInCU: 0x31B3A, offset: 0x31B3A, size: 0x8, addend: 0x0, symName: __ZN12serde_derive2de18borrowed_lifetimes17ha802fcff742381f0E, symObjAddr: 0xB4B0, symBinAddr: 0xDCD0, symSize: 0x500 }
  - { offsetInCU: 0x3312A, offset: 0x3312A, size: 0x8, addend: 0x0, symName: '__ZN12serde_derive2de29deserialize_custom_identifier28_$u7b$$u7b$closure$u7d$$u7d$17h5771f61640ffb182E', symObjAddr: 0x27140, symBinAddr: 0x29960, symSize: 0x320 }
  - { offsetInCU: 0x3331A, offset: 0x3331A, size: 0x8, addend: 0x0, symName: __ZN12serde_derive2de16deserialize_body17hd0a4fba658984683E, symObjAddr: 0xB9B0, symBinAddr: 0xE1D0, symSize: 0x3060 }
  - { offsetInCU: 0x350D3, offset: 0x350D3, size: 0x8, addend: 0x0, symName: __ZN12serde_derive2de23deserialize_unit_struct17h9b1f098a5d5b96fcE, symObjAddr: 0xEA10, symBinAddr: 0x11230, symSize: 0x10C0 }
  - { offsetInCU: 0x35FFA, offset: 0x35FFA, size: 0x8, addend: 0x0, symName: __ZN12serde_derive2de17deserialize_tuple17hc1d3e3ab28db1699E, symObjAddr: 0xFAD0, symBinAddr: 0x122F0, symSize: 0x2890 }
  - { offsetInCU: 0x37D66, offset: 0x37D66, size: 0x8, addend: 0x0, symName: __ZN12serde_derive2de15deserialize_seq17hbee15f337582c7a2E, symObjAddr: 0x12360, symBinAddr: 0x14B80, symSize: 0x2020 }
  - { offsetInCU: 0x39703, offset: 0x39703, size: 0x8, addend: 0x0, symName: __ZN12serde_derive2de18deserialize_struct17h83d158f2da68be36E, symObjAddr: 0x14380, symBinAddr: 0x16BA0, symSize: 0x3840 }
  - { offsetInCU: 0x3BA10, offset: 0x3BA10, size: 0x8, addend: 0x0, symName: __ZN12serde_derive2de16deserialize_enum17ha94c736f4e11080bE, symObjAddr: 0x17BC0, symBinAddr: 0x1A3E0, symSize: 0xB0 }
  - { offsetInCU: 0x3BFE6, offset: 0x3BFE6, size: 0x8, addend: 0x0, symName: __ZN12serde_derive2de28deserialize_homogeneous_enum17he4016ed83390c645E, symObjAddr: 0x17C70, symBinAddr: 0x1A490, symSize: 0x13A0 }
  - { offsetInCU: 0x3D8B7, offset: 0x3D8B7, size: 0x8, addend: 0x0, symName: __ZN12serde_derive2de25prepare_enum_variant_enum17h47b23ab8b6d191f5E, symObjAddr: 0x19010, symBinAddr: 0x1B830, symSize: 0x780 }
  - { offsetInCU: 0x3E8D9, offset: 0x3E8D9, size: 0x8, addend: 0x0, symName: __ZN12serde_derive2de34deserialize_externally_tagged_enum17hbe87fd7318c3c42aE, symObjAddr: 0x19790, symBinAddr: 0x1BFB0, symSize: 0x3020 }
  - { offsetInCU: 0x406EF, offset: 0x406EF, size: 0x8, addend: 0x0, symName: __ZN12serde_derive2de34deserialize_adjacently_tagged_enum17h552692f10b6d0923E, symObjAddr: 0x1C7B0, symBinAddr: 0x1EFD0, symSize: 0x7890 }
  - { offsetInCU: 0x43043, offset: 0x43043, size: 0x8, addend: 0x0, symName: __ZN12serde_derive2de31deserialize_untagged_enum_after17h35e027df7f4c643cE, symObjAddr: 0x24040, symBinAddr: 0x26860, symSize: 0xF50 }
  - { offsetInCU: 0x43CC9, offset: 0x43CC9, size: 0x8, addend: 0x0, symName: __ZN12serde_derive2de28deserialize_untagged_variant17h8e93607f346c2bc8E.llvm.17698831472302724612, symObjAddr: 0x24F90, symBinAddr: 0x277B0, symSize: 0xC30 }
  - { offsetInCU: 0x4488A, offset: 0x4488A, size: 0x8, addend: 0x0, symName: __ZN12serde_derive2de36deserialize_untagged_newtype_variant17h29270998942499adE, symObjAddr: 0x25BC0, symBinAddr: 0x283E0, symSize: 0x5F0 }
  - { offsetInCU: 0x44CBB, offset: 0x44CBB, size: 0x8, addend: 0x0, symName: __ZN12serde_derive2de32deserialize_generated_identifier17he967eb02fc631b64E, symObjAddr: 0x261B0, symBinAddr: 0x289D0, symSize: 0xF90 }
  - { offsetInCU: 0x457B4, offset: 0x457B4, size: 0x8, addend: 0x0, symName: __ZN12serde_derive2de22deserialize_identifier17h702cca8a2ddf8f1dE, symObjAddr: 0x27460, symBinAddr: 0x29C80, symSize: 0x76E0 }
  - { offsetInCU: 0x47926, offset: 0x47926, size: 0x8, addend: 0x0, symName: __ZN12serde_derive2de15deserialize_map17h8a8383a418c2932fE, symObjAddr: 0x2EB40, symBinAddr: 0x31360, symSize: 0x4320 }
  - { offsetInCU: 0x49B2A, offset: 0x49B2A, size: 0x8, addend: 0x0, symName: __ZN12serde_derive2de7field_i17h90b45780849f223dE, symObjAddr: 0x32E60, symBinAddr: 0x35680, symSize: 0xD0 }
  - { offsetInCU: 0x49F0C, offset: 0x49F0C, size: 0x8, addend: 0x0, symName: __ZN12serde_derive2de21wrap_deserialize_with17hd0fdc5e430d18e06E, symObjAddr: 0x32F30, symBinAddr: 0x35750, symSize: 0xBD0 }
  - { offsetInCU: 0x4A51B, offset: 0x4A51B, size: 0x8, addend: 0x0, symName: __ZN12serde_derive2de25unwrap_to_variant_closure17h298227298e4e5f00E, symObjAddr: 0x33B00, symBinAddr: 0x36320, symSize: 0xAB0 }
  - { offsetInCU: 0x4B3F1, offset: 0x4B3F1, size: 0x8, addend: 0x0, symName: __ZN12serde_derive2de15expr_is_missing17h9b7bb85aa5b21cd8E, symObjAddr: 0x345B0, symBinAddr: 0x36DD0, symSize: 0x730 }
  - { offsetInCU: 0x4B933, offset: 0x4B933, size: 0x8, addend: 0x0, symName: '__ZN79_$LT$serde_derive..de..DeImplGenerics$u20$as$u20$quote..to_tokens..ToTokens$GT$9to_tokens17h92940b3ca4386790E', symObjAddr: 0x34CE0, symBinAddr: 0x37500, symSize: 0x1C0 }
  - { offsetInCU: 0x4BB03, offset: 0x4BB03, size: 0x8, addend: 0x0, symName: '__ZN79_$LT$serde_derive..de..DeTypeGenerics$u20$as$u20$quote..to_tokens..ToTokens$GT$9to_tokens17hb3e175957c846161E', symObjAddr: 0x34EA0, symBinAddr: 0x376C0, symSize: 0x2BC }
  - { offsetInCU: 0x54E83, offset: 0x54E83, size: 0x8, addend: 0x0, symName: __ZN12serde_derive2de10Parameters9type_name17h524773c359c73e03E, symObjAddr: 0xB0F0, symBinAddr: 0xD910, symSize: 0x130 }
  - { offsetInCU: 0x5548B, offset: 0x5548B, size: 0x8, addend: 0x0, symName: __ZN12serde_derive2de17BorrowedLifetimes17de_lifetime_param17he28ab6a9481144f8E, symObjAddr: 0xB290, symBinAddr: 0xDAB0, symSize: 0x220 }
  - { offsetInCU: 0x1E, offset: 0x5EDB5, size: 0x8, addend: 0x0, symName: '__ZN100_$LT$syn..punctuated..PrivateIter$LT$T$C$P$GT$$u20$as$u20$core..iter..traits..iterator..Iterator$GT$4next17h1da1050322c2b0a4E.llvm.294945388378908710', symObjAddr: 0x0, symBinAddr: 0x37980, symSize: 0x0 }
  - { offsetInCU: 0x35, offset: 0x5EDCC, size: 0x8, addend: 0x0, symName: _anon.9b213cc2824816df2be2be64c70dbef9.10.llvm.294945388378908710, symObjAddr: 0xEEE0, symBinAddr: 0x34C628, symSize: 0x0 }
  - { offsetInCU: 0x1147, offset: 0x5FEDE, size: 0x8, addend: 0x0, symName: '__ZN100_$LT$syn..punctuated..PrivateIter$LT$T$C$P$GT$$u20$as$u20$core..iter..traits..iterator..Iterator$GT$4next17h1da1050322c2b0a4E.llvm.294945388378908710', symObjAddr: 0x0, symBinAddr: 0x37980, symSize: 0x0 }
  - { offsetInCU: 0x13DA, offset: 0x60171, size: 0x8, addend: 0x0, symName: '__ZN100_$LT$syn..punctuated..PrivateIter$LT$T$C$P$GT$$u20$as$u20$core..iter..traits..iterator..Iterator$GT$4next17h30da9f65d70e6202E.llvm.294945388378908710', symObjAddr: 0x30, symBinAddr: 0x379B0, symSize: 0x0 }
  - { offsetInCU: 0x166D, offset: 0x60404, size: 0x8, addend: 0x0, symName: '__ZN100_$LT$syn..punctuated..PrivateIter$LT$T$C$P$GT$$u20$as$u20$core..iter..traits..iterator..Iterator$GT$4next17h38571b7c7847b7b6E.llvm.294945388378908710', symObjAddr: 0x60, symBinAddr: 0x379E0, symSize: 0x0 }
  - { offsetInCU: 0x1924, offset: 0x606BB, size: 0x8, addend: 0x0, symName: '__ZN100_$LT$syn..punctuated..PrivateIter$LT$T$C$P$GT$$u20$as$u20$core..iter..traits..iterator..Iterator$GT$4next17h3c5db6b172934050E.llvm.294945388378908710', symObjAddr: 0x90, symBinAddr: 0x37A10, symSize: 0x0 }
  - { offsetInCU: 0x1BB7, offset: 0x6094E, size: 0x8, addend: 0x0, symName: '__ZN100_$LT$syn..punctuated..PrivateIter$LT$T$C$P$GT$$u20$as$u20$core..iter..traits..iterator..Iterator$GT$4next17h51c00d16bec61d57E.llvm.294945388378908710', symObjAddr: 0xC0, symBinAddr: 0x37A40, symSize: 0x0 }
  - { offsetInCU: 0x1E4A, offset: 0x60BE1, size: 0x8, addend: 0x0, symName: '__ZN100_$LT$syn..punctuated..PrivateIter$LT$T$C$P$GT$$u20$as$u20$core..iter..traits..iterator..Iterator$GT$4next17hc3dd73ef6add45d0E.llvm.294945388378908710', symObjAddr: 0xF0, symBinAddr: 0x37A70, symSize: 0x0 }
  - { offsetInCU: 0x2101, offset: 0x60E98, size: 0x8, addend: 0x0, symName: '__ZN100_$LT$syn..punctuated..PrivateIter$LT$T$C$P$GT$$u20$as$u20$core..iter..traits..iterator..Iterator$GT$4next17hf9e5a5f2c3198c91E.llvm.294945388378908710', symObjAddr: 0x120, symBinAddr: 0x37AA0, symSize: 0x0 }
  - { offsetInCU: 0x2510, offset: 0x612A7, size: 0x8, addend: 0x0, symName: '__ZN102_$LT$syn..punctuated..Punctuated$LT$T$C$P$GT$$u20$as$u20$core..iter..traits..collect..IntoIterator$GT$9into_iter17h9bb9ce2b4b314feeE', symObjAddr: 0x150, symBinAddr: 0x37AD0, symSize: 0x1B0 }
  - { offsetInCU: 0x2A72, offset: 0x61809, size: 0x8, addend: 0x0, symName: '__ZN102_$LT$syn..punctuated..Punctuated$LT$T$C$P$GT$$u20$as$u20$core..iter..traits..collect..IntoIterator$GT$9into_iter17ha43ea960604eda6eE', symObjAddr: 0x300, symBinAddr: 0x37C80, symSize: 0x220 }
  - { offsetInCU: 0x33F7, offset: 0x6218E, size: 0x8, addend: 0x0, symName: '__ZN103_$LT$syn..punctuated..PrivateIterMut$LT$T$C$P$GT$$u20$as$u20$core..iter..traits..iterator..Iterator$GT$4next17h24a3695a9dbf1913E.llvm.294945388378908710', symObjAddr: 0x520, symBinAddr: 0x37EA0, symSize: 0x30 }
  - { offsetInCU: 0x3750, offset: 0x624E7, size: 0x8, addend: 0x0, symName: '__ZN105_$LT$syn..punctuated..Punctuated$LT$T$C$P$GT$$u20$as$u20$core..iter..traits..collect..Extend$LT$T$GT$$GT$6extend17h039fbc7e797940baE', symObjAddr: 0x550, symBinAddr: 0x37ED0, symSize: 0x110 }
  - { offsetInCU: 0x38DE, offset: 0x62675, size: 0x8, addend: 0x0, symName: '__ZN105_$LT$syn..punctuated..Punctuated$LT$T$C$P$GT$$u20$as$u20$core..iter..traits..collect..Extend$LT$T$GT$$GT$6extend17h28b379d6e185b601E', symObjAddr: 0x660, symBinAddr: 0x37FE0, symSize: 0x530 }
  - { offsetInCU: 0x426C, offset: 0x63003, size: 0x8, addend: 0x0, symName: '__ZN105_$LT$syn..punctuated..Punctuated$LT$T$C$P$GT$$u20$as$u20$core..iter..traits..collect..Extend$LT$T$GT$$GT$6extend17h51c8b3186d02ee82E', symObjAddr: 0xB90, symBinAddr: 0x38510, symSize: 0x2F0 }
  - { offsetInCU: 0x487B, offset: 0x63612, size: 0x8, addend: 0x0, symName: '__ZN105_$LT$syn..punctuated..Punctuated$LT$T$C$P$GT$$u20$as$u20$core..iter..traits..collect..Extend$LT$T$GT$$GT$6extend17haa33ea19c4e91311E', symObjAddr: 0xE80, symBinAddr: 0x38800, symSize: 0x320 }
  - { offsetInCU: 0x52BE, offset: 0x64055, size: 0x8, addend: 0x0, symName: '__ZN111_$LT$syn..punctuated..PrivateIter$LT$T$C$P$GT$$u20$as$u20$core..iter..traits..exact_size..ExactSizeIterator$GT$3len17h3398f2283b1ca2e5E.llvm.294945388378908710', symObjAddr: 0x11F0, symBinAddr: 0x38B20, symSize: 0x0 }
  - { offsetInCU: 0x53AF, offset: 0x64146, size: 0x8, addend: 0x0, symName: '__ZN111_$LT$syn..punctuated..PrivateIter$LT$T$C$P$GT$$u20$as$u20$core..iter..traits..exact_size..ExactSizeIterator$GT$3len17h6af7b512f2f1c545E.llvm.294945388378908710', symObjAddr: 0x1220, symBinAddr: 0x38B50, symSize: 0x0 }
  - { offsetInCU: 0x54A0, offset: 0x64237, size: 0x8, addend: 0x0, symName: '__ZN111_$LT$syn..punctuated..PrivateIter$LT$T$C$P$GT$$u20$as$u20$core..iter..traits..exact_size..ExactSizeIterator$GT$3len17hf682e8fa03992c6eE.llvm.294945388378908710', symObjAddr: 0x1280, symBinAddr: 0x38B80, symSize: 0x0 }
  - { offsetInCU: 0x55A3, offset: 0x6433A, size: 0x8, addend: 0x0, symName: '__ZN111_$LT$syn..punctuated..Punctuated$LT$T$C$P$GT$$u20$as$u20$core..iter..traits..collect..FromIterator$LT$T$GT$$GT$9from_iter17h0c22dfb009c8d2d4E', symObjAddr: 0x12E0, symBinAddr: 0x38BB0, symSize: 0x130 }
  - { offsetInCU: 0x56E9, offset: 0x64480, size: 0x8, addend: 0x0, symName: '__ZN111_$LT$syn..punctuated..Punctuated$LT$T$C$P$GT$$u20$as$u20$core..iter..traits..collect..FromIterator$LT$T$GT$$GT$9from_iter17h2d0cb541e75f58c0E', symObjAddr: 0x1410, symBinAddr: 0x38CE0, symSize: 0x260 }
  - { offsetInCU: 0x5BE0, offset: 0x64977, size: 0x8, addend: 0x0, symName: '__ZN111_$LT$syn..punctuated..Punctuated$LT$T$C$P$GT$$u20$as$u20$core..iter..traits..collect..FromIterator$LT$T$GT$$GT$9from_iter17hc78efc5df6f016a2E', symObjAddr: 0x1770, symBinAddr: 0x38F40, symSize: 0x260 }
  - { offsetInCU: 0x5EA0, offset: 0x64C37, size: 0x8, addend: 0x0, symName: '__ZN111_$LT$syn..punctuated..Punctuated$LT$T$C$P$GT$$u20$as$u20$core..iter..traits..collect..FromIterator$LT$T$GT$$GT$9from_iter17hde1d9578cf16c7edE', symObjAddr: 0x19D0, symBinAddr: 0x391A0, symSize: 0x160 }
  - { offsetInCU: 0x608A, offset: 0x64E21, size: 0x8, addend: 0x0, symName: '__ZN111_$LT$syn..punctuated..Punctuated$LT$T$C$P$GT$$u20$as$u20$core..iter..traits..collect..FromIterator$LT$T$GT$$GT$9from_iter17hea573240a773aa58E', symObjAddr: 0x1B30, symBinAddr: 0x39300, symSize: 0x1E0 }
  - { offsetInCU: 0x647C, offset: 0x65213, size: 0x8, addend: 0x0, symName: '__ZN111_$LT$syn..punctuated..Punctuated$LT$T$C$P$GT$$u20$as$u20$core..iter..traits..collect..FromIterator$LT$T$GT$$GT$9from_iter17heaf0c37cb52fee79E', symObjAddr: 0x1D10, symBinAddr: 0x394E0, symSize: 0x340 }
  - { offsetInCU: 0x6F58, offset: 0x65CEF, size: 0x8, addend: 0x0, symName: '__ZN115_$LT$syn..punctuated..PrivateIter$LT$T$C$P$GT$$u20$as$u20$core..iter..traits..double_ended..DoubleEndedIterator$GT$9next_back17h25d7c76e4f2c6d5dE.llvm.294945388378908710', symObjAddr: 0x2080, symBinAddr: 0x39820, symSize: 0x0 }
  - { offsetInCU: 0x7216, offset: 0x65FAD, size: 0x8, addend: 0x0, symName: '__ZN115_$LT$syn..punctuated..PrivateIter$LT$T$C$P$GT$$u20$as$u20$core..iter..traits..double_ended..DoubleEndedIterator$GT$9next_back17h48088a3fc33b791eE.llvm.294945388378908710', symObjAddr: 0x20B0, symBinAddr: 0x39850, symSize: 0x0 }
  - { offsetInCU: 0x74B0, offset: 0x66247, size: 0x8, addend: 0x0, symName: '__ZN115_$LT$syn..punctuated..PrivateIter$LT$T$C$P$GT$$u20$as$u20$core..iter..traits..double_ended..DoubleEndedIterator$GT$9next_back17h515fb88c1411bb0dE.llvm.294945388378908710', symObjAddr: 0x2110, symBinAddr: 0x39880, symSize: 0x0 }
  - { offsetInCU: 0x7C21, offset: 0x669B8, size: 0x8, addend: 0x0, symName: __ZN3syn10punctuated9do_extend17hd3bdc0e1ff2f2962E.llvm.294945388378908710, symObjAddr: 0x3650, symBinAddr: 0x3A310, symSize: 0x5C0 }
  - { offsetInCU: 0x8C25, offset: 0x679BC, size: 0x8, addend: 0x0, symName: '__ZN57_$LT$I$u20$as$u20$syn..punctuated..IterTrait$LT$T$GT$$GT$9clone_box17h20eb23f79a1b241bE.llvm.294945388378908710', symObjAddr: 0xD310, symBinAddr: 0x43370, symSize: 0x60 }
  - { offsetInCU: 0x8E39, offset: 0x67BD0, size: 0x8, addend: 0x0, symName: '__ZN57_$LT$I$u20$as$u20$syn..punctuated..IterTrait$LT$T$GT$$GT$9clone_box17h2baeb0143852d8a8E.llvm.294945388378908710', symObjAddr: 0xD3D0, symBinAddr: 0x433D0, symSize: 0x60 }
  - { offsetInCU: 0x904D, offset: 0x67DE4, size: 0x8, addend: 0x0, symName: '__ZN57_$LT$I$u20$as$u20$syn..punctuated..IterTrait$LT$T$GT$$GT$9clone_box17h7834139156d7e46cE.llvm.294945388378908710', symObjAddr: 0xD430, symBinAddr: 0x43430, symSize: 0x60 }
  - { offsetInCU: 0x932E, offset: 0x680C5, size: 0x8, addend: 0x0, symName: '__ZN97_$LT$syn..punctuated..Punctuated$LT$T$C$P$GT$$u20$as$u20$core..ops..index..Index$LT$usize$GT$$GT$5index17h7564f63a39f20050E', symObjAddr: 0xD6F0, symBinAddr: 0x43490, symSize: 0x40 }
  - { offsetInCU: 0x9407, offset: 0x6819E, size: 0x8, addend: 0x0, symName: '__ZN97_$LT$syn..punctuated..Punctuated$LT$T$C$P$GT$$u20$as$u20$core..ops..index..Index$LT$usize$GT$$GT$5index17ha25943aa1f011731E', symObjAddr: 0xD730, symBinAddr: 0x434D0, symSize: 0x43 }
  - { offsetInCU: 0xDA25, offset: 0x6C7BC, size: 0x8, addend: 0x0, symName: '__ZN40_$LT$F$u20$as$u20$syn..parse..Parser$GT$14__parse_scoped17h657cb63039d774afE', symObjAddr: 0x3C10, symBinAddr: 0x3A8D0, symSize: 0x6D0 }
  - { offsetInCU: 0x153E0, offset: 0x74177, size: 0x8, addend: 0x0, symName: '__ZN4core3ptr100drop_in_place$LT$core..option..Option$LT$alloc..boxed..Box$LT$syn..path..GenericArgument$GT$$GT$$GT$17h91f76f7535c0ef94E.llvm.294945388378908710', symObjAddr: 0x42E0, symBinAddr: 0x3AFA0, symSize: 0x50 }
  - { offsetInCU: 0x1562B, offset: 0x743C2, size: 0x8, addend: 0x0, symName: '__ZN4core3ptr100drop_in_place$LT$syn..punctuated..Punctuated$LT$syn..path..PathSegment$C$syn..token..PathSep$GT$$GT$17h8967d620e5262808E.llvm.294945388378908710', symObjAddr: 0x4330, symBinAddr: 0x3AFF0, symSize: 0x260 }
  - { offsetInCU: 0x15FC4, offset: 0x74D5B, size: 0x8, addend: 0x0, symName: '__ZN4core3ptr101drop_in_place$LT$alloc..vec..Vec$LT$$LP$syn..generics..WherePredicate$C$syn..token..Comma$RP$$GT$$GT$17hf9bc14448d6482adE.llvm.294945388378908710', symObjAddr: 0x4590, symBinAddr: 0x3B250, symSize: 0xD0 }
  - { offsetInCU: 0x162A4, offset: 0x7503B, size: 0x8, addend: 0x0, symName: '__ZN4core3ptr101drop_in_place$LT$core..option..Option$LT$alloc..boxed..Box$LT$syn..generics..GenericParam$GT$$GT$$GT$17h6aa710718dd81b40E.llvm.294945388378908710', symObjAddr: 0x4660, symBinAddr: 0x3B320, symSize: 0x50 }
  - { offsetInCU: 0x16416, offset: 0x751AD, size: 0x8, addend: 0x0, symName: '__ZN4core3ptr101drop_in_place$LT$syn..punctuated..PrivateIter$LT$syn..path..PathSegment$C$syn..token..PathSep$GT$$GT$17h6ceaf8eed170d1a8E.llvm.294945388378908710', symObjAddr: 0x46B0, symBinAddr: 0x3B370, symSize: 0x0 }
  - { offsetInCU: 0x16442, offset: 0x751D9, size: 0x8, addend: 0x0, symName: '__ZN4core3ptr102drop_in_place$LT$syn..punctuated..Punctuated$LT$syn..path..GenericArgument$C$syn..token..Comma$GT$$GT$17h7deada5365120e66E.llvm.294945388378908710', symObjAddr: 0x46C0, symBinAddr: 0x3B380, symSize: 0xF0 }
  - { offsetInCU: 0x1672B, offset: 0x754C2, size: 0x8, addend: 0x0, symName: '__ZN4core3ptr103drop_in_place$LT$core..option..Option$LT$alloc..boxed..Box$LT$syn..generics..TypeParamBound$GT$$GT$$GT$17h044206982686810cE', symObjAddr: 0x47B0, symBinAddr: 0x3B470, symSize: 0x50 }
  - { offsetInCU: 0x168BC, offset: 0x75653, size: 0x8, addend: 0x0, symName: '__ZN4core3ptr103drop_in_place$LT$core..option..Option$LT$alloc..boxed..Box$LT$syn..generics..WherePredicate$GT$$GT$$GT$17hdb4f3c209e2b962bE.llvm.294945388378908710', symObjAddr: 0x4800, symBinAddr: 0x3B4C0, symSize: 0x50 }
  - { offsetInCU: 0x16A7E, offset: 0x75815, size: 0x8, addend: 0x0, symName: '__ZN4core3ptr103drop_in_place$LT$syn..punctuated..Punctuated$LT$syn..generics..GenericParam$C$syn..token..Comma$GT$$GT$17h28897b64a12579c2E.llvm.294945388378908710', symObjAddr: 0x4850, symBinAddr: 0x3B510, symSize: 0xB0 }
  - { offsetInCU: 0x16F1F, offset: 0x75CB6, size: 0x8, addend: 0x0, symName: '__ZN4core3ptr104drop_in_place$LT$syn..punctuated..Punctuated$LT$syn..generics..TypeParamBound$C$syn..token..Plus$GT$$GT$17h8a3e2526f1805111E.llvm.294945388378908710', symObjAddr: 0x4900, symBinAddr: 0x3B5C0, symSize: 0x2C0 }
  - { offsetInCU: 0x17AE3, offset: 0x7687A, size: 0x8, addend: 0x0, symName: '__ZN4core3ptr105drop_in_place$LT$syn..punctuated..Punctuated$LT$syn..generics..WherePredicate$C$syn..token..Comma$GT$$GT$17h109fa4272849e193E', symObjAddr: 0x4BC0, symBinAddr: 0x3B880, symSize: 0x120 }
  - { offsetInCU: 0x17F7D, offset: 0x76D14, size: 0x8, addend: 0x0, symName: '__ZN4core3ptr139drop_in_place$LT$core..iter..adapters..skip..Skip$LT$syn..punctuated..IntoPairs$LT$syn..path..PathSegment$C$syn..token..PathSep$GT$$GT$$GT$17h410a6b4ca7667ccdE.llvm.294945388378908710', symObjAddr: 0x4CE0, symBinAddr: 0x3B9A0, symSize: 0x50 }
  - { offsetInCU: 0x1806A, offset: 0x76E01, size: 0x8, addend: 0x0, symName: '__ZN4core3ptr183drop_in_place$LT$core..iter..adapters..chain..Chain$LT$core..option..IntoIter$LT$syn..generics..GenericParam$GT$$C$syn..punctuated..IntoIter$LT$syn..generics..GenericParam$GT$$GT$$GT$17h326a0343225c6d26E.llvm.294945388378908710', symObjAddr: 0x4D30, symBinAddr: 0x3B9F0, symSize: 0x70 }
  - { offsetInCU: 0x1818D, offset: 0x76F24, size: 0x8, addend: 0x0, symName: '__ZN4core3ptr184drop_in_place$LT$core..iter..adapters..map..Map$LT$syn..punctuated..Iter$LT$syn..generics..GenericParam$GT$$C$serde_derive..bound..without_defaults..$u7b$$u7b$closure$u7d$$u7d$$GT$$GT$17h2b88fd71bd187b90E.llvm.294945388378908710', symObjAddr: 0x4DA0, symBinAddr: 0x3BA60, symSize: 0x30 }
  - { offsetInCU: 0x182C9, offset: 0x77060, size: 0x8, addend: 0x0, symName: '__ZN4core3ptr259drop_in_place$LT$core..option..Option$LT$core..iter..adapters..map..Map$LT$core..iter..adapters..cloned..Cloned$LT$syn..punctuated..Iter$LT$syn..generics..GenericParam$GT$$GT$$C$serde_derive..bound..with_lifetime_bound..$u7b$$u7b$closure$u7d$$u7d$$GT$$GT$$GT$17hf001c55d6add9ffdE', symObjAddr: 0x4DD0, symBinAddr: 0x3BA90, symSize: 0x30 }
  - { offsetInCU: 0x18431, offset: 0x771C8, size: 0x8, addend: 0x0, symName: '__ZN4core3ptr333drop_in_place$LT$core..iter..adapters..chain..Chain$LT$core..option..IntoIter$LT$syn..generics..GenericParam$GT$$C$core..iter..adapters..map..Map$LT$core..iter..adapters..cloned..Cloned$LT$syn..punctuated..Iter$LT$syn..generics..GenericParam$GT$$GT$$C$serde_derive..bound..with_lifetime_bound..$u7b$$u7b$closure$u7d$$u7d$$GT$$GT$$GT$17he686f361618d003cE', symObjAddr: 0x4E00, symBinAddr: 0x3BAC0, symSize: 0x80 }
  - { offsetInCU: 0x186C5, offset: 0x7745C, size: 0x8, addend: 0x0, symName: '__ZN4core3ptr34drop_in_place$LT$syn..lit..Lit$GT$17h909e98f6870548d6E', symObjAddr: 0x4E80, symBinAddr: 0x3BB40, symSize: 0x110 }
  - { offsetInCU: 0x18BFF, offset: 0x77996, size: 0x8, addend: 0x0, symName: '__ZN4core3ptr34drop_in_place$LT$syn..pat..Pat$GT$17h8fcd4c90be46a62aE', symObjAddr: 0x4F90, symBinAddr: 0x3BC50, symSize: 0x1000 }
  - { offsetInCU: 0x1C724, offset: 0x7B4BB, size: 0x8, addend: 0x0, symName: '__ZN4core3ptr34drop_in_place$LT$syn..ty..Type$GT$17h774a0ab6b4cf283eE.llvm.294945388378908710', symObjAddr: 0x5F90, symBinAddr: 0x3CC50, symSize: 0x4F0 }
  - { offsetInCU: 0x1DC6F, offset: 0x7CA06, size: 0x8, addend: 0x0, symName: '__ZN4core3ptr36drop_in_place$LT$syn..expr..Expr$GT$17h7fd8f0d642db296eE', symObjAddr: 0x6480, symBinAddr: 0x3D140, symSize: 0x28E0 }
  - { offsetInCU: 0x27101, offset: 0x85E98, size: 0x8, addend: 0x0, symName: '__ZN4core3ptr36drop_in_place$LT$syn..mac..Macro$GT$17hc8e4594548e1fb74E', symObjAddr: 0x8D60, symBinAddr: 0x3FA20, symSize: 0x40 }
  - { offsetInCU: 0x2713B, offset: 0x85ED2, size: 0x8, addend: 0x0, symName: '__ZN4core3ptr36drop_in_place$LT$syn..path..Path$GT$17hae91be932b20df1dE.llvm.294945388378908710', symObjAddr: 0x8DA0, symBinAddr: 0x3FA60, symSize: 0x110 }
  - { offsetInCU: 0x27551, offset: 0x862E8, size: 0x8, addend: 0x0, symName: '__ZN4core3ptr37drop_in_place$LT$syn..stmt..Block$GT$17hba4e7ddf28617bfdE', symObjAddr: 0x8EB0, symBinAddr: 0x3FB70, symSize: 0xD0 }
  - { offsetInCU: 0x277F5, offset: 0x8658C, size: 0x8, addend: 0x0, symName: '__ZN4core3ptr38drop_in_place$LT$syn..expr..Member$GT$17ha7c2806ee150b6f6E', symObjAddr: 0x8F80, symBinAddr: 0x3FC40, symSize: 0x30 }
  - { offsetInCU: 0x278F2, offset: 0x86689, size: 0x8, addend: 0x0, symName: '__ZN4core3ptr39drop_in_place$LT$proc_macro2..Ident$GT$17h8dfea26593c17b61E', symObjAddr: 0x8FB0, symBinAddr: 0x3FC70, symSize: 0x30 }
  - { offsetInCU: 0x27B06, offset: 0x8689D, size: 0x8, addend: 0x0, symName: '__ZN4core3ptr39drop_in_place$LT$syn..buffer..Entry$GT$17h50c973355181ef50E', symObjAddr: 0x8FE0, symBinAddr: 0x3FCA0, symSize: 0xC0 }
  - { offsetInCU: 0x27E1A, offset: 0x86BB1, size: 0x8, addend: 0x0, symName: '__ZN4core3ptr40drop_in_place$LT$syn..ty..ReturnType$GT$17h3c2856ff70e83fa7E.llvm.294945388378908710', symObjAddr: 0x90A0, symBinAddr: 0x3FD60, symSize: 0x50 }
  - { offsetInCU: 0x27F8C, offset: 0x86D23, size: 0x8, addend: 0x0, symName: '__ZN4core3ptr410drop_in_place$LT$core..iter..adapters..flatten..FlatMap$LT$core..iter..adapters..filter_map..FilterMap$LT$core..slice..iter..Iter$LT$serde_derive..internals..ast..Variant$GT$$C$serde_derive..bound..with_where_predicates_from_variants..$u7b$$u7b$closure$u7d$$u7d$$GT$$C$alloc..vec..Vec$LT$syn..generics..WherePredicate$GT$$C$alloc..slice..$LT$impl$u20$$u5b$syn..generics..WherePredicate$u5d$$GT$..to_vec$GT$$GT$17he96cc167fc09f38eE', symObjAddr: 0x90F0, symBinAddr: 0x3FDB0, symSize: 0x60 }
  - { offsetInCU: 0x28066, offset: 0x86DFD, size: 0x8, addend: 0x0, symName: '__ZN4core3ptr41drop_in_place$LT$syn..expr..ExprConst$GT$17h3f369735cc377020E', symObjAddr: 0x9150, symBinAddr: 0x3FE10, symSize: 0x180 }
  - { offsetInCU: 0x285BB, offset: 0x87352, size: 0x8, addend: 0x0, symName: '__ZN4core3ptr43drop_in_place$LT$syn..path..PathSegment$GT$17hca62e7ed1e037f21E.llvm.294945388378908710', symObjAddr: 0x92D0, symBinAddr: 0x3FF90, symSize: 0x170 }
  - { offsetInCU: 0x28AED, offset: 0x87884, size: 0x8, addend: 0x0, symName: '__ZN4core3ptr44drop_in_place$LT$syn..lifetime..Lifetime$GT$17h263f9508be5fff98E', symObjAddr: 0x9440, symBinAddr: 0x40100, symSize: 0x30 }
  - { offsetInCU: 0x28BEA, offset: 0x87981, size: 0x8, addend: 0x0, symName: '__ZN4core3ptr44drop_in_place$LT$syn..parse..ParseBuffer$GT$17h4966adace0fd02f2E', symObjAddr: 0x9470, symBinAddr: 0x40130, symSize: 0x70 }
  - { offsetInCU: 0x28F84, offset: 0x87D1B, size: 0x8, addend: 0x0, symName: '__ZN4core3ptr45drop_in_place$LT$proc_macro2..TokenStream$GT$17hcbbbd6ac69a3e46cE.llvm.294945388378908710', symObjAddr: 0x94E0, symBinAddr: 0x401A0, symSize: 0x140 }
  - { offsetInCU: 0x293B5, offset: 0x8814C, size: 0x8, addend: 0x0, symName: '__ZN4core3ptr45drop_in_place$LT$syn..buffer..TokenBuffer$GT$17h85f2ef09366c40f0E', symObjAddr: 0x9620, symBinAddr: 0x402E0, symSize: 0xD0 }
  - { offsetInCU: 0x2961B, offset: 0x883B2, size: 0x8, addend: 0x0, symName: '__ZN4core3ptr474drop_in_place$LT$core..iter..adapters..flatten..FlatMap$LT$core..iter..adapters..filter_map..FilterMap$LT$alloc..boxed..Box$LT$dyn$u20$core..iter..traits..iterator..Iterator$u2b$Item$u20$$u3d$$u20$$RF$serde_derive..internals..ast..Field$GT$$C$serde_derive..bound..with_where_predicates_from_fields..$u7b$$u7b$closure$u7d$$u7d$$GT$$C$alloc..vec..Vec$LT$syn..generics..WherePredicate$GT$$C$alloc..slice..$LT$impl$u20$$u5b$syn..generics..WherePredicate$u5d$$GT$..to_vec$GT$$GT$17h600f90bdf724df8bE', symObjAddr: 0x96F0, symBinAddr: 0x403B0, symSize: 0xC0 }
  - { offsetInCU: 0x299C1, offset: 0x88758, size: 0x8, addend: 0x0, symName: '__ZN4core3ptr47drop_in_place$LT$syn..path..GenericArgument$GT$17ha4d1e2427b5b79f7E.llvm.294945388378908710', symObjAddr: 0x97B0, symBinAddr: 0x40470, symSize: 0x4A0 }
  - { offsetInCU: 0x2AB03, offset: 0x8989A, size: 0x8, addend: 0x0, symName: '__ZN4core3ptr48drop_in_place$LT$syn..generics..GenericParam$GT$17hf964096905fcda37E.llvm.294945388378908710', symObjAddr: 0x9C50, symBinAddr: 0x40910, symSize: 0x380 }
  - { offsetInCU: 0x2B64A, offset: 0x8A3E1, size: 0x8, addend: 0x0, symName: '__ZN4core3ptr50drop_in_place$LT$syn..generics..TypeParamBound$GT$17h3bdcf102e80fe526E.llvm.294945388378908710', symObjAddr: 0x9FD0, symBinAddr: 0x40C90, symSize: 0xA0 }
  - { offsetInCU: 0x2B7EF, offset: 0x8A586, size: 0x8, addend: 0x0, symName: '__ZN4core3ptr50drop_in_place$LT$syn..generics..WherePredicate$GT$17hb5b2f2697a9a6859E.llvm.294945388378908710', symObjAddr: 0xA070, symBinAddr: 0x40D30, symSize: 0xA0 }
  - { offsetInCU: 0x2B990, offset: 0x8A727, size: 0x8, addend: 0x0, symName: '__ZN4core3ptr58drop_in_place$LT$alloc..vec..Vec$LT$syn..expr..Arm$GT$$GT$17h2816916be2f2c677E', symObjAddr: 0xA110, symBinAddr: 0x40DD0, symSize: 0xD0 }
  - { offsetInCU: 0x2BC1D, offset: 0x8A9B4, size: 0x8, addend: 0x0, symName: '__ZN4core3ptr59drop_in_place$LT$alloc..boxed..Box$LT$syn..pat..Pat$GT$$GT$17h97d5257714c9f93cE', symObjAddr: 0xA1E0, symBinAddr: 0x40EA0, symSize: 0x50 }
  - { offsetInCU: 0x2BD78, offset: 0x8AB0F, size: 0x8, addend: 0x0, symName: '__ZN4core3ptr59drop_in_place$LT$alloc..boxed..Box$LT$syn..ty..Type$GT$$GT$17h54564496a417dc0bE.llvm.294945388378908710', symObjAddr: 0xA230, symBinAddr: 0x40EF0, symSize: 0x50 }
  - { offsetInCU: 0x2BED3, offset: 0x8AC6A, size: 0x8, addend: 0x0, symName: '__ZN4core3ptr605drop_in_place$LT$core..iter..adapters..map..Map$LT$core..iter..adapters..chain..Chain$LT$core..iter..adapters..map..Map$LT$core..iter..adapters..filter..Filter$LT$core..iter..adapters..map..Map$LT$syn..generics..TypeParams$C$serde_derive..bound..with_bound..$u7b$$u7b$closure$u7d$$u7d$$GT$$C$serde_derive..bound..with_bound..$u7b$$u7b$closure$u7d$$u7d$$GT$$C$serde_derive..bound..with_bound..$u7b$$u7b$closure$u7d$$u7d$$GT$$C$core..iter..adapters..cloned..Cloned$LT$alloc..vec..into_iter..IntoIter$LT$$RF$syn..ty..TypePath$GT$$GT$$GT$$C$serde_derive..bound..with_bound..$u7b$$u7b$closure$u7d$$u7d$$GT$$GT$17h8f997c3880cf4055E', symObjAddr: 0xA280, symBinAddr: 0x40F40, symSize: 0x70 }
  - { offsetInCU: 0x2C20D, offset: 0x8AFA4, size: 0x8, addend: 0x0, symName: '__ZN4core3ptr61drop_in_place$LT$alloc..boxed..Box$LT$syn..expr..Expr$GT$$GT$17hcb812af949707350E', symObjAddr: 0xA2F0, symBinAddr: 0x40FB0, symSize: 0x50 }
  - { offsetInCU: 0x2C3E4, offset: 0x8B17B, size: 0x8, addend: 0x0, symName: '__ZN4core3ptr61drop_in_place$LT$syn..path..ParenthesizedGenericArguments$GT$17h2cda518d73cfbc65E.llvm.294945388378908710', symObjAddr: 0xA340, symBinAddr: 0x41000, symSize: 0x170 }
  - { offsetInCU: 0x2C9AB, offset: 0x8B742, size: 0x8, addend: 0x0, symName: '__ZN4core3ptr62drop_in_place$LT$syn..path..AngleBracketedGenericArguments$GT$17h532d3ccffb7c0f6eE.llvm.294945388378908710', symObjAddr: 0xA4B0, symBinAddr: 0x41170, symSize: 0x120 }
  - { offsetInCU: 0x2CDC1, offset: 0x8BB58, size: 0x8, addend: 0x0, symName: '__ZN4core3ptr63drop_in_place$LT$alloc..boxed..Box$LT$syn..lit..LitRepr$GT$$GT$17h4f0b7f87f46ca722E', symObjAddr: 0xA5D0, symBinAddr: 0x41290, symSize: 0x60 }
  - { offsetInCU: 0x2D0B6, offset: 0x8BE4D, size: 0x8, addend: 0x0, symName: '__ZN4core3ptr64drop_in_place$LT$alloc..boxed..Box$LT$syn..pat..FieldPat$GT$$GT$17h24cd16a7bd79a0afE', symObjAddr: 0xA630, symBinAddr: 0x412F0, symSize: 0x140 }
  - { offsetInCU: 0x2D761, offset: 0x8C4F8, size: 0x8, addend: 0x0, symName: '__ZN4core3ptr64drop_in_place$LT$alloc..boxed..Box$LT$syn..ty..BareFnArg$GT$$GT$17h8d6c5b973f90cb46E', symObjAddr: 0xA770, symBinAddr: 0x41430, symSize: 0x140 }
  - { offsetInCU: 0x2DC85, offset: 0x8CA1C, size: 0x8, addend: 0x0, symName: '__ZN4core3ptr65drop_in_place$LT$core..option..Option$LT$syn..expr..Label$GT$$GT$17h49c37bc37ca5807aE', symObjAddr: 0xA8B0, symBinAddr: 0x41570, symSize: 0x30 }
  - { offsetInCU: 0x2DDC0, offset: 0x8CB57, size: 0x8, addend: 0x0, symName: '__ZN4core3ptr66drop_in_place$LT$core..option..Option$LT$syn..pat..PatRest$GT$$GT$17ha0b10c3084c29dd7E', symObjAddr: 0xA8E0, symBinAddr: 0x415A0, symSize: 0xE0 }
  - { offsetInCU: 0x2E044, offset: 0x8CDDB, size: 0x8, addend: 0x0, symName: '__ZN4core3ptr67drop_in_place$LT$alloc..boxed..Box$LT$syn..expr..FieldValue$GT$$GT$17h51140dec2dd742b5E', symObjAddr: 0xA9C0, symBinAddr: 0x41680, symSize: 0x140 }
  - { offsetInCU: 0x2E548, offset: 0x8D2DF, size: 0x8, addend: 0x0, symName: '__ZN4core3ptr68drop_in_place$LT$alloc..boxed..Box$LT$syn..path..PathSegment$GT$$GT$17h6663076be8cb9e8fE.llvm.294945388378908710', symObjAddr: 0xAB00, symBinAddr: 0x417C0, symSize: 0x190 }
  - { offsetInCU: 0x2EC26, offset: 0x8D9BD, size: 0x8, addend: 0x0, symName: '__ZN4core3ptr70drop_in_place$LT$core..option..Option$LT$syn..ty..BareVariadic$GT$$GT$17h006e7519360f59bbE', symObjAddr: 0xAC90, symBinAddr: 0x41950, symSize: 0x120 }
  - { offsetInCU: 0x2F153, offset: 0x8DEEA, size: 0x8, addend: 0x0, symName: '__ZN4core3ptr71drop_in_place$LT$alloc..vec..Vec$LT$syn..generics..GenericParam$GT$$GT$17h5a70434ff29b7d2bE.llvm.294945388378908710', symObjAddr: 0xADB0, symBinAddr: 0x41A70, symSize: 0x60 }
  - { offsetInCU: 0x2F399, offset: 0x8E130, size: 0x8, addend: 0x0, symName: '__ZN4core3ptr72drop_in_place$LT$alloc..boxed..Box$LT$syn..path..GenericArgument$GT$$GT$17h9e43a058d82d49aaE.llvm.294945388378908710', symObjAddr: 0xAE10, symBinAddr: 0x41AD0, symSize: 0x2B0 }
  - { offsetInCU: 0x2FD24, offset: 0x8EABB, size: 0x8, addend: 0x0, symName: '__ZN4core3ptr72drop_in_place$LT$core..option..Option$LT$syn..lifetime..Lifetime$GT$$GT$17h2cbddfd17a7fb6a0E', symObjAddr: 0xB0C0, symBinAddr: 0x41D80, symSize: 0x30 }
  - { offsetInCU: 0x2FE5F, offset: 0x8EBF6, size: 0x8, addend: 0x0, symName: '__ZN4core3ptr73drop_in_place$LT$alloc..vec..Vec$LT$syn..generics..WherePredicate$GT$$GT$17hbdd9b5058924e659E.llvm.294945388378908710', symObjAddr: 0xB0F0, symBinAddr: 0x41DB0, symSize: 0xD0 }
  - { offsetInCU: 0x300FF, offset: 0x8EE96, size: 0x8, addend: 0x0, symName: '__ZN4core3ptr75drop_in_place$LT$alloc..boxed..Box$LT$syn..generics..TypeParamBound$GT$$GT$17he16e1f4f3b231893E', symObjAddr: 0xB1C0, symBinAddr: 0x41E80, symSize: 0x1F0 }
  - { offsetInCU: 0x30A27, offset: 0x8F7BE, size: 0x8, addend: 0x0, symName: '__ZN4core3ptr86drop_in_place$LT$syn..punctuated..Punctuated$LT$syn..pat..Pat$C$syn..token..Or$GT$$GT$17h449b7e6b5537b210E', symObjAddr: 0xB3B0, symBinAddr: 0x42070, symSize: 0x120 }
  - { offsetInCU: 0x30E6D, offset: 0x8FC04, size: 0x8, addend: 0x0, symName: '__ZN4core3ptr87drop_in_place$LT$core..option..Option$LT$alloc..boxed..Box$LT$syn..pat..Pat$GT$$GT$$GT$17hbff747ffa5f39bd3E', symObjAddr: 0xB4D0, symBinAddr: 0x42190, symSize: 0x50 }
  - { offsetInCU: 0x30FDF, offset: 0x8FD76, size: 0x8, addend: 0x0, symName: '__ZN4core3ptr87drop_in_place$LT$core..option..Option$LT$alloc..boxed..Box$LT$syn..ty..Type$GT$$GT$$GT$17hd404efde6702ff0dE.llvm.294945388378908710', symObjAddr: 0xB520, symBinAddr: 0x421E0, symSize: 0x50 }
  - { offsetInCU: 0x31151, offset: 0x8FEE8, size: 0x8, addend: 0x0, symName: '__ZN4core3ptr89drop_in_place$LT$core..option..Option$LT$alloc..boxed..Box$LT$syn..expr..Expr$GT$$GT$$GT$17h981df8604670027bE', symObjAddr: 0xB570, symBinAddr: 0x42230, symSize: 0x50 }
  - { offsetInCU: 0x31301, offset: 0x90098, size: 0x8, addend: 0x0, symName: '__ZN4core3ptr89drop_in_place$LT$syn..punctuated..Punctuated$LT$syn..pat..Pat$C$syn..token..Comma$GT$$GT$17h8165fd7eb02b8118E', symObjAddr: 0xB5C0, symBinAddr: 0x42280, symSize: 0x120 }
  - { offsetInCU: 0x3175E, offset: 0x904F5, size: 0x8, addend: 0x0, symName: '__ZN4core3ptr89drop_in_place$LT$syn..punctuated..Punctuated$LT$syn..ty..Type$C$syn..token..Comma$GT$$GT$17h23a774170e770b9aE.llvm.294945388378908710', symObjAddr: 0xB6E0, symBinAddr: 0x423A0, symSize: 0x120 }
  - { offsetInCU: 0x31BA8, offset: 0x9093F, size: 0x8, addend: 0x0, symName: '__ZN4core3ptr90drop_in_place$LT$core..option..Option$LT$syn..path..AngleBracketedGenericArguments$GT$$GT$17h28a1c7f1e00311d1E', symObjAddr: 0xB800, symBinAddr: 0x424C0, symSize: 0x130 }
  - { offsetInCU: 0x32013, offset: 0x90DAA, size: 0x8, addend: 0x0, symName: '__ZN4core3ptr91drop_in_place$LT$syn..punctuated..Punctuated$LT$syn..expr..Expr$C$syn..token..Comma$GT$$GT$17ha27fe7b672ce38bdE', symObjAddr: 0xB930, symBinAddr: 0x425F0, symSize: 0x120 }
  - { offsetInCU: 0x32470, offset: 0x91207, size: 0x8, addend: 0x0, symName: '__ZN4core3ptr94drop_in_place$LT$syn..punctuated..Punctuated$LT$syn..pat..FieldPat$C$syn..token..Comma$GT$$GT$17hd9ad3a9ff53c2a49E', symObjAddr: 0xBA50, symBinAddr: 0x42710, symSize: 0xF0 }
  - { offsetInCU: 0x3273A, offset: 0x914D1, size: 0x8, addend: 0x0, symName: '__ZN4core3ptr94drop_in_place$LT$syn..punctuated..Punctuated$LT$syn..ty..BareFnArg$C$syn..token..Comma$GT$$GT$17h3ad0ecbb9acc3d94E', symObjAddr: 0xBB40, symBinAddr: 0x42800, symSize: 0xF0 }
  - { offsetInCU: 0x32A04, offset: 0x9179B, size: 0x8, addend: 0x0, symName: '__ZN4core3ptr96drop_in_place$LT$core..option..Option$LT$alloc..boxed..Box$LT$syn..path..PathSegment$GT$$GT$$GT$17h15008b031e78f545E.llvm.294945388378908710', symObjAddr: 0xBC30, symBinAddr: 0x428F0, symSize: 0x90 }
  - { offsetInCU: 0x32CA5, offset: 0x91A3C, size: 0x8, addend: 0x0, symName: '__ZN4core3ptr97drop_in_place$LT$syn..punctuated..Punctuated$LT$syn..expr..FieldValue$C$syn..token..Comma$GT$$GT$17h7dd72fd62fffe077E', symObjAddr: 0xBD10, symBinAddr: 0x42980, symSize: 0xF0 }
  - { offsetInCU: 0x32F6F, offset: 0x91D06, size: 0x8, addend: 0x0, symName: '__ZN4core3ptr98drop_in_place$LT$alloc..vec..Vec$LT$$LP$syn..path..GenericArgument$C$syn..token..Comma$RP$$GT$$GT$17h5d136a881836b500E', symObjAddr: 0xBE00, symBinAddr: 0x42A70, symSize: 0xD0 }
  - { offsetInCU: 0x33259, offset: 0x91FF0, size: 0x8, addend: 0x0, symName: '__ZN4core3ptr98drop_in_place$LT$syn..punctuated..Punctuated$LT$syn..lifetime..Lifetime$C$syn..token..Plus$GT$$GT$17haf6d03c18957eb1aE.llvm.294945388378908710', symObjAddr: 0xBED0, symBinAddr: 0x42B40, symSize: 0xC0 }
  - { offsetInCU: 0x336D1, offset: 0x92468, size: 0x8, addend: 0x0, symName: '__ZN4core3ptr99drop_in_place$LT$alloc..vec..Vec$LT$$LP$syn..generics..GenericParam$C$syn..token..Comma$RP$$GT$$GT$17h26fa656c61e8d53fE.llvm.294945388378908710', symObjAddr: 0xBF90, symBinAddr: 0x42C00, symSize: 0x60 }
  - { offsetInCU: 0x3C1B0, offset: 0x9AF47, size: 0x8, addend: 0x0, symName: __ZN4core4iter6traits8iterator8Iterator10advance_by17h17de4803d575cde4E.llvm.294945388378908710, symObjAddr: 0xCBA0, symBinAddr: 0x43080, symSize: 0x0 }
  - { offsetInCU: 0x3C4FA, offset: 0x9B291, size: 0x8, addend: 0x0, symName: __ZN4core4iter6traits8iterator8Iterator10advance_by17h464297d59ffb232cE.llvm.294945388378908710, symObjAddr: 0xCCF0, symBinAddr: 0x430F0, symSize: 0x0 }
  - { offsetInCU: 0x3C812, offset: 0x9B5A9, size: 0x8, addend: 0x0, symName: __ZN4core4iter6traits8iterator8Iterator10advance_by17hc3b173b074ec1a14E.llvm.294945388378908710, symObjAddr: 0xCDC0, symBinAddr: 0x43160, symSize: 0x0 }
  - { offsetInCU: 0x3CB7B, offset: 0x9B912, size: 0x8, addend: 0x0, symName: __ZN4core4iter6traits8iterator8Iterator3nth17h1017a5c74a61ff61E.llvm.294945388378908710, symObjAddr: 0xCE30, symBinAddr: 0x431D0, symSize: 0x0 }
  - { offsetInCU: 0x3D195, offset: 0x9BF2C, size: 0x8, addend: 0x0, symName: __ZN4core4iter6traits8iterator8Iterator3nth17h13932df98473483dE.llvm.294945388378908710, symObjAddr: 0xCEB0, symBinAddr: 0x43250, symSize: 0x0 }
  - { offsetInCU: 0x3D7AF, offset: 0x9C546, size: 0x8, addend: 0x0, symName: __ZN4core4iter6traits8iterator8Iterator3nth17h15eb096b77be0964E.llvm.294945388378908710, symObjAddr: 0xCF30, symBinAddr: 0x432D0, symSize: 0x0 }
  - { offsetInCU: 0x3DD78, offset: 0x9CB0F, size: 0x8, addend: 0x0, symName: __ZN4core4iter6traits8iterator8Iterator9size_hint17h5baf86faef86f500E.llvm.294945388378908710, symObjAddr: 0xD230, symBinAddr: 0x43350, symSize: 0x0 }
  - { offsetInCU: 0x3DE9E, offset: 0x9CC35, size: 0x8, addend: 0x0, symName: __ZN4core4iter6traits10exact_size17ExactSizeIterator8is_empty17h13b203346b02410dE.llvm.294945388378908710, symObjAddr: 0xC020, symBinAddr: 0x42C60, symSize: 0x0 }
  - { offsetInCU: 0x3E046, offset: 0x9CDDD, size: 0x8, addend: 0x0, symName: __ZN4core4iter6traits10exact_size17ExactSizeIterator8is_empty17h1fb8129b865cb783E.llvm.294945388378908710, symObjAddr: 0xC0B0, symBinAddr: 0x42C90, symSize: 0x0 }
  - { offsetInCU: 0x3E1EE, offset: 0x9CF85, size: 0x8, addend: 0x0, symName: __ZN4core4iter6traits10exact_size17ExactSizeIterator8is_empty17h7df0e3127eb991deE.llvm.294945388378908710, symObjAddr: 0xC0E0, symBinAddr: 0x42CC0, symSize: 0x0 }
  - { offsetInCU: 0x3E33C, offset: 0x9D0D3, size: 0x8, addend: 0x0, symName: __ZN4core4iter6traits12double_ended19DoubleEndedIterator15advance_back_by17h1f845a9e75fd1a24E.llvm.294945388378908710, symObjAddr: 0xC160, symBinAddr: 0x42CF0, symSize: 0x0 }
  - { offsetInCU: 0x3E56D, offset: 0x9D304, size: 0x8, addend: 0x0, symName: __ZN4core4iter6traits12double_ended19DoubleEndedIterator15advance_back_by17h754851ac08fc8811E.llvm.294945388378908710, symObjAddr: 0xC340, symBinAddr: 0x42D70, symSize: 0x0 }
  - { offsetInCU: 0x3E771, offset: 0x9D508, size: 0x8, addend: 0x0, symName: __ZN4core4iter6traits12double_ended19DoubleEndedIterator15advance_back_by17h89a26be957be684fE.llvm.294945388378908710, symObjAddr: 0xC440, symBinAddr: 0x42DF0, symSize: 0x0 }
  - { offsetInCU: 0x3E9EE, offset: 0x9D785, size: 0x8, addend: 0x0, symName: __ZN4core4iter6traits12double_ended19DoubleEndedIterator8nth_back17h0e5d4fc86e89649dE.llvm.294945388378908710, symObjAddr: 0xC540, symBinAddr: 0x42E70, symSize: 0x0 }
  - { offsetInCU: 0x3EEE7, offset: 0x9DC7E, size: 0x8, addend: 0x0, symName: __ZN4core4iter6traits12double_ended19DoubleEndedIterator8nth_back17h29465106624a15d3E.llvm.294945388378908710, symObjAddr: 0xC6A0, symBinAddr: 0x42F20, symSize: 0x0 }
  - { offsetInCU: 0x3F3E0, offset: 0x9E177, size: 0x8, addend: 0x0, symName: __ZN4core4iter6traits12double_ended19DoubleEndedIterator8nth_back17h8b9c8b2976f40100E.llvm.294945388378908710, symObjAddr: 0xC8B0, symBinAddr: 0x42FD0, symSize: 0x0 }
  - { offsetInCU: 0x40A5A, offset: 0x9F7F1, size: 0x8, addend: 0x0, symName: _anon.9b213cc2824816df2be2be64c70dbef9.16.llvm.294945388378908710, symObjAddr: 0xF100, symBinAddr: 0x34C738, symSize: 0x0 }
  - { offsetInCU: 0x40B6E, offset: 0x9F905, size: 0x8, addend: 0x0, symName: _anon.9b213cc2824816df2be2be64c70dbef9.25.llvm.294945388378908710, symObjAddr: 0xF430, symBinAddr: 0x34C848, symSize: 0x0 }
  - { offsetInCU: 0x4372D, offset: 0xA24C4, size: 0x8, addend: 0x0, symName: '__ZN3syn10punctuated23Punctuated$LT$T$C$P$GT$10push_punct17h5c705513c8965106E', symObjAddr: 0x2370, symBinAddr: 0x398B0, symSize: 0xF0 }
  - { offsetInCU: 0x43B19, offset: 0xA28B0, size: 0x8, addend: 0x0, symName: '__ZN3syn10punctuated23Punctuated$LT$T$C$P$GT$10push_punct17h602906856989973aE.llvm.294945388378908710', symObjAddr: 0x2460, symBinAddr: 0x399A0, symSize: 0x120 }
  - { offsetInCU: 0x43ED1, offset: 0xA2C68, size: 0x8, addend: 0x0, symName: '__ZN3syn10punctuated23Punctuated$LT$T$C$P$GT$10push_value17h013f7fd19927204cE', symObjAddr: 0x2580, symBinAddr: 0x39AC0, symSize: 0xF0 }
  - { offsetInCU: 0x44135, offset: 0xA2ECC, size: 0x8, addend: 0x0, symName: '__ZN3syn10punctuated23Punctuated$LT$T$C$P$GT$10push_value17h9bc605e453de3897E.llvm.294945388378908710', symObjAddr: 0x2670, symBinAddr: 0x39BB0, symSize: 0x110 }
  - { offsetInCU: 0x4499A, offset: 0xA3731, size: 0x8, addend: 0x0, symName: '__ZN3syn10punctuated23Punctuated$LT$T$C$P$GT$4push17h97f3d751b7c490ecE', symObjAddr: 0x2B40, symBinAddr: 0x39CC0, symSize: 0x1F0 }
  - { offsetInCU: 0x44EEB, offset: 0xA3C82, size: 0x8, addend: 0x0, symName: '__ZN3syn10punctuated23Punctuated$LT$T$C$P$GT$4push17hb2f56a5f4ece6ef8E', symObjAddr: 0x2D30, symBinAddr: 0x39EB0, symSize: 0x50 }
  - { offsetInCU: 0x45151, offset: 0xA3EE8, size: 0x8, addend: 0x0, symName: '__ZN3syn10punctuated23Punctuated$LT$T$C$P$GT$4push17hc17cba23f186854dE.llvm.294945388378908710', symObjAddr: 0x2E00, symBinAddr: 0x39F00, symSize: 0x200 }
  - { offsetInCU: 0x45935, offset: 0xA46CC, size: 0x8, addend: 0x0, symName: '__ZN3syn10punctuated23Punctuated$LT$T$C$P$GT$4push17hc827fb2276085af7E', symObjAddr: 0x3000, symBinAddr: 0x3A100, symSize: 0x210 }
  - { offsetInCU: 0x1E, offset: 0xAAC87, size: 0x8, addend: 0x0, symName: '__ZN45_$LT$$LP$$RP$$u20$as$u20$core..fmt..Debug$GT$3fmt17hfe9fa5b9b74f0d99E', symObjAddr: 0x0, symBinAddr: 0x43520, symSize: 0x20 }
  - { offsetInCU: 0x205, offset: 0xAAE6E, size: 0x8, addend: 0x0, symName: '__ZN58_$LT$alloc..string..String$u20$as$u20$core..fmt..Write$GT$10write_char17hd329c0cb943f081aE', symObjAddr: 0x9800, symBinAddr: 0x4CCE0, symSize: 0x130 }
  - { offsetInCU: 0x5AC, offset: 0xAB215, size: 0x8, addend: 0x0, symName: '__ZN58_$LT$alloc..string..String$u20$as$u20$core..fmt..Write$GT$9write_str17h1ff5aa96ca91c6d5E', symObjAddr: 0x9930, symBinAddr: 0x4CE10, symSize: 0x60 }
  - { offsetInCU: 0x7EA, offset: 0xAB453, size: 0x8, addend: 0x0, symName: '__ZN60_$LT$alloc..string..String$u20$as$u20$core..fmt..Display$GT$3fmt17hc365578c40090489E', symObjAddr: 0x9990, symBinAddr: 0x4CE70, symSize: 0x20 }
  - { offsetInCU: 0x44C5, offset: 0xAF12E, size: 0x8, addend: 0x0, symName: '__ZN4core3ptr100drop_in_place$LT$core..option..Option$LT$alloc..boxed..Box$LT$syn..path..GenericArgument$GT$$GT$$GT$17h91f76f7535c0ef94E', symObjAddr: 0x16B0, symBinAddr: 0x44B90, symSize: 0x50 }
  - { offsetInCU: 0x47E9, offset: 0xAF452, size: 0x8, addend: 0x0, symName: '__ZN4core3ptr100drop_in_place$LT$syn..punctuated..Punctuated$LT$syn..path..PathSegment$C$syn..token..PathSep$GT$$GT$17h8967d620e5262808E', symObjAddr: 0x1700, symBinAddr: 0x44BE0, symSize: 0x260 }
  - { offsetInCU: 0x51A1, offset: 0xAFE0A, size: 0x8, addend: 0x0, symName: '__ZN4core3ptr101drop_in_place$LT$core..option..Option$LT$alloc..vec..Vec$LT$syn..generics..WherePredicate$GT$$GT$$GT$17hfc4d4b0edb7e476fE', symObjAddr: 0x1960, symBinAddr: 0x44E40, symSize: 0xE0 }
  - { offsetInCU: 0x540E, offset: 0xB0077, size: 0x8, addend: 0x0, symName: '__ZN4core3ptr103drop_in_place$LT$core..option..Option$LT$alloc..boxed..Box$LT$syn..generics..TypeParamBound$GT$$GT$$GT$17h044206982686810cE', symObjAddr: 0x1A40, symBinAddr: 0x44F20, symSize: 0x50 }
  - { offsetInCU: 0x5659, offset: 0xB02C2, size: 0x8, addend: 0x0, symName: '__ZN4core3ptr103drop_in_place$LT$core..option..Option$LT$alloc..boxed..Box$LT$syn..generics..WherePredicate$GT$$GT$$GT$17hdb4f3c209e2b962bE', symObjAddr: 0x1A90, symBinAddr: 0x44F70, symSize: 0xD0 }
  - { offsetInCU: 0x59EC, offset: 0xB0655, size: 0x8, addend: 0x0, symName: '__ZN4core3ptr103drop_in_place$LT$syn..punctuated..Punctuated$LT$syn..generics..GenericParam$C$syn..token..Comma$GT$$GT$17h28897b64a12579c2E', symObjAddr: 0x1B60, symBinAddr: 0x45040, symSize: 0xF0 }
  - { offsetInCU: 0x5E71, offset: 0xB0ADA, size: 0x8, addend: 0x0, symName: '__ZN4core3ptr104drop_in_place$LT$syn..punctuated..Punctuated$LT$syn..generics..TypeParamBound$C$syn..token..Plus$GT$$GT$17h8a3e2526f1805111E', symObjAddr: 0x1C50, symBinAddr: 0x45130, symSize: 0x230 }
  - { offsetInCU: 0x6711, offset: 0xB137A, size: 0x8, addend: 0x0, symName: '__ZN4core3ptr116drop_in_place$LT$core..cell..RefCell$LT$core..option..Option$LT$alloc..vec..Vec$LT$syn..error..Error$GT$$GT$$GT$$GT$17h3001d88d1ea8a791E', symObjAddr: 0x1E80, symBinAddr: 0x45360, symSize: 0x110 }
  - { offsetInCU: 0x6AFD, offset: 0xB1766, size: 0x8, addend: 0x0, symName: '__ZN4core3ptr29drop_in_place$LT$$LP$$RP$$GT$17h8c5c6bfc84894575E', symObjAddr: 0x1F90, symBinAddr: 0x45470, symSize: 0x10 }
  - { offsetInCU: 0x6B86, offset: 0xB17EF, size: 0x8, addend: 0x0, symName: '__ZN4core3ptr34drop_in_place$LT$syn..lit..Lit$GT$17h909e98f6870548d6E', symObjAddr: 0x1FA0, symBinAddr: 0x45480, symSize: 0x110 }
  - { offsetInCU: 0x70C0, offset: 0xB1D29, size: 0x8, addend: 0x0, symName: '__ZN4core3ptr34drop_in_place$LT$syn..pat..Pat$GT$17h8fcd4c90be46a62aE', symObjAddr: 0x20B0, symBinAddr: 0x45590, symSize: 0x1000 }
  - { offsetInCU: 0xABE5, offset: 0xB584E, size: 0x8, addend: 0x0, symName: '__ZN4core3ptr34drop_in_place$LT$syn..ty..Type$GT$17h774a0ab6b4cf283eE', symObjAddr: 0x30B0, symBinAddr: 0x46590, symSize: 0x4F0 }
  - { offsetInCU: 0xC111, offset: 0xB6D7A, size: 0x8, addend: 0x0, symName: '__ZN4core3ptr36drop_in_place$LT$syn..expr..Expr$GT$17h7fd8f0d642db296eE', symObjAddr: 0x35A0, symBinAddr: 0x46A80, symSize: 0x28E0 }
  - { offsetInCU: 0x155A3, offset: 0xC020C, size: 0x8, addend: 0x0, symName: '__ZN4core3ptr36drop_in_place$LT$syn..mac..Macro$GT$17hc8e4594548e1fb74E', symObjAddr: 0x5E80, symBinAddr: 0x49360, symSize: 0x40 }
  - { offsetInCU: 0x155DD, offset: 0xC0246, size: 0x8, addend: 0x0, symName: '__ZN4core3ptr36drop_in_place$LT$syn..path..Path$GT$17hae91be932b20df1dE', symObjAddr: 0x5EC0, symBinAddr: 0x493A0, symSize: 0x220 }
  - { offsetInCU: 0x15F12, offset: 0xC0B7B, size: 0x8, addend: 0x0, symName: '__ZN4core3ptr37drop_in_place$LT$syn..stmt..Block$GT$17hba4e7ddf28617bfdE', symObjAddr: 0x60E0, symBinAddr: 0x495C0, symSize: 0xD0 }
  - { offsetInCU: 0x161B6, offset: 0xC0E1F, size: 0x8, addend: 0x0, symName: '__ZN4core3ptr38drop_in_place$LT$syn..expr..Member$GT$17ha7c2806ee150b6f6E', symObjAddr: 0x61B0, symBinAddr: 0x49690, symSize: 0x30 }
  - { offsetInCU: 0x162B3, offset: 0xC0F1C, size: 0x8, addend: 0x0, symName: '__ZN4core3ptr39drop_in_place$LT$proc_macro2..Ident$GT$17h8dfea26593c17b61E', symObjAddr: 0x61E0, symBinAddr: 0x496C0, symSize: 0x30 }
  - { offsetInCU: 0x16391, offset: 0xC0FFA, size: 0x8, addend: 0x0, symName: '__ZN4core3ptr40drop_in_place$LT$syn..ty..ReturnType$GT$17h3c2856ff70e83fa7E', symObjAddr: 0x6210, symBinAddr: 0x496F0, symSize: 0x50 }
  - { offsetInCU: 0x16503, offset: 0xC116C, size: 0x8, addend: 0x0, symName: '__ZN4core3ptr41drop_in_place$LT$syn..expr..ExprConst$GT$17h3f369735cc377020E', symObjAddr: 0x6260, symBinAddr: 0x49740, symSize: 0x180 }
  - { offsetInCU: 0x16A58, offset: 0xC16C1, size: 0x8, addend: 0x0, symName: '__ZN4core3ptr42drop_in_place$LT$alloc..string..String$GT$17h5212a25f3591ed4cE', symObjAddr: 0x63E0, symBinAddr: 0x498C0, symSize: 0x20 }
  - { offsetInCU: 0x16B61, offset: 0xC17CA, size: 0x8, addend: 0x0, symName: '__ZN4core3ptr44drop_in_place$LT$syn..generics..Generics$GT$17h7c53fa45071f0fc1E', symObjAddr: 0x6400, symBinAddr: 0x498E0, symSize: 0x40 }
  - { offsetInCU: 0x16B7E, offset: 0xC17E7, size: 0x8, addend: 0x0, symName: '__ZN4core3ptr44drop_in_place$LT$syn..lifetime..Lifetime$GT$17h263f9508be5fff98E', symObjAddr: 0x6440, symBinAddr: 0x49920, symSize: 0x30 }
  - { offsetInCU: 0x16DB1, offset: 0xC1A1A, size: 0x8, addend: 0x0, symName: '__ZN4core3ptr45drop_in_place$LT$proc_macro2..TokenStream$GT$17hcbbbd6ac69a3e46cE', symObjAddr: 0x6470, symBinAddr: 0x49950, symSize: 0x140 }
  - { offsetInCU: 0x17220, offset: 0xC1E89, size: 0x8, addend: 0x0, symName: '__ZN4core3ptr45drop_in_place$LT$syn..generics..TypeParam$GT$17h3f489d24bf2868acE', symObjAddr: 0x65B0, symBinAddr: 0x49A90, symSize: 0x230 }
  - { offsetInCU: 0x17A1C, offset: 0xC2685, size: 0x8, addend: 0x0, symName: '__ZN4core3ptr46drop_in_place$LT$syn..generics..ConstParam$GT$17hb82cf1b5639462f6E', symObjAddr: 0x67E0, symBinAddr: 0x49CC0, symSize: 0x150 }
  - { offsetInCU: 0x17E46, offset: 0xC2AAF, size: 0x8, addend: 0x0, symName: '__ZN4core3ptr47drop_in_place$LT$syn..path..GenericArgument$GT$17ha4d1e2427b5b79f7E', symObjAddr: 0x6930, symBinAddr: 0x49E10, symSize: 0x4A0 }
  - { offsetInCU: 0x18EED, offset: 0xC3B56, size: 0x8, addend: 0x0, symName: '__ZN4core3ptr49drop_in_place$LT$syn..generics..LifetimeParam$GT$17h54e59d96d3078601E', symObjAddr: 0x6DD0, symBinAddr: 0x4A2B0, symSize: 0xF0 }
  - { offsetInCU: 0x192C6, offset: 0xC3F2F, size: 0x8, addend: 0x0, symName: '__ZN4core3ptr50drop_in_place$LT$serde_derive..ser..Parameters$GT$17h19ce513a98478722E', symObjAddr: 0x6EC0, symBinAddr: 0x4A3A0, symSize: 0xA0 }
  - { offsetInCU: 0x193F7, offset: 0xC4060, size: 0x8, addend: 0x0, symName: '__ZN4core3ptr50drop_in_place$LT$syn..generics..TypeParamBound$GT$17h3bdcf102e80fe526E', symObjAddr: 0x6F60, symBinAddr: 0x4A440, symSize: 0xA0 }
  - { offsetInCU: 0x195DA, offset: 0xC4243, size: 0x8, addend: 0x0, symName: '__ZN4core3ptr55drop_in_place$LT$serde_derive..internals..ast..Data$GT$17h87a31a1d27ef916eE', symObjAddr: 0x7000, symBinAddr: 0x4A4E0, symSize: 0x120 }
  - { offsetInCU: 0x19A9F, offset: 0xC4708, size: 0x8, addend: 0x0, symName: '__ZN4core3ptr56drop_in_place$LT$serde_derive..internals..ctxt..Ctxt$GT$17h0e1171f496fa1fb9E', symObjAddr: 0x7120, symBinAddr: 0x4A600, symSize: 0x180 }
  - { offsetInCU: 0x1A015, offset: 0xC4C7E, size: 0x8, addend: 0x0, symName: '__ZN4core3ptr58drop_in_place$LT$alloc..vec..Vec$LT$syn..expr..Arm$GT$$GT$17h2816916be2f2c677E', symObjAddr: 0x72A0, symBinAddr: 0x4A780, symSize: 0xD0 }
  - { offsetInCU: 0x1A2A2, offset: 0xC4F0B, size: 0x8, addend: 0x0, symName: '__ZN4core3ptr59drop_in_place$LT$alloc..boxed..Box$LT$syn..pat..Pat$GT$$GT$17h97d5257714c9f93cE', symObjAddr: 0x7370, symBinAddr: 0x4A850, symSize: 0x50 }
  - { offsetInCU: 0x1A3FD, offset: 0xC5066, size: 0x8, addend: 0x0, symName: '__ZN4core3ptr59drop_in_place$LT$alloc..boxed..Box$LT$syn..ty..Type$GT$$GT$17h54564496a417dc0bE', symObjAddr: 0x73C0, symBinAddr: 0x4A8A0, symSize: 0x50 }
  - { offsetInCU: 0x1A558, offset: 0xC51C1, size: 0x8, addend: 0x0, symName: '__ZN4core3ptr59drop_in_place$LT$serde_derive..internals..attr..Default$GT$17h3852c3c51f509301E', symObjAddr: 0x7410, symBinAddr: 0x4A8F0, symSize: 0x150 }
  - { offsetInCU: 0x1AA49, offset: 0xC56B2, size: 0x8, addend: 0x0, symName: '__ZN4core3ptr59drop_in_place$LT$serde_derive..internals..attr..TagType$GT$17h8ebcadab1e08c727E', symObjAddr: 0x7560, symBinAddr: 0x4AA40, symSize: 0x70 }
  - { offsetInCU: 0x1AC31, offset: 0xC589A, size: 0x8, addend: 0x0, symName: '__ZN4core3ptr60drop_in_place$LT$serde_derive..internals..ast..Container$GT$17he6f2acf5c0d548e8E', symObjAddr: 0x75D0, symBinAddr: 0x4AAB0, symSize: 0x70 }
  - { offsetInCU: 0x1AD30, offset: 0xC5999, size: 0x8, addend: 0x0, symName: '__ZN4core3ptr61drop_in_place$LT$alloc..boxed..Box$LT$syn..expr..Expr$GT$$GT$17hcb812af949707350E', symObjAddr: 0x7640, symBinAddr: 0x4AB20, symSize: 0x50 }
  - { offsetInCU: 0x1AEAA, offset: 0xC5B13, size: 0x8, addend: 0x0, symName: '__ZN4core3ptr61drop_in_place$LT$alloc..vec..Vec$LT$syn..expr..Member$GT$$GT$17ha9ed360b984b23b9E', symObjAddr: 0x7690, symBinAddr: 0x4AB70, symSize: 0x80 }
  - { offsetInCU: 0x1B227, offset: 0xC5E90, size: 0x8, addend: 0x0, symName: '__ZN4core3ptr61drop_in_place$LT$serde_derive..internals..attr..Container$GT$17h29ecb40b305798b8E', symObjAddr: 0x7710, symBinAddr: 0x4ABF0, symSize: 0x450 }
  - { offsetInCU: 0x1C1A5, offset: 0xC6E0E, size: 0x8, addend: 0x0, symName: '__ZN4core3ptr61drop_in_place$LT$syn..path..ParenthesizedGenericArguments$GT$17h2cda518d73cfbc65E', symObjAddr: 0x7B60, symBinAddr: 0x4B040, symSize: 0x170 }
  - { offsetInCU: 0x1C76C, offset: 0xC73D5, size: 0x8, addend: 0x0, symName: '__ZN4core3ptr62drop_in_place$LT$syn..path..AngleBracketedGenericArguments$GT$17h532d3ccffb7c0f6eE', symObjAddr: 0x7CD0, symBinAddr: 0x4B1B0, symSize: 0x120 }
  - { offsetInCU: 0x1CB82, offset: 0xC77EB, size: 0x8, addend: 0x0, symName: '__ZN4core3ptr63drop_in_place$LT$alloc..boxed..Box$LT$syn..lit..LitRepr$GT$$GT$17h4f0b7f87f46ca722E', symObjAddr: 0x7DF0, symBinAddr: 0x4B2D0, symSize: 0x60 }
  - { offsetInCU: 0x1CE77, offset: 0xC7AE0, size: 0x8, addend: 0x0, symName: '__ZN4core3ptr64drop_in_place$LT$alloc..boxed..Box$LT$syn..pat..FieldPat$GT$$GT$17h24cd16a7bd79a0afE', symObjAddr: 0x7E50, symBinAddr: 0x4B330, symSize: 0x140 }
  - { offsetInCU: 0x1D522, offset: 0xC818B, size: 0x8, addend: 0x0, symName: '__ZN4core3ptr64drop_in_place$LT$alloc..boxed..Box$LT$syn..ty..BareFnArg$GT$$GT$17h8d6c5b973f90cb46E', symObjAddr: 0x7F90, symBinAddr: 0x4B470, symSize: 0x140 }
  - { offsetInCU: 0x1DA46, offset: 0xC86AF, size: 0x8, addend: 0x0, symName: '__ZN4core3ptr65drop_in_place$LT$core..option..Option$LT$syn..expr..Label$GT$$GT$17h49c37bc37ca5807aE', symObjAddr: 0x80D0, symBinAddr: 0x4B5B0, symSize: 0x30 }
  - { offsetInCU: 0x1DB81, offset: 0xC87EA, size: 0x8, addend: 0x0, symName: '__ZN4core3ptr66drop_in_place$LT$core..option..Option$LT$syn..pat..PatRest$GT$$GT$17ha0b10c3084c29dd7E', symObjAddr: 0x8100, symBinAddr: 0x4B5E0, symSize: 0xE0 }
  - { offsetInCU: 0x1DE05, offset: 0xC8A6E, size: 0x8, addend: 0x0, symName: '__ZN4core3ptr67drop_in_place$LT$alloc..boxed..Box$LT$syn..expr..FieldValue$GT$$GT$17h51140dec2dd742b5E', symObjAddr: 0x81E0, symBinAddr: 0x4B6C0, symSize: 0x140 }
  - { offsetInCU: 0x1E309, offset: 0xC8F72, size: 0x8, addend: 0x0, symName: '__ZN4core3ptr68drop_in_place$LT$alloc..boxed..Box$LT$syn..path..PathSegment$GT$$GT$17h6663076be8cb9e8fE', symObjAddr: 0x8320, symBinAddr: 0x4B800, symSize: 0x190 }
  - { offsetInCU: 0x1E9E7, offset: 0xC9650, size: 0x8, addend: 0x0, symName: '__ZN4core3ptr68drop_in_place$LT$alloc..vec..Vec$LT$proc_macro2..TokenStream$GT$$GT$17hc0cc7efc9619ba65E', symObjAddr: 0x84B0, symBinAddr: 0x4B990, symSize: 0xC0 }
  - { offsetInCU: 0x1EC93, offset: 0xC98FC, size: 0x8, addend: 0x0, symName: '__ZN4core3ptr70drop_in_place$LT$core..option..Option$LT$syn..ty..BareVariadic$GT$$GT$17h006e7519360f59bbE', symObjAddr: 0x8570, symBinAddr: 0x4BA50, symSize: 0x120 }
  - { offsetInCU: 0x1F1C0, offset: 0xC9E29, size: 0x8, addend: 0x0, symName: '__ZN4core3ptr72drop_in_place$LT$alloc..boxed..Box$LT$syn..path..GenericArgument$GT$$GT$17h9e43a058d82d49aaE', symObjAddr: 0x8690, symBinAddr: 0x4BB70, symSize: 0x2B0 }
  - { offsetInCU: 0x1FB4B, offset: 0xCA7B4, size: 0x8, addend: 0x0, symName: '__ZN4core3ptr72drop_in_place$LT$core..option..Option$LT$syn..lifetime..Lifetime$GT$$GT$17h2cbddfd17a7fb6a0E', symObjAddr: 0x8940, symBinAddr: 0x4BE20, symSize: 0x30 }
  - { offsetInCU: 0x1FC67, offset: 0xCA8D0, size: 0x8, addend: 0x0, symName: '__ZN4core3ptr73drop_in_place$LT$alloc..boxed..Box$LT$syn..generics..GenericParam$GT$$GT$17hdf8f6b3d2d504eeeE', symObjAddr: 0x8970, symBinAddr: 0x4BE50, symSize: 0x80 }
  - { offsetInCU: 0x1FDDF, offset: 0xCAA48, size: 0x8, addend: 0x0, symName: '__ZN4core3ptr75drop_in_place$LT$alloc..boxed..Box$LT$syn..generics..TypeParamBound$GT$$GT$17he16e1f4f3b231893E', symObjAddr: 0x89F0, symBinAddr: 0x4BED0, symSize: 0x160 }
  - { offsetInCU: 0x203C4, offset: 0xCB02D, size: 0x8, addend: 0x0, symName: '__ZN4core3ptr75drop_in_place$LT$core..option..Option$LT$syn..generics..WhereClause$GT$$GT$17h4809634bfa029adcE', symObjAddr: 0x8B50, symBinAddr: 0x4C030, symSize: 0x100 }
  - { offsetInCU: 0x206DC, offset: 0xCB345, size: 0x8, addend: 0x0, symName: '__ZN4core3ptr86drop_in_place$LT$syn..punctuated..Punctuated$LT$syn..pat..Pat$C$syn..token..Or$GT$$GT$17h449b7e6b5537b210E', symObjAddr: 0x8C50, symBinAddr: 0x4C130, symSize: 0x120 }
  - { offsetInCU: 0x20B22, offset: 0xCB78B, size: 0x8, addend: 0x0, symName: '__ZN4core3ptr87drop_in_place$LT$core..option..Option$LT$alloc..boxed..Box$LT$syn..pat..Pat$GT$$GT$$GT$17hbff747ffa5f39bd3E', symObjAddr: 0x8D70, symBinAddr: 0x4C250, symSize: 0x50 }
  - { offsetInCU: 0x20C94, offset: 0xCB8FD, size: 0x8, addend: 0x0, symName: '__ZN4core3ptr87drop_in_place$LT$core..option..Option$LT$alloc..boxed..Box$LT$syn..ty..Type$GT$$GT$$GT$17hd404efde6702ff0dE', symObjAddr: 0x8DC0, symBinAddr: 0x4C2A0, symSize: 0x50 }
  - { offsetInCU: 0x20E06, offset: 0xCBA6F, size: 0x8, addend: 0x0, symName: '__ZN4core3ptr89drop_in_place$LT$core..option..Option$LT$alloc..boxed..Box$LT$syn..expr..Expr$GT$$GT$$GT$17h981df8604670027bE', symObjAddr: 0x8E10, symBinAddr: 0x4C2F0, symSize: 0x50 }
  - { offsetInCU: 0x20FB6, offset: 0xCBC1F, size: 0x8, addend: 0x0, symName: '__ZN4core3ptr89drop_in_place$LT$syn..punctuated..Punctuated$LT$syn..pat..Pat$C$syn..token..Comma$GT$$GT$17h8165fd7eb02b8118E', symObjAddr: 0x8E60, symBinAddr: 0x4C340, symSize: 0x120 }
  - { offsetInCU: 0x21413, offset: 0xCC07C, size: 0x8, addend: 0x0, symName: '__ZN4core3ptr89drop_in_place$LT$syn..punctuated..Punctuated$LT$syn..ty..Type$C$syn..token..Comma$GT$$GT$17h23a774170e770b9aE', symObjAddr: 0x8F80, symBinAddr: 0x4C460, symSize: 0x120 }
  - { offsetInCU: 0x2185D, offset: 0xCC4C6, size: 0x8, addend: 0x0, symName: '__ZN4core3ptr90drop_in_place$LT$core..option..Option$LT$syn..path..AngleBracketedGenericArguments$GT$$GT$17h28a1c7f1e00311d1E', symObjAddr: 0x90A0, symBinAddr: 0x4C580, symSize: 0x130 }
  - { offsetInCU: 0x21CC8, offset: 0xCC931, size: 0x8, addend: 0x0, symName: '__ZN4core3ptr91drop_in_place$LT$syn..punctuated..Punctuated$LT$syn..expr..Expr$C$syn..token..Comma$GT$$GT$17ha27fe7b672ce38bdE', symObjAddr: 0x91D0, symBinAddr: 0x4C6B0, symSize: 0x120 }
  - { offsetInCU: 0x22125, offset: 0xCCD8E, size: 0x8, addend: 0x0, symName: '__ZN4core3ptr94drop_in_place$LT$syn..punctuated..Punctuated$LT$syn..pat..FieldPat$C$syn..token..Comma$GT$$GT$17hd9ad3a9ff53c2a49E', symObjAddr: 0x92F0, symBinAddr: 0x4C7D0, symSize: 0xF0 }
  - { offsetInCU: 0x223EF, offset: 0xCD058, size: 0x8, addend: 0x0, symName: '__ZN4core3ptr94drop_in_place$LT$syn..punctuated..Punctuated$LT$syn..ty..BareFnArg$C$syn..token..Comma$GT$$GT$17h3ad0ecbb9acc3d94E', symObjAddr: 0x93E0, symBinAddr: 0x4C8C0, symSize: 0xF0 }
  - { offsetInCU: 0x226B9, offset: 0xCD322, size: 0x8, addend: 0x0, symName: '__ZN4core3ptr96drop_in_place$LT$core..option..Option$LT$alloc..boxed..Box$LT$syn..path..PathSegment$GT$$GT$$GT$17h15008b031e78f545E', symObjAddr: 0x94D0, symBinAddr: 0x4C9B0, symSize: 0x90 }
  - { offsetInCU: 0x2293B, offset: 0xCD5A4, size: 0x8, addend: 0x0, symName: '__ZN4core3ptr97drop_in_place$LT$syn..punctuated..Punctuated$LT$syn..expr..FieldValue$C$syn..token..Comma$GT$$GT$17h7dd72fd62fffe077E', symObjAddr: 0x9560, symBinAddr: 0x4CA40, symSize: 0xF0 }
  - { offsetInCU: 0x22C05, offset: 0xCD86E, size: 0x8, addend: 0x0, symName: '__ZN4core3ptr98drop_in_place$LT$alloc..vec..Vec$LT$$LP$syn..path..GenericArgument$C$syn..token..Comma$RP$$GT$$GT$17h5d136a881836b500E', symObjAddr: 0x9650, symBinAddr: 0x4CB30, symSize: 0xD0 }
  - { offsetInCU: 0x22F0E, offset: 0xCDB77, size: 0x8, addend: 0x0, symName: '__ZN4core3ptr98drop_in_place$LT$syn..punctuated..Punctuated$LT$syn..lifetime..Lifetime$C$syn..token..Plus$GT$$GT$17haf6d03c18957eb1aE', symObjAddr: 0x9720, symBinAddr: 0x4CC00, symSize: 0xC0 }
  - { offsetInCU: 0x23D0C, offset: 0xCE975, size: 0x8, addend: 0x0, symName: '__ZN45_$LT$$LP$$RP$$u20$as$u20$core..fmt..Debug$GT$3fmt17hfe9fa5b9b74f0d99E', symObjAddr: 0x0, symBinAddr: 0x43520, symSize: 0x20 }
  - { offsetInCU: 0x23DF1, offset: 0xCEA5A, size: 0x8, addend: 0x0, symName: '__ZN53_$LT$core..fmt..Error$u20$as$u20$core..fmt..Debug$GT$3fmt17h43ae5cec9623af13E', symObjAddr: 0x97E0, symBinAddr: 0x4CCC0, symSize: 0x20 }
  - { offsetInCU: 0x26A99, offset: 0xD1702, size: 0x8, addend: 0x0, symName: '__ZN4core3ops8function5impls80_$LT$impl$u20$core..ops..function..FnOnce$LT$A$GT$$u20$for$u20$$RF$mut$u20$F$GT$9call_once17h8e8dbc218db7ded5E', symObjAddr: 0x60, symBinAddr: 0x43540, symSize: 0xCF0 }
  - { offsetInCU: 0x26FBF, offset: 0xD1C28, size: 0x8, addend: 0x0, symName: '__ZN4core3ops8function5impls80_$LT$impl$u20$core..ops..function..FnOnce$LT$A$GT$$u20$for$u20$$RF$mut$u20$F$GT$9call_once17habcce46c3fee50dfE', symObjAddr: 0xD50, symBinAddr: 0x44230, symSize: 0x960 }
  - { offsetInCU: 0x2A923, offset: 0xD558C, size: 0x8, addend: 0x0, symName: __ZN12serde_derive3ser23expand_derive_serialize17hde60bb9c66cd6b96E, symObjAddr: 0x99B0, symBinAddr: 0x4CE90, symSize: 0x21F0 }
  - { offsetInCU: 0x2C392, offset: 0xD6FFB, size: 0x8, addend: 0x0, symName: __ZN12serde_derive3ser21needs_serialize_bound17h95b9e21523d676f9E, symObjAddr: 0xBCC0, symBinAddr: 0x4F1A0, symSize: 0x50 }
  - { offsetInCU: 0x2C4BE, offset: 0xD7127, size: 0x8, addend: 0x0, symName: __ZN12serde_derive3ser21serialize_unit_struct17hd77eb2b024492d6fE, symObjAddr: 0xBD10, symBinAddr: 0x4F1F0, symSize: 0x140 }
  - { offsetInCU: 0x2C55A, offset: 0xD71C3, size: 0x8, addend: 0x0, symName: __ZN12serde_derive3ser24serialize_newtype_struct17h85f178833137bcf1E, symObjAddr: 0xBE50, symBinAddr: 0x4F330, symSize: 0x360 }
  - { offsetInCU: 0x2CA1C, offset: 0xD7685, size: 0x8, addend: 0x0, symName: __ZN12serde_derive3ser22serialize_tuple_struct17hf127688e3aa19f5eE, symObjAddr: 0xC1B0, symBinAddr: 0x4F690, symSize: 0x790 }
  - { offsetInCU: 0x2D8E5, offset: 0xD854E, size: 0x8, addend: 0x0, symName: __ZN12serde_derive3ser16serialize_struct17h1d4123d3bf5470d2E, symObjAddr: 0xC940, symBinAddr: 0x4FE20, symSize: 0xDD0 }
  - { offsetInCU: 0x2E95B, offset: 0xD95C4, size: 0x8, addend: 0x0, symName: __ZN12serde_derive3ser26serialize_struct_tag_field17hf5bc5bdc148dfb13E, symObjAddr: 0xD710, symBinAddr: 0x50BF0, symSize: 0x1B0 }
  - { offsetInCU: 0x2EFF8, offset: 0xD9C61, size: 0x8, addend: 0x0, symName: __ZN12serde_derive3ser17serialize_variant17h92b35c50daddef16E, symObjAddr: 0xD8C0, symBinAddr: 0x50DA0, symSize: 0x2BA0 }
  - { offsetInCU: 0x31907, offset: 0xDC570, size: 0x8, addend: 0x0, symName: __ZN12serde_derive3ser35serialize_adjacently_tagged_variant17h93d870be65c4f1d3E, symObjAddr: 0x10460, symBinAddr: 0x53940, symSize: 0x2500 }
  - { offsetInCU: 0x33106, offset: 0xDDD6F, size: 0x8, addend: 0x0, symName: __ZN12serde_derive3ser23serialize_tuple_variant17hd03dc790672f9b1aE, symObjAddr: 0x12960, symBinAddr: 0x55E40, symSize: 0xA60 }
  - { offsetInCU: 0x343E0, offset: 0xDF049, size: 0x8, addend: 0x0, symName: __ZN12serde_derive3ser24serialize_struct_variant17h74aed81c115610dbE, symObjAddr: 0x133C0, symBinAddr: 0x568A0, symSize: 0x2950 }
  - { offsetInCU: 0x363C8, offset: 0xE1031, size: 0x8, addend: 0x0, symName: __ZN12serde_derive3ser25wrap_serialize_field_with17h3365e08978f5b316E, symObjAddr: 0x15D10, symBinAddr: 0x591F0, symSize: 0xC0 }
  - { offsetInCU: 0x364C1, offset: 0xE112A, size: 0x8, addend: 0x0, symName: __ZN12serde_derive3ser27wrap_serialize_variant_with17h2464b33ab63b1d9cE, symObjAddr: 0x15DD0, symBinAddr: 0x592B0, symSize: 0x220 }
  - { offsetInCU: 0x36DDB, offset: 0xE1A44, size: 0x8, addend: 0x0, symName: __ZN12serde_derive3ser19wrap_serialize_with17hbe2992a7cc319e66E, symObjAddr: 0x15FF0, symBinAddr: 0x594D0, symSize: 0xC10 }
  - { offsetInCU: 0x377B2, offset: 0xE241B, size: 0x8, addend: 0x0, symName: __ZN12serde_derive3ser10get_member17h0bf6a01a8947c3e4E, symObjAddr: 0x16C00, symBinAddr: 0x5A0E0, symSize: 0x650 }
  - { offsetInCU: 0x4069E, offset: 0xEB307, size: 0x8, addend: 0x0, symName: __ZN12serde_derive3ser10Parameters9type_name17h128052fe3715bbe3E, symObjAddr: 0xBBA0, symBinAddr: 0x4F080, symSize: 0x120 }
  - { offsetInCU: 0x42191, offset: 0xECDFA, size: 0x8, addend: 0x0, symName: __ZN12serde_derive3ser11StructTrait15serialize_field17h8b7187ba676fed54E, symObjAddr: 0x17250, symBinAddr: 0x5A730, symSize: 0x238 }
  - { offsetInCU: 0x1E, offset: 0xF3653, size: 0x8, addend: 0x0, symName: '__ZN111_$LT$alloc..vec..Vec$LT$T$GT$$u20$as$u20$alloc..vec..spec_from_iter_nested..SpecFromIterNested$LT$T$C$I$GT$$GT$9from_iter17heb990b8767a8affcE', symObjAddr: 0x0, symBinAddr: 0x5A970, symSize: 0x320 }
  - { offsetInCU: 0x1DAF, offset: 0xF53E4, size: 0x8, addend: 0x0, symName: '__ZN4core3ptr100drop_in_place$LT$core..option..Option$LT$alloc..boxed..Box$LT$syn..path..GenericArgument$GT$$GT$$GT$17h91f76f7535c0ef94E', symObjAddr: 0x320, symBinAddr: 0x5AC90, symSize: 0x50 }
  - { offsetInCU: 0x20F2, offset: 0xF5727, size: 0x8, addend: 0x0, symName: '__ZN4core3ptr100drop_in_place$LT$syn..punctuated..Punctuated$LT$syn..path..PathSegment$C$syn..token..PathSep$GT$$GT$17h8967d620e5262808E.llvm.9305960714585235817', symObjAddr: 0x370, symBinAddr: 0x5ACE0, symSize: 0x1A0 }
  - { offsetInCU: 0x2808, offset: 0xF5E3D, size: 0x8, addend: 0x0, symName: '__ZN4core3ptr101drop_in_place$LT$core..option..Option$LT$alloc..vec..Vec$LT$syn..generics..WherePredicate$GT$$GT$$GT$17hfc4d4b0edb7e476fE', symObjAddr: 0x510, symBinAddr: 0x5AE80, symSize: 0xE0 }
  - { offsetInCU: 0x2AD2, offset: 0xF6107, size: 0x8, addend: 0x0, symName: '__ZN4core3ptr102drop_in_place$LT$syn..punctuated..Punctuated$LT$syn..path..GenericArgument$C$syn..token..Comma$GT$$GT$17h7deada5365120e66E.llvm.9305960714585235817', symObjAddr: 0x5F0, symBinAddr: 0x5AF60, symSize: 0xF0 }
  - { offsetInCU: 0x2DBB, offset: 0xF63F0, size: 0x8, addend: 0x0, symName: '__ZN4core3ptr103drop_in_place$LT$core..option..Option$LT$alloc..boxed..Box$LT$syn..generics..TypeParamBound$GT$$GT$$GT$17h044206982686810cE', symObjAddr: 0x6E0, symBinAddr: 0x5B050, symSize: 0x50 }
  - { offsetInCU: 0x2F4C, offset: 0xF6581, size: 0x8, addend: 0x0, symName: '__ZN4core3ptr103drop_in_place$LT$core..option..Option$LT$alloc..boxed..Box$LT$syn..generics..WherePredicate$GT$$GT$$GT$17hdb4f3c209e2b962bE', symObjAddr: 0x730, symBinAddr: 0x5B0A0, symSize: 0x50 }
  - { offsetInCU: 0x3197, offset: 0xF67CC, size: 0x8, addend: 0x0, symName: '__ZN4core3ptr103drop_in_place$LT$syn..punctuated..Punctuated$LT$syn..generics..GenericParam$C$syn..token..Comma$GT$$GT$17h28897b64a12579c2E.llvm.9305960714585235817', symObjAddr: 0x780, symBinAddr: 0x5B0F0, symSize: 0x1A0 }
  - { offsetInCU: 0x3779, offset: 0xF6DAE, size: 0x8, addend: 0x0, symName: '__ZN4core3ptr104drop_in_place$LT$syn..punctuated..Punctuated$LT$syn..generics..TypeParamBound$C$syn..token..Plus$GT$$GT$17h8a3e2526f1805111E.llvm.9305960714585235817', symObjAddr: 0x920, symBinAddr: 0x5B290, symSize: 0x230 }
  - { offsetInCU: 0x406C, offset: 0xF76A1, size: 0x8, addend: 0x0, symName: '__ZN4core3ptr105drop_in_place$LT$syn..punctuated..Punctuated$LT$syn..generics..WherePredicate$C$syn..token..Comma$GT$$GT$17h109fa4272849e193E', symObjAddr: 0xB50, symBinAddr: 0x5B4C0, symSize: 0x120 }
  - { offsetInCU: 0x44F4, offset: 0xF7B29, size: 0x8, addend: 0x0, symName: '__ZN4core3ptr116drop_in_place$LT$core..option..Option$LT$$LP$syn..token..Else$C$alloc..boxed..Box$LT$syn..expr..Expr$GT$$RP$$GT$$GT$17h20f66473c9bde56aE', symObjAddr: 0xC70, symBinAddr: 0x5B5E0, symSize: 0x50 }
  - { offsetInCU: 0x46B2, offset: 0xF7CE7, size: 0x8, addend: 0x0, symName: '__ZN4core3ptr126drop_in_place$LT$core..option..Option$LT$$LP$syn..token..And$C$core..option..Option$LT$syn..lifetime..Lifetime$GT$$RP$$GT$$GT$17hd4f3069535aae2efE', symObjAddr: 0xCC0, symBinAddr: 0x5B630, symSize: 0x30 }
  - { offsetInCU: 0x4942, offset: 0xF7F77, size: 0x8, addend: 0x0, symName: '__ZN4core3ptr33drop_in_place$LT$syn..ty..Abi$GT$17h5d0e68d13453daacE', symObjAddr: 0xCF0, symBinAddr: 0x5B660, symSize: 0x60 }
  - { offsetInCU: 0x495E, offset: 0xF7F93, size: 0x8, addend: 0x0, symName: '__ZN4core3ptr33drop_in_place$LT$syn..ty..Abi$GT$17h5d0e68d13453daacE', symObjAddr: 0xCF0, symBinAddr: 0x5B660, symSize: 0x60 }
  - { offsetInCU: 0x4C58, offset: 0xF828D, size: 0x8, addend: 0x0, symName: '__ZN4core3ptr34drop_in_place$LT$syn..lit..Lit$GT$17h909e98f6870548d6E', symObjAddr: 0xD50, symBinAddr: 0x5B6C0, symSize: 0x110 }
  - { offsetInCU: 0x51D0, offset: 0xF8805, size: 0x8, addend: 0x0, symName: '__ZN4core3ptr34drop_in_place$LT$syn..pat..Pat$GT$17h8fcd4c90be46a62aE.llvm.9305960714585235817', symObjAddr: 0xE60, symBinAddr: 0x5B7D0, symSize: 0xF50 }
  - { offsetInCU: 0x8C6F, offset: 0xFC2A4, size: 0x8, addend: 0x0, symName: '__ZN4core3ptr34drop_in_place$LT$syn..ty..Type$GT$17h774a0ab6b4cf283eE.llvm.9305960714585235817', symObjAddr: 0x1DB0, symBinAddr: 0x5C720, symSize: 0x4E0 }
  - { offsetInCU: 0x9D38, offset: 0xFD36D, size: 0x8, addend: 0x0, symName: '__ZN4core3ptr35drop_in_place$LT$syn..expr..Arm$GT$17hb7fbb19ae27f924eE.llvm.9305960714585235817', symObjAddr: 0x2290, symBinAddr: 0x5CC00, symSize: 0x190 }
  - { offsetInCU: 0xA350, offset: 0xFD985, size: 0x8, addend: 0x0, symName: '__ZN4core3ptr36drop_in_place$LT$syn..attr..Meta$GT$17h20bd0a64b6d85f22E.llvm.9305960714585235817', symObjAddr: 0x2420, symBinAddr: 0x5CD90, symSize: 0x220 }
  - { offsetInCU: 0xAE8D, offset: 0xFE4C2, size: 0x8, addend: 0x0, symName: '__ZN4core3ptr36drop_in_place$LT$syn..expr..Expr$GT$17h7fd8f0d642db296eE.llvm.9305960714585235817', symObjAddr: 0x2640, symBinAddr: 0x5CFB0, symSize: 0x2830 }
  - { offsetInCU: 0x14E5D, offset: 0x108492, size: 0x8, addend: 0x0, symName: '__ZN4core3ptr36drop_in_place$LT$syn..item..Item$GT$17hdb2f318b9af93880E', symObjAddr: 0x4E70, symBinAddr: 0x5F7E0, symSize: 0x1960 }
  - { offsetInCU: 0x1A584, offset: 0x10DBB9, size: 0x8, addend: 0x0, symName: '__ZN4core3ptr36drop_in_place$LT$syn..mac..Macro$GT$17hc8e4594548e1fb74E', symObjAddr: 0x67D0, symBinAddr: 0x61140, symSize: 0xE0 }
  - { offsetInCU: 0x1A88E, offset: 0x10DEC3, size: 0x8, addend: 0x0, symName: '__ZN4core3ptr36drop_in_place$LT$syn..path..Path$GT$17hae91be932b20df1dE', symObjAddr: 0x68B0, symBinAddr: 0x61220, symSize: 0x150 }
  - { offsetInCU: 0x1AE1C, offset: 0x10E451, size: 0x8, addend: 0x0, symName: '__ZN4core3ptr36drop_in_place$LT$syn..stmt..Stmt$GT$17hb9c56bd3ff433567E.llvm.9305960714585235817', symObjAddr: 0x6A00, symBinAddr: 0x61370, symSize: 0x380 }
  - { offsetInCU: 0x1B9FB, offset: 0x10F030, size: 0x8, addend: 0x0, symName: '__ZN4core3ptr37drop_in_place$LT$syn..data..Field$GT$17h00a280dd8187eeedE.llvm.9305960714585235817', symObjAddr: 0x6D80, symBinAddr: 0x616F0, symSize: 0x180 }
  - { offsetInCU: 0x1BFC0, offset: 0x10F5F5, size: 0x8, addend: 0x0, symName: '__ZN4core3ptr37drop_in_place$LT$syn..item..FnArg$GT$17h9e69ef52958ba4cfE', symObjAddr: 0x6F00, symBinAddr: 0x61870, symSize: 0x230 }
  - { offsetInCU: 0x1C872, offset: 0x10FEA7, size: 0x8, addend: 0x0, symName: '__ZN4core3ptr37drop_in_place$LT$syn..stmt..Block$GT$17hba4e7ddf28617bfdE', symObjAddr: 0x7130, symBinAddr: 0x61AA0, symSize: 0xD0 }
  - { offsetInCU: 0x1CB16, offset: 0x11014B, size: 0x8, addend: 0x0, symName: '__ZN4core3ptr38drop_in_place$LT$syn..expr..Member$GT$17ha7c2806ee150b6f6E.llvm.9305960714585235817', symObjAddr: 0x7200, symBinAddr: 0x61B70, symSize: 0x30 }
  - { offsetInCU: 0x1CC13, offset: 0x110248, size: 0x8, addend: 0x0, symName: '__ZN4core3ptr38drop_in_place$LT$syn..pat..PatType$GT$17h0ccb07886e7e1d98E', symObjAddr: 0x7230, symBinAddr: 0x61BA0, symSize: 0x140 }
  - { offsetInCU: 0x1D18F, offset: 0x1107C4, size: 0x8, addend: 0x0, symName: '__ZN4core3ptr39drop_in_place$LT$proc_macro2..Ident$GT$17h8dfea26593c17b61E.llvm.9305960714585235817', symObjAddr: 0x7370, symBinAddr: 0x61CE0, symSize: 0x30 }
  - { offsetInCU: 0x1D2CA, offset: 0x1108FF, size: 0x8, addend: 0x0, symName: '__ZN4core3ptr39drop_in_place$LT$syn..data..Variant$GT$17hc63d18402d48e85bE.llvm.9305960714585235817', symObjAddr: 0x73A0, symBinAddr: 0x61D10, symSize: 0x2F0 }
  - { offsetInCU: 0x1DED8, offset: 0x11150D, size: 0x8, addend: 0x0, symName: '__ZN4core3ptr39drop_in_place$LT$syn..item..UseTree$GT$17hcbf894e5b02e5de6E', symObjAddr: 0x7690, symBinAddr: 0x62000, symSize: 0x1D0 }
  - { offsetInCU: 0x1E5D8, offset: 0x111C0D, size: 0x8, addend: 0x0, symName: '__ZN4core3ptr40drop_in_place$LT$syn..expr..ExprPath$GT$17h558f3eab01e13045E', symObjAddr: 0x7860, symBinAddr: 0x621D0, symSize: 0x110 }
  - { offsetInCU: 0x1EA35, offset: 0x11206A, size: 0x8, addend: 0x0, symName: '__ZN4core3ptr40drop_in_place$LT$syn..item..ImplItem$GT$17hb29c746d25df4ccaE', symObjAddr: 0x7970, symBinAddr: 0x622E0, symSize: 0x240 }
  - { offsetInCU: 0x1F030, offset: 0x112665, size: 0x8, addend: 0x0, symName: '__ZN4core3ptr40drop_in_place$LT$syn..item..Receiver$GT$17hd57637f2b2558a10E', symObjAddr: 0x7BB0, symBinAddr: 0x62520, symSize: 0x130 }
  - { offsetInCU: 0x1F603, offset: 0x112C38, size: 0x8, addend: 0x0, symName: '__ZN4core3ptr40drop_in_place$LT$syn..item..Variadic$GT$17h7ea87fb12112d4faE', symObjAddr: 0x7CE0, symBinAddr: 0x62650, symSize: 0x120 }
  - { offsetInCU: 0x1FA7A, offset: 0x1130AF, size: 0x8, addend: 0x0, symName: '__ZN4core3ptr40drop_in_place$LT$syn..ty..ReturnType$GT$17h3c2856ff70e83fa7E.llvm.9305960714585235817', symObjAddr: 0x7E00, symBinAddr: 0x62770, symSize: 0x50 }
  - { offsetInCU: 0x1FC0B, offset: 0x113240, size: 0x8, addend: 0x0, symName: '__ZN4core3ptr41drop_in_place$LT$syn..attr..Attribute$GT$17h2b2469ffe9393a92E.llvm.9305960714585235817', symObjAddr: 0x7E50, symBinAddr: 0x627C0, symSize: 0x160 }
  - { offsetInCU: 0x200B3, offset: 0x1136E8, size: 0x8, addend: 0x0, symName: '__ZN4core3ptr41drop_in_place$LT$syn..item..Signature$GT$17h8ea36e3530bbcbf6E', symObjAddr: 0x7FB0, symBinAddr: 0x62920, symSize: 0x280 }
  - { offsetInCU: 0x20BA2, offset: 0x1141D7, size: 0x8, addend: 0x0, symName: '__ZN4core3ptr41drop_in_place$LT$syn..item..TraitItem$GT$17hf30ca3f98a216d41E', symObjAddr: 0x8230, symBinAddr: 0x62BA0, symSize: 0x3E0 }
  - { offsetInCU: 0x216C8, offset: 0x114CFD, size: 0x8, addend: 0x0, symName: '__ZN4core3ptr42drop_in_place$LT$syn..item..ImplItemFn$GT$17hf12defc31cad34e2E', symObjAddr: 0x8610, symBinAddr: 0x62F80, symSize: 0x230 }
  - { offsetInCU: 0x21E23, offset: 0x115458, size: 0x8, addend: 0x0, symName: '__ZN4core3ptr42drop_in_place$LT$syn..path..Constraint$GT$17h7ecb0da53837f64dE', symObjAddr: 0x8840, symBinAddr: 0x631B0, symSize: 0x160 }
  - { offsetInCU: 0x224B9, offset: 0x115AEE, size: 0x8, addend: 0x0, symName: '__ZN4core3ptr43drop_in_place$LT$proc_macro2..TokenTree$GT$17h580b911abc7fb97bE.llvm.9305960714585235817', symObjAddr: 0x89A0, symBinAddr: 0x63310, symSize: 0xB0 }
  - { offsetInCU: 0x227CD, offset: 0x115E02, size: 0x8, addend: 0x0, symName: '__ZN4core3ptr43drop_in_place$LT$syn..data..FieldsNamed$GT$17h3670d48cf75bb9dcE', symObjAddr: 0x8A50, symBinAddr: 0x633C0, symSize: 0x120 }
  - { offsetInCU: 0x22C55, offset: 0x11628A, size: 0x8, addend: 0x0, symName: '__ZN4core3ptr43drop_in_place$LT$syn..item..ForeignItem$GT$17h2a147a9194704712E', symObjAddr: 0x8B70, symBinAddr: 0x634E0, symSize: 0x330 }
  - { offsetInCU: 0x235DC, offset: 0x116C11, size: 0x8, addend: 0x0, symName: '__ZN4core3ptr43drop_in_place$LT$syn..path..PathSegment$GT$17hca62e7ed1e037f21E.llvm.9305960714585235817', symObjAddr: 0x8EA0, symBinAddr: 0x63810, symSize: 0x170 }
  - { offsetInCU: 0x23B61, offset: 0x117196, size: 0x8, addend: 0x0, symName: '__ZN4core3ptr44drop_in_place$LT$syn..generics..Generics$GT$17h7c53fa45071f0fc1E', symObjAddr: 0x9010, symBinAddr: 0x63980, symSize: 0x150 }
  - { offsetInCU: 0x23FA2, offset: 0x1175D7, size: 0x8, addend: 0x0, symName: '__ZN4core3ptr44drop_in_place$LT$syn..item..ImplItemType$GT$17h6ba3b6bb276b72d9E', symObjAddr: 0x9160, symBinAddr: 0x63AD0, symSize: 0x1D0 }
  - { offsetInCU: 0x2458A, offset: 0x117BBF, size: 0x8, addend: 0x0, symName: '__ZN4core3ptr44drop_in_place$LT$syn..lifetime..Lifetime$GT$17h263f9508be5fff98E.llvm.9305960714585235817', symObjAddr: 0x9330, symBinAddr: 0x63CA0, symSize: 0x30 }
  - { offsetInCU: 0x246E4, offset: 0x117D19, size: 0x8, addend: 0x0, symName: '__ZN4core3ptr45drop_in_place$LT$proc_macro2..TokenStream$GT$17hcbbbd6ac69a3e46cE.llvm.9305960714585235817', symObjAddr: 0x9360, symBinAddr: 0x63CD0, symSize: 0x70 }
  - { offsetInCU: 0x2484B, offset: 0x117E80, size: 0x8, addend: 0x0, symName: '__ZN4core3ptr45drop_in_place$LT$syn..generics..TypeParam$GT$17h3f489d24bf2868acE.llvm.9305960714585235817', symObjAddr: 0x93D0, symBinAddr: 0x63D40, symSize: 0x230 }
  - { offsetInCU: 0x2505C, offset: 0x118691, size: 0x8, addend: 0x0, symName: '__ZN4core3ptr45drop_in_place$LT$syn..item..ImplItemConst$GT$17h72baaa90aab942f9E', symObjAddr: 0x9600, symBinAddr: 0x63F70, symSize: 0x200 }
  - { offsetInCU: 0x25682, offset: 0x118CB7, size: 0x8, addend: 0x0, symName: '__ZN4core3ptr45drop_in_place$LT$syn..item..TraitItemType$GT$17h2e40f147bb533766E', symObjAddr: 0x9800, symBinAddr: 0x64170, symSize: 0x290 }
  - { offsetInCU: 0x25F93, offset: 0x1195C8, size: 0x8, addend: 0x0, symName: '__ZN4core3ptr46drop_in_place$LT$syn..generics..ConstParam$GT$17hb82cf1b5639462f6E.llvm.9305960714585235817', symObjAddr: 0x9A90, symBinAddr: 0x64400, symSize: 0x150 }
  - { offsetInCU: 0x26360, offset: 0x119995, size: 0x8, addend: 0x0, symName: '__ZN4core3ptr46drop_in_place$LT$syn..item..TraitItemConst$GT$17h4ab3c9ff91a7a6bfE', symObjAddr: 0x9BE0, symBinAddr: 0x64550, symSize: 0x1A0 }
  - { offsetInCU: 0x26814, offset: 0x119E49, size: 0x8, addend: 0x0, symName: '__ZN4core3ptr47drop_in_place$LT$syn..generics..WhereClause$GT$17he6f931ad13183382E', symObjAddr: 0x9D80, symBinAddr: 0x646F0, symSize: 0x120 }
  - { offsetInCU: 0x26C5E, offset: 0x11A293, size: 0x8, addend: 0x0, symName: '__ZN4core3ptr47drop_in_place$LT$syn..item..ForeignItemType$GT$17hd2c33ee135497a1dE', symObjAddr: 0x9EA0, symBinAddr: 0x64810, symSize: 0x1A0 }
  - { offsetInCU: 0x272A3, offset: 0x11A8D8, size: 0x8, addend: 0x0, symName: '__ZN4core3ptr47drop_in_place$LT$syn..path..GenericArgument$GT$17ha4d1e2427b5b79f7E', symObjAddr: 0xA040, symBinAddr: 0x649B0, symSize: 0x1C0 }
  - { offsetInCU: 0x27737, offset: 0x11AD6C, size: 0x8, addend: 0x0, symName: '__ZN4core3ptr49drop_in_place$LT$syn..generics..LifetimeParam$GT$17h54e59d96d3078601E.llvm.9305960714585235817', symObjAddr: 0xA200, symBinAddr: 0x64B70, symSize: 0xF0 }
  - { offsetInCU: 0x27AF1, offset: 0x11B126, size: 0x8, addend: 0x0, symName: '__ZN4core3ptr49drop_in_place$LT$syn..item..ForeignItemStatic$GT$17h3eea91eef39f8024E', symObjAddr: 0xA2F0, symBinAddr: 0x64C60, symSize: 0x180 }
  - { offsetInCU: 0x281CA, offset: 0x11B7FF, size: 0x8, addend: 0x0, symName: '__ZN4core3ptr50drop_in_place$LT$$u5b$syn..item..ImplItem$u5d$$GT$17h8b15a4624553f9dcE', symObjAddr: 0xA470, symBinAddr: 0x64DE0, symSize: 0x230 }
  - { offsetInCU: 0x284F2, offset: 0x11BB27, size: 0x8, addend: 0x0, symName: '__ZN4core3ptr50drop_in_place$LT$syn..generics..TypeParamBound$GT$17h3bdcf102e80fe526E', symObjAddr: 0xA6A0, symBinAddr: 0x65010, symSize: 0xA0 }
  - { offsetInCU: 0x28697, offset: 0x11BCCC, size: 0x8, addend: 0x0, symName: '__ZN4core3ptr50drop_in_place$LT$syn..generics..WherePredicate$GT$17hb5b2f2697a9a6859E.llvm.9305960714585235817', symObjAddr: 0xA740, symBinAddr: 0x650B0, symSize: 0xA0 }
  - { offsetInCU: 0x28844, offset: 0x11BE79, size: 0x8, addend: 0x0, symName: '__ZN4core3ptr51drop_in_place$LT$$u5b$syn..item..TraitItem$u5d$$GT$17h3e2fd61b9fa7a41dE', symObjAddr: 0xA7E0, symBinAddr: 0x65150, symSize: 0x3F0 }
  - { offsetInCU: 0x2909C, offset: 0x11C6D1, size: 0x8, addend: 0x0, symName: '__ZN4core3ptr52drop_in_place$LT$syn..restriction..VisRestricted$GT$17h8df98db1d9b01f5dE', symObjAddr: 0xABD0, symBinAddr: 0x65540, symSize: 0x50 }
  - { offsetInCU: 0x29235, offset: 0x11C86A, size: 0x8, addend: 0x0, symName: '__ZN4core3ptr53drop_in_place$LT$$u5b$syn..item..ForeignItem$u5d$$GT$17h72153a0a66936669E', symObjAddr: 0xAC20, symBinAddr: 0x65590, symSize: 0x360 }
  - { offsetInCU: 0x29AAB, offset: 0x11D0E0, size: 0x8, addend: 0x0, symName: '__ZN4core3ptr57drop_in_place$LT$serde_derive..internals..attr..Field$GT$17h816f07872d6798eaE.llvm.9305960714585235817', symObjAddr: 0xAF80, symBinAddr: 0x658F0, symSize: 0x460 }
  - { offsetInCU: 0x2A922, offset: 0x11DF57, size: 0x8, addend: 0x0, symName: '__ZN4core3ptr58drop_in_place$LT$alloc..vec..Vec$LT$syn..expr..Arm$GT$$GT$17h2816916be2f2c677E', symObjAddr: 0xB3E0, symBinAddr: 0x65D50, symSize: 0xD0 }
  - { offsetInCU: 0x2ABED, offset: 0x11E222, size: 0x8, addend: 0x0, symName: '__ZN4core3ptr58drop_in_place$LT$serde_derive..internals..ast..Variant$GT$17he14d9e0370d26ed7E.llvm.9305960714585235817', symObjAddr: 0xB4B0, symBinAddr: 0x65E20, symSize: 0xD0 }
  - { offsetInCU: 0x2AEF2, offset: 0x11E527, size: 0x8, addend: 0x0, symName: '__ZN4core3ptr59drop_in_place$LT$alloc..boxed..Box$LT$syn..pat..Pat$GT$$GT$17h97d5257714c9f93cE.llvm.9305960714585235817', symObjAddr: 0xB580, symBinAddr: 0x65EF0, symSize: 0x50 }
  - { offsetInCU: 0x2B04D, offset: 0x11E682, size: 0x8, addend: 0x0, symName: '__ZN4core3ptr59drop_in_place$LT$alloc..boxed..Box$LT$syn..ty..Type$GT$$GT$17h54564496a417dc0bE', symObjAddr: 0xB5D0, symBinAddr: 0x65F40, symSize: 0x50 }
  - { offsetInCU: 0x2B1A8, offset: 0x11E7DD, size: 0x8, addend: 0x0, symName: '__ZN4core3ptr59drop_in_place$LT$alloc..vec..Vec$LT$syn..item..Item$GT$$GT$17ha544b2f170a7515dE', symObjAddr: 0xB620, symBinAddr: 0x65F90, symSize: 0xD0 }
  - { offsetInCU: 0x2B492, offset: 0x11EAC7, size: 0x8, addend: 0x0, symName: '__ZN4core3ptr59drop_in_place$LT$serde_derive..internals..attr..Variant$GT$17hb4e0fc52982de7e0E.llvm.9305960714585235817', symObjAddr: 0xB6F0, symBinAddr: 0x66060, symSize: 0x410 }
  - { offsetInCU: 0x2C302, offset: 0x11F937, size: 0x8, addend: 0x0, symName: '__ZN4core3ptr61drop_in_place$LT$alloc..boxed..Box$LT$syn..expr..Expr$GT$$GT$17hcb812af949707350E', symObjAddr: 0xBB00, symBinAddr: 0x66470, symSize: 0x50 }
  - { offsetInCU: 0x2C45D, offset: 0x11FA92, size: 0x8, addend: 0x0, symName: '__ZN4core3ptr61drop_in_place$LT$alloc..boxed..Box$LT$syn..path..Path$GT$$GT$17h8b25dc2e15d3d47dE', symObjAddr: 0xBB50, symBinAddr: 0x664C0, symSize: 0xF0 }
  - { offsetInCU: 0x2C943, offset: 0x11FF78, size: 0x8, addend: 0x0, symName: '__ZN4core3ptr61drop_in_place$LT$syn..path..ParenthesizedGenericArguments$GT$17h2cda518d73cfbc65E.llvm.9305960714585235817', symObjAddr: 0xBC40, symBinAddr: 0x665B0, symSize: 0x170 }
  - { offsetInCU: 0x2CF0A, offset: 0x12053F, size: 0x8, addend: 0x0, symName: '__ZN4core3ptr62drop_in_place$LT$alloc..boxed..Box$LT$syn..data..Field$GT$$GT$17h5d357aed49511044E', symObjAddr: 0xBDB0, symBinAddr: 0x66720, symSize: 0x50 }
  - { offsetInCU: 0x2D084, offset: 0x1206B9, size: 0x8, addend: 0x0, symName: '__ZN4core3ptr62drop_in_place$LT$alloc..boxed..Box$LT$syn..item..FnArg$GT$$GT$17h5b33d1445881b5fdE', symObjAddr: 0xBE00, symBinAddr: 0x66770, symSize: 0x60 }
  - { offsetInCU: 0x2D1FC, offset: 0x120831, size: 0x8, addend: 0x0, symName: '__ZN4core3ptr62drop_in_place$LT$alloc..boxed..Box$LT$syn..stmt..Block$GT$$GT$17hc38fe37de6dfc53bE', symObjAddr: 0xBE60, symBinAddr: 0x667D0, symSize: 0xE0 }
  - { offsetInCU: 0x2D5DD, offset: 0x120C12, size: 0x8, addend: 0x0, symName: '__ZN4core3ptr62drop_in_place$LT$syn..path..AngleBracketedGenericArguments$GT$17h532d3ccffb7c0f6eE.llvm.9305960714585235817', symObjAddr: 0xBF40, symBinAddr: 0x668B0, symSize: 0x120 }
  - { offsetInCU: 0x2DA27, offset: 0x12105C, size: 0x8, addend: 0x0, symName: '__ZN4core3ptr63drop_in_place$LT$alloc..vec..Vec$LT$syn..item..ImplItem$GT$$GT$17he0c00d71fd432640E', symObjAddr: 0xC060, symBinAddr: 0x669D0, symSize: 0x80 }
  - { offsetInCU: 0x2DCA5, offset: 0x1212DA, size: 0x8, addend: 0x0, symName: '__ZN4core3ptr64drop_in_place$LT$alloc..boxed..Box$LT$syn..data..Variant$GT$$GT$17hf06e172c0bf75584E', symObjAddr: 0xC0E0, symBinAddr: 0x66A50, symSize: 0x50 }
  - { offsetInCU: 0x2DE00, offset: 0x121435, size: 0x8, addend: 0x0, symName: '__ZN4core3ptr64drop_in_place$LT$alloc..boxed..Box$LT$syn..item..UseTree$GT$$GT$17h2b36db6e04749864E', symObjAddr: 0xC130, symBinAddr: 0x66AA0, symSize: 0x50 }
  - { offsetInCU: 0x2DF7A, offset: 0x1215AF, size: 0x8, addend: 0x0, symName: '__ZN4core3ptr64drop_in_place$LT$alloc..boxed..Box$LT$syn..pat..FieldPat$GT$$GT$17h24cd16a7bd79a0afE', symObjAddr: 0xC180, symBinAddr: 0x66AF0, symSize: 0x140 }
  - { offsetInCU: 0x2E61B, offset: 0x121C50, size: 0x8, addend: 0x0, symName: '__ZN4core3ptr64drop_in_place$LT$alloc..boxed..Box$LT$syn..ty..BareFnArg$GT$$GT$17h8d6c5b973f90cb46E', symObjAddr: 0xC2C0, symBinAddr: 0x66C30, symSize: 0x140 }
  - { offsetInCU: 0x2EB73, offset: 0x1221A8, size: 0x8, addend: 0x0, symName: '__ZN4core3ptr64drop_in_place$LT$alloc..vec..Vec$LT$syn..attr..Attribute$GT$$GT$17hbfa410c60a9e774aE', symObjAddr: 0xC400, symBinAddr: 0x66D70, symSize: 0xD0 }
  - { offsetInCU: 0x2EE34, offset: 0x122469, size: 0x8, addend: 0x0, symName: '__ZN4core3ptr64drop_in_place$LT$alloc..vec..Vec$LT$syn..item..TraitItem$GT$$GT$17h44749683055b2421E', symObjAddr: 0xC4D0, symBinAddr: 0x66E40, symSize: 0x80 }
  - { offsetInCU: 0x2F0B2, offset: 0x1226E7, size: 0x8, addend: 0x0, symName: '__ZN4core3ptr65drop_in_place$LT$$LP$syn..item..FnArg$C$syn..token..Comma$RP$$GT$17h3183b7d1aac3238bE', symObjAddr: 0xC550, symBinAddr: 0x66EC0, symSize: 0x20 }
  - { offsetInCU: 0x2F14B, offset: 0x122780, size: 0x8, addend: 0x0, symName: '__ZN4core3ptr65drop_in_place$LT$alloc..vec..Vec$LT$proc_macro..TokenTree$GT$$GT$17h93451572463d9702E.llvm.9305960714585235817', symObjAddr: 0xC570, symBinAddr: 0x66EE0, symSize: 0x120 }
  - { offsetInCU: 0x2F4BD, offset: 0x122AF2, size: 0x8, addend: 0x0, symName: '__ZN4core3ptr65drop_in_place$LT$core..option..Option$LT$syn..expr..Label$GT$$GT$17h49c37bc37ca5807aE', symObjAddr: 0xC690, symBinAddr: 0x67000, symSize: 0x30 }
  - { offsetInCU: 0x2F5F8, offset: 0x122C2D, size: 0x8, addend: 0x0, symName: '__ZN4core3ptr65drop_in_place$LT$core..option..Option$LT$syn..path..QSelf$GT$$GT$17hcf801102a0c1571fE', symObjAddr: 0xC6C0, symBinAddr: 0x67030, symSize: 0x50 }
  - { offsetInCU: 0x2F77B, offset: 0x122DB0, size: 0x8, addend: 0x0, symName: '__ZN4core3ptr65drop_in_place$LT$core..option..Option$LT$syn..stmt..Block$GT$$GT$17h64ed1c1c45b48be0E', symObjAddr: 0xC710, symBinAddr: 0x67080, symSize: 0xE0 }
  - { offsetInCU: 0x2F9E0, offset: 0x123015, size: 0x8, addend: 0x0, symName: '__ZN4core3ptr66drop_in_place$LT$alloc..vec..Vec$LT$syn..item..ForeignItem$GT$$GT$17hff1144b6fa19d06bE', symObjAddr: 0xC7F0, symBinAddr: 0x67160, symSize: 0x80 }
  - { offsetInCU: 0x2FC5E, offset: 0x123293, size: 0x8, addend: 0x0, symName: '__ZN4core3ptr67drop_in_place$LT$$LP$syn..pat..FieldPat$C$syn..token..Comma$RP$$GT$17h424f42e359118915E.llvm.9305960714585235817', symObjAddr: 0xC870, symBinAddr: 0x671E0, symSize: 0x130 }
  - { offsetInCU: 0x301C8, offset: 0x1237FD, size: 0x8, addend: 0x0, symName: '__ZN4core3ptr67drop_in_place$LT$$LP$syn..ty..BareFnArg$C$syn..token..Comma$RP$$GT$17hdfbc56b07df94703E.llvm.9305960714585235817', symObjAddr: 0xC9A0, symBinAddr: 0x67310, symSize: 0x110 }
  - { offsetInCU: 0x30619, offset: 0x123C4E, size: 0x8, addend: 0x0, symName: '__ZN4core3ptr67drop_in_place$LT$alloc..boxed..Box$LT$syn..expr..FieldValue$GT$$GT$17h51140dec2dd742b5E', symObjAddr: 0xCAB0, symBinAddr: 0x67420, symSize: 0x140 }
  - { offsetInCU: 0x30B51, offset: 0x124186, size: 0x8, addend: 0x0, symName: '__ZN4core3ptr68drop_in_place$LT$alloc..boxed..Box$LT$syn..path..PathSegment$GT$$GT$17h6663076be8cb9e8fE', symObjAddr: 0xCBF0, symBinAddr: 0x67560, symSize: 0xD0 }
  - { offsetInCU: 0x30F4F, offset: 0x124584, size: 0x8, addend: 0x0, symName: '__ZN4core3ptr69drop_in_place$LT$core..option..Option$LT$syn..stmt..LocalInit$GT$$GT$17h85939c48ba0ca0d1E', symObjAddr: 0xCCC0, symBinAddr: 0x67630, symSize: 0xC0 }
  - { offsetInCU: 0x31277, offset: 0x1248AC, size: 0x8, addend: 0x0, symName: '__ZN4core3ptr70drop_in_place$LT$$LP$syn..expr..FieldValue$C$syn..token..Comma$RP$$GT$17hcef916e68004c37fE.llvm.9305960714585235817', symObjAddr: 0xCD80, symBinAddr: 0x676F0, symSize: 0x110 }
  - { offsetInCU: 0x31689, offset: 0x124CBE, size: 0x8, addend: 0x0, symName: '__ZN4core3ptr70drop_in_place$LT$core..option..Option$LT$syn..ty..BareVariadic$GT$$GT$17h006e7519360f59bbE', symObjAddr: 0xCE90, symBinAddr: 0x67800, symSize: 0x100 }
  - { offsetInCU: 0x31AB9, offset: 0x1250EE, size: 0x8, addend: 0x0, symName: '__ZN4core3ptr72drop_in_place$LT$alloc..boxed..Box$LT$syn..path..GenericArgument$GT$$GT$17h9e43a058d82d49aaE.llvm.9305960714585235817', symObjAddr: 0xCF90, symBinAddr: 0x67900, symSize: 0x180 }
  - { offsetInCU: 0x31F8E, offset: 0x1255C3, size: 0x8, addend: 0x0, symName: '__ZN4core3ptr73drop_in_place$LT$$LP$syn..path..PathSegment$C$syn..token..PathSep$RP$$GT$17h3dbc199e1aaea308E.llvm.9305960714585235817', symObjAddr: 0xD110, symBinAddr: 0x67A80, symSize: 0xC0 }
  - { offsetInCU: 0x32254, offset: 0x125889, size: 0x8, addend: 0x0, symName: '__ZN4core3ptr73drop_in_place$LT$alloc..boxed..Box$LT$syn..generics..GenericParam$GT$$GT$17hdf8f6b3d2d504eeeE', symObjAddr: 0xD1D0, symBinAddr: 0x67B40, symSize: 0x80 }
  - { offsetInCU: 0x323CC, offset: 0x125A01, size: 0x8, addend: 0x0, symName: '__ZN4core3ptr73drop_in_place$LT$alloc..vec..Vec$LT$syn..generics..WherePredicate$GT$$GT$17hbdd9b5058924e659E', symObjAddr: 0xD250, symBinAddr: 0x67BC0, symSize: 0xD0 }
  - { offsetInCU: 0x32659, offset: 0x125C8E, size: 0x8, addend: 0x0, symName: '__ZN4core3ptr75drop_in_place$LT$$LP$syn..path..GenericArgument$C$syn..token..Comma$RP$$GT$17hfbe856753501df4bE.llvm.9305960714585235817', symObjAddr: 0xD320, symBinAddr: 0x67C90, symSize: 0x180 }
  - { offsetInCU: 0x329E1, offset: 0x126016, size: 0x8, addend: 0x0, symName: '__ZN4core3ptr75drop_in_place$LT$alloc..boxed..Box$LT$syn..generics..TypeParamBound$GT$$GT$17he16e1f4f3b231893E', symObjAddr: 0xD4A0, symBinAddr: 0x67E10, symSize: 0x160 }
  - { offsetInCU: 0x32F7E, offset: 0x1265B3, size: 0x8, addend: 0x0, symName: '__ZN4core3ptr75drop_in_place$LT$alloc..boxed..Box$LT$syn..generics..WherePredicate$GT$$GT$17h8076961e9ea95b21E', symObjAddr: 0xD600, symBinAddr: 0x67F70, symSize: 0x50 }
  - { offsetInCU: 0x330D9, offset: 0x12670E, size: 0x8, addend: 0x0, symName: '__ZN4core3ptr76drop_in_place$LT$$LP$syn..generics..GenericParam$C$syn..token..Comma$RP$$GT$17h8a993afce9688910E.llvm.9305960714585235817', symObjAddr: 0xD650, symBinAddr: 0x67FC0, symSize: 0x40 }
  - { offsetInCU: 0x33115, offset: 0x12674A, size: 0x8, addend: 0x0, symName: '__ZN4core3ptr77drop_in_place$LT$$LP$syn..generics..TypeParamBound$C$syn..token..Plus$RP$$GT$17hbf302a1cefa0bb48E.llvm.9305960714585235817', symObjAddr: 0xD690, symBinAddr: 0x68000, symSize: 0x160 }
  - { offsetInCU: 0x33580, offset: 0x126BB5, size: 0x8, addend: 0x0, symName: '__ZN4core3ptr79drop_in_place$LT$alloc..vec..Vec$LT$serde_derive..internals..ast..Field$GT$$GT$17h70a6f2aafffa743fE.llvm.9305960714585235817', symObjAddr: 0xD7F0, symBinAddr: 0x68160, symSize: 0x60 }
  - { offsetInCU: 0x33775, offset: 0x126DAA, size: 0x8, addend: 0x0, symName: '__ZN4core3ptr86drop_in_place$LT$$LP$syn..token..If$C$alloc..boxed..Box$LT$syn..expr..Expr$GT$$RP$$GT$17h192331239da475f1E', symObjAddr: 0xD850, symBinAddr: 0x681C0, symSize: 0x50 }
  - { offsetInCU: 0x3398A, offset: 0x126FBF, size: 0x8, addend: 0x0, symName: '__ZN4core3ptr86drop_in_place$LT$syn..punctuated..Punctuated$LT$syn..pat..Pat$C$syn..token..Or$GT$$GT$17h449b7e6b5537b210E', symObjAddr: 0xD8A0, symBinAddr: 0x68210, symSize: 0x120 }
  - { offsetInCU: 0x33DE7, offset: 0x12741C, size: 0x8, addend: 0x0, symName: '__ZN4core3ptr87drop_in_place$LT$$LP$alloc..boxed..Box$LT$syn..pat..Pat$GT$$C$syn..token..Colon$RP$$GT$17hbb655eeff08b000aE', symObjAddr: 0xD9C0, symBinAddr: 0x68330, symSize: 0x50 }
  - { offsetInCU: 0x33F61, offset: 0x127596, size: 0x8, addend: 0x0, symName: '__ZN4core3ptr87drop_in_place$LT$core..option..Option$LT$alloc..boxed..Box$LT$syn..ty..Type$GT$$GT$$GT$17hd404efde6702ff0dE', symObjAddr: 0xDA10, symBinAddr: 0x68380, symSize: 0x50 }
  - { offsetInCU: 0x340D3, offset: 0x127708, size: 0x8, addend: 0x0, symName: '__ZN4core3ptr89drop_in_place$LT$core..option..Option$LT$alloc..boxed..Box$LT$syn..expr..Expr$GT$$GT$$GT$17h981df8604670027bE', symObjAddr: 0xDA60, symBinAddr: 0x683D0, symSize: 0x50 }
  - { offsetInCU: 0x34245, offset: 0x12787A, size: 0x8, addend: 0x0, symName: '__ZN4core3ptr89drop_in_place$LT$syn..punctuated..Punctuated$LT$syn..ty..Type$C$syn..token..Comma$GT$$GT$17h23a774170e770b9aE.llvm.9305960714585235817', symObjAddr: 0xDAB0, symBinAddr: 0x68420, symSize: 0x120 }
  - { offsetInCU: 0x3468F, offset: 0x127CC4, size: 0x8, addend: 0x0, symName: '__ZN4core3ptr90drop_in_place$LT$core..option..Option$LT$alloc..boxed..Box$LT$syn..data..Field$GT$$GT$$GT$17h7c8befe69ecac6fdE', symObjAddr: 0xDBD0, symBinAddr: 0x68540, symSize: 0x50 }
  - { offsetInCU: 0x34801, offset: 0x127E36, size: 0x8, addend: 0x0, symName: '__ZN4core3ptr90drop_in_place$LT$core..option..Option$LT$alloc..boxed..Box$LT$syn..item..FnArg$GT$$GT$$GT$17heec0b4a8ab29bbfeE', symObjAddr: 0xDC20, symBinAddr: 0x68590, symSize: 0x50 }
  - { offsetInCU: 0x349EF, offset: 0x128024, size: 0x8, addend: 0x0, symName: '__ZN4core3ptr91drop_in_place$LT$syn..punctuated..Punctuated$LT$syn..expr..Expr$C$syn..token..Comma$GT$$GT$17ha27fe7b672ce38bdE', symObjAddr: 0xDC70, symBinAddr: 0x685E0, symSize: 0x120 }
  - { offsetInCU: 0x34E4C, offset: 0x128481, size: 0x8, addend: 0x0, symName: '__ZN4core3ptr92drop_in_place$LT$core..option..Option$LT$$LP$syn..token..As$C$proc_macro2..Ident$RP$$GT$$GT$17hae38b33a7c09a524E', symObjAddr: 0xDD90, symBinAddr: 0x68700, symSize: 0x30 }
  - { offsetInCU: 0x34F68, offset: 0x12859D, size: 0x8, addend: 0x0, symName: '__ZN4core3ptr92drop_in_place$LT$syn..punctuated..Punctuated$LT$syn..data..Field$C$syn..token..Comma$GT$$GT$17h7f74ca184b2395cfE', symObjAddr: 0xDDC0, symBinAddr: 0x68730, symSize: 0x120 }
  - { offsetInCU: 0x353B2, offset: 0x1289E7, size: 0x8, addend: 0x0, symName: '__ZN4core3ptr92drop_in_place$LT$syn..punctuated..Punctuated$LT$syn..item..FnArg$C$syn..token..Comma$GT$$GT$17hc107144ed975d82bE', symObjAddr: 0xDEE0, symBinAddr: 0x68850, symSize: 0x150 }
  - { offsetInCU: 0x358C7, offset: 0x128EFC, size: 0x8, addend: 0x0, symName: '__ZN4core3ptr94drop_in_place$LT$syn..punctuated..Punctuated$LT$syn..data..Variant$C$syn..token..Comma$GT$$GT$17hb3d8ec2f3bf1320bE', symObjAddr: 0xE030, symBinAddr: 0x689A0, symSize: 0x120 }
  - { offsetInCU: 0x35DA0, offset: 0x1293D5, size: 0x8, addend: 0x0, symName: '__ZN4core3ptr94drop_in_place$LT$syn..punctuated..Punctuated$LT$syn..pat..FieldPat$C$syn..token..Comma$GT$$GT$17hd9ad3a9ff53c2a49E', symObjAddr: 0xE150, symBinAddr: 0x68AC0, symSize: 0xF0 }
  - { offsetInCU: 0x360F9, offset: 0x12972E, size: 0x8, addend: 0x0, symName: '__ZN4core3ptr94drop_in_place$LT$syn..punctuated..Punctuated$LT$syn..ty..BareFnArg$C$syn..token..Comma$GT$$GT$17h3ad0ecbb9acc3d94E', symObjAddr: 0xE240, symBinAddr: 0x68BB0, symSize: 0xF0 }
  - { offsetInCU: 0x363D6, offset: 0x129A0B, size: 0x8, addend: 0x0, symName: '__ZN4core3ptr95drop_in_place$LT$core..option..Option$LT$$LP$proc_macro2..Ident$C$syn..token..Colon$RP$$GT$$GT$17h77fdbe09260e4680E.llvm.9305960714585235817', symObjAddr: 0xE330, symBinAddr: 0x68CA0, symSize: 0x30 }
  - { offsetInCU: 0x364F2, offset: 0x129B27, size: 0x8, addend: 0x0, symName: '__ZN4core3ptr95drop_in_place$LT$core..option..Option$LT$serde_derive..internals..attr..BorrowAttribute$GT$$GT$17h870c4275904023f2E', symObjAddr: 0xE360, symBinAddr: 0x68CD0, symSize: 0x110 }
  - { offsetInCU: 0x368E0, offset: 0x129F15, size: 0x8, addend: 0x0, symName: '__ZN4core3ptr96drop_in_place$LT$core..option..Option$LT$alloc..boxed..Box$LT$syn..path..PathSegment$GT$$GT$$GT$17h15008b031e78f545E.llvm.9305960714585235817', symObjAddr: 0xE470, symBinAddr: 0x68DE0, symSize: 0x90 }
  - { offsetInCU: 0x36BDE, offset: 0x12A213, size: 0x8, addend: 0x0, symName: '__ZN4core3ptr97drop_in_place$LT$syn..punctuated..Punctuated$LT$syn..expr..FieldValue$C$syn..token..Comma$GT$$GT$17h7dd72fd62fffe077E', symObjAddr: 0xE500, symBinAddr: 0x68E70, symSize: 0xF0 }
  - { offsetInCU: 0x36F75, offset: 0x12A5AA, size: 0x8, addend: 0x0, symName: '__ZN4core3ptr98drop_in_place$LT$syn..punctuated..Punctuated$LT$syn..lifetime..Lifetime$C$syn..token..Plus$GT$$GT$17haf6d03c18957eb1aE.llvm.9305960714585235817', symObjAddr: 0xE5F0, symBinAddr: 0x68F60, symSize: 0xC0 }
  - { offsetInCU: 0x3C047, offset: 0x12F67C, size: 0x8, addend: 0x0, symName: '__ZN97_$LT$alloc..vec..Vec$LT$T$C$A$GT$$u20$as$u20$alloc..vec..spec_extend..SpecExtend$LT$T$C$I$GT$$GT$11spec_extend17h16dba37a86c676e9E', symObjAddr: 0x103B0, symBinAddr: 0x6A0F0, symSize: 0x100 }
  - { offsetInCU: 0x3C400, offset: 0x12FA35, size: 0x8, addend: 0x0, symName: '__ZN97_$LT$alloc..vec..Vec$LT$T$C$A$GT$$u20$as$u20$alloc..vec..spec_extend..SpecExtend$LT$T$C$I$GT$$GT$11spec_extend17h9631bf2b0928c643E', symObjAddr: 0x104B0, symBinAddr: 0x6A1F0, symSize: 0x150 }
  - { offsetInCU: 0x3C85B, offset: 0x12FE90, size: 0x8, addend: 0x0, symName: '__ZN97_$LT$alloc..vec..Vec$LT$T$C$A$GT$$u20$as$u20$alloc..vec..spec_extend..SpecExtend$LT$T$C$I$GT$$GT$11spec_extend17hee8d51821008922fE', symObjAddr: 0x10600, symBinAddr: 0x6A340, symSize: 0x150 }
  - { offsetInCU: 0x3CE74, offset: 0x1304A9, size: 0x8, addend: 0x0, symName: '__ZN111_$LT$alloc..vec..Vec$LT$T$GT$$u20$as$u20$alloc..vec..spec_from_iter_nested..SpecFromIterNested$LT$T$C$I$GT$$GT$9from_iter17heb990b8767a8affcE', symObjAddr: 0x0, symBinAddr: 0x5A970, symSize: 0x320 }
  - { offsetInCU: 0x3E190, offset: 0x1317C5, size: 0x8, addend: 0x0, symName: '__ZN70_$LT$alloc..vec..Vec$LT$T$C$A$GT$$u20$as$u20$core..ops..drop..Drop$GT$4drop17h0789d79758eb293bE', symObjAddr: 0xEEF0, symBinAddr: 0x69800, symSize: 0x110 }
  - { offsetInCU: 0x3E1FE, offset: 0x131833, size: 0x8, addend: 0x0, symName: '__ZN70_$LT$alloc..vec..Vec$LT$T$C$A$GT$$u20$as$u20$core..ops..drop..Drop$GT$4drop17h34c884157029ee40E', symObjAddr: 0xF310, symBinAddr: 0x69910, symSize: 0x50 }
  - { offsetInCU: 0x3E2F4, offset: 0x131929, size: 0x8, addend: 0x0, symName: '__ZN70_$LT$alloc..vec..Vec$LT$T$C$A$GT$$u20$as$u20$core..ops..drop..Drop$GT$4drop17h4c1a32f797288b74E', symObjAddr: 0xF3E0, symBinAddr: 0x69960, symSize: 0x80 }
  - { offsetInCU: 0x3E37E, offset: 0x1319B3, size: 0x8, addend: 0x0, symName: '__ZN70_$LT$alloc..vec..Vec$LT$T$C$A$GT$$u20$as$u20$core..ops..drop..Drop$GT$4drop17h522589ece5e093c0E', symObjAddr: 0xF460, symBinAddr: 0x699E0, symSize: 0x80 }
  - { offsetInCU: 0x3E408, offset: 0x131A3D, size: 0x8, addend: 0x0, symName: '__ZN70_$LT$alloc..vec..Vec$LT$T$C$A$GT$$u20$as$u20$core..ops..drop..Drop$GT$4drop17h56bc8c9085303849E', symObjAddr: 0xF560, symBinAddr: 0x69A60, symSize: 0x50 }
  - { offsetInCU: 0x3E529, offset: 0x131B5E, size: 0x8, addend: 0x0, symName: '__ZN70_$LT$alloc..vec..Vec$LT$T$C$A$GT$$u20$as$u20$core..ops..drop..Drop$GT$4drop17h9da9f1ab12762260E', symObjAddr: 0xF930, symBinAddr: 0x69AB0, symSize: 0x90 }
  - { offsetInCU: 0x3E62F, offset: 0x131C64, size: 0x8, addend: 0x0, symName: '__ZN70_$LT$alloc..vec..Vec$LT$T$C$A$GT$$u20$as$u20$core..ops..drop..Drop$GT$4drop17hd80bd503aa4c6a32E', symObjAddr: 0xFB90, symBinAddr: 0x69B40, symSize: 0x340 }
  - { offsetInCU: 0x3EF99, offset: 0x1325CE, size: 0x8, addend: 0x0, symName: '__ZN70_$LT$alloc..vec..Vec$LT$T$C$A$GT$$u20$as$u20$core..ops..drop..Drop$GT$4drop17hd99fb9cc85329a0dE', symObjAddr: 0xFED0, symBinAddr: 0x69E80, symSize: 0x80 }
  - { offsetInCU: 0x3F023, offset: 0x132658, size: 0x8, addend: 0x0, symName: '__ZN70_$LT$alloc..vec..Vec$LT$T$C$A$GT$$u20$as$u20$core..ops..drop..Drop$GT$4drop17he4dd2d7237cff69fE', symObjAddr: 0xFF50, symBinAddr: 0x69F00, symSize: 0xC0 }
  - { offsetInCU: 0x3F2D4, offset: 0x132909, size: 0x8, addend: 0x0, symName: '__ZN70_$LT$alloc..vec..Vec$LT$T$C$A$GT$$u20$as$u20$core..ops..drop..Drop$GT$4drop17heaf35be1c873d948E', symObjAddr: 0x10010, symBinAddr: 0x69FC0, symSize: 0xB0 }
  - { offsetInCU: 0x3F362, offset: 0x132997, size: 0x8, addend: 0x0, symName: '__ZN70_$LT$alloc..vec..Vec$LT$T$C$A$GT$$u20$as$u20$core..ops..drop..Drop$GT$4drop17hf0fd8c08d3024c61E', symObjAddr: 0x10190, symBinAddr: 0x6A070, symSize: 0x80 }
  - { offsetInCU: 0x3F97F, offset: 0x132FB4, size: 0x8, addend: 0x0, symName: '__ZN67_$LT$alloc..vec..Vec$LT$T$C$A$GT$$u20$as$u20$core..clone..Clone$GT$5clone17h41536c9139484b89E', symObjAddr: 0xE710, symBinAddr: 0x69020, symSize: 0x2B0 }
  - { offsetInCU: 0x40042, offset: 0x133677, size: 0x8, addend: 0x0, symName: '__ZN67_$LT$alloc..vec..Vec$LT$T$C$A$GT$$u20$as$u20$core..clone..Clone$GT$5clone17h62da86091dee7c28E', symObjAddr: 0xE9C0, symBinAddr: 0x692D0, symSize: 0x1A0 }
  - { offsetInCU: 0x40574, offset: 0x133BA9, size: 0x8, addend: 0x0, symName: '__ZN67_$LT$alloc..vec..Vec$LT$T$C$A$GT$$u20$as$u20$core..clone..Clone$GT$5clone17hf5e1416c62ad9ad6E', symObjAddr: 0xEB60, symBinAddr: 0x69470, symSize: 0x390 }
  - { offsetInCU: 0x4180A, offset: 0x134E3F, size: 0x8, addend: 0x0, symName: '__ZN98_$LT$alloc..vec..Vec$LT$T$GT$$u20$as$u20$alloc..vec..spec_from_iter..SpecFromIter$LT$T$C$I$GT$$GT$9from_iter17h2027693c42595b61E', symObjAddr: 0x10750, symBinAddr: 0x6A490, symSize: 0x170 }
  - { offsetInCU: 0x41F26, offset: 0x13555B, size: 0x8, addend: 0x0, symName: '__ZN98_$LT$alloc..vec..Vec$LT$T$GT$$u20$as$u20$alloc..vec..spec_from_iter..SpecFromIter$LT$T$C$I$GT$$GT$9from_iter17h2349026b3010aea3E', symObjAddr: 0x108C0, symBinAddr: 0x6A600, symSize: 0x150 }
  - { offsetInCU: 0x42478, offset: 0x135AAD, size: 0x8, addend: 0x0, symName: '__ZN98_$LT$alloc..vec..Vec$LT$T$GT$$u20$as$u20$alloc..vec..spec_from_iter..SpecFromIter$LT$T$C$I$GT$$GT$9from_iter17h2b11a76576c051feE', symObjAddr: 0x10A10, symBinAddr: 0x6A750, symSize: 0x2D0 }
  - { offsetInCU: 0x42E3A, offset: 0x13646F, size: 0x8, addend: 0x0, symName: '__ZN98_$LT$alloc..vec..Vec$LT$T$GT$$u20$as$u20$alloc..vec..spec_from_iter..SpecFromIter$LT$T$C$I$GT$$GT$9from_iter17h3665acc06ef4ee10E', symObjAddr: 0x10CE0, symBinAddr: 0x6AA20, symSize: 0x6A0 }
  - { offsetInCU: 0x442FE, offset: 0x137933, size: 0x8, addend: 0x0, symName: '__ZN98_$LT$alloc..vec..Vec$LT$T$GT$$u20$as$u20$alloc..vec..spec_from_iter..SpecFromIter$LT$T$C$I$GT$$GT$9from_iter17h4969e7e1f820002cE', symObjAddr: 0x11380, symBinAddr: 0x6B0C0, symSize: 0x1D0 }
  - { offsetInCU: 0x44A56, offset: 0x13808B, size: 0x8, addend: 0x0, symName: '__ZN98_$LT$alloc..vec..Vec$LT$T$GT$$u20$as$u20$alloc..vec..spec_from_iter..SpecFromIter$LT$T$C$I$GT$$GT$9from_iter17h4f3da1b89c0f7bdfE', symObjAddr: 0x11550, symBinAddr: 0x6B290, symSize: 0x2E0 }
  - { offsetInCU: 0x4544E, offset: 0x138A83, size: 0x8, addend: 0x0, symName: '__ZN98_$LT$alloc..vec..Vec$LT$T$GT$$u20$as$u20$alloc..vec..spec_from_iter..SpecFromIter$LT$T$C$I$GT$$GT$9from_iter17h4ffbc7cdd9e6e518E', symObjAddr: 0x11830, symBinAddr: 0x6B570, symSize: 0x1C0 }
  - { offsetInCU: 0x45CC4, offset: 0x1392F9, size: 0x8, addend: 0x0, symName: '__ZN98_$LT$alloc..vec..Vec$LT$T$GT$$u20$as$u20$alloc..vec..spec_from_iter..SpecFromIter$LT$T$C$I$GT$$GT$9from_iter17h74a672379bb6fba1E', symObjAddr: 0x11B50, symBinAddr: 0x6B730, symSize: 0x460 }
  - { offsetInCU: 0x466D9, offset: 0x139D0E, size: 0x8, addend: 0x0, symName: '__ZN98_$LT$alloc..vec..Vec$LT$T$GT$$u20$as$u20$alloc..vec..spec_from_iter..SpecFromIter$LT$T$C$I$GT$$GT$9from_iter17h90d98ba614cb4dfbE', symObjAddr: 0x11FB0, symBinAddr: 0x6BB90, symSize: 0x170 }
  - { offsetInCU: 0x46D0B, offset: 0x13A340, size: 0x8, addend: 0x0, symName: '__ZN98_$LT$alloc..vec..Vec$LT$T$GT$$u20$as$u20$alloc..vec..spec_from_iter..SpecFromIter$LT$T$C$I$GT$$GT$9from_iter17h9f204d105aeb36f4E', symObjAddr: 0x12120, symBinAddr: 0x6BD00, symSize: 0x150 }
  - { offsetInCU: 0x4729E, offset: 0x13A8D3, size: 0x8, addend: 0x0, symName: '__ZN98_$LT$alloc..vec..Vec$LT$T$GT$$u20$as$u20$alloc..vec..spec_from_iter..SpecFromIter$LT$T$C$I$GT$$GT$9from_iter17hb7b5a9c3ae913e9aE', symObjAddr: 0x12390, symBinAddr: 0x6BE50, symSize: 0x150 }
  - { offsetInCU: 0x477B7, offset: 0x13ADEC, size: 0x8, addend: 0x0, symName: '__ZN98_$LT$alloc..vec..Vec$LT$T$GT$$u20$as$u20$alloc..vec..spec_from_iter..SpecFromIter$LT$T$C$I$GT$$GT$9from_iter17hce5a8636b7ce5df2E', symObjAddr: 0x12620, symBinAddr: 0x6BFA0, symSize: 0x330 }
  - { offsetInCU: 0x4853B, offset: 0x13BB70, size: 0x8, addend: 0x0, symName: '__ZN98_$LT$alloc..vec..Vec$LT$T$GT$$u20$as$u20$alloc..vec..spec_from_iter..SpecFromIter$LT$T$C$I$GT$$GT$9from_iter17hd1b77fa44fcd0538E', symObjAddr: 0x12950, symBinAddr: 0x6C2D0, symSize: 0x380 }
  - { offsetInCU: 0x49248, offset: 0x13C87D, size: 0x8, addend: 0x0, symName: '__ZN98_$LT$alloc..vec..Vec$LT$T$GT$$u20$as$u20$alloc..vec..spec_from_iter..SpecFromIter$LT$T$C$I$GT$$GT$9from_iter17hd4d6fa23da51ec97E', symObjAddr: 0x12CD0, symBinAddr: 0x6C650, symSize: 0x430 }
  - { offsetInCU: 0x49F8C, offset: 0x13D5C1, size: 0x8, addend: 0x0, symName: '__ZN98_$LT$alloc..vec..Vec$LT$T$GT$$u20$as$u20$alloc..vec..spec_from_iter..SpecFromIter$LT$T$C$I$GT$$GT$9from_iter17hd68e93ce2b2a25bbE', symObjAddr: 0x13100, symBinAddr: 0x6CA80, symSize: 0x320 }
  - { offsetInCU: 0x4A807, offset: 0x13DE3C, size: 0x8, addend: 0x0, symName: '__ZN98_$LT$alloc..vec..Vec$LT$T$GT$$u20$as$u20$alloc..vec..spec_from_iter..SpecFromIter$LT$T$C$I$GT$$GT$9from_iter17hfdb99fa42c0fda7eE', symObjAddr: 0x13420, symBinAddr: 0x6CDA0, symSize: 0x29B }
  - { offsetInCU: 0x1E, offset: 0x154932, size: 0x8, addend: 0x0, symName: '__ZN40_$LT$F$u20$as$u20$syn..parse..Parser$GT$14__parse_scoped17h04cea7084b757b45E', symObjAddr: 0x0, symBinAddr: 0x6D040, symSize: 0x680 }
  - { offsetInCU: 0x171, offset: 0x154A85, size: 0x8, addend: 0x0, symName: '__ZN58_$LT$alloc..string..String$u20$as$u20$core..fmt..Debug$GT$3fmt17h289d966fb42f899aE', symObjAddr: 0x9350, symBinAddr: 0x76390, symSize: 0x20 }
  - { offsetInCU: 0x263, offset: 0x154B77, size: 0x8, addend: 0x0, symName: '__ZN58_$LT$alloc..string..String$u20$as$u20$core..fmt..Write$GT$10write_char17hd329c0cb943f081aE', symObjAddr: 0x9370, symBinAddr: 0x763B0, symSize: 0x130 }
  - { offsetInCU: 0x60B, offset: 0x154F1F, size: 0x8, addend: 0x0, symName: '__ZN58_$LT$alloc..string..String$u20$as$u20$core..fmt..Write$GT$9write_str17h1ff5aa96ca91c6d5E', symObjAddr: 0x94A0, symBinAddr: 0x764E0, symSize: 0x60 }
  - { offsetInCU: 0x84A, offset: 0x15515E, size: 0x8, addend: 0x0, symName: '__ZN60_$LT$alloc..string..String$u20$as$u20$core..fmt..Display$GT$3fmt17hc365578c40090489E', symObjAddr: 0x9500, symBinAddr: 0x76540, symSize: 0x20 }
  - { offsetInCU: 0x4AF4, offset: 0x159408, size: 0x8, addend: 0x0, symName: '__ZN4core3ptr100drop_in_place$LT$core..option..Option$LT$alloc..boxed..Box$LT$syn..path..GenericArgument$GT$$GT$$GT$17h91f76f7535c0ef94E', symObjAddr: 0x10C0, symBinAddr: 0x6E100, symSize: 0x50 }
  - { offsetInCU: 0x4E18, offset: 0x15972C, size: 0x8, addend: 0x0, symName: '__ZN4core3ptr100drop_in_place$LT$syn..punctuated..Punctuated$LT$syn..path..PathSegment$C$syn..token..PathSep$GT$$GT$17h8967d620e5262808E.llvm.3230814285715783944', symObjAddr: 0x1110, symBinAddr: 0x6E150, symSize: 0x260 }
  - { offsetInCU: 0x57D0, offset: 0x15A0E4, size: 0x8, addend: 0x0, symName: '__ZN4core3ptr101drop_in_place$LT$core..option..Option$LT$alloc..vec..Vec$LT$syn..generics..WherePredicate$GT$$GT$$GT$17hfc4d4b0edb7e476fE', symObjAddr: 0x1370, symBinAddr: 0x6E3B0, symSize: 0xE0 }
  - { offsetInCU: 0x5A5C, offset: 0x15A370, size: 0x8, addend: 0x0, symName: '__ZN4core3ptr102drop_in_place$LT$serde_derive..internals..attr..Attr$LT$serde_derive..internals..attr..Default$GT$$GT$17h8eea844d4e509a9eE', symObjAddr: 0x1450, symBinAddr: 0x6E490, symSize: 0x60 }
  - { offsetInCU: 0x5B15, offset: 0x15A429, size: 0x8, addend: 0x0, symName: '__ZN4core3ptr103drop_in_place$LT$core..option..Option$LT$alloc..boxed..Box$LT$syn..generics..TypeParamBound$GT$$GT$$GT$17h044206982686810cE', symObjAddr: 0x14B0, symBinAddr: 0x6E4F0, symSize: 0x50 }
  - { offsetInCU: 0x5D22, offset: 0x15A636, size: 0x8, addend: 0x0, symName: '__ZN4core3ptr103drop_in_place$LT$syn..punctuated..Punctuated$LT$syn..generics..GenericParam$C$syn..token..Comma$GT$$GT$17h28897b64a12579c2E', symObjAddr: 0x1500, symBinAddr: 0x6E540, symSize: 0xF0 }
  - { offsetInCU: 0x61C6, offset: 0x15AADA, size: 0x8, addend: 0x0, symName: '__ZN4core3ptr104drop_in_place$LT$syn..punctuated..Punctuated$LT$syn..generics..TypeParamBound$C$syn..token..Plus$GT$$GT$17h8a3e2526f1805111E', symObjAddr: 0x15F0, symBinAddr: 0x6E630, symSize: 0x190 }
  - { offsetInCU: 0x67FB, offset: 0x15B10F, size: 0x8, addend: 0x0, symName: '__ZN4core3ptr105drop_in_place$LT$core..option..Option$LT$$LP$proc_macro2..TokenStream$C$alloc..string..String$RP$$GT$$GT$17h49c6f08e1b0ae05fE', symObjAddr: 0x1780, symBinAddr: 0x6E7C0, symSize: 0x60 }
  - { offsetInCU: 0x6AB5, offset: 0x15B3C9, size: 0x8, addend: 0x0, symName: '__ZN4core3ptr110drop_in_place$LT$serde_derive..internals..attr..Attr$LT$serde_derive..internals..attr..BorrowAttribute$GT$$GT$17hb7f699355f307ddaE', symObjAddr: 0x17E0, symBinAddr: 0x6E820, symSize: 0x120 }
  - { offsetInCU: 0x6EEC, offset: 0x15B800, size: 0x8, addend: 0x0, symName: '__ZN4core3ptr116drop_in_place$LT$serde_derive..internals..attr..Attr$LT$alloc..vec..Vec$LT$syn..generics..WherePredicate$GT$$GT$$GT$17h22373a3e7a481f1aE', symObjAddr: 0x1900, symBinAddr: 0x6E940, symSize: 0xF0 }
  - { offsetInCU: 0x7192, offset: 0x15BAA6, size: 0x8, addend: 0x0, symName: '__ZN4core3ptr119drop_in_place$LT$serde_derive..internals..attr..VecAttr$LT$alloc..vec..Vec$LT$syn..generics..WherePredicate$GT$$GT$$GT$17h2c9a0c9bb8be77c6E', symObjAddr: 0x19F0, symBinAddr: 0x6EA30, symSize: 0xA0 }
  - { offsetInCU: 0x73A2, offset: 0x15BCB6, size: 0x8, addend: 0x0, symName: '__ZN4core3ptr135drop_in_place$LT$serde_derive..internals..attr..Attr$LT$alloc..collections..btree..set..BTreeSet$LT$syn..lifetime..Lifetime$GT$$GT$$GT$17h7a0cd6be07720f75E', symObjAddr: 0x1A90, symBinAddr: 0x6EAD0, symSize: 0x100 }
  - { offsetInCU: 0x77E9, offset: 0x15C0FD, size: 0x8, addend: 0x0, symName: '__ZN4core3ptr34drop_in_place$LT$syn..lit..Lit$GT$17h909e98f6870548d6E', symObjAddr: 0x1B90, symBinAddr: 0x6EBD0, symSize: 0x110 }
  - { offsetInCU: 0x7D23, offset: 0x15C637, size: 0x8, addend: 0x0, symName: '__ZN4core3ptr34drop_in_place$LT$syn..pat..Pat$GT$17h8fcd4c90be46a62aE', symObjAddr: 0x1CA0, symBinAddr: 0x6ECE0, symSize: 0xE60 }
  - { offsetInCU: 0xB0E1, offset: 0x15F9F5, size: 0x8, addend: 0x0, symName: '__ZN4core3ptr34drop_in_place$LT$syn..ty..Type$GT$17h774a0ab6b4cf283eE.llvm.3230814285715783944', symObjAddr: 0x2B00, symBinAddr: 0x6FB40, symSize: 0x4F0 }
  - { offsetInCU: 0xC62C, offset: 0x160F40, size: 0x8, addend: 0x0, symName: '__ZN4core3ptr36drop_in_place$LT$syn..expr..Expr$GT$17h7fd8f0d642db296eE', symObjAddr: 0x2FF0, symBinAddr: 0x70030, symSize: 0x2770 }
  - { offsetInCU: 0x1560E, offset: 0x169F22, size: 0x8, addend: 0x0, symName: '__ZN4core3ptr36drop_in_place$LT$syn..mac..Macro$GT$17hc8e4594548e1fb74E', symObjAddr: 0x5760, symBinAddr: 0x727A0, symSize: 0x40 }
  - { offsetInCU: 0x15648, offset: 0x169F5C, size: 0x8, addend: 0x0, symName: '__ZN4core3ptr36drop_in_place$LT$syn..path..Path$GT$17hae91be932b20df1dE.llvm.3230814285715783944', symObjAddr: 0x57A0, symBinAddr: 0x727E0, symSize: 0x220 }
  - { offsetInCU: 0x15F7D, offset: 0x16A891, size: 0x8, addend: 0x0, symName: '__ZN4core3ptr37drop_in_place$LT$core..fmt..Error$GT$17hdcc9b701b5182764E', symObjAddr: 0x59C0, symBinAddr: 0x72A00, symSize: 0x10 }
  - { offsetInCU: 0x15FA9, offset: 0x16A8BD, size: 0x8, addend: 0x0, symName: '__ZN4core3ptr37drop_in_place$LT$syn..path..QSelf$GT$17h8e1bc07903d8e4a7E.llvm.3230814285715783944', symObjAddr: 0x59D0, symBinAddr: 0x72A10, symSize: 0x50 }
  - { offsetInCU: 0x16123, offset: 0x16AA37, size: 0x8, addend: 0x0, symName: '__ZN4core3ptr37drop_in_place$LT$syn..stmt..Block$GT$17hba4e7ddf28617bfdE', symObjAddr: 0x5A20, symBinAddr: 0x72A60, symSize: 0xD0 }
  - { offsetInCU: 0x163C7, offset: 0x16ACDB, size: 0x8, addend: 0x0, symName: '__ZN4core3ptr38drop_in_place$LT$syn..expr..Member$GT$17ha7c2806ee150b6f6E', symObjAddr: 0x5AF0, symBinAddr: 0x72B30, symSize: 0x30 }
  - { offsetInCU: 0x164C4, offset: 0x16ADD8, size: 0x8, addend: 0x0, symName: '__ZN4core3ptr39drop_in_place$LT$proc_macro2..Ident$GT$17h8dfea26593c17b61E', symObjAddr: 0x5B20, symBinAddr: 0x72B60, symSize: 0x30 }
  - { offsetInCU: 0x166D8, offset: 0x16AFEC, size: 0x8, addend: 0x0, symName: '__ZN4core3ptr39drop_in_place$LT$syn..buffer..Entry$GT$17h50c973355181ef50E', symObjAddr: 0x5B50, symBinAddr: 0x72B90, symSize: 0xC0 }
  - { offsetInCU: 0x169EC, offset: 0x16B300, size: 0x8, addend: 0x0, symName: '__ZN4core3ptr40drop_in_place$LT$syn..expr..ExprPath$GT$17h558f3eab01e13045E.llvm.3230814285715783944', symObjAddr: 0x5C10, symBinAddr: 0x72C50, symSize: 0x110 }
  - { offsetInCU: 0x16E7D, offset: 0x16B791, size: 0x8, addend: 0x0, symName: '__ZN4core3ptr40drop_in_place$LT$syn..ty..ReturnType$GT$17h3c2856ff70e83fa7E', symObjAddr: 0x5D20, symBinAddr: 0x72D60, symSize: 0x50 }
  - { offsetInCU: 0x16FEF, offset: 0x16B903, size: 0x8, addend: 0x0, symName: '__ZN4core3ptr41drop_in_place$LT$syn..expr..ExprConst$GT$17h3f369735cc377020E', symObjAddr: 0x5D70, symBinAddr: 0x72DB0, symSize: 0x180 }
  - { offsetInCU: 0x17544, offset: 0x16BE58, size: 0x8, addend: 0x0, symName: '__ZN4core3ptr42drop_in_place$LT$alloc..string..String$GT$17h5212a25f3591ed4cE.llvm.3230814285715783944', symObjAddr: 0x5EF0, symBinAddr: 0x72F30, symSize: 0x20 }
  - { offsetInCU: 0x1764D, offset: 0x16BF61, size: 0x8, addend: 0x0, symName: '__ZN4core3ptr43drop_in_place$LT$proc_macro2..TokenTree$GT$17h580b911abc7fb97bE', symObjAddr: 0x5F10, symBinAddr: 0x72F50, symSize: 0xB0 }
  - { offsetInCU: 0x17961, offset: 0x16C275, size: 0x8, addend: 0x0, symName: '__ZN4core3ptr44drop_in_place$LT$syn..lifetime..Lifetime$GT$17h263f9508be5fff98E', symObjAddr: 0x5FC0, symBinAddr: 0x73000, symSize: 0x30 }
  - { offsetInCU: 0x17A5E, offset: 0x16C372, size: 0x8, addend: 0x0, symName: '__ZN4core3ptr44drop_in_place$LT$syn..parse..ParseBuffer$GT$17h4966adace0fd02f2E', symObjAddr: 0x5FF0, symBinAddr: 0x73030, symSize: 0x70 }
  - { offsetInCU: 0x17DF8, offset: 0x16C70C, size: 0x8, addend: 0x0, symName: '__ZN4core3ptr45drop_in_place$LT$proc_macro2..TokenStream$GT$17hcbbbd6ac69a3e46cE.llvm.3230814285715783944', symObjAddr: 0x6060, symBinAddr: 0x730A0, symSize: 0x140 }
  - { offsetInCU: 0x18229, offset: 0x16CB3D, size: 0x8, addend: 0x0, symName: '__ZN4core3ptr45drop_in_place$LT$syn..buffer..TokenBuffer$GT$17h85f2ef09366c40f0E', symObjAddr: 0x61A0, symBinAddr: 0x731E0, symSize: 0xD0 }
  - { offsetInCU: 0x1848F, offset: 0x16CDA3, size: 0x8, addend: 0x0, symName: '__ZN4core3ptr45drop_in_place$LT$syn..generics..TypeParam$GT$17h3f489d24bf2868acE', symObjAddr: 0x6270, symBinAddr: 0x732B0, symSize: 0x230 }
  - { offsetInCU: 0x18C8B, offset: 0x16D59F, size: 0x8, addend: 0x0, symName: '__ZN4core3ptr46drop_in_place$LT$syn..generics..ConstParam$GT$17hb82cf1b5639462f6E', symObjAddr: 0x64A0, symBinAddr: 0x734E0, symSize: 0x150 }
  - { offsetInCU: 0x190B5, offset: 0x16D9C9, size: 0x8, addend: 0x0, symName: '__ZN4core3ptr47drop_in_place$LT$syn..path..GenericArgument$GT$17ha4d1e2427b5b79f7E', symObjAddr: 0x65F0, symBinAddr: 0x73630, symSize: 0x4A0 }
  - { offsetInCU: 0x1A15C, offset: 0x16EA70, size: 0x8, addend: 0x0, symName: '__ZN4core3ptr49drop_in_place$LT$syn..generics..LifetimeParam$GT$17h54e59d96d3078601E', symObjAddr: 0x6A90, symBinAddr: 0x73AD0, symSize: 0xF0 }
  - { offsetInCU: 0x1A516, offset: 0x16EE2A, size: 0x8, addend: 0x0, symName: '__ZN4core3ptr50drop_in_place$LT$syn..generics..TypeParamBound$GT$17h3bdcf102e80fe526E', symObjAddr: 0x6B80, symBinAddr: 0x73BC0, symSize: 0x160 }
  - { offsetInCU: 0x1A9D1, offset: 0x16F2E5, size: 0x8, addend: 0x0, symName: '__ZN4core3ptr56drop_in_place$LT$proc_macro2..token_stream..IntoIter$GT$17hc7b9029d3b988f01E', symObjAddr: 0x6CE0, symBinAddr: 0x73D20, symSize: 0x20 }
  - { offsetInCU: 0x1AABF, offset: 0x16F3D3, size: 0x8, addend: 0x0, symName: '__ZN4core3ptr56drop_in_place$LT$serde_derive..internals..attr..Name$GT$17hd40e63d081cf4ed8E', symObjAddr: 0x6D00, symBinAddr: 0x73D40, symSize: 0x100 }
  - { offsetInCU: 0x1B031, offset: 0x16F945, size: 0x8, addend: 0x0, symName: '__ZN4core3ptr58drop_in_place$LT$alloc..vec..Vec$LT$syn..expr..Arm$GT$$GT$17h2816916be2f2c677E', symObjAddr: 0x6E00, symBinAddr: 0x73E40, symSize: 0xD0 }
  - { offsetInCU: 0x1B2BE, offset: 0x16FBD2, size: 0x8, addend: 0x0, symName: '__ZN4core3ptr59drop_in_place$LT$alloc..boxed..Box$LT$syn..pat..Pat$GT$$GT$17h97d5257714c9f93cE', symObjAddr: 0x6ED0, symBinAddr: 0x73F10, symSize: 0x50 }
  - { offsetInCU: 0x1B419, offset: 0x16FD2D, size: 0x8, addend: 0x0, symName: '__ZN4core3ptr59drop_in_place$LT$alloc..boxed..Box$LT$syn..ty..Type$GT$$GT$17h54564496a417dc0bE', symObjAddr: 0x6F20, symBinAddr: 0x73F60, symSize: 0x50 }
  - { offsetInCU: 0x1B574, offset: 0x16FE88, size: 0x8, addend: 0x0, symName: '__ZN4core3ptr59drop_in_place$LT$serde_derive..internals..attr..TagType$GT$17h8ebcadab1e08c727E', symObjAddr: 0x6F70, symBinAddr: 0x73FB0, symSize: 0x70 }
  - { offsetInCU: 0x1B78E, offset: 0x1700A2, size: 0x8, addend: 0x0, symName: '__ZN4core3ptr60drop_in_place$LT$alloc..vec..Vec$LT$syn..lit..LitStr$GT$$GT$17hb183a764361ee806E.llvm.3230814285715783944', symObjAddr: 0x6FE0, symBinAddr: 0x74020, symSize: 0xC0 }
  - { offsetInCU: 0x1BC0C, offset: 0x170520, size: 0x8, addend: 0x0, symName: '__ZN4core3ptr61drop_in_place$LT$alloc..boxed..Box$LT$syn..expr..Expr$GT$$GT$17hcb812af949707350E', symObjAddr: 0x70A0, symBinAddr: 0x740E0, symSize: 0x50 }
  - { offsetInCU: 0x1BDE3, offset: 0x1706F7, size: 0x8, addend: 0x0, symName: '__ZN4core3ptr61drop_in_place$LT$syn..path..ParenthesizedGenericArguments$GT$17h2cda518d73cfbc65E', symObjAddr: 0x70F0, symBinAddr: 0x74130, symSize: 0x170 }
  - { offsetInCU: 0x1C3AA, offset: 0x170CBE, size: 0x8, addend: 0x0, symName: '__ZN4core3ptr62drop_in_place$LT$syn..path..AngleBracketedGenericArguments$GT$17h532d3ccffb7c0f6eE', symObjAddr: 0x7260, symBinAddr: 0x742A0, symSize: 0x120 }
  - { offsetInCU: 0x1C7C0, offset: 0x1710D4, size: 0x8, addend: 0x0, symName: '__ZN4core3ptr63drop_in_place$LT$alloc..boxed..Box$LT$syn..lit..LitRepr$GT$$GT$17h4f0b7f87f46ca722E.llvm.3230814285715783944', symObjAddr: 0x7380, symBinAddr: 0x743C0, symSize: 0x60 }
  - { offsetInCU: 0x1CAB5, offset: 0x1713C9, size: 0x8, addend: 0x0, symName: '__ZN4core3ptr64drop_in_place$LT$alloc..boxed..Box$LT$syn..pat..FieldPat$GT$$GT$17h24cd16a7bd79a0afE', symObjAddr: 0x73E0, symBinAddr: 0x74420, symSize: 0x140 }
  - { offsetInCU: 0x1D160, offset: 0x171A74, size: 0x8, addend: 0x0, symName: '__ZN4core3ptr64drop_in_place$LT$alloc..boxed..Box$LT$syn..ty..BareFnArg$GT$$GT$17h8d6c5b973f90cb46E', symObjAddr: 0x7520, symBinAddr: 0x74560, symSize: 0x140 }
  - { offsetInCU: 0x1D6A3, offset: 0x171FB7, size: 0x8, addend: 0x0, symName: '__ZN4core3ptr65drop_in_place$LT$alloc..vec..Vec$LT$alloc..string..String$GT$$GT$17h9c0d329333b75942E', symObjAddr: 0x7660, symBinAddr: 0x746A0, symSize: 0x80 }
  - { offsetInCU: 0x1D907, offset: 0x17221B, size: 0x8, addend: 0x0, symName: '__ZN4core3ptr65drop_in_place$LT$core..option..Option$LT$syn..expr..Label$GT$$GT$17h49c37bc37ca5807aE', symObjAddr: 0x76E0, symBinAddr: 0x74720, symSize: 0x30 }
  - { offsetInCU: 0x1DA42, offset: 0x172356, size: 0x8, addend: 0x0, symName: '__ZN4core3ptr65drop_in_place$LT$core..option..Option$LT$syn..path..QSelf$GT$$GT$17hcf801102a0c1571fE', symObjAddr: 0x7710, symBinAddr: 0x74750, symSize: 0x50 }
  - { offsetInCU: 0x1DBDB, offset: 0x1724EF, size: 0x8, addend: 0x0, symName: '__ZN4core3ptr66drop_in_place$LT$core..option..Option$LT$syn..pat..PatRest$GT$$GT$17ha0b10c3084c29dd7E', symObjAddr: 0x7760, symBinAddr: 0x747A0, symSize: 0xE0 }
  - { offsetInCU: 0x1DE5F, offset: 0x172773, size: 0x8, addend: 0x0, symName: '__ZN4core3ptr67drop_in_place$LT$alloc..boxed..Box$LT$syn..expr..FieldValue$GT$$GT$17h51140dec2dd742b5E', symObjAddr: 0x7840, symBinAddr: 0x74880, symSize: 0x140 }
  - { offsetInCU: 0x1E363, offset: 0x172C77, size: 0x8, addend: 0x0, symName: '__ZN4core3ptr67drop_in_place$LT$serde_derive..internals..attr..BorrowAttribute$GT$17h809f9de5e408aa2eE', symObjAddr: 0x7980, symBinAddr: 0x749C0, symSize: 0x100 }
  - { offsetInCU: 0x1E73A, offset: 0x17304E, size: 0x8, addend: 0x0, symName: '__ZN4core3ptr68drop_in_place$LT$alloc..boxed..Box$LT$syn..path..PathSegment$GT$$GT$17h6663076be8cb9e8fE', symObjAddr: 0x7A80, symBinAddr: 0x74AC0, symSize: 0x190 }
  - { offsetInCU: 0x1EE18, offset: 0x17372C, size: 0x8, addend: 0x0, symName: '__ZN4core3ptr70drop_in_place$LT$core..option..Option$LT$syn..ty..BareVariadic$GT$$GT$17h006e7519360f59bbE', symObjAddr: 0x7C10, symBinAddr: 0x74C50, symSize: 0x120 }
  - { offsetInCU: 0x1F345, offset: 0x173C59, size: 0x8, addend: 0x0, symName: '__ZN4core3ptr72drop_in_place$LT$alloc..boxed..Box$LT$syn..path..GenericArgument$GT$$GT$17h9e43a058d82d49aaE', symObjAddr: 0x7D30, symBinAddr: 0x74D70, symSize: 0x1D0 }
  - { offsetInCU: 0x1F8E8, offset: 0x1741FC, size: 0x8, addend: 0x0, symName: '__ZN4core3ptr72drop_in_place$LT$core..option..Option$LT$syn..lifetime..Lifetime$GT$$GT$17h2cbddfd17a7fb6a0E', symObjAddr: 0x7F00, symBinAddr: 0x74F40, symSize: 0x30 }
  - { offsetInCU: 0x1FA04, offset: 0x174318, size: 0x8, addend: 0x0, symName: '__ZN4core3ptr73drop_in_place$LT$alloc..boxed..Box$LT$syn..generics..GenericParam$GT$$GT$17hdf8f6b3d2d504eeeE', symObjAddr: 0x7F30, symBinAddr: 0x74F70, symSize: 0x80 }
  - { offsetInCU: 0x1FB7C, offset: 0x174490, size: 0x8, addend: 0x0, symName: '__ZN4core3ptr73drop_in_place$LT$alloc..vec..Vec$LT$syn..generics..WherePredicate$GT$$GT$17hbdd9b5058924e659E.llvm.3230814285715783944', symObjAddr: 0x7FB0, symBinAddr: 0x74FF0, symSize: 0xD0 }
  - { offsetInCU: 0x1FE09, offset: 0x17471D, size: 0x8, addend: 0x0, symName: '__ZN4core3ptr75drop_in_place$LT$alloc..boxed..Box$LT$syn..generics..TypeParamBound$GT$$GT$17he16e1f4f3b231893E', symObjAddr: 0x8080, symBinAddr: 0x750C0, symSize: 0xB0 }
  - { offsetInCU: 0x20107, offset: 0x174A1B, size: 0x8, addend: 0x0, symName: '__ZN4core3ptr77drop_in_place$LT$serde_derive..internals..attr..Attr$LT$syn..ty..Type$GT$$GT$17hadd47f9c19bec56dE', symObjAddr: 0x8130, symBinAddr: 0x75170, symSize: 0x50 }
  - { offsetInCU: 0x2018A, offset: 0x174A9E, size: 0x8, addend: 0x0, symName: '__ZN4core3ptr79drop_in_place$LT$serde_derive..internals..attr..Attr$LT$syn..path..Path$GT$$GT$17h4db2d79038a8aa6cE', symObjAddr: 0x8180, symBinAddr: 0x751C0, symSize: 0x50 }
  - { offsetInCU: 0x20245, offset: 0x174B59, size: 0x8, addend: 0x0, symName: '__ZN4core3ptr82drop_in_place$LT$core..result..Result$LT$syn..ty..Type$C$syn..error..Error$GT$$GT$17h1aaa16b8067d117aE', symObjAddr: 0x81D0, symBinAddr: 0x75210, symSize: 0xA0 }
  - { offsetInCU: 0x20537, offset: 0x174E4B, size: 0x8, addend: 0x0, symName: '__ZN4core3ptr83drop_in_place$LT$serde_derive..internals..attr..Attr$LT$syn..expr..ExprPath$GT$$GT$17h6772cc2b8202b7f5E', symObjAddr: 0x8270, symBinAddr: 0x752B0, symSize: 0x60 }
  - { offsetInCU: 0x205B4, offset: 0x174EC8, size: 0x8, addend: 0x0, symName: '__ZN4core3ptr83drop_in_place$LT$serde_derive..internals..attr..VecAttr$LT$syn..lit..LitStr$GT$$GT$17h4051a13665ec82ceE.llvm.3230814285715783944', symObjAddr: 0x82D0, symBinAddr: 0x75310, symSize: 0xE0 }
  - { offsetInCU: 0x209F1, offset: 0x175305, size: 0x8, addend: 0x0, symName: '__ZN4core3ptr84drop_in_place$LT$core..result..Result$LT$syn..path..Path$C$syn..error..Error$GT$$GT$17h3a0fa5efaeb567b8E', symObjAddr: 0x83B0, symBinAddr: 0x753F0, symSize: 0xA0 }
  - { offsetInCU: 0x20CDD, offset: 0x1755F1, size: 0x8, addend: 0x0, symName: '__ZN4core3ptr85drop_in_place$LT$serde_derive..internals..attr..Attr$LT$alloc..string..String$GT$$GT$17h10fb8899392526f8E', symObjAddr: 0x8450, symBinAddr: 0x75490, symSize: 0x60 }
  - { offsetInCU: 0x20F72, offset: 0x175886, size: 0x8, addend: 0x0, symName: '__ZN4core3ptr86drop_in_place$LT$syn..punctuated..Punctuated$LT$syn..pat..Pat$C$syn..token..Or$GT$$GT$17h449b7e6b5537b210E', symObjAddr: 0x84B0, symBinAddr: 0x754F0, symSize: 0x120 }
  - { offsetInCU: 0x213B8, offset: 0x175CCC, size: 0x8, addend: 0x0, symName: '__ZN4core3ptr87drop_in_place$LT$core..option..Option$LT$alloc..boxed..Box$LT$syn..pat..Pat$GT$$GT$$GT$17hbff747ffa5f39bd3E', symObjAddr: 0x85D0, symBinAddr: 0x75610, symSize: 0x50 }
  - { offsetInCU: 0x2152A, offset: 0x175E3E, size: 0x8, addend: 0x0, symName: '__ZN4core3ptr87drop_in_place$LT$core..option..Option$LT$alloc..boxed..Box$LT$syn..ty..Type$GT$$GT$$GT$17hd404efde6702ff0dE', symObjAddr: 0x8620, symBinAddr: 0x75660, symSize: 0x50 }
  - { offsetInCU: 0x2169C, offset: 0x175FB0, size: 0x8, addend: 0x0, symName: '__ZN4core3ptr88drop_in_place$LT$core..result..Result$LT$syn..expr..ExprPath$C$syn..error..Error$GT$$GT$17h8998eb6a0b650455E', symObjAddr: 0x8670, symBinAddr: 0x756B0, symSize: 0xA0 }
  - { offsetInCU: 0x21988, offset: 0x17629C, size: 0x8, addend: 0x0, symName: '__ZN4core3ptr88drop_in_place$LT$serde_derive..internals..attr..VecAttr$LT$alloc..string..String$GT$$GT$17hc831a7ff07318d45E', symObjAddr: 0x8710, symBinAddr: 0x75750, symSize: 0xA0 }
  - { offsetInCU: 0x21BB6, offset: 0x1764CA, size: 0x8, addend: 0x0, symName: '__ZN4core3ptr89drop_in_place$LT$core..option..Option$LT$alloc..boxed..Box$LT$syn..expr..Expr$GT$$GT$$GT$17h981df8604670027bE', symObjAddr: 0x87B0, symBinAddr: 0x757F0, symSize: 0x50 }
  - { offsetInCU: 0x21D66, offset: 0x17667A, size: 0x8, addend: 0x0, symName: '__ZN4core3ptr89drop_in_place$LT$syn..punctuated..Punctuated$LT$syn..pat..Pat$C$syn..token..Comma$GT$$GT$17h8165fd7eb02b8118E', symObjAddr: 0x8800, symBinAddr: 0x75840, symSize: 0x120 }
  - { offsetInCU: 0x221C3, offset: 0x176AD7, size: 0x8, addend: 0x0, symName: '__ZN4core3ptr89drop_in_place$LT$syn..punctuated..Punctuated$LT$syn..ty..Type$C$syn..token..Comma$GT$$GT$17h23a774170e770b9aE', symObjAddr: 0x8920, symBinAddr: 0x75960, symSize: 0x120 }
  - { offsetInCU: 0x2260D, offset: 0x176F21, size: 0x8, addend: 0x0, symName: '__ZN4core3ptr90drop_in_place$LT$core..option..Option$LT$syn..path..AngleBracketedGenericArguments$GT$$GT$17h28a1c7f1e00311d1E', symObjAddr: 0x8A40, symBinAddr: 0x75A80, symSize: 0x130 }
  - { offsetInCU: 0x22A78, offset: 0x17738C, size: 0x8, addend: 0x0, symName: '__ZN4core3ptr91drop_in_place$LT$syn..punctuated..Punctuated$LT$syn..expr..Expr$C$syn..token..Comma$GT$$GT$17ha27fe7b672ce38bdE', symObjAddr: 0x8B70, symBinAddr: 0x75BB0, symSize: 0x120 }
  - { offsetInCU: 0x22ED5, offset: 0x1777E9, size: 0x8, addend: 0x0, symName: '__ZN4core3ptr94drop_in_place$LT$syn..punctuated..Punctuated$LT$syn..pat..FieldPat$C$syn..token..Comma$GT$$GT$17hd9ad3a9ff53c2a49E', symObjAddr: 0x8C90, symBinAddr: 0x75CD0, symSize: 0xF0 }
  - { offsetInCU: 0x2319F, offset: 0x177AB3, size: 0x8, addend: 0x0, symName: '__ZN4core3ptr94drop_in_place$LT$syn..punctuated..Punctuated$LT$syn..ty..BareFnArg$C$syn..token..Comma$GT$$GT$17h3ad0ecbb9acc3d94E', symObjAddr: 0x8D80, symBinAddr: 0x75DC0, symSize: 0xF0 }
  - { offsetInCU: 0x23469, offset: 0x177D7D, size: 0x8, addend: 0x0, symName: '__ZN4core3ptr95drop_in_place$LT$core..option..Option$LT$serde_derive..internals..attr..BorrowAttribute$GT$$GT$17h870c4275904023f2E', symObjAddr: 0x8E70, symBinAddr: 0x75EB0, symSize: 0x110 }
  - { offsetInCU: 0x23857, offset: 0x17816B, size: 0x8, addend: 0x0, symName: '__ZN4core3ptr96drop_in_place$LT$alloc..vec..Vec$LT$alloc..vec..Vec$LT$syn..generics..WherePredicate$GT$$GT$$GT$17hb5903a71974a1fc7E', symObjAddr: 0x8F80, symBinAddr: 0x75FC0, symSize: 0x60 }
  - { offsetInCU: 0x23A4C, offset: 0x178360, size: 0x8, addend: 0x0, symName: '__ZN4core3ptr96drop_in_place$LT$core..option..Option$LT$alloc..boxed..Box$LT$syn..path..PathSegment$GT$$GT$$GT$17h15008b031e78f545E', symObjAddr: 0x8FE0, symBinAddr: 0x76020, symSize: 0x90 }
  - { offsetInCU: 0x23CCE, offset: 0x1785E2, size: 0x8, addend: 0x0, symName: '__ZN4core3ptr97drop_in_place$LT$syn..punctuated..Punctuated$LT$syn..expr..FieldValue$C$syn..token..Comma$GT$$GT$17h7dd72fd62fffe077E', symObjAddr: 0x9070, symBinAddr: 0x760B0, symSize: 0xF0 }
  - { offsetInCU: 0x23F98, offset: 0x1788AC, size: 0x8, addend: 0x0, symName: '__ZN4core3ptr98drop_in_place$LT$alloc..vec..Vec$LT$$LP$syn..path..GenericArgument$C$syn..token..Comma$RP$$GT$$GT$17h5d136a881836b500E', symObjAddr: 0x9160, symBinAddr: 0x761A0, symSize: 0xD0 }
  - { offsetInCU: 0x242A1, offset: 0x178BB5, size: 0x8, addend: 0x0, symName: '__ZN4core3ptr98drop_in_place$LT$syn..punctuated..Punctuated$LT$syn..lifetime..Lifetime$C$syn..token..Plus$GT$$GT$17haf6d03c18957eb1aE', symObjAddr: 0x9230, symBinAddr: 0x76270, symSize: 0xC0 }
  - { offsetInCU: 0x25140, offset: 0x179A54, size: 0x8, addend: 0x0, symName: '__ZN53_$LT$core..fmt..Error$u20$as$u20$core..fmt..Debug$GT$3fmt17h43ae5cec9623af13E', symObjAddr: 0x9310, symBinAddr: 0x76350, symSize: 0x20 }
  - { offsetInCU: 0x2BA90, offset: 0x1803A4, size: 0x8, addend: 0x0, symName: __ZN12serde_derive9internals4attr5unraw17h2e88782a80bc2a3dE, symObjAddr: 0xB8E0, symBinAddr: 0x788B0, symSize: 0x190 }
  - { offsetInCU: 0x2CBB8, offset: 0x1814CC, size: 0x8, addend: 0x0, symName: __ZN12serde_derive9internals4attr14get_ser_and_de17heb9c3d7088ec893fE.llvm.3230814285715783944, symObjAddr: 0x12010, symBinAddr: 0x7EEA0, symSize: 0x570 }
  - { offsetInCU: 0x2DAA5, offset: 0x1823B9, size: 0x8, addend: 0x0, symName: __ZN12serde_derive9internals4attr11get_renames17hdb6e43e955440cdcE, symObjAddr: 0x12580, symBinAddr: 0x7F410, symSize: 0x1B0 }
  - { offsetInCU: 0x2DB64, offset: 0x182478, size: 0x8, addend: 0x0, symName: __ZN12serde_derive9internals4attr20get_multiple_renames17h65c239e2590bd6ccE, symObjAddr: 0x12730, symBinAddr: 0x7F5C0, symSize: 0x210 }
  - { offsetInCU: 0x2DD44, offset: 0x182658, size: 0x8, addend: 0x0, symName: __ZN12serde_derive9internals4attr20get_where_predicates17h7509e6d26e96e4d9E, symObjAddr: 0x12940, symBinAddr: 0x7F7D0, symSize: 0x7A0 }
  - { offsetInCU: 0x2E813, offset: 0x183127, size: 0x8, addend: 0x0, symName: __ZN12serde_derive9internals4attr12get_lit_str217hdba69de685e8226cE, symObjAddr: 0x13110, symBinAddr: 0x7FF70, symSize: 0x2D0 }
  - { offsetInCU: 0x2EB3E, offset: 0x183452, size: 0x8, addend: 0x0, symName: __ZN12serde_derive9internals4attr19parse_lit_into_path17hba15d83f5f179e7dE, symObjAddr: 0x133E0, symBinAddr: 0x80240, symSize: 0x2C0 }
  - { offsetInCU: 0x2F56B, offset: 0x183E7F, size: 0x8, addend: 0x0, symName: __ZN12serde_derive9internals4attr24parse_lit_into_expr_path17hf908cc90ffd27c0bE, symObjAddr: 0x136A0, symBinAddr: 0x80500, symSize: 0x2C0 }
  - { offsetInCU: 0x2FF90, offset: 0x1848A4, size: 0x8, addend: 0x0, symName: __ZN12serde_derive9internals4attr20parse_lit_into_where17hc524f6c5d7fd9dccE, symObjAddr: 0x13960, symBinAddr: 0x807C0, symSize: 0x1E0 }
  - { offsetInCU: 0x30453, offset: 0x184D67, size: 0x8, addend: 0x0, symName: __ZN12serde_derive9internals4attr17parse_lit_into_ty17hce9f6dd51beba636E, symObjAddr: 0x13B40, symBinAddr: 0x809A0, symSize: 0x2C0 }
  - { offsetInCU: 0x30E27, offset: 0x18573B, size: 0x8, addend: 0x0, symName: __ZN12serde_derive9internals4attr24parse_lit_into_lifetimes17h1bcbca05ac7dbd91E, symObjAddr: 0x13E00, symBinAddr: 0x80C60, symSize: 0x2E0 }
  - { offsetInCU: 0x31735, offset: 0x186049, size: 0x8, addend: 0x0, symName: __ZN12serde_derive9internals4attr32is_implicitly_borrowed_reference17ha8f5bf7cfd375fb2E, symObjAddr: 0x140E0, symBinAddr: 0x80F40, symSize: 0xF0 }
  - { offsetInCU: 0x3198D, offset: 0x1862A1, size: 0x8, addend: 0x0, symName: __ZN12serde_derive9internals4attr11is_slice_u817h06d1972e1c6272ccE, symObjAddr: 0x141D0, symBinAddr: 0x81030, symSize: 0x50 }
  - { offsetInCU: 0x31A2D, offset: 0x186341, size: 0x8, addend: 0x0, symName: __ZN12serde_derive9internals4attr17is_primitive_type17hb417a973bd499620E, symObjAddr: 0x14220, symBinAddr: 0x81080, symSize: 0x180 }
  - { offsetInCU: 0x3203A, offset: 0x18694E, size: 0x8, addend: 0x0, symName: __ZN12serde_derive9internals4attr17is_primitive_path17h9b604dd4f61ff3a2E, symObjAddr: 0x143A0, symBinAddr: 0x81200, symSize: 0x150 }
  - { offsetInCU: 0x324F6, offset: 0x186E0A, size: 0x8, addend: 0x0, symName: __ZN12serde_derive9internals4attr20borrowable_lifetimes17h857ecbc608015506E, symObjAddr: 0x144F0, symBinAddr: 0x81350, symSize: 0x1D0 }
  - { offsetInCU: 0x329CB, offset: 0x1872DF, size: 0x8, addend: 0x0, symName: __ZN12serde_derive9internals4attr17collect_lifetimes17h82b6e27f445c8c39E.llvm.3230814285715783944, symObjAddr: 0x146C0, symBinAddr: 0x81520, symSize: 0x4A0 }
  - { offsetInCU: 0x337E2, offset: 0x1880F6, size: 0x8, addend: 0x0, symName: __ZN12serde_derive9internals4attr29collect_lifetimes_from_tokens17h0ebe2687ffcae364E, symObjAddr: 0x14B60, symBinAddr: 0x819C0, symSize: 0x204 }
  - { offsetInCU: 0x33E6B, offset: 0x18877F, size: 0x8, addend: 0x0, symName: '__ZN40_$LT$F$u20$as$u20$syn..parse..Parser$GT$14__parse_scoped17h04cea7084b757b45E', symObjAddr: 0x0, symBinAddr: 0x6D040, symSize: 0x680 }
  - { offsetInCU: 0x350E3, offset: 0x1899F7, size: 0x8, addend: 0x0, symName: '__ZN40_$LT$F$u20$as$u20$syn..parse..Parser$GT$14__parse_scoped17h3c8eb9f1ef954117E', symObjAddr: 0x680, symBinAddr: 0x6D6C0, symSize: 0xA40 }
  - { offsetInCU: 0x3798E, offset: 0x18C2A2, size: 0x8, addend: 0x0, symName: '__ZN52_$LT$syn..token..Eq$u20$as$u20$syn..token..Token$GT$7display17h89ee416721dc4a7dE', symObjAddr: 0x92F0, symBinAddr: 0x76330, symSize: 0x20 }
  - { offsetInCU: 0x379B3, offset: 0x18C2C7, size: 0x8, addend: 0x0, symName: '__ZN55_$LT$syn..token..Paren$u20$as$u20$syn..token..Token$GT$7display17h9688fb4fe1a07c3eE', symObjAddr: 0x9330, symBinAddr: 0x76370, symSize: 0x20 }
  - { offsetInCU: 0x3D986, offset: 0x19229A, size: 0x8, addend: 0x0, symName: '__ZN12serde_derive9internals4attr13Attr$LT$T$GT$3set17h7601fdc6c099391dE', symObjAddr: 0x9520, symBinAddr: 0x76560, symSize: 0x190 }
  - { offsetInCU: 0x3DB54, offset: 0x192468, size: 0x8, addend: 0x0, symName: '__ZN12serde_derive9internals4attr13Attr$LT$T$GT$3set17h79c15279d59aeb77E', symObjAddr: 0x96B0, symBinAddr: 0x766F0, symSize: 0x1A0 }
  - { offsetInCU: 0x3DD26, offset: 0x19263A, size: 0x8, addend: 0x0, symName: '__ZN12serde_derive9internals4attr13Attr$LT$T$GT$3set17h7a2150709a00af8eE', symObjAddr: 0x9850, symBinAddr: 0x76890, symSize: 0x1E0 }
  - { offsetInCU: 0x3DF0B, offset: 0x19281F, size: 0x8, addend: 0x0, symName: '__ZN12serde_derive9internals4attr13Attr$LT$T$GT$3set17h7ed1448f5d364097E', symObjAddr: 0x9A30, symBinAddr: 0x76A70, symSize: 0x210 }
  - { offsetInCU: 0x3E114, offset: 0x192A28, size: 0x8, addend: 0x0, symName: '__ZN12serde_derive9internals4attr13Attr$LT$T$GT$3set17h835006af49ad1b21E', symObjAddr: 0x9C40, symBinAddr: 0x76C80, symSize: 0x1F0 }
  - { offsetInCU: 0x3E34E, offset: 0x192C62, size: 0x8, addend: 0x0, symName: '__ZN12serde_derive9internals4attr13Attr$LT$T$GT$3set17h91dc655e51f6ca81E', symObjAddr: 0x9E30, symBinAddr: 0x76E70, symSize: 0x230 }
  - { offsetInCU: 0x3E508, offset: 0x192E1C, size: 0x8, addend: 0x0, symName: '__ZN12serde_derive9internals4attr13Attr$LT$T$GT$3set17hab7e553a21ddc01fE', symObjAddr: 0xA060, symBinAddr: 0x770A0, symSize: 0x3A0 }
  - { offsetInCU: 0x3ECFC, offset: 0x193610, size: 0x8, addend: 0x0, symName: '__ZN12serde_derive9internals4attr13Attr$LT$T$GT$3set17hb0b7112248ea8d6cE', symObjAddr: 0xA400, symBinAddr: 0x77440, symSize: 0x1B0 }
  - { offsetInCU: 0x3EEA6, offset: 0x1937BA, size: 0x8, addend: 0x0, symName: '__ZN12serde_derive9internals4attr13Attr$LT$T$GT$3set17hb13f3db22dee5d7bE', symObjAddr: 0xA5B0, symBinAddr: 0x775F0, symSize: 0x200 }
  - { offsetInCU: 0x3F396, offset: 0x193CAA, size: 0x8, addend: 0x0, symName: '__ZN12serde_derive9internals4attr13Attr$LT$T$GT$3set17he4be6207aedc979dE', symObjAddr: 0xA7B0, symBinAddr: 0x777F0, symSize: 0x3D0 }
  - { offsetInCU: 0x3FD56, offset: 0x19466A, size: 0x8, addend: 0x0, symName: '__ZN12serde_derive9internals4attr13Attr$LT$T$GT$7set_opt17h6a4979484dab4bfcE', symObjAddr: 0xAB80, symBinAddr: 0x77BC0, symSize: 0x280 }
  - { offsetInCU: 0x3FFD3, offset: 0x1948E7, size: 0x8, addend: 0x0, symName: '__ZN12serde_derive9internals4attr13Attr$LT$T$GT$7set_opt17h978624de200d8a9bE', symObjAddr: 0xAE20, symBinAddr: 0x77E40, symSize: 0x370 }
  - { offsetInCU: 0x40766, offset: 0x19507A, size: 0x8, addend: 0x0, symName: '__ZN12serde_derive9internals4attr16VecAttr$LT$T$GT$6insert17h3c49a5a3b7fcc847E', symObjAddr: 0xB1E0, symBinAddr: 0x781B0, symSize: 0x110 }
  - { offsetInCU: 0x4098F, offset: 0x1952A3, size: 0x8, addend: 0x0, symName: '__ZN12serde_derive9internals4attr16VecAttr$LT$T$GT$6insert17h80418e1723e7762cE', symObjAddr: 0xB2F0, symBinAddr: 0x782C0, symSize: 0x130 }
  - { offsetInCU: 0x40BB2, offset: 0x1954C6, size: 0x8, addend: 0x0, symName: '__ZN12serde_derive9internals4attr16VecAttr$LT$T$GT$6insert17hff21552717295a1bE', symObjAddr: 0xB420, symBinAddr: 0x783F0, symSize: 0x140 }
  - { offsetInCU: 0x40F9E, offset: 0x1958B2, size: 0x8, addend: 0x0, symName: '__ZN12serde_derive9internals4attr16VecAttr$LT$T$GT$11at_most_one17h3b43dbed6119c7f2E', symObjAddr: 0xB560, symBinAddr: 0x78530, symSize: 0x1A0 }
  - { offsetInCU: 0x413DA, offset: 0x195CEE, size: 0x8, addend: 0x0, symName: '__ZN12serde_derive9internals4attr16VecAttr$LT$T$GT$11at_most_one17hb7221dabc536b17aE.llvm.3230814285715783944', symObjAddr: 0xB700, symBinAddr: 0x786D0, symSize: 0x1E0 }
  - { offsetInCU: 0x41BC6, offset: 0x1964DA, size: 0x8, addend: 0x0, symName: __ZN12serde_derive9internals4attr4Name10from_attrs17he10a0c1481c1d377E, symObjAddr: 0xBA70, symBinAddr: 0x78A40, symSize: 0x3D0 }
  - { offsetInCU: 0x42ED6, offset: 0x1977EA, size: 0x8, addend: 0x0, symName: __ZN12serde_derive9internals4attr9Container8from_ast17hc893545c6cd20354E, symObjAddr: 0xBE40, symBinAddr: 0x78E10, symSize: 0x2EB0 }
  - { offsetInCU: 0x45331, offset: 0x199C45, size: 0x8, addend: 0x0, symName: __ZN12serde_derive9internals4attr7Variant8from_ast17hfd3a8b6a618a104aE, symObjAddr: 0xEE30, symBinAddr: 0x7BCC0, symSize: 0xF30 }
  - { offsetInCU: 0x45FB0, offset: 0x19A8C4, size: 0x8, addend: 0x0, symName: __ZN12serde_derive9internals4attr7Variant15rename_by_rules17h5c066b5ca842f1d6E, symObjAddr: 0xFD60, symBinAddr: 0x7CBF0, symSize: 0x120 }
  - { offsetInCU: 0x4633A, offset: 0x19AC4E, size: 0x8, addend: 0x0, symName: __ZN12serde_derive9internals4attr7Variant9ser_bound17he906fe5057741e2bE, symObjAddr: 0xFE80, symBinAddr: 0x7CD10, symSize: 0x20 }
  - { offsetInCU: 0x46417, offset: 0x19AD2B, size: 0x8, addend: 0x0, symName: __ZN12serde_derive9internals4attr7Variant8de_bound17h40291b33b7da3f88E, symObjAddr: 0xFEA0, symBinAddr: 0x7CD30, symSize: 0x20 }
  - { offsetInCU: 0x46D94, offset: 0x19B6A8, size: 0x8, addend: 0x0, symName: __ZN12serde_derive9internals4attr5Field8from_ast17h2339bc8359ef3fc3E, symObjAddr: 0xFEC0, symBinAddr: 0x7CD50, symSize: 0x2040 }
  - { offsetInCU: 0x4A053, offset: 0x19E967, size: 0x8, addend: 0x0, symName: __ZN12serde_derive9internals4attr5Field15rename_by_rules17h9ac3fe8ecdc3d386E, symObjAddr: 0x11F00, symBinAddr: 0x7ED90, symSize: 0xF0 }
  - { offsetInCU: 0x4A497, offset: 0x19EDAB, size: 0x8, addend: 0x0, symName: __ZN12serde_derive9internals4attr5Field9ser_bound17h44784d50679615bcE, symObjAddr: 0x11FF0, symBinAddr: 0x7EE80, symSize: 0x10 }
  - { offsetInCU: 0x4A574, offset: 0x19EE88, size: 0x8, addend: 0x0, symName: __ZN12serde_derive9internals4attr5Field8de_bound17hd78a29de4480e699E, symObjAddr: 0x12000, symBinAddr: 0x7EE90, symSize: 0x10 }
  - { offsetInCU: 0x1E, offset: 0x1A6293, size: 0x8, addend: 0x0, symName: __ZN5alloc7raw_vec11finish_grow17h15bcf4ef229c4e17E.llvm.16498628456193633314, symObjAddr: 0x0, symBinAddr: 0x81BD0, symSize: 0xA0 }
  - { offsetInCU: 0x59F7, offset: 0x1ABC6C, size: 0x8, addend: 0x0, symName: __ZN5alloc7raw_vec11finish_grow17h15bcf4ef229c4e17E.llvm.16498628456193633314, symObjAddr: 0x0, symBinAddr: 0x81BD0, symSize: 0xA0 }
  - { offsetInCU: 0x71C3, offset: 0x1AD438, size: 0x8, addend: 0x0, symName: '__ZN5alloc7raw_vec19RawVec$LT$T$C$A$GT$7reserve21do_reserve_and_handle17h0f0c41196d560c56E', symObjAddr: 0xD70, symBinAddr: 0x2BDB20, symSize: 0x0 }
  - { offsetInCU: 0x7515, offset: 0x1AD78A, size: 0x8, addend: 0x0, symName: '__ZN5alloc7raw_vec19RawVec$LT$T$C$A$GT$7reserve21do_reserve_and_handle17h247ca49cc3a0244dE', symObjAddr: 0xE30, symBinAddr: 0x2BDBE0, symSize: 0xD0 }
  - { offsetInCU: 0x7868, offset: 0x1ADADD, size: 0x8, addend: 0x0, symName: '__ZN5alloc7raw_vec19RawVec$LT$T$C$A$GT$7reserve21do_reserve_and_handle17h3e86f12067c64321E', symObjAddr: 0xF00, symBinAddr: 0x2BDCB0, symSize: 0xD0 }
  - { offsetInCU: 0x7BBB, offset: 0x1ADE30, size: 0x8, addend: 0x0, symName: '__ZN5alloc7raw_vec19RawVec$LT$T$C$A$GT$7reserve21do_reserve_and_handle17h50b432a6a1a3f723E', symObjAddr: 0xFD0, symBinAddr: 0x2BDD80, symSize: 0xD0 }
  - { offsetInCU: 0x7F0E, offset: 0x1AE183, size: 0x8, addend: 0x0, symName: '__ZN5alloc7raw_vec19RawVec$LT$T$C$A$GT$7reserve21do_reserve_and_handle17h7cf1e450a515bd38E', symObjAddr: 0x10A0, symBinAddr: 0x2BDE50, symSize: 0xB0 }
  - { offsetInCU: 0x8246, offset: 0x1AE4BB, size: 0x8, addend: 0x0, symName: '__ZN5alloc7raw_vec19RawVec$LT$T$C$A$GT$7reserve21do_reserve_and_handle17h86831eb0824c5d72E', symObjAddr: 0x1150, symBinAddr: 0x2BDF00, symSize: 0xD0 }
  - { offsetInCU: 0x8599, offset: 0x1AE80E, size: 0x8, addend: 0x0, symName: '__ZN5alloc7raw_vec19RawVec$LT$T$C$A$GT$7reserve21do_reserve_and_handle17hab44475bd021430bE', symObjAddr: 0x1220, symBinAddr: 0x2BDFD0, symSize: 0xD0 }
  - { offsetInCU: 0x88F2, offset: 0x1AEB67, size: 0x8, addend: 0x0, symName: '__ZN77_$LT$alloc..raw_vec..RawVec$LT$T$C$A$GT$$u20$as$u20$core..ops..drop..Drop$GT$4drop17h0cbff58af4e15899E', symObjAddr: 0x13F0, symBinAddr: 0x82360, symSize: 0x0 }
  - { offsetInCU: 0x89EF, offset: 0x1AEC64, size: 0x8, addend: 0x0, symName: '__ZN77_$LT$alloc..raw_vec..RawVec$LT$T$C$A$GT$$u20$as$u20$core..ops..drop..Drop$GT$4drop17h1624f9b4fcb751d8E', symObjAddr: 0x1480, symBinAddr: 0x82390, symSize: 0x0 }
  - { offsetInCU: 0x8AEC, offset: 0x1AED61, size: 0x8, addend: 0x0, symName: '__ZN77_$LT$alloc..raw_vec..RawVec$LT$T$C$A$GT$$u20$as$u20$core..ops..drop..Drop$GT$4drop17h588dd1e97c744834E', symObjAddr: 0x1660, symBinAddr: 0x823C0, symSize: 0x0 }
  - { offsetInCU: 0x8BE9, offset: 0x1AEE5E, size: 0x8, addend: 0x0, symName: '__ZN77_$LT$alloc..raw_vec..RawVec$LT$T$C$A$GT$$u20$as$u20$core..ops..drop..Drop$GT$4drop17hec36af44c5392276E', symObjAddr: 0x18C0, symBinAddr: 0x823F0, symSize: 0x30 }
  - { offsetInCU: 0xEBD2, offset: 0x1B4E47, size: 0x8, addend: 0x0, symName: '__ZN5alloc7raw_vec19RawVec$LT$T$C$A$GT$16reserve_for_push17h00b4747c1e690cd9E', symObjAddr: 0x5C0, symBinAddr: 0x81C70, symSize: 0x0 }
  - { offsetInCU: 0xF096, offset: 0x1B530B, size: 0x8, addend: 0x0, symName: '__ZN5alloc7raw_vec19RawVec$LT$T$C$A$GT$16reserve_for_push17h44be43a740b0fd11E', symObjAddr: 0x690, symBinAddr: 0x81D40, symSize: 0xB0 }
  - { offsetInCU: 0xF54D, offset: 0x1B57C2, size: 0x8, addend: 0x0, symName: '__ZN5alloc7raw_vec19RawVec$LT$T$C$A$GT$16reserve_for_push17h4abf8db52bbc49b7E', symObjAddr: 0x740, symBinAddr: 0x81DF0, symSize: 0xC0 }
  - { offsetInCU: 0xFA2B, offset: 0x1B5CA0, size: 0x8, addend: 0x0, symName: '__ZN5alloc7raw_vec19RawVec$LT$T$C$A$GT$16reserve_for_push17h52e27b58d78b0da6E', symObjAddr: 0x800, symBinAddr: 0x81EB0, symSize: 0x0 }
  - { offsetInCU: 0xFEEF, offset: 0x1B6164, size: 0x8, addend: 0x0, symName: '__ZN5alloc7raw_vec19RawVec$LT$T$C$A$GT$16reserve_for_push17h5cf5220da40df4e0E', symObjAddr: 0x8C0, symBinAddr: 0x81F70, symSize: 0xD0 }
  - { offsetInCU: 0x103B3, offset: 0x1B6628, size: 0x8, addend: 0x0, symName: '__ZN5alloc7raw_vec19RawVec$LT$T$C$A$GT$16reserve_for_push17h71aa95ef89769222E', symObjAddr: 0x990, symBinAddr: 0x82040, symSize: 0xD0 }
  - { offsetInCU: 0x10878, offset: 0x1B6AED, size: 0x8, addend: 0x0, symName: '__ZN5alloc7raw_vec19RawVec$LT$T$C$A$GT$16reserve_for_push17h787c4db0ef03b65cE', symObjAddr: 0xA60, symBinAddr: 0x82110, symSize: 0x0 }
  - { offsetInCU: 0x10D3D, offset: 0x1B6FB2, size: 0x8, addend: 0x0, symName: '__ZN5alloc7raw_vec19RawVec$LT$T$C$A$GT$16reserve_for_push17hc74ddf26fe2e12ceE', symObjAddr: 0xB30, symBinAddr: 0x821E0, symSize: 0xC0 }
  - { offsetInCU: 0x11202, offset: 0x1B7477, size: 0x8, addend: 0x0, symName: '__ZN5alloc7raw_vec19RawVec$LT$T$C$A$GT$16reserve_for_push17hfba6ab9b087f9778E', symObjAddr: 0xBF0, symBinAddr: 0x822A0, symSize: 0xC0 }
  - { offsetInCU: 0x1E, offset: 0x1B832D, size: 0x8, addend: 0x0, symName: '__ZN102_$LT$core..iter..adapters..map..Map$LT$I$C$F$GT$$u20$as$u20$core..iter..traits..iterator..Iterator$GT$4fold17h08789a79ba250e01E', symObjAddr: 0x0, symBinAddr: 0x82420, symSize: 0x110 }
  - { offsetInCU: 0x279E, offset: 0x1BAAAD, size: 0x8, addend: 0x0, symName: '__ZN4core3ptr45drop_in_place$LT$proc_macro2..TokenStream$GT$17hcbbbd6ac69a3e46cE', symObjAddr: 0x1FA0, symBinAddr: 0x82F60, symSize: 0x140 }
  - { offsetInCU: 0x2CE6, offset: 0x1BAFF5, size: 0x8, addend: 0x0, symName: '__ZN4core3ptr71drop_in_place$LT$core..option..Option$LT$proc_macro2..TokenTree$GT$$GT$17h297acd3d86d9e07bE.llvm.479154095257454352', symObjAddr: 0x20E0, symBinAddr: 0x830A0, symSize: 0xB0 }
  - { offsetInCU: 0x3997, offset: 0x1BBCA6, size: 0x8, addend: 0x0, symName: '__ZN4core4iter8adapters3map8map_fold28_$u7b$$u7b$closure$u7d$$u7d$17h38caa1ea5bdab37fE.llvm.479154095257454352', symObjAddr: 0x2190, symBinAddr: 0x83150, symSize: 0x410 }
  - { offsetInCU: 0x3D90, offset: 0x1BC09F, size: 0x8, addend: 0x0, symName: '__ZN4core4iter8adapters3map8map_fold28_$u7b$$u7b$closure$u7d$$u7d$17hb8c67b73944f8e32E.llvm.479154095257454352', symObjAddr: 0x25A0, symBinAddr: 0x83560, symSize: 0x4D0 }
  - { offsetInCU: 0x43B2, offset: 0x1BC6C1, size: 0x8, addend: 0x0, symName: '__ZN4core4iter8adapters3map8map_fold28_$u7b$$u7b$closure$u7d$$u7d$17hc26177c0c7c1a4b1E.llvm.479154095257454352', symObjAddr: 0x2A70, symBinAddr: 0x83A30, symSize: 0x360 }
  - { offsetInCU: 0x45B1, offset: 0x1BC8C0, size: 0x8, addend: 0x0, symName: '__ZN4core4iter8adapters3map8map_fold28_$u7b$$u7b$closure$u7d$$u7d$17hc9fd739e67f10423E.llvm.479154095257454352', symObjAddr: 0x2DD0, symBinAddr: 0x83D90, symSize: 0x390 }
  - { offsetInCU: 0x47B9, offset: 0x1BCAC8, size: 0x8, addend: 0x0, symName: '__ZN102_$LT$core..iter..adapters..map..Map$LT$I$C$F$GT$$u20$as$u20$core..iter..traits..iterator..Iterator$GT$4fold17h08789a79ba250e01E', symObjAddr: 0x0, symBinAddr: 0x82420, symSize: 0x110 }
  - { offsetInCU: 0x4A0E, offset: 0x1BCD1D, size: 0x8, addend: 0x0, symName: '__ZN102_$LT$core..iter..adapters..map..Map$LT$I$C$F$GT$$u20$as$u20$core..iter..traits..iterator..Iterator$GT$4fold17h29d889a76a0e4b1bE', symObjAddr: 0x320, symBinAddr: 0x82530, symSize: 0x190 }
  - { offsetInCU: 0x500A, offset: 0x1BD319, size: 0x8, addend: 0x0, symName: '__ZN102_$LT$core..iter..adapters..map..Map$LT$I$C$F$GT$$u20$as$u20$core..iter..traits..iterator..Iterator$GT$4fold17h39f043c1810fdaeeE', symObjAddr: 0x5C0, symBinAddr: 0x826C0, symSize: 0x120 }
  - { offsetInCU: 0x5302, offset: 0x1BD611, size: 0x8, addend: 0x0, symName: '__ZN102_$LT$core..iter..adapters..map..Map$LT$I$C$F$GT$$u20$as$u20$core..iter..traits..iterator..Iterator$GT$4fold17h4961daa6e8e3792eE', symObjAddr: 0x6E0, symBinAddr: 0x827E0, symSize: 0x110 }
  - { offsetInCU: 0x571A, offset: 0x1BDA29, size: 0x8, addend: 0x0, symName: '__ZN102_$LT$core..iter..adapters..map..Map$LT$I$C$F$GT$$u20$as$u20$core..iter..traits..iterator..Iterator$GT$4fold17h81d241371d1bfe73E', symObjAddr: 0x7F0, symBinAddr: 0x828F0, symSize: 0x290 }
  - { offsetInCU: 0x5FD0, offset: 0x1BE2DF, size: 0x8, addend: 0x0, symName: '__ZN102_$LT$core..iter..adapters..map..Map$LT$I$C$F$GT$$u20$as$u20$core..iter..traits..iterator..Iterator$GT$4fold17hc451583a8f5d402eE', symObjAddr: 0x14C0, symBinAddr: 0x82B80, symSize: 0x170 }
  - { offsetInCU: 0x6594, offset: 0x1BE8A3, size: 0x8, addend: 0x0, symName: '__ZN102_$LT$core..iter..adapters..map..Map$LT$I$C$F$GT$$u20$as$u20$core..iter..traits..iterator..Iterator$GT$8try_fold17hcdd83db2bdc48214E', symObjAddr: 0x1D30, symBinAddr: 0x82CF0, symSize: 0x270 }
  - { offsetInCU: 0x1E, offset: 0x1C9C93, size: 0x8, addend: 0x0, symName: __ZN3syn4meta15ParseNestedMeta17parse_nested_meta17h5f24095fb3c9aef0E, symObjAddr: 0x0, symBinAddr: 0x84120, symSize: 0x5A0 }
  - { offsetInCU: 0x1DA, offset: 0x1C9E4F, size: 0x8, addend: 0x0, symName: '__ZN58_$LT$alloc..string..String$u20$as$u20$core..fmt..Write$GT$10write_char17hd329c0cb943f081aE', symObjAddr: 0xDA40, symBinAddr: 0x91B60, symSize: 0x130 }
  - { offsetInCU: 0x581, offset: 0x1CA1F6, size: 0x8, addend: 0x0, symName: '__ZN58_$LT$alloc..string..String$u20$as$u20$core..fmt..Write$GT$9write_str17h1ff5aa96ca91c6d5E', symObjAddr: 0xDB70, symBinAddr: 0x91C90, symSize: 0x60 }
  - { offsetInCU: 0x7BF, offset: 0x1CA434, size: 0x8, addend: 0x0, symName: '__ZN60_$LT$alloc..string..String$u20$as$u20$core..fmt..Display$GT$3fmt17hc365578c40090489E', symObjAddr: 0xDD80, symBinAddr: 0x91EA0, symSize: 0x17 }
  - { offsetInCU: 0x2E1D, offset: 0x1CCA92, size: 0x8, addend: 0x0, symName: '__ZN5alloc3str21_$LT$impl$u20$str$GT$7replace17hc75fbd2eba437277E', symObjAddr: 0xDBD0, symBinAddr: 0x91CF0, symSize: 0x1B0 }
  - { offsetInCU: 0x4D24, offset: 0x1CE999, size: 0x8, addend: 0x0, symName: '__ZN4core3ptr100drop_in_place$LT$core..option..Option$LT$alloc..boxed..Box$LT$syn..path..GenericArgument$GT$$GT$$GT$17h91f76f7535c0ef94E', symObjAddr: 0x6BB0, symBinAddr: 0x8ACD0, symSize: 0x50 }
  - { offsetInCU: 0x4EF3, offset: 0x1CEB68, size: 0x8, addend: 0x0, symName: '__ZN4core3ptr102drop_in_place$LT$syn..punctuated..Punctuated$LT$syn..path..GenericArgument$C$syn..token..Comma$GT$$GT$17h7deada5365120e66E', symObjAddr: 0x6C00, symBinAddr: 0x8AD20, symSize: 0xF0 }
  - { offsetInCU: 0x51DC, offset: 0x1CEE51, size: 0x8, addend: 0x0, symName: '__ZN4core3ptr103drop_in_place$LT$core..option..Option$LT$alloc..boxed..Box$LT$syn..generics..TypeParamBound$GT$$GT$$GT$17h044206982686810cE', symObjAddr: 0x6CF0, symBinAddr: 0x8AE10, symSize: 0x50 }
  - { offsetInCU: 0x53E9, offset: 0x1CF05E, size: 0x8, addend: 0x0, symName: '__ZN4core3ptr103drop_in_place$LT$syn..punctuated..Punctuated$LT$syn..generics..GenericParam$C$syn..token..Comma$GT$$GT$17h28897b64a12579c2E', symObjAddr: 0x6D40, symBinAddr: 0x8AE60, symSize: 0xF0 }
  - { offsetInCU: 0x5966, offset: 0x1CF5DB, size: 0x8, addend: 0x0, symName: '__ZN4core3ptr104drop_in_place$LT$syn..punctuated..Punctuated$LT$syn..generics..TypeParamBound$C$syn..token..Plus$GT$$GT$17h8a3e2526f1805111E', symObjAddr: 0x6E30, symBinAddr: 0x8AF50, symSize: 0x230 }
  - { offsetInCU: 0x618A, offset: 0x1CFDFF, size: 0x8, addend: 0x0, symName: '__ZN4core3ptr34drop_in_place$LT$syn..lit..Lit$GT$17h909e98f6870548d6E', symObjAddr: 0x7060, symBinAddr: 0x8B180, symSize: 0x110 }
  - { offsetInCU: 0x66E3, offset: 0x1D0358, size: 0x8, addend: 0x0, symName: '__ZN4core3ptr34drop_in_place$LT$syn..pat..Pat$GT$17h8fcd4c90be46a62aE', symObjAddr: 0x7170, symBinAddr: 0x8B290, symSize: 0xEE0 }
  - { offsetInCU: 0x9CB6, offset: 0x1D392B, size: 0x8, addend: 0x0, symName: '__ZN4core3ptr34drop_in_place$LT$syn..ty..Type$GT$17h774a0ab6b4cf283eE', symObjAddr: 0x8050, symBinAddr: 0x8C170, symSize: 0x5C0 }
  - { offsetInCU: 0xB4EC, offset: 0x1D5161, size: 0x8, addend: 0x0, symName: '__ZN4core3ptr36drop_in_place$LT$syn..expr..Expr$GT$17h7fd8f0d642db296eE', symObjAddr: 0x8610, symBinAddr: 0x8C730, symSize: 0x2800 }
  - { offsetInCU: 0x146C9, offset: 0x1DE33E, size: 0x8, addend: 0x0, symName: '__ZN4core3ptr36drop_in_place$LT$syn..mac..Macro$GT$17hc8e4594548e1fb74E', symObjAddr: 0xAE10, symBinAddr: 0x8EF30, symSize: 0xE0 }
  - { offsetInCU: 0x14A3A, offset: 0x1DE6AF, size: 0x8, addend: 0x0, symName: '__ZN4core3ptr36drop_in_place$LT$syn..path..Path$GT$17hae91be932b20df1dE', symObjAddr: 0xAEF0, symBinAddr: 0x8F010, symSize: 0x220 }
  - { offsetInCU: 0x1536F, offset: 0x1DEFE4, size: 0x8, addend: 0x0, symName: '__ZN4core3ptr37drop_in_place$LT$core..fmt..Error$GT$17hdcc9b701b5182764E', symObjAddr: 0xB110, symBinAddr: 0x8F230, symSize: 0x10 }
  - { offsetInCU: 0x1539B, offset: 0x1DF010, size: 0x8, addend: 0x0, symName: '__ZN4core3ptr37drop_in_place$LT$syn..stmt..Block$GT$17hba4e7ddf28617bfdE', symObjAddr: 0xB120, symBinAddr: 0x8F240, symSize: 0xD0 }
  - { offsetInCU: 0x1563F, offset: 0x1DF2B4, size: 0x8, addend: 0x0, symName: '__ZN4core3ptr38drop_in_place$LT$syn..expr..Member$GT$17ha7c2806ee150b6f6E', symObjAddr: 0xB1F0, symBinAddr: 0x8F310, symSize: 0x30 }
  - { offsetInCU: 0x1573C, offset: 0x1DF3B1, size: 0x8, addend: 0x0, symName: '__ZN4core3ptr39drop_in_place$LT$proc_macro2..Ident$GT$17h8dfea26593c17b61E', symObjAddr: 0xB220, symBinAddr: 0x8F340, symSize: 0x30 }
  - { offsetInCU: 0x15950, offset: 0x1DF5C5, size: 0x8, addend: 0x0, symName: '__ZN4core3ptr39drop_in_place$LT$syn..buffer..Entry$GT$17h50c973355181ef50E', symObjAddr: 0xB250, symBinAddr: 0x8F370, symSize: 0xC0 }
  - { offsetInCU: 0x15C64, offset: 0x1DF8D9, size: 0x8, addend: 0x0, symName: '__ZN4core3ptr40drop_in_place$LT$syn..expr..ExprPath$GT$17h558f3eab01e13045E', symObjAddr: 0xB310, symBinAddr: 0x8F430, symSize: 0x110 }
  - { offsetInCU: 0x1606E, offset: 0x1DFCE3, size: 0x8, addend: 0x0, symName: '__ZN4core3ptr40drop_in_place$LT$syn..ty..ReturnType$GT$17h3c2856ff70e83fa7E', symObjAddr: 0xB420, symBinAddr: 0x8F540, symSize: 0x50 }
  - { offsetInCU: 0x161E0, offset: 0x1DFE55, size: 0x8, addend: 0x0, symName: '__ZN4core3ptr41drop_in_place$LT$syn..expr..ExprConst$GT$17h3f369735cc377020E', symObjAddr: 0xB470, symBinAddr: 0x8F590, symSize: 0x180 }
  - { offsetInCU: 0x16735, offset: 0x1E03AA, size: 0x8, addend: 0x0, symName: '__ZN4core3ptr42drop_in_place$LT$alloc..string..String$GT$17h5212a25f3591ed4cE', symObjAddr: 0xB5F0, symBinAddr: 0x8F710, symSize: 0x20 }
  - { offsetInCU: 0x1683E, offset: 0x1E04B3, size: 0x8, addend: 0x0, symName: '__ZN4core3ptr44drop_in_place$LT$syn..lifetime..Lifetime$GT$17h263f9508be5fff98E', symObjAddr: 0xB610, symBinAddr: 0x8F730, symSize: 0x30 }
  - { offsetInCU: 0x1693B, offset: 0x1E05B0, size: 0x8, addend: 0x0, symName: '__ZN4core3ptr44drop_in_place$LT$syn..parse..ParseBuffer$GT$17h4966adace0fd02f2E', symObjAddr: 0xB640, symBinAddr: 0x8F760, symSize: 0x70 }
  - { offsetInCU: 0x16CD5, offset: 0x1E094A, size: 0x8, addend: 0x0, symName: '__ZN4core3ptr45drop_in_place$LT$proc_macro2..TokenStream$GT$17hcbbbd6ac69a3e46cE', symObjAddr: 0xB6B0, symBinAddr: 0x8F7D0, symSize: 0x140 }
  - { offsetInCU: 0x17106, offset: 0x1E0D7B, size: 0x8, addend: 0x0, symName: '__ZN4core3ptr45drop_in_place$LT$syn..buffer..TokenBuffer$GT$17h85f2ef09366c40f0E', symObjAddr: 0xB7F0, symBinAddr: 0x8F910, symSize: 0xD0 }
  - { offsetInCU: 0x1736C, offset: 0x1E0FE1, size: 0x8, addend: 0x0, symName: '__ZN4core3ptr45drop_in_place$LT$syn..generics..TypeParam$GT$17h3f489d24bf2868acE', symObjAddr: 0xB8C0, symBinAddr: 0x8F9E0, symSize: 0x230 }
  - { offsetInCU: 0x17B68, offset: 0x1E17DD, size: 0x8, addend: 0x0, symName: '__ZN4core3ptr46drop_in_place$LT$syn..generics..ConstParam$GT$17hb82cf1b5639462f6E', symObjAddr: 0xBAF0, symBinAddr: 0x8FC10, symSize: 0x150 }
  - { offsetInCU: 0x17F92, offset: 0x1E1C07, size: 0x8, addend: 0x0, symName: '__ZN4core3ptr47drop_in_place$LT$syn..path..GenericArgument$GT$17ha4d1e2427b5b79f7E', symObjAddr: 0xBC40, symBinAddr: 0x8FD60, symSize: 0x460 }
  - { offsetInCU: 0x18C9B, offset: 0x1E2910, size: 0x8, addend: 0x0, symName: '__ZN4core3ptr49drop_in_place$LT$syn..generics..LifetimeParam$GT$17h54e59d96d3078601E', symObjAddr: 0xC0A0, symBinAddr: 0x901C0, symSize: 0xF0 }
  - { offsetInCU: 0x19055, offset: 0x1E2CCA, size: 0x8, addend: 0x0, symName: '__ZN4core3ptr50drop_in_place$LT$syn..generics..TypeParamBound$GT$17h3bdcf102e80fe526E', symObjAddr: 0xC190, symBinAddr: 0x902B0, symSize: 0xA0 }
  - { offsetInCU: 0x191BC, offset: 0x1E2E31, size: 0x8, addend: 0x0, symName: '__ZN4core3ptr58drop_in_place$LT$alloc..vec..Vec$LT$syn..expr..Arm$GT$$GT$17h2816916be2f2c677E', symObjAddr: 0xC230, symBinAddr: 0x90350, symSize: 0xD0 }
  - { offsetInCU: 0x19449, offset: 0x1E30BE, size: 0x8, addend: 0x0, symName: '__ZN4core3ptr59drop_in_place$LT$alloc..boxed..Box$LT$syn..pat..Pat$GT$$GT$17h97d5257714c9f93cE', symObjAddr: 0xC300, symBinAddr: 0x90420, symSize: 0x50 }
  - { offsetInCU: 0x195A4, offset: 0x1E3219, size: 0x8, addend: 0x0, symName: '__ZN4core3ptr59drop_in_place$LT$alloc..boxed..Box$LT$syn..ty..Type$GT$$GT$17h54564496a417dc0bE', symObjAddr: 0xC350, symBinAddr: 0x90470, symSize: 0x50 }
  - { offsetInCU: 0x196FF, offset: 0x1E3374, size: 0x8, addend: 0x0, symName: '__ZN4core3ptr61drop_in_place$LT$alloc..boxed..Box$LT$syn..expr..Expr$GT$$GT$17hcb812af949707350E', symObjAddr: 0xC3A0, symBinAddr: 0x904C0, symSize: 0x50 }
  - { offsetInCU: 0x1985A, offset: 0x1E34CF, size: 0x8, addend: 0x0, symName: '__ZN4core3ptr61drop_in_place$LT$syn..path..ParenthesizedGenericArguments$GT$17h2cda518d73cfbc65E', symObjAddr: 0xC3F0, symBinAddr: 0x90510, symSize: 0x170 }
  - { offsetInCU: 0x19E34, offset: 0x1E3AA9, size: 0x8, addend: 0x0, symName: '__ZN4core3ptr63drop_in_place$LT$alloc..boxed..Box$LT$syn..lit..LitRepr$GT$$GT$17h4f0b7f87f46ca722E', symObjAddr: 0xC560, symBinAddr: 0x90680, symSize: 0x60 }
  - { offsetInCU: 0x1A129, offset: 0x1E3D9E, size: 0x8, addend: 0x0, symName: '__ZN4core3ptr64drop_in_place$LT$alloc..boxed..Box$LT$syn..pat..FieldPat$GT$$GT$17h24cd16a7bd79a0afE', symObjAddr: 0xC5C0, symBinAddr: 0x906E0, symSize: 0x140 }
  - { offsetInCU: 0x1A7D4, offset: 0x1E4449, size: 0x8, addend: 0x0, symName: '__ZN4core3ptr64drop_in_place$LT$alloc..boxed..Box$LT$syn..ty..BareFnArg$GT$$GT$17h8d6c5b973f90cb46E', symObjAddr: 0xC700, symBinAddr: 0x90820, symSize: 0x140 }
  - { offsetInCU: 0x1ACF8, offset: 0x1E496D, size: 0x8, addend: 0x0, symName: '__ZN4core3ptr65drop_in_place$LT$core..option..Option$LT$syn..expr..Label$GT$$GT$17h49c37bc37ca5807aE', symObjAddr: 0xC840, symBinAddr: 0x90960, symSize: 0x30 }
  - { offsetInCU: 0x1AE33, offset: 0x1E4AA8, size: 0x8, addend: 0x0, symName: '__ZN4core3ptr65drop_in_place$LT$core..option..Option$LT$syn..path..QSelf$GT$$GT$17hcf801102a0c1571fE', symObjAddr: 0xC870, symBinAddr: 0x90990, symSize: 0x50 }
  - { offsetInCU: 0x1AFB6, offset: 0x1E4C2B, size: 0x8, addend: 0x0, symName: '__ZN4core3ptr66drop_in_place$LT$core..option..Option$LT$syn..pat..PatRest$GT$$GT$17ha0b10c3084c29dd7E', symObjAddr: 0xC8C0, symBinAddr: 0x909E0, symSize: 0xE0 }
  - { offsetInCU: 0x1B23A, offset: 0x1E4EAF, size: 0x8, addend: 0x0, symName: '__ZN4core3ptr67drop_in_place$LT$alloc..boxed..Box$LT$syn..expr..FieldValue$GT$$GT$17h51140dec2dd742b5E', symObjAddr: 0xC9A0, symBinAddr: 0x90AC0, symSize: 0x140 }
  - { offsetInCU: 0x1B75D, offset: 0x1E53D2, size: 0x8, addend: 0x0, symName: '__ZN4core3ptr70drop_in_place$LT$core..option..Option$LT$syn..ty..BareVariadic$GT$$GT$17h006e7519360f59bbE', symObjAddr: 0xCAE0, symBinAddr: 0x90C00, symSize: 0x120 }
  - { offsetInCU: 0x1BC8A, offset: 0x1E58FF, size: 0x8, addend: 0x0, symName: '__ZN4core3ptr72drop_in_place$LT$alloc..boxed..Box$LT$syn..path..GenericArgument$GT$$GT$17h9e43a058d82d49aaE', symObjAddr: 0xCC00, symBinAddr: 0x90D20, symSize: 0x2B0 }
  - { offsetInCU: 0x1C675, offset: 0x1E62EA, size: 0x8, addend: 0x0, symName: '__ZN4core3ptr72drop_in_place$LT$core..option..Option$LT$syn..lifetime..Lifetime$GT$$GT$17h2cbddfd17a7fb6a0E', symObjAddr: 0xCEB0, symBinAddr: 0x90FD0, symSize: 0x30 }
  - { offsetInCU: 0x1C791, offset: 0x1E6406, size: 0x8, addend: 0x0, symName: '__ZN4core3ptr73drop_in_place$LT$alloc..boxed..Box$LT$syn..generics..GenericParam$GT$$GT$17hdf8f6b3d2d504eeeE', symObjAddr: 0xCEE0, symBinAddr: 0x91000, symSize: 0x80 }
  - { offsetInCU: 0x1C909, offset: 0x1E657E, size: 0x8, addend: 0x0, symName: '__ZN4core3ptr75drop_in_place$LT$alloc..boxed..Box$LT$syn..generics..TypeParamBound$GT$$GT$17he16e1f4f3b231893E', symObjAddr: 0xCF60, symBinAddr: 0x91080, symSize: 0x160 }
  - { offsetInCU: 0x1CECF, offset: 0x1E6B44, size: 0x8, addend: 0x0, symName: '__ZN4core3ptr86drop_in_place$LT$syn..punctuated..Punctuated$LT$syn..pat..Pat$C$syn..token..Or$GT$$GT$17h449b7e6b5537b210E', symObjAddr: 0xD0C0, symBinAddr: 0x911E0, symSize: 0x120 }
  - { offsetInCU: 0x1D315, offset: 0x1E6F8A, size: 0x8, addend: 0x0, symName: '__ZN4core3ptr87drop_in_place$LT$core..option..Option$LT$alloc..boxed..Box$LT$syn..pat..Pat$GT$$GT$$GT$17hbff747ffa5f39bd3E', symObjAddr: 0xD1E0, symBinAddr: 0x91300, symSize: 0x50 }
  - { offsetInCU: 0x1D487, offset: 0x1E70FC, size: 0x8, addend: 0x0, symName: '__ZN4core3ptr87drop_in_place$LT$core..option..Option$LT$alloc..boxed..Box$LT$syn..ty..Type$GT$$GT$$GT$17hd404efde6702ff0dE', symObjAddr: 0xD230, symBinAddr: 0x91350, symSize: 0x50 }
  - { offsetInCU: 0x1D5F9, offset: 0x1E726E, size: 0x8, addend: 0x0, symName: '__ZN4core3ptr89drop_in_place$LT$core..option..Option$LT$alloc..boxed..Box$LT$syn..expr..Expr$GT$$GT$$GT$17h981df8604670027bE', symObjAddr: 0xD280, symBinAddr: 0x913A0, symSize: 0x50 }
  - { offsetInCU: 0x1D7A9, offset: 0x1E741E, size: 0x8, addend: 0x0, symName: '__ZN4core3ptr89drop_in_place$LT$syn..punctuated..Punctuated$LT$syn..pat..Pat$C$syn..token..Comma$GT$$GT$17h8165fd7eb02b8118E', symObjAddr: 0xD2D0, symBinAddr: 0x913F0, symSize: 0x120 }
  - { offsetInCU: 0x1DC44, offset: 0x1E78B9, size: 0x8, addend: 0x0, symName: '__ZN4core3ptr91drop_in_place$LT$syn..punctuated..Punctuated$LT$syn..expr..Expr$C$syn..token..Comma$GT$$GT$17ha27fe7b672ce38bdE', symObjAddr: 0xD3F0, symBinAddr: 0x91510, symSize: 0x120 }
  - { offsetInCU: 0x1E0A1, offset: 0x1E7D16, size: 0x8, addend: 0x0, symName: '__ZN4core3ptr94drop_in_place$LT$syn..punctuated..Punctuated$LT$syn..pat..FieldPat$C$syn..token..Comma$GT$$GT$17hd9ad3a9ff53c2a49E', symObjAddr: 0xD510, symBinAddr: 0x91630, symSize: 0xF0 }
  - { offsetInCU: 0x1E36B, offset: 0x1E7FE0, size: 0x8, addend: 0x0, symName: '__ZN4core3ptr94drop_in_place$LT$syn..punctuated..Punctuated$LT$syn..ty..BareFnArg$C$syn..token..Comma$GT$$GT$17h3ad0ecbb9acc3d94E', symObjAddr: 0xD600, symBinAddr: 0x91720, symSize: 0xF0 }
  - { offsetInCU: 0x1E635, offset: 0x1E82AA, size: 0x8, addend: 0x0, symName: '__ZN4core3ptr96drop_in_place$LT$core..option..Option$LT$alloc..boxed..Box$LT$syn..path..PathSegment$GT$$GT$$GT$17h15008b031e78f545E', symObjAddr: 0xD6F0, symBinAddr: 0x91810, symSize: 0x180 }
  - { offsetInCU: 0x1ECC6, offset: 0x1E893B, size: 0x8, addend: 0x0, symName: '__ZN4core3ptr97drop_in_place$LT$syn..punctuated..Punctuated$LT$syn..expr..FieldValue$C$syn..token..Comma$GT$$GT$17h7dd72fd62fffe077E', symObjAddr: 0xD870, symBinAddr: 0x91990, symSize: 0xF0 }
  - { offsetInCU: 0x1F00C, offset: 0x1E8C81, size: 0x8, addend: 0x0, symName: '__ZN4core3ptr98drop_in_place$LT$syn..punctuated..Punctuated$LT$syn..lifetime..Lifetime$C$syn..token..Plus$GT$$GT$17haf6d03c18957eb1aE', symObjAddr: 0xD960, symBinAddr: 0x91A80, symSize: 0xC0 }
  - { offsetInCU: 0x1FA78, offset: 0x1E96ED, size: 0x8, addend: 0x0, symName: '__ZN53_$LT$core..fmt..Error$u20$as$u20$core..fmt..Debug$GT$3fmt17h43ae5cec9623af13E', symObjAddr: 0xDA20, symBinAddr: 0x91B40, symSize: 0x20 }
  - { offsetInCU: 0x2681B, offset: 0x1F0490, size: 0x8, addend: 0x0, symName: '__ZN40_$LT$F$u20$as$u20$syn..parse..Parser$GT$14__parse_scoped17h263949915425302aE', symObjAddr: 0xAC0, symBinAddr: 0x84BE0, symSize: 0x1AF0 }
  - { offsetInCU: 0x299C1, offset: 0x1F3636, size: 0x8, addend: 0x0, symName: '__ZN40_$LT$F$u20$as$u20$syn..parse..Parser$GT$14__parse_scoped17h6f52c22668579941E', symObjAddr: 0x25B0, symBinAddr: 0x866D0, symSize: 0x1CD0 }
  - { offsetInCU: 0x2C469, offset: 0x1F60DE, size: 0x8, addend: 0x0, symName: '__ZN40_$LT$F$u20$as$u20$syn..parse..Parser$GT$14__parse_scoped17hc9268ebc6ac5bf11E', symObjAddr: 0x4280, symBinAddr: 0x883A0, symSize: 0x2930 }
  - { offsetInCU: 0x36C13, offset: 0x200888, size: 0x8, addend: 0x0, symName: __ZN3syn4meta15ParseNestedMeta17parse_nested_meta17h5f24095fb3c9aef0E, symObjAddr: 0x0, symBinAddr: 0x84120, symSize: 0x5A0 }
  - { offsetInCU: 0x37630, offset: 0x2012A5, size: 0x8, addend: 0x0, symName: __ZN3syn4meta15ParseNestedMeta17parse_nested_meta17hc3f7d4af921065aeE, symObjAddr: 0x5A0, symBinAddr: 0x846C0, symSize: 0x520 }
  - { offsetInCU: 0x8EB5, offset: 0x20F81D, size: 0x8, addend: 0x0, symName: '__ZN5alloc11collections5btree4node210Handle$LT$alloc..collections..btree..node..NodeRef$LT$alloc..collections..btree..node..marker..Mut$C$K$C$V$C$alloc..collections..btree..node..marker..Leaf$GT$$C$alloc..collections..btree..node..marker..Edge$GT$16insert_recursing17h48aca3f41281c9c8E', symObjAddr: 0x3F0, symBinAddr: 0x91EC0, symSize: 0xAB0 }
  - { offsetInCU: 0xC0CD, offset: 0x212A35, size: 0x8, addend: 0x0, symName: '__ZN5alloc11collections5btree4node210Handle$LT$alloc..collections..btree..node..NodeRef$LT$alloc..collections..btree..node..marker..Mut$C$K$C$V$C$alloc..collections..btree..node..marker..Leaf$GT$$C$alloc..collections..btree..node..marker..Edge$GT$16insert_recursing17hb9b41d512a9eaad1E', symObjAddr: 0xEA0, symBinAddr: 0x92970, symSize: 0xC90 }
  - { offsetInCU: 0x14C4, offset: 0x216F7C, size: 0x8, addend: 0x0, symName: __ZN12serde_derive5bound16without_defaults17h722724851f4867bcE, symObjAddr: 0x7E50, symBinAddr: 0x9B0F0, symSize: 0x120 }
  - { offsetInCU: 0x1789, offset: 0x217241, size: 0x8, addend: 0x0, symName: __ZN12serde_derive5bound33with_where_predicates_from_fields17he3b167cdb2e92c16E, symObjAddr: 0x7FF0, symBinAddr: 0x9B210, symSize: 0x190 }
  - { offsetInCU: 0x1B64, offset: 0x21761C, size: 0x8, addend: 0x0, symName: __ZN12serde_derive5bound35with_where_predicates_from_variants17h19a8fd732c3b479eE, symObjAddr: 0x8180, symBinAddr: 0x9B3A0, symSize: 0x100 }
  - { offsetInCU: 0x1CFC, offset: 0x2177B4, size: 0x8, addend: 0x0, symName: __ZN12serde_derive5bound10with_bound17h39f9eb87c2405564E, symObjAddr: 0x8280, symBinAddr: 0x9B4A0, symSize: 0x8E0 }
  - { offsetInCU: 0x3AB6, offset: 0x21956E, size: 0x8, addend: 0x0, symName: __ZN12serde_derive5bound15with_self_bound17h80ff3812a3bc5ee4E, symObjAddr: 0x9490, symBinAddr: 0x9C6B0, symSize: 0x480 }
  - { offsetInCU: 0x44CE, offset: 0x219F86, size: 0x8, addend: 0x0, symName: __ZN12serde_derive5bound19with_lifetime_bound17h3736f1c921506dfbE, symObjAddr: 0x9910, symBinAddr: 0x9CB30, symSize: 0x2BA }
  - { offsetInCU: 0x5D3B, offset: 0x21B7F3, size: 0x8, addend: 0x0, symName: '__ZN4core3ptr100drop_in_place$LT$core..option..Option$LT$alloc..boxed..Box$LT$syn..path..GenericArgument$GT$$GT$$GT$17h91f76f7535c0ef94E', symObjAddr: 0x7C0, symBinAddr: 0x93AB0, symSize: 0x50 }
  - { offsetInCU: 0x60DB, offset: 0x21BB93, size: 0x8, addend: 0x0, symName: '__ZN4core3ptr100drop_in_place$LT$syn..punctuated..Punctuated$LT$syn..path..PathSegment$C$syn..token..PathSep$GT$$GT$17h8967d620e5262808E', symObjAddr: 0x810, symBinAddr: 0x93B00, symSize: 0x260 }
  - { offsetInCU: 0x6A55, offset: 0x21C50D, size: 0x8, addend: 0x0, symName: '__ZN4core3ptr102drop_in_place$LT$syn..punctuated..Punctuated$LT$syn..path..GenericArgument$C$syn..token..Comma$GT$$GT$17h7deada5365120e66E', symObjAddr: 0xA70, symBinAddr: 0x93D60, symSize: 0xF0 }
  - { offsetInCU: 0x6D3E, offset: 0x21C7F6, size: 0x8, addend: 0x0, symName: '__ZN4core3ptr103drop_in_place$LT$core..option..Option$LT$alloc..boxed..Box$LT$syn..generics..TypeParamBound$GT$$GT$$GT$17h044206982686810cE', symObjAddr: 0xB60, symBinAddr: 0x93E50, symSize: 0x50 }
  - { offsetInCU: 0x6F89, offset: 0x21CA41, size: 0x8, addend: 0x0, symName: '__ZN4core3ptr103drop_in_place$LT$core..option..Option$LT$alloc..boxed..Box$LT$syn..generics..WherePredicate$GT$$GT$$GT$17hdb4f3c209e2b962bE.llvm.9305065214982169858', symObjAddr: 0xBB0, symBinAddr: 0x93EA0, symSize: 0xD0 }
  - { offsetInCU: 0x72FD, offset: 0x21CDB5, size: 0x8, addend: 0x0, symName: '__ZN4core3ptr103drop_in_place$LT$syn..punctuated..Punctuated$LT$syn..generics..GenericParam$C$syn..token..Comma$GT$$GT$17h28897b64a12579c2E.llvm.9305065214982169858', symObjAddr: 0xC80, symBinAddr: 0x93F70, symSize: 0xF0 }
  - { offsetInCU: 0x7763, offset: 0x21D21B, size: 0x8, addend: 0x0, symName: '__ZN4core3ptr104drop_in_place$LT$syn..punctuated..Punctuated$LT$syn..generics..TypeParamBound$C$syn..token..Plus$GT$$GT$17h8a3e2526f1805111E', symObjAddr: 0xD70, symBinAddr: 0x94060, symSize: 0x190 }
  - { offsetInCU: 0x7DD6, offset: 0x21D88E, size: 0x8, addend: 0x0, symName: '__ZN4core3ptr34drop_in_place$LT$syn..lit..Lit$GT$17h909e98f6870548d6E', symObjAddr: 0xF00, symBinAddr: 0x941F0, symSize: 0x110 }
  - { offsetInCU: 0x832F, offset: 0x21DDE7, size: 0x8, addend: 0x0, symName: '__ZN4core3ptr34drop_in_place$LT$syn..pat..Pat$GT$17h8fcd4c90be46a62aE', symObjAddr: 0x1010, symBinAddr: 0x94300, symSize: 0x1000 }
  - { offsetInCU: 0xBE54, offset: 0x22190C, size: 0x8, addend: 0x0, symName: '__ZN4core3ptr34drop_in_place$LT$syn..ty..Type$GT$17h774a0ab6b4cf283eE.llvm.9305065214982169858', symObjAddr: 0x2010, symBinAddr: 0x95300, symSize: 0x4F0 }
  - { offsetInCU: 0xD39F, offset: 0x222E57, size: 0x8, addend: 0x0, symName: '__ZN4core3ptr36drop_in_place$LT$syn..expr..Expr$GT$17h7fd8f0d642db296eE.llvm.9305065214982169858', symObjAddr: 0x2500, symBinAddr: 0x957F0, symSize: 0x28E0 }
  - { offsetInCU: 0x16831, offset: 0x22C2E9, size: 0x8, addend: 0x0, symName: '__ZN4core3ptr36drop_in_place$LT$syn..mac..Macro$GT$17hc8e4594548e1fb74E', symObjAddr: 0x4DE0, symBinAddr: 0x980D0, symSize: 0x40 }
  - { offsetInCU: 0x1686B, offset: 0x22C323, size: 0x8, addend: 0x0, symName: '__ZN4core3ptr36drop_in_place$LT$syn..path..Path$GT$17hae91be932b20df1dE', symObjAddr: 0x4E20, symBinAddr: 0x98110, symSize: 0x220 }
  - { offsetInCU: 0x171A0, offset: 0x22CC58, size: 0x8, addend: 0x0, symName: '__ZN4core3ptr37drop_in_place$LT$syn..stmt..Block$GT$17hba4e7ddf28617bfdE', symObjAddr: 0x5040, symBinAddr: 0x98330, symSize: 0xD0 }
  - { offsetInCU: 0x17444, offset: 0x22CEFC, size: 0x8, addend: 0x0, symName: '__ZN4core3ptr38drop_in_place$LT$syn..expr..Member$GT$17ha7c2806ee150b6f6E', symObjAddr: 0x5110, symBinAddr: 0x98400, symSize: 0x30 }
  - { offsetInCU: 0x17541, offset: 0x22CFF9, size: 0x8, addend: 0x0, symName: '__ZN4core3ptr39drop_in_place$LT$proc_macro2..Ident$GT$17h8dfea26593c17b61E.llvm.9305065214982169858', symObjAddr: 0x5140, symBinAddr: 0x98430, symSize: 0x30 }
  - { offsetInCU: 0x1761F, offset: 0x22D0D7, size: 0x8, addend: 0x0, symName: '__ZN4core3ptr40drop_in_place$LT$syn..ty..ReturnType$GT$17h3c2856ff70e83fa7E', symObjAddr: 0x5170, symBinAddr: 0x98460, symSize: 0x50 }
  - { offsetInCU: 0x177EE, offset: 0x22D2A6, size: 0x8, addend: 0x0, symName: '__ZN4core3ptr410drop_in_place$LT$core..iter..adapters..flatten..FlatMap$LT$core..iter..adapters..filter_map..FilterMap$LT$core..slice..iter..Iter$LT$serde_derive..internals..ast..Variant$GT$$C$serde_derive..bound..with_where_predicates_from_variants..$u7b$$u7b$closure$u7d$$u7d$$GT$$C$alloc..vec..Vec$LT$syn..generics..WherePredicate$GT$$C$alloc..slice..$LT$impl$u20$$u5b$syn..generics..WherePredicate$u5d$$GT$..to_vec$GT$$GT$17he96cc167fc09f38eE.llvm.9305065214982169858', symObjAddr: 0x51C0, symBinAddr: 0x984B0, symSize: 0x60 }
  - { offsetInCU: 0x178DB, offset: 0x22D393, size: 0x8, addend: 0x0, symName: '__ZN4core3ptr41drop_in_place$LT$syn..expr..ExprConst$GT$17h3f369735cc377020E', symObjAddr: 0x5220, symBinAddr: 0x98510, symSize: 0x180 }
  - { offsetInCU: 0x17E30, offset: 0x22D8E8, size: 0x8, addend: 0x0, symName: '__ZN4core3ptr44drop_in_place$LT$syn..generics..Generics$GT$17h7c53fa45071f0fc1E.llvm.9305065214982169858', symObjAddr: 0x53A0, symBinAddr: 0x98690, symSize: 0x40 }
  - { offsetInCU: 0x17E60, offset: 0x22D918, size: 0x8, addend: 0x0, symName: '__ZN4core3ptr44drop_in_place$LT$syn..lifetime..Lifetime$GT$17h263f9508be5fff98E.llvm.9305065214982169858', symObjAddr: 0x53E0, symBinAddr: 0x986D0, symSize: 0x30 }
  - { offsetInCU: 0x18093, offset: 0x22DB4B, size: 0x8, addend: 0x0, symName: '__ZN4core3ptr45drop_in_place$LT$proc_macro2..TokenStream$GT$17hcbbbd6ac69a3e46cE', symObjAddr: 0x5410, symBinAddr: 0x98700, symSize: 0x140 }
  - { offsetInCU: 0x184E3, offset: 0x22DF9B, size: 0x8, addend: 0x0, symName: '__ZN4core3ptr45drop_in_place$LT$syn..generics..TypeParam$GT$17h3f489d24bf2868acE.llvm.9305065214982169858', symObjAddr: 0x5550, symBinAddr: 0x98840, symSize: 0x230 }
  - { offsetInCU: 0x18CDF, offset: 0x22E797, size: 0x8, addend: 0x0, symName: '__ZN4core3ptr46drop_in_place$LT$syn..generics..ConstParam$GT$17hb82cf1b5639462f6E.llvm.9305065214982169858', symObjAddr: 0x5780, symBinAddr: 0x98A70, symSize: 0x150 }
  - { offsetInCU: 0x19166, offset: 0x22EC1E, size: 0x8, addend: 0x0, symName: '__ZN4core3ptr474drop_in_place$LT$core..iter..adapters..flatten..FlatMap$LT$core..iter..adapters..filter_map..FilterMap$LT$alloc..boxed..Box$LT$dyn$u20$core..iter..traits..iterator..Iterator$u2b$Item$u20$$u3d$$u20$$RF$serde_derive..internals..ast..Field$GT$$C$serde_derive..bound..with_where_predicates_from_fields..$u7b$$u7b$closure$u7d$$u7d$$GT$$C$alloc..vec..Vec$LT$syn..generics..WherePredicate$GT$$C$alloc..slice..$LT$impl$u20$$u5b$syn..generics..WherePredicate$u5d$$GT$..to_vec$GT$$GT$17h600f90bdf724df8bE.llvm.9305065214982169858', symObjAddr: 0x58D0, symBinAddr: 0x98BC0, symSize: 0xC0 }
  - { offsetInCU: 0x1950C, offset: 0x22EFC4, size: 0x8, addend: 0x0, symName: '__ZN4core3ptr47drop_in_place$LT$syn..path..GenericArgument$GT$17ha4d1e2427b5b79f7E', symObjAddr: 0x5990, symBinAddr: 0x98C80, symSize: 0x4A0 }
  - { offsetInCU: 0x1A5B3, offset: 0x23006B, size: 0x8, addend: 0x0, symName: '__ZN4core3ptr49drop_in_place$LT$syn..generics..LifetimeParam$GT$17h54e59d96d3078601E.llvm.9305065214982169858', symObjAddr: 0x5E30, symBinAddr: 0x99120, symSize: 0xF0 }
  - { offsetInCU: 0x1A96D, offset: 0x230425, size: 0x8, addend: 0x0, symName: '__ZN4core3ptr50drop_in_place$LT$syn..generics..TypeParamBound$GT$17h3bdcf102e80fe526E', symObjAddr: 0x5F20, symBinAddr: 0x99210, symSize: 0x160 }
  - { offsetInCU: 0x1AD8D, offset: 0x230845, size: 0x8, addend: 0x0, symName: '__ZN4core3ptr58drop_in_place$LT$alloc..vec..Vec$LT$syn..expr..Arm$GT$$GT$17h2816916be2f2c677E', symObjAddr: 0x6080, symBinAddr: 0x99370, symSize: 0xD0 }
  - { offsetInCU: 0x1B01A, offset: 0x230AD2, size: 0x8, addend: 0x0, symName: '__ZN4core3ptr59drop_in_place$LT$alloc..boxed..Box$LT$syn..pat..Pat$GT$$GT$17h97d5257714c9f93cE', symObjAddr: 0x6150, symBinAddr: 0x99440, symSize: 0x50 }
  - { offsetInCU: 0x1B175, offset: 0x230C2D, size: 0x8, addend: 0x0, symName: '__ZN4core3ptr59drop_in_place$LT$alloc..boxed..Box$LT$syn..ty..Type$GT$$GT$17h54564496a417dc0bE', symObjAddr: 0x61A0, symBinAddr: 0x99490, symSize: 0x50 }
  - { offsetInCU: 0x1B425, offset: 0x230EDD, size: 0x8, addend: 0x0, symName: '__ZN4core3ptr605drop_in_place$LT$core..iter..adapters..map..Map$LT$core..iter..adapters..chain..Chain$LT$core..iter..adapters..map..Map$LT$core..iter..adapters..filter..Filter$LT$core..iter..adapters..map..Map$LT$syn..generics..TypeParams$C$serde_derive..bound..with_bound..$u7b$$u7b$closure$u7d$$u7d$$GT$$C$serde_derive..bound..with_bound..$u7b$$u7b$closure$u7d$$u7d$$GT$$C$serde_derive..bound..with_bound..$u7b$$u7b$closure$u7d$$u7d$$GT$$C$core..iter..adapters..cloned..Cloned$LT$alloc..vec..into_iter..IntoIter$LT$$RF$syn..ty..TypePath$GT$$GT$$GT$$C$serde_derive..bound..with_bound..$u7b$$u7b$closure$u7d$$u7d$$GT$$GT$17h8f997c3880cf4055E', symObjAddr: 0x61F0, symBinAddr: 0x994E0, symSize: 0x70 }
  - { offsetInCU: 0x1B772, offset: 0x23122A, size: 0x8, addend: 0x0, symName: '__ZN4core3ptr61drop_in_place$LT$alloc..boxed..Box$LT$syn..expr..Expr$GT$$GT$17hcb812af949707350E', symObjAddr: 0x6260, symBinAddr: 0x99550, symSize: 0x50 }
  - { offsetInCU: 0x1B949, offset: 0x231401, size: 0x8, addend: 0x0, symName: '__ZN4core3ptr61drop_in_place$LT$syn..path..ParenthesizedGenericArguments$GT$17h2cda518d73cfbc65E', symObjAddr: 0x62B0, symBinAddr: 0x995A0, symSize: 0x170 }
  - { offsetInCU: 0x1BF10, offset: 0x2319C8, size: 0x8, addend: 0x0, symName: '__ZN4core3ptr62drop_in_place$LT$syn..path..AngleBracketedGenericArguments$GT$17h532d3ccffb7c0f6eE', symObjAddr: 0x6420, symBinAddr: 0x99710, symSize: 0x120 }
  - { offsetInCU: 0x1C326, offset: 0x231DDE, size: 0x8, addend: 0x0, symName: '__ZN4core3ptr63drop_in_place$LT$alloc..boxed..Box$LT$syn..lit..LitRepr$GT$$GT$17h4f0b7f87f46ca722E', symObjAddr: 0x6540, symBinAddr: 0x99830, symSize: 0x60 }
  - { offsetInCU: 0x1C61B, offset: 0x2320D3, size: 0x8, addend: 0x0, symName: '__ZN4core3ptr64drop_in_place$LT$alloc..boxed..Box$LT$syn..pat..FieldPat$GT$$GT$17h24cd16a7bd79a0afE', symObjAddr: 0x65A0, symBinAddr: 0x99890, symSize: 0x140 }
  - { offsetInCU: 0x1CCC6, offset: 0x23277E, size: 0x8, addend: 0x0, symName: '__ZN4core3ptr64drop_in_place$LT$alloc..boxed..Box$LT$syn..ty..BareFnArg$GT$$GT$17h8d6c5b973f90cb46E', symObjAddr: 0x66E0, symBinAddr: 0x999D0, symSize: 0x140 }
  - { offsetInCU: 0x1D1EA, offset: 0x232CA2, size: 0x8, addend: 0x0, symName: '__ZN4core3ptr64drop_in_place$LT$alloc..vec..Vec$LT$syn..attr..Attribute$GT$$GT$17hbfa410c60a9e774aE', symObjAddr: 0x6820, symBinAddr: 0x99B10, symSize: 0xD0 }
  - { offsetInCU: 0x1D477, offset: 0x232F2F, size: 0x8, addend: 0x0, symName: '__ZN4core3ptr65drop_in_place$LT$core..option..Option$LT$syn..expr..Label$GT$$GT$17h49c37bc37ca5807aE', symObjAddr: 0x68F0, symBinAddr: 0x99BE0, symSize: 0x30 }
  - { offsetInCU: 0x1D5B2, offset: 0x23306A, size: 0x8, addend: 0x0, symName: '__ZN4core3ptr66drop_in_place$LT$core..option..Option$LT$syn..pat..PatRest$GT$$GT$17ha0b10c3084c29dd7E', symObjAddr: 0x6920, symBinAddr: 0x99C10, symSize: 0xE0 }
  - { offsetInCU: 0x1D836, offset: 0x2332EE, size: 0x8, addend: 0x0, symName: '__ZN4core3ptr67drop_in_place$LT$alloc..boxed..Box$LT$syn..expr..FieldValue$GT$$GT$17h51140dec2dd742b5E', symObjAddr: 0x6A00, symBinAddr: 0x99CF0, symSize: 0x140 }
  - { offsetInCU: 0x1DD3A, offset: 0x2337F2, size: 0x8, addend: 0x0, symName: '__ZN4core3ptr68drop_in_place$LT$alloc..boxed..Box$LT$syn..path..PathSegment$GT$$GT$17h6663076be8cb9e8fE', symObjAddr: 0x6B40, symBinAddr: 0x99E30, symSize: 0x190 }
  - { offsetInCU: 0x1E418, offset: 0x233ED0, size: 0x8, addend: 0x0, symName: '__ZN4core3ptr70drop_in_place$LT$core..option..Option$LT$syn..ty..BareVariadic$GT$$GT$17h006e7519360f59bbE', symObjAddr: 0x6CD0, symBinAddr: 0x99FC0, symSize: 0x120 }
  - { offsetInCU: 0x1E945, offset: 0x2343FD, size: 0x8, addend: 0x0, symName: '__ZN4core3ptr72drop_in_place$LT$alloc..boxed..Box$LT$syn..path..GenericArgument$GT$$GT$17h9e43a058d82d49aaE', symObjAddr: 0x6DF0, symBinAddr: 0x9A0E0, symSize: 0x1D0 }
  - { offsetInCU: 0x1EEE8, offset: 0x2349A0, size: 0x8, addend: 0x0, symName: '__ZN4core3ptr72drop_in_place$LT$core..option..Option$LT$syn..lifetime..Lifetime$GT$$GT$17h2cbddfd17a7fb6a0E', symObjAddr: 0x6FC0, symBinAddr: 0x9A2B0, symSize: 0x30 }
  - { offsetInCU: 0x1F004, offset: 0x234ABC, size: 0x8, addend: 0x0, symName: '__ZN4core3ptr73drop_in_place$LT$alloc..boxed..Box$LT$syn..generics..GenericParam$GT$$GT$17hdf8f6b3d2d504eeeE.llvm.9305065214982169858', symObjAddr: 0x6FF0, symBinAddr: 0x9A2E0, symSize: 0x80 }
  - { offsetInCU: 0x1F17C, offset: 0x234C34, size: 0x8, addend: 0x0, symName: '__ZN4core3ptr75drop_in_place$LT$alloc..boxed..Box$LT$syn..generics..TypeParamBound$GT$$GT$17he16e1f4f3b231893E', symObjAddr: 0x7070, symBinAddr: 0x9A360, symSize: 0xB0 }
  - { offsetInCU: 0x1F4F6, offset: 0x234FAE, size: 0x8, addend: 0x0, symName: '__ZN4core3ptr75drop_in_place$LT$core..option..Option$LT$syn..generics..WhereClause$GT$$GT$17h4809634bfa029adcE.llvm.9305065214982169858', symObjAddr: 0x7120, symBinAddr: 0x9A410, symSize: 0x100 }
  - { offsetInCU: 0x1F7EF, offset: 0x2352A7, size: 0x8, addend: 0x0, symName: '__ZN4core3ptr78drop_in_place$LT$core..option..IntoIter$LT$syn..generics..GenericParam$GT$$GT$17ha1782c58ce2ef44eE', symObjAddr: 0x7220, symBinAddr: 0x9A510, symSize: 0x50 }
  - { offsetInCU: 0x1F8C9, offset: 0x235381, size: 0x8, addend: 0x0, symName: '__ZN4core3ptr86drop_in_place$LT$syn..punctuated..Punctuated$LT$syn..pat..Pat$C$syn..token..Or$GT$$GT$17h449b7e6b5537b210E', symObjAddr: 0x7270, symBinAddr: 0x9A560, symSize: 0x120 }
  - { offsetInCU: 0x1FD0F, offset: 0x2357C7, size: 0x8, addend: 0x0, symName: '__ZN4core3ptr87drop_in_place$LT$core..option..Option$LT$alloc..boxed..Box$LT$syn..pat..Pat$GT$$GT$$GT$17hbff747ffa5f39bd3E', symObjAddr: 0x7390, symBinAddr: 0x9A680, symSize: 0x50 }
  - { offsetInCU: 0x1FE81, offset: 0x235939, size: 0x8, addend: 0x0, symName: '__ZN4core3ptr87drop_in_place$LT$core..option..Option$LT$alloc..boxed..Box$LT$syn..ty..Type$GT$$GT$$GT$17hd404efde6702ff0dE', symObjAddr: 0x73E0, symBinAddr: 0x9A6D0, symSize: 0x50 }
  - { offsetInCU: 0x1FFF3, offset: 0x235AAB, size: 0x8, addend: 0x0, symName: '__ZN4core3ptr89drop_in_place$LT$core..option..Option$LT$alloc..boxed..Box$LT$syn..expr..Expr$GT$$GT$$GT$17h981df8604670027bE', symObjAddr: 0x7430, symBinAddr: 0x9A720, symSize: 0x50 }
  - { offsetInCU: 0x201A3, offset: 0x235C5B, size: 0x8, addend: 0x0, symName: '__ZN4core3ptr89drop_in_place$LT$syn..punctuated..Punctuated$LT$syn..pat..Pat$C$syn..token..Comma$GT$$GT$17h8165fd7eb02b8118E', symObjAddr: 0x7480, symBinAddr: 0x9A770, symSize: 0x120 }
  - { offsetInCU: 0x20600, offset: 0x2360B8, size: 0x8, addend: 0x0, symName: '__ZN4core3ptr89drop_in_place$LT$syn..punctuated..Punctuated$LT$syn..ty..Type$C$syn..token..Comma$GT$$GT$17h23a774170e770b9aE', symObjAddr: 0x75A0, symBinAddr: 0x9A890, symSize: 0x120 }
  - { offsetInCU: 0x20A4A, offset: 0x236502, size: 0x8, addend: 0x0, symName: '__ZN4core3ptr90drop_in_place$LT$core..option..Option$LT$syn..path..AngleBracketedGenericArguments$GT$$GT$17h28a1c7f1e00311d1E', symObjAddr: 0x76C0, symBinAddr: 0x9A9B0, symSize: 0x130 }
  - { offsetInCU: 0x20EB5, offset: 0x23696D, size: 0x8, addend: 0x0, symName: '__ZN4core3ptr91drop_in_place$LT$syn..punctuated..Punctuated$LT$syn..expr..Expr$C$syn..token..Comma$GT$$GT$17ha27fe7b672ce38bdE', symObjAddr: 0x77F0, symBinAddr: 0x9AAE0, symSize: 0x120 }
  - { offsetInCU: 0x21312, offset: 0x236DCA, size: 0x8, addend: 0x0, symName: '__ZN4core3ptr94drop_in_place$LT$syn..punctuated..Punctuated$LT$syn..pat..FieldPat$C$syn..token..Comma$GT$$GT$17hd9ad3a9ff53c2a49E', symObjAddr: 0x7910, symBinAddr: 0x9AC00, symSize: 0xF0 }
  - { offsetInCU: 0x215DC, offset: 0x237094, size: 0x8, addend: 0x0, symName: '__ZN4core3ptr94drop_in_place$LT$syn..punctuated..Punctuated$LT$syn..ty..BareFnArg$C$syn..token..Comma$GT$$GT$17h3ad0ecbb9acc3d94E', symObjAddr: 0x7A00, symBinAddr: 0x9ACF0, symSize: 0xF0 }
  - { offsetInCU: 0x218A6, offset: 0x23735E, size: 0x8, addend: 0x0, symName: '__ZN4core3ptr96drop_in_place$LT$core..option..Option$LT$alloc..boxed..Box$LT$syn..path..PathSegment$GT$$GT$$GT$17h15008b031e78f545E', symObjAddr: 0x7AF0, symBinAddr: 0x9ADE0, symSize: 0x90 }
  - { offsetInCU: 0x21B47, offset: 0x2375FF, size: 0x8, addend: 0x0, symName: '__ZN4core3ptr97drop_in_place$LT$syn..punctuated..Punctuated$LT$syn..expr..FieldValue$C$syn..token..Comma$GT$$GT$17h7dd72fd62fffe077E', symObjAddr: 0x7BD0, symBinAddr: 0x9AE70, symSize: 0xF0 }
  - { offsetInCU: 0x21E11, offset: 0x2378C9, size: 0x8, addend: 0x0, symName: '__ZN4core3ptr98drop_in_place$LT$alloc..vec..Vec$LT$$LP$syn..path..GenericArgument$C$syn..token..Comma$RP$$GT$$GT$17h5d136a881836b500E', symObjAddr: 0x7CC0, symBinAddr: 0x9AF60, symSize: 0xD0 }
  - { offsetInCU: 0x220FB, offset: 0x237BB3, size: 0x8, addend: 0x0, symName: '__ZN4core3ptr98drop_in_place$LT$syn..punctuated..Punctuated$LT$syn..lifetime..Lifetime$C$syn..token..Plus$GT$$GT$17haf6d03c18957eb1aE.llvm.9305065214982169858', symObjAddr: 0x7D90, symBinAddr: 0x9B030, symSize: 0xC0 }
  - { offsetInCU: 0x25640, offset: 0x23B0F8, size: 0x8, addend: 0x0, symName: '__ZN4core3ops8function5impls80_$LT$impl$u20$core..ops..function..FnOnce$LT$A$GT$$u20$for$u20$$RF$mut$u20$F$GT$9call_once17h01e266e1bde576d4E', symObjAddr: 0x140, symBinAddr: 0x93600, symSize: 0x1C0 }
  - { offsetInCU: 0x258F7, offset: 0x23B3AF, size: 0x8, addend: 0x0, symName: '__ZN4core3ops8function5impls80_$LT$impl$u20$core..ops..function..FnOnce$LT$A$GT$$u20$for$u20$$RF$mut$u20$F$GT$9call_once17he8f2bd08edfda382E', symObjAddr: 0x4D0, symBinAddr: 0x937C0, symSize: 0x150 }
  - { offsetInCU: 0x259B3, offset: 0x23B46B, size: 0x8, addend: 0x0, symName: '__ZN4core3ops8function5impls80_$LT$impl$u20$core..ops..function..FnOnce$LT$A$GT$$u20$for$u20$$RF$mut$u20$F$GT$9call_once17hfa7b86313b107fb9E', symObjAddr: 0x620, symBinAddr: 0x93910, symSize: 0x1A0 }
  - { offsetInCU: 0x30138, offset: 0x245BF0, size: 0x8, addend: 0x0, symName: __ZN12serde_derive5bound10with_bound12FindTyParams10visit_path17hedf02cfddfa11fedE, symObjAddr: 0x8B60, symBinAddr: 0x9BD80, symSize: 0x540 }
  - { offsetInCU: 0x31BD4, offset: 0x24768C, size: 0x8, addend: 0x0, symName: __ZN12serde_derive5bound10with_bound12FindTyParams10visit_type17h362935c82a23da1dE, symObjAddr: 0x90A0, symBinAddr: 0x9C2C0, symSize: 0x3F0 }
  - { offsetInCU: 0x1E, offset: 0x24D3A2, size: 0x8, addend: 0x0, symName: '__ZN114_$LT$core..iter..adapters..flatten..FlatMap$LT$I$C$U$C$F$GT$$u20$as$u20$core..iter..traits..iterator..Iterator$GT$10advance_by17h9c0ca30c9e2a1612E.llvm.13280221438311147520', symObjAddr: 0x0, symBinAddr: 0x9CDF0, symSize: 0x120 }
  - { offsetInCU: 0x35, offset: 0x24D3B9, size: 0x8, addend: 0x0, symName: _anon.1e99f859b04873f5a084764dee3e0fa1.1.llvm.13280221438311147520, symObjAddr: 0x9C28, symBinAddr: 0x34D3D8, symSize: 0x0 }
  - { offsetInCU: 0x424, offset: 0x24D7A8, size: 0x8, addend: 0x0, symName: '__ZN114_$LT$core..iter..adapters..flatten..FlatMap$LT$I$C$U$C$F$GT$$u20$as$u20$core..iter..traits..iterator..Iterator$GT$10advance_by17h9c0ca30c9e2a1612E.llvm.13280221438311147520', symObjAddr: 0x0, symBinAddr: 0x9CDF0, symSize: 0x120 }
  - { offsetInCU: 0x44B, offset: 0x24D7CF, size: 0x8, addend: 0x0, symName: '__ZN114_$LT$core..iter..adapters..flatten..FlatMap$LT$I$C$U$C$F$GT$$u20$as$u20$core..iter..traits..iterator..Iterator$GT$10advance_by17h9c0ca30c9e2a1612E.llvm.13280221438311147520', symObjAddr: 0x0, symBinAddr: 0x9CDF0, symSize: 0x120 }
  - { offsetInCU: 0x46F, offset: 0x24D7F3, size: 0x8, addend: 0x0, symName: '__ZN114_$LT$core..iter..adapters..flatten..FlatMap$LT$I$C$U$C$F$GT$$u20$as$u20$core..iter..traits..iterator..Iterator$GT$10advance_by17h9c0ca30c9e2a1612E.llvm.13280221438311147520', symObjAddr: 0x0, symBinAddr: 0x9CDF0, symSize: 0x120 }
  - { offsetInCU: 0x490, offset: 0x24D814, size: 0x8, addend: 0x0, symName: '__ZN114_$LT$core..iter..adapters..flatten..FlatMap$LT$I$C$U$C$F$GT$$u20$as$u20$core..iter..traits..iterator..Iterator$GT$10advance_by17h9c0ca30c9e2a1612E.llvm.13280221438311147520', symObjAddr: 0x0, symBinAddr: 0x9CDF0, symSize: 0x120 }
  - { offsetInCU: 0xD13, offset: 0x24E097, size: 0x8, addend: 0x0, symName: '__ZN114_$LT$core..iter..adapters..flatten..FlatMap$LT$I$C$U$C$F$GT$$u20$as$u20$core..iter..traits..iterator..Iterator$GT$4next17h96886cb1ed37f992E.llvm.13280221438311147520', symObjAddr: 0x120, symBinAddr: 0x9CF10, symSize: 0xA0 }
  - { offsetInCU: 0x106D, offset: 0x24E3F1, size: 0x8, addend: 0x0, symName: '__ZN114_$LT$core..iter..adapters..flatten..FlatMap$LT$I$C$U$C$F$GT$$u20$as$u20$core..iter..traits..iterator..Iterator$GT$9size_hint17hb5cdf814284a4daeE.llvm.13280221438311147520', symObjAddr: 0x1C0, symBinAddr: 0x9CFB0, symSize: 0x90 }
  - { offsetInCU: 0x1787, offset: 0x24EB0B, size: 0x8, addend: 0x0, symName: __ZN4core4iter6traits8iterator8Iterator3nth17h5bf89614aeb41841E.llvm.13280221438311147520, symObjAddr: 0x7F10, symBinAddr: 0xA4BE0, symSize: 0x1B0 }
  - { offsetInCU: 0x288D, offset: 0x24FC11, size: 0x8, addend: 0x0, symName: '__ZN91_$LT$core..slice..iter..Iter$LT$T$GT$$u20$as$u20$core..iter..traits..iterator..Iterator$GT$10advance_by17h5c17af0808c5c7baE.llvm.13280221438311147520', symObjAddr: 0x80C0, symBinAddr: 0xA4D90, symSize: 0x40 }
  - { offsetInCU: 0x2A9A, offset: 0x24FE1E, size: 0x8, addend: 0x0, symName: '__ZN91_$LT$core..slice..iter..Iter$LT$T$GT$$u20$as$u20$core..iter..traits..iterator..Iterator$GT$3nth17hf0fe1db59dfee166E.llvm.13280221438311147520', symObjAddr: 0x8100, symBinAddr: 0xA4DD0, symSize: 0x50 }
  - { offsetInCU: 0x2B7E, offset: 0x24FF02, size: 0x8, addend: 0x0, symName: '__ZN91_$LT$core..slice..iter..Iter$LT$T$GT$$u20$as$u20$core..iter..traits..iterator..Iterator$GT$4next17hd9e635fb90f6a9ceE.llvm.13280221438311147520', symObjAddr: 0x8150, symBinAddr: 0xA4E20, symSize: 0x20 }
  - { offsetInCU: 0x2C93, offset: 0x250017, size: 0x8, addend: 0x0, symName: '__ZN91_$LT$core..slice..iter..Iter$LT$T$GT$$u20$as$u20$core..iter..traits..iterator..Iterator$GT$9size_hint17he0a6eab8ee2ea0e6E.llvm.13280221438311147520', symObjAddr: 0x8170, symBinAddr: 0xA4E40, symSize: 0x30 }
  - { offsetInCU: 0x4A40, offset: 0x251DC4, size: 0x8, addend: 0x0, symName: '__ZN4core3ptr100drop_in_place$LT$core..option..Option$LT$alloc..boxed..Box$LT$syn..path..GenericArgument$GT$$GT$$GT$17h91f76f7535c0ef94E', symObjAddr: 0x750, symBinAddr: 0x9D420, symSize: 0x50 }
  - { offsetInCU: 0x4D64, offset: 0x2520E8, size: 0x8, addend: 0x0, symName: '__ZN4core3ptr100drop_in_place$LT$syn..punctuated..Punctuated$LT$syn..path..PathSegment$C$syn..token..PathSep$GT$$GT$17h8967d620e5262808E', symObjAddr: 0x7A0, symBinAddr: 0x9D470, symSize: 0x260 }
  - { offsetInCU: 0x56DE, offset: 0x252A62, size: 0x8, addend: 0x0, symName: '__ZN4core3ptr101drop_in_place$LT$core..option..Option$LT$alloc..vec..Vec$LT$syn..generics..WherePredicate$GT$$GT$$GT$17hfc4d4b0edb7e476fE', symObjAddr: 0xA00, symBinAddr: 0x9D6D0, symSize: 0xE0 }
  - { offsetInCU: 0x594B, offset: 0x252CCF, size: 0x8, addend: 0x0, symName: '__ZN4core3ptr103drop_in_place$LT$core..option..Option$LT$alloc..boxed..Box$LT$syn..generics..TypeParamBound$GT$$GT$$GT$17h044206982686810cE', symObjAddr: 0xAE0, symBinAddr: 0x9D7B0, symSize: 0x50 }
  - { offsetInCU: 0x5B58, offset: 0x252EDC, size: 0x8, addend: 0x0, symName: '__ZN4core3ptr103drop_in_place$LT$syn..punctuated..Punctuated$LT$syn..generics..GenericParam$C$syn..token..Comma$GT$$GT$17h28897b64a12579c2E', symObjAddr: 0xB30, symBinAddr: 0x9D800, symSize: 0xF0 }
  - { offsetInCU: 0x601B, offset: 0x25339F, size: 0x8, addend: 0x0, symName: '__ZN4core3ptr104drop_in_place$LT$syn..punctuated..Punctuated$LT$syn..generics..TypeParamBound$C$syn..token..Plus$GT$$GT$17h8a3e2526f1805111E', symObjAddr: 0xC20, symBinAddr: 0x9D8F0, symSize: 0x190 }
  - { offsetInCU: 0x65D4, offset: 0x253958, size: 0x8, addend: 0x0, symName: '__ZN4core3ptr155drop_in_place$LT$alloc..boxed..Box$LT$dyn$u20$core..iter..traits..iterator..Iterator$u2b$Item$u20$$u3d$$u20$$RF$serde_derive..internals..ast..Field$GT$$GT$17ha10ffbb5d34b5f4dE.llvm.13280221438311147520', symObjAddr: 0xDB0, symBinAddr: 0x9DA80, symSize: 0x60 }
  - { offsetInCU: 0x67CF, offset: 0x253B53, size: 0x8, addend: 0x0, symName: '__ZN4core3ptr282drop_in_place$LT$core..iter..adapters..flatten..FlatMap$LT$core..slice..iter..Iter$LT$serde_derive..internals..ast..Variant$GT$$C$core..slice..iter..Iter$LT$serde_derive..internals..ast..Field$GT$$C$serde_derive..internals..ast..Data..all_fields..$u7b$$u7b$closure$u7d$$u7d$$GT$$GT$17h463d76766e6393b4E.llvm.13280221438311147520', symObjAddr: 0xE10, symBinAddr: 0x9DAE0, symSize: 0x0 }
  - { offsetInCU: 0x68B5, offset: 0x253C39, size: 0x8, addend: 0x0, symName: '__ZN4core3ptr34drop_in_place$LT$syn..lit..Lit$GT$17h909e98f6870548d6E', symObjAddr: 0xE20, symBinAddr: 0x9DAF0, symSize: 0x110 }
  - { offsetInCU: 0x6DEF, offset: 0x254173, size: 0x8, addend: 0x0, symName: '__ZN4core3ptr34drop_in_place$LT$syn..pat..Pat$GT$17h8fcd4c90be46a62aE', symObjAddr: 0xF30, symBinAddr: 0x9DC00, symSize: 0xE60 }
  - { offsetInCU: 0xA1AD, offset: 0x257531, size: 0x8, addend: 0x0, symName: '__ZN4core3ptr34drop_in_place$LT$syn..ty..Type$GT$17h774a0ab6b4cf283eE', symObjAddr: 0x1D90, symBinAddr: 0x9EA60, symSize: 0x4F0 }
  - { offsetInCU: 0xB6D9, offset: 0x258A5D, size: 0x8, addend: 0x0, symName: '__ZN4core3ptr36drop_in_place$LT$syn..expr..Expr$GT$17h7fd8f0d642db296eE', symObjAddr: 0x2280, symBinAddr: 0x9EF50, symSize: 0x2770 }
  - { offsetInCU: 0x146BB, offset: 0x261A3F, size: 0x8, addend: 0x0, symName: '__ZN4core3ptr36drop_in_place$LT$syn..mac..Macro$GT$17hc8e4594548e1fb74E', symObjAddr: 0x49F0, symBinAddr: 0xA16C0, symSize: 0x40 }
  - { offsetInCU: 0x146F5, offset: 0x261A79, size: 0x8, addend: 0x0, symName: '__ZN4core3ptr36drop_in_place$LT$syn..path..Path$GT$17hae91be932b20df1dE', symObjAddr: 0x4A30, symBinAddr: 0xA1700, symSize: 0x220 }
  - { offsetInCU: 0x1502A, offset: 0x2623AE, size: 0x8, addend: 0x0, symName: '__ZN4core3ptr37drop_in_place$LT$syn..path..QSelf$GT$17h8e1bc07903d8e4a7E', symObjAddr: 0x4C50, symBinAddr: 0xA1920, symSize: 0x50 }
  - { offsetInCU: 0x151A4, offset: 0x262528, size: 0x8, addend: 0x0, symName: '__ZN4core3ptr37drop_in_place$LT$syn..stmt..Block$GT$17hba4e7ddf28617bfdE', symObjAddr: 0x4CA0, symBinAddr: 0xA1970, symSize: 0xD0 }
  - { offsetInCU: 0x15448, offset: 0x2627CC, size: 0x8, addend: 0x0, symName: '__ZN4core3ptr38drop_in_place$LT$syn..expr..Member$GT$17ha7c2806ee150b6f6E', symObjAddr: 0x4D70, symBinAddr: 0xA1A40, symSize: 0x30 }
  - { offsetInCU: 0x15545, offset: 0x2628C9, size: 0x8, addend: 0x0, symName: '__ZN4core3ptr39drop_in_place$LT$proc_macro2..Ident$GT$17h8dfea26593c17b61E', symObjAddr: 0x4DA0, symBinAddr: 0xA1A70, symSize: 0x30 }
  - { offsetInCU: 0x15623, offset: 0x2629A7, size: 0x8, addend: 0x0, symName: '__ZN4core3ptr40drop_in_place$LT$syn..expr..ExprPath$GT$17h558f3eab01e13045E', symObjAddr: 0x4DD0, symBinAddr: 0xA1AA0, symSize: 0x110 }
  - { offsetInCU: 0x15AB4, offset: 0x262E38, size: 0x8, addend: 0x0, symName: '__ZN4core3ptr40drop_in_place$LT$syn..ty..ReturnType$GT$17h3c2856ff70e83fa7E', symObjAddr: 0x4EE0, symBinAddr: 0xA1BB0, symSize: 0x50 }
  - { offsetInCU: 0x15C26, offset: 0x262FAA, size: 0x8, addend: 0x0, symName: '__ZN4core3ptr41drop_in_place$LT$syn..expr..ExprConst$GT$17h3f369735cc377020E', symObjAddr: 0x4F30, symBinAddr: 0xA1C00, symSize: 0x180 }
  - { offsetInCU: 0x1617B, offset: 0x2634FF, size: 0x8, addend: 0x0, symName: '__ZN4core3ptr44drop_in_place$LT$syn..lifetime..Lifetime$GT$17h263f9508be5fff98E', symObjAddr: 0x50B0, symBinAddr: 0xA1D80, symSize: 0x30 }
  - { offsetInCU: 0x163AE, offset: 0x263732, size: 0x8, addend: 0x0, symName: '__ZN4core3ptr45drop_in_place$LT$proc_macro2..TokenStream$GT$17hcbbbd6ac69a3e46cE', symObjAddr: 0x50E0, symBinAddr: 0xA1DB0, symSize: 0x140 }
  - { offsetInCU: 0x1681D, offset: 0x263BA1, size: 0x8, addend: 0x0, symName: '__ZN4core3ptr45drop_in_place$LT$syn..generics..TypeParam$GT$17h3f489d24bf2868acE', symObjAddr: 0x5220, symBinAddr: 0xA1EF0, symSize: 0x230 }
  - { offsetInCU: 0x17019, offset: 0x26439D, size: 0x8, addend: 0x0, symName: '__ZN4core3ptr46drop_in_place$LT$syn..generics..ConstParam$GT$17hb82cf1b5639462f6E', symObjAddr: 0x5450, symBinAddr: 0xA2120, symSize: 0x150 }
  - { offsetInCU: 0x17443, offset: 0x2647C7, size: 0x8, addend: 0x0, symName: '__ZN4core3ptr47drop_in_place$LT$syn..path..GenericArgument$GT$17ha4d1e2427b5b79f7E', symObjAddr: 0x55A0, symBinAddr: 0xA2270, symSize: 0x4A0 }
  - { offsetInCU: 0x184EA, offset: 0x26586E, size: 0x8, addend: 0x0, symName: '__ZN4core3ptr49drop_in_place$LT$syn..generics..LifetimeParam$GT$17h54e59d96d3078601E', symObjAddr: 0x5A40, symBinAddr: 0xA2710, symSize: 0xF0 }
  - { offsetInCU: 0x188A4, offset: 0x265C28, size: 0x8, addend: 0x0, symName: '__ZN4core3ptr50drop_in_place$LT$syn..generics..TypeParamBound$GT$17h3bdcf102e80fe526E', symObjAddr: 0x5B30, symBinAddr: 0xA2800, symSize: 0x160 }
  - { offsetInCU: 0x18D02, offset: 0x266086, size: 0x8, addend: 0x0, symName: '__ZN4core3ptr55drop_in_place$LT$serde_derive..internals..ast..Data$GT$17h87a31a1d27ef916eE', symObjAddr: 0x5C90, symBinAddr: 0xA2960, symSize: 0x120 }
  - { offsetInCU: 0x191E6, offset: 0x26656A, size: 0x8, addend: 0x0, symName: '__ZN4core3ptr56drop_in_place$LT$serde_derive..internals..attr..Name$GT$17hd40e63d081cf4ed8E', symObjAddr: 0x5DB0, symBinAddr: 0xA2A80, symSize: 0x100 }
  - { offsetInCU: 0x19758, offset: 0x266ADC, size: 0x8, addend: 0x0, symName: '__ZN4core3ptr58drop_in_place$LT$alloc..vec..Vec$LT$syn..expr..Arm$GT$$GT$17h2816916be2f2c677E', symObjAddr: 0x5EB0, symBinAddr: 0xA2B80, symSize: 0xD0 }
  - { offsetInCU: 0x199E5, offset: 0x266D69, size: 0x8, addend: 0x0, symName: '__ZN4core3ptr59drop_in_place$LT$alloc..boxed..Box$LT$syn..pat..Pat$GT$$GT$17h97d5257714c9f93cE', symObjAddr: 0x5F80, symBinAddr: 0xA2C50, symSize: 0x50 }
  - { offsetInCU: 0x19B40, offset: 0x266EC4, size: 0x8, addend: 0x0, symName: '__ZN4core3ptr59drop_in_place$LT$alloc..boxed..Box$LT$syn..ty..Type$GT$$GT$17h54564496a417dc0bE', symObjAddr: 0x5FD0, symBinAddr: 0xA2CA0, symSize: 0x50 }
  - { offsetInCU: 0x19C9B, offset: 0x26701F, size: 0x8, addend: 0x0, symName: '__ZN4core3ptr59drop_in_place$LT$serde_derive..internals..attr..TagType$GT$17h8ebcadab1e08c727E', symObjAddr: 0x6020, symBinAddr: 0xA2CF0, symSize: 0x70 }
  - { offsetInCU: 0x19E83, offset: 0x267207, size: 0x8, addend: 0x0, symName: '__ZN4core3ptr60drop_in_place$LT$serde_derive..internals..ast..Container$GT$17he6f2acf5c0d548e8E', symObjAddr: 0x6090, symBinAddr: 0xA2D60, symSize: 0x70 }
  - { offsetInCU: 0x19F95, offset: 0x267319, size: 0x8, addend: 0x0, symName: '__ZN4core3ptr61drop_in_place$LT$alloc..boxed..Box$LT$syn..expr..Expr$GT$$GT$17hcb812af949707350E', symObjAddr: 0x6100, symBinAddr: 0xA2DD0, symSize: 0x50 }
  - { offsetInCU: 0x1A16C, offset: 0x2674F0, size: 0x8, addend: 0x0, symName: '__ZN4core3ptr61drop_in_place$LT$serde_derive..internals..attr..Container$GT$17h29ecb40b305798b8E', symObjAddr: 0x6150, symBinAddr: 0xA2E20, symSize: 0x370 }
  - { offsetInCU: 0x1ABAC, offset: 0x267F30, size: 0x8, addend: 0x0, symName: '__ZN4core3ptr61drop_in_place$LT$syn..path..ParenthesizedGenericArguments$GT$17h2cda518d73cfbc65E', symObjAddr: 0x64C0, symBinAddr: 0xA3190, symSize: 0x170 }
  - { offsetInCU: 0x1B173, offset: 0x2684F7, size: 0x8, addend: 0x0, symName: '__ZN4core3ptr62drop_in_place$LT$syn..path..AngleBracketedGenericArguments$GT$17h532d3ccffb7c0f6eE', symObjAddr: 0x6630, symBinAddr: 0xA3300, symSize: 0x120 }
  - { offsetInCU: 0x1B589, offset: 0x26890D, size: 0x8, addend: 0x0, symName: '__ZN4core3ptr63drop_in_place$LT$alloc..boxed..Box$LT$syn..lit..LitRepr$GT$$GT$17h4f0b7f87f46ca722E', symObjAddr: 0x6750, symBinAddr: 0xA3420, symSize: 0x60 }
  - { offsetInCU: 0x1B87E, offset: 0x268C02, size: 0x8, addend: 0x0, symName: '__ZN4core3ptr64drop_in_place$LT$alloc..boxed..Box$LT$syn..pat..FieldPat$GT$$GT$17h24cd16a7bd79a0afE', symObjAddr: 0x67B0, symBinAddr: 0xA3480, symSize: 0x140 }
  - { offsetInCU: 0x1BF29, offset: 0x2692AD, size: 0x8, addend: 0x0, symName: '__ZN4core3ptr64drop_in_place$LT$alloc..boxed..Box$LT$syn..ty..BareFnArg$GT$$GT$17h8d6c5b973f90cb46E', symObjAddr: 0x68F0, symBinAddr: 0xA35C0, symSize: 0x140 }
  - { offsetInCU: 0x1C44D, offset: 0x2697D1, size: 0x8, addend: 0x0, symName: '__ZN4core3ptr65drop_in_place$LT$core..option..Option$LT$syn..expr..Label$GT$$GT$17h49c37bc37ca5807aE', symObjAddr: 0x6A30, symBinAddr: 0xA3700, symSize: 0x30 }
  - { offsetInCU: 0x1C588, offset: 0x26990C, size: 0x8, addend: 0x0, symName: '__ZN4core3ptr65drop_in_place$LT$core..option..Option$LT$syn..path..QSelf$GT$$GT$17hcf801102a0c1571fE', symObjAddr: 0x6A60, symBinAddr: 0xA3730, symSize: 0x50 }
  - { offsetInCU: 0x1C721, offset: 0x269AA5, size: 0x8, addend: 0x0, symName: '__ZN4core3ptr66drop_in_place$LT$core..option..Option$LT$syn..pat..PatRest$GT$$GT$17ha0b10c3084c29dd7E', symObjAddr: 0x6AB0, symBinAddr: 0xA3780, symSize: 0xE0 }
  - { offsetInCU: 0x1C9A5, offset: 0x269D29, size: 0x8, addend: 0x0, symName: '__ZN4core3ptr67drop_in_place$LT$alloc..boxed..Box$LT$syn..expr..FieldValue$GT$$GT$17h51140dec2dd742b5E', symObjAddr: 0x6B90, symBinAddr: 0xA3860, symSize: 0x140 }
  - { offsetInCU: 0x1CEA9, offset: 0x26A22D, size: 0x8, addend: 0x0, symName: '__ZN4core3ptr68drop_in_place$LT$alloc..boxed..Box$LT$syn..path..PathSegment$GT$$GT$17h6663076be8cb9e8fE', symObjAddr: 0x6CD0, symBinAddr: 0xA39A0, symSize: 0x190 }
  - { offsetInCU: 0x1D587, offset: 0x26A90B, size: 0x8, addend: 0x0, symName: '__ZN4core3ptr70drop_in_place$LT$core..option..Option$LT$syn..ty..BareVariadic$GT$$GT$17h006e7519360f59bbE', symObjAddr: 0x6E60, symBinAddr: 0xA3B30, symSize: 0x120 }
  - { offsetInCU: 0x1DAB4, offset: 0x26AE38, size: 0x8, addend: 0x0, symName: '__ZN4core3ptr72drop_in_place$LT$alloc..boxed..Box$LT$syn..path..GenericArgument$GT$$GT$17h9e43a058d82d49aaE', symObjAddr: 0x6F80, symBinAddr: 0xA3C50, symSize: 0x1D0 }
  - { offsetInCU: 0x1E057, offset: 0x26B3DB, size: 0x8, addend: 0x0, symName: '__ZN4core3ptr72drop_in_place$LT$core..option..Option$LT$syn..lifetime..Lifetime$GT$$GT$17h2cbddfd17a7fb6a0E', symObjAddr: 0x7150, symBinAddr: 0xA3E20, symSize: 0x30 }
  - { offsetInCU: 0x1E173, offset: 0x26B4F7, size: 0x8, addend: 0x0, symName: '__ZN4core3ptr73drop_in_place$LT$alloc..boxed..Box$LT$syn..generics..GenericParam$GT$$GT$17hdf8f6b3d2d504eeeE', symObjAddr: 0x7180, symBinAddr: 0xA3E50, symSize: 0x80 }
  - { offsetInCU: 0x1E2EB, offset: 0x26B66F, size: 0x8, addend: 0x0, symName: '__ZN4core3ptr75drop_in_place$LT$alloc..boxed..Box$LT$syn..generics..TypeParamBound$GT$$GT$17he16e1f4f3b231893E', symObjAddr: 0x7200, symBinAddr: 0xA3ED0, symSize: 0xB0 }
  - { offsetInCU: 0x1E5E9, offset: 0x26B96D, size: 0x8, addend: 0x0, symName: '__ZN4core3ptr81drop_in_place$LT$alloc..vec..Vec$LT$serde_derive..internals..ast..Variant$GT$$GT$17ha1cc339dbc8490b9E', symObjAddr: 0x72B0, symBinAddr: 0xA3F80, symSize: 0xD0 }
  - { offsetInCU: 0x1E8D3, offset: 0x26BC57, size: 0x8, addend: 0x0, symName: '__ZN4core3ptr86drop_in_place$LT$syn..punctuated..Punctuated$LT$syn..pat..Pat$C$syn..token..Or$GT$$GT$17h449b7e6b5537b210E', symObjAddr: 0x7380, symBinAddr: 0xA4050, symSize: 0x120 }
  - { offsetInCU: 0x1ED19, offset: 0x26C09D, size: 0x8, addend: 0x0, symName: '__ZN4core3ptr87drop_in_place$LT$core..option..Option$LT$alloc..boxed..Box$LT$syn..pat..Pat$GT$$GT$$GT$17hbff747ffa5f39bd3E', symObjAddr: 0x74A0, symBinAddr: 0xA4170, symSize: 0x50 }
  - { offsetInCU: 0x1EE8B, offset: 0x26C20F, size: 0x8, addend: 0x0, symName: '__ZN4core3ptr87drop_in_place$LT$core..option..Option$LT$alloc..boxed..Box$LT$syn..ty..Type$GT$$GT$$GT$17hd404efde6702ff0dE', symObjAddr: 0x74F0, symBinAddr: 0xA41C0, symSize: 0x50 }
  - { offsetInCU: 0x1EFFD, offset: 0x26C381, size: 0x8, addend: 0x0, symName: '__ZN4core3ptr89drop_in_place$LT$core..option..Option$LT$alloc..boxed..Box$LT$syn..expr..Expr$GT$$GT$$GT$17h981df8604670027bE', symObjAddr: 0x7540, symBinAddr: 0xA4210, symSize: 0x50 }
  - { offsetInCU: 0x1F1AD, offset: 0x26C531, size: 0x8, addend: 0x0, symName: '__ZN4core3ptr89drop_in_place$LT$syn..punctuated..Punctuated$LT$syn..pat..Pat$C$syn..token..Comma$GT$$GT$17h8165fd7eb02b8118E', symObjAddr: 0x7590, symBinAddr: 0xA4260, symSize: 0x120 }
  - { offsetInCU: 0x1F60A, offset: 0x26C98E, size: 0x8, addend: 0x0, symName: '__ZN4core3ptr89drop_in_place$LT$syn..punctuated..Punctuated$LT$syn..ty..Type$C$syn..token..Comma$GT$$GT$17h23a774170e770b9aE', symObjAddr: 0x76B0, symBinAddr: 0xA4380, symSize: 0x120 }
  - { offsetInCU: 0x1FA54, offset: 0x26CDD8, size: 0x8, addend: 0x0, symName: '__ZN4core3ptr90drop_in_place$LT$core..option..Option$LT$syn..path..AngleBracketedGenericArguments$GT$$GT$17h28a1c7f1e00311d1E', symObjAddr: 0x77D0, symBinAddr: 0xA44A0, symSize: 0x130 }
  - { offsetInCU: 0x1FEBF, offset: 0x26D243, size: 0x8, addend: 0x0, symName: '__ZN4core3ptr91drop_in_place$LT$syn..punctuated..Punctuated$LT$syn..expr..Expr$C$syn..token..Comma$GT$$GT$17ha27fe7b672ce38bdE', symObjAddr: 0x7900, symBinAddr: 0xA45D0, symSize: 0x120 }
  - { offsetInCU: 0x2031C, offset: 0x26D6A0, size: 0x8, addend: 0x0, symName: '__ZN4core3ptr94drop_in_place$LT$syn..punctuated..Punctuated$LT$syn..pat..FieldPat$C$syn..token..Comma$GT$$GT$17hd9ad3a9ff53c2a49E', symObjAddr: 0x7A20, symBinAddr: 0xA46F0, symSize: 0xF0 }
  - { offsetInCU: 0x205E6, offset: 0x26D96A, size: 0x8, addend: 0x0, symName: '__ZN4core3ptr94drop_in_place$LT$syn..punctuated..Punctuated$LT$syn..ty..BareFnArg$C$syn..token..Comma$GT$$GT$17h3ad0ecbb9acc3d94E', symObjAddr: 0x7B10, symBinAddr: 0xA47E0, symSize: 0xF0 }
  - { offsetInCU: 0x208B0, offset: 0x26DC34, size: 0x8, addend: 0x0, symName: '__ZN4core3ptr96drop_in_place$LT$core..option..Option$LT$alloc..boxed..Box$LT$syn..path..PathSegment$GT$$GT$$GT$17h15008b031e78f545E', symObjAddr: 0x7C00, symBinAddr: 0xA48D0, symSize: 0x90 }
  - { offsetInCU: 0x20B32, offset: 0x26DEB6, size: 0x8, addend: 0x0, symName: '__ZN4core3ptr97drop_in_place$LT$syn..punctuated..Punctuated$LT$syn..expr..FieldValue$C$syn..token..Comma$GT$$GT$17h7dd72fd62fffe077E', symObjAddr: 0x7C90, symBinAddr: 0xA4960, symSize: 0xF0 }
  - { offsetInCU: 0x20DFC, offset: 0x26E180, size: 0x8, addend: 0x0, symName: '__ZN4core3ptr98drop_in_place$LT$alloc..vec..Vec$LT$$LP$syn..path..GenericArgument$C$syn..token..Comma$RP$$GT$$GT$17h5d136a881836b500E', symObjAddr: 0x7D80, symBinAddr: 0xA4A50, symSize: 0xD0 }
  - { offsetInCU: 0x21105, offset: 0x26E489, size: 0x8, addend: 0x0, symName: '__ZN4core3ptr98drop_in_place$LT$syn..punctuated..Punctuated$LT$syn..lifetime..Lifetime$C$syn..token..Plus$GT$$GT$17haf6d03c18957eb1aE', symObjAddr: 0x7E50, symBinAddr: 0xA4B20, symSize: 0xC0 }
  - { offsetInCU: 0x23F70, offset: 0x2712F4, size: 0x8, addend: 0x0, symName: '__ZN4core3ops8function5impls80_$LT$impl$u20$core..ops..function..FnOnce$LT$A$GT$$u20$for$u20$$RF$mut$u20$F$GT$9call_once17h26f2438fad72e19eE', symObjAddr: 0x250, symBinAddr: 0x9D040, symSize: 0x3E0 }
  - { offsetInCU: 0x24D60, offset: 0x2720E4, size: 0x8, addend: 0x0, symName: __ZN12serde_derive9internals3ast15struct_from_ast17hbd651eac24e2911aE, symObjAddr: 0x89C0, symBinAddr: 0xA55D0, symSize: 0x23B }
  - { offsetInCU: 0x2D65B, offset: 0x27A9DF, size: 0x8, addend: 0x0, symName: _anon.1e99f859b04873f5a084764dee3e0fa1.2.llvm.13280221438311147520, symObjAddr: 0x9C60, symBinAddr: 0x34D410, symSize: 0x0 }
  - { offsetInCU: 0x2F04E, offset: 0x27C3D2, size: 0x8, addend: 0x0, symName: __ZN12serde_derive9internals3ast9Container8from_ast17hf980010ddd6532f4E, symObjAddr: 0x81A0, symBinAddr: 0xA4E70, symSize: 0x610 }
  - { offsetInCU: 0x30104, offset: 0x27D488, size: 0x8, addend: 0x0, symName: __ZN12serde_derive9internals3ast4Data10has_getter17h0303709ffe0f5dc7E, symObjAddr: 0x8870, symBinAddr: 0xA5480, symSize: 0x150 }
  - { offsetInCU: 0x1E, offset: 0x281274, size: 0x8, addend: 0x0, symName: '__ZN4core3ptr100drop_in_place$LT$core..option..Option$LT$alloc..boxed..Box$LT$syn..path..GenericArgument$GT$$GT$$GT$17h91f76f7535c0ef94E.llvm.7461381575858742092', symObjAddr: 0x0, symBinAddr: 0xA5810, symSize: 0x50 }
  - { offsetInCU: 0x1807, offset: 0x282A5D, size: 0x8, addend: 0x0, symName: '__ZN4core3ptr100drop_in_place$LT$core..option..Option$LT$alloc..boxed..Box$LT$syn..path..GenericArgument$GT$$GT$$GT$17h91f76f7535c0ef94E.llvm.7461381575858742092', symObjAddr: 0x0, symBinAddr: 0xA5810, symSize: 0x50 }
  - { offsetInCU: 0x19D6, offset: 0x282C2C, size: 0x8, addend: 0x0, symName: '__ZN4core3ptr100drop_in_place$LT$syn..punctuated..Punctuated$LT$syn..path..PathSegment$C$syn..token..PathSep$GT$$GT$17h8967d620e5262808E', symObjAddr: 0x50, symBinAddr: 0xA5860, symSize: 0xF0 }
  - { offsetInCU: 0x1CFD, offset: 0x282F53, size: 0x8, addend: 0x0, symName: '__ZN4core3ptr102drop_in_place$LT$syn..punctuated..Punctuated$LT$syn..path..GenericArgument$C$syn..token..Comma$GT$$GT$17h7deada5365120e66E', symObjAddr: 0x140, symBinAddr: 0xA5950, symSize: 0xF0 }
  - { offsetInCU: 0x1FE6, offset: 0x28323C, size: 0x8, addend: 0x0, symName: '__ZN4core3ptr103drop_in_place$LT$core..option..Option$LT$alloc..boxed..Box$LT$syn..generics..TypeParamBound$GT$$GT$$GT$17h044206982686810cE', symObjAddr: 0x230, symBinAddr: 0xA5A40, symSize: 0x50 }
  - { offsetInCU: 0x21F3, offset: 0x283449, size: 0x8, addend: 0x0, symName: '__ZN4core3ptr103drop_in_place$LT$syn..punctuated..Punctuated$LT$syn..generics..GenericParam$C$syn..token..Comma$GT$$GT$17h28897b64a12579c2E.llvm.7461381575858742092', symObjAddr: 0x280, symBinAddr: 0xA5A90, symSize: 0xF0 }
  - { offsetInCU: 0x2751, offset: 0x2839A7, size: 0x8, addend: 0x0, symName: '__ZN4core3ptr104drop_in_place$LT$syn..punctuated..Punctuated$LT$syn..generics..TypeParamBound$C$syn..token..Plus$GT$$GT$17h8a3e2526f1805111E.llvm.7461381575858742092', symObjAddr: 0x370, symBinAddr: 0xA5B80, symSize: 0x230 }
  - { offsetInCU: 0x307C, offset: 0x2842D2, size: 0x8, addend: 0x0, symName: '__ZN4core3ptr34drop_in_place$LT$syn..lit..Lit$GT$17h909e98f6870548d6E', symObjAddr: 0x5A0, symBinAddr: 0xA5DB0, symSize: 0x110 }
  - { offsetInCU: 0x35F4, offset: 0x28484A, size: 0x8, addend: 0x0, symName: '__ZN4core3ptr34drop_in_place$LT$syn..pat..Pat$GT$17h8fcd4c90be46a62aE', symObjAddr: 0x6B0, symBinAddr: 0xA5EC0, symSize: 0x1140 }
  - { offsetInCU: 0x7899, offset: 0x288AEF, size: 0x8, addend: 0x0, symName: '__ZN4core3ptr34drop_in_place$LT$syn..ty..Type$GT$17h774a0ab6b4cf283eE.llvm.7461381575858742092', symObjAddr: 0x17F0, symBinAddr: 0xA7000, symSize: 0x670 }
  - { offsetInCU: 0x9503, offset: 0x28A759, size: 0x8, addend: 0x0, symName: '__ZN4core3ptr36drop_in_place$LT$syn..expr..Expr$GT$17h7fd8f0d642db296eE.llvm.7461381575858742092', symObjAddr: 0x1E60, symBinAddr: 0xA7670, symSize: 0x29A0 }
  - { offsetInCU: 0x12F27, offset: 0x29417D, size: 0x8, addend: 0x0, symName: '__ZN4core3ptr36drop_in_place$LT$syn..mac..Macro$GT$17hc8e4594548e1fb74E', symObjAddr: 0x4800, symBinAddr: 0xAA010, symSize: 0x100 }
  - { offsetInCU: 0x1322B, offset: 0x294481, size: 0x8, addend: 0x0, symName: '__ZN4core3ptr36drop_in_place$LT$syn..path..Path$GT$17hae91be932b20df1dE.llvm.7461381575858742092', symObjAddr: 0x4900, symBinAddr: 0xAA110, symSize: 0x110 }
  - { offsetInCU: 0x13641, offset: 0x294897, size: 0x8, addend: 0x0, symName: '__ZN4core3ptr37drop_in_place$LT$syn..stmt..Block$GT$17hba4e7ddf28617bfdE', symObjAddr: 0x4A10, symBinAddr: 0xAA220, symSize: 0xD0 }
  - { offsetInCU: 0x13923, offset: 0x294B79, size: 0x8, addend: 0x0, symName: '__ZN4core3ptr38drop_in_place$LT$syn..expr..Member$GT$17ha7c2806ee150b6f6E', symObjAddr: 0x4B60, symBinAddr: 0xAA2F0, symSize: 0x30 }
  - { offsetInCU: 0x13A20, offset: 0x294C76, size: 0x8, addend: 0x0, symName: '__ZN4core3ptr39drop_in_place$LT$proc_macro2..Ident$GT$17h8dfea26593c17b61E.llvm.7461381575858742092', symObjAddr: 0x4B90, symBinAddr: 0xAA320, symSize: 0x30 }
  - { offsetInCU: 0x13AFE, offset: 0x294D54, size: 0x8, addend: 0x0, symName: '__ZN4core3ptr40drop_in_place$LT$syn..ty..ReturnType$GT$17h3c2856ff70e83fa7E', symObjAddr: 0x4BC0, symBinAddr: 0xAA350, symSize: 0x50 }
  - { offsetInCU: 0x13C70, offset: 0x294EC6, size: 0x8, addend: 0x0, symName: '__ZN4core3ptr41drop_in_place$LT$syn..expr..ExprConst$GT$17h3f369735cc377020E', symObjAddr: 0x4C10, symBinAddr: 0xAA3A0, symSize: 0x180 }
  - { offsetInCU: 0x142FB, offset: 0x295551, size: 0x8, addend: 0x0, symName: '__ZN4core3ptr43drop_in_place$LT$proc_macro2..TokenTree$GT$17h580b911abc7fb97bE.llvm.7461381575858742092', symObjAddr: 0x4DB0, symBinAddr: 0xAA520, symSize: 0xB0 }
  - { offsetInCU: 0x1464D, offset: 0x2958A3, size: 0x8, addend: 0x0, symName: '__ZN4core3ptr43drop_in_place$LT$syn..path..PathSegment$GT$17hca62e7ed1e037f21E.llvm.7461381575858742092', symObjAddr: 0x4E60, symBinAddr: 0xAA5D0, symSize: 0x170 }
  - { offsetInCU: 0x14B7F, offset: 0x295DD5, size: 0x8, addend: 0x0, symName: '__ZN4core3ptr44drop_in_place$LT$syn..lifetime..Lifetime$GT$17h263f9508be5fff98E.llvm.7461381575858742092', symObjAddr: 0x4FD0, symBinAddr: 0xAA740, symSize: 0x30 }
  - { offsetInCU: 0x14D17, offset: 0x295F6D, size: 0x8, addend: 0x0, symName: '__ZN4core3ptr45drop_in_place$LT$proc_macro2..TokenStream$GT$17hcbbbd6ac69a3e46cE.llvm.7461381575858742092', symObjAddr: 0x5000, symBinAddr: 0xAA770, symSize: 0x140 }
  - { offsetInCU: 0x15186, offset: 0x2963DC, size: 0x8, addend: 0x0, symName: '__ZN4core3ptr45drop_in_place$LT$syn..generics..TypeParam$GT$17h3f489d24bf2868acE.llvm.7461381575858742092', symObjAddr: 0x5140, symBinAddr: 0xAA8B0, symSize: 0x230 }
  - { offsetInCU: 0x15982, offset: 0x296BD8, size: 0x8, addend: 0x0, symName: '__ZN4core3ptr46drop_in_place$LT$syn..generics..ConstParam$GT$17hb82cf1b5639462f6E.llvm.7461381575858742092', symObjAddr: 0x5370, symBinAddr: 0xAAAE0, symSize: 0x150 }
  - { offsetInCU: 0x15DAC, offset: 0x297002, size: 0x8, addend: 0x0, symName: '__ZN4core3ptr47drop_in_place$LT$syn..path..GenericArgument$GT$17ha4d1e2427b5b79f7E.llvm.7461381575858742092', symObjAddr: 0x54C0, symBinAddr: 0xAAC30, symSize: 0x460 }
  - { offsetInCU: 0x16AB5, offset: 0x297D0B, size: 0x8, addend: 0x0, symName: '__ZN4core3ptr48drop_in_place$LT$syn..generics..GenericParam$GT$17hf964096905fcda37E.llvm.7461381575858742092', symObjAddr: 0x5920, symBinAddr: 0xAB090, symSize: 0x40 }
  - { offsetInCU: 0x16AD2, offset: 0x297D28, size: 0x8, addend: 0x0, symName: '__ZN4core3ptr49drop_in_place$LT$syn..generics..LifetimeParam$GT$17h54e59d96d3078601E.llvm.7461381575858742092', symObjAddr: 0x5960, symBinAddr: 0xAB0D0, symSize: 0xF0 }
  - { offsetInCU: 0x16E8C, offset: 0x2980E2, size: 0x8, addend: 0x0, symName: '__ZN4core3ptr50drop_in_place$LT$syn..generics..TypeParamBound$GT$17h3bdcf102e80fe526E.llvm.7461381575858742092', symObjAddr: 0x5A50, symBinAddr: 0xAB1C0, symSize: 0x1A0 }
  - { offsetInCU: 0x17447, offset: 0x29869D, size: 0x8, addend: 0x0, symName: '__ZN4core3ptr50drop_in_place$LT$syn..generics..WherePredicate$GT$17hb5b2f2697a9a6859E.llvm.7461381575858742092', symObjAddr: 0x5BF0, symBinAddr: 0xAB360, symSize: 0xA0 }
  - { offsetInCU: 0x175E8, offset: 0x29883E, size: 0x8, addend: 0x0, symName: '__ZN4core3ptr58drop_in_place$LT$alloc..vec..Vec$LT$syn..expr..Arm$GT$$GT$17h2816916be2f2c677E', symObjAddr: 0x5C90, symBinAddr: 0xAB400, symSize: 0xD0 }
  - { offsetInCU: 0x17875, offset: 0x298ACB, size: 0x8, addend: 0x0, symName: '__ZN4core3ptr59drop_in_place$LT$alloc..boxed..Box$LT$syn..pat..Pat$GT$$GT$17h97d5257714c9f93cE', symObjAddr: 0x5D60, symBinAddr: 0xAB4D0, symSize: 0x50 }
  - { offsetInCU: 0x179D0, offset: 0x298C26, size: 0x8, addend: 0x0, symName: '__ZN4core3ptr59drop_in_place$LT$alloc..boxed..Box$LT$syn..ty..Type$GT$$GT$17h54564496a417dc0bE.llvm.7461381575858742092', symObjAddr: 0x5DB0, symBinAddr: 0xAB520, symSize: 0x50 }
  - { offsetInCU: 0x17B2B, offset: 0x298D81, size: 0x8, addend: 0x0, symName: '__ZN4core3ptr61drop_in_place$LT$alloc..boxed..Box$LT$syn..expr..Expr$GT$$GT$17hcb812af949707350E', symObjAddr: 0x5E00, symBinAddr: 0xAB570, symSize: 0x50 }
  - { offsetInCU: 0x17C86, offset: 0x298EDC, size: 0x8, addend: 0x0, symName: '__ZN4core3ptr61drop_in_place$LT$syn..path..ParenthesizedGenericArguments$GT$17h2cda518d73cfbc65E.llvm.7461381575858742092', symObjAddr: 0x5E50, symBinAddr: 0xAB5C0, symSize: 0x170 }
  - { offsetInCU: 0x18260, offset: 0x2994B6, size: 0x8, addend: 0x0, symName: '__ZN4core3ptr63drop_in_place$LT$alloc..boxed..Box$LT$syn..lit..LitRepr$GT$$GT$17h4f0b7f87f46ca722E.llvm.7461381575858742092', symObjAddr: 0x5FC0, symBinAddr: 0xAB730, symSize: 0x60 }
  - { offsetInCU: 0x18555, offset: 0x2997AB, size: 0x8, addend: 0x0, symName: '__ZN4core3ptr64drop_in_place$LT$alloc..boxed..Box$LT$syn..pat..FieldPat$GT$$GT$17h24cd16a7bd79a0afE', symObjAddr: 0x6020, symBinAddr: 0xAB790, symSize: 0x140 }
  - { offsetInCU: 0x18C00, offset: 0x299E56, size: 0x8, addend: 0x0, symName: '__ZN4core3ptr64drop_in_place$LT$alloc..boxed..Box$LT$syn..ty..BareFnArg$GT$$GT$17h8d6c5b973f90cb46E', symObjAddr: 0x6160, symBinAddr: 0xAB8D0, symSize: 0x140 }
  - { offsetInCU: 0x19124, offset: 0x29A37A, size: 0x8, addend: 0x0, symName: '__ZN4core3ptr65drop_in_place$LT$core..option..Option$LT$syn..expr..Label$GT$$GT$17h49c37bc37ca5807aE', symObjAddr: 0x62A0, symBinAddr: 0xABA10, symSize: 0x30 }
  - { offsetInCU: 0x1925F, offset: 0x29A4B5, size: 0x8, addend: 0x0, symName: '__ZN4core3ptr66drop_in_place$LT$core..option..Option$LT$syn..pat..PatRest$GT$$GT$17ha0b10c3084c29dd7E', symObjAddr: 0x62D0, symBinAddr: 0xABA40, symSize: 0xE0 }
  - { offsetInCU: 0x194E3, offset: 0x29A739, size: 0x8, addend: 0x0, symName: '__ZN4core3ptr67drop_in_place$LT$alloc..boxed..Box$LT$syn..expr..FieldValue$GT$$GT$17h51140dec2dd742b5E', symObjAddr: 0x63B0, symBinAddr: 0xABB20, symSize: 0x140 }
  - { offsetInCU: 0x19A06, offset: 0x29AC5C, size: 0x8, addend: 0x0, symName: '__ZN4core3ptr68drop_in_place$LT$alloc..boxed..Box$LT$syn..path..PathSegment$GT$$GT$17h6663076be8cb9e8fE', symObjAddr: 0x64F0, symBinAddr: 0xABC60, symSize: 0x170 }
  - { offsetInCU: 0x1A09F, offset: 0x29B2F5, size: 0x8, addend: 0x0, symName: '__ZN4core3ptr70drop_in_place$LT$core..option..Option$LT$syn..ty..BareVariadic$GT$$GT$17h006e7519360f59bbE', symObjAddr: 0x6660, symBinAddr: 0xABDD0, symSize: 0x120 }
  - { offsetInCU: 0x1A5CC, offset: 0x29B822, size: 0x8, addend: 0x0, symName: '__ZN4core3ptr72drop_in_place$LT$alloc..boxed..Box$LT$syn..path..GenericArgument$GT$$GT$17h9e43a058d82d49aaE', symObjAddr: 0x6780, symBinAddr: 0xABEF0, symSize: 0x2B0 }
  - { offsetInCU: 0x1AFB7, offset: 0x29C20D, size: 0x8, addend: 0x0, symName: '__ZN4core3ptr72drop_in_place$LT$core..option..Option$LT$syn..lifetime..Lifetime$GT$$GT$17h2cbddfd17a7fb6a0E', symObjAddr: 0x6A30, symBinAddr: 0xAC1A0, symSize: 0x30 }
  - { offsetInCU: 0x1B0D3, offset: 0x29C329, size: 0x8, addend: 0x0, symName: '__ZN4core3ptr73drop_in_place$LT$alloc..boxed..Box$LT$syn..generics..GenericParam$GT$$GT$17hdf8f6b3d2d504eeeE.llvm.7461381575858742092', symObjAddr: 0x6A60, symBinAddr: 0xAC1D0, symSize: 0x80 }
  - { offsetInCU: 0x1B24B, offset: 0x29C4A1, size: 0x8, addend: 0x0, symName: '__ZN4core3ptr75drop_in_place$LT$alloc..boxed..Box$LT$syn..generics..TypeParamBound$GT$$GT$17he16e1f4f3b231893E', symObjAddr: 0x6AE0, symBinAddr: 0xAC250, symSize: 0x170 }
  - { offsetInCU: 0x1B801, offset: 0x29CA57, size: 0x8, addend: 0x0, symName: '__ZN4core3ptr76drop_in_place$LT$$LP$syn..generics..GenericParam$C$syn..token..Comma$RP$$GT$17h8a993afce9688910E.llvm.7461381575858742092', symObjAddr: 0x6C50, symBinAddr: 0xAC3C0, symSize: 0x40 }
  - { offsetInCU: 0x1B89A, offset: 0x29CAF0, size: 0x8, addend: 0x0, symName: '__ZN4core3ptr86drop_in_place$LT$syn..punctuated..Punctuated$LT$syn..pat..Pat$C$syn..token..Or$GT$$GT$17h449b7e6b5537b210E', symObjAddr: 0x6C90, symBinAddr: 0xAC400, symSize: 0x120 }
  - { offsetInCU: 0x1BCE0, offset: 0x29CF36, size: 0x8, addend: 0x0, symName: '__ZN4core3ptr87drop_in_place$LT$core..option..Option$LT$alloc..boxed..Box$LT$syn..pat..Pat$GT$$GT$$GT$17hbff747ffa5f39bd3E', symObjAddr: 0x6DB0, symBinAddr: 0xAC520, symSize: 0x50 }
  - { offsetInCU: 0x1BE52, offset: 0x29D0A8, size: 0x8, addend: 0x0, symName: '__ZN4core3ptr87drop_in_place$LT$core..option..Option$LT$alloc..boxed..Box$LT$syn..ty..Type$GT$$GT$$GT$17hd404efde6702ff0dE.llvm.7461381575858742092', symObjAddr: 0x6E00, symBinAddr: 0xAC570, symSize: 0x50 }
  - { offsetInCU: 0x1BFC4, offset: 0x29D21A, size: 0x8, addend: 0x0, symName: '__ZN4core3ptr89drop_in_place$LT$core..option..Option$LT$alloc..boxed..Box$LT$syn..expr..Expr$GT$$GT$$GT$17h981df8604670027bE', symObjAddr: 0x6E50, symBinAddr: 0xAC5C0, symSize: 0x50 }
  - { offsetInCU: 0x1C174, offset: 0x29D3CA, size: 0x8, addend: 0x0, symName: '__ZN4core3ptr89drop_in_place$LT$syn..punctuated..Punctuated$LT$syn..pat..Pat$C$syn..token..Comma$GT$$GT$17h8165fd7eb02b8118E', symObjAddr: 0x6EA0, symBinAddr: 0xAC610, symSize: 0x120 }
  - { offsetInCU: 0x1C60F, offset: 0x29D865, size: 0x8, addend: 0x0, symName: '__ZN4core3ptr91drop_in_place$LT$syn..punctuated..Punctuated$LT$syn..expr..Expr$C$syn..token..Comma$GT$$GT$17ha27fe7b672ce38bdE', symObjAddr: 0x6FC0, symBinAddr: 0xAC730, symSize: 0x120 }
  - { offsetInCU: 0x1CA6C, offset: 0x29DCC2, size: 0x8, addend: 0x0, symName: '__ZN4core3ptr94drop_in_place$LT$syn..punctuated..Punctuated$LT$syn..pat..FieldPat$C$syn..token..Comma$GT$$GT$17hd9ad3a9ff53c2a49E', symObjAddr: 0x70E0, symBinAddr: 0xAC850, symSize: 0xF0 }
  - { offsetInCU: 0x1CD36, offset: 0x29DF8C, size: 0x8, addend: 0x0, symName: '__ZN4core3ptr94drop_in_place$LT$syn..punctuated..Punctuated$LT$syn..ty..BareFnArg$C$syn..token..Comma$GT$$GT$17h3ad0ecbb9acc3d94E', symObjAddr: 0x71D0, symBinAddr: 0xAC940, symSize: 0xF0 }
  - { offsetInCU: 0x1D000, offset: 0x29E256, size: 0x8, addend: 0x0, symName: '__ZN4core3ptr96drop_in_place$LT$core..option..Option$LT$alloc..boxed..Box$LT$syn..path..PathSegment$GT$$GT$$GT$17h15008b031e78f545E.llvm.7461381575858742092', symObjAddr: 0x72C0, symBinAddr: 0xACA30, symSize: 0x50 }
  - { offsetInCU: 0x1D191, offset: 0x29E3E7, size: 0x8, addend: 0x0, symName: '__ZN4core3ptr97drop_in_place$LT$syn..punctuated..Punctuated$LT$syn..expr..FieldValue$C$syn..token..Comma$GT$$GT$17h7dd72fd62fffe077E', symObjAddr: 0x7360, symBinAddr: 0xACA80, symSize: 0xF0 }
  - { offsetInCU: 0x1D4B8, offset: 0x29E70E, size: 0x8, addend: 0x0, symName: '__ZN4core3ptr98drop_in_place$LT$syn..punctuated..Punctuated$LT$syn..lifetime..Lifetime$C$syn..token..Plus$GT$$GT$17haf6d03c18957eb1aE.llvm.7461381575858742092', symObjAddr: 0x7450, symBinAddr: 0xACB70, symSize: 0xC0 }
  - { offsetInCU: 0x259F9, offset: 0x2A6C4F, size: 0x8, addend: 0x0, symName: '__ZN86_$LT$alloc..vec..into_iter..IntoIter$LT$T$C$A$GT$$u20$as$u20$core..ops..drop..Drop$GT$4drop17h00a991c8264095a5E', symObjAddr: 0x7510, symBinAddr: 0xACC30, symSize: 0xF0 }
  - { offsetInCU: 0x25CC9, offset: 0x2A6F1F, size: 0x8, addend: 0x0, symName: '__ZN86_$LT$alloc..vec..into_iter..IntoIter$LT$T$C$A$GT$$u20$as$u20$core..ops..drop..Drop$GT$4drop17h321f9e0216bdd20aE', symObjAddr: 0x7600, symBinAddr: 0xACD20, symSize: 0x120 }
  - { offsetInCU: 0x25FC4, offset: 0x2A721A, size: 0x8, addend: 0x0, symName: '__ZN86_$LT$alloc..vec..into_iter..IntoIter$LT$T$C$A$GT$$u20$as$u20$core..ops..drop..Drop$GT$4drop17h3f4bd7183e08da7cE', symObjAddr: 0x7720, symBinAddr: 0xACE40, symSize: 0xF0 }
  - { offsetInCU: 0x26295, offset: 0x2A74EB, size: 0x8, addend: 0x0, symName: '__ZN86_$LT$alloc..vec..into_iter..IntoIter$LT$T$C$A$GT$$u20$as$u20$core..ops..drop..Drop$GT$4drop17h402ec73ad7eccd2eE', symObjAddr: 0x7810, symBinAddr: 0xACF30, symSize: 0xE0 }
  - { offsetInCU: 0x26565, offset: 0x2A77BB, size: 0x8, addend: 0x0, symName: '__ZN86_$LT$alloc..vec..into_iter..IntoIter$LT$T$C$A$GT$$u20$as$u20$core..ops..drop..Drop$GT$4drop17h4e19337e5ce2e680E', symObjAddr: 0x78F0, symBinAddr: 0xAD010, symSize: 0xA0 }
  - { offsetInCU: 0x2681B, offset: 0x2A7A71, size: 0x8, addend: 0x0, symName: '__ZN86_$LT$alloc..vec..into_iter..IntoIter$LT$T$C$A$GT$$u20$as$u20$core..ops..drop..Drop$GT$4drop17h60462176edc773f2E', symObjAddr: 0x7990, symBinAddr: 0xAD0B0, symSize: 0x120 }
  - { offsetInCU: 0x26C50, offset: 0x2A7EA6, size: 0x8, addend: 0x0, symName: '__ZN86_$LT$alloc..vec..into_iter..IntoIter$LT$T$C$A$GT$$u20$as$u20$core..ops..drop..Drop$GT$4drop17h64842f698d9815b1E', symObjAddr: 0x7AB0, symBinAddr: 0xAD1D0, symSize: 0xE0 }
  - { offsetInCU: 0x26F54, offset: 0x2A81AA, size: 0x8, addend: 0x0, symName: '__ZN86_$LT$alloc..vec..into_iter..IntoIter$LT$T$C$A$GT$$u20$as$u20$core..ops..drop..Drop$GT$4drop17h690c23ef70ed1d2bE', symObjAddr: 0x7B90, symBinAddr: 0xAD2B0, symSize: 0xC0 }
  - { offsetInCU: 0x2737D, offset: 0x2A85D3, size: 0x8, addend: 0x0, symName: '__ZN86_$LT$alloc..vec..into_iter..IntoIter$LT$T$C$A$GT$$u20$as$u20$core..ops..drop..Drop$GT$4drop17hc31c772e2ad03e3cE', symObjAddr: 0x7C50, symBinAddr: 0xAD370, symSize: 0xD0 }
  - { offsetInCU: 0x2764D, offset: 0x2A88A3, size: 0x8, addend: 0x0, symName: '__ZN86_$LT$alloc..vec..into_iter..IntoIter$LT$T$C$A$GT$$u20$as$u20$core..ops..drop..Drop$GT$4drop17headdf730509fdfc7E', symObjAddr: 0x7D50, symBinAddr: 0xAD440, symSize: 0xF0 }
  - { offsetInCU: 0x279BF, offset: 0x2A8C15, size: 0x8, addend: 0x0, symName: '__ZN86_$LT$alloc..vec..into_iter..IntoIter$LT$T$C$A$GT$$u20$as$u20$core..ops..drop..Drop$GT$4drop17hf37d4524e87818c2E', symObjAddr: 0x7E40, symBinAddr: 0xAD530, symSize: 0x120 }
  - { offsetInCU: 0x27CA3, offset: 0x2A8EF9, size: 0x8, addend: 0x0, symName: '__ZN86_$LT$alloc..vec..into_iter..IntoIter$LT$T$C$A$GT$$u20$as$u20$core..ops..drop..Drop$GT$4drop17hf50525d422e34bccE', symObjAddr: 0x7F60, symBinAddr: 0xAD650, symSize: 0xE5 }
  - { offsetInCU: 0x1E, offset: 0x2AED93, size: 0x8, addend: 0x0, symName: '__ZN4core3ptr100drop_in_place$LT$core..option..Option$LT$alloc..boxed..Box$LT$syn..path..GenericArgument$GT$$GT$$GT$17h91f76f7535c0ef94E', symObjAddr: 0x0, symBinAddr: 0xAD740, symSize: 0x50 }
  - { offsetInCU: 0x8A0F, offset: 0x2B7784, size: 0x8, addend: 0x0, symName: '__ZN4core3ptr100drop_in_place$LT$core..option..Option$LT$alloc..boxed..Box$LT$syn..path..GenericArgument$GT$$GT$$GT$17h91f76f7535c0ef94E', symObjAddr: 0x0, symBinAddr: 0xAD740, symSize: 0x50 }
  - { offsetInCU: 0x8DAF, offset: 0x2B7B24, size: 0x8, addend: 0x0, symName: '__ZN4core3ptr100drop_in_place$LT$syn..punctuated..Punctuated$LT$syn..path..PathSegment$C$syn..token..PathSep$GT$$GT$17h8967d620e5262808E', symObjAddr: 0x50, symBinAddr: 0xAD790, symSize: 0x260 }
  - { offsetInCU: 0x9748, offset: 0x2B84BD, size: 0x8, addend: 0x0, symName: '__ZN4core3ptr103drop_in_place$LT$core..option..Option$LT$alloc..boxed..Box$LT$syn..generics..TypeParamBound$GT$$GT$$GT$17h044206982686810cE', symObjAddr: 0x2B0, symBinAddr: 0xAD9F0, symSize: 0x50 }
  - { offsetInCU: 0x9955, offset: 0x2B86CA, size: 0x8, addend: 0x0, symName: '__ZN4core3ptr103drop_in_place$LT$syn..punctuated..Punctuated$LT$syn..generics..GenericParam$C$syn..token..Comma$GT$$GT$17h28897b64a12579c2E', symObjAddr: 0x300, symBinAddr: 0xADA40, symSize: 0xF0 }
  - { offsetInCU: 0x9E18, offset: 0x2B8B8D, size: 0x8, addend: 0x0, symName: '__ZN4core3ptr104drop_in_place$LT$syn..punctuated..Punctuated$LT$syn..generics..TypeParamBound$C$syn..token..Plus$GT$$GT$17h8a3e2526f1805111E', symObjAddr: 0x3F0, symBinAddr: 0xADB30, symSize: 0x190 }
  - { offsetInCU: 0xA48B, offset: 0x2B9200, size: 0x8, addend: 0x0, symName: '__ZN4core3ptr34drop_in_place$LT$syn..lit..Lit$GT$17h909e98f6870548d6E', symObjAddr: 0x580, symBinAddr: 0xADCC0, symSize: 0x110 }
  - { offsetInCU: 0xA9E4, offset: 0x2B9759, size: 0x8, addend: 0x0, symName: '__ZN4core3ptr34drop_in_place$LT$syn..pat..Pat$GT$17h8fcd4c90be46a62aE', symObjAddr: 0x690, symBinAddr: 0xADDD0, symSize: 0xFF0 }
  - { offsetInCU: 0xE45A, offset: 0x2BD1CF, size: 0x8, addend: 0x0, symName: '__ZN4core3ptr34drop_in_place$LT$syn..ty..Type$GT$17h774a0ab6b4cf283eE', symObjAddr: 0x1680, symBinAddr: 0xAEDC0, symSize: 0x4F0 }
  - { offsetInCU: 0xF9A5, offset: 0x2BE71A, size: 0x8, addend: 0x0, symName: '__ZN4core3ptr36drop_in_place$LT$syn..expr..Expr$GT$17h7fd8f0d642db296eE', symObjAddr: 0x1B70, symBinAddr: 0xAF2B0, symSize: 0x2900 }
  - { offsetInCU: 0x19041, offset: 0x2C7DB6, size: 0x8, addend: 0x0, symName: '__ZN4core3ptr36drop_in_place$LT$syn..mac..Macro$GT$17hc8e4594548e1fb74E', symObjAddr: 0x4470, symBinAddr: 0xB1BB0, symSize: 0x40 }
  - { offsetInCU: 0x1907B, offset: 0x2C7DF0, size: 0x8, addend: 0x0, symName: '__ZN4core3ptr36drop_in_place$LT$syn..path..Path$GT$17hae91be932b20df1dE', symObjAddr: 0x44B0, symBinAddr: 0xB1BF0, symSize: 0x220 }
  - { offsetInCU: 0x199B0, offset: 0x2C8725, size: 0x8, addend: 0x0, symName: '__ZN4core3ptr37drop_in_place$LT$syn..stmt..Block$GT$17hba4e7ddf28617bfdE', symObjAddr: 0x46D0, symBinAddr: 0xB1E10, symSize: 0xD0 }
  - { offsetInCU: 0x19C92, offset: 0x2C8A07, size: 0x8, addend: 0x0, symName: '__ZN4core3ptr38drop_in_place$LT$syn..error..Error$GT$17h82a5801562d337b6E', symObjAddr: 0x47A0, symBinAddr: 0xB1EE0, symSize: 0x80 }
  - { offsetInCU: 0x19F50, offset: 0x2C8CC5, size: 0x8, addend: 0x0, symName: '__ZN4core3ptr38drop_in_place$LT$syn..expr..Member$GT$17ha7c2806ee150b6f6E', symObjAddr: 0x4820, symBinAddr: 0xB1F60, symSize: 0x30 }
  - { offsetInCU: 0x1A04D, offset: 0x2C8DC2, size: 0x8, addend: 0x0, symName: '__ZN4core3ptr39drop_in_place$LT$proc_macro2..Ident$GT$17h8dfea26593c17b61E', symObjAddr: 0x4850, symBinAddr: 0xB1F90, symSize: 0x30 }
  - { offsetInCU: 0x1A12B, offset: 0x2C8EA0, size: 0x8, addend: 0x0, symName: '__ZN4core3ptr40drop_in_place$LT$syn..ty..ReturnType$GT$17h3c2856ff70e83fa7E', symObjAddr: 0x4880, symBinAddr: 0xB1FC0, symSize: 0x50 }
  - { offsetInCU: 0x1A29D, offset: 0x2C9012, size: 0x8, addend: 0x0, symName: '__ZN4core3ptr41drop_in_place$LT$syn..expr..ExprConst$GT$17h3f369735cc377020E', symObjAddr: 0x48D0, symBinAddr: 0xB2010, symSize: 0x180 }
  - { offsetInCU: 0x1A7F2, offset: 0x2C9567, size: 0x8, addend: 0x0, symName: '__ZN4core3ptr44drop_in_place$LT$syn..lifetime..Lifetime$GT$17h263f9508be5fff98E', symObjAddr: 0x4A50, symBinAddr: 0xB2190, symSize: 0x30 }
  - { offsetInCU: 0x1AA25, offset: 0x2C979A, size: 0x8, addend: 0x0, symName: '__ZN4core3ptr45drop_in_place$LT$proc_macro2..TokenStream$GT$17hcbbbd6ac69a3e46cE', symObjAddr: 0x4A80, symBinAddr: 0xB21C0, symSize: 0x140 }
  - { offsetInCU: 0x1AE94, offset: 0x2C9C09, size: 0x8, addend: 0x0, symName: '__ZN4core3ptr45drop_in_place$LT$syn..generics..TypeParam$GT$17h3f489d24bf2868acE', symObjAddr: 0x4BC0, symBinAddr: 0xB2300, symSize: 0x230 }
  - { offsetInCU: 0x1B690, offset: 0x2CA405, size: 0x8, addend: 0x0, symName: '__ZN4core3ptr46drop_in_place$LT$syn..generics..ConstParam$GT$17hb82cf1b5639462f6E', symObjAddr: 0x4DF0, symBinAddr: 0xB2530, symSize: 0x150 }
  - { offsetInCU: 0x1BABA, offset: 0x2CA82F, size: 0x8, addend: 0x0, symName: '__ZN4core3ptr47drop_in_place$LT$syn..path..GenericArgument$GT$17ha4d1e2427b5b79f7E', symObjAddr: 0x4F40, symBinAddr: 0xB2680, symSize: 0x4A0 }
  - { offsetInCU: 0x1CB61, offset: 0x2CB8D6, size: 0x8, addend: 0x0, symName: '__ZN4core3ptr49drop_in_place$LT$syn..generics..LifetimeParam$GT$17h54e59d96d3078601E', symObjAddr: 0x53E0, symBinAddr: 0xB2B20, symSize: 0xF0 }
  - { offsetInCU: 0x1CF1B, offset: 0x2CBC90, size: 0x8, addend: 0x0, symName: '__ZN4core3ptr50drop_in_place$LT$syn..generics..TypeParamBound$GT$17h3bdcf102e80fe526E', symObjAddr: 0x54D0, symBinAddr: 0xB2C10, symSize: 0x160 }
  - { offsetInCU: 0x1D33B, offset: 0x2CC0B0, size: 0x8, addend: 0x0, symName: '__ZN4core3ptr58drop_in_place$LT$alloc..vec..Vec$LT$syn..expr..Arm$GT$$GT$17h2816916be2f2c677E', symObjAddr: 0x5630, symBinAddr: 0xB2D70, symSize: 0xD0 }
  - { offsetInCU: 0x1D5C8, offset: 0x2CC33D, size: 0x8, addend: 0x0, symName: '__ZN4core3ptr59drop_in_place$LT$alloc..boxed..Box$LT$syn..pat..Pat$GT$$GT$17h97d5257714c9f93cE', symObjAddr: 0x5700, symBinAddr: 0xB2E40, symSize: 0x50 }
  - { offsetInCU: 0x1D723, offset: 0x2CC498, size: 0x8, addend: 0x0, symName: '__ZN4core3ptr59drop_in_place$LT$alloc..boxed..Box$LT$syn..ty..Type$GT$$GT$17h54564496a417dc0bE', symObjAddr: 0x5750, symBinAddr: 0xB2E90, symSize: 0x50 }
  - { offsetInCU: 0x1D87E, offset: 0x2CC5F3, size: 0x8, addend: 0x0, symName: '__ZN4core3ptr61drop_in_place$LT$alloc..boxed..Box$LT$syn..expr..Expr$GT$$GT$17hcb812af949707350E', symObjAddr: 0x57A0, symBinAddr: 0xB2EE0, symSize: 0x50 }
  - { offsetInCU: 0x1DA55, offset: 0x2CC7CA, size: 0x8, addend: 0x0, symName: '__ZN4core3ptr61drop_in_place$LT$syn..path..ParenthesizedGenericArguments$GT$17h2cda518d73cfbc65E', symObjAddr: 0x57F0, symBinAddr: 0xB2F30, symSize: 0x170 }
  - { offsetInCU: 0x1E01C, offset: 0x2CCD91, size: 0x8, addend: 0x0, symName: '__ZN4core3ptr62drop_in_place$LT$syn..path..AngleBracketedGenericArguments$GT$17h532d3ccffb7c0f6eE', symObjAddr: 0x5960, symBinAddr: 0xB30A0, symSize: 0x120 }
  - { offsetInCU: 0x1E432, offset: 0x2CD1A7, size: 0x8, addend: 0x0, symName: '__ZN4core3ptr63drop_in_place$LT$alloc..boxed..Box$LT$syn..lit..LitRepr$GT$$GT$17h4f0b7f87f46ca722E', symObjAddr: 0x5A80, symBinAddr: 0xB31C0, symSize: 0x60 }
  - { offsetInCU: 0x1E727, offset: 0x2CD49C, size: 0x8, addend: 0x0, symName: '__ZN4core3ptr64drop_in_place$LT$alloc..boxed..Box$LT$syn..pat..FieldPat$GT$$GT$17h24cd16a7bd79a0afE', symObjAddr: 0x5AE0, symBinAddr: 0xB3220, symSize: 0x140 }
  - { offsetInCU: 0x1EDD2, offset: 0x2CDB47, size: 0x8, addend: 0x0, symName: '__ZN4core3ptr64drop_in_place$LT$alloc..boxed..Box$LT$syn..ty..BareFnArg$GT$$GT$17h8d6c5b973f90cb46E', symObjAddr: 0x5C20, symBinAddr: 0xB3360, symSize: 0x140 }
  - { offsetInCU: 0x1F2F6, offset: 0x2CE06B, size: 0x8, addend: 0x0, symName: '__ZN4core3ptr65drop_in_place$LT$core..option..Option$LT$syn..expr..Label$GT$$GT$17h49c37bc37ca5807aE', symObjAddr: 0x5D60, symBinAddr: 0xB34A0, symSize: 0x30 }
  - { offsetInCU: 0x1F431, offset: 0x2CE1A6, size: 0x8, addend: 0x0, symName: '__ZN4core3ptr65drop_in_place$LT$core..option..Option$LT$syn..path..QSelf$GT$$GT$17hcf801102a0c1571fE', symObjAddr: 0x5D90, symBinAddr: 0xB34D0, symSize: 0x50 }
  - { offsetInCU: 0x1F5CA, offset: 0x2CE33F, size: 0x8, addend: 0x0, symName: '__ZN4core3ptr66drop_in_place$LT$core..option..Option$LT$syn..pat..PatRest$GT$$GT$17ha0b10c3084c29dd7E', symObjAddr: 0x5DE0, symBinAddr: 0xB3520, symSize: 0xE0 }
  - { offsetInCU: 0x1F84E, offset: 0x2CE5C3, size: 0x8, addend: 0x0, symName: '__ZN4core3ptr67drop_in_place$LT$alloc..boxed..Box$LT$syn..expr..FieldValue$GT$$GT$17h51140dec2dd742b5E', symObjAddr: 0x5EC0, symBinAddr: 0xB3600, symSize: 0x140 }
  - { offsetInCU: 0x1FD52, offset: 0x2CEAC7, size: 0x8, addend: 0x0, symName: '__ZN4core3ptr68drop_in_place$LT$alloc..boxed..Box$LT$syn..path..PathSegment$GT$$GT$17h6663076be8cb9e8fE', symObjAddr: 0x6000, symBinAddr: 0xB3740, symSize: 0x190 }
  - { offsetInCU: 0x20430, offset: 0x2CF1A5, size: 0x8, addend: 0x0, symName: '__ZN4core3ptr70drop_in_place$LT$core..option..Option$LT$syn..ty..BareVariadic$GT$$GT$17h006e7519360f59bbE', symObjAddr: 0x6190, symBinAddr: 0xB38D0, symSize: 0x120 }
  - { offsetInCU: 0x2095D, offset: 0x2CF6D2, size: 0x8, addend: 0x0, symName: '__ZN4core3ptr72drop_in_place$LT$alloc..boxed..Box$LT$syn..path..GenericArgument$GT$$GT$17h9e43a058d82d49aaE', symObjAddr: 0x62B0, symBinAddr: 0xB39F0, symSize: 0x1D0 }
  - { offsetInCU: 0x20F00, offset: 0x2CFC75, size: 0x8, addend: 0x0, symName: '__ZN4core3ptr72drop_in_place$LT$core..option..Option$LT$syn..lifetime..Lifetime$GT$$GT$17h2cbddfd17a7fb6a0E', symObjAddr: 0x6480, symBinAddr: 0xB3BC0, symSize: 0x30 }
  - { offsetInCU: 0x2101C, offset: 0x2CFD91, size: 0x8, addend: 0x0, symName: '__ZN4core3ptr73drop_in_place$LT$alloc..boxed..Box$LT$syn..generics..GenericParam$GT$$GT$17hdf8f6b3d2d504eeeE', symObjAddr: 0x64B0, symBinAddr: 0xB3BF0, symSize: 0x80 }
  - { offsetInCU: 0x21194, offset: 0x2CFF09, size: 0x8, addend: 0x0, symName: '__ZN4core3ptr75drop_in_place$LT$alloc..boxed..Box$LT$syn..generics..TypeParamBound$GT$$GT$17he16e1f4f3b231893E', symObjAddr: 0x6530, symBinAddr: 0xB3C70, symSize: 0xB0 }
  - { offsetInCU: 0x214EF, offset: 0x2D0264, size: 0x8, addend: 0x0, symName: '__ZN4core3ptr86drop_in_place$LT$syn..punctuated..Punctuated$LT$syn..pat..Pat$C$syn..token..Or$GT$$GT$17h449b7e6b5537b210E', symObjAddr: 0x65E0, symBinAddr: 0xB3D20, symSize: 0x120 }
  - { offsetInCU: 0x21935, offset: 0x2D06AA, size: 0x8, addend: 0x0, symName: '__ZN4core3ptr87drop_in_place$LT$core..option..Option$LT$alloc..boxed..Box$LT$syn..pat..Pat$GT$$GT$$GT$17hbff747ffa5f39bd3E', symObjAddr: 0x6700, symBinAddr: 0xB3E40, symSize: 0x50 }
  - { offsetInCU: 0x21AA7, offset: 0x2D081C, size: 0x8, addend: 0x0, symName: '__ZN4core3ptr87drop_in_place$LT$core..option..Option$LT$alloc..boxed..Box$LT$syn..ty..Type$GT$$GT$$GT$17hd404efde6702ff0dE', symObjAddr: 0x6750, symBinAddr: 0xB3E90, symSize: 0x50 }
  - { offsetInCU: 0x21C19, offset: 0x2D098E, size: 0x8, addend: 0x0, symName: '__ZN4core3ptr89drop_in_place$LT$core..option..Option$LT$alloc..boxed..Box$LT$syn..expr..Expr$GT$$GT$$GT$17h981df8604670027bE', symObjAddr: 0x67A0, symBinAddr: 0xB3EE0, symSize: 0x50 }
  - { offsetInCU: 0x21DC9, offset: 0x2D0B3E, size: 0x8, addend: 0x0, symName: '__ZN4core3ptr89drop_in_place$LT$syn..punctuated..Punctuated$LT$syn..pat..Pat$C$syn..token..Comma$GT$$GT$17h8165fd7eb02b8118E', symObjAddr: 0x67F0, symBinAddr: 0xB3F30, symSize: 0x120 }
  - { offsetInCU: 0x22226, offset: 0x2D0F9B, size: 0x8, addend: 0x0, symName: '__ZN4core3ptr89drop_in_place$LT$syn..punctuated..Punctuated$LT$syn..ty..Type$C$syn..token..Comma$GT$$GT$17h23a774170e770b9aE', symObjAddr: 0x6910, symBinAddr: 0xB4050, symSize: 0x120 }
  - { offsetInCU: 0x22670, offset: 0x2D13E5, size: 0x8, addend: 0x0, symName: '__ZN4core3ptr90drop_in_place$LT$core..option..Option$LT$syn..path..AngleBracketedGenericArguments$GT$$GT$17h28a1c7f1e00311d1E', symObjAddr: 0x6A30, symBinAddr: 0xB4170, symSize: 0x130 }
  - { offsetInCU: 0x22ADB, offset: 0x2D1850, size: 0x8, addend: 0x0, symName: '__ZN4core3ptr91drop_in_place$LT$syn..punctuated..Punctuated$LT$syn..expr..Expr$C$syn..token..Comma$GT$$GT$17ha27fe7b672ce38bdE', symObjAddr: 0x6B60, symBinAddr: 0xB42A0, symSize: 0x120 }
  - { offsetInCU: 0x22F38, offset: 0x2D1CAD, size: 0x8, addend: 0x0, symName: '__ZN4core3ptr94drop_in_place$LT$syn..punctuated..Punctuated$LT$syn..pat..FieldPat$C$syn..token..Comma$GT$$GT$17hd9ad3a9ff53c2a49E', symObjAddr: 0x6C80, symBinAddr: 0xB43C0, symSize: 0xF0 }
  - { offsetInCU: 0x23202, offset: 0x2D1F77, size: 0x8, addend: 0x0, symName: '__ZN4core3ptr94drop_in_place$LT$syn..punctuated..Punctuated$LT$syn..ty..BareFnArg$C$syn..token..Comma$GT$$GT$17h3ad0ecbb9acc3d94E', symObjAddr: 0x6D70, symBinAddr: 0xB44B0, symSize: 0xF0 }
  - { offsetInCU: 0x234CC, offset: 0x2D2241, size: 0x8, addend: 0x0, symName: '__ZN4core3ptr96drop_in_place$LT$core..option..Option$LT$alloc..boxed..Box$LT$syn..path..PathSegment$GT$$GT$$GT$17h15008b031e78f545E', symObjAddr: 0x6E60, symBinAddr: 0xB45A0, symSize: 0x90 }
  - { offsetInCU: 0x2374E, offset: 0x2D24C3, size: 0x8, addend: 0x0, symName: '__ZN4core3ptr97drop_in_place$LT$syn..punctuated..Punctuated$LT$syn..expr..FieldValue$C$syn..token..Comma$GT$$GT$17h7dd72fd62fffe077E', symObjAddr: 0x6EF0, symBinAddr: 0xB4630, symSize: 0xF0 }
  - { offsetInCU: 0x23A18, offset: 0x2D278D, size: 0x8, addend: 0x0, symName: '__ZN4core3ptr98drop_in_place$LT$alloc..vec..Vec$LT$$LP$syn..path..GenericArgument$C$syn..token..Comma$RP$$GT$$GT$17h5d136a881836b500E', symObjAddr: 0x6FE0, symBinAddr: 0xB4720, symSize: 0xD0 }
  - { offsetInCU: 0x23D21, offset: 0x2D2A96, size: 0x8, addend: 0x0, symName: '__ZN4core3ptr98drop_in_place$LT$syn..punctuated..Punctuated$LT$syn..lifetime..Lifetime$C$syn..token..Plus$GT$$GT$17haf6d03c18957eb1aE', symObjAddr: 0x70B0, symBinAddr: 0xB47F0, symSize: 0xC0 }
  - { offsetInCU: 0x2807C, offset: 0x2D6DF1, size: 0x8, addend: 0x0, symName: __ZN12serde_derive9internals8receiver16replace_receiver17h28bc1d800df967a7E, symObjAddr: 0x7170, symBinAddr: 0xB48B0, symSize: 0x7F0 }
  - { offsetInCU: 0x2AC96, offset: 0x2D9A0B, size: 0x8, addend: 0x0, symName: __ZN12serde_derive9internals8receiver15ReplaceReceiver7self_ty17hbaad030f3ad5c39fE, symObjAddr: 0x7960, symBinAddr: 0xB50A0, symSize: 0x160 }
  - { offsetInCU: 0x2B281, offset: 0x2D9FF6, size: 0x8, addend: 0x0, symName: __ZN12serde_derive9internals8receiver15ReplaceReceiver13self_to_qself17hed79144b6e929092E, symObjAddr: 0x7AC0, symBinAddr: 0xB5200, symSize: 0x790 }
  - { offsetInCU: 0x2CC93, offset: 0x2DBA08, size: 0x8, addend: 0x0, symName: __ZN12serde_derive9internals8receiver15ReplaceReceiver14visit_type_mut17heee60f578174063dE, symObjAddr: 0x8250, symBinAddr: 0xB5990, symSize: 0x730 }
  - { offsetInCU: 0x2EF93, offset: 0x2DDD08, size: 0x8, addend: 0x0, symName: __ZN12serde_derive9internals8receiver15ReplaceReceiver24visit_path_arguments_mut17h7ee0eef930587116E, symObjAddr: 0x8980, symBinAddr: 0xB60C0, symSize: 0x1D0 }
  - { offsetInCU: 0x2F8BC, offset: 0x2DE631, size: 0x8, addend: 0x0, symName: __ZN12serde_derive9internals8receiver15ReplaceReceiver14visit_expr_mut17he7f06cc9ee2f3bc0E, symObjAddr: 0x8B50, symBinAddr: 0xB6290, symSize: 0x25C }
  - { offsetInCU: 0x1E, offset: 0x2E2CA0, size: 0x8, addend: 0x0, symName: '__ZN4core3ptr100drop_in_place$LT$core..option..Option$LT$alloc..boxed..Box$LT$syn..path..GenericArgument$GT$$GT$$GT$17h91f76f7535c0ef94E', symObjAddr: 0x0, symBinAddr: 0xB64F0, symSize: 0x50 }
  - { offsetInCU: 0xEF3, offset: 0x2E3B75, size: 0x8, addend: 0x0, symName: '__ZN4core3ptr100drop_in_place$LT$core..option..Option$LT$alloc..boxed..Box$LT$syn..path..GenericArgument$GT$$GT$$GT$17h91f76f7535c0ef94E', symObjAddr: 0x0, symBinAddr: 0xB64F0, symSize: 0x50 }
  - { offsetInCU: 0x1293, offset: 0x2E3F15, size: 0x8, addend: 0x0, symName: '__ZN4core3ptr100drop_in_place$LT$syn..punctuated..Punctuated$LT$syn..path..PathSegment$C$syn..token..PathSep$GT$$GT$17h8967d620e5262808E', symObjAddr: 0x50, symBinAddr: 0xB6540, symSize: 0x260 }
  - { offsetInCU: 0x1C2C, offset: 0x2E48AE, size: 0x8, addend: 0x0, symName: '__ZN4core3ptr103drop_in_place$LT$core..option..Option$LT$alloc..boxed..Box$LT$syn..generics..TypeParamBound$GT$$GT$$GT$17h044206982686810cE', symObjAddr: 0x2B0, symBinAddr: 0xB67A0, symSize: 0x50 }
  - { offsetInCU: 0x1E39, offset: 0x2E4ABB, size: 0x8, addend: 0x0, symName: '__ZN4core3ptr103drop_in_place$LT$syn..punctuated..Punctuated$LT$syn..generics..GenericParam$C$syn..token..Comma$GT$$GT$17h28897b64a12579c2E', symObjAddr: 0x300, symBinAddr: 0xB67F0, symSize: 0xF0 }
  - { offsetInCU: 0x22FC, offset: 0x2E4F7E, size: 0x8, addend: 0x0, symName: '__ZN4core3ptr104drop_in_place$LT$syn..punctuated..Punctuated$LT$syn..generics..TypeParamBound$C$syn..token..Plus$GT$$GT$17h8a3e2526f1805111E', symObjAddr: 0x3F0, symBinAddr: 0xB68E0, symSize: 0x190 }
  - { offsetInCU: 0x2931, offset: 0x2E55B3, size: 0x8, addend: 0x0, symName: '__ZN4core3ptr116drop_in_place$LT$core..cell..RefCell$LT$core..option..Option$LT$alloc..vec..Vec$LT$syn..error..Error$GT$$GT$$GT$$GT$17h3001d88d1ea8a791E.llvm.4449982753532163505', symObjAddr: 0x580, symBinAddr: 0xB6A70, symSize: 0x110 }
  - { offsetInCU: 0x2DD7, offset: 0x2E5A59, size: 0x8, addend: 0x0, symName: '__ZN4core3ptr34drop_in_place$LT$syn..lit..Lit$GT$17h909e98f6870548d6E', symObjAddr: 0x690, symBinAddr: 0xB6B80, symSize: 0x110 }
  - { offsetInCU: 0x3330, offset: 0x2E5FB2, size: 0x8, addend: 0x0, symName: '__ZN4core3ptr34drop_in_place$LT$syn..pat..Pat$GT$17h8fcd4c90be46a62aE', symObjAddr: 0x7A0, symBinAddr: 0xB6C90, symSize: 0x1000 }
  - { offsetInCU: 0x6E55, offset: 0x2E9AD7, size: 0x8, addend: 0x0, symName: '__ZN4core3ptr34drop_in_place$LT$syn..ty..Type$GT$17h774a0ab6b4cf283eE', symObjAddr: 0x17A0, symBinAddr: 0xB7C90, symSize: 0x4F0 }
  - { offsetInCU: 0x83A0, offset: 0x2EB022, size: 0x8, addend: 0x0, symName: '__ZN4core3ptr36drop_in_place$LT$syn..expr..Expr$GT$17h7fd8f0d642db296eE.llvm.4449982753532163505', symObjAddr: 0x1C90, symBinAddr: 0xB8180, symSize: 0x28E0 }
  - { offsetInCU: 0x11832, offset: 0x2F44B4, size: 0x8, addend: 0x0, symName: '__ZN4core3ptr36drop_in_place$LT$syn..mac..Macro$GT$17hc8e4594548e1fb74E', symObjAddr: 0x4570, symBinAddr: 0xBAA60, symSize: 0x40 }
  - { offsetInCU: 0x1186C, offset: 0x2F44EE, size: 0x8, addend: 0x0, symName: '__ZN4core3ptr36drop_in_place$LT$syn..path..Path$GT$17hae91be932b20df1dE', symObjAddr: 0x45B0, symBinAddr: 0xBAAA0, symSize: 0x220 }
  - { offsetInCU: 0x121A1, offset: 0x2F4E23, size: 0x8, addend: 0x0, symName: '__ZN4core3ptr37drop_in_place$LT$syn..stmt..Block$GT$17hba4e7ddf28617bfdE', symObjAddr: 0x47D0, symBinAddr: 0xBACC0, symSize: 0xD0 }
  - { offsetInCU: 0x12483, offset: 0x2F5105, size: 0x8, addend: 0x0, symName: '__ZN4core3ptr38drop_in_place$LT$syn..error..Error$GT$17h82a5801562d337b6E.llvm.4449982753532163505', symObjAddr: 0x48A0, symBinAddr: 0xBAD90, symSize: 0x80 }
  - { offsetInCU: 0x12754, offset: 0x2F53D6, size: 0x8, addend: 0x0, symName: '__ZN4core3ptr38drop_in_place$LT$syn..expr..Member$GT$17ha7c2806ee150b6f6E', symObjAddr: 0x4920, symBinAddr: 0xBAE10, symSize: 0x30 }
  - { offsetInCU: 0x12851, offset: 0x2F54D3, size: 0x8, addend: 0x0, symName: '__ZN4core3ptr39drop_in_place$LT$proc_macro2..Ident$GT$17h8dfea26593c17b61E', symObjAddr: 0x4950, symBinAddr: 0xBAE40, symSize: 0x30 }
  - { offsetInCU: 0x1292F, offset: 0x2F55B1, size: 0x8, addend: 0x0, symName: '__ZN4core3ptr40drop_in_place$LT$syn..ty..ReturnType$GT$17h3c2856ff70e83fa7E', symObjAddr: 0x4980, symBinAddr: 0xBAE70, symSize: 0x50 }
  - { offsetInCU: 0x12AA1, offset: 0x2F5723, size: 0x8, addend: 0x0, symName: '__ZN4core3ptr41drop_in_place$LT$syn..expr..ExprConst$GT$17h3f369735cc377020E', symObjAddr: 0x49D0, symBinAddr: 0xBAEC0, symSize: 0x180 }
  - { offsetInCU: 0x12FF6, offset: 0x2F5C78, size: 0x8, addend: 0x0, symName: '__ZN4core3ptr44drop_in_place$LT$syn..lifetime..Lifetime$GT$17h263f9508be5fff98E', symObjAddr: 0x4B70, symBinAddr: 0xBB040, symSize: 0x30 }
  - { offsetInCU: 0x13229, offset: 0x2F5EAB, size: 0x8, addend: 0x0, symName: '__ZN4core3ptr45drop_in_place$LT$proc_macro2..TokenStream$GT$17hcbbbd6ac69a3e46cE.llvm.4449982753532163505', symObjAddr: 0x4BA0, symBinAddr: 0xBB070, symSize: 0x140 }
  - { offsetInCU: 0x13698, offset: 0x2F631A, size: 0x8, addend: 0x0, symName: '__ZN4core3ptr45drop_in_place$LT$syn..generics..TypeParam$GT$17h3f489d24bf2868acE', symObjAddr: 0x4CE0, symBinAddr: 0xBB1B0, symSize: 0x230 }
  - { offsetInCU: 0x13E94, offset: 0x2F6B16, size: 0x8, addend: 0x0, symName: '__ZN4core3ptr46drop_in_place$LT$syn..generics..ConstParam$GT$17hb82cf1b5639462f6E', symObjAddr: 0x4F10, symBinAddr: 0xBB3E0, symSize: 0x150 }
  - { offsetInCU: 0x142BE, offset: 0x2F6F40, size: 0x8, addend: 0x0, symName: '__ZN4core3ptr47drop_in_place$LT$syn..path..GenericArgument$GT$17ha4d1e2427b5b79f7E', symObjAddr: 0x5060, symBinAddr: 0xBB530, symSize: 0x4A0 }
  - { offsetInCU: 0x15365, offset: 0x2F7FE7, size: 0x8, addend: 0x0, symName: '__ZN4core3ptr49drop_in_place$LT$syn..generics..LifetimeParam$GT$17h54e59d96d3078601E', symObjAddr: 0x5500, symBinAddr: 0xBB9D0, symSize: 0xF0 }
  - { offsetInCU: 0x1571F, offset: 0x2F83A1, size: 0x8, addend: 0x0, symName: '__ZN4core3ptr50drop_in_place$LT$syn..generics..TypeParamBound$GT$17h3bdcf102e80fe526E', symObjAddr: 0x55F0, symBinAddr: 0xBBAC0, symSize: 0x160 }
  - { offsetInCU: 0x15B5E, offset: 0x2F87E0, size: 0x8, addend: 0x0, symName: '__ZN4core3ptr56drop_in_place$LT$serde_derive..internals..ctxt..Ctxt$GT$17h0e1171f496fa1fb9E.llvm.4449982753532163505', symObjAddr: 0x5750, symBinAddr: 0xBBC20, symSize: 0x180 }
  - { offsetInCU: 0x160C8, offset: 0x2F8D4A, size: 0x8, addend: 0x0, symName: '__ZN4core3ptr58drop_in_place$LT$alloc..vec..Vec$LT$syn..expr..Arm$GT$$GT$17h2816916be2f2c677E', symObjAddr: 0x58D0, symBinAddr: 0xBBDA0, symSize: 0xD0 }
  - { offsetInCU: 0x16355, offset: 0x2F8FD7, size: 0x8, addend: 0x0, symName: '__ZN4core3ptr59drop_in_place$LT$alloc..boxed..Box$LT$syn..pat..Pat$GT$$GT$17h97d5257714c9f93cE', symObjAddr: 0x59A0, symBinAddr: 0xBBE70, symSize: 0x50 }
  - { offsetInCU: 0x164B0, offset: 0x2F9132, size: 0x8, addend: 0x0, symName: '__ZN4core3ptr59drop_in_place$LT$alloc..boxed..Box$LT$syn..ty..Type$GT$$GT$17h54564496a417dc0bE', symObjAddr: 0x59F0, symBinAddr: 0xBBEC0, symSize: 0x50 }
  - { offsetInCU: 0x1660B, offset: 0x2F928D, size: 0x8, addend: 0x0, symName: '__ZN4core3ptr61drop_in_place$LT$alloc..boxed..Box$LT$syn..expr..Expr$GT$$GT$17hcb812af949707350E', symObjAddr: 0x5A40, symBinAddr: 0xBBF10, symSize: 0x50 }
  - { offsetInCU: 0x167E2, offset: 0x2F9464, size: 0x8, addend: 0x0, symName: '__ZN4core3ptr61drop_in_place$LT$syn..path..ParenthesizedGenericArguments$GT$17h2cda518d73cfbc65E', symObjAddr: 0x5A90, symBinAddr: 0xBBF60, symSize: 0x170 }
  - { offsetInCU: 0x16DA9, offset: 0x2F9A2B, size: 0x8, addend: 0x0, symName: '__ZN4core3ptr62drop_in_place$LT$syn..path..AngleBracketedGenericArguments$GT$17h532d3ccffb7c0f6eE', symObjAddr: 0x5C00, symBinAddr: 0xBC0D0, symSize: 0x120 }
  - { offsetInCU: 0x171BF, offset: 0x2F9E41, size: 0x8, addend: 0x0, symName: '__ZN4core3ptr63drop_in_place$LT$alloc..boxed..Box$LT$syn..lit..LitRepr$GT$$GT$17h4f0b7f87f46ca722E.llvm.4449982753532163505', symObjAddr: 0x5D20, symBinAddr: 0xBC1F0, symSize: 0x60 }
  - { offsetInCU: 0x174B4, offset: 0x2FA136, size: 0x8, addend: 0x0, symName: '__ZN4core3ptr64drop_in_place$LT$alloc..boxed..Box$LT$syn..pat..FieldPat$GT$$GT$17h24cd16a7bd79a0afE', symObjAddr: 0x5D80, symBinAddr: 0xBC250, symSize: 0x140 }
  - { offsetInCU: 0x17B5F, offset: 0x2FA7E1, size: 0x8, addend: 0x0, symName: '__ZN4core3ptr64drop_in_place$LT$alloc..boxed..Box$LT$syn..ty..BareFnArg$GT$$GT$17h8d6c5b973f90cb46E', symObjAddr: 0x5EC0, symBinAddr: 0xBC390, symSize: 0x140 }
  - { offsetInCU: 0x18083, offset: 0x2FAD05, size: 0x8, addend: 0x0, symName: '__ZN4core3ptr65drop_in_place$LT$core..option..Option$LT$syn..expr..Label$GT$$GT$17h49c37bc37ca5807aE', symObjAddr: 0x6000, symBinAddr: 0xBC4D0, symSize: 0x30 }
  - { offsetInCU: 0x181BE, offset: 0x2FAE40, size: 0x8, addend: 0x0, symName: '__ZN4core3ptr66drop_in_place$LT$core..option..Option$LT$syn..pat..PatRest$GT$$GT$17ha0b10c3084c29dd7E', symObjAddr: 0x6030, symBinAddr: 0xBC500, symSize: 0xE0 }
  - { offsetInCU: 0x18442, offset: 0x2FB0C4, size: 0x8, addend: 0x0, symName: '__ZN4core3ptr67drop_in_place$LT$alloc..boxed..Box$LT$syn..expr..FieldValue$GT$$GT$17h51140dec2dd742b5E', symObjAddr: 0x6110, symBinAddr: 0xBC5E0, symSize: 0x140 }
  - { offsetInCU: 0x18946, offset: 0x2FB5C8, size: 0x8, addend: 0x0, symName: '__ZN4core3ptr68drop_in_place$LT$alloc..boxed..Box$LT$syn..path..PathSegment$GT$$GT$17h6663076be8cb9e8fE', symObjAddr: 0x6250, symBinAddr: 0xBC720, symSize: 0x190 }
  - { offsetInCU: 0x19024, offset: 0x2FBCA6, size: 0x8, addend: 0x0, symName: '__ZN4core3ptr70drop_in_place$LT$core..option..Option$LT$syn..ty..BareVariadic$GT$$GT$17h006e7519360f59bbE', symObjAddr: 0x63E0, symBinAddr: 0xBC8B0, symSize: 0x120 }
  - { offsetInCU: 0x19551, offset: 0x2FC1D3, size: 0x8, addend: 0x0, symName: '__ZN4core3ptr72drop_in_place$LT$alloc..boxed..Box$LT$syn..path..GenericArgument$GT$$GT$17h9e43a058d82d49aaE', symObjAddr: 0x6500, symBinAddr: 0xBC9D0, symSize: 0x1D0 }
  - { offsetInCU: 0x19AF4, offset: 0x2FC776, size: 0x8, addend: 0x0, symName: '__ZN4core3ptr72drop_in_place$LT$core..option..Option$LT$syn..lifetime..Lifetime$GT$$GT$17h2cbddfd17a7fb6a0E', symObjAddr: 0x66D0, symBinAddr: 0xBCBA0, symSize: 0x30 }
  - { offsetInCU: 0x19C10, offset: 0x2FC892, size: 0x8, addend: 0x0, symName: '__ZN4core3ptr73drop_in_place$LT$alloc..boxed..Box$LT$syn..generics..GenericParam$GT$$GT$17hdf8f6b3d2d504eeeE', symObjAddr: 0x6700, symBinAddr: 0xBCBD0, symSize: 0x80 }
  - { offsetInCU: 0x19D88, offset: 0x2FCA0A, size: 0x8, addend: 0x0, symName: '__ZN4core3ptr75drop_in_place$LT$alloc..boxed..Box$LT$syn..generics..TypeParamBound$GT$$GT$17he16e1f4f3b231893E', symObjAddr: 0x6780, symBinAddr: 0xBCC50, symSize: 0xB0 }
  - { offsetInCU: 0x1A0E3, offset: 0x2FCD65, size: 0x8, addend: 0x0, symName: '__ZN4core3ptr86drop_in_place$LT$syn..punctuated..Punctuated$LT$syn..pat..Pat$C$syn..token..Or$GT$$GT$17h449b7e6b5537b210E', symObjAddr: 0x6830, symBinAddr: 0xBCD00, symSize: 0x120 }
  - { offsetInCU: 0x1A529, offset: 0x2FD1AB, size: 0x8, addend: 0x0, symName: '__ZN4core3ptr87drop_in_place$LT$core..option..Option$LT$alloc..boxed..Box$LT$syn..pat..Pat$GT$$GT$$GT$17hbff747ffa5f39bd3E', symObjAddr: 0x6950, symBinAddr: 0xBCE20, symSize: 0x50 }
  - { offsetInCU: 0x1A69B, offset: 0x2FD31D, size: 0x8, addend: 0x0, symName: '__ZN4core3ptr87drop_in_place$LT$core..option..Option$LT$alloc..boxed..Box$LT$syn..ty..Type$GT$$GT$$GT$17hd404efde6702ff0dE', symObjAddr: 0x69A0, symBinAddr: 0xBCE70, symSize: 0x50 }
  - { offsetInCU: 0x1A80D, offset: 0x2FD48F, size: 0x8, addend: 0x0, symName: '__ZN4core3ptr89drop_in_place$LT$core..option..Option$LT$alloc..boxed..Box$LT$syn..expr..Expr$GT$$GT$$GT$17h981df8604670027bE', symObjAddr: 0x69F0, symBinAddr: 0xBCEC0, symSize: 0x50 }
  - { offsetInCU: 0x1A9BD, offset: 0x2FD63F, size: 0x8, addend: 0x0, symName: '__ZN4core3ptr89drop_in_place$LT$syn..punctuated..Punctuated$LT$syn..pat..Pat$C$syn..token..Comma$GT$$GT$17h8165fd7eb02b8118E', symObjAddr: 0x6A40, symBinAddr: 0xBCF10, symSize: 0x120 }
  - { offsetInCU: 0x1AE1A, offset: 0x2FDA9C, size: 0x8, addend: 0x0, symName: '__ZN4core3ptr89drop_in_place$LT$syn..punctuated..Punctuated$LT$syn..ty..Type$C$syn..token..Comma$GT$$GT$17h23a774170e770b9aE', symObjAddr: 0x6B60, symBinAddr: 0xBD030, symSize: 0x120 }
  - { offsetInCU: 0x1B264, offset: 0x2FDEE6, size: 0x8, addend: 0x0, symName: '__ZN4core3ptr90drop_in_place$LT$core..option..Option$LT$syn..path..AngleBracketedGenericArguments$GT$$GT$17h28a1c7f1e00311d1E', symObjAddr: 0x6C80, symBinAddr: 0xBD150, symSize: 0x130 }
  - { offsetInCU: 0x1B6CF, offset: 0x2FE351, size: 0x8, addend: 0x0, symName: '__ZN4core3ptr91drop_in_place$LT$syn..punctuated..Punctuated$LT$syn..expr..Expr$C$syn..token..Comma$GT$$GT$17ha27fe7b672ce38bdE', symObjAddr: 0x6DB0, symBinAddr: 0xBD280, symSize: 0x120 }
  - { offsetInCU: 0x1BB2C, offset: 0x2FE7AE, size: 0x8, addend: 0x0, symName: '__ZN4core3ptr94drop_in_place$LT$syn..punctuated..Punctuated$LT$syn..pat..FieldPat$C$syn..token..Comma$GT$$GT$17hd9ad3a9ff53c2a49E', symObjAddr: 0x6ED0, symBinAddr: 0xBD3A0, symSize: 0xF0 }
  - { offsetInCU: 0x1BDF6, offset: 0x2FEA78, size: 0x8, addend: 0x0, symName: '__ZN4core3ptr94drop_in_place$LT$syn..punctuated..Punctuated$LT$syn..ty..BareFnArg$C$syn..token..Comma$GT$$GT$17h3ad0ecbb9acc3d94E', symObjAddr: 0x6FC0, symBinAddr: 0xBD490, symSize: 0xF0 }
  - { offsetInCU: 0x1C0C0, offset: 0x2FED42, size: 0x8, addend: 0x0, symName: '__ZN4core3ptr96drop_in_place$LT$core..option..Option$LT$alloc..boxed..Box$LT$syn..path..PathSegment$GT$$GT$$GT$17h15008b031e78f545E', symObjAddr: 0x70B0, symBinAddr: 0xBD580, symSize: 0x90 }
  - { offsetInCU: 0x1C342, offset: 0x2FEFC4, size: 0x8, addend: 0x0, symName: '__ZN4core3ptr97drop_in_place$LT$syn..punctuated..Punctuated$LT$syn..expr..FieldValue$C$syn..token..Comma$GT$$GT$17h7dd72fd62fffe077E', symObjAddr: 0x7140, symBinAddr: 0xBD610, symSize: 0xF0 }
  - { offsetInCU: 0x1C60C, offset: 0x2FF28E, size: 0x8, addend: 0x0, symName: '__ZN4core3ptr98drop_in_place$LT$alloc..vec..Vec$LT$$LP$syn..path..GenericArgument$C$syn..token..Comma$RP$$GT$$GT$17h5d136a881836b500E', symObjAddr: 0x7230, symBinAddr: 0xBD700, symSize: 0xD0 }
  - { offsetInCU: 0x1C915, offset: 0x2FF597, size: 0x8, addend: 0x0, symName: '__ZN4core3ptr98drop_in_place$LT$syn..punctuated..Punctuated$LT$syn..lifetime..Lifetime$C$syn..token..Plus$GT$$GT$17haf6d03c18957eb1aE', symObjAddr: 0x7300, symBinAddr: 0xBD7D0, symSize: 0xC0 }
  - { offsetInCU: 0x27990, offset: 0x30A612, size: 0x8, addend: 0x0, symName: __ZN12serde_derive9internals4ctxt4Ctxt16error_spanned_by17h0b40c057d91c93b7E, symObjAddr: 0x73C0, symBinAddr: 0xBD890, symSize: 0x140 }
  - { offsetInCU: 0x27DD9, offset: 0x30AA5B, size: 0x8, addend: 0x0, symName: __ZN12serde_derive9internals4ctxt4Ctxt16error_spanned_by17h156e11ba02ba496cE, symObjAddr: 0x7500, symBinAddr: 0xBD9D0, symSize: 0x130 }
  - { offsetInCU: 0x28283, offset: 0x30AF05, size: 0x8, addend: 0x0, symName: __ZN12serde_derive9internals4ctxt4Ctxt16error_spanned_by17h1cf89888ba5014b5E, symObjAddr: 0x7630, symBinAddr: 0xBDB00, symSize: 0xE0 }
  - { offsetInCU: 0x2872D, offset: 0x30B3AF, size: 0x8, addend: 0x0, symName: __ZN12serde_derive9internals4ctxt4Ctxt16error_spanned_by17h2b28e1c59863be45E, symObjAddr: 0x7710, symBinAddr: 0xBDBE0, symSize: 0xE0 }
  - { offsetInCU: 0x28BCA, offset: 0x30B84C, size: 0x8, addend: 0x0, symName: __ZN12serde_derive9internals4ctxt4Ctxt16error_spanned_by17h47e4ecda6ce4f748E, symObjAddr: 0x77F0, symBinAddr: 0xBDCC0, symSize: 0x1E0 }
  - { offsetInCU: 0x29155, offset: 0x30BDD7, size: 0x8, addend: 0x0, symName: __ZN12serde_derive9internals4ctxt4Ctxt16error_spanned_by17h6268bc78598d2031E, symObjAddr: 0x79D0, symBinAddr: 0xBDEA0, symSize: 0x130 }
  - { offsetInCU: 0x295F2, offset: 0x30C274, size: 0x8, addend: 0x0, symName: __ZN12serde_derive9internals4ctxt4Ctxt16error_spanned_by17h6fb2907992e1c9b4E, symObjAddr: 0x7B00, symBinAddr: 0xBDFD0, symSize: 0x130 }
  - { offsetInCU: 0x29A8F, offset: 0x30C711, size: 0x8, addend: 0x0, symName: __ZN12serde_derive9internals4ctxt4Ctxt16error_spanned_by17h7fecc1b06bf0b126E, symObjAddr: 0x7C30, symBinAddr: 0xBE100, symSize: 0x170 }
  - { offsetInCU: 0x2A033, offset: 0x30CCB5, size: 0x8, addend: 0x0, symName: __ZN12serde_derive9internals4ctxt4Ctxt16error_spanned_by17h86b26a2bc3226ad3E, symObjAddr: 0x7DA0, symBinAddr: 0xBE270, symSize: 0x120 }
  - { offsetInCU: 0x2A48C, offset: 0x30D10E, size: 0x8, addend: 0x0, symName: __ZN12serde_derive9internals4ctxt4Ctxt16error_spanned_by17h8bd54dd2bd089060E, symObjAddr: 0x7EC0, symBinAddr: 0xBE390, symSize: 0x130 }
  - { offsetInCU: 0x2A929, offset: 0x30D5AB, size: 0x8, addend: 0x0, symName: __ZN12serde_derive9internals4ctxt4Ctxt16error_spanned_by17h94f33ebe46e9c4f9E, symObjAddr: 0x7FF0, symBinAddr: 0xBE4C0, symSize: 0x120 }
  - { offsetInCU: 0x2AD82, offset: 0x30DA04, size: 0x8, addend: 0x0, symName: __ZN12serde_derive9internals4ctxt4Ctxt16error_spanned_by17h97cb92b4ec31a602E, symObjAddr: 0x8110, symBinAddr: 0xBE5E0, symSize: 0x150 }
  - { offsetInCU: 0x2B321, offset: 0x30DFA3, size: 0x8, addend: 0x0, symName: __ZN12serde_derive9internals4ctxt4Ctxt16error_spanned_by17h9d78e487375d226aE, symObjAddr: 0x8260, symBinAddr: 0xBE730, symSize: 0x130 }
  - { offsetInCU: 0x2B7BE, offset: 0x30E440, size: 0x8, addend: 0x0, symName: __ZN12serde_derive9internals4ctxt4Ctxt16error_spanned_by17hb43b26e8b062fa8fE, symObjAddr: 0x8390, symBinAddr: 0xBE860, symSize: 0x120 }
  - { offsetInCU: 0x2BD61, offset: 0x30E9E3, size: 0x8, addend: 0x0, symName: __ZN12serde_derive9internals4ctxt4Ctxt16error_spanned_by17hb9a7d238fd3a91e4E, symObjAddr: 0x84B0, symBinAddr: 0xBE980, symSize: 0x170 }
  - { offsetInCU: 0x2C305, offset: 0x30EF87, size: 0x8, addend: 0x0, symName: __ZN12serde_derive9internals4ctxt4Ctxt16error_spanned_by17hc5c1715f3de8b006E, symObjAddr: 0x8620, symBinAddr: 0xBEAF0, symSize: 0x110 }
  - { offsetInCU: 0x2C7A2, offset: 0x30F424, size: 0x8, addend: 0x0, symName: __ZN12serde_derive9internals4ctxt4Ctxt16error_spanned_by17hc7a37830cb53eb93E, symObjAddr: 0x8730, symBinAddr: 0xBEC00, symSize: 0x170 }
  - { offsetInCU: 0x2CD46, offset: 0x30F9C8, size: 0x8, addend: 0x0, symName: __ZN12serde_derive9internals4ctxt4Ctxt16error_spanned_by17hee6857309eef1fecE, symObjAddr: 0x88A0, symBinAddr: 0xBED70, symSize: 0x170 }
  - { offsetInCU: 0x2D2EA, offset: 0x30FF6C, size: 0x8, addend: 0x0, symName: __ZN12serde_derive9internals4ctxt4Ctxt16error_spanned_by17hf71b62fcfe2a7a47E, symObjAddr: 0x8A10, symBinAddr: 0xBEEE0, symSize: 0x130 }
  - { offsetInCU: 0x2D794, offset: 0x310416, size: 0x8, addend: 0x0, symName: __ZN12serde_derive9internals4ctxt4Ctxt16error_spanned_by17hfb7adf4ad2d469faE, symObjAddr: 0x8B40, symBinAddr: 0xBF010, symSize: 0xE0 }
  - { offsetInCU: 0x2DC31, offset: 0x3108B3, size: 0x8, addend: 0x0, symName: __ZN12serde_derive9internals4ctxt4Ctxt9syn_error17h2cb291badfe05e21E, symObjAddr: 0x8C20, symBinAddr: 0xBF0F0, symSize: 0xE0 }
  - { offsetInCU: 0x2E0B0, offset: 0x310D32, size: 0x8, addend: 0x0, symName: __ZN12serde_derive9internals4ctxt4Ctxt5check17h35dce67ec58bd0cdE, symObjAddr: 0x8D00, symBinAddr: 0xBF1D0, symSize: 0x380 }
  - { offsetInCU: 0x1E, offset: 0x3145AD, size: 0x8, addend: 0x0, symName: __ZN3syn3lit6LitStr10parse_with17h432c3041c08cc435E, symObjAddr: 0x0, symBinAddr: 0xBF550, symSize: 0x470 }
  - { offsetInCU: 0x1A9E, offset: 0x31602D, size: 0x8, addend: 0x0, symName: '__ZN4core3ptr100drop_in_place$LT$core..option..Option$LT$alloc..boxed..Box$LT$syn..path..GenericArgument$GT$$GT$$GT$17h91f76f7535c0ef94E', symObjAddr: 0x1380, symBinAddr: 0xC08D0, symSize: 0x50 }
  - { offsetInCU: 0x1E3E, offset: 0x3163CD, size: 0x8, addend: 0x0, symName: '__ZN4core3ptr100drop_in_place$LT$syn..punctuated..Punctuated$LT$syn..path..PathSegment$C$syn..token..PathSep$GT$$GT$17h8967d620e5262808E', symObjAddr: 0x13D0, symBinAddr: 0xC0920, symSize: 0x260 }
  - { offsetInCU: 0x27D7, offset: 0x316D66, size: 0x8, addend: 0x0, symName: '__ZN4core3ptr103drop_in_place$LT$core..option..Option$LT$alloc..boxed..Box$LT$syn..generics..TypeParamBound$GT$$GT$$GT$17h044206982686810cE', symObjAddr: 0x1630, symBinAddr: 0xC0B80, symSize: 0x50 }
  - { offsetInCU: 0x2A22, offset: 0x316FB1, size: 0x8, addend: 0x0, symName: '__ZN4core3ptr103drop_in_place$LT$core..option..Option$LT$alloc..boxed..Box$LT$syn..generics..WherePredicate$GT$$GT$$GT$17hdb4f3c209e2b962bE', symObjAddr: 0x1680, symBinAddr: 0xC0BD0, symSize: 0xD0 }
  - { offsetInCU: 0x2DB5, offset: 0x317344, size: 0x8, addend: 0x0, symName: '__ZN4core3ptr103drop_in_place$LT$syn..punctuated..Punctuated$LT$syn..generics..GenericParam$C$syn..token..Comma$GT$$GT$17h28897b64a12579c2E', symObjAddr: 0x1750, symBinAddr: 0xC0CA0, symSize: 0xF0 }
  - { offsetInCU: 0x321B, offset: 0x3177AA, size: 0x8, addend: 0x0, symName: '__ZN4core3ptr104drop_in_place$LT$syn..punctuated..Punctuated$LT$syn..generics..TypeParamBound$C$syn..token..Plus$GT$$GT$17h8a3e2526f1805111E', symObjAddr: 0x1840, symBinAddr: 0xC0D90, symSize: 0x190 }
  - { offsetInCU: 0x37D4, offset: 0x317D63, size: 0x8, addend: 0x0, symName: '__ZN4core3ptr105drop_in_place$LT$syn..punctuated..Punctuated$LT$syn..generics..WherePredicate$C$syn..token..Comma$GT$$GT$17h109fa4272849e193E', symObjAddr: 0x19D0, symBinAddr: 0xC0F20, symSize: 0xE0 }
  - { offsetInCU: 0x3B01, offset: 0x318090, size: 0x8, addend: 0x0, symName: '__ZN4core3ptr34drop_in_place$LT$syn..lit..Lit$GT$17h909e98f6870548d6E', symObjAddr: 0x1AB0, symBinAddr: 0xC1000, symSize: 0x110 }
  - { offsetInCU: 0x403B, offset: 0x3185CA, size: 0x8, addend: 0x0, symName: '__ZN4core3ptr34drop_in_place$LT$syn..pat..Pat$GT$17h8fcd4c90be46a62aE', symObjAddr: 0x1BC0, symBinAddr: 0xC1110, symSize: 0xE60 }
  - { offsetInCU: 0x73F9, offset: 0x31B988, size: 0x8, addend: 0x0, symName: '__ZN4core3ptr34drop_in_place$LT$syn..ty..Type$GT$17h774a0ab6b4cf283eE', symObjAddr: 0x2A20, symBinAddr: 0xC1F70, symSize: 0x4F0 }
  - { offsetInCU: 0x8944, offset: 0x31CED3, size: 0x8, addend: 0x0, symName: '__ZN4core3ptr36drop_in_place$LT$syn..expr..Expr$GT$17h7fd8f0d642db296eE', symObjAddr: 0x2F10, symBinAddr: 0xC2460, symSize: 0x2770 }
  - { offsetInCU: 0x11926, offset: 0x325EB5, size: 0x8, addend: 0x0, symName: '__ZN4core3ptr36drop_in_place$LT$syn..mac..Macro$GT$17hc8e4594548e1fb74E', symObjAddr: 0x5680, symBinAddr: 0xC4BD0, symSize: 0x40 }
  - { offsetInCU: 0x11960, offset: 0x325EEF, size: 0x8, addend: 0x0, symName: '__ZN4core3ptr36drop_in_place$LT$syn..path..Path$GT$17hae91be932b20df1dE', symObjAddr: 0x56C0, symBinAddr: 0xC4C10, symSize: 0x220 }
  - { offsetInCU: 0x12295, offset: 0x326824, size: 0x8, addend: 0x0, symName: '__ZN4core3ptr37drop_in_place$LT$syn..path..QSelf$GT$17h8e1bc07903d8e4a7E', symObjAddr: 0x58E0, symBinAddr: 0xC4E30, symSize: 0x50 }
  - { offsetInCU: 0x1240F, offset: 0x32699E, size: 0x8, addend: 0x0, symName: '__ZN4core3ptr37drop_in_place$LT$syn..stmt..Block$GT$17hba4e7ddf28617bfdE', symObjAddr: 0x5930, symBinAddr: 0xC4E80, symSize: 0xD0 }
  - { offsetInCU: 0x126B3, offset: 0x326C42, size: 0x8, addend: 0x0, symName: '__ZN4core3ptr38drop_in_place$LT$syn..expr..Member$GT$17ha7c2806ee150b6f6E', symObjAddr: 0x5A00, symBinAddr: 0xC4F50, symSize: 0x30 }
  - { offsetInCU: 0x127B0, offset: 0x326D3F, size: 0x8, addend: 0x0, symName: '__ZN4core3ptr39drop_in_place$LT$proc_macro2..Ident$GT$17h8dfea26593c17b61E', symObjAddr: 0x5A30, symBinAddr: 0xC4F80, symSize: 0x30 }
  - { offsetInCU: 0x1288E, offset: 0x326E1D, size: 0x8, addend: 0x0, symName: '__ZN4core3ptr40drop_in_place$LT$syn..expr..ExprPath$GT$17h558f3eab01e13045E', symObjAddr: 0x5A60, symBinAddr: 0xC4FB0, symSize: 0x110 }
  - { offsetInCU: 0x12D1F, offset: 0x3272AE, size: 0x8, addend: 0x0, symName: '__ZN4core3ptr40drop_in_place$LT$syn..ty..ReturnType$GT$17h3c2856ff70e83fa7E', symObjAddr: 0x5B70, symBinAddr: 0xC50C0, symSize: 0x50 }
  - { offsetInCU: 0x12E91, offset: 0x327420, size: 0x8, addend: 0x0, symName: '__ZN4core3ptr41drop_in_place$LT$syn..expr..ExprConst$GT$17h3f369735cc377020E', symObjAddr: 0x5BC0, symBinAddr: 0xC5110, symSize: 0x180 }
  - { offsetInCU: 0x133E6, offset: 0x327975, size: 0x8, addend: 0x0, symName: '__ZN4core3ptr44drop_in_place$LT$syn..lifetime..Lifetime$GT$17h263f9508be5fff98E', symObjAddr: 0x5D40, symBinAddr: 0xC5290, symSize: 0x30 }
  - { offsetInCU: 0x13619, offset: 0x327BA8, size: 0x8, addend: 0x0, symName: '__ZN4core3ptr45drop_in_place$LT$proc_macro2..TokenStream$GT$17hcbbbd6ac69a3e46cE.llvm.1381342988564194791', symObjAddr: 0x5D70, symBinAddr: 0xC52C0, symSize: 0x140 }
  - { offsetInCU: 0x13A88, offset: 0x328017, size: 0x8, addend: 0x0, symName: '__ZN4core3ptr45drop_in_place$LT$syn..generics..TypeParam$GT$17h3f489d24bf2868acE', symObjAddr: 0x5EB0, symBinAddr: 0xC5400, symSize: 0x230 }
  - { offsetInCU: 0x14284, offset: 0x328813, size: 0x8, addend: 0x0, symName: '__ZN4core3ptr46drop_in_place$LT$syn..generics..ConstParam$GT$17hb82cf1b5639462f6E', symObjAddr: 0x60E0, symBinAddr: 0xC5630, symSize: 0x150 }
  - { offsetInCU: 0x146AE, offset: 0x328C3D, size: 0x8, addend: 0x0, symName: '__ZN4core3ptr47drop_in_place$LT$syn..path..GenericArgument$GT$17ha4d1e2427b5b79f7E', symObjAddr: 0x6230, symBinAddr: 0xC5780, symSize: 0x4A0 }
  - { offsetInCU: 0x15755, offset: 0x329CE4, size: 0x8, addend: 0x0, symName: '__ZN4core3ptr49drop_in_place$LT$syn..generics..LifetimeParam$GT$17h54e59d96d3078601E', symObjAddr: 0x66D0, symBinAddr: 0xC5C20, symSize: 0xF0 }
  - { offsetInCU: 0x15B0F, offset: 0x32A09E, size: 0x8, addend: 0x0, symName: '__ZN4core3ptr50drop_in_place$LT$syn..generics..TypeParamBound$GT$17h3bdcf102e80fe526E', symObjAddr: 0x67C0, symBinAddr: 0xC5D10, symSize: 0x160 }
  - { offsetInCU: 0x15F2F, offset: 0x32A4BE, size: 0x8, addend: 0x0, symName: '__ZN4core3ptr58drop_in_place$LT$alloc..vec..Vec$LT$syn..expr..Arm$GT$$GT$17h2816916be2f2c677E', symObjAddr: 0x6920, symBinAddr: 0xC5E70, symSize: 0xD0 }
  - { offsetInCU: 0x161BC, offset: 0x32A74B, size: 0x8, addend: 0x0, symName: '__ZN4core3ptr59drop_in_place$LT$alloc..boxed..Box$LT$syn..pat..Pat$GT$$GT$17h97d5257714c9f93cE', symObjAddr: 0x69F0, symBinAddr: 0xC5F40, symSize: 0x50 }
  - { offsetInCU: 0x16317, offset: 0x32A8A6, size: 0x8, addend: 0x0, symName: '__ZN4core3ptr59drop_in_place$LT$alloc..boxed..Box$LT$syn..ty..Type$GT$$GT$17h54564496a417dc0bE', symObjAddr: 0x6A40, symBinAddr: 0xC5F90, symSize: 0x50 }
  - { offsetInCU: 0x16472, offset: 0x32AA01, size: 0x8, addend: 0x0, symName: '__ZN4core3ptr61drop_in_place$LT$alloc..boxed..Box$LT$syn..expr..Expr$GT$$GT$17hcb812af949707350E', symObjAddr: 0x6A90, symBinAddr: 0xC5FE0, symSize: 0x50 }
  - { offsetInCU: 0x16649, offset: 0x32ABD8, size: 0x8, addend: 0x0, symName: '__ZN4core3ptr61drop_in_place$LT$syn..path..ParenthesizedGenericArguments$GT$17h2cda518d73cfbc65E', symObjAddr: 0x6AE0, symBinAddr: 0xC6030, symSize: 0x170 }
  - { offsetInCU: 0x16C10, offset: 0x32B19F, size: 0x8, addend: 0x0, symName: '__ZN4core3ptr62drop_in_place$LT$syn..path..AngleBracketedGenericArguments$GT$17h532d3ccffb7c0f6eE', symObjAddr: 0x6C50, symBinAddr: 0xC61A0, symSize: 0x120 }
  - { offsetInCU: 0x17026, offset: 0x32B5B5, size: 0x8, addend: 0x0, symName: '__ZN4core3ptr63drop_in_place$LT$alloc..boxed..Box$LT$syn..lit..LitRepr$GT$$GT$17h4f0b7f87f46ca722E.llvm.1381342988564194791', symObjAddr: 0x6D70, symBinAddr: 0xC62C0, symSize: 0x60 }
  - { offsetInCU: 0x1731B, offset: 0x32B8AA, size: 0x8, addend: 0x0, symName: '__ZN4core3ptr64drop_in_place$LT$alloc..boxed..Box$LT$syn..pat..FieldPat$GT$$GT$17h24cd16a7bd79a0afE', symObjAddr: 0x6DD0, symBinAddr: 0xC6320, symSize: 0x140 }
  - { offsetInCU: 0x179C6, offset: 0x32BF55, size: 0x8, addend: 0x0, symName: '__ZN4core3ptr64drop_in_place$LT$alloc..boxed..Box$LT$syn..ty..BareFnArg$GT$$GT$17h8d6c5b973f90cb46E', symObjAddr: 0x6F10, symBinAddr: 0xC6460, symSize: 0x140 }
  - { offsetInCU: 0x17EEA, offset: 0x32C479, size: 0x8, addend: 0x0, symName: '__ZN4core3ptr65drop_in_place$LT$core..option..Option$LT$syn..expr..Label$GT$$GT$17h49c37bc37ca5807aE', symObjAddr: 0x7050, symBinAddr: 0xC65A0, symSize: 0x30 }
  - { offsetInCU: 0x18025, offset: 0x32C5B4, size: 0x8, addend: 0x0, symName: '__ZN4core3ptr65drop_in_place$LT$core..option..Option$LT$syn..path..QSelf$GT$$GT$17hcf801102a0c1571fE', symObjAddr: 0x7080, symBinAddr: 0xC65D0, symSize: 0x50 }
  - { offsetInCU: 0x181BE, offset: 0x32C74D, size: 0x8, addend: 0x0, symName: '__ZN4core3ptr66drop_in_place$LT$core..option..Option$LT$syn..pat..PatRest$GT$$GT$17ha0b10c3084c29dd7E', symObjAddr: 0x70D0, symBinAddr: 0xC6620, symSize: 0xE0 }
  - { offsetInCU: 0x18442, offset: 0x32C9D1, size: 0x8, addend: 0x0, symName: '__ZN4core3ptr67drop_in_place$LT$alloc..boxed..Box$LT$syn..expr..FieldValue$GT$$GT$17h51140dec2dd742b5E', symObjAddr: 0x71B0, symBinAddr: 0xC6700, symSize: 0x140 }
  - { offsetInCU: 0x18946, offset: 0x32CED5, size: 0x8, addend: 0x0, symName: '__ZN4core3ptr68drop_in_place$LT$alloc..boxed..Box$LT$syn..path..PathSegment$GT$$GT$17h6663076be8cb9e8fE', symObjAddr: 0x72F0, symBinAddr: 0xC6840, symSize: 0x190 }
  - { offsetInCU: 0x19024, offset: 0x32D5B3, size: 0x8, addend: 0x0, symName: '__ZN4core3ptr70drop_in_place$LT$core..option..Option$LT$syn..ty..BareVariadic$GT$$GT$17h006e7519360f59bbE', symObjAddr: 0x7480, symBinAddr: 0xC69D0, symSize: 0x120 }
  - { offsetInCU: 0x19551, offset: 0x32DAE0, size: 0x8, addend: 0x0, symName: '__ZN4core3ptr72drop_in_place$LT$alloc..boxed..Box$LT$syn..path..GenericArgument$GT$$GT$17h9e43a058d82d49aaE', symObjAddr: 0x75A0, symBinAddr: 0xC6AF0, symSize: 0x1D0 }
  - { offsetInCU: 0x19AF4, offset: 0x32E083, size: 0x8, addend: 0x0, symName: '__ZN4core3ptr72drop_in_place$LT$core..option..Option$LT$syn..lifetime..Lifetime$GT$$GT$17h2cbddfd17a7fb6a0E', symObjAddr: 0x7770, symBinAddr: 0xC6CC0, symSize: 0x30 }
  - { offsetInCU: 0x19C10, offset: 0x32E19F, size: 0x8, addend: 0x0, symName: '__ZN4core3ptr73drop_in_place$LT$alloc..boxed..Box$LT$syn..generics..GenericParam$GT$$GT$17hdf8f6b3d2d504eeeE', symObjAddr: 0x77A0, symBinAddr: 0xC6CF0, symSize: 0x80 }
  - { offsetInCU: 0x19D88, offset: 0x32E317, size: 0x8, addend: 0x0, symName: '__ZN4core3ptr75drop_in_place$LT$alloc..boxed..Box$LT$syn..generics..TypeParamBound$GT$$GT$17he16e1f4f3b231893E', symObjAddr: 0x7820, symBinAddr: 0xC6D70, symSize: 0xB0 }
  - { offsetInCU: 0x1A0E3, offset: 0x32E672, size: 0x8, addend: 0x0, symName: '__ZN4core3ptr86drop_in_place$LT$syn..punctuated..Punctuated$LT$syn..pat..Pat$C$syn..token..Or$GT$$GT$17h449b7e6b5537b210E', symObjAddr: 0x78D0, symBinAddr: 0xC6E20, symSize: 0x120 }
  - { offsetInCU: 0x1A529, offset: 0x32EAB8, size: 0x8, addend: 0x0, symName: '__ZN4core3ptr87drop_in_place$LT$core..option..Option$LT$alloc..boxed..Box$LT$syn..pat..Pat$GT$$GT$$GT$17hbff747ffa5f39bd3E', symObjAddr: 0x79F0, symBinAddr: 0xC6F40, symSize: 0x50 }
  - { offsetInCU: 0x1A69B, offset: 0x32EC2A, size: 0x8, addend: 0x0, symName: '__ZN4core3ptr87drop_in_place$LT$core..option..Option$LT$alloc..boxed..Box$LT$syn..ty..Type$GT$$GT$$GT$17hd404efde6702ff0dE', symObjAddr: 0x7A40, symBinAddr: 0xC6F90, symSize: 0x50 }
  - { offsetInCU: 0x1A80D, offset: 0x32ED9C, size: 0x8, addend: 0x0, symName: '__ZN4core3ptr89drop_in_place$LT$core..option..Option$LT$alloc..boxed..Box$LT$syn..expr..Expr$GT$$GT$$GT$17h981df8604670027bE', symObjAddr: 0x7A90, symBinAddr: 0xC6FE0, symSize: 0x50 }
  - { offsetInCU: 0x1A9BD, offset: 0x32EF4C, size: 0x8, addend: 0x0, symName: '__ZN4core3ptr89drop_in_place$LT$syn..punctuated..Punctuated$LT$syn..pat..Pat$C$syn..token..Comma$GT$$GT$17h8165fd7eb02b8118E', symObjAddr: 0x7AE0, symBinAddr: 0xC7030, symSize: 0x120 }
  - { offsetInCU: 0x1AE1A, offset: 0x32F3A9, size: 0x8, addend: 0x0, symName: '__ZN4core3ptr89drop_in_place$LT$syn..punctuated..Punctuated$LT$syn..ty..Type$C$syn..token..Comma$GT$$GT$17h23a774170e770b9aE', symObjAddr: 0x7C00, symBinAddr: 0xC7150, symSize: 0x120 }
  - { offsetInCU: 0x1B264, offset: 0x32F7F3, size: 0x8, addend: 0x0, symName: '__ZN4core3ptr90drop_in_place$LT$core..option..Option$LT$syn..path..AngleBracketedGenericArguments$GT$$GT$17h28a1c7f1e00311d1E', symObjAddr: 0x7D20, symBinAddr: 0xC7270, symSize: 0x130 }
  - { offsetInCU: 0x1B6CF, offset: 0x32FC5E, size: 0x8, addend: 0x0, symName: '__ZN4core3ptr91drop_in_place$LT$syn..punctuated..Punctuated$LT$syn..expr..Expr$C$syn..token..Comma$GT$$GT$17ha27fe7b672ce38bdE', symObjAddr: 0x7E50, symBinAddr: 0xC73A0, symSize: 0x120 }
  - { offsetInCU: 0x1BB2C, offset: 0x3300BB, size: 0x8, addend: 0x0, symName: '__ZN4core3ptr94drop_in_place$LT$syn..punctuated..Punctuated$LT$syn..pat..FieldPat$C$syn..token..Comma$GT$$GT$17hd9ad3a9ff53c2a49E', symObjAddr: 0x7F70, symBinAddr: 0xC74C0, symSize: 0xF0 }
  - { offsetInCU: 0x1BDF6, offset: 0x330385, size: 0x8, addend: 0x0, symName: '__ZN4core3ptr94drop_in_place$LT$syn..punctuated..Punctuated$LT$syn..ty..BareFnArg$C$syn..token..Comma$GT$$GT$17h3ad0ecbb9acc3d94E', symObjAddr: 0x8060, symBinAddr: 0xC75B0, symSize: 0xF0 }
  - { offsetInCU: 0x1C0C0, offset: 0x33064F, size: 0x8, addend: 0x0, symName: '__ZN4core3ptr96drop_in_place$LT$core..option..Option$LT$alloc..boxed..Box$LT$syn..path..PathSegment$GT$$GT$$GT$17h15008b031e78f545E', symObjAddr: 0x8150, symBinAddr: 0xC76A0, symSize: 0x90 }
  - { offsetInCU: 0x1C342, offset: 0x3308D1, size: 0x8, addend: 0x0, symName: '__ZN4core3ptr97drop_in_place$LT$syn..punctuated..Punctuated$LT$syn..expr..FieldValue$C$syn..token..Comma$GT$$GT$17h7dd72fd62fffe077E', symObjAddr: 0x81E0, symBinAddr: 0xC7730, symSize: 0xF0 }
  - { offsetInCU: 0x1C60C, offset: 0x330B9B, size: 0x8, addend: 0x0, symName: '__ZN4core3ptr98drop_in_place$LT$alloc..vec..Vec$LT$$LP$syn..path..GenericArgument$C$syn..token..Comma$RP$$GT$$GT$17h5d136a881836b500E', symObjAddr: 0x82D0, symBinAddr: 0xC7820, symSize: 0xD0 }
  - { offsetInCU: 0x1C915, offset: 0x330EA4, size: 0x8, addend: 0x0, symName: '__ZN4core3ptr98drop_in_place$LT$syn..punctuated..Punctuated$LT$syn..lifetime..Lifetime$C$syn..token..Plus$GT$$GT$17haf6d03c18957eb1aE', symObjAddr: 0x83A0, symBinAddr: 0xC78F0, symSize: 0xC0 }
  - { offsetInCU: 0x268DB, offset: 0x33AE6A, size: 0x8, addend: 0x0, symName: __ZN3syn3lit6LitStr10parse_with17h432c3041c08cc435E, symObjAddr: 0x0, symBinAddr: 0xBF550, symSize: 0x470 }
  - { offsetInCU: 0x27D2B, offset: 0x33C2BA, size: 0x8, addend: 0x0, symName: __ZN3syn3lit6LitStr10parse_with17h7d2a2e2a83a368dbE, symObjAddr: 0x470, symBinAddr: 0xBF9C0, symSize: 0x3C0 }
  - { offsetInCU: 0x2882E, offset: 0x33CDBD, size: 0x8, addend: 0x0, symName: __ZN3syn3lit6LitStr10parse_with17h88eea19ca7b6311fE, symObjAddr: 0x830, symBinAddr: 0xBFD80, symSize: 0x3A0 }
  - { offsetInCU: 0x2931B, offset: 0x33D8AA, size: 0x8, addend: 0x0, symName: __ZN3syn3lit6LitStr10parse_with17hd72e777a619ea62cE, symObjAddr: 0xBD0, symBinAddr: 0xC0120, symSize: 0x3A0 }
  - { offsetInCU: 0x29E53, offset: 0x33E3E2, size: 0x8, addend: 0x0, symName: __ZN3syn3lit6LitStr10parse_with17hea2cd52b4763e421E, symObjAddr: 0xF70, symBinAddr: 0xC04C0, symSize: 0x410 }
  - { offsetInCU: 0x2B752, offset: 0x33FCE1, size: 0x8, addend: 0x0, symName: __ZN5quote9to_tokens8ToTokens17into_token_stream17h59f24d118c0c25d1E, symObjAddr: 0x8460, symBinAddr: 0xC79B0, symSize: 0xE0 }
  - { offsetInCU: 0x1E, offset: 0x34247B, size: 0x8, addend: 0x0, symName: __ZN3syn5parse6Parser5parse17h0fb1a56c72b52987E, symObjAddr: 0x0, symBinAddr: 0xC7A90, symSize: 0x530 }
  - { offsetInCU: 0x19F9, offset: 0x343E56, size: 0x8, addend: 0x0, symName: '__ZN4core3ptr100drop_in_place$LT$core..option..Option$LT$alloc..boxed..Box$LT$syn..path..GenericArgument$GT$$GT$$GT$17h91f76f7535c0ef94E', symObjAddr: 0x1AD0, symBinAddr: 0xC9560, symSize: 0x50 }
  - { offsetInCU: 0x1BC8, offset: 0x344025, size: 0x8, addend: 0x0, symName: '__ZN4core3ptr102drop_in_place$LT$syn..punctuated..Punctuated$LT$syn..path..GenericArgument$C$syn..token..Comma$GT$$GT$17h7deada5365120e66E', symObjAddr: 0x1B20, symBinAddr: 0xC95B0, symSize: 0xF0 }
  - { offsetInCU: 0x1EB1, offset: 0x34430E, size: 0x8, addend: 0x0, symName: '__ZN4core3ptr103drop_in_place$LT$core..option..Option$LT$alloc..boxed..Box$LT$syn..generics..TypeParamBound$GT$$GT$$GT$17h044206982686810cE', symObjAddr: 0x1C10, symBinAddr: 0xC96A0, symSize: 0x50 }
  - { offsetInCU: 0x2178, offset: 0x3445D5, size: 0x8, addend: 0x0, symName: '__ZN4core3ptr103drop_in_place$LT$core..option..Option$LT$alloc..boxed..Box$LT$syn..generics..WherePredicate$GT$$GT$$GT$17hdb4f3c209e2b962bE', symObjAddr: 0x1C60, symBinAddr: 0xC96F0, symSize: 0xD0 }
  - { offsetInCU: 0x250B, offset: 0x344968, size: 0x8, addend: 0x0, symName: '__ZN4core3ptr103drop_in_place$LT$syn..punctuated..Punctuated$LT$syn..generics..GenericParam$C$syn..token..Comma$GT$$GT$17h28897b64a12579c2E', symObjAddr: 0x1D30, symBinAddr: 0xC97C0, symSize: 0xF0 }
  - { offsetInCU: 0x29CE, offset: 0x344E2B, size: 0x8, addend: 0x0, symName: '__ZN4core3ptr104drop_in_place$LT$syn..punctuated..Punctuated$LT$syn..generics..TypeParamBound$C$syn..token..Plus$GT$$GT$17h8a3e2526f1805111E', symObjAddr: 0x1E20, symBinAddr: 0xC98B0, symSize: 0x230 }
  - { offsetInCU: 0x32AC, offset: 0x345709, size: 0x8, addend: 0x0, symName: '__ZN4core3ptr34drop_in_place$LT$syn..lit..Lit$GT$17h909e98f6870548d6E', symObjAddr: 0x2050, symBinAddr: 0xC9AE0, symSize: 0x110 }
  - { offsetInCU: 0x37A8, offset: 0x345C05, size: 0x8, addend: 0x0, symName: '__ZN4core3ptr34drop_in_place$LT$syn..pat..Pat$GT$17h8fcd4c90be46a62aE', symObjAddr: 0x2160, symBinAddr: 0xC9BF0, symSize: 0xEE0 }
  - { offsetInCU: 0x6DD8, offset: 0x349235, size: 0x8, addend: 0x0, symName: '__ZN4core3ptr34drop_in_place$LT$syn..ty..Type$GT$17h774a0ab6b4cf283eE', symObjAddr: 0x3040, symBinAddr: 0xCAAD0, symSize: 0x5C0 }
  - { offsetInCU: 0x860E, offset: 0x34AA6B, size: 0x8, addend: 0x0, symName: '__ZN4core3ptr36drop_in_place$LT$syn..expr..Expr$GT$17h7fd8f0d642db296eE', symObjAddr: 0x3600, symBinAddr: 0xCB090, symSize: 0x2800 }
  - { offsetInCU: 0x117EB, offset: 0x353C48, size: 0x8, addend: 0x0, symName: '__ZN4core3ptr36drop_in_place$LT$syn..mac..Macro$GT$17hc8e4594548e1fb74E', symObjAddr: 0x5E00, symBinAddr: 0xCD890, symSize: 0xE0 }
  - { offsetInCU: 0x11B5C, offset: 0x353FB9, size: 0x8, addend: 0x0, symName: '__ZN4core3ptr36drop_in_place$LT$syn..path..Path$GT$17hae91be932b20df1dE', symObjAddr: 0x5EE0, symBinAddr: 0xCD970, symSize: 0x220 }
  - { offsetInCU: 0x12491, offset: 0x3548EE, size: 0x8, addend: 0x0, symName: '__ZN4core3ptr37drop_in_place$LT$syn..stmt..Block$GT$17hba4e7ddf28617bfdE', symObjAddr: 0x6100, symBinAddr: 0xCDB90, symSize: 0xD0 }
  - { offsetInCU: 0x127D0, offset: 0x354C2D, size: 0x8, addend: 0x0, symName: '__ZN4core3ptr38drop_in_place$LT$syn..data..Fields$GT$17h0b12d14ea133d189E', symObjAddr: 0x61D0, symBinAddr: 0xCDC60, symSize: 0x190 }
  - { offsetInCU: 0x12CA8, offset: 0x355105, size: 0x8, addend: 0x0, symName: '__ZN4core3ptr38drop_in_place$LT$syn..derive..Data$GT$17h994203d8bccc3f4bE', symObjAddr: 0x6360, symBinAddr: 0xCDDF0, symSize: 0x1D0 }
  - { offsetInCU: 0x132E8, offset: 0x355745, size: 0x8, addend: 0x0, symName: '__ZN4core3ptr38drop_in_place$LT$syn..expr..Member$GT$17ha7c2806ee150b6f6E', symObjAddr: 0x6530, symBinAddr: 0xCDFC0, symSize: 0x30 }
  - { offsetInCU: 0x133E5, offset: 0x355842, size: 0x8, addend: 0x0, symName: '__ZN4core3ptr38drop_in_place$LT$syn..ty..TypePath$GT$17hb6ce2d13ffa4ad5bE', symObjAddr: 0x6560, symBinAddr: 0xCDFF0, symSize: 0x80 }
  - { offsetInCU: 0x13564, offset: 0x3559C1, size: 0x8, addend: 0x0, symName: '__ZN4core3ptr39drop_in_place$LT$proc_macro2..Ident$GT$17h8dfea26593c17b61E', symObjAddr: 0x65E0, symBinAddr: 0xCE070, symSize: 0x30 }
  - { offsetInCU: 0x13778, offset: 0x355BD5, size: 0x8, addend: 0x0, symName: '__ZN4core3ptr39drop_in_place$LT$syn..buffer..Entry$GT$17h50c973355181ef50E', symObjAddr: 0x6610, symBinAddr: 0xCE0A0, symSize: 0xC0 }
  - { offsetInCU: 0x13A8C, offset: 0x355EE9, size: 0x8, addend: 0x0, symName: '__ZN4core3ptr40drop_in_place$LT$syn..expr..ExprPath$GT$17h558f3eab01e13045E', symObjAddr: 0x66D0, symBinAddr: 0xCE160, symSize: 0x110 }
  - { offsetInCU: 0x13E96, offset: 0x3562F3, size: 0x8, addend: 0x0, symName: '__ZN4core3ptr40drop_in_place$LT$syn..ty..ReturnType$GT$17h3c2856ff70e83fa7E', symObjAddr: 0x67E0, symBinAddr: 0xCE270, symSize: 0x50 }
  - { offsetInCU: 0x14008, offset: 0x356465, size: 0x8, addend: 0x0, symName: '__ZN4core3ptr41drop_in_place$LT$syn..expr..ExprConst$GT$17h3f369735cc377020E', symObjAddr: 0x6830, symBinAddr: 0xCE2C0, symSize: 0x180 }
  - { offsetInCU: 0x1455D, offset: 0x3569BA, size: 0x8, addend: 0x0, symName: '__ZN4core3ptr44drop_in_place$LT$syn..generics..Generics$GT$17h7c53fa45071f0fc1E', symObjAddr: 0x69B0, symBinAddr: 0xCE440, symSize: 0x40 }
  - { offsetInCU: 0x1457A, offset: 0x3569D7, size: 0x8, addend: 0x0, symName: '__ZN4core3ptr44drop_in_place$LT$syn..lifetime..Lifetime$GT$17h263f9508be5fff98E', symObjAddr: 0x69F0, symBinAddr: 0xCE480, symSize: 0x30 }
  - { offsetInCU: 0x14677, offset: 0x356AD4, size: 0x8, addend: 0x0, symName: '__ZN4core3ptr44drop_in_place$LT$syn..parse..ParseBuffer$GT$17h4966adace0fd02f2E', symObjAddr: 0x6A20, symBinAddr: 0xCE4B0, symSize: 0x70 }
  - { offsetInCU: 0x14A11, offset: 0x356E6E, size: 0x8, addend: 0x0, symName: '__ZN4core3ptr45drop_in_place$LT$proc_macro2..TokenStream$GT$17hcbbbd6ac69a3e46cE', symObjAddr: 0x6A90, symBinAddr: 0xCE520, symSize: 0x140 }
  - { offsetInCU: 0x14E42, offset: 0x35729F, size: 0x8, addend: 0x0, symName: '__ZN4core3ptr45drop_in_place$LT$syn..buffer..TokenBuffer$GT$17h85f2ef09366c40f0E', symObjAddr: 0x6BD0, symBinAddr: 0xCE660, symSize: 0xD0 }
  - { offsetInCU: 0x150E6, offset: 0x357543, size: 0x8, addend: 0x0, symName: '__ZN4core3ptr45drop_in_place$LT$syn..derive..DeriveInput$GT$17h8a5ade0ef41e6bcaE', symObjAddr: 0x6CA0, symBinAddr: 0xCE730, symSize: 0x1A0 }
  - { offsetInCU: 0x1563C, offset: 0x357A99, size: 0x8, addend: 0x0, symName: '__ZN4core3ptr45drop_in_place$LT$syn..generics..TypeParam$GT$17h3f489d24bf2868acE', symObjAddr: 0x6E40, symBinAddr: 0xCE8D0, symSize: 0x230 }
  - { offsetInCU: 0x15E38, offset: 0x358295, size: 0x8, addend: 0x0, symName: '__ZN4core3ptr46drop_in_place$LT$syn..generics..ConstParam$GT$17hb82cf1b5639462f6E', symObjAddr: 0x7070, symBinAddr: 0xCEB00, symSize: 0x150 }
  - { offsetInCU: 0x16262, offset: 0x3586BF, size: 0x8, addend: 0x0, symName: '__ZN4core3ptr47drop_in_place$LT$syn..path..GenericArgument$GT$17ha4d1e2427b5b79f7E', symObjAddr: 0x71C0, symBinAddr: 0xCEC50, symSize: 0x460 }
  - { offsetInCU: 0x16F6B, offset: 0x3593C8, size: 0x8, addend: 0x0, symName: '__ZN4core3ptr49drop_in_place$LT$syn..generics..LifetimeParam$GT$17h54e59d96d3078601E', symObjAddr: 0x7620, symBinAddr: 0xCF0B0, symSize: 0xF0 }
  - { offsetInCU: 0x17325, offset: 0x359782, size: 0x8, addend: 0x0, symName: '__ZN4core3ptr49drop_in_place$LT$syn..restriction..Visibility$GT$17h68ab5212e4118751E', symObjAddr: 0x7710, symBinAddr: 0xCF1A0, symSize: 0x60 }
  - { offsetInCU: 0x174A8, offset: 0x359905, size: 0x8, addend: 0x0, symName: '__ZN4core3ptr50drop_in_place$LT$syn..generics..TypeParamBound$GT$17h3bdcf102e80fe526E', symObjAddr: 0x7770, symBinAddr: 0xCF200, symSize: 0xA0 }
  - { offsetInCU: 0x1760F, offset: 0x359A6C, size: 0x8, addend: 0x0, symName: '__ZN4core3ptr58drop_in_place$LT$alloc..vec..Vec$LT$syn..expr..Arm$GT$$GT$17h2816916be2f2c677E', symObjAddr: 0x7810, symBinAddr: 0xCF2A0, symSize: 0xD0 }
  - { offsetInCU: 0x1789C, offset: 0x359CF9, size: 0x8, addend: 0x0, symName: '__ZN4core3ptr59drop_in_place$LT$alloc..boxed..Box$LT$syn..pat..Pat$GT$$GT$17h97d5257714c9f93cE', symObjAddr: 0x78E0, symBinAddr: 0xCF370, symSize: 0x50 }
  - { offsetInCU: 0x179F7, offset: 0x359E54, size: 0x8, addend: 0x0, symName: '__ZN4core3ptr59drop_in_place$LT$alloc..boxed..Box$LT$syn..ty..Type$GT$$GT$17h54564496a417dc0bE', symObjAddr: 0x7930, symBinAddr: 0xCF3C0, symSize: 0x50 }
  - { offsetInCU: 0x17B52, offset: 0x359FAF, size: 0x8, addend: 0x0, symName: '__ZN4core3ptr61drop_in_place$LT$alloc..boxed..Box$LT$syn..expr..Expr$GT$$GT$17hcb812af949707350E', symObjAddr: 0x7980, symBinAddr: 0xCF410, symSize: 0x50 }
  - { offsetInCU: 0x17CAD, offset: 0x35A10A, size: 0x8, addend: 0x0, symName: '__ZN4core3ptr61drop_in_place$LT$syn..path..ParenthesizedGenericArguments$GT$17h2cda518d73cfbc65E', symObjAddr: 0x79D0, symBinAddr: 0xCF460, symSize: 0x170 }
  - { offsetInCU: 0x18287, offset: 0x35A6E4, size: 0x8, addend: 0x0, symName: '__ZN4core3ptr63drop_in_place$LT$alloc..boxed..Box$LT$syn..lit..LitRepr$GT$$GT$17h4f0b7f87f46ca722E', symObjAddr: 0x7B40, symBinAddr: 0xCF5D0, symSize: 0x60 }
  - { offsetInCU: 0x1857C, offset: 0x35A9D9, size: 0x8, addend: 0x0, symName: '__ZN4core3ptr64drop_in_place$LT$alloc..boxed..Box$LT$syn..pat..FieldPat$GT$$GT$17h24cd16a7bd79a0afE', symObjAddr: 0x7BA0, symBinAddr: 0xCF630, symSize: 0x140 }
  - { offsetInCU: 0x18C27, offset: 0x35B084, size: 0x8, addend: 0x0, symName: '__ZN4core3ptr64drop_in_place$LT$alloc..boxed..Box$LT$syn..ty..BareFnArg$GT$$GT$17h8d6c5b973f90cb46E', symObjAddr: 0x7CE0, symBinAddr: 0xCF770, symSize: 0x140 }
  - { offsetInCU: 0x1914B, offset: 0x35B5A8, size: 0x8, addend: 0x0, symName: '__ZN4core3ptr65drop_in_place$LT$core..option..Option$LT$syn..expr..Label$GT$$GT$17h49c37bc37ca5807aE', symObjAddr: 0x7E20, symBinAddr: 0xCF8B0, symSize: 0x30 }
  - { offsetInCU: 0x19286, offset: 0x35B6E3, size: 0x8, addend: 0x0, symName: '__ZN4core3ptr65drop_in_place$LT$core..option..Option$LT$syn..path..QSelf$GT$$GT$17hcf801102a0c1571fE', symObjAddr: 0x7E50, symBinAddr: 0xCF8E0, symSize: 0x50 }
  - { offsetInCU: 0x19409, offset: 0x35B866, size: 0x8, addend: 0x0, symName: '__ZN4core3ptr66drop_in_place$LT$core..option..Option$LT$syn..pat..PatRest$GT$$GT$17ha0b10c3084c29dd7E', symObjAddr: 0x7EA0, symBinAddr: 0xCF930, symSize: 0xE0 }
  - { offsetInCU: 0x1968D, offset: 0x35BAEA, size: 0x8, addend: 0x0, symName: '__ZN4core3ptr67drop_in_place$LT$alloc..boxed..Box$LT$syn..expr..FieldValue$GT$$GT$17h51140dec2dd742b5E', symObjAddr: 0x7F80, symBinAddr: 0xCFA10, symSize: 0x140 }
  - { offsetInCU: 0x19BB0, offset: 0x35C00D, size: 0x8, addend: 0x0, symName: '__ZN4core3ptr70drop_in_place$LT$core..option..Option$LT$syn..ty..BareVariadic$GT$$GT$17h006e7519360f59bbE', symObjAddr: 0x80C0, symBinAddr: 0xCFB50, symSize: 0x120 }
  - { offsetInCU: 0x1A0DD, offset: 0x35C53A, size: 0x8, addend: 0x0, symName: '__ZN4core3ptr72drop_in_place$LT$alloc..boxed..Box$LT$syn..path..GenericArgument$GT$$GT$17h9e43a058d82d49aaE', symObjAddr: 0x81E0, symBinAddr: 0xCFC70, symSize: 0x2B0 }
  - { offsetInCU: 0x1AAC8, offset: 0x35CF25, size: 0x8, addend: 0x0, symName: '__ZN4core3ptr72drop_in_place$LT$core..option..Option$LT$syn..lifetime..Lifetime$GT$$GT$17h2cbddfd17a7fb6a0E', symObjAddr: 0x8490, symBinAddr: 0xCFF20, symSize: 0x30 }
  - { offsetInCU: 0x1ABE4, offset: 0x35D041, size: 0x8, addend: 0x0, symName: '__ZN4core3ptr73drop_in_place$LT$alloc..boxed..Box$LT$syn..generics..GenericParam$GT$$GT$17hdf8f6b3d2d504eeeE', symObjAddr: 0x84C0, symBinAddr: 0xCFF50, symSize: 0x80 }
  - { offsetInCU: 0x1AD5C, offset: 0x35D1B9, size: 0x8, addend: 0x0, symName: '__ZN4core3ptr75drop_in_place$LT$alloc..boxed..Box$LT$syn..generics..TypeParamBound$GT$$GT$17he16e1f4f3b231893E', symObjAddr: 0x8540, symBinAddr: 0xCFFD0, symSize: 0x160 }
  - { offsetInCU: 0x1B341, offset: 0x35D79E, size: 0x8, addend: 0x0, symName: '__ZN4core3ptr75drop_in_place$LT$core..option..Option$LT$syn..generics..WhereClause$GT$$GT$17h4809634bfa029adcE', symObjAddr: 0x86A0, symBinAddr: 0xD0130, symSize: 0x100 }
  - { offsetInCU: 0x1B659, offset: 0x35DAB6, size: 0x8, addend: 0x0, symName: '__ZN4core3ptr86drop_in_place$LT$syn..punctuated..Punctuated$LT$syn..pat..Pat$C$syn..token..Or$GT$$GT$17h449b7e6b5537b210E', symObjAddr: 0x87A0, symBinAddr: 0xD0230, symSize: 0x120 }
  - { offsetInCU: 0x1BA9F, offset: 0x35DEFC, size: 0x8, addend: 0x0, symName: '__ZN4core3ptr87drop_in_place$LT$core..option..Option$LT$alloc..boxed..Box$LT$syn..pat..Pat$GT$$GT$$GT$17hbff747ffa5f39bd3E', symObjAddr: 0x88C0, symBinAddr: 0xD0350, symSize: 0x50 }
  - { offsetInCU: 0x1BC11, offset: 0x35E06E, size: 0x8, addend: 0x0, symName: '__ZN4core3ptr87drop_in_place$LT$core..option..Option$LT$alloc..boxed..Box$LT$syn..ty..Type$GT$$GT$$GT$17hd404efde6702ff0dE', symObjAddr: 0x8910, symBinAddr: 0xD03A0, symSize: 0x50 }
  - { offsetInCU: 0x1BD83, offset: 0x35E1E0, size: 0x8, addend: 0x0, symName: '__ZN4core3ptr89drop_in_place$LT$core..option..Option$LT$alloc..boxed..Box$LT$syn..expr..Expr$GT$$GT$$GT$17h981df8604670027bE', symObjAddr: 0x8960, symBinAddr: 0xD03F0, symSize: 0x50 }
  - { offsetInCU: 0x1BF33, offset: 0x35E390, size: 0x8, addend: 0x0, symName: '__ZN4core3ptr89drop_in_place$LT$syn..punctuated..Punctuated$LT$syn..pat..Pat$C$syn..token..Comma$GT$$GT$17h8165fd7eb02b8118E', symObjAddr: 0x89B0, symBinAddr: 0xD0440, symSize: 0x120 }
  - { offsetInCU: 0x1C3ED, offset: 0x35E84A, size: 0x8, addend: 0x0, symName: '__ZN4core3ptr90drop_in_place$LT$core..option..Option$LT$alloc..boxed..Box$LT$syn..data..Field$GT$$GT$$GT$17h7c8befe69ecac6fdE', symObjAddr: 0x8AD0, symBinAddr: 0xD0560, symSize: 0x200 }
  - { offsetInCU: 0x1CC62, offset: 0x35F0BF, size: 0x8, addend: 0x0, symName: '__ZN4core3ptr91drop_in_place$LT$syn..punctuated..Punctuated$LT$syn..expr..Expr$C$syn..token..Comma$GT$$GT$17ha27fe7b672ce38bdE', symObjAddr: 0x8CD0, symBinAddr: 0xD0760, symSize: 0x120 }
  - { offsetInCU: 0x1D13B, offset: 0x35F598, size: 0x8, addend: 0x0, symName: '__ZN4core3ptr92drop_in_place$LT$core..option..Option$LT$alloc..boxed..Box$LT$syn..data..Variant$GT$$GT$$GT$17h84fff460502be326E', symObjAddr: 0x8DF0, symBinAddr: 0xD0880, symSize: 0x190 }
  - { offsetInCU: 0x1D787, offset: 0x35FBE4, size: 0x8, addend: 0x0, symName: '__ZN4core3ptr94drop_in_place$LT$syn..punctuated..Punctuated$LT$syn..pat..FieldPat$C$syn..token..Comma$GT$$GT$17hd9ad3a9ff53c2a49E', symObjAddr: 0x8F80, symBinAddr: 0xD0A10, symSize: 0xF0 }
  - { offsetInCU: 0x1DA51, offset: 0x35FEAE, size: 0x8, addend: 0x0, symName: '__ZN4core3ptr94drop_in_place$LT$syn..punctuated..Punctuated$LT$syn..ty..BareFnArg$C$syn..token..Comma$GT$$GT$17h3ad0ecbb9acc3d94E', symObjAddr: 0x9070, symBinAddr: 0xD0B00, symSize: 0xF0 }
  - { offsetInCU: 0x1DD1B, offset: 0x360178, size: 0x8, addend: 0x0, symName: '__ZN4core3ptr96drop_in_place$LT$core..option..Option$LT$alloc..boxed..Box$LT$syn..path..PathSegment$GT$$GT$$GT$17h15008b031e78f545E', symObjAddr: 0x9160, symBinAddr: 0xD0BF0, symSize: 0x180 }
  - { offsetInCU: 0x1E3AC, offset: 0x360809, size: 0x8, addend: 0x0, symName: '__ZN4core3ptr97drop_in_place$LT$syn..punctuated..Punctuated$LT$syn..expr..FieldValue$C$syn..token..Comma$GT$$GT$17h7dd72fd62fffe077E', symObjAddr: 0x92E0, symBinAddr: 0xD0D70, symSize: 0xF0 }
  - { offsetInCU: 0x1E6F2, offset: 0x360B4F, size: 0x8, addend: 0x0, symName: '__ZN4core3ptr98drop_in_place$LT$syn..punctuated..Punctuated$LT$syn..lifetime..Lifetime$C$syn..token..Plus$GT$$GT$17haf6d03c18957eb1aE', symObjAddr: 0x93D0, symBinAddr: 0xD0E60, symSize: 0xB1 }
  - { offsetInCU: 0x2337F, offset: 0x3657DC, size: 0x8, addend: 0x0, symName: '__ZN40_$LT$F$u20$as$u20$syn..parse..Parser$GT$14__parse_scoped17h1f164b208dd2dadcE', symObjAddr: 0x530, symBinAddr: 0xC7FC0, symSize: 0x530 }
  - { offsetInCU: 0x24063, offset: 0x3664C0, size: 0x8, addend: 0x0, symName: '__ZN40_$LT$F$u20$as$u20$syn..parse..Parser$GT$14__parse_scoped17h6a20db1e55818f35E', symObjAddr: 0xA60, symBinAddr: 0xC84F0, symSize: 0x540 }
  - { offsetInCU: 0x24D79, offset: 0x3671D6, size: 0x8, addend: 0x0, symName: '__ZN40_$LT$F$u20$as$u20$syn..parse..Parser$GT$14__parse_scoped17hbd922b76a9dba4d0E', symObjAddr: 0xFA0, symBinAddr: 0xC8A30, symSize: 0x560 }
  - { offsetInCU: 0x25AB2, offset: 0x367F0F, size: 0x8, addend: 0x0, symName: '__ZN40_$LT$F$u20$as$u20$syn..parse..Parser$GT$6parse217h50ac321a84b42b38E', symObjAddr: 0x1500, symBinAddr: 0xC8F90, symSize: 0x5D0 }
  - { offsetInCU: 0x26908, offset: 0x368D65, size: 0x8, addend: 0x0, symName: __ZN3syn5parse6Parser5parse17h0fb1a56c72b52987E, symObjAddr: 0x0, symBinAddr: 0xC7A90, symSize: 0x530 }
  - { offsetInCU: 0x1E, offset: 0x372219, size: 0x8, addend: 0x0, symName: '__ZN4core3ptr181drop_in_place$LT$hashbrown..scopeguard..ScopeGuard$LT$$RF$mut$u20$hashbrown..raw..RawTableInner$C$hashbrown..raw..RawTableInner..rehash_in_place..$u7b$$u7b$closure$u7d$$u7d$$GT$$GT$17ha3b005315682ab8cE', symObjAddr: 0x0, symBinAddr: 0xD0F20, symSize: 0xC0 }
  - { offsetInCU: 0x9B3, offset: 0x372BAE, size: 0x8, addend: 0x0, symName: '__ZN79_$LT$hashbrown..raw..RawTable$LT$T$C$A$GT$$u20$as$u20$core..ops..drop..Drop$GT$4drop17haab581f746de3f78E', symObjAddr: 0x130, symBinAddr: 0xD1050, symSize: 0x120 }
  - { offsetInCU: 0x1A94, offset: 0x373C8F, size: 0x8, addend: 0x0, symName: '__ZN4core3ptr181drop_in_place$LT$hashbrown..scopeguard..ScopeGuard$LT$$RF$mut$u20$hashbrown..raw..RawTableInner$C$hashbrown..raw..RawTableInner..rehash_in_place..$u7b$$u7b$closure$u7d$$u7d$$GT$$GT$17ha3b005315682ab8cE', symObjAddr: 0x0, symBinAddr: 0xD0F20, symSize: 0xC0 }
  - { offsetInCU: 0x2123, offset: 0x37431E, size: 0x8, addend: 0x0, symName: '__ZN4core3ptr196drop_in_place$LT$hashbrown..scopeguard..ScopeGuard$LT$hashbrown..raw..RawTableInner$C$hashbrown..raw..RawTableInner..prepare_resize$LT$alloc..alloc..Global$GT$..$u7b$$u7b$closure$u7d$$u7d$$GT$$GT$17hb65bbddb3f39d2ffE', symObjAddr: 0xC0, symBinAddr: 0xD0FE0, symSize: 0x40 }
  - { offsetInCU: 0x23D8, offset: 0x3745D3, size: 0x8, addend: 0x0, symName: '__ZN4core3ptr58drop_in_place$LT$$LP$proc_macro2..Ident$C$$LP$$RP$$RP$$GT$17hf92a6be3561f8da3E', symObjAddr: 0x100, symBinAddr: 0xD1020, symSize: 0x30 }
  - { offsetInCU: 0x544E, offset: 0x377649, size: 0x8, addend: 0x0, symName: '__ZN9hashbrown3raw21RawTable$LT$T$C$A$GT$14reserve_rehash17h9dfae99dfa51e80fE.llvm.12060918860138003337', symObjAddr: 0x250, symBinAddr: 0x2BE0A0, symSize: 0x8C0 }
  - { offsetInCU: 0x1E, offset: 0x379831, size: 0x8, addend: 0x0, symName: '__ZN4core3ops8function5impls79_$LT$impl$u20$core..ops..function..FnMut$LT$A$GT$$u20$for$u20$$RF$mut$u20$F$GT$8call_mut17hd389a54902fd71e3E', symObjAddr: 0x0, symBinAddr: 0xD1170, symSize: 0x470 }
  - { offsetInCU: 0x16C1, offset: 0x37AED4, size: 0x8, addend: 0x0, symName: __ZN12serde_derive7pretend12pretend_used17h5b648c6aa92788b6E, symObjAddr: 0x670, symBinAddr: 0xD17E0, symSize: 0x1B19 }
  - { offsetInCU: 0x460C, offset: 0x37DE1F, size: 0x8, addend: 0x0, symName: '__ZN4core3ptr45drop_in_place$LT$proc_macro2..TokenStream$GT$17hcbbbd6ac69a3e46cE', symObjAddr: 0x470, symBinAddr: 0xD15E0, symSize: 0x140 }
  - { offsetInCU: 0x4A5C, offset: 0x37E26F, size: 0x8, addend: 0x0, symName: '__ZN4core3ptr68drop_in_place$LT$alloc..vec..Vec$LT$proc_macro2..TokenStream$GT$$GT$17hc0cc7efc9619ba65E', symObjAddr: 0x5B0, symBinAddr: 0xD1720, symSize: 0xC0 }
  - { offsetInCU: 0x7CDE, offset: 0x3814F1, size: 0x8, addend: 0x0, symName: '__ZN4core3ops8function5impls79_$LT$impl$u20$core..ops..function..FnMut$LT$A$GT$$u20$for$u20$$RF$mut$u20$F$GT$8call_mut17hd389a54902fd71e3E', symObjAddr: 0x0, symBinAddr: 0xD1170, symSize: 0x470 }
  - { offsetInCU: 0x1E, offset: 0x38A575, size: 0x8, addend: 0x0, symName: '__ZN5alloc3str21_$LT$impl$u20$str$GT$7replace17hc75fbd2eba437277E', symObjAddr: 0x0, symBinAddr: 0xD3300, symSize: 0x1F0 }
  - { offsetInCU: 0xDD, offset: 0x38A634, size: 0x8, addend: 0x0, symName: '__ZN80_$LT$serde_derive..internals..case..ParseError$u20$as$u20$core..fmt..Display$GT$3fmt17h0a19e9c7e5d5a276E', symObjAddr: 0x19C0, symBinAddr: 0xD4CC0, symSize: 0x1EB }
  - { offsetInCU: 0x1F0C, offset: 0x38C463, size: 0x8, addend: 0x0, symName: '__ZN5alloc3str21_$LT$impl$u20$str$GT$7replace17hc75fbd2eba437277E', symObjAddr: 0x0, symBinAddr: 0xD3300, symSize: 0x1F0 }
  - { offsetInCU: 0x3054, offset: 0x38D5AB, size: 0x8, addend: 0x0, symName: __ZN12serde_derive9internals4case10RenameRule8from_str17h72d9859a137eef75E, symObjAddr: 0x1F0, symBinAddr: 0xD34F0, symSize: 0x190 }
  - { offsetInCU: 0x36A0, offset: 0x38DBF7, size: 0x8, addend: 0x0, symName: __ZN12serde_derive9internals4case10RenameRule16apply_to_variant17h46ffee5a1ca225edE, symObjAddr: 0x380, symBinAddr: 0xD3680, symSize: 0xAE0 }
  - { offsetInCU: 0x5870, offset: 0x38FDC7, size: 0x8, addend: 0x0, symName: __ZN12serde_derive9internals4case10RenameRule14apply_to_field17h80f4dda362f21730E, symObjAddr: 0xE60, symBinAddr: 0xD4160, symSize: 0xB60 }
  - { offsetInCU: 0x1E, offset: 0x392C2E, size: 0x8, addend: 0x0, symName: '__ZN60_$LT$alloc..string..String$u20$as$u20$core..fmt..Display$GT$3fmt17hc365578c40090489E', symObjAddr: 0x0, symBinAddr: 0xD4EB0, symSize: 0x20 }
  - { offsetInCU: 0x1644, offset: 0x394254, size: 0x8, addend: 0x0, symName: __ZN12serde_derive9internals5check5check17h19ce93dd8c9618c3E, symObjAddr: 0x20, symBinAddr: 0xD4ED0, symSize: 0x15A5 }
  - { offsetInCU: 0x8E54, offset: 0x39BA64, size: 0x8, addend: 0x0, symName: '__ZN60_$LT$alloc..string..String$u20$as$u20$core..fmt..Display$GT$3fmt17hc365578c40090489E', symObjAddr: 0x0, symBinAddr: 0xD4EB0, symSize: 0x20 }
  - { offsetInCU: 0x1E, offset: 0x3A2819, size: 0x8, addend: 0x0, symName: __ZN10proc_macro6bridge6client14HandleCounters3get17h02da01958788119eE, symObjAddr: 0x0, symBinAddr: 0xD6480, symSize: 0x10 }
  - { offsetInCU: 0x40, offset: 0x3A283B, size: 0x8, addend: 0x0, symName: ___rustc_proc_macro_decls_b1c28e33f2ccec4e__, symObjAddr: 0x8930, symBinAddr: 0x34D950, symSize: 0x0 }
  - { offsetInCU: 0x4F, offset: 0x3A284A, size: 0x8, addend: 0x0, symName: __ZN12serde_derive16derive_serialize17h9ef8c48355ee7a9eE, symObjAddr: 0x7670, symBinAddr: 0xDDAF0, symSize: 0x1B0 }
  - { offsetInCU: 0x381, offset: 0x3A2B7C, size: 0x8, addend: 0x0, symName: __ZN12serde_derive18derive_deserialize17h2925c9fac4eec4d5E, symObjAddr: 0x7820, symBinAddr: 0xDDCA0, symSize: 0x1A9 }
  - { offsetInCU: 0x38DA, offset: 0x3A60D5, size: 0x8, addend: 0x0, symName: '__ZN4core3ptr100drop_in_place$LT$core..option..Option$LT$alloc..boxed..Box$LT$syn..path..GenericArgument$GT$$GT$$GT$17h91f76f7535c0ef94E', symObjAddr: 0x10, symBinAddr: 0xD6490, symSize: 0x50 }
  - { offsetInCU: 0x3AA9, offset: 0x3A62A4, size: 0x8, addend: 0x0, symName: '__ZN4core3ptr102drop_in_place$LT$syn..punctuated..Punctuated$LT$syn..path..GenericArgument$C$syn..token..Comma$GT$$GT$17h7deada5365120e66E', symObjAddr: 0x60, symBinAddr: 0xD64E0, symSize: 0xF0 }
  - { offsetInCU: 0x3D92, offset: 0x3A658D, size: 0x8, addend: 0x0, symName: '__ZN4core3ptr103drop_in_place$LT$core..option..Option$LT$alloc..boxed..Box$LT$syn..generics..TypeParamBound$GT$$GT$$GT$17h044206982686810cE', symObjAddr: 0x150, symBinAddr: 0xD65D0, symSize: 0x50 }
  - { offsetInCU: 0x4059, offset: 0x3A6854, size: 0x8, addend: 0x0, symName: '__ZN4core3ptr103drop_in_place$LT$core..option..Option$LT$alloc..boxed..Box$LT$syn..generics..WherePredicate$GT$$GT$$GT$17hdb4f3c209e2b962bE', symObjAddr: 0x1A0, symBinAddr: 0xD6620, symSize: 0xD0 }
  - { offsetInCU: 0x43EC, offset: 0x3A6BE7, size: 0x8, addend: 0x0, symName: '__ZN4core3ptr103drop_in_place$LT$syn..punctuated..Punctuated$LT$syn..generics..GenericParam$C$syn..token..Comma$GT$$GT$17h28897b64a12579c2E', symObjAddr: 0x270, symBinAddr: 0xD66F0, symSize: 0xF0 }
  - { offsetInCU: 0x48AF, offset: 0x3A70AA, size: 0x8, addend: 0x0, symName: '__ZN4core3ptr104drop_in_place$LT$syn..punctuated..Punctuated$LT$syn..generics..TypeParamBound$C$syn..token..Plus$GT$$GT$17h8a3e2526f1805111E', symObjAddr: 0x360, symBinAddr: 0xD67E0, symSize: 0x230 }
  - { offsetInCU: 0x518D, offset: 0x3A7988, size: 0x8, addend: 0x0, symName: '__ZN4core3ptr34drop_in_place$LT$syn..lit..Lit$GT$17h909e98f6870548d6E', symObjAddr: 0x590, symBinAddr: 0xD6A10, symSize: 0x110 }
  - { offsetInCU: 0x56E6, offset: 0x3A7EE1, size: 0x8, addend: 0x0, symName: '__ZN4core3ptr34drop_in_place$LT$syn..pat..Pat$GT$17h8fcd4c90be46a62aE', symObjAddr: 0x6A0, symBinAddr: 0xD6B20, symSize: 0xEE0 }
  - { offsetInCU: 0x8D35, offset: 0x3AB530, size: 0x8, addend: 0x0, symName: '__ZN4core3ptr34drop_in_place$LT$syn..ty..Type$GT$17h774a0ab6b4cf283eE', symObjAddr: 0x1580, symBinAddr: 0xD7A00, symSize: 0x5C0 }
  - { offsetInCU: 0xA56B, offset: 0x3ACD66, size: 0x8, addend: 0x0, symName: '__ZN4core3ptr36drop_in_place$LT$syn..expr..Expr$GT$17h7fd8f0d642db296eE', symObjAddr: 0x1B40, symBinAddr: 0xD7FC0, symSize: 0x2800 }
  - { offsetInCU: 0x13748, offset: 0x3B5F43, size: 0x8, addend: 0x0, symName: '__ZN4core3ptr36drop_in_place$LT$syn..mac..Macro$GT$17hc8e4594548e1fb74E', symObjAddr: 0x4340, symBinAddr: 0xDA7C0, symSize: 0xE0 }
  - { offsetInCU: 0x13AB9, offset: 0x3B62B4, size: 0x8, addend: 0x0, symName: '__ZN4core3ptr36drop_in_place$LT$syn..path..Path$GT$17hae91be932b20df1dE', symObjAddr: 0x4420, symBinAddr: 0xDA8A0, symSize: 0x220 }
  - { offsetInCU: 0x143EE, offset: 0x3B6BE9, size: 0x8, addend: 0x0, symName: '__ZN4core3ptr37drop_in_place$LT$syn..stmt..Block$GT$17hba4e7ddf28617bfdE', symObjAddr: 0x4640, symBinAddr: 0xDAAC0, symSize: 0xD0 }
  - { offsetInCU: 0x1472D, offset: 0x3B6F28, size: 0x8, addend: 0x0, symName: '__ZN4core3ptr38drop_in_place$LT$syn..data..Fields$GT$17h0b12d14ea133d189E', symObjAddr: 0x4710, symBinAddr: 0xDAB90, symSize: 0x190 }
  - { offsetInCU: 0x14C05, offset: 0x3B7400, size: 0x8, addend: 0x0, symName: '__ZN4core3ptr38drop_in_place$LT$syn..derive..Data$GT$17h994203d8bccc3f4bE', symObjAddr: 0x48A0, symBinAddr: 0xDAD20, symSize: 0x1D0 }
  - { offsetInCU: 0x15283, offset: 0x3B7A7E, size: 0x8, addend: 0x0, symName: '__ZN4core3ptr38drop_in_place$LT$syn..error..Error$GT$17h82a5801562d337b6E.llvm.63104684929586094', symObjAddr: 0x4A70, symBinAddr: 0xDAEF0, symSize: 0x80 }
  - { offsetInCU: 0x15541, offset: 0x3B7D3C, size: 0x8, addend: 0x0, symName: '__ZN4core3ptr38drop_in_place$LT$syn..expr..Member$GT$17ha7c2806ee150b6f6E', symObjAddr: 0x4AF0, symBinAddr: 0xDAF70, symSize: 0x30 }
  - { offsetInCU: 0x1563E, offset: 0x3B7E39, size: 0x8, addend: 0x0, symName: '__ZN4core3ptr39drop_in_place$LT$proc_macro2..Ident$GT$17h8dfea26593c17b61E', symObjAddr: 0x4B20, symBinAddr: 0xDAFA0, symSize: 0x30 }
  - { offsetInCU: 0x1571C, offset: 0x3B7F17, size: 0x8, addend: 0x0, symName: '__ZN4core3ptr40drop_in_place$LT$syn..ty..ReturnType$GT$17h3c2856ff70e83fa7E', symObjAddr: 0x4B50, symBinAddr: 0xDAFD0, symSize: 0x50 }
  - { offsetInCU: 0x1588E, offset: 0x3B8089, size: 0x8, addend: 0x0, symName: '__ZN4core3ptr41drop_in_place$LT$syn..expr..ExprConst$GT$17h3f369735cc377020E', symObjAddr: 0x4BA0, symBinAddr: 0xDB020, symSize: 0x180 }
  - { offsetInCU: 0x15DE3, offset: 0x3B85DE, size: 0x8, addend: 0x0, symName: '__ZN4core3ptr44drop_in_place$LT$syn..generics..Generics$GT$17h7c53fa45071f0fc1E', symObjAddr: 0x4D20, symBinAddr: 0xDB1A0, symSize: 0x40 }
  - { offsetInCU: 0x15E00, offset: 0x3B85FB, size: 0x8, addend: 0x0, symName: '__ZN4core3ptr44drop_in_place$LT$syn..lifetime..Lifetime$GT$17h263f9508be5fff98E', symObjAddr: 0x4D60, symBinAddr: 0xDB1E0, symSize: 0x30 }
  - { offsetInCU: 0x16033, offset: 0x3B882E, size: 0x8, addend: 0x0, symName: '__ZN4core3ptr45drop_in_place$LT$proc_macro2..TokenStream$GT$17hcbbbd6ac69a3e46cE', symObjAddr: 0x4D90, symBinAddr: 0xDB210, symSize: 0x140 }
  - { offsetInCU: 0x164E0, offset: 0x3B8CDB, size: 0x8, addend: 0x0, symName: '__ZN4core3ptr45drop_in_place$LT$syn..derive..DeriveInput$GT$17h8a5ade0ef41e6bcaE.llvm.63104684929586094', symObjAddr: 0x4ED0, symBinAddr: 0xDB350, symSize: 0x1A0 }
  - { offsetInCU: 0x16A36, offset: 0x3B9231, size: 0x8, addend: 0x0, symName: '__ZN4core3ptr45drop_in_place$LT$syn..generics..TypeParam$GT$17h3f489d24bf2868acE', symObjAddr: 0x5070, symBinAddr: 0xDB4F0, symSize: 0x230 }
  - { offsetInCU: 0x17232, offset: 0x3B9A2D, size: 0x8, addend: 0x0, symName: '__ZN4core3ptr46drop_in_place$LT$syn..generics..ConstParam$GT$17hb82cf1b5639462f6E', symObjAddr: 0x52A0, symBinAddr: 0xDB720, symSize: 0x150 }
  - { offsetInCU: 0x1765C, offset: 0x3B9E57, size: 0x8, addend: 0x0, symName: '__ZN4core3ptr47drop_in_place$LT$syn..path..GenericArgument$GT$17ha4d1e2427b5b79f7E', symObjAddr: 0x53F0, symBinAddr: 0xDB870, symSize: 0x460 }
  - { offsetInCU: 0x18365, offset: 0x3BAB60, size: 0x8, addend: 0x0, symName: '__ZN4core3ptr49drop_in_place$LT$syn..generics..LifetimeParam$GT$17h54e59d96d3078601E', symObjAddr: 0x5850, symBinAddr: 0xDBCD0, symSize: 0xF0 }
  - { offsetInCU: 0x1871F, offset: 0x3BAF1A, size: 0x8, addend: 0x0, symName: '__ZN4core3ptr49drop_in_place$LT$syn..restriction..Visibility$GT$17h68ab5212e4118751E', symObjAddr: 0x5940, symBinAddr: 0xDBDC0, symSize: 0x60 }
  - { offsetInCU: 0x188A2, offset: 0x3BB09D, size: 0x8, addend: 0x0, symName: '__ZN4core3ptr50drop_in_place$LT$syn..generics..TypeParamBound$GT$17h3bdcf102e80fe526E', symObjAddr: 0x59A0, symBinAddr: 0xDBE20, symSize: 0xA0 }
  - { offsetInCU: 0x18A09, offset: 0x3BB204, size: 0x8, addend: 0x0, symName: '__ZN4core3ptr58drop_in_place$LT$alloc..vec..Vec$LT$syn..expr..Arm$GT$$GT$17h2816916be2f2c677E', symObjAddr: 0x5A40, symBinAddr: 0xDBEC0, symSize: 0xD0 }
  - { offsetInCU: 0x18C96, offset: 0x3BB491, size: 0x8, addend: 0x0, symName: '__ZN4core3ptr59drop_in_place$LT$alloc..boxed..Box$LT$syn..pat..Pat$GT$$GT$17h97d5257714c9f93cE', symObjAddr: 0x5B10, symBinAddr: 0xDBF90, symSize: 0x50 }
  - { offsetInCU: 0x18DF1, offset: 0x3BB5EC, size: 0x8, addend: 0x0, symName: '__ZN4core3ptr59drop_in_place$LT$alloc..boxed..Box$LT$syn..ty..Type$GT$$GT$17h54564496a417dc0bE', symObjAddr: 0x5B60, symBinAddr: 0xDBFE0, symSize: 0x50 }
  - { offsetInCU: 0x18F4C, offset: 0x3BB747, size: 0x8, addend: 0x0, symName: '__ZN4core3ptr61drop_in_place$LT$alloc..boxed..Box$LT$syn..expr..Expr$GT$$GT$17hcb812af949707350E', symObjAddr: 0x5BB0, symBinAddr: 0xDC030, symSize: 0x50 }
  - { offsetInCU: 0x190A7, offset: 0x3BB8A2, size: 0x8, addend: 0x0, symName: '__ZN4core3ptr61drop_in_place$LT$syn..path..ParenthesizedGenericArguments$GT$17h2cda518d73cfbc65E', symObjAddr: 0x5C00, symBinAddr: 0xDC080, symSize: 0x170 }
  - { offsetInCU: 0x19681, offset: 0x3BBE7C, size: 0x8, addend: 0x0, symName: '__ZN4core3ptr63drop_in_place$LT$alloc..boxed..Box$LT$syn..lit..LitRepr$GT$$GT$17h4f0b7f87f46ca722E', symObjAddr: 0x5D70, symBinAddr: 0xDC1F0, symSize: 0x60 }
  - { offsetInCU: 0x19976, offset: 0x3BC171, size: 0x8, addend: 0x0, symName: '__ZN4core3ptr64drop_in_place$LT$alloc..boxed..Box$LT$syn..pat..FieldPat$GT$$GT$17h24cd16a7bd79a0afE', symObjAddr: 0x5DD0, symBinAddr: 0xDC250, symSize: 0x140 }
  - { offsetInCU: 0x1A021, offset: 0x3BC81C, size: 0x8, addend: 0x0, symName: '__ZN4core3ptr64drop_in_place$LT$alloc..boxed..Box$LT$syn..ty..BareFnArg$GT$$GT$17h8d6c5b973f90cb46E', symObjAddr: 0x5F10, symBinAddr: 0xDC390, symSize: 0x140 }
  - { offsetInCU: 0x1A545, offset: 0x3BCD40, size: 0x8, addend: 0x0, symName: '__ZN4core3ptr65drop_in_place$LT$core..option..Option$LT$syn..expr..Label$GT$$GT$17h49c37bc37ca5807aE', symObjAddr: 0x6050, symBinAddr: 0xDC4D0, symSize: 0x30 }
  - { offsetInCU: 0x1A680, offset: 0x3BCE7B, size: 0x8, addend: 0x0, symName: '__ZN4core3ptr66drop_in_place$LT$core..option..Option$LT$syn..pat..PatRest$GT$$GT$17ha0b10c3084c29dd7E', symObjAddr: 0x6080, symBinAddr: 0xDC500, symSize: 0xE0 }
  - { offsetInCU: 0x1A904, offset: 0x3BD0FF, size: 0x8, addend: 0x0, symName: '__ZN4core3ptr67drop_in_place$LT$alloc..boxed..Box$LT$syn..expr..FieldValue$GT$$GT$17h51140dec2dd742b5E', symObjAddr: 0x6160, symBinAddr: 0xDC5E0, symSize: 0x140 }
  - { offsetInCU: 0x1AE27, offset: 0x3BD622, size: 0x8, addend: 0x0, symName: '__ZN4core3ptr70drop_in_place$LT$core..option..Option$LT$syn..ty..BareVariadic$GT$$GT$17h006e7519360f59bbE', symObjAddr: 0x62A0, symBinAddr: 0xDC720, symSize: 0x120 }
  - { offsetInCU: 0x1B354, offset: 0x3BDB4F, size: 0x8, addend: 0x0, symName: '__ZN4core3ptr72drop_in_place$LT$alloc..boxed..Box$LT$syn..path..GenericArgument$GT$$GT$17h9e43a058d82d49aaE', symObjAddr: 0x63C0, symBinAddr: 0xDC840, symSize: 0x2B0 }
  - { offsetInCU: 0x1BD3F, offset: 0x3BE53A, size: 0x8, addend: 0x0, symName: '__ZN4core3ptr72drop_in_place$LT$core..option..Option$LT$syn..lifetime..Lifetime$GT$$GT$17h2cbddfd17a7fb6a0E', symObjAddr: 0x6670, symBinAddr: 0xDCAF0, symSize: 0x30 }
  - { offsetInCU: 0x1BE5B, offset: 0x3BE656, size: 0x8, addend: 0x0, symName: '__ZN4core3ptr73drop_in_place$LT$alloc..boxed..Box$LT$syn..generics..GenericParam$GT$$GT$17hdf8f6b3d2d504eeeE', symObjAddr: 0x66A0, symBinAddr: 0xDCB20, symSize: 0x80 }
  - { offsetInCU: 0x1BFD3, offset: 0x3BE7CE, size: 0x8, addend: 0x0, symName: '__ZN4core3ptr75drop_in_place$LT$alloc..boxed..Box$LT$syn..generics..TypeParamBound$GT$$GT$17he16e1f4f3b231893E', symObjAddr: 0x6720, symBinAddr: 0xDCBA0, symSize: 0x160 }
  - { offsetInCU: 0x1C5B8, offset: 0x3BEDB3, size: 0x8, addend: 0x0, symName: '__ZN4core3ptr75drop_in_place$LT$core..option..Option$LT$syn..generics..WhereClause$GT$$GT$17h4809634bfa029adcE', symObjAddr: 0x6880, symBinAddr: 0xDCD00, symSize: 0x100 }
  - { offsetInCU: 0x1C8D0, offset: 0x3BF0CB, size: 0x8, addend: 0x0, symName: '__ZN4core3ptr86drop_in_place$LT$syn..punctuated..Punctuated$LT$syn..pat..Pat$C$syn..token..Or$GT$$GT$17h449b7e6b5537b210E', symObjAddr: 0x6980, symBinAddr: 0xDCE00, symSize: 0x120 }
  - { offsetInCU: 0x1CD16, offset: 0x3BF511, size: 0x8, addend: 0x0, symName: '__ZN4core3ptr87drop_in_place$LT$core..option..Option$LT$alloc..boxed..Box$LT$syn..pat..Pat$GT$$GT$$GT$17hbff747ffa5f39bd3E', symObjAddr: 0x6AA0, symBinAddr: 0xDCF20, symSize: 0x50 }
  - { offsetInCU: 0x1CE88, offset: 0x3BF683, size: 0x8, addend: 0x0, symName: '__ZN4core3ptr87drop_in_place$LT$core..option..Option$LT$alloc..boxed..Box$LT$syn..ty..Type$GT$$GT$$GT$17hd404efde6702ff0dE', symObjAddr: 0x6AF0, symBinAddr: 0xDCF70, symSize: 0x50 }
  - { offsetInCU: 0x1CFFA, offset: 0x3BF7F5, size: 0x8, addend: 0x0, symName: '__ZN4core3ptr89drop_in_place$LT$core..option..Option$LT$alloc..boxed..Box$LT$syn..expr..Expr$GT$$GT$$GT$17h981df8604670027bE', symObjAddr: 0x6B40, symBinAddr: 0xDCFC0, symSize: 0x50 }
  - { offsetInCU: 0x1D1AA, offset: 0x3BF9A5, size: 0x8, addend: 0x0, symName: '__ZN4core3ptr89drop_in_place$LT$syn..punctuated..Punctuated$LT$syn..pat..Pat$C$syn..token..Comma$GT$$GT$17h8165fd7eb02b8118E', symObjAddr: 0x6B90, symBinAddr: 0xDD010, symSize: 0x120 }
  - { offsetInCU: 0x1D664, offset: 0x3BFE5F, size: 0x8, addend: 0x0, symName: '__ZN4core3ptr90drop_in_place$LT$core..option..Option$LT$alloc..boxed..Box$LT$syn..data..Field$GT$$GT$$GT$17h7c8befe69ecac6fdE', symObjAddr: 0x6CB0, symBinAddr: 0xDD130, symSize: 0x200 }
  - { offsetInCU: 0x1DED9, offset: 0x3C06D4, size: 0x8, addend: 0x0, symName: '__ZN4core3ptr91drop_in_place$LT$syn..punctuated..Punctuated$LT$syn..expr..Expr$C$syn..token..Comma$GT$$GT$17ha27fe7b672ce38bdE', symObjAddr: 0x6EB0, symBinAddr: 0xDD330, symSize: 0x120 }
  - { offsetInCU: 0x1E3B2, offset: 0x3C0BAD, size: 0x8, addend: 0x0, symName: '__ZN4core3ptr92drop_in_place$LT$core..option..Option$LT$alloc..boxed..Box$LT$syn..data..Variant$GT$$GT$$GT$17h84fff460502be326E', symObjAddr: 0x6FD0, symBinAddr: 0xDD450, symSize: 0x190 }
  - { offsetInCU: 0x1E9FE, offset: 0x3C11F9, size: 0x8, addend: 0x0, symName: '__ZN4core3ptr94drop_in_place$LT$syn..punctuated..Punctuated$LT$syn..pat..FieldPat$C$syn..token..Comma$GT$$GT$17hd9ad3a9ff53c2a49E', symObjAddr: 0x7160, symBinAddr: 0xDD5E0, symSize: 0xF0 }
  - { offsetInCU: 0x1ECC8, offset: 0x3C14C3, size: 0x8, addend: 0x0, symName: '__ZN4core3ptr94drop_in_place$LT$syn..punctuated..Punctuated$LT$syn..ty..BareFnArg$C$syn..token..Comma$GT$$GT$17h3ad0ecbb9acc3d94E', symObjAddr: 0x7250, symBinAddr: 0xDD6D0, symSize: 0xF0 }
  - { offsetInCU: 0x1EF92, offset: 0x3C178D, size: 0x8, addend: 0x0, symName: '__ZN4core3ptr96drop_in_place$LT$core..option..Option$LT$alloc..boxed..Box$LT$syn..path..PathSegment$GT$$GT$$GT$17h15008b031e78f545E', symObjAddr: 0x7340, symBinAddr: 0xDD7C0, symSize: 0x180 }
  - { offsetInCU: 0x1F623, offset: 0x3C1E1E, size: 0x8, addend: 0x0, symName: '__ZN4core3ptr97drop_in_place$LT$syn..punctuated..Punctuated$LT$syn..expr..FieldValue$C$syn..token..Comma$GT$$GT$17h7dd72fd62fffe077E', symObjAddr: 0x74C0, symBinAddr: 0xDD940, symSize: 0xF0 }
  - { offsetInCU: 0x1F969, offset: 0x3C2164, size: 0x8, addend: 0x0, symName: '__ZN4core3ptr98drop_in_place$LT$syn..punctuated..Punctuated$LT$syn..lifetime..Lifetime$C$syn..token..Plus$GT$$GT$17haf6d03c18957eb1aE', symObjAddr: 0x75B0, symBinAddr: 0xDDA30, symSize: 0xC0 }
  - { offsetInCU: 0x20632, offset: 0x3C2E2D, size: 0x8, addend: 0x0, symName: __ZN10proc_macro6bridge6client14HandleCounters3get17h02da01958788119eE, symObjAddr: 0x0, symBinAddr: 0xD6480, symSize: 0x10 }
  - { offsetInCU: 0x1E, offset: 0x3CC8BA, size: 0x8, addend: 0x0, symName: __ZN3syn11parse_quote5parse17h925dac373c4106c4E, symObjAddr: 0x0, symBinAddr: 0xDDE50, symSize: 0x500 }
  - { offsetInCU: 0x19AB, offset: 0x3CE247, size: 0x8, addend: 0x0, symName: '__ZN4core3ptr100drop_in_place$LT$core..option..Option$LT$alloc..boxed..Box$LT$syn..path..GenericArgument$GT$$GT$$GT$17h91f76f7535c0ef94E', symObjAddr: 0xB90, symBinAddr: 0xDE990, symSize: 0x50 }
  - { offsetInCU: 0x1B7A, offset: 0x3CE416, size: 0x8, addend: 0x0, symName: '__ZN4core3ptr102drop_in_place$LT$syn..punctuated..Punctuated$LT$syn..path..GenericArgument$C$syn..token..Comma$GT$$GT$17h7deada5365120e66E', symObjAddr: 0xBE0, symBinAddr: 0xDE9E0, symSize: 0xF0 }
  - { offsetInCU: 0x1E63, offset: 0x3CE6FF, size: 0x8, addend: 0x0, symName: '__ZN4core3ptr103drop_in_place$LT$core..option..Option$LT$alloc..boxed..Box$LT$syn..generics..TypeParamBound$GT$$GT$$GT$17h044206982686810cE', symObjAddr: 0xCD0, symBinAddr: 0xDEAD0, symSize: 0x50 }
  - { offsetInCU: 0x2070, offset: 0x3CE90C, size: 0x8, addend: 0x0, symName: '__ZN4core3ptr103drop_in_place$LT$syn..punctuated..Punctuated$LT$syn..generics..GenericParam$C$syn..token..Comma$GT$$GT$17h28897b64a12579c2E', symObjAddr: 0xD20, symBinAddr: 0xDEB20, symSize: 0xF0 }
  - { offsetInCU: 0x260C, offset: 0x3CEEA8, size: 0x8, addend: 0x0, symName: '__ZN4core3ptr104drop_in_place$LT$syn..punctuated..Punctuated$LT$syn..generics..TypeParamBound$C$syn..token..Plus$GT$$GT$17h8a3e2526f1805111E', symObjAddr: 0xE10, symBinAddr: 0xDEC10, symSize: 0x230 }
  - { offsetInCU: 0x2EEA, offset: 0x3CF786, size: 0x8, addend: 0x0, symName: '__ZN4core3ptr34drop_in_place$LT$syn..lit..Lit$GT$17h909e98f6870548d6E', symObjAddr: 0x1040, symBinAddr: 0xDEE40, symSize: 0x110 }
  - { offsetInCU: 0x33E6, offset: 0x3CFC82, size: 0x8, addend: 0x0, symName: '__ZN4core3ptr34drop_in_place$LT$syn..pat..Pat$GT$17h8fcd4c90be46a62aE', symObjAddr: 0x1150, symBinAddr: 0xDEF50, symSize: 0xEE0 }
  - { offsetInCU: 0x6A16, offset: 0x3D32B2, size: 0x8, addend: 0x0, symName: '__ZN4core3ptr34drop_in_place$LT$syn..ty..Type$GT$17h774a0ab6b4cf283eE', symObjAddr: 0x2030, symBinAddr: 0xDFE30, symSize: 0x5C0 }
  - { offsetInCU: 0x824C, offset: 0x3D4AE8, size: 0x8, addend: 0x0, symName: '__ZN4core3ptr36drop_in_place$LT$syn..expr..Expr$GT$17h7fd8f0d642db296eE', symObjAddr: 0x25F0, symBinAddr: 0xE03F0, symSize: 0x2800 }
  - { offsetInCU: 0x11429, offset: 0x3DDCC5, size: 0x8, addend: 0x0, symName: '__ZN4core3ptr36drop_in_place$LT$syn..mac..Macro$GT$17hc8e4594548e1fb74E', symObjAddr: 0x4DF0, symBinAddr: 0xE2BF0, symSize: 0xE0 }
  - { offsetInCU: 0x1179A, offset: 0x3DE036, size: 0x8, addend: 0x0, symName: '__ZN4core3ptr36drop_in_place$LT$syn..path..Path$GT$17hae91be932b20df1dE', symObjAddr: 0x4ED0, symBinAddr: 0xE2CD0, symSize: 0x220 }
  - { offsetInCU: 0x120CF, offset: 0x3DE96B, size: 0x8, addend: 0x0, symName: '__ZN4core3ptr37drop_in_place$LT$syn..stmt..Block$GT$17hba4e7ddf28617bfdE', symObjAddr: 0x50F0, symBinAddr: 0xE2EF0, symSize: 0xD0 }
  - { offsetInCU: 0x123B1, offset: 0x3DEC4D, size: 0x8, addend: 0x0, symName: '__ZN4core3ptr38drop_in_place$LT$syn..error..Error$GT$17h82a5801562d337b6E', symObjAddr: 0x51C0, symBinAddr: 0xE2FC0, symSize: 0x80 }
  - { offsetInCU: 0x12682, offset: 0x3DEF1E, size: 0x8, addend: 0x0, symName: '__ZN4core3ptr38drop_in_place$LT$syn..expr..Member$GT$17ha7c2806ee150b6f6E', symObjAddr: 0x5240, symBinAddr: 0xE3040, symSize: 0x30 }
  - { offsetInCU: 0x1277F, offset: 0x3DF01B, size: 0x8, addend: 0x0, symName: '__ZN4core3ptr38drop_in_place$LT$syn..ty..TypePath$GT$17hb6ce2d13ffa4ad5bE', symObjAddr: 0x5270, symBinAddr: 0xE3070, symSize: 0x80 }
  - { offsetInCU: 0x128FE, offset: 0x3DF19A, size: 0x8, addend: 0x0, symName: '__ZN4core3ptr39drop_in_place$LT$proc_macro2..Ident$GT$17h8dfea26593c17b61E', symObjAddr: 0x52F0, symBinAddr: 0xE30F0, symSize: 0x30 }
  - { offsetInCU: 0x12B12, offset: 0x3DF3AE, size: 0x8, addend: 0x0, symName: '__ZN4core3ptr39drop_in_place$LT$syn..buffer..Entry$GT$17h50c973355181ef50E', symObjAddr: 0x5320, symBinAddr: 0xE3120, symSize: 0xC0 }
  - { offsetInCU: 0x12E26, offset: 0x3DF6C2, size: 0x8, addend: 0x0, symName: '__ZN4core3ptr40drop_in_place$LT$syn..ty..ReturnType$GT$17h3c2856ff70e83fa7E', symObjAddr: 0x53E0, symBinAddr: 0xE31E0, symSize: 0x50 }
  - { offsetInCU: 0x12F98, offset: 0x3DF834, size: 0x8, addend: 0x0, symName: '__ZN4core3ptr41drop_in_place$LT$syn..expr..ExprConst$GT$17h3f369735cc377020E', symObjAddr: 0x5430, symBinAddr: 0xE3230, symSize: 0x180 }
  - { offsetInCU: 0x134ED, offset: 0x3DFD89, size: 0x8, addend: 0x0, symName: '__ZN4core3ptr44drop_in_place$LT$syn..lifetime..Lifetime$GT$17h263f9508be5fff98E', symObjAddr: 0x55B0, symBinAddr: 0xE33B0, symSize: 0x30 }
  - { offsetInCU: 0x135EA, offset: 0x3DFE86, size: 0x8, addend: 0x0, symName: '__ZN4core3ptr44drop_in_place$LT$syn..parse..ParseBuffer$GT$17h4966adace0fd02f2E', symObjAddr: 0x55E0, symBinAddr: 0xE33E0, symSize: 0x70 }
  - { offsetInCU: 0x13984, offset: 0x3E0220, size: 0x8, addend: 0x0, symName: '__ZN4core3ptr45drop_in_place$LT$proc_macro2..TokenStream$GT$17hcbbbd6ac69a3e46cE', symObjAddr: 0x5650, symBinAddr: 0xE3450, symSize: 0x140 }
  - { offsetInCU: 0x13DB5, offset: 0x3E0651, size: 0x8, addend: 0x0, symName: '__ZN4core3ptr45drop_in_place$LT$syn..buffer..TokenBuffer$GT$17h85f2ef09366c40f0E', symObjAddr: 0x5790, symBinAddr: 0xE3590, symSize: 0xD0 }
  - { offsetInCU: 0x1401B, offset: 0x3E08B7, size: 0x8, addend: 0x0, symName: '__ZN4core3ptr45drop_in_place$LT$syn..generics..TypeParam$GT$17h3f489d24bf2868acE', symObjAddr: 0x5860, symBinAddr: 0xE3660, symSize: 0x230 }
  - { offsetInCU: 0x14817, offset: 0x3E10B3, size: 0x8, addend: 0x0, symName: '__ZN4core3ptr46drop_in_place$LT$syn..generics..ConstParam$GT$17hb82cf1b5639462f6E', symObjAddr: 0x5A90, symBinAddr: 0xE3890, symSize: 0x150 }
  - { offsetInCU: 0x14C41, offset: 0x3E14DD, size: 0x8, addend: 0x0, symName: '__ZN4core3ptr47drop_in_place$LT$syn..path..GenericArgument$GT$17ha4d1e2427b5b79f7E', symObjAddr: 0x5BE0, symBinAddr: 0xE39E0, symSize: 0x460 }
  - { offsetInCU: 0x1594A, offset: 0x3E21E6, size: 0x8, addend: 0x0, symName: '__ZN4core3ptr49drop_in_place$LT$syn..generics..LifetimeParam$GT$17h54e59d96d3078601E', symObjAddr: 0x6040, symBinAddr: 0xE3E40, symSize: 0xF0 }
  - { offsetInCU: 0x15D04, offset: 0x3E25A0, size: 0x8, addend: 0x0, symName: '__ZN4core3ptr50drop_in_place$LT$syn..generics..TypeParamBound$GT$17h3bdcf102e80fe526E', symObjAddr: 0x6130, symBinAddr: 0xE3F30, symSize: 0xA0 }
  - { offsetInCU: 0x15E6B, offset: 0x3E2707, size: 0x8, addend: 0x0, symName: '__ZN4core3ptr58drop_in_place$LT$alloc..vec..Vec$LT$syn..expr..Arm$GT$$GT$17h2816916be2f2c677E', symObjAddr: 0x61D0, symBinAddr: 0xE3FD0, symSize: 0xD0 }
  - { offsetInCU: 0x160F8, offset: 0x3E2994, size: 0x8, addend: 0x0, symName: '__ZN4core3ptr59drop_in_place$LT$alloc..boxed..Box$LT$syn..pat..Pat$GT$$GT$17h97d5257714c9f93cE', symObjAddr: 0x62A0, symBinAddr: 0xE40A0, symSize: 0x50 }
  - { offsetInCU: 0x16253, offset: 0x3E2AEF, size: 0x8, addend: 0x0, symName: '__ZN4core3ptr59drop_in_place$LT$alloc..boxed..Box$LT$syn..ty..Type$GT$$GT$17h54564496a417dc0bE', symObjAddr: 0x62F0, symBinAddr: 0xE40F0, symSize: 0x50 }
  - { offsetInCU: 0x163AE, offset: 0x3E2C4A, size: 0x8, addend: 0x0, symName: '__ZN4core3ptr61drop_in_place$LT$alloc..boxed..Box$LT$syn..expr..Expr$GT$$GT$17hcb812af949707350E', symObjAddr: 0x6340, symBinAddr: 0xE4140, symSize: 0x50 }
  - { offsetInCU: 0x16509, offset: 0x3E2DA5, size: 0x8, addend: 0x0, symName: '__ZN4core3ptr61drop_in_place$LT$syn..path..ParenthesizedGenericArguments$GT$17h2cda518d73cfbc65E', symObjAddr: 0x6390, symBinAddr: 0xE4190, symSize: 0x170 }
  - { offsetInCU: 0x16AE3, offset: 0x3E337F, size: 0x8, addend: 0x0, symName: '__ZN4core3ptr63drop_in_place$LT$alloc..boxed..Box$LT$syn..lit..LitRepr$GT$$GT$17h4f0b7f87f46ca722E', symObjAddr: 0x6500, symBinAddr: 0xE4300, symSize: 0x60 }
  - { offsetInCU: 0x16DD8, offset: 0x3E3674, size: 0x8, addend: 0x0, symName: '__ZN4core3ptr64drop_in_place$LT$alloc..boxed..Box$LT$syn..pat..FieldPat$GT$$GT$17h24cd16a7bd79a0afE', symObjAddr: 0x6560, symBinAddr: 0xE4360, symSize: 0x140 }
  - { offsetInCU: 0x17483, offset: 0x3E3D1F, size: 0x8, addend: 0x0, symName: '__ZN4core3ptr64drop_in_place$LT$alloc..boxed..Box$LT$syn..ty..BareFnArg$GT$$GT$17h8d6c5b973f90cb46E', symObjAddr: 0x66A0, symBinAddr: 0xE44A0, symSize: 0x140 }
  - { offsetInCU: 0x179A7, offset: 0x3E4243, size: 0x8, addend: 0x0, symName: '__ZN4core3ptr65drop_in_place$LT$core..option..Option$LT$syn..expr..Label$GT$$GT$17h49c37bc37ca5807aE', symObjAddr: 0x67E0, symBinAddr: 0xE45E0, symSize: 0x30 }
  - { offsetInCU: 0x17AE2, offset: 0x3E437E, size: 0x8, addend: 0x0, symName: '__ZN4core3ptr66drop_in_place$LT$core..option..Option$LT$syn..pat..PatRest$GT$$GT$17ha0b10c3084c29dd7E', symObjAddr: 0x6810, symBinAddr: 0xE4610, symSize: 0xE0 }
  - { offsetInCU: 0x17D66, offset: 0x3E4602, size: 0x8, addend: 0x0, symName: '__ZN4core3ptr67drop_in_place$LT$alloc..boxed..Box$LT$syn..expr..FieldValue$GT$$GT$17h51140dec2dd742b5E', symObjAddr: 0x68F0, symBinAddr: 0xE46F0, symSize: 0x140 }
  - { offsetInCU: 0x18289, offset: 0x3E4B25, size: 0x8, addend: 0x0, symName: '__ZN4core3ptr70drop_in_place$LT$core..option..Option$LT$syn..ty..BareVariadic$GT$$GT$17h006e7519360f59bbE', symObjAddr: 0x6A30, symBinAddr: 0xE4830, symSize: 0x120 }
  - { offsetInCU: 0x187B6, offset: 0x3E5052, size: 0x8, addend: 0x0, symName: '__ZN4core3ptr72drop_in_place$LT$alloc..boxed..Box$LT$syn..path..GenericArgument$GT$$GT$17h9e43a058d82d49aaE', symObjAddr: 0x6B50, symBinAddr: 0xE4950, symSize: 0x2B0 }
  - { offsetInCU: 0x191A1, offset: 0x3E5A3D, size: 0x8, addend: 0x0, symName: '__ZN4core3ptr72drop_in_place$LT$core..option..Option$LT$syn..lifetime..Lifetime$GT$$GT$17h2cbddfd17a7fb6a0E', symObjAddr: 0x6E00, symBinAddr: 0xE4C00, symSize: 0x30 }
  - { offsetInCU: 0x192BD, offset: 0x3E5B59, size: 0x8, addend: 0x0, symName: '__ZN4core3ptr73drop_in_place$LT$alloc..boxed..Box$LT$syn..generics..GenericParam$GT$$GT$17hdf8f6b3d2d504eeeE', symObjAddr: 0x6E30, symBinAddr: 0xE4C30, symSize: 0x80 }
  - { offsetInCU: 0x19435, offset: 0x3E5CD1, size: 0x8, addend: 0x0, symName: '__ZN4core3ptr75drop_in_place$LT$alloc..boxed..Box$LT$syn..generics..TypeParamBound$GT$$GT$17he16e1f4f3b231893E', symObjAddr: 0x6EB0, symBinAddr: 0xE4CB0, symSize: 0x160 }
  - { offsetInCU: 0x199FB, offset: 0x3E6297, size: 0x8, addend: 0x0, symName: '__ZN4core3ptr86drop_in_place$LT$syn..punctuated..Punctuated$LT$syn..pat..Pat$C$syn..token..Or$GT$$GT$17h449b7e6b5537b210E', symObjAddr: 0x7010, symBinAddr: 0xE4E10, symSize: 0x120 }
  - { offsetInCU: 0x19E41, offset: 0x3E66DD, size: 0x8, addend: 0x0, symName: '__ZN4core3ptr87drop_in_place$LT$core..option..Option$LT$alloc..boxed..Box$LT$syn..pat..Pat$GT$$GT$$GT$17hbff747ffa5f39bd3E', symObjAddr: 0x7130, symBinAddr: 0xE4F30, symSize: 0x50 }
  - { offsetInCU: 0x19FB3, offset: 0x3E684F, size: 0x8, addend: 0x0, symName: '__ZN4core3ptr87drop_in_place$LT$core..option..Option$LT$alloc..boxed..Box$LT$syn..ty..Type$GT$$GT$$GT$17hd404efde6702ff0dE', symObjAddr: 0x7180, symBinAddr: 0xE4F80, symSize: 0x50 }
  - { offsetInCU: 0x1A125, offset: 0x3E69C1, size: 0x8, addend: 0x0, symName: '__ZN4core3ptr89drop_in_place$LT$core..option..Option$LT$alloc..boxed..Box$LT$syn..expr..Expr$GT$$GT$$GT$17h981df8604670027bE', symObjAddr: 0x71D0, symBinAddr: 0xE4FD0, symSize: 0x50 }
  - { offsetInCU: 0x1A2D5, offset: 0x3E6B71, size: 0x8, addend: 0x0, symName: '__ZN4core3ptr89drop_in_place$LT$syn..punctuated..Punctuated$LT$syn..pat..Pat$C$syn..token..Comma$GT$$GT$17h8165fd7eb02b8118E', symObjAddr: 0x7220, symBinAddr: 0xE5020, symSize: 0x120 }
  - { offsetInCU: 0x1A770, offset: 0x3E700C, size: 0x8, addend: 0x0, symName: '__ZN4core3ptr91drop_in_place$LT$syn..punctuated..Punctuated$LT$syn..expr..Expr$C$syn..token..Comma$GT$$GT$17ha27fe7b672ce38bdE', symObjAddr: 0x7340, symBinAddr: 0xE5140, symSize: 0x120 }
  - { offsetInCU: 0x1ABCD, offset: 0x3E7469, size: 0x8, addend: 0x0, symName: '__ZN4core3ptr94drop_in_place$LT$syn..punctuated..Punctuated$LT$syn..pat..FieldPat$C$syn..token..Comma$GT$$GT$17hd9ad3a9ff53c2a49E', symObjAddr: 0x7460, symBinAddr: 0xE5260, symSize: 0xF0 }
  - { offsetInCU: 0x1AE97, offset: 0x3E7733, size: 0x8, addend: 0x0, symName: '__ZN4core3ptr94drop_in_place$LT$syn..punctuated..Punctuated$LT$syn..ty..BareFnArg$C$syn..token..Comma$GT$$GT$17h3ad0ecbb9acc3d94E', symObjAddr: 0x7550, symBinAddr: 0xE5350, symSize: 0xF0 }
  - { offsetInCU: 0x1B161, offset: 0x3E79FD, size: 0x8, addend: 0x0, symName: '__ZN4core3ptr96drop_in_place$LT$core..option..Option$LT$alloc..boxed..Box$LT$syn..path..PathSegment$GT$$GT$$GT$17h15008b031e78f545E', symObjAddr: 0x7640, symBinAddr: 0xE5440, symSize: 0x180 }
  - { offsetInCU: 0x1B7F2, offset: 0x3E808E, size: 0x8, addend: 0x0, symName: '__ZN4core3ptr97drop_in_place$LT$syn..punctuated..Punctuated$LT$syn..expr..FieldValue$C$syn..token..Comma$GT$$GT$17h7dd72fd62fffe077E', symObjAddr: 0x77C0, symBinAddr: 0xE55C0, symSize: 0xF0 }
  - { offsetInCU: 0x1BB38, offset: 0x3E83D4, size: 0x8, addend: 0x0, symName: '__ZN4core3ptr98drop_in_place$LT$syn..punctuated..Punctuated$LT$syn..lifetime..Lifetime$C$syn..token..Plus$GT$$GT$17haf6d03c18957eb1aE', symObjAddr: 0x78B0, symBinAddr: 0xE56B0, symSize: 0xB1 }
  - { offsetInCU: 0x22BD3, offset: 0x3EF46F, size: 0x8, addend: 0x0, symName: __ZN3syn11parse_quote5parse17h925dac373c4106c4E, symObjAddr: 0x0, symBinAddr: 0xDDE50, symSize: 0x500 }
  - { offsetInCU: 0x23638, offset: 0x3EFED4, size: 0x8, addend: 0x0, symName: __ZN3syn11parse_quote5parse17hd3f080ff8e5fe3a8E, symObjAddr: 0x500, symBinAddr: 0xDE350, symSize: 0x640 }
  - { offsetInCU: 0x24394, offset: 0x3F0C30, size: 0x8, addend: 0x0, symName: __ZN3syn11parse_quote5parse18panic_cold_display17hdbab6f0d6f8905d2E, symObjAddr: 0xB40, symBinAddr: 0x2BE960, symSize: 0x50 }
  - { offsetInCU: 0x1E, offset: 0x3F625A, size: 0x8, addend: 0x0, symName: '__ZN4core3ptr100drop_in_place$LT$core..option..Option$LT$alloc..boxed..Box$LT$syn..path..GenericArgument$GT$$GT$$GT$17h91f76f7535c0ef94E', symObjAddr: 0x0, symBinAddr: 0xE5770, symSize: 0x50 }
  - { offsetInCU: 0x18D9, offset: 0x3F7B15, size: 0x8, addend: 0x0, symName: '__ZN4core3ptr100drop_in_place$LT$core..option..Option$LT$alloc..boxed..Box$LT$syn..path..GenericArgument$GT$$GT$$GT$17h91f76f7535c0ef94E', symObjAddr: 0x0, symBinAddr: 0xE5770, symSize: 0x50 }
  - { offsetInCU: 0x1AA8, offset: 0x3F7CE4, size: 0x8, addend: 0x0, symName: '__ZN4core3ptr102drop_in_place$LT$syn..punctuated..Punctuated$LT$syn..path..GenericArgument$C$syn..token..Comma$GT$$GT$17h7deada5365120e66E', symObjAddr: 0x50, symBinAddr: 0xE57C0, symSize: 0xF0 }
  - { offsetInCU: 0x1D91, offset: 0x3F7FCD, size: 0x8, addend: 0x0, symName: '__ZN4core3ptr103drop_in_place$LT$core..option..Option$LT$alloc..boxed..Box$LT$syn..generics..TypeParamBound$GT$$GT$$GT$17h044206982686810cE', symObjAddr: 0x140, symBinAddr: 0xE58B0, symSize: 0x50 }
  - { offsetInCU: 0x1F9E, offset: 0x3F81DA, size: 0x8, addend: 0x0, symName: '__ZN4core3ptr103drop_in_place$LT$syn..punctuated..Punctuated$LT$syn..generics..GenericParam$C$syn..token..Comma$GT$$GT$17h28897b64a12579c2E', symObjAddr: 0x190, symBinAddr: 0xE5900, symSize: 0xF0 }
  - { offsetInCU: 0x253A, offset: 0x3F8776, size: 0x8, addend: 0x0, symName: '__ZN4core3ptr104drop_in_place$LT$syn..punctuated..Punctuated$LT$syn..generics..TypeParamBound$C$syn..token..Plus$GT$$GT$17h8a3e2526f1805111E', symObjAddr: 0x280, symBinAddr: 0xE59F0, symSize: 0x230 }
  - { offsetInCU: 0x2E18, offset: 0x3F9054, size: 0x8, addend: 0x0, symName: '__ZN4core3ptr34drop_in_place$LT$syn..lit..Lit$GT$17h909e98f6870548d6E', symObjAddr: 0x4B0, symBinAddr: 0xE5C20, symSize: 0x110 }
  - { offsetInCU: 0x3371, offset: 0x3F95AD, size: 0x8, addend: 0x0, symName: '__ZN4core3ptr34drop_in_place$LT$syn..pat..Pat$GT$17h8fcd4c90be46a62aE', symObjAddr: 0x5C0, symBinAddr: 0xE5D30, symSize: 0xEE0 }
  - { offsetInCU: 0x69C0, offset: 0x3FCBFC, size: 0x8, addend: 0x0, symName: '__ZN4core3ptr34drop_in_place$LT$syn..ty..Type$GT$17h774a0ab6b4cf283eE', symObjAddr: 0x14A0, symBinAddr: 0xE6C10, symSize: 0x5C0 }
  - { offsetInCU: 0x81F6, offset: 0x3FE432, size: 0x8, addend: 0x0, symName: '__ZN4core3ptr36drop_in_place$LT$syn..expr..Expr$GT$17h7fd8f0d642db296eE', symObjAddr: 0x1A60, symBinAddr: 0xE71D0, symSize: 0x2800 }
  - { offsetInCU: 0x113D3, offset: 0x40760F, size: 0x8, addend: 0x0, symName: '__ZN4core3ptr36drop_in_place$LT$syn..mac..Macro$GT$17hc8e4594548e1fb74E', symObjAddr: 0x4260, symBinAddr: 0xE99D0, symSize: 0xE0 }
  - { offsetInCU: 0x11744, offset: 0x407980, size: 0x8, addend: 0x0, symName: '__ZN4core3ptr36drop_in_place$LT$syn..path..Path$GT$17hae91be932b20df1dE.llvm.618078367026974305', symObjAddr: 0x4340, symBinAddr: 0xE9AB0, symSize: 0x220 }
  - { offsetInCU: 0x12079, offset: 0x4082B5, size: 0x8, addend: 0x0, symName: '__ZN4core3ptr37drop_in_place$LT$syn..stmt..Block$GT$17hba4e7ddf28617bfdE', symObjAddr: 0x4560, symBinAddr: 0xE9CD0, symSize: 0xD0 }
  - { offsetInCU: 0x1231D, offset: 0x408559, size: 0x8, addend: 0x0, symName: '__ZN4core3ptr38drop_in_place$LT$syn..expr..Member$GT$17ha7c2806ee150b6f6E', symObjAddr: 0x4630, symBinAddr: 0xE9DA0, symSize: 0x30 }
  - { offsetInCU: 0x1241A, offset: 0x408656, size: 0x8, addend: 0x0, symName: '__ZN4core3ptr39drop_in_place$LT$proc_macro2..Ident$GT$17h8dfea26593c17b61E', symObjAddr: 0x4660, symBinAddr: 0xE9DD0, symSize: 0x30 }
  - { offsetInCU: 0x124F8, offset: 0x408734, size: 0x8, addend: 0x0, symName: '__ZN4core3ptr40drop_in_place$LT$syn..ty..ReturnType$GT$17h3c2856ff70e83fa7E', symObjAddr: 0x4690, symBinAddr: 0xE9E00, symSize: 0x50 }
  - { offsetInCU: 0x1266A, offset: 0x4088A6, size: 0x8, addend: 0x0, symName: '__ZN4core3ptr41drop_in_place$LT$syn..expr..ExprConst$GT$17h3f369735cc377020E', symObjAddr: 0x46E0, symBinAddr: 0xE9E50, symSize: 0x180 }
  - { offsetInCU: 0x12BBF, offset: 0x408DFB, size: 0x8, addend: 0x0, symName: '__ZN4core3ptr44drop_in_place$LT$syn..lifetime..Lifetime$GT$17h263f9508be5fff98E', symObjAddr: 0x4860, symBinAddr: 0xE9FD0, symSize: 0x30 }
  - { offsetInCU: 0x12DF2, offset: 0x40902E, size: 0x8, addend: 0x0, symName: '__ZN4core3ptr45drop_in_place$LT$proc_macro2..TokenStream$GT$17hcbbbd6ac69a3e46cE', symObjAddr: 0x4890, symBinAddr: 0xEA000, symSize: 0x140 }
  - { offsetInCU: 0x13261, offset: 0x40949D, size: 0x8, addend: 0x0, symName: '__ZN4core3ptr45drop_in_place$LT$syn..generics..TypeParam$GT$17h3f489d24bf2868acE', symObjAddr: 0x49D0, symBinAddr: 0xEA140, symSize: 0x230 }
  - { offsetInCU: 0x13A5D, offset: 0x409C99, size: 0x8, addend: 0x0, symName: '__ZN4core3ptr46drop_in_place$LT$syn..generics..ConstParam$GT$17hb82cf1b5639462f6E', symObjAddr: 0x4C00, symBinAddr: 0xEA370, symSize: 0x150 }
  - { offsetInCU: 0x13E87, offset: 0x40A0C3, size: 0x8, addend: 0x0, symName: '__ZN4core3ptr47drop_in_place$LT$syn..path..GenericArgument$GT$17ha4d1e2427b5b79f7E', symObjAddr: 0x4D50, symBinAddr: 0xEA4C0, symSize: 0x460 }
  - { offsetInCU: 0x14B90, offset: 0x40ADCC, size: 0x8, addend: 0x0, symName: '__ZN4core3ptr49drop_in_place$LT$syn..generics..LifetimeParam$GT$17h54e59d96d3078601E', symObjAddr: 0x51B0, symBinAddr: 0xEA920, symSize: 0xF0 }
  - { offsetInCU: 0x14F4A, offset: 0x40B186, size: 0x8, addend: 0x0, symName: '__ZN4core3ptr50drop_in_place$LT$syn..generics..TypeParamBound$GT$17h3bdcf102e80fe526E', symObjAddr: 0x52A0, symBinAddr: 0xEAA10, symSize: 0xA0 }
  - { offsetInCU: 0x150B1, offset: 0x40B2ED, size: 0x8, addend: 0x0, symName: '__ZN4core3ptr58drop_in_place$LT$alloc..vec..Vec$LT$syn..expr..Arm$GT$$GT$17h2816916be2f2c677E', symObjAddr: 0x5340, symBinAddr: 0xEAAB0, symSize: 0xD0 }
  - { offsetInCU: 0x1533E, offset: 0x40B57A, size: 0x8, addend: 0x0, symName: '__ZN4core3ptr59drop_in_place$LT$alloc..boxed..Box$LT$syn..pat..Pat$GT$$GT$17h97d5257714c9f93cE', symObjAddr: 0x5410, symBinAddr: 0xEAB80, symSize: 0x50 }
  - { offsetInCU: 0x15499, offset: 0x40B6D5, size: 0x8, addend: 0x0, symName: '__ZN4core3ptr59drop_in_place$LT$alloc..boxed..Box$LT$syn..ty..Type$GT$$GT$17h54564496a417dc0bE', symObjAddr: 0x5460, symBinAddr: 0xEABD0, symSize: 0x50 }
  - { offsetInCU: 0x155F4, offset: 0x40B830, size: 0x8, addend: 0x0, symName: '__ZN4core3ptr61drop_in_place$LT$alloc..boxed..Box$LT$syn..expr..Expr$GT$$GT$17hcb812af949707350E', symObjAddr: 0x54B0, symBinAddr: 0xEAC20, symSize: 0x50 }
  - { offsetInCU: 0x1574F, offset: 0x40B98B, size: 0x8, addend: 0x0, symName: '__ZN4core3ptr61drop_in_place$LT$syn..path..ParenthesizedGenericArguments$GT$17h2cda518d73cfbc65E', symObjAddr: 0x5500, symBinAddr: 0xEAC70, symSize: 0x170 }
  - { offsetInCU: 0x15D29, offset: 0x40BF65, size: 0x8, addend: 0x0, symName: '__ZN4core3ptr63drop_in_place$LT$alloc..boxed..Box$LT$syn..lit..LitRepr$GT$$GT$17h4f0b7f87f46ca722E', symObjAddr: 0x5670, symBinAddr: 0xEADE0, symSize: 0x60 }
  - { offsetInCU: 0x1601E, offset: 0x40C25A, size: 0x8, addend: 0x0, symName: '__ZN4core3ptr64drop_in_place$LT$alloc..boxed..Box$LT$syn..pat..FieldPat$GT$$GT$17h24cd16a7bd79a0afE', symObjAddr: 0x56D0, symBinAddr: 0xEAE40, symSize: 0x140 }
  - { offsetInCU: 0x166C9, offset: 0x40C905, size: 0x8, addend: 0x0, symName: '__ZN4core3ptr64drop_in_place$LT$alloc..boxed..Box$LT$syn..ty..BareFnArg$GT$$GT$17h8d6c5b973f90cb46E', symObjAddr: 0x5810, symBinAddr: 0xEAF80, symSize: 0x140 }
  - { offsetInCU: 0x16BED, offset: 0x40CE29, size: 0x8, addend: 0x0, symName: '__ZN4core3ptr65drop_in_place$LT$core..option..Option$LT$syn..expr..Label$GT$$GT$17h49c37bc37ca5807aE', symObjAddr: 0x5950, symBinAddr: 0xEB0C0, symSize: 0x30 }
  - { offsetInCU: 0x16D28, offset: 0x40CF64, size: 0x8, addend: 0x0, symName: '__ZN4core3ptr66drop_in_place$LT$core..option..Option$LT$syn..pat..PatRest$GT$$GT$17ha0b10c3084c29dd7E', symObjAddr: 0x5980, symBinAddr: 0xEB0F0, symSize: 0xE0 }
  - { offsetInCU: 0x16FAC, offset: 0x40D1E8, size: 0x8, addend: 0x0, symName: '__ZN4core3ptr67drop_in_place$LT$alloc..boxed..Box$LT$syn..expr..FieldValue$GT$$GT$17h51140dec2dd742b5E', symObjAddr: 0x5A60, symBinAddr: 0xEB1D0, symSize: 0x140 }
  - { offsetInCU: 0x174CF, offset: 0x40D70B, size: 0x8, addend: 0x0, symName: '__ZN4core3ptr70drop_in_place$LT$core..option..Option$LT$syn..ty..BareVariadic$GT$$GT$17h006e7519360f59bbE', symObjAddr: 0x5BA0, symBinAddr: 0xEB310, symSize: 0x120 }
  - { offsetInCU: 0x179FC, offset: 0x40DC38, size: 0x8, addend: 0x0, symName: '__ZN4core3ptr72drop_in_place$LT$alloc..boxed..Box$LT$syn..path..GenericArgument$GT$$GT$17h9e43a058d82d49aaE', symObjAddr: 0x5CC0, symBinAddr: 0xEB430, symSize: 0x2B0 }
  - { offsetInCU: 0x183E7, offset: 0x40E623, size: 0x8, addend: 0x0, symName: '__ZN4core3ptr72drop_in_place$LT$core..option..Option$LT$syn..lifetime..Lifetime$GT$$GT$17h2cbddfd17a7fb6a0E', symObjAddr: 0x5F70, symBinAddr: 0xEB6E0, symSize: 0x30 }
  - { offsetInCU: 0x18503, offset: 0x40E73F, size: 0x8, addend: 0x0, symName: '__ZN4core3ptr73drop_in_place$LT$alloc..boxed..Box$LT$syn..generics..GenericParam$GT$$GT$17hdf8f6b3d2d504eeeE', symObjAddr: 0x5FA0, symBinAddr: 0xEB710, symSize: 0x80 }
  - { offsetInCU: 0x1867B, offset: 0x40E8B7, size: 0x8, addend: 0x0, symName: '__ZN4core3ptr75drop_in_place$LT$alloc..boxed..Box$LT$syn..generics..TypeParamBound$GT$$GT$17he16e1f4f3b231893E', symObjAddr: 0x6020, symBinAddr: 0xEB790, symSize: 0x160 }
  - { offsetInCU: 0x18C60, offset: 0x40EE9C, size: 0x8, addend: 0x0, symName: '__ZN4core3ptr86drop_in_place$LT$syn..punctuated..Punctuated$LT$syn..pat..Pat$C$syn..token..Or$GT$$GT$17h449b7e6b5537b210E', symObjAddr: 0x61B0, symBinAddr: 0xEB8F0, symSize: 0x120 }
  - { offsetInCU: 0x190A6, offset: 0x40F2E2, size: 0x8, addend: 0x0, symName: '__ZN4core3ptr87drop_in_place$LT$core..option..Option$LT$alloc..boxed..Box$LT$syn..pat..Pat$GT$$GT$$GT$17hbff747ffa5f39bd3E', symObjAddr: 0x62D0, symBinAddr: 0xEBA10, symSize: 0x50 }
  - { offsetInCU: 0x19218, offset: 0x40F454, size: 0x8, addend: 0x0, symName: '__ZN4core3ptr87drop_in_place$LT$core..option..Option$LT$alloc..boxed..Box$LT$syn..ty..Type$GT$$GT$$GT$17hd404efde6702ff0dE', symObjAddr: 0x6320, symBinAddr: 0xEBA60, symSize: 0x50 }
  - { offsetInCU: 0x1938A, offset: 0x40F5C6, size: 0x8, addend: 0x0, symName: '__ZN4core3ptr89drop_in_place$LT$core..option..Option$LT$alloc..boxed..Box$LT$syn..expr..Expr$GT$$GT$$GT$17h981df8604670027bE', symObjAddr: 0x6370, symBinAddr: 0xEBAB0, symSize: 0x50 }
  - { offsetInCU: 0x1953A, offset: 0x40F776, size: 0x8, addend: 0x0, symName: '__ZN4core3ptr89drop_in_place$LT$syn..punctuated..Punctuated$LT$syn..pat..Pat$C$syn..token..Comma$GT$$GT$17h8165fd7eb02b8118E', symObjAddr: 0x63C0, symBinAddr: 0xEBB00, symSize: 0x120 }
  - { offsetInCU: 0x199D5, offset: 0x40FC11, size: 0x8, addend: 0x0, symName: '__ZN4core3ptr91drop_in_place$LT$syn..punctuated..Punctuated$LT$syn..expr..Expr$C$syn..token..Comma$GT$$GT$17ha27fe7b672ce38bdE', symObjAddr: 0x64E0, symBinAddr: 0xEBC20, symSize: 0x120 }
  - { offsetInCU: 0x19E32, offset: 0x41006E, size: 0x8, addend: 0x0, symName: '__ZN4core3ptr94drop_in_place$LT$syn..punctuated..Punctuated$LT$syn..pat..FieldPat$C$syn..token..Comma$GT$$GT$17hd9ad3a9ff53c2a49E', symObjAddr: 0x6600, symBinAddr: 0xEBD40, symSize: 0xF0 }
  - { offsetInCU: 0x1A0FC, offset: 0x410338, size: 0x8, addend: 0x0, symName: '__ZN4core3ptr94drop_in_place$LT$syn..punctuated..Punctuated$LT$syn..ty..BareFnArg$C$syn..token..Comma$GT$$GT$17h3ad0ecbb9acc3d94E', symObjAddr: 0x66F0, symBinAddr: 0xEBE30, symSize: 0xF0 }
  - { offsetInCU: 0x1A3C6, offset: 0x410602, size: 0x8, addend: 0x0, symName: '__ZN4core3ptr96drop_in_place$LT$core..option..Option$LT$alloc..boxed..Box$LT$syn..path..PathSegment$GT$$GT$$GT$17h15008b031e78f545E', symObjAddr: 0x67E0, symBinAddr: 0xEBF20, symSize: 0x180 }
  - { offsetInCU: 0x1AA57, offset: 0x410C93, size: 0x8, addend: 0x0, symName: '__ZN4core3ptr97drop_in_place$LT$syn..punctuated..Punctuated$LT$syn..expr..FieldValue$C$syn..token..Comma$GT$$GT$17h7dd72fd62fffe077E', symObjAddr: 0x6960, symBinAddr: 0xEC0A0, symSize: 0xF0 }
  - { offsetInCU: 0x1AD9D, offset: 0x410FD9, size: 0x8, addend: 0x0, symName: '__ZN4core3ptr98drop_in_place$LT$syn..punctuated..Punctuated$LT$syn..lifetime..Lifetime$C$syn..token..Plus$GT$$GT$17haf6d03c18957eb1aE', symObjAddr: 0x6A50, symBinAddr: 0xEC190, symSize: 0xC0 }
  - { offsetInCU: 0x1DBC1, offset: 0x413DFD, size: 0x8, addend: 0x0, symName: __ZN12serde_derive4this9this_type17hb9be9484e3c99ad4E, symObjAddr: 0x6B10, symBinAddr: 0xEC250, symSize: 0x210 }
  - { offsetInCU: 0x1E137, offset: 0x414373, size: 0x8, addend: 0x0, symName: __ZN12serde_derive4this10this_value17h37b18a269ce87264E, symObjAddr: 0x6D20, symBinAddr: 0xEC460, symSize: 0x224 }
  - { offsetInCU: 0x149F, offset: 0x41F747, size: 0x8, addend: 0x0, symName: '__ZN4core3ptr100drop_in_place$LT$core..option..Option$LT$alloc..boxed..Box$LT$syn..path..GenericArgument$GT$$GT$$GT$17h91f76f7535c0ef94E', symObjAddr: 0xA0, symBinAddr: 0xEC690, symSize: 0x50 }
  - { offsetInCU: 0x166E, offset: 0x41F916, size: 0x8, addend: 0x0, symName: '__ZN4core3ptr102drop_in_place$LT$syn..punctuated..Punctuated$LT$syn..path..GenericArgument$C$syn..token..Comma$GT$$GT$17h7deada5365120e66E', symObjAddr: 0xF0, symBinAddr: 0xEC6E0, symSize: 0xF0 }
  - { offsetInCU: 0x1957, offset: 0x41FBFF, size: 0x8, addend: 0x0, symName: '__ZN4core3ptr103drop_in_place$LT$core..option..Option$LT$alloc..boxed..Box$LT$syn..generics..TypeParamBound$GT$$GT$$GT$17h044206982686810cE', symObjAddr: 0x1E0, symBinAddr: 0xEC7D0, symSize: 0x50 }
  - { offsetInCU: 0x1B64, offset: 0x41FE0C, size: 0x8, addend: 0x0, symName: '__ZN4core3ptr103drop_in_place$LT$syn..punctuated..Punctuated$LT$syn..generics..GenericParam$C$syn..token..Comma$GT$$GT$17h28897b64a12579c2E', symObjAddr: 0x230, symBinAddr: 0xEC820, symSize: 0xF0 }
  - { offsetInCU: 0x2100, offset: 0x4203A8, size: 0x8, addend: 0x0, symName: '__ZN4core3ptr104drop_in_place$LT$syn..punctuated..Punctuated$LT$syn..generics..TypeParamBound$C$syn..token..Plus$GT$$GT$17h8a3e2526f1805111E', symObjAddr: 0x320, symBinAddr: 0xEC910, symSize: 0x230 }
  - { offsetInCU: 0x29DE, offset: 0x420C86, size: 0x8, addend: 0x0, symName: '__ZN4core3ptr34drop_in_place$LT$syn..lit..Lit$GT$17h909e98f6870548d6E', symObjAddr: 0x550, symBinAddr: 0xECB40, symSize: 0x110 }
  - { offsetInCU: 0x2F37, offset: 0x4211DF, size: 0x8, addend: 0x0, symName: '__ZN4core3ptr34drop_in_place$LT$syn..pat..Pat$GT$17h8fcd4c90be46a62aE', symObjAddr: 0x660, symBinAddr: 0xECC50, symSize: 0xEE0 }
  - { offsetInCU: 0x6586, offset: 0x42482E, size: 0x8, addend: 0x0, symName: '__ZN4core3ptr34drop_in_place$LT$syn..ty..Type$GT$17h774a0ab6b4cf283eE', symObjAddr: 0x1540, symBinAddr: 0xEDB30, symSize: 0x5C0 }
  - { offsetInCU: 0x7DBC, offset: 0x426064, size: 0x8, addend: 0x0, symName: '__ZN4core3ptr36drop_in_place$LT$syn..expr..Expr$GT$17h7fd8f0d642db296eE', symObjAddr: 0x1B00, symBinAddr: 0xEE0F0, symSize: 0x2800 }
  - { offsetInCU: 0x10F99, offset: 0x42F241, size: 0x8, addend: 0x0, symName: '__ZN4core3ptr36drop_in_place$LT$syn..mac..Macro$GT$17hc8e4594548e1fb74E', symObjAddr: 0x4300, symBinAddr: 0xF08F0, symSize: 0xE0 }
  - { offsetInCU: 0x1130A, offset: 0x42F5B2, size: 0x8, addend: 0x0, symName: '__ZN4core3ptr36drop_in_place$LT$syn..path..Path$GT$17hae91be932b20df1dE.llvm.15309288556898697666', symObjAddr: 0x43E0, symBinAddr: 0xF09D0, symSize: 0x220 }
  - { offsetInCU: 0x11C3F, offset: 0x42FEE7, size: 0x8, addend: 0x0, symName: '__ZN4core3ptr37drop_in_place$LT$syn..stmt..Block$GT$17hba4e7ddf28617bfdE', symObjAddr: 0x4600, symBinAddr: 0xF0BF0, symSize: 0xD0 }
  - { offsetInCU: 0x11EE3, offset: 0x43018B, size: 0x8, addend: 0x0, symName: '__ZN4core3ptr38drop_in_place$LT$syn..expr..Member$GT$17ha7c2806ee150b6f6E', symObjAddr: 0x46D0, symBinAddr: 0xF0CC0, symSize: 0x30 }
  - { offsetInCU: 0x11FE0, offset: 0x430288, size: 0x8, addend: 0x0, symName: '__ZN4core3ptr39drop_in_place$LT$proc_macro2..Ident$GT$17h8dfea26593c17b61E', symObjAddr: 0x4700, symBinAddr: 0xF0CF0, symSize: 0x30 }
  - { offsetInCU: 0x120BE, offset: 0x430366, size: 0x8, addend: 0x0, symName: '__ZN4core3ptr40drop_in_place$LT$syn..ty..ReturnType$GT$17h3c2856ff70e83fa7E', symObjAddr: 0x4730, symBinAddr: 0xF0D20, symSize: 0x50 }
  - { offsetInCU: 0x12230, offset: 0x4304D8, size: 0x8, addend: 0x0, symName: '__ZN4core3ptr41drop_in_place$LT$syn..expr..ExprConst$GT$17h3f369735cc377020E', symObjAddr: 0x4780, symBinAddr: 0xF0D70, symSize: 0x180 }
  - { offsetInCU: 0x12785, offset: 0x430A2D, size: 0x8, addend: 0x0, symName: '__ZN4core3ptr44drop_in_place$LT$syn..lifetime..Lifetime$GT$17h263f9508be5fff98E', symObjAddr: 0x4900, symBinAddr: 0xF0EF0, symSize: 0x30 }
  - { offsetInCU: 0x129B8, offset: 0x430C60, size: 0x8, addend: 0x0, symName: '__ZN4core3ptr45drop_in_place$LT$proc_macro2..TokenStream$GT$17hcbbbd6ac69a3e46cE.llvm.15309288556898697666', symObjAddr: 0x4930, symBinAddr: 0xF0F20, symSize: 0x140 }
  - { offsetInCU: 0x12E27, offset: 0x4310CF, size: 0x8, addend: 0x0, symName: '__ZN4core3ptr45drop_in_place$LT$syn..generics..TypeParam$GT$17h3f489d24bf2868acE', symObjAddr: 0x4A70, symBinAddr: 0xF1060, symSize: 0x230 }
  - { offsetInCU: 0x13623, offset: 0x4318CB, size: 0x8, addend: 0x0, symName: '__ZN4core3ptr46drop_in_place$LT$syn..generics..ConstParam$GT$17hb82cf1b5639462f6E', symObjAddr: 0x4CA0, symBinAddr: 0xF1290, symSize: 0x150 }
  - { offsetInCU: 0x13A4D, offset: 0x431CF5, size: 0x8, addend: 0x0, symName: '__ZN4core3ptr47drop_in_place$LT$syn..path..GenericArgument$GT$17ha4d1e2427b5b79f7E', symObjAddr: 0x4DF0, symBinAddr: 0xF13E0, symSize: 0x460 }
  - { offsetInCU: 0x14756, offset: 0x4329FE, size: 0x8, addend: 0x0, symName: '__ZN4core3ptr49drop_in_place$LT$syn..generics..LifetimeParam$GT$17h54e59d96d3078601E', symObjAddr: 0x5250, symBinAddr: 0xF1840, symSize: 0xF0 }
  - { offsetInCU: 0x14B10, offset: 0x432DB8, size: 0x8, addend: 0x0, symName: '__ZN4core3ptr50drop_in_place$LT$syn..generics..TypeParamBound$GT$17h3bdcf102e80fe526E', symObjAddr: 0x5340, symBinAddr: 0xF1930, symSize: 0xA0 }
  - { offsetInCU: 0x14C77, offset: 0x432F1F, size: 0x8, addend: 0x0, symName: '__ZN4core3ptr58drop_in_place$LT$alloc..vec..Vec$LT$syn..expr..Arm$GT$$GT$17h2816916be2f2c677E', symObjAddr: 0x53E0, symBinAddr: 0xF19D0, symSize: 0xD0 }
  - { offsetInCU: 0x14F04, offset: 0x4331AC, size: 0x8, addend: 0x0, symName: '__ZN4core3ptr59drop_in_place$LT$alloc..boxed..Box$LT$syn..pat..Pat$GT$$GT$17h97d5257714c9f93cE', symObjAddr: 0x54B0, symBinAddr: 0xF1AA0, symSize: 0x50 }
  - { offsetInCU: 0x1505F, offset: 0x433307, size: 0x8, addend: 0x0, symName: '__ZN4core3ptr59drop_in_place$LT$alloc..boxed..Box$LT$syn..ty..Type$GT$$GT$17h54564496a417dc0bE', symObjAddr: 0x5500, symBinAddr: 0xF1AF0, symSize: 0x50 }
  - { offsetInCU: 0x151BA, offset: 0x433462, size: 0x8, addend: 0x0, symName: '__ZN4core3ptr61drop_in_place$LT$alloc..boxed..Box$LT$syn..expr..Expr$GT$$GT$17hcb812af949707350E', symObjAddr: 0x5550, symBinAddr: 0xF1B40, symSize: 0x50 }
  - { offsetInCU: 0x15315, offset: 0x4335BD, size: 0x8, addend: 0x0, symName: '__ZN4core3ptr61drop_in_place$LT$syn..path..ParenthesizedGenericArguments$GT$17h2cda518d73cfbc65E', symObjAddr: 0x55A0, symBinAddr: 0xF1B90, symSize: 0x170 }
  - { offsetInCU: 0x158EF, offset: 0x433B97, size: 0x8, addend: 0x0, symName: '__ZN4core3ptr63drop_in_place$LT$alloc..boxed..Box$LT$syn..lit..LitRepr$GT$$GT$17h4f0b7f87f46ca722E', symObjAddr: 0x5710, symBinAddr: 0xF1D00, symSize: 0x60 }
  - { offsetInCU: 0x15BE4, offset: 0x433E8C, size: 0x8, addend: 0x0, symName: '__ZN4core3ptr64drop_in_place$LT$alloc..boxed..Box$LT$syn..pat..FieldPat$GT$$GT$17h24cd16a7bd79a0afE', symObjAddr: 0x5770, symBinAddr: 0xF1D60, symSize: 0x140 }
  - { offsetInCU: 0x1628F, offset: 0x434537, size: 0x8, addend: 0x0, symName: '__ZN4core3ptr64drop_in_place$LT$alloc..boxed..Box$LT$syn..ty..BareFnArg$GT$$GT$17h8d6c5b973f90cb46E', symObjAddr: 0x58B0, symBinAddr: 0xF1EA0, symSize: 0x140 }
  - { offsetInCU: 0x167B3, offset: 0x434A5B, size: 0x8, addend: 0x0, symName: '__ZN4core3ptr65drop_in_place$LT$core..option..Option$LT$syn..expr..Label$GT$$GT$17h49c37bc37ca5807aE', symObjAddr: 0x59F0, symBinAddr: 0xF1FE0, symSize: 0x30 }
  - { offsetInCU: 0x168EE, offset: 0x434B96, size: 0x8, addend: 0x0, symName: '__ZN4core3ptr66drop_in_place$LT$core..option..Option$LT$syn..pat..PatRest$GT$$GT$17ha0b10c3084c29dd7E', symObjAddr: 0x5A20, symBinAddr: 0xF2010, symSize: 0xE0 }
  - { offsetInCU: 0x16B72, offset: 0x434E1A, size: 0x8, addend: 0x0, symName: '__ZN4core3ptr67drop_in_place$LT$alloc..boxed..Box$LT$syn..expr..FieldValue$GT$$GT$17h51140dec2dd742b5E', symObjAddr: 0x5B00, symBinAddr: 0xF20F0, symSize: 0x140 }
  - { offsetInCU: 0x17095, offset: 0x43533D, size: 0x8, addend: 0x0, symName: '__ZN4core3ptr70drop_in_place$LT$core..option..Option$LT$syn..ty..BareVariadic$GT$$GT$17h006e7519360f59bbE', symObjAddr: 0x5C40, symBinAddr: 0xF2230, symSize: 0x120 }
  - { offsetInCU: 0x175C2, offset: 0x43586A, size: 0x8, addend: 0x0, symName: '__ZN4core3ptr72drop_in_place$LT$alloc..boxed..Box$LT$syn..path..GenericArgument$GT$$GT$17h9e43a058d82d49aaE', symObjAddr: 0x5D60, symBinAddr: 0xF2350, symSize: 0x2B0 }
  - { offsetInCU: 0x17FAD, offset: 0x436255, size: 0x8, addend: 0x0, symName: '__ZN4core3ptr72drop_in_place$LT$core..option..Option$LT$syn..lifetime..Lifetime$GT$$GT$17h2cbddfd17a7fb6a0E', symObjAddr: 0x6010, symBinAddr: 0xF2600, symSize: 0x30 }
  - { offsetInCU: 0x180C9, offset: 0x436371, size: 0x8, addend: 0x0, symName: '__ZN4core3ptr73drop_in_place$LT$alloc..boxed..Box$LT$syn..generics..GenericParam$GT$$GT$17hdf8f6b3d2d504eeeE', symObjAddr: 0x6040, symBinAddr: 0xF2630, symSize: 0x80 }
  - { offsetInCU: 0x18241, offset: 0x4364E9, size: 0x8, addend: 0x0, symName: '__ZN4core3ptr75drop_in_place$LT$alloc..boxed..Box$LT$syn..generics..TypeParamBound$GT$$GT$17he16e1f4f3b231893E', symObjAddr: 0x60C0, symBinAddr: 0xF26B0, symSize: 0x160 }
  - { offsetInCU: 0x18807, offset: 0x436AAF, size: 0x8, addend: 0x0, symName: '__ZN4core3ptr86drop_in_place$LT$syn..punctuated..Punctuated$LT$syn..pat..Pat$C$syn..token..Or$GT$$GT$17h449b7e6b5537b210E', symObjAddr: 0x6220, symBinAddr: 0xF2810, symSize: 0x120 }
  - { offsetInCU: 0x18C4D, offset: 0x436EF5, size: 0x8, addend: 0x0, symName: '__ZN4core3ptr87drop_in_place$LT$core..option..Option$LT$alloc..boxed..Box$LT$syn..pat..Pat$GT$$GT$$GT$17hbff747ffa5f39bd3E', symObjAddr: 0x6340, symBinAddr: 0xF2930, symSize: 0x50 }
  - { offsetInCU: 0x18DBF, offset: 0x437067, size: 0x8, addend: 0x0, symName: '__ZN4core3ptr87drop_in_place$LT$core..option..Option$LT$alloc..boxed..Box$LT$syn..ty..Type$GT$$GT$$GT$17hd404efde6702ff0dE', symObjAddr: 0x6390, symBinAddr: 0xF2980, symSize: 0x50 }
  - { offsetInCU: 0x18F31, offset: 0x4371D9, size: 0x8, addend: 0x0, symName: '__ZN4core3ptr89drop_in_place$LT$core..option..Option$LT$alloc..boxed..Box$LT$syn..expr..Expr$GT$$GT$$GT$17h981df8604670027bE', symObjAddr: 0x63E0, symBinAddr: 0xF29D0, symSize: 0x50 }
  - { offsetInCU: 0x190E1, offset: 0x437389, size: 0x8, addend: 0x0, symName: '__ZN4core3ptr89drop_in_place$LT$syn..punctuated..Punctuated$LT$syn..pat..Pat$C$syn..token..Comma$GT$$GT$17h8165fd7eb02b8118E', symObjAddr: 0x6430, symBinAddr: 0xF2A20, symSize: 0x120 }
  - { offsetInCU: 0x1957C, offset: 0x437824, size: 0x8, addend: 0x0, symName: '__ZN4core3ptr91drop_in_place$LT$syn..punctuated..Punctuated$LT$syn..expr..Expr$C$syn..token..Comma$GT$$GT$17ha27fe7b672ce38bdE', symObjAddr: 0x6550, symBinAddr: 0xF2B40, symSize: 0x120 }
  - { offsetInCU: 0x199D9, offset: 0x437C81, size: 0x8, addend: 0x0, symName: '__ZN4core3ptr94drop_in_place$LT$syn..punctuated..Punctuated$LT$syn..pat..FieldPat$C$syn..token..Comma$GT$$GT$17hd9ad3a9ff53c2a49E', symObjAddr: 0x6670, symBinAddr: 0xF2C60, symSize: 0xF0 }
  - { offsetInCU: 0x19CA3, offset: 0x437F4B, size: 0x8, addend: 0x0, symName: '__ZN4core3ptr94drop_in_place$LT$syn..punctuated..Punctuated$LT$syn..ty..BareFnArg$C$syn..token..Comma$GT$$GT$17h3ad0ecbb9acc3d94E', symObjAddr: 0x6760, symBinAddr: 0xF2D50, symSize: 0xF0 }
  - { offsetInCU: 0x19F6D, offset: 0x438215, size: 0x8, addend: 0x0, symName: '__ZN4core3ptr96drop_in_place$LT$core..option..Option$LT$alloc..boxed..Box$LT$syn..path..PathSegment$GT$$GT$$GT$17h15008b031e78f545E', symObjAddr: 0x6850, symBinAddr: 0xF2E40, symSize: 0x180 }
  - { offsetInCU: 0x1A5FE, offset: 0x4388A6, size: 0x8, addend: 0x0, symName: '__ZN4core3ptr97drop_in_place$LT$syn..punctuated..Punctuated$LT$syn..expr..FieldValue$C$syn..token..Comma$GT$$GT$17h7dd72fd62fffe077E', symObjAddr: 0x69D0, symBinAddr: 0xF2FC0, symSize: 0xF0 }
  - { offsetInCU: 0x1A944, offset: 0x438BEC, size: 0x8, addend: 0x0, symName: '__ZN4core3ptr98drop_in_place$LT$syn..punctuated..Punctuated$LT$syn..lifetime..Lifetime$C$syn..token..Plus$GT$$GT$17haf6d03c18957eb1aE', symObjAddr: 0x6AC0, symBinAddr: 0xF30B0, symSize: 0xC0 }
  - { offsetInCU: 0x1CD53, offset: 0x43AFFB, size: 0x8, addend: 0x0, symName: '__ZN64_$LT$syn..path..Path$u20$as$u20$core..convert..From$LT$T$GT$$GT$4from17h9328d9c608214305E', symObjAddr: 0x6D10, symBinAddr: 0xF31E0, symSize: 0xC0 }
  - { offsetInCU: 0x23884, offset: 0x441B2C, size: 0x8, addend: 0x0, symName: __ZN5quote9to_tokens8ToTokens15to_token_stream17h8b5ad156655582ddE, symObjAddr: 0x6BA0, symBinAddr: 0xF3170, symSize: 0x70 }
  - { offsetInCU: 0x23942, offset: 0x441BEA, size: 0x8, addend: 0x0, symName: '__ZN12serde_derive9internals6symbol113_$LT$impl$u20$core..cmp..PartialEq$LT$serde_derive..internals..symbol..Symbol$GT$$u20$for$u20$syn..path..Path$GT$2eq17hf76a03d6b2492001E', symObjAddr: 0x6DD0, symBinAddr: 0xF32A0, symSize: 0xA0 }
  - { offsetInCU: 0x23C08, offset: 0x441EB0, size: 0x8, addend: 0x0, symName: '__ZN12serde_derive9internals6symbol117_$LT$impl$u20$core..cmp..PartialEq$LT$serde_derive..internals..symbol..Symbol$GT$$u20$for$u20$$RF$syn..path..Path$GT$2eq17hdc977942c2b440bcE', symObjAddr: 0x6E70, symBinAddr: 0xF3340, symSize: 0xA0 }
  - { offsetInCU: 0x1E, offset: 0x444580, size: 0x8, addend: 0x0, symName: '__ZN4core3ptr100drop_in_place$LT$core..option..Option$LT$alloc..boxed..Box$LT$syn..path..GenericArgument$GT$$GT$$GT$17h91f76f7535c0ef94E', symObjAddr: 0x0, symBinAddr: 0xF33E0, symSize: 0x50 }
  - { offsetInCU: 0x1653, offset: 0x445BB5, size: 0x8, addend: 0x0, symName: '__ZN4core3ptr100drop_in_place$LT$core..option..Option$LT$alloc..boxed..Box$LT$syn..path..GenericArgument$GT$$GT$$GT$17h91f76f7535c0ef94E', symObjAddr: 0x0, symBinAddr: 0xF33E0, symSize: 0x50 }
  - { offsetInCU: 0x19F3, offset: 0x445F55, size: 0x8, addend: 0x0, symName: '__ZN4core3ptr100drop_in_place$LT$syn..punctuated..Punctuated$LT$syn..path..PathSegment$C$syn..token..PathSep$GT$$GT$17h8967d620e5262808E', symObjAddr: 0x50, symBinAddr: 0xF3430, symSize: 0x260 }
  - { offsetInCU: 0x238C, offset: 0x4468EE, size: 0x8, addend: 0x0, symName: '__ZN4core3ptr103drop_in_place$LT$core..option..Option$LT$alloc..boxed..Box$LT$syn..generics..TypeParamBound$GT$$GT$$GT$17h044206982686810cE', symObjAddr: 0x2B0, symBinAddr: 0xF3690, symSize: 0x50 }
  - { offsetInCU: 0x2599, offset: 0x446AFB, size: 0x8, addend: 0x0, symName: '__ZN4core3ptr103drop_in_place$LT$syn..punctuated..Punctuated$LT$syn..generics..GenericParam$C$syn..token..Comma$GT$$GT$17h28897b64a12579c2E', symObjAddr: 0x300, symBinAddr: 0xF36E0, symSize: 0xF0 }
  - { offsetInCU: 0x2A5C, offset: 0x446FBE, size: 0x8, addend: 0x0, symName: '__ZN4core3ptr104drop_in_place$LT$syn..punctuated..Punctuated$LT$syn..generics..TypeParamBound$C$syn..token..Plus$GT$$GT$17h8a3e2526f1805111E', symObjAddr: 0x3F0, symBinAddr: 0xF37D0, symSize: 0x190 }
  - { offsetInCU: 0x30CF, offset: 0x447631, size: 0x8, addend: 0x0, symName: '__ZN4core3ptr34drop_in_place$LT$syn..lit..Lit$GT$17h909e98f6870548d6E', symObjAddr: 0x580, symBinAddr: 0xF3960, symSize: 0x110 }
  - { offsetInCU: 0x3628, offset: 0x447B8A, size: 0x8, addend: 0x0, symName: '__ZN4core3ptr34drop_in_place$LT$syn..pat..Pat$GT$17h8fcd4c90be46a62aE', symObjAddr: 0x690, symBinAddr: 0xF3A70, symSize: 0x1000 }
  - { offsetInCU: 0x714D, offset: 0x44B6AF, size: 0x8, addend: 0x0, symName: '__ZN4core3ptr34drop_in_place$LT$syn..ty..Type$GT$17h774a0ab6b4cf283eE', symObjAddr: 0x1690, symBinAddr: 0xF4A70, symSize: 0x4F0 }
  - { offsetInCU: 0x8698, offset: 0x44CBFA, size: 0x8, addend: 0x0, symName: '__ZN4core3ptr36drop_in_place$LT$syn..expr..Expr$GT$17h7fd8f0d642db296eE.llvm.10571350295813420043', symObjAddr: 0x1B80, symBinAddr: 0xF4F60, symSize: 0x28E0 }
  - { offsetInCU: 0x11B2A, offset: 0x45608C, size: 0x8, addend: 0x0, symName: '__ZN4core3ptr36drop_in_place$LT$syn..mac..Macro$GT$17hc8e4594548e1fb74E', symObjAddr: 0x4460, symBinAddr: 0xF7840, symSize: 0x40 }
  - { offsetInCU: 0x11B64, offset: 0x4560C6, size: 0x8, addend: 0x0, symName: '__ZN4core3ptr36drop_in_place$LT$syn..path..Path$GT$17hae91be932b20df1dE', symObjAddr: 0x44A0, symBinAddr: 0xF7880, symSize: 0x220 }
  - { offsetInCU: 0x12499, offset: 0x4569FB, size: 0x8, addend: 0x0, symName: '__ZN4core3ptr37drop_in_place$LT$syn..stmt..Block$GT$17hba4e7ddf28617bfdE', symObjAddr: 0x46C0, symBinAddr: 0xF7AA0, symSize: 0xD0 }
  - { offsetInCU: 0x1273D, offset: 0x456C9F, size: 0x8, addend: 0x0, symName: '__ZN4core3ptr38drop_in_place$LT$syn..expr..Member$GT$17ha7c2806ee150b6f6E', symObjAddr: 0x4790, symBinAddr: 0xF7B70, symSize: 0x30 }
  - { offsetInCU: 0x1283A, offset: 0x456D9C, size: 0x8, addend: 0x0, symName: '__ZN4core3ptr39drop_in_place$LT$proc_macro2..Ident$GT$17h8dfea26593c17b61E', symObjAddr: 0x47C0, symBinAddr: 0xF7BA0, symSize: 0x30 }
  - { offsetInCU: 0x12918, offset: 0x456E7A, size: 0x8, addend: 0x0, symName: '__ZN4core3ptr40drop_in_place$LT$syn..ty..ReturnType$GT$17h3c2856ff70e83fa7E', symObjAddr: 0x47F0, symBinAddr: 0xF7BD0, symSize: 0x50 }
  - { offsetInCU: 0x12A8A, offset: 0x456FEC, size: 0x8, addend: 0x0, symName: '__ZN4core3ptr41drop_in_place$LT$syn..expr..ExprConst$GT$17h3f369735cc377020E', symObjAddr: 0x4840, symBinAddr: 0xF7C20, symSize: 0x180 }
  - { offsetInCU: 0x12FDF, offset: 0x457541, size: 0x8, addend: 0x0, symName: '__ZN4core3ptr44drop_in_place$LT$syn..lifetime..Lifetime$GT$17h263f9508be5fff98E', symObjAddr: 0x49C0, symBinAddr: 0xF7DA0, symSize: 0x30 }
  - { offsetInCU: 0x13212, offset: 0x457774, size: 0x8, addend: 0x0, symName: '__ZN4core3ptr45drop_in_place$LT$proc_macro2..TokenStream$GT$17hcbbbd6ac69a3e46cE.llvm.10571350295813420043', symObjAddr: 0x49F0, symBinAddr: 0xF7DD0, symSize: 0x140 }
  - { offsetInCU: 0x13681, offset: 0x457BE3, size: 0x8, addend: 0x0, symName: '__ZN4core3ptr45drop_in_place$LT$syn..generics..TypeParam$GT$17h3f489d24bf2868acE', symObjAddr: 0x4B30, symBinAddr: 0xF7F10, symSize: 0x230 }
  - { offsetInCU: 0x13E7D, offset: 0x4583DF, size: 0x8, addend: 0x0, symName: '__ZN4core3ptr46drop_in_place$LT$syn..generics..ConstParam$GT$17hb82cf1b5639462f6E', symObjAddr: 0x4D60, symBinAddr: 0xF8140, symSize: 0x150 }
  - { offsetInCU: 0x142A7, offset: 0x458809, size: 0x8, addend: 0x0, symName: '__ZN4core3ptr47drop_in_place$LT$syn..path..GenericArgument$GT$17ha4d1e2427b5b79f7E', symObjAddr: 0x4EB0, symBinAddr: 0xF8290, symSize: 0x4A0 }
  - { offsetInCU: 0x1534E, offset: 0x4598B0, size: 0x8, addend: 0x0, symName: '__ZN4core3ptr49drop_in_place$LT$syn..generics..LifetimeParam$GT$17h54e59d96d3078601E', symObjAddr: 0x5350, symBinAddr: 0xF8730, symSize: 0xF0 }
  - { offsetInCU: 0x15708, offset: 0x459C6A, size: 0x8, addend: 0x0, symName: '__ZN4core3ptr50drop_in_place$LT$syn..generics..TypeParamBound$GT$17h3bdcf102e80fe526E', symObjAddr: 0x5440, symBinAddr: 0xF8820, symSize: 0x160 }
  - { offsetInCU: 0x15B28, offset: 0x45A08A, size: 0x8, addend: 0x0, symName: '__ZN4core3ptr58drop_in_place$LT$alloc..vec..Vec$LT$syn..expr..Arm$GT$$GT$17h2816916be2f2c677E', symObjAddr: 0x55A0, symBinAddr: 0xF8980, symSize: 0xD0 }
  - { offsetInCU: 0x15DB5, offset: 0x45A317, size: 0x8, addend: 0x0, symName: '__ZN4core3ptr59drop_in_place$LT$alloc..boxed..Box$LT$syn..pat..Pat$GT$$GT$17h97d5257714c9f93cE', symObjAddr: 0x5670, symBinAddr: 0xF8A50, symSize: 0x50 }
  - { offsetInCU: 0x15F10, offset: 0x45A472, size: 0x8, addend: 0x0, symName: '__ZN4core3ptr59drop_in_place$LT$alloc..boxed..Box$LT$syn..ty..Type$GT$$GT$17h54564496a417dc0bE', symObjAddr: 0x56C0, symBinAddr: 0xF8AA0, symSize: 0x50 }
  - { offsetInCU: 0x1606B, offset: 0x45A5CD, size: 0x8, addend: 0x0, symName: '__ZN4core3ptr61drop_in_place$LT$alloc..boxed..Box$LT$syn..expr..Expr$GT$$GT$17hcb812af949707350E', symObjAddr: 0x5710, symBinAddr: 0xF8AF0, symSize: 0x50 }
  - { offsetInCU: 0x16242, offset: 0x45A7A4, size: 0x8, addend: 0x0, symName: '__ZN4core3ptr61drop_in_place$LT$syn..path..ParenthesizedGenericArguments$GT$17h2cda518d73cfbc65E', symObjAddr: 0x5760, symBinAddr: 0xF8B40, symSize: 0x170 }
  - { offsetInCU: 0x16809, offset: 0x45AD6B, size: 0x8, addend: 0x0, symName: '__ZN4core3ptr62drop_in_place$LT$syn..path..AngleBracketedGenericArguments$GT$17h532d3ccffb7c0f6eE', symObjAddr: 0x58D0, symBinAddr: 0xF8CB0, symSize: 0x120 }
  - { offsetInCU: 0x16C1F, offset: 0x45B181, size: 0x8, addend: 0x0, symName: '__ZN4core3ptr63drop_in_place$LT$alloc..boxed..Box$LT$syn..lit..LitRepr$GT$$GT$17h4f0b7f87f46ca722E', symObjAddr: 0x59F0, symBinAddr: 0xF8DD0, symSize: 0x60 }
  - { offsetInCU: 0x16F14, offset: 0x45B476, size: 0x8, addend: 0x0, symName: '__ZN4core3ptr64drop_in_place$LT$alloc..boxed..Box$LT$syn..pat..FieldPat$GT$$GT$17h24cd16a7bd79a0afE', symObjAddr: 0x5A50, symBinAddr: 0xF8E30, symSize: 0x140 }
  - { offsetInCU: 0x175BF, offset: 0x45BB21, size: 0x8, addend: 0x0, symName: '__ZN4core3ptr64drop_in_place$LT$alloc..boxed..Box$LT$syn..ty..BareFnArg$GT$$GT$17h8d6c5b973f90cb46E', symObjAddr: 0x5B90, symBinAddr: 0xF8F70, symSize: 0x140 }
  - { offsetInCU: 0x17AE3, offset: 0x45C045, size: 0x8, addend: 0x0, symName: '__ZN4core3ptr65drop_in_place$LT$core..option..Option$LT$syn..expr..Label$GT$$GT$17h49c37bc37ca5807aE', symObjAddr: 0x5CD0, symBinAddr: 0xF90B0, symSize: 0x30 }
  - { offsetInCU: 0x17C1E, offset: 0x45C180, size: 0x8, addend: 0x0, symName: '__ZN4core3ptr66drop_in_place$LT$core..option..Option$LT$syn..pat..PatRest$GT$$GT$17ha0b10c3084c29dd7E', symObjAddr: 0x5D00, symBinAddr: 0xF90E0, symSize: 0xE0 }
  - { offsetInCU: 0x17EA2, offset: 0x45C404, size: 0x8, addend: 0x0, symName: '__ZN4core3ptr67drop_in_place$LT$alloc..boxed..Box$LT$syn..expr..FieldValue$GT$$GT$17h51140dec2dd742b5E', symObjAddr: 0x5DE0, symBinAddr: 0xF91C0, symSize: 0x140 }
  - { offsetInCU: 0x183A6, offset: 0x45C908, size: 0x8, addend: 0x0, symName: '__ZN4core3ptr68drop_in_place$LT$alloc..boxed..Box$LT$syn..path..PathSegment$GT$$GT$17h6663076be8cb9e8fE', symObjAddr: 0x5F20, symBinAddr: 0xF9300, symSize: 0x190 }
  - { offsetInCU: 0x18A84, offset: 0x45CFE6, size: 0x8, addend: 0x0, symName: '__ZN4core3ptr70drop_in_place$LT$core..option..Option$LT$syn..ty..BareVariadic$GT$$GT$17h006e7519360f59bbE', symObjAddr: 0x60B0, symBinAddr: 0xF9490, symSize: 0x120 }
  - { offsetInCU: 0x18FB1, offset: 0x45D513, size: 0x8, addend: 0x0, symName: '__ZN4core3ptr72drop_in_place$LT$alloc..boxed..Box$LT$syn..path..GenericArgument$GT$$GT$17h9e43a058d82d49aaE', symObjAddr: 0x61D0, symBinAddr: 0xF95B0, symSize: 0x1D0 }
  - { offsetInCU: 0x19554, offset: 0x45DAB6, size: 0x8, addend: 0x0, symName: '__ZN4core3ptr72drop_in_place$LT$core..option..Option$LT$syn..lifetime..Lifetime$GT$$GT$17h2cbddfd17a7fb6a0E', symObjAddr: 0x63A0, symBinAddr: 0xF9780, symSize: 0x30 }
  - { offsetInCU: 0x19670, offset: 0x45DBD2, size: 0x8, addend: 0x0, symName: '__ZN4core3ptr73drop_in_place$LT$alloc..boxed..Box$LT$syn..generics..GenericParam$GT$$GT$17hdf8f6b3d2d504eeeE', symObjAddr: 0x63D0, symBinAddr: 0xF97B0, symSize: 0x80 }
  - { offsetInCU: 0x197E8, offset: 0x45DD4A, size: 0x8, addend: 0x0, symName: '__ZN4core3ptr75drop_in_place$LT$alloc..boxed..Box$LT$syn..generics..TypeParamBound$GT$$GT$17he16e1f4f3b231893E', symObjAddr: 0x6450, symBinAddr: 0xF9830, symSize: 0xB0 }
  - { offsetInCU: 0x19B43, offset: 0x45E0A5, size: 0x8, addend: 0x0, symName: '__ZN4core3ptr86drop_in_place$LT$syn..punctuated..Punctuated$LT$syn..pat..Pat$C$syn..token..Or$GT$$GT$17h449b7e6b5537b210E', symObjAddr: 0x6500, symBinAddr: 0xF98E0, symSize: 0x120 }
  - { offsetInCU: 0x19F89, offset: 0x45E4EB, size: 0x8, addend: 0x0, symName: '__ZN4core3ptr87drop_in_place$LT$core..option..Option$LT$alloc..boxed..Box$LT$syn..pat..Pat$GT$$GT$$GT$17hbff747ffa5f39bd3E', symObjAddr: 0x6620, symBinAddr: 0xF9A00, symSize: 0x50 }
  - { offsetInCU: 0x1A0FB, offset: 0x45E65D, size: 0x8, addend: 0x0, symName: '__ZN4core3ptr87drop_in_place$LT$core..option..Option$LT$alloc..boxed..Box$LT$syn..ty..Type$GT$$GT$$GT$17hd404efde6702ff0dE', symObjAddr: 0x6670, symBinAddr: 0xF9A50, symSize: 0x50 }
  - { offsetInCU: 0x1A26D, offset: 0x45E7CF, size: 0x8, addend: 0x0, symName: '__ZN4core3ptr89drop_in_place$LT$core..option..Option$LT$alloc..boxed..Box$LT$syn..expr..Expr$GT$$GT$$GT$17h981df8604670027bE', symObjAddr: 0x66C0, symBinAddr: 0xF9AA0, symSize: 0x50 }
  - { offsetInCU: 0x1A41D, offset: 0x45E97F, size: 0x8, addend: 0x0, symName: '__ZN4core3ptr89drop_in_place$LT$syn..punctuated..Punctuated$LT$syn..pat..Pat$C$syn..token..Comma$GT$$GT$17h8165fd7eb02b8118E', symObjAddr: 0x6710, symBinAddr: 0xF9AF0, symSize: 0x120 }
  - { offsetInCU: 0x1A87A, offset: 0x45EDDC, size: 0x8, addend: 0x0, symName: '__ZN4core3ptr89drop_in_place$LT$syn..punctuated..Punctuated$LT$syn..ty..Type$C$syn..token..Comma$GT$$GT$17h23a774170e770b9aE', symObjAddr: 0x6830, symBinAddr: 0xF9C10, symSize: 0x120 }
  - { offsetInCU: 0x1ACC4, offset: 0x45F226, size: 0x8, addend: 0x0, symName: '__ZN4core3ptr90drop_in_place$LT$core..option..Option$LT$syn..path..AngleBracketedGenericArguments$GT$$GT$17h28a1c7f1e00311d1E', symObjAddr: 0x6950, symBinAddr: 0xF9D30, symSize: 0x130 }
  - { offsetInCU: 0x1B12F, offset: 0x45F691, size: 0x8, addend: 0x0, symName: '__ZN4core3ptr91drop_in_place$LT$syn..punctuated..Punctuated$LT$syn..expr..Expr$C$syn..token..Comma$GT$$GT$17ha27fe7b672ce38bdE', symObjAddr: 0x6A80, symBinAddr: 0xF9E60, symSize: 0x120 }
  - { offsetInCU: 0x1B58C, offset: 0x45FAEE, size: 0x8, addend: 0x0, symName: '__ZN4core3ptr94drop_in_place$LT$syn..punctuated..Punctuated$LT$syn..pat..FieldPat$C$syn..token..Comma$GT$$GT$17hd9ad3a9ff53c2a49E', symObjAddr: 0x6BA0, symBinAddr: 0xF9F80, symSize: 0xF0 }
  - { offsetInCU: 0x1B856, offset: 0x45FDB8, size: 0x8, addend: 0x0, symName: '__ZN4core3ptr94drop_in_place$LT$syn..punctuated..Punctuated$LT$syn..ty..BareFnArg$C$syn..token..Comma$GT$$GT$17h3ad0ecbb9acc3d94E', symObjAddr: 0x6C90, symBinAddr: 0xFA070, symSize: 0xF0 }
  - { offsetInCU: 0x1BB20, offset: 0x460082, size: 0x8, addend: 0x0, symName: '__ZN4core3ptr96drop_in_place$LT$core..option..Option$LT$alloc..boxed..Box$LT$syn..path..PathSegment$GT$$GT$$GT$17h15008b031e78f545E', symObjAddr: 0x6D80, symBinAddr: 0xFA160, symSize: 0x90 }
  - { offsetInCU: 0x1BDA2, offset: 0x460304, size: 0x8, addend: 0x0, symName: '__ZN4core3ptr97drop_in_place$LT$syn..punctuated..Punctuated$LT$syn..expr..FieldValue$C$syn..token..Comma$GT$$GT$17h7dd72fd62fffe077E', symObjAddr: 0x6E10, symBinAddr: 0xFA1F0, symSize: 0xF0 }
  - { offsetInCU: 0x1C06C, offset: 0x4605CE, size: 0x8, addend: 0x0, symName: '__ZN4core3ptr98drop_in_place$LT$alloc..vec..Vec$LT$$LP$syn..path..GenericArgument$C$syn..token..Comma$RP$$GT$$GT$17h5d136a881836b500E', symObjAddr: 0x6F00, symBinAddr: 0xFA2E0, symSize: 0xD0 }
  - { offsetInCU: 0x1C375, offset: 0x4608D7, size: 0x8, addend: 0x0, symName: '__ZN4core3ptr98drop_in_place$LT$syn..punctuated..Punctuated$LT$syn..lifetime..Lifetime$C$syn..token..Plus$GT$$GT$17haf6d03c18957eb1aE', symObjAddr: 0x6FD0, symBinAddr: 0xFA3B0, symSize: 0xC0 }
  - { offsetInCU: 0x1E, offset: 0x46B49B, size: 0x8, addend: 0x0, symName: '__ZN108_$LT$alloc..collections..btree..map..Keys$LT$K$C$V$GT$$u20$as$u20$core..iter..traits..iterator..Iterator$GT$4next17h24b24a65b8f8b7f0E', symObjAddr: 0x0, symBinAddr: 0xFA470, symSize: 0x260 }
  - { offsetInCU: 0x5AD, offset: 0x46BA2A, size: 0x8, addend: 0x0, symName: '__ZN4core3ptr140drop_in_place$LT$alloc..collections..btree..map..BTreeMap$LT$syn..lifetime..Lifetime$C$alloc..collections..btree..set_val..SetValZST$GT$$GT$17h525d3e9f0c8175e5E', symObjAddr: 0x4C0, symBinAddr: 0xFA930, symSize: 0xD0 }
  - { offsetInCU: 0x1EBD, offset: 0x46D33A, size: 0x8, addend: 0x0, symName: '__ZN108_$LT$alloc..collections..btree..map..Keys$LT$K$C$V$GT$$u20$as$u20$core..iter..traits..iterator..Iterator$GT$4next17h24b24a65b8f8b7f0E', symObjAddr: 0x0, symBinAddr: 0xFA470, symSize: 0x260 }
  - { offsetInCU: 0x2529, offset: 0x46D9A6, size: 0x8, addend: 0x0, symName: '__ZN108_$LT$alloc..collections..btree..map..Keys$LT$K$C$V$GT$$u20$as$u20$core..iter..traits..iterator..Iterator$GT$4next17hce1d53f78b575092E', symObjAddr: 0x260, symBinAddr: 0xFA6D0, symSize: 0x260 }
  - { offsetInCU: 0x2D35, offset: 0x46E1B2, size: 0x8, addend: 0x0, symName: '__ZN99_$LT$alloc..collections..btree..map..BTreeMap$LT$K$C$V$C$A$GT$$u20$as$u20$core..ops..drop..Drop$GT$4drop17h221df82a66f3a381E', symObjAddr: 0x1640, symBinAddr: 0xFBA50, symSize: 0xD0 }
  - { offsetInCU: 0x3049, offset: 0x46E4C6, size: 0x8, addend: 0x0, symName: '__ZN99_$LT$alloc..collections..btree..map..BTreeMap$LT$K$C$V$C$A$GT$$u20$as$u20$core..ops..drop..Drop$GT$4drop17hd7516abf83dfca55E', symObjAddr: 0x1710, symBinAddr: 0xFBB20, symSize: 0xC7 }
  - { offsetInCU: 0x39A1, offset: 0x46EE1E, size: 0x8, addend: 0x0, symName: '__ZN96_$LT$alloc..collections..btree..map..BTreeMap$LT$K$C$V$C$A$GT$$u20$as$u20$core..clone..Clone$GT$5clone13clone_subtree17h20583d9b73a9f98aE.llvm.4979227835784741349', symObjAddr: 0x1100, symBinAddr: 0xFB570, symSize: 0x4E0 }
  - { offsetInCU: 0x7980, offset: 0x472DFD, size: 0x8, addend: 0x0, symName: '__ZN5alloc11collections5btree3map25BTreeMap$LT$K$C$V$C$A$GT$3get17h1f57fb63eb83423dE', symObjAddr: 0x590, symBinAddr: 0xFAA00, symSize: 0xB0 }
  - { offsetInCU: 0x7F11, offset: 0x47338E, size: 0x8, addend: 0x0, symName: '__ZN5alloc11collections5btree3map25BTreeMap$LT$K$C$V$C$A$GT$6insert17h1e612bda6f9a54cbE', symObjAddr: 0x640, symBinAddr: 0xFAAB0, symSize: 0x170 }
  - { offsetInCU: 0x85BE, offset: 0x473A3B, size: 0x8, addend: 0x0, symName: '__ZN5alloc11collections5btree3map25BTreeMap$LT$K$C$V$C$A$GT$6insert17h2d7ffe07adbb1b93E', symObjAddr: 0x7B0, symBinAddr: 0xFAC20, symSize: 0x170 }
  - { offsetInCU: 0x8C2F, offset: 0x4740AC, size: 0x8, addend: 0x0, symName: '__ZN5alloc11collections5btree3map25IntoIter$LT$K$C$V$C$A$GT$10dying_next17h1eed5d065fe26cfeE.llvm.4979227835784741349', symObjAddr: 0x920, symBinAddr: 0xFAD90, symSize: 0x3E0 }
  - { offsetInCU: 0x9661, offset: 0x474ADE, size: 0x8, addend: 0x0, symName: '__ZN5alloc11collections5btree3map25IntoIter$LT$K$C$V$C$A$GT$10dying_next17hb09a5888fadde8ceE.llvm.4979227835784741349', symObjAddr: 0xD00, symBinAddr: 0xFB170, symSize: 0x400 }
  - { offsetInCU: 0xE89, offset: 0x47B777, size: 0x8, addend: 0x0, symName: '__ZN4core3ptr39drop_in_place$LT$proc_macro2..Ident$GT$17h8dfea26593c17b61E', symObjAddr: 0x20, symBinAddr: 0xFBBF0, symSize: 0x30 }
  - { offsetInCU: 0x2124, offset: 0x47CA12, size: 0x8, addend: 0x0, symName: '__ZN9hashbrown3map28HashMap$LT$K$C$V$C$S$C$A$GT$6insert17h8c3f2baf54a86943E', symObjAddr: 0x200, symBinAddr: 0xFBC20, symSize: 0x1E8 }
  - { offsetInCU: 0x1E, offset: 0x47D577, size: 0x8, addend: 0x0, symName: __ZN3syn4attr9Attribute15parse_args_with17h05441854e857d5a5E, symObjAddr: 0x0, symBinAddr: 0xFBE10, symSize: 0x350 }
  - { offsetInCU: 0xA707, offset: 0x487C60, size: 0x8, addend: 0x0, symName: __ZN3syn4attr9Attribute15parse_args_with17h05441854e857d5a5E, symObjAddr: 0x0, symBinAddr: 0xFBE10, symSize: 0x350 }
  - { offsetInCU: 0xB4D4, offset: 0x488A2D, size: 0x8, addend: 0x0, symName: __ZN3syn4attr9Attribute15parse_args_with17h74d08d15e7129e79E, symObjAddr: 0x350, symBinAddr: 0xFC160, symSize: 0x350 }
  - { offsetInCU: 0xC1E9, offset: 0x489742, size: 0x8, addend: 0x0, symName: __ZN3syn4attr9Attribute15parse_args_with17h8e01d660d7440680E, symObjAddr: 0x6A0, symBinAddr: 0xFC4B0, symSize: 0x350 }
  - { offsetInCU: 0xCEE4, offset: 0x48A43D, size: 0x8, addend: 0x0, symName: __ZN3syn4attr9Attribute15parse_args_with17hcf2049ea44a7ea4bE, symObjAddr: 0x9F0, symBinAddr: 0xFC800, symSize: 0x333 }
  - { offsetInCU: 0x858, offset: 0x48C2F1, size: 0x8, addend: 0x0, symName: '__ZN68_$LT$$RF$str$u20$as$u20$proc_macro..bridge..rpc..Encode$LT$S$GT$$GT$6encode17h3493b8f57f3708d0E', symObjAddr: 0x70, symBinAddr: 0xFCB40, symSize: 0x330 }
  - { offsetInCU: 0x1E, offset: 0x48CB2A, size: 0x8, addend: 0x0, symName: '__ZN3std3sys6common12thread_local10fast_local12Key$LT$T$GT$14try_initialize17h1670d31c1da38c98E.llvm.10779066646120790875', symObjAddr: 0x0, symBinAddr: 0xFCE70, symSize: 0x150 }
  - { offsetInCU: 0x466, offset: 0x48CF72, size: 0x8, addend: 0x0, symName: __ZN3std3sys6common12thread_local10fast_local13destroy_value17ha9991dca704a7f2cE, symObjAddr: 0x1E0, symBinAddr: 0xFD010, symSize: 0xE0 }
  - { offsetInCU: 0x1014, offset: 0x48DB20, size: 0x8, addend: 0x0, symName: '__ZN4core3ptr81drop_in_place$LT$core..result..Result$LT$$LP$$RP$$C$std..io..error..Error$GT$$GT$17hb4ff7b17f899b0c2E', symObjAddr: 0x2C0, symBinAddr: 0xFD0F0, symSize: 0xA5 }
  - { offsetInCU: 0x1D29, offset: 0x48E835, size: 0x8, addend: 0x0, symName: '__ZN3std3sys6common12thread_local10fast_local12Key$LT$T$GT$14try_initialize17h1670d31c1da38c98E.llvm.10779066646120790875', symObjAddr: 0x0, symBinAddr: 0xFCE70, symSize: 0x150 }
  - { offsetInCU: 0x219F, offset: 0x48ECAB, size: 0x8, addend: 0x0, symName: '__ZN3std3sys6common12thread_local10fast_local12Key$LT$T$GT$14try_initialize17ha7c2e4d0cf96b855E.llvm.10779066646120790875', symObjAddr: 0x150, symBinAddr: 0xFCFC0, symSize: 0x50 }
  - { offsetInCU: 0x1E, offset: 0x490289, size: 0x8, addend: 0x0, symName: __ZN4core3fmt5Write10write_char17he72c83386245bc13E, symObjAddr: 0x0, symBinAddr: 0xFD1A0, symSize: 0x100 }
  - { offsetInCU: 0xC8, offset: 0x490333, size: 0x8, addend: 0x0, symName: '__ZN80_$LT$std..io..Write..write_fmt..Adapter$LT$T$GT$$u20$as$u20$core..fmt..Write$GT$9write_str17h5630337204f6ce8cE', symObjAddr: 0x1E0, symBinAddr: 0xFD380, symSize: 0x3E }
  - { offsetInCU: 0x9F7, offset: 0x490C62, size: 0x8, addend: 0x0, symName: '__ZN4core3ptr81drop_in_place$LT$core..result..Result$LT$$LP$$RP$$C$std..io..error..Error$GT$$GT$17hb4ff7b17f899b0c2E', symObjAddr: 0x120, symBinAddr: 0xFD2C0, symSize: 0xB0 }
  - { offsetInCU: 0xE69, offset: 0x4910D4, size: 0x8, addend: 0x0, symName: '__ZN4core3ptr92drop_in_place$LT$std..io..Write..write_fmt..Adapter$LT$std..sys..unix..stdio..Stderr$GT$$GT$17h8ccf3136d972b5eeE', symObjAddr: 0x1D0, symBinAddr: 0xFD370, symSize: 0x10 }
  - { offsetInCU: 0xFEF, offset: 0x49125A, size: 0x8, addend: 0x0, symName: __ZN4core3fmt5Write10write_char17he72c83386245bc13E, symObjAddr: 0x0, symBinAddr: 0xFD1A0, symSize: 0x100 }
  - { offsetInCU: 0x1158, offset: 0x4913C3, size: 0x8, addend: 0x0, symName: __ZN4core3fmt5Write9write_fmt17hdc8d92f2ba7be1e1E, symObjAddr: 0x100, symBinAddr: 0xFD2A0, symSize: 0x20 }
  - { offsetInCU: 0x1E, offset: 0x491B33, size: 0x8, addend: 0x0, symName: __ZN3std2io5Write9write_all17haa38a38e900acb10E, symObjAddr: 0x0, symBinAddr: 0xFD3C0, symSize: 0xF0 }
  - { offsetInCU: 0x35, offset: 0x491B4A, size: 0x8, addend: 0x0, symName: _anon.b7c8ae54e971f56895329c8ed6854910.6.llvm.12134953843077082425, symObjAddr: 0x328, symBinAddr: 0x34DB50, symSize: 0x0 }
  - { offsetInCU: 0xE5, offset: 0x491BFA, size: 0x8, addend: 0x0, symName: __ZN3std2io5Write9write_all17haa38a38e900acb10E, symObjAddr: 0x0, symBinAddr: 0xFD3C0, symSize: 0xF0 }
  - { offsetInCU: 0x361, offset: 0x491E76, size: 0x8, addend: 0x0, symName: __ZN3std2io5Write9write_fmt17h052c131bb18f8a3eE, symObjAddr: 0xF0, symBinAddr: 0xFD4B0, symSize: 0x90 }
  - { offsetInCU: 0x141F, offset: 0x492F34, size: 0x8, addend: 0x0, symName: '__ZN4core3ptr42drop_in_place$LT$std..io..error..Error$GT$17h48d2ac2354750d4bE.llvm.12134953843077082425', symObjAddr: 0x180, symBinAddr: 0xFD540, symSize: 0xA0 }
  - { offsetInCU: 0x1883, offset: 0x493398, size: 0x8, addend: 0x0, symName: '__ZN4core3ptr92drop_in_place$LT$std..io..Write..write_fmt..Adapter$LT$std..sys..unix..stdio..Stderr$GT$$GT$17h8ccf3136d972b5eeE.llvm.12134953843077082425', symObjAddr: 0x220, symBinAddr: 0xFD5E0, symSize: 0x15 }
  - { offsetInCU: 0x1E, offset: 0x493D56, size: 0x8, addend: 0x0, symName: '__ZN4core3ptr43drop_in_place$LT$syn..parse..Unexpected$GT$17h18b986fbd0437bbdE.llvm.5748344613350021591', symObjAddr: 0x0, symBinAddr: 0xFD600, symSize: 0x50 }
  - { offsetInCU: 0xB35, offset: 0x49486D, size: 0x8, addend: 0x0, symName: '__ZN4core3ptr43drop_in_place$LT$syn..parse..Unexpected$GT$17h18b986fbd0437bbdE.llvm.5748344613350021591', symObjAddr: 0x0, symBinAddr: 0xFD600, symSize: 0x50 }
  - { offsetInCU: 0x15FE, offset: 0x495336, size: 0x8, addend: 0x0, symName: '__ZN68_$LT$alloc..rc..Rc$LT$T$C$A$GT$$u20$as$u20$core..ops..drop..Drop$GT$4drop17h569c930f11e94953E', symObjAddr: 0x160, symBinAddr: 0xFD650, symSize: 0x30 }
  - { offsetInCU: 0x1872, offset: 0x4955AA, size: 0x8, addend: 0x0, symName: '__ZN68_$LT$alloc..rc..Rc$LT$T$C$A$GT$$u20$as$u20$core..ops..drop..Drop$GT$4drop17hf9eee1d91d963f3fE', symObjAddr: 0x190, symBinAddr: 0xFD680, symSize: 0x40 }
  - { offsetInCU: 0x1B04, offset: 0x49583C, size: 0x8, addend: 0x0, symName: '__ZN68_$LT$alloc..rc..Rc$LT$T$C$A$GT$$u20$as$u20$core..ops..drop..Drop$GT$4drop17hfe23665f404f54beE', symObjAddr: 0x1D0, symBinAddr: 0xFD6C0, symSize: 0xDE }
  - { offsetInCU: 0x1E, offset: 0x496B19, size: 0x8, addend: 0x0, symName: __ZN3std9panicking11begin_panic17h0530f31ecfc00755E, symObjAddr: 0x0, symBinAddr: 0x2BE9B0, symSize: 0x20 }
  - { offsetInCU: 0x176, offset: 0x496C71, size: 0x8, addend: 0x0, symName: __ZN3std9panicking11begin_panic17h0530f31ecfc00755E, symObjAddr: 0x0, symBinAddr: 0x2BE9B0, symSize: 0x20 }
  - { offsetInCU: 0x3C0, offset: 0x496EBB, size: 0x8, addend: 0x0, symName: __ZN3std9panicking3try17h3be92fd4a5bf51aaE, symObjAddr: 0x20, symBinAddr: 0xFD7A0, symSize: 0x390 }
  - { offsetInCU: 0xA70, offset: 0x49756B, size: 0x8, addend: 0x0, symName: __ZN3std9panicking3try17h4b5e6bc79cd9556dE, symObjAddr: 0x3B0, symBinAddr: 0xFDB30, symSize: 0x390 }
  - { offsetInCU: 0x112A, offset: 0x497C25, size: 0x8, addend: 0x0, symName: '__ZN91_$LT$std..panicking..begin_panic..Payload$LT$A$GT$$u20$as$u20$core..panic..PanicPayload$GT$3get17hbffb468606ff2783E', symObjAddr: 0x800, symBinAddr: 0xFDEE0, symSize: 0x20 }
  - { offsetInCU: 0x1162, offset: 0x497C5D, size: 0x8, addend: 0x0, symName: '__ZN91_$LT$std..panicking..begin_panic..Payload$LT$A$GT$$u20$as$u20$core..panic..PanicPayload$GT$8take_box17hcd91e08de758da5aE', symObjAddr: 0x820, symBinAddr: 0xFDF00, symSize: 0x5F }
  - { offsetInCU: 0x1856, offset: 0x498351, size: 0x8, addend: 0x0, symName: '__ZN4core3ptr28drop_in_place$LT$$RF$str$GT$17h37bd690533babc90E', symObjAddr: 0x7E0, symBinAddr: 0xFDEC0, symSize: 0x10 }
  - { offsetInCU: 0x1882, offset: 0x49837D, size: 0x8, addend: 0x0, symName: '__ZN4core3ptr52drop_in_place$LT$std..thread..local..AccessError$GT$17h5f4aa115f31d8aeaE', symObjAddr: 0x7F0, symBinAddr: 0xFDED0, symSize: 0x10 }
  - { offsetInCU: 0x1E, offset: 0x499E2C, size: 0x8, addend: 0x0, symName: '__ZN44_$LT$$RF$T$u20$as$u20$core..fmt..Display$GT$3fmt17h8b29ddd528e54078E', symObjAddr: 0x0, symBinAddr: 0xFDF60, symSize: 0x10 }
  - { offsetInCU: 0x35, offset: 0x499E43, size: 0x8, addend: 0x0, symName: _anon.d424603981e4daa67bf55bad7c3c1876.0.llvm.18122595802223786450, symObjAddr: 0x700, symBinAddr: 0x34DBD8, symSize: 0x0 }
  - { offsetInCU: 0x18B, offset: 0x499F99, size: 0x8, addend: 0x0, symName: '__ZN58_$LT$alloc..string..String$u20$as$u20$core..fmt..Write$GT$10write_char17hd329c0cb943f081aE.llvm.18122595802223786450', symObjAddr: 0x180, symBinAddr: 0xFE0C0, symSize: 0x130 }
  - { offsetInCU: 0x532, offset: 0x49A340, size: 0x8, addend: 0x0, symName: '__ZN58_$LT$alloc..string..String$u20$as$u20$core..fmt..Write$GT$9write_str17h1ff5aa96ca91c6d5E.llvm.18122595802223786450', symObjAddr: 0x2B0, symBinAddr: 0xFE1F0, symSize: 0x60 }
  - { offsetInCU: 0xCB5, offset: 0x49AAC3, size: 0x8, addend: 0x0, symName: '__ZN4core3ptr37drop_in_place$LT$core..fmt..Error$GT$17hdcc9b701b5182764E.llvm.18122595802223786450', symObjAddr: 0x10, symBinAddr: 0xFDF70, symSize: 0x10 }
  - { offsetInCU: 0xD1F, offset: 0x49AB2D, size: 0x8, addend: 0x0, symName: '__ZN4core3ptr42drop_in_place$LT$alloc..string..String$GT$17h5212a25f3591ed4cE.llvm.18122595802223786450', symObjAddr: 0x20, symBinAddr: 0xFDF80, symSize: 0x20 }
  - { offsetInCU: 0x1097, offset: 0x49AEA5, size: 0x8, addend: 0x0, symName: '__ZN44_$LT$$RF$T$u20$as$u20$core..fmt..Display$GT$3fmt17h8b29ddd528e54078E', symObjAddr: 0x0, symBinAddr: 0xFDF60, symSize: 0x10 }
  - { offsetInCU: 0x10E3, offset: 0x49AEF1, size: 0x8, addend: 0x0, symName: '__ZN53_$LT$core..fmt..Error$u20$as$u20$core..fmt..Debug$GT$3fmt17h43ae5cec9623af13E.llvm.18122595802223786450', symObjAddr: 0x60, symBinAddr: 0xFDFA0, symSize: 0x20 }
  - { offsetInCU: 0x162E, offset: 0x49B43C, size: 0x8, addend: 0x0, symName: '__ZN71_$LT$core..hash..sip..Hasher$LT$S$GT$$u20$as$u20$core..hash..Hasher$GT$5write17ha0b5a8d74b40c7daE.llvm.18122595802223786450', symObjAddr: 0x4B0, symBinAddr: 0xFE360, symSize: 0x1DC }
  - { offsetInCU: 0x1F55, offset: 0x49BD63, size: 0x8, addend: 0x0, symName: _anon.d424603981e4daa67bf55bad7c3c1876.4.llvm.18122595802223786450, symObjAddr: 0x748, symBinAddr: 0x34DC20, symSize: 0x0 }
  - { offsetInCU: 0x2654, offset: 0x49C462, size: 0x8, addend: 0x0, symName: '__ZN55_$LT$proc_macro2..Ident$u20$as$u20$core..hash..Hash$GT$4hash17h01793e20797423c5E', symObjAddr: 0x80, symBinAddr: 0xFDFC0, symSize: 0x100 }
  - { offsetInCU: 0x2C2E, offset: 0x49CA3C, size: 0x8, addend: 0x0, symName: __ZN5quote9to_tokens8ToTokens17into_token_stream17h380424583417e368E, symObjAddr: 0x310, symBinAddr: 0xFE250, symSize: 0x110 }
  - { offsetInCU: 0x1E, offset: 0x49D779, size: 0x8, addend: 0x0, symName: '__ZN4core3str21_$LT$impl$u20$str$GT$18trim_start_matches17head2fb9d51a95e71E', symObjAddr: 0x0, symBinAddr: 0xFE540, symSize: 0x517 }
  - { offsetInCU: 0x405, offset: 0x49DB60, size: 0x8, addend: 0x0, symName: '__ZN4core3str21_$LT$impl$u20$str$GT$18trim_start_matches17head2fb9d51a95e71E', symObjAddr: 0x0, symBinAddr: 0xFE540, symSize: 0x517 }
  - { offsetInCU: 0x1E, offset: 0x49ECD5, size: 0x8, addend: 0x0, symName: '__ZN10proc_macro6bridge11scoped_cell19ScopedCell$LT$T$GT$7replace17h07522fae9e10d604E', symObjAddr: 0x0, symBinAddr: 0xFEA60, symSize: 0x380 }
  - { offsetInCU: 0x582, offset: 0x49F239, size: 0x8, addend: 0x0, symName: '__ZN4core3ptr145drop_in_place$LT$proc_macro..bridge..scoped_cell..ScopedCell$LT$T$GT$..replace..PutBackOnDrop$LT$proc_macro..bridge..client..BridgeStateL$GT$$GT$17h660b69b8edd4f32aE.llvm.14625526364111067937', symObjAddr: 0x8D0, symBinAddr: 0xFF330, symSize: 0xBA }
  - { offsetInCU: 0x1919, offset: 0x4A05D0, size: 0x8, addend: 0x0, symName: '__ZN10proc_macro6bridge11scoped_cell19ScopedCell$LT$T$GT$7replace17h07522fae9e10d604E', symObjAddr: 0x0, symBinAddr: 0xFEA60, symSize: 0x380 }
  - { offsetInCU: 0x22FE, offset: 0x4A0FB5, size: 0x8, addend: 0x0, symName: '__ZN10proc_macro6bridge11scoped_cell19ScopedCell$LT$T$GT$7replace17h4690e3e4cdc33deaE', symObjAddr: 0x380, symBinAddr: 0xFEDE0, symSize: 0x0 }
  - { offsetInCU: 0x289F, offset: 0x4A1556, size: 0x8, addend: 0x0, symName: '__ZN10proc_macro6bridge11scoped_cell19ScopedCell$LT$T$GT$7replace17h91ee8a5ac3417a13E', symObjAddr: 0x550, symBinAddr: 0xFEFB0, symSize: 0x380 }
  - { offsetInCU: 0x35, offset: 0x4A255F, size: 0x8, addend: 0x0, symName: _anon.de30dde677e03da1760c4d119b12123a.0.llvm.3589859898306732659, symObjAddr: 0xE50, symBinAddr: 0x34DD20, symSize: 0x0 }
  - { offsetInCU: 0x23C, offset: 0x4A2766, size: 0x8, addend: 0x0, symName: '__ZN58_$LT$alloc..string..String$u20$as$u20$core..fmt..Write$GT$10write_char17hd329c0cb943f081aE.llvm.3589859898306732659', symObjAddr: 0xB80, symBinAddr: 0xFFD80, symSize: 0x130 }
  - { offsetInCU: 0x5E4, offset: 0x4A2B0E, size: 0x8, addend: 0x0, symName: '__ZN58_$LT$alloc..string..String$u20$as$u20$core..fmt..Write$GT$9write_str17h1ff5aa96ca91c6d5E.llvm.3589859898306732659', symObjAddr: 0xCB0, symBinAddr: 0xFFEB0, symSize: 0x5B }
  - { offsetInCU: 0x1287, offset: 0x4A37B1, size: 0x8, addend: 0x0, symName: '__ZN4core3ptr37drop_in_place$LT$core..fmt..Error$GT$17hdcc9b701b5182764E.llvm.3589859898306732659', symObjAddr: 0x970, symBinAddr: 0xFFB70, symSize: 0x10 }
  - { offsetInCU: 0x12B3, offset: 0x4A37DD, size: 0x8, addend: 0x0, symName: '__ZN4core3ptr38drop_in_place$LT$syn..error..Error$GT$17h82a5801562d337b6E.llvm.3589859898306732659', symObjAddr: 0x980, symBinAddr: 0xFFB80, symSize: 0x80 }
  - { offsetInCU: 0x1571, offset: 0x4A3A9B, size: 0x8, addend: 0x0, symName: '__ZN4core3ptr42drop_in_place$LT$alloc..string..String$GT$17h5212a25f3591ed4cE.llvm.3589859898306732659', symObjAddr: 0xA00, symBinAddr: 0xFFC00, symSize: 0x20 }
  - { offsetInCU: 0x17B0, offset: 0x4A3CDA, size: 0x8, addend: 0x0, symName: '__ZN4core3ptr45drop_in_place$LT$proc_macro2..TokenStream$GT$17hcbbbd6ac69a3e46cE.llvm.3589859898306732659', symObjAddr: 0xA20, symBinAddr: 0xFFC20, symSize: 0x140 }
  - { offsetInCU: 0x1E5C, offset: 0x4A4386, size: 0x8, addend: 0x0, symName: '__ZN53_$LT$core..fmt..Error$u20$as$u20$core..fmt..Debug$GT$3fmt17h43ae5cec9623af13E.llvm.3589859898306732659', symObjAddr: 0xB60, symBinAddr: 0xFFD60, symSize: 0x20 }
  - { offsetInCU: 0x2329, offset: 0x4A4853, size: 0x8, addend: 0x0, symName: _anon.de30dde677e03da1760c4d119b12123a.5.llvm.3589859898306732659, symObjAddr: 0xE98, symBinAddr: 0x34DD68, symSize: 0x0 }
  - { offsetInCU: 0x2BB9, offset: 0x4A50E3, size: 0x8, addend: 0x0, symName: __ZN3syn5error4new217hd21fb4c92dbb331bE, symObjAddr: 0x80, symBinAddr: 0xFF3F0, symSize: 0x100 }
  - { offsetInCU: 0x2DE0, offset: 0x4A530A, size: 0x8, addend: 0x0, symName: __ZN3syn5error4new217he77d5947504f840eE, symObjAddr: 0x180, symBinAddr: 0xFF4F0, symSize: 0xF0 }
  - { offsetInCU: 0x36BE, offset: 0x4A5BE8, size: 0x8, addend: 0x0, symName: __ZN3syn5error5Error11new_spanned17h3a16558cadf3a6f9E, symObjAddr: 0x270, symBinAddr: 0xFF5E0, symSize: 0x120 }
  - { offsetInCU: 0x38ED, offset: 0x4A5E17, size: 0x8, addend: 0x0, symName: __ZN3syn5error5Error11new_spanned17h5a28acfd87727d5fE, symObjAddr: 0x390, symBinAddr: 0xFF700, symSize: 0xB0 }
  - { offsetInCU: 0x3BE6, offset: 0x4A6110, size: 0x8, addend: 0x0, symName: __ZN3syn5error5Error11new_spanned17hae2a2eba555001d4E, symObjAddr: 0x440, symBinAddr: 0xFF7B0, symSize: 0x130 }
  - { offsetInCU: 0x3E5A, offset: 0x4A6384, size: 0x8, addend: 0x0, symName: __ZN3syn5error5Error11new_spanned17heb11cc36df82ff2bE, symObjAddr: 0x570, symBinAddr: 0xFF8E0, symSize: 0x1B0 }
  - { offsetInCU: 0x42B6, offset: 0x4A67E0, size: 0x8, addend: 0x0, symName: __ZN3syn5error5Error3new17h4b41336cfe3bc280E, symObjAddr: 0x7A0, symBinAddr: 0xFFA90, symSize: 0xE0 }
  - { offsetInCU: 0x1E, offset: 0x4A78DA, size: 0x8, addend: 0x0, symName: '__ZN126_$LT$proc_macro2..fallback..TokenStream$u20$as$u20$core..iter..traits..collect..FromIterator$LT$proc_macro2..TokenTree$GT$$GT$9from_iter17h242f70ff97ff5ea6E', symObjAddr: 0x0, symBinAddr: 0xFFF10, symSize: 0x1E0 }
  - { offsetInCU: 0x7FA, offset: 0x4A80B6, size: 0x8, addend: 0x0, symName: '__ZN126_$LT$proc_macro2..fallback..TokenStream$u20$as$u20$core..iter..traits..collect..FromIterator$LT$proc_macro2..TokenTree$GT$$GT$9from_iter17h242f70ff97ff5ea6E', symObjAddr: 0x0, symBinAddr: 0xFFF10, symSize: 0x1E0 }
  - { offsetInCU: 0xF5B, offset: 0x4A8817, size: 0x8, addend: 0x0, symName: '__ZN78_$LT$proc_macro2..fallback..Ident$u20$as$u20$core..cmp..PartialEq$LT$T$GT$$GT$2eq17h65f4af7bec6c45e8E', symObjAddr: 0x240, symBinAddr: 0x100150, symSize: 0x76 }
  - { offsetInCU: 0x17B6, offset: 0x4A9072, size: 0x8, addend: 0x0, symName: '__ZN4core3ptr165drop_in_place$LT$core..iter..adapters..map..Map$LT$proc_macro2..token_stream..IntoIter$C$serde_derive..internals..respan..respan..$u7b$$u7b$closure$u7d$$u7d$$GT$$GT$17h4dd21d5a8f19aacfE.llvm.16872883537682718847', symObjAddr: 0x1E0, symBinAddr: 0x1000F0, symSize: 0x20 }
  - { offsetInCU: 0x18B7, offset: 0x4A9173, size: 0x8, addend: 0x0, symName: '__ZN4core3ptr55drop_in_place$LT$proc_macro2..fallback..TokenStream$GT$17h8ab23c6d481133a3E.llvm.16872883537682718847', symObjAddr: 0x200, symBinAddr: 0x100110, symSize: 0x40 }
  - { offsetInCU: 0x35, offset: 0x4AA8EB, size: 0x8, addend: 0x0, symName: _anon.2155ea00cd9550ddef904ce36e27563e.3.llvm.8406345718176218207, symObjAddr: 0x820, symBinAddr: 0x34DDB8, symSize: 0x0 }
  - { offsetInCU: 0x3AE, offset: 0x4AAC64, size: 0x8, addend: 0x0, symName: __ZN10proc_macro6bridge6client10run_client17h7af520b4592d99efE, symObjAddr: 0x210, symBinAddr: 0x1001D0, symSize: 0x1B0 }
  - { offsetInCU: 0x6BB, offset: 0x4AAF71, size: 0x8, addend: 0x0, symName: __ZN10proc_macro6bridge6client10run_client17hba692d66e4a36f2eE, symObjAddr: 0x3C0, symBinAddr: 0x100380, symSize: 0x1B0 }
  - { offsetInCU: 0xBDB, offset: 0x4AB491, size: 0x8, addend: 0x0, symName: '__ZN4core3ptr52drop_in_place$LT$std..thread..local..AccessError$GT$17h5f4aa115f31d8aeaE.llvm.8406345718176218207', symObjAddr: 0x710, symBinAddr: 0x100530, symSize: 0x6 }
  - { offsetInCU: 0x1E, offset: 0x4ABBE3, size: 0x8, addend: 0x0, symName: '__ZN44_$LT$$RF$T$u20$as$u20$core..fmt..Display$GT$3fmt17hebf3329e372ab9daE', symObjAddr: 0x0, symBinAddr: 0x100540, symSize: 0x20 }
  - { offsetInCU: 0xB9, offset: 0x4ABC7E, size: 0x8, addend: 0x0, symName: '__ZN58_$LT$alloc..string..String$u20$as$u20$core..fmt..Write$GT$10write_char17hd329c0cb943f081aE', symObjAddr: 0x60, symBinAddr: 0x1005A0, symSize: 0x130 }
  - { offsetInCU: 0x460, offset: 0x4AC025, size: 0x8, addend: 0x0, symName: '__ZN58_$LT$alloc..string..String$u20$as$u20$core..fmt..Write$GT$9write_str17h1ff5aa96ca91c6d5E', symObjAddr: 0x190, symBinAddr: 0x1006D0, symSize: 0x5B }
  - { offsetInCU: 0x986, offset: 0x4AC54B, size: 0x8, addend: 0x0, symName: '__ZN4core3ptr42drop_in_place$LT$alloc..string..String$GT$17h5212a25f3591ed4cE', symObjAddr: 0x40, symBinAddr: 0x100580, symSize: 0x20 }
  - { offsetInCU: 0xC51, offset: 0x4AC816, size: 0x8, addend: 0x0, symName: '__ZN44_$LT$$RF$T$u20$as$u20$core..fmt..Display$GT$3fmt17hebf3329e372ab9daE', symObjAddr: 0x0, symBinAddr: 0x100540, symSize: 0x20 }
  - { offsetInCU: 0xCF8, offset: 0x4AC8BD, size: 0x8, addend: 0x0, symName: __ZN4core3fmt5Write9write_fmt17h0dddd9015fe2343cE, symObjAddr: 0x20, symBinAddr: 0x100560, symSize: 0x20 }
  - { offsetInCU: 0x1E, offset: 0x4AD331, size: 0x8, addend: 0x0, symName: __ZN4core4hash11BuildHasher8hash_one17hf819bc340c777736E, symObjAddr: 0x0, symBinAddr: 0x100730, symSize: 0x143 }
  - { offsetInCU: 0x232, offset: 0x4AD545, size: 0x8, addend: 0x0, symName: __ZN4core4hash11BuildHasher8hash_one17hf819bc340c777736E, symObjAddr: 0x0, symBinAddr: 0x100730, symSize: 0x143 }
  - { offsetInCU: 0x429, offset: 0x4AE53D, size: 0x8, addend: 0x0, symName: '__ZN4core3ptr44drop_in_place$LT$syn..lifetime..Lifetime$GT$17h263f9508be5fff98E.llvm.17941492585673063191', symObjAddr: 0x20, symBinAddr: 0x100880, symSize: 0x30 }
  - { offsetInCU: 0xF93, offset: 0x4AF0A7, size: 0x8, addend: 0x0, symName: '__ZN5alloc11collections5btree3map5entry28VacantEntry$LT$K$C$V$C$A$GT$6insert17hba281c37f4c63cc8E', symObjAddr: 0x50, symBinAddr: 0x1008B0, symSize: 0x120 }
  - { offsetInCU: 0x135E, offset: 0x4AF472, size: 0x8, addend: 0x0, symName: '__ZN5alloc11collections5btree3map5entry28VacantEntry$LT$K$C$V$C$A$GT$6insert17he07905eda071b288E', symObjAddr: 0x170, symBinAddr: 0x1009D0, symSize: 0x100 }
  - { offsetInCU: 0x1E, offset: 0x4B0D10, size: 0x8, addend: 0x0, symName: '__ZN4core3ops8function5impls80_$LT$impl$u20$core..ops..function..FnOnce$LT$A$GT$$u20$for$u20$$RF$mut$u20$F$GT$9call_once17he18b30593b7c267fE', symObjAddr: 0x0, symBinAddr: 0x100AD0, symSize: 0x153 }
  - { offsetInCU: 0x699, offset: 0x4B138B, size: 0x8, addend: 0x0, symName: '__ZN4core3ops8function5impls80_$LT$impl$u20$core..ops..function..FnOnce$LT$A$GT$$u20$for$u20$$RF$mut$u20$F$GT$9call_once17he18b30593b7c267fE', symObjAddr: 0x0, symBinAddr: 0x100AD0, symSize: 0x153 }
  - { offsetInCU: 0x1E, offset: 0x4BA1B3, size: 0x8, addend: 0x0, symName: '__ZN10proc_macro6bridge100_$LT$impl$u20$proc_macro..bridge..rpc..Encode$LT$S$GT$$u20$for$u20$core..option..Option$LT$T$GT$$GT$6encode17h12b7bc67946715faE', symObjAddr: 0x0, symBinAddr: 0x100C30, symSize: 0x4F0 }
  - { offsetInCU: 0x437, offset: 0x4BA5CC, size: 0x8, addend: 0x0, symName: '__ZN10proc_macro6bridge100_$LT$impl$u20$proc_macro..bridge..rpc..Encode$LT$S$GT$$u20$for$u20$core..option..Option$LT$T$GT$$GT$6encode17h12b7bc67946715faE', symObjAddr: 0x0, symBinAddr: 0x100C30, symSize: 0x4F0 }
  - { offsetInCU: 0xD01, offset: 0x4BAE96, size: 0x8, addend: 0x0, symName: '__ZN10proc_macro6bridge100_$LT$impl$u20$proc_macro..bridge..rpc..Encode$LT$S$GT$$u20$for$u20$core..option..Option$LT$T$GT$$GT$6encode17hc3216ac93ee29b3eE', symObjAddr: 0x4F0, symBinAddr: 0x101120, symSize: 0x370 }
  - { offsetInCU: 0x1E, offset: 0x4BBA01, size: 0x8, addend: 0x0, symName: '__ZN4core3ptr45drop_in_place$LT$proc_macro2..TokenStream$GT$17hcbbbd6ac69a3e46cE', symObjAddr: 0x0, symBinAddr: 0x101490, symSize: 0x140 }
  - { offsetInCU: 0x1159, offset: 0x4BCB3C, size: 0x8, addend: 0x0, symName: '__ZN4core3ptr45drop_in_place$LT$proc_macro2..TokenStream$GT$17hcbbbd6ac69a3e46cE', symObjAddr: 0x0, symBinAddr: 0x101490, symSize: 0x140 }
  - { offsetInCU: 0x8A0A, offset: 0x4C43ED, size: 0x8, addend: 0x0, symName: __ZN12serde_derive5dummy13wrap_in_const17h68f1a5e9bffbcd30E, symObjAddr: 0x140, symBinAddr: 0x1015D0, symSize: 0x593 }
  - { offsetInCU: 0x1E, offset: 0x4C48DB, size: 0x8, addend: 0x0, symName: '__ZN4core3ptr43drop_in_place$LT$proc_macro2..TokenTree$GT$17h580b911abc7fb97bE.llvm.5441665744393467581', symObjAddr: 0x0, symBinAddr: 0x101B70, symSize: 0xB0 }
  - { offsetInCU: 0xF30, offset: 0x4C57ED, size: 0x8, addend: 0x0, symName: '__ZN4core3ptr43drop_in_place$LT$proc_macro2..TokenTree$GT$17h580b911abc7fb97bE.llvm.5441665744393467581', symObjAddr: 0x0, symBinAddr: 0x101B70, symSize: 0xB0 }
  - { offsetInCU: 0x1A74, offset: 0x4C6331, size: 0x8, addend: 0x0, symName: __ZN12serde_derive9internals6respan6respan17h170c9c5aac9090e0E, symObjAddr: 0xB0, symBinAddr: 0x101C20, symSize: 0xF0 }
  - { offsetInCU: 0x1CC8, offset: 0x4C6585, size: 0x8, addend: 0x0, symName: __ZN12serde_derive9internals6respan12respan_token17h5e511259919d567fE, symObjAddr: 0x1A0, symBinAddr: 0x101D10, symSize: 0x201 }
  - { offsetInCU: 0x1E, offset: 0x4C6E68, size: 0x8, addend: 0x0, symName: '__ZN10proc_macro6bridge104_$LT$impl$u20$proc_macro..bridge..rpc..Encode$LT$S$GT$$u20$for$u20$core..result..Result$LT$T$C$E$GT$$GT$6encode17h1a75d340f136b3a7E', symObjAddr: 0x0, symBinAddr: 0x101F20, symSize: 0x3B0 }
  - { offsetInCU: 0x192, offset: 0x4C6FDC, size: 0x8, addend: 0x0, symName: '__ZN10proc_macro6bridge104_$LT$impl$u20$proc_macro..bridge..rpc..Encode$LT$S$GT$$u20$for$u20$core..result..Result$LT$T$C$E$GT$$GT$6encode17h1a75d340f136b3a7E', symObjAddr: 0x0, symBinAddr: 0x101F20, symSize: 0x3B0 }
  - { offsetInCU: 0x786, offset: 0x4C75D0, size: 0x8, addend: 0x0, symName: '__ZN10proc_macro6bridge104_$LT$impl$u20$proc_macro..bridge..rpc..Encode$LT$S$GT$$u20$for$u20$core..result..Result$LT$T$C$E$GT$$GT$6encode17h2595d6d2504226a3E', symObjAddr: 0x3B0, symBinAddr: 0x1022D0, symSize: 0x441 }
  - { offsetInCU: 0xBE6, offset: 0x4C93D6, size: 0x8, addend: 0x0, symName: '__ZN4core3ptr165drop_in_place$LT$core..iter..adapters..map..Map$LT$proc_macro2..token_stream..IntoIter$C$serde_derive..internals..respan..respan..$u7b$$u7b$closure$u7d$$u7d$$GT$$GT$17h4dd21d5a8f19aacfE.llvm.17285772418670506517', symObjAddr: 0xB0, symBinAddr: 0x102720, symSize: 0x20 }
  - { offsetInCU: 0xBEA, offset: 0x4CA51C, size: 0x8, addend: 0x0, symName: '__ZN4core3ptr45drop_in_place$LT$proc_macro2..TokenStream$GT$17hcbbbd6ac69a3e46cE.llvm.4135370439240677132', symObjAddr: 0xA0, symBinAddr: 0x102740, symSize: 0x140 }
  - { offsetInCU: 0x1E, offset: 0x4CB0F5, size: 0x8, addend: 0x0, symName: __ZN10proc_macro6bridge14selfless_reify31reify_to_extern_c_fn_hrt_bridge7wrapper17h160f114650cb1b36E, symObjAddr: 0x0, symBinAddr: 0x102880, symSize: 0x20 }
  - { offsetInCU: 0x1BC, offset: 0x4CB293, size: 0x8, addend: 0x0, symName: __ZN10proc_macro6bridge14selfless_reify31reify_to_extern_c_fn_hrt_bridge7wrapper17h160f114650cb1b36E, symObjAddr: 0x0, symBinAddr: 0x102880, symSize: 0x20 }
  - { offsetInCU: 0x234, offset: 0x4CB30B, size: 0x8, addend: 0x0, symName: __ZN10proc_macro6bridge14selfless_reify31reify_to_extern_c_fn_hrt_bridge7wrapper17h8473fc6b29b9cdc1E, symObjAddr: 0x20, symBinAddr: 0x1028A0, symSize: 0x20 }
  - { offsetInCU: 0x1E, offset: 0x4CB533, size: 0x8, addend: 0x0, symName: '__ZN4core3ptr45drop_in_place$LT$proc_macro2..TokenStream$GT$17hcbbbd6ac69a3e46cE.llvm.6309662991260662798', symObjAddr: 0x0, symBinAddr: 0x1028C0, symSize: 0x140 }
  - { offsetInCU: 0x1159, offset: 0x4CC66E, size: 0x8, addend: 0x0, symName: '__ZN4core3ptr45drop_in_place$LT$proc_macro2..TokenStream$GT$17hcbbbd6ac69a3e46cE.llvm.6309662991260662798', symObjAddr: 0x0, symBinAddr: 0x1028C0, symSize: 0x140 }
  - { offsetInCU: 0x3F88, offset: 0x4CF49D, size: 0x8, addend: 0x0, symName: __ZN5quote9to_tokens8ToTokens17into_token_stream17he2f90cd2e69d7becE, symObjAddr: 0x220, symBinAddr: 0x102A00, symSize: 0x70 }
  - { offsetInCU: 0x1E, offset: 0x4D42BE, size: 0x8, addend: 0x0, symName: '__ZN114_$LT$proc_macro..TokenStream$u20$as$u20$core..iter..traits..collect..FromIterator$LT$proc_macro..TokenTree$GT$$GT$9from_iter17h8f8df125524d3e0aE', symObjAddr: 0x0, symBinAddr: 0x102A70, symSize: 0xE0 }
  - { offsetInCU: 0x527, offset: 0x4D47C7, size: 0x8, addend: 0x0, symName: '__ZN114_$LT$proc_macro..TokenStream$u20$as$u20$core..iter..traits..collect..FromIterator$LT$proc_macro..TokenTree$GT$$GT$9from_iter17h8f8df125524d3e0aE', symObjAddr: 0x0, symBinAddr: 0x102A70, symSize: 0xE0 }
  - { offsetInCU: 0xF84, offset: 0x4D5224, size: 0x8, addend: 0x0, symName: '__ZN4core3ptr243drop_in_place$LT$core..iter..adapters..map..Map$LT$core..iter..adapters..map..Map$LT$proc_macro2..token_stream..IntoIter$C$serde_derive..internals..respan..respan..$u7b$$u7b$closure$u7d$$u7d$$GT$$C$proc_macro2..imp..into_compiler_token$GT$$GT$17hee9704ac1cb8cc54E.llvm.7405924713741781539', symObjAddr: 0xE0, symBinAddr: 0x102B50, symSize: 0x20 }
  - { offsetInCU: 0x10C3, offset: 0x4D5363, size: 0x8, addend: 0x0, symName: '__ZN4core3ptr50drop_in_place$LT$proc_macro..ConcatTreesHelper$GT$17h100d27ff4a81dc9aE.llvm.7405924713741781539', symObjAddr: 0x100, symBinAddr: 0x102B70, symSize: 0x117 }
  - { offsetInCU: 0x1E, offset: 0x4D5FD8, size: 0x8, addend: 0x0, symName: '__ZN75_$LT$serde_derive..fragment..Expr$u20$as$u20$quote..to_tokens..ToTokens$GT$9to_tokens17hf8550d7b140d50dfE', symObjAddr: 0x0, symBinAddr: 0x102C90, symSize: 0xB0 }
  - { offsetInCU: 0xAD, offset: 0x4D6067, size: 0x8, addend: 0x0, symName: '__ZN75_$LT$serde_derive..fragment..Expr$u20$as$u20$quote..to_tokens..ToTokens$GT$9to_tokens17hf8550d7b140d50dfE', symObjAddr: 0x0, symBinAddr: 0x102C90, symSize: 0xB0 }
  - { offsetInCU: 0x1A6, offset: 0x4D6160, size: 0x8, addend: 0x0, symName: '__ZN76_$LT$serde_derive..fragment..Match$u20$as$u20$quote..to_tokens..ToTokens$GT$9to_tokens17h98aa7cfc5a9b47beE', symObjAddr: 0xC0, symBinAddr: 0x102D40, symSize: 0xBA }
  - { offsetInCU: 0x1E, offset: 0x4D72A2, size: 0x8, addend: 0x0, symName: '__ZN4core3ptr45drop_in_place$LT$proc_macro2..TokenStream$GT$17hcbbbd6ac69a3e46cE.llvm.14973870157577909903', symObjAddr: 0x0, symBinAddr: 0x102E00, symSize: 0x140 }
  - { offsetInCU: 0xA81, offset: 0x4D7D05, size: 0x8, addend: 0x0, symName: '__ZN4core3ptr45drop_in_place$LT$proc_macro2..TokenStream$GT$17hcbbbd6ac69a3e46cE.llvm.14973870157577909903', symObjAddr: 0x0, symBinAddr: 0x102E00, symSize: 0x140 }
  - { offsetInCU: 0x1E, offset: 0x4D8A55, size: 0x8, addend: 0x0, symName: '__ZN44_$LT$$RF$T$u20$as$u20$core..fmt..Display$GT$3fmt17h62cc3afaca7c2a52E', symObjAddr: 0x0, symBinAddr: 0x102F40, symSize: 0x10 }
  - { offsetInCU: 0x64, offset: 0x4D8A9B, size: 0x8, addend: 0x0, symName: '__ZN44_$LT$$RF$T$u20$as$u20$core..fmt..Display$GT$3fmt17h62cc3afaca7c2a52E', symObjAddr: 0x0, symBinAddr: 0x102F40, symSize: 0x10 }
  - { offsetInCU: 0xE30, offset: 0x4D9867, size: 0x8, addend: 0x0, symName: __ZN5quote9to_tokens8ToTokens17into_token_stream17h1cc7c0b032aea713E, symObjAddr: 0x10, symBinAddr: 0x102F50, symSize: 0x10A }
  - { offsetInCU: 0x1E, offset: 0x4DA22A, size: 0x8, addend: 0x0, symName: __ZN5quote9to_tokens8ToTokens17into_token_stream17ha5efb7ec547fc1deE, symObjAddr: 0x0, symBinAddr: 0x103060, symSize: 0x10A }
  - { offsetInCU: 0x906, offset: 0x4DAB12, size: 0x8, addend: 0x0, symName: __ZN5quote9to_tokens8ToTokens17into_token_stream17ha5efb7ec547fc1deE, symObjAddr: 0x0, symBinAddr: 0x103060, symSize: 0x10A }
  - { offsetInCU: 0x1E, offset: 0x4E2DCA, size: 0x8, addend: 0x0, symName: '__ZN44_$LT$$RF$T$u20$as$u20$core..fmt..Display$GT$3fmt17h40ea5140b36dc87cE', symObjAddr: 0x0, symBinAddr: 0x103170, symSize: 0x17 }
  - { offsetInCU: 0x64, offset: 0x4E2E10, size: 0x8, addend: 0x0, symName: '__ZN44_$LT$$RF$T$u20$as$u20$core..fmt..Display$GT$3fmt17h40ea5140b36dc87cE', symObjAddr: 0x0, symBinAddr: 0x103170, symSize: 0x17 }
  - { offsetInCU: 0x1E, offset: 0x4E3069, size: 0x8, addend: 0x0, symName: '__ZN77_$LT$$LP$A$C$B$RP$$u20$as$u20$proc_macro..bridge..rpc..DecodeMut$LT$S$GT$$GT$6decode17h43edbfe585a6ca16E', symObjAddr: 0x0, symBinAddr: 0x103190, symSize: 0xD6 }
  - { offsetInCU: 0xB0, offset: 0x4E30FB, size: 0x8, addend: 0x0, symName: '__ZN77_$LT$$LP$A$C$B$RP$$u20$as$u20$proc_macro..bridge..rpc..DecodeMut$LT$S$GT$$GT$6decode17h43edbfe585a6ca16E', symObjAddr: 0x0, symBinAddr: 0x103190, symSize: 0xD6 }
  - { offsetInCU: 0x1E, offset: 0x4E426E, size: 0x8, addend: 0x0, symName: __ZN3std10sys_common9backtrace26__rust_end_short_backtrace17h00631678823e7a80E, symObjAddr: 0x0, symBinAddr: 0x103270, symSize: 0x10 }
  - { offsetInCU: 0x83, offset: 0x4E42D3, size: 0x8, addend: 0x0, symName: '__ZN3std9panicking11begin_panic28_$u7b$$u7b$closure$u7d$$u7d$17hc2fa5969a5eb3b88E', symObjAddr: 0x10, symBinAddr: 0x103280, symSize: 0x40 }
  - { offsetInCU: 0x121, offset: 0x4E4371, size: 0x8, addend: 0x0, symName: __ZN3std10sys_common9backtrace26__rust_end_short_backtrace17h00631678823e7a80E, symObjAddr: 0x0, symBinAddr: 0x103270, symSize: 0x10 }
  - { offsetInCU: 0x1FB, offset: 0x4E444B, size: 0x8, addend: 0x0, symName: '__ZN4core3ptr72drop_in_place$LT$std..panicking..begin_panic..Payload$LT$$RF$str$GT$$GT$17h2ca7f49ad7b8466aE', symObjAddr: 0x50, symBinAddr: 0x1032C0, symSize: 0x6 }
  - { offsetInCU: 0x1E, offset: 0x4E4519, size: 0x8, addend: 0x0, symName: '__ZN36_$LT$T$u20$as$u20$core..any..Any$GT$7type_id17h4695c59aa277c850E', symObjAddr: 0x0, symBinAddr: 0x1032D0, symSize: 0x1A }
  - { offsetInCU: 0x3A, offset: 0x4E4535, size: 0x8, addend: 0x0, symName: '__ZN36_$LT$T$u20$as$u20$core..any..Any$GT$7type_id17h4695c59aa277c850E', symObjAddr: 0x0, symBinAddr: 0x1032D0, symSize: 0x1A }
  - { offsetInCU: 0x1E, offset: 0x4E45E6, size: 0x8, addend: 0x0, symName: '__ZN86_$LT$quote..__private..IdentFragmentAdapter$LT$T$GT$$u20$as$u20$core..fmt..Display$GT$3fmt17h4f26e90ab2c38e24E', symObjAddr: 0x0, symBinAddr: 0x1032F0, symSize: 0xD }
  - { offsetInCU: 0x77, offset: 0x4E463F, size: 0x8, addend: 0x0, symName: '__ZN86_$LT$quote..__private..IdentFragmentAdapter$LT$T$GT$$u20$as$u20$core..fmt..Display$GT$3fmt17h4f26e90ab2c38e24E', symObjAddr: 0x0, symBinAddr: 0x1032F0, symSize: 0xD }
  - { offsetInCU: 0x1E, offset: 0x4E4933, size: 0x8, addend: 0x0, symName: '__ZN78_$LT$serde_derive..internals..symbol..Symbol$u20$as$u20$core..fmt..Display$GT$3fmt17hc2b5be2c9f91857cE', symObjAddr: 0x0, symBinAddr: 0x103300, symSize: 0x17 }
  - { offsetInCU: 0x1B2, offset: 0x4E4AC7, size: 0x8, addend: 0x0, symName: '__ZN78_$LT$serde_derive..internals..symbol..Symbol$u20$as$u20$core..fmt..Display$GT$3fmt17hc2b5be2c9f91857cE', symObjAddr: 0x0, symBinAddr: 0x103300, symSize: 0x17 }
  - { offsetInCU: 0x4E7F, offset: 0x4E9A4C, size: 0x8, addend: 0x0, symName: '__ZN3syn4item7parsing63_$LT$impl$u20$syn..parse..Parse$u20$for$u20$syn..item..Item$GT$5parse17h2dd33e0a14c1cf15E', symObjAddr: 0xCE00, symBinAddr: 0x10EE90, symSize: 0x1D0 }
  - { offsetInCU: 0x546C, offset: 0x4EA039, size: 0x8, addend: 0x0, symName: '__ZN3syn4item7parsing68_$LT$impl$u20$syn..parse..Parse$u20$for$u20$syn..item..ItemMacro$GT$5parse17hd2dbdd16085cb5b3E', symObjAddr: 0xCFD0, symBinAddr: 0x10F060, symSize: 0x690 }
  - { offsetInCU: 0x60BA, offset: 0x4EAC87, size: 0x8, addend: 0x0, symName: '__ZN3syn4item7parsing74_$LT$impl$u20$syn..parse..Parse$u20$for$u20$syn..item..ItemExternCrate$GT$5parse17h6d92f7f00cd41009E', symObjAddr: 0xD660, symBinAddr: 0x10F6F0, symSize: 0x850 }
  - { offsetInCU: 0x72B1, offset: 0x4EBE7E, size: 0x8, addend: 0x0, symName: '__ZN3syn4item7parsing75_$LT$impl$u20$syn..parse..Parse$u20$for$u20$syn..item..StaticMutability$GT$5parse17haf0db4a36b052efeE', symObjAddr: 0x1E720, symBinAddr: 0x11A2A0, symSize: 0x90 }
  - { offsetInCU: 0x7464, offset: 0x4EC031, size: 0x8, addend: 0x0, symName: '__ZN3syn4item7parsing68_$LT$impl$u20$syn..parse..Parse$u20$for$u20$syn..item..Signature$GT$5parse17h046b786ec6aea09bE', symObjAddr: 0xF5D0, symBinAddr: 0x10FF40, symSize: 0xA00 }
  - { offsetInCU: 0x8090, offset: 0x4ECC5D, size: 0x8, addend: 0x0, symName: '__ZN3syn4item7parsing67_$LT$impl$u20$syn..parse..Parse$u20$for$u20$syn..item..Receiver$GT$5parse17h14ef46bb1836effbE', symObjAddr: 0x10510, symBinAddr: 0x110940, symSize: 0xA40 }
  - { offsetInCU: 0x92AB, offset: 0x4EDE78, size: 0x8, addend: 0x0, symName: '__ZN3syn4item7parsing66_$LT$impl$u20$syn..parse..Parse$u20$for$u20$syn..item..ItemMod$GT$5parse17hdc999b9cf7b8d7bdE', symObjAddr: 0x10F50, symBinAddr: 0x111380, symSize: 0xC30 }
  - { offsetInCU: 0xAE6B, offset: 0x4EFA38, size: 0x8, addend: 0x0, symName: '__ZN3syn4item7parsing73_$LT$impl$u20$syn..parse..Parse$u20$for$u20$syn..item..ItemForeignMod$GT$5parse17h6272e3455d73c09eE', symObjAddr: 0x11B80, symBinAddr: 0x111FB0, symSize: 0x6E0 }
  - { offsetInCU: 0xBCDB, offset: 0x4F08A8, size: 0x8, addend: 0x0, symName: '__ZN3syn4item7parsing70_$LT$impl$u20$syn..parse..Parse$u20$for$u20$syn..item..ForeignItem$GT$5parse17hc264003d8c78165cE', symObjAddr: 0x12260, symBinAddr: 0x112690, symSize: 0x1A40 }
  - { offsetInCU: 0x1004B, offset: 0x4F4C18, size: 0x8, addend: 0x0, symName: '__ZN3syn4item7parsing69_$LT$impl$u20$syn..parse..Parse$u20$for$u20$syn..item..ItemStruct$GT$5parse17h9ee5a6f8e0cb788fE', symObjAddr: 0x15D30, symBinAddr: 0x1140D0, symSize: 0x730 }
  - { offsetInCU: 0x10AC7, offset: 0x4F5694, size: 0x8, addend: 0x0, symName: '__ZN3syn4item7parsing67_$LT$impl$u20$syn..parse..Parse$u20$for$u20$syn..item..ItemEnum$GT$5parse17h3908fae5439ca017E', symObjAddr: 0x16460, symBinAddr: 0x114800, symSize: 0x6A0 }
  - { offsetInCU: 0x11540, offset: 0x4F610D, size: 0x8, addend: 0x0, symName: '__ZN3syn4item7parsing68_$LT$impl$u20$syn..parse..Parse$u20$for$u20$syn..item..ItemUnion$GT$5parse17hcf21badb7f5d91b4E', symObjAddr: 0x16B00, symBinAddr: 0x114EA0, symSize: 0x670 }
  - { offsetInCU: 0x11F9F, offset: 0x4F6B6C, size: 0x8, addend: 0x0, symName: '__ZN3syn4item7parsing68_$LT$impl$u20$syn..parse..Parse$u20$for$u20$syn..item..ItemTrait$GT$5parse17he79f83c126b307abE', symObjAddr: 0x17170, symBinAddr: 0x115510, symSize: 0x690 }
  - { offsetInCU: 0x12C18, offset: 0x4F77E5, size: 0x8, addend: 0x0, symName: '__ZN3syn4item7parsing68_$LT$impl$u20$syn..parse..Parse$u20$for$u20$syn..item..TraitItem$GT$5parse17ha2b7a47a4118920dE', symObjAddr: 0x17940, symBinAddr: 0x115BA0, symSize: 0x1D60 }
  - { offsetInCU: 0x1877F, offset: 0x4FD34C, size: 0x8, addend: 0x0, symName: '__ZN3syn4item7parsing70_$LT$impl$u20$syn..parse..Parse$u20$for$u20$syn..item..TraitItemFn$GT$5parse17h2bd112e785c11adaE', symObjAddr: 0x1A020, symBinAddr: 0x117900, symSize: 0x9A0 }
  - { offsetInCU: 0x19EA2, offset: 0x4FEA6F, size: 0x8, addend: 0x0, symName: '__ZN3syn4item7parsing67_$LT$impl$u20$syn..parse..Parse$u20$for$u20$syn..item..ImplItem$GT$5parse17h7e88a76fe14f8010E', symObjAddr: 0x1B2D0, symBinAddr: 0x1182A0, symSize: 0x1CD0 }
  - { offsetInCU: 0x1F017, offset: 0x503BE4, size: 0x8, addend: 0x0, symName: '__ZN3syn4item7parsing72_$LT$impl$u20$syn..parse..Parse$u20$for$u20$syn..item..ImplItemMacro$GT$5parse17h0ef0a527c904192aE', symObjAddr: 0x1E3F0, symBinAddr: 0x119F70, symSize: 0x0 }
  - { offsetInCU: 0x1F67D, offset: 0x50424A, size: 0x8, addend: 0x0, symName: '__ZN3syn4item8printing83_$LT$impl$u20$quote..to_tokens..ToTokens$u20$for$u20$syn..item..ItemExternCrate$GT$9to_tokens17h3856a361ae758360E', symObjAddr: 0x1E7B0, symBinAddr: 0x11A330, symSize: 0x250 }
  - { offsetInCU: 0x1FC60, offset: 0x50482D, size: 0x8, addend: 0x0, symName: '__ZN3syn4item8printing78_$LT$impl$u20$quote..to_tokens..ToTokens$u20$for$u20$syn..item..ItemStatic$GT$9to_tokens17h415e4cd72a569389E', symObjAddr: 0x1EBA0, symBinAddr: 0x11A580, symSize: 0x230 }
  - { offsetInCU: 0x201C7, offset: 0x504D94, size: 0x8, addend: 0x0, symName: '__ZN3syn4item8printing74_$LT$impl$u20$quote..to_tokens..ToTokens$u20$for$u20$syn..item..ItemFn$GT$9to_tokens17h8cdf913637011784E', symObjAddr: 0x1EFA0, symBinAddr: 0x11A7B0, symSize: 0x3A0 }
  - { offsetInCU: 0x20B66, offset: 0x505733, size: 0x8, addend: 0x0, symName: '__ZN3syn4item8printing75_$LT$impl$u20$quote..to_tokens..ToTokens$u20$for$u20$syn..item..ItemMod$GT$9to_tokens17h22b2effb376191d4E', symObjAddr: 0x1F340, symBinAddr: 0x11AB50, symSize: 0x240 }
  - { offsetInCU: 0x210DD, offset: 0x505CAA, size: 0x8, addend: 0x0, symName: '__ZN3syn4item8printing78_$LT$impl$u20$quote..to_tokens..ToTokens$u20$for$u20$syn..item..ItemStruct$GT$9to_tokens17h37d4984ce3001d19E', symObjAddr: 0x1FA90, symBinAddr: 0x11AD90, symSize: 0x230 }
  - { offsetInCU: 0x214FF, offset: 0x5060CC, size: 0x8, addend: 0x0, symName: '__ZN3syn4item8printing77_$LT$impl$u20$quote..to_tokens..ToTokens$u20$for$u20$syn..item..ItemTrait$GT$9to_tokens17h5df32068ce60d15cE', symObjAddr: 0x1FE50, symBinAddr: 0x11AFC0, symSize: 0x350 }
  - { offsetInCU: 0x21E8C, offset: 0x506A59, size: 0x8, addend: 0x0, symName: '__ZN3syn4item8printing82_$LT$impl$u20$quote..to_tokens..ToTokens$u20$for$u20$syn..item..ItemTraitAlias$GT$9to_tokens17hc929f21bb6c5846dE', symObjAddr: 0x201A0, symBinAddr: 0x11B310, symSize: 0x240 }
  - { offsetInCU: 0x224D1, offset: 0x50709E, size: 0x8, addend: 0x0, symName: '__ZN3syn4item8printing76_$LT$impl$u20$quote..to_tokens..ToTokens$u20$for$u20$syn..item..ItemImpl$GT$9to_tokens17hbc6239c00e6682fbE', symObjAddr: 0x203E0, symBinAddr: 0x11B550, symSize: 0x300 }
  - { offsetInCU: 0x22C5C, offset: 0x507829, size: 0x8, addend: 0x0, symName: '__ZN3syn4item8printing77_$LT$impl$u20$quote..to_tokens..ToTokens$u20$for$u20$syn..item..ItemMacro$GT$9to_tokens17hebd52fd8a1615986E', symObjAddr: 0x206E0, symBinAddr: 0x11B850, symSize: 0x180 }
  - { offsetInCU: 0x23008, offset: 0x507BD5, size: 0x8, addend: 0x0, symName: '__ZN3syn4item8printing82_$LT$impl$u20$quote..to_tokens..ToTokens$u20$for$u20$syn..item..TraitItemConst$GT$9to_tokens17h089a36b809968ef3E', symObjAddr: 0x209B0, symBinAddr: 0x11B9D0, symSize: 0x1D0 }
  - { offsetInCU: 0x23393, offset: 0x507F60, size: 0x8, addend: 0x0, symName: '__ZN3syn4item8printing79_$LT$impl$u20$quote..to_tokens..ToTokens$u20$for$u20$syn..item..TraitItemFn$GT$9to_tokens17haad3b80ba26c3976E', symObjAddr: 0x20B80, symBinAddr: 0x11BBA0, symSize: 0x420 }
  - { offsetInCU: 0x23DD1, offset: 0x50899E, size: 0x8, addend: 0x0, symName: '__ZN3syn4item8printing81_$LT$impl$u20$quote..to_tokens..ToTokens$u20$for$u20$syn..item..TraitItemType$GT$9to_tokens17h64c3182d37c64beaE', symObjAddr: 0x20FA0, symBinAddr: 0x11BFC0, symSize: 0x2B0 }
  - { offsetInCU: 0x24518, offset: 0x5090E5, size: 0x8, addend: 0x0, symName: '__ZN3syn4item8printing81_$LT$impl$u20$quote..to_tokens..ToTokens$u20$for$u20$syn..item..ImplItemConst$GT$9to_tokens17hf0f4212b62d7bc92E', symObjAddr: 0x21250, symBinAddr: 0x11C270, symSize: 0x250 }
  - { offsetInCU: 0x249C8, offset: 0x509595, size: 0x8, addend: 0x0, symName: '__ZN3syn4item8printing78_$LT$impl$u20$quote..to_tokens..ToTokens$u20$for$u20$syn..item..ImplItemFn$GT$9to_tokens17hd72deb71e24247ddE', symObjAddr: 0x214A0, symBinAddr: 0x11C4C0, symSize: 0x410 }
  - { offsetInCU: 0x254BC, offset: 0x50A089, size: 0x8, addend: 0x0, symName: '__ZN3syn4item8printing80_$LT$impl$u20$quote..to_tokens..ToTokens$u20$for$u20$syn..item..ImplItemType$GT$9to_tokens17h633e35cead6fe332E', symObjAddr: 0x218B0, symBinAddr: 0x11C8D0, symSize: 0x240 }
  - { offsetInCU: 0x259A2, offset: 0x50A56F, size: 0x8, addend: 0x0, symName: '__ZN3syn4item8printing81_$LT$impl$u20$quote..to_tokens..ToTokens$u20$for$u20$syn..item..ForeignItemFn$GT$9to_tokens17hf978c504af4624b9E', symObjAddr: 0x21C00, symBinAddr: 0x11CB10, symSize: 0x3C0 }
  - { offsetInCU: 0x26369, offset: 0x50AF36, size: 0x8, addend: 0x0, symName: '__ZN3syn4item8printing85_$LT$impl$u20$quote..to_tokens..ToTokens$u20$for$u20$syn..item..ForeignItemStatic$GT$9to_tokens17h6dca73543b11328bE', symObjAddr: 0x21FC0, symBinAddr: 0x11CED0, symSize: 0x210 }
  - { offsetInCU: 0x26851, offset: 0x50B41E, size: 0x8, addend: 0x0, symName: '__ZN3syn4item8printing76_$LT$impl$u20$quote..to_tokens..ToTokens$u20$for$u20$syn..item..Receiver$GT$9to_tokens17hb998d2cc4ddf9c5aE', symObjAddr: 0x22650, symBinAddr: 0x11D0E0, symSize: 0x2F0 }
  - { offsetInCU: 0x27013, offset: 0x50BBE0, size: 0x8, addend: 0x0, symName: '__ZN3syn4item8printing76_$LT$impl$u20$quote..to_tokens..ToTokens$u20$for$u20$syn..item..Variadic$GT$9to_tokens17h395edb0d0a0434c1E', symObjAddr: 0x22940, symBinAddr: 0x11D3D0, symSize: 0x150 }
  - { offsetInCU: 0x2734A, offset: 0x50BF17, size: 0x8, addend: 0x0, symName: '__ZN62_$LT$syn..item..Item$u20$as$u20$quote..to_tokens..ToTokens$GT$9to_tokens17h16b724a3317228f3E', symObjAddr: 0x22B20, symBinAddr: 0x11D520, symSize: 0xB70 }
  - { offsetInCU: 0x289C3, offset: 0x50D590, size: 0x8, addend: 0x0, symName: '__ZN65_$LT$syn..item..UseTree$u20$as$u20$quote..to_tokens..ToTokens$GT$9to_tokens17h058bd86238a4a925E', symObjAddr: 0x23690, symBinAddr: 0x11E090, symSize: 0x300 }
  - { offsetInCU: 0x29281, offset: 0x50DE4E, size: 0x8, addend: 0x0, symName: '__ZN69_$LT$syn..item..ForeignItem$u20$as$u20$quote..to_tokens..ToTokens$GT$9to_tokens17ha60ee0587a491822E', symObjAddr: 0x23990, symBinAddr: 0x11E390, symSize: 0x320 }
  - { offsetInCU: 0x2982A, offset: 0x50E3F7, size: 0x8, addend: 0x0, symName: '__ZN67_$LT$syn..item..TraitItem$u20$as$u20$quote..to_tokens..ToTokens$GT$9to_tokens17hd73ca22881a357f6E', symObjAddr: 0x23CB0, symBinAddr: 0x11E6B0, symSize: 0x1B0 }
  - { offsetInCU: 0x29B04, offset: 0x50E6D1, size: 0x8, addend: 0x0, symName: '__ZN66_$LT$syn..item..ImplItem$u20$as$u20$quote..to_tokens..ToTokens$GT$9to_tokens17h8caf1b608d7ccb4bE', symObjAddr: 0x23E60, symBinAddr: 0x11E860, symSize: 0x1B0 }
  - { offsetInCU: 0x2A028, offset: 0x50EBF5, size: 0x8, addend: 0x0, symName: '__ZN3syn3gen5clone71_$LT$impl$u20$core..clone..Clone$u20$for$u20$syn..item..ForeignItem$GT$5clone17h1c1af2fb1e22cf37E', symObjAddr: 0x240B0, symBinAddr: 0x11EA10, symSize: 0x2B0 }
  - { offsetInCU: 0x2A440, offset: 0x50F00D, size: 0x8, addend: 0x0, symName: '__ZN3syn3gen5clone77_$LT$impl$u20$core..clone..Clone$u20$for$u20$syn..item..ForeignItemStatic$GT$5clone17h9025ae3b0e2de955E', symObjAddr: 0x24450, symBinAddr: 0x11ECC0, symSize: 0x1E0 }
  - { offsetInCU: 0x2A953, offset: 0x50F520, size: 0x8, addend: 0x0, symName: '__ZN3syn3gen5clone75_$LT$impl$u20$core..clone..Clone$u20$for$u20$syn..item..ForeignItemType$GT$5clone17h01954e3b9fb9f725E', symObjAddr: 0x24630, symBinAddr: 0x11EEA0, symSize: 0x250 }
  - { offsetInCU: 0x2ACD5, offset: 0x50F8A2, size: 0x8, addend: 0x0, symName: '__ZN3syn3gen5clone68_$LT$impl$u20$core..clone..Clone$u20$for$u20$syn..item..ImplItem$GT$5clone17hbbdbceaa9dc75fb8E', symObjAddr: 0x24880, symBinAddr: 0x11F0F0, symSize: 0x1F0 }
  - { offsetInCU: 0x2B047, offset: 0x50FC14, size: 0x8, addend: 0x0, symName: '__ZN3syn3gen5clone73_$LT$impl$u20$core..clone..Clone$u20$for$u20$syn..item..ImplItemConst$GT$5clone17h5bada8c903397ea9E', symObjAddr: 0x24A70, symBinAddr: 0x11F2E0, symSize: 0x390 }
  - { offsetInCU: 0x2B419, offset: 0x50FFE6, size: 0x8, addend: 0x0, symName: '__ZN3syn3gen5clone70_$LT$impl$u20$core..clone..Clone$u20$for$u20$syn..item..ImplItemFn$GT$5clone17h569fe64371aceabcE', symObjAddr: 0x24E00, symBinAddr: 0x11F670, symSize: 0x190 }
  - { offsetInCU: 0x2B49C, offset: 0x510069, size: 0x8, addend: 0x0, symName: '__ZN3syn3gen5clone72_$LT$impl$u20$core..clone..Clone$u20$for$u20$syn..item..ImplItemType$GT$5clone17h1322b0329e89fcb7E', symObjAddr: 0x25020, symBinAddr: 0x11F800, symSize: 0x340 }
  - { offsetInCU: 0x2B840, offset: 0x51040D, size: 0x8, addend: 0x0, symName: '__ZN3syn3gen5clone64_$LT$impl$u20$core..clone..Clone$u20$for$u20$syn..item..Item$GT$5clone17h3822ba1a7b611a95E', symObjAddr: 0x25360, symBinAddr: 0x11FB40, symSize: 0x3E0 }
  - { offsetInCU: 0x2BCCD, offset: 0x51089A, size: 0x8, addend: 0x0, symName: '__ZN3syn3gen5clone69_$LT$impl$u20$core..clone..Clone$u20$for$u20$syn..item..ItemConst$GT$5clone17hf94d4c0cb1435c70E', symObjAddr: 0x25740, symBinAddr: 0x11FF20, symSize: 0x3F0 }
  - { offsetInCU: 0x2C52A, offset: 0x5110F7, size: 0x8, addend: 0x0, symName: '__ZN3syn3gen5clone68_$LT$impl$u20$core..clone..Clone$u20$for$u20$syn..item..ItemEnum$GT$5clone17h6464ab27732649f4E', symObjAddr: 0x25B30, symBinAddr: 0x120310, symSize: 0x2F0 }
  - { offsetInCU: 0x2C859, offset: 0x511426, size: 0x8, addend: 0x0, symName: '__ZN3syn3gen5clone75_$LT$impl$u20$core..clone..Clone$u20$for$u20$syn..item..ItemExternCrate$GT$5clone17hd0b8bc33744042bfE', symObjAddr: 0x25E20, symBinAddr: 0x120600, symSize: 0x190 }
  - { offsetInCU: 0x2CBCE, offset: 0x51179B, size: 0x8, addend: 0x0, symName: '__ZN3syn3gen5clone66_$LT$impl$u20$core..clone..Clone$u20$for$u20$syn..item..ItemFn$GT$5clone17hdd17c93ecf7b0462E', symObjAddr: 0x25FB0, symBinAddr: 0x120790, symSize: 0x1A0 }
  - { offsetInCU: 0x2CE7D, offset: 0x511A4A, size: 0x8, addend: 0x0, symName: '__ZN3syn3gen5clone74_$LT$impl$u20$core..clone..Clone$u20$for$u20$syn..item..ItemForeignMod$GT$5clone17hd37d574f73aedecaE', symObjAddr: 0x26150, symBinAddr: 0x120930, symSize: 0xF0 }
  - { offsetInCU: 0x2CFC7, offset: 0x511B94, size: 0x8, addend: 0x0, symName: '__ZN3syn3gen5clone68_$LT$impl$u20$core..clone..Clone$u20$for$u20$syn..item..ItemImpl$GT$5clone17h661327ebe729eaadE', symObjAddr: 0x26240, symBinAddr: 0x120A20, symSize: 0x400 }
  - { offsetInCU: 0x2D4B5, offset: 0x512082, size: 0x8, addend: 0x0, symName: '__ZN3syn3gen5clone69_$LT$impl$u20$core..clone..Clone$u20$for$u20$syn..item..ItemMacro$GT$5clone17h3526bbfccdbd5b31E', symObjAddr: 0x26640, symBinAddr: 0x120E20, symSize: 0x110 }
  - { offsetInCU: 0x2D720, offset: 0x5122ED, size: 0x8, addend: 0x0, symName: '__ZN3syn3gen5clone67_$LT$impl$u20$core..clone..Clone$u20$for$u20$syn..item..ItemMod$GT$5clone17h8794abff9978c514E', symObjAddr: 0x26750, symBinAddr: 0x120F30, symSize: 0x1D0 }
  - { offsetInCU: 0x2DA28, offset: 0x5125F5, size: 0x8, addend: 0x0, symName: '__ZN3syn3gen5clone70_$LT$impl$u20$core..clone..Clone$u20$for$u20$syn..item..ItemStatic$GT$5clone17h61a9dbf1056765ccE', symObjAddr: 0x26920, symBinAddr: 0x121100, symSize: 0x290 }
  - { offsetInCU: 0x2E1AE, offset: 0x512D7B, size: 0x8, addend: 0x0, symName: '__ZN3syn3gen5clone70_$LT$impl$u20$core..clone..Clone$u20$for$u20$syn..item..ItemStruct$GT$5clone17heb954f61bacea375E', symObjAddr: 0x26BB0, symBinAddr: 0x121390, symSize: 0x380 }
  - { offsetInCU: 0x2E57C, offset: 0x513149, size: 0x8, addend: 0x0, symName: '__ZN3syn3gen5clone69_$LT$impl$u20$core..clone..Clone$u20$for$u20$syn..item..ItemTrait$GT$5clone17h82453ad16e043bb6E', symObjAddr: 0x26F30, symBinAddr: 0x121710, symSize: 0x3A0 }
  - { offsetInCU: 0x2E91B, offset: 0x5134E8, size: 0x8, addend: 0x0, symName: '__ZN3syn3gen5clone74_$LT$impl$u20$core..clone..Clone$u20$for$u20$syn..item..ItemTraitAlias$GT$5clone17h5350a93e40fedfe9E', symObjAddr: 0x272D0, symBinAddr: 0x121AB0, symSize: 0x2F0 }
  - { offsetInCU: 0x2ECA6, offset: 0x513873, size: 0x8, addend: 0x0, symName: '__ZN3syn3gen5clone68_$LT$impl$u20$core..clone..Clone$u20$for$u20$syn..item..ItemType$GT$5clone17hb9556c5f3da70cdaE', symObjAddr: 0x275C0, symBinAddr: 0x121DA0, symSize: 0x330 }
  - { offsetInCU: 0x2F28E, offset: 0x513E5B, size: 0x8, addend: 0x0, symName: '__ZN3syn3gen5clone69_$LT$impl$u20$core..clone..Clone$u20$for$u20$syn..item..ItemUnion$GT$5clone17hb2c9b467b08be8acE', symObjAddr: 0x278F0, symBinAddr: 0x1220D0, symSize: 0x340 }
  - { offsetInCU: 0x2F5DC, offset: 0x5141A9, size: 0x8, addend: 0x0, symName: '__ZN3syn3gen5clone67_$LT$impl$u20$core..clone..Clone$u20$for$u20$syn..item..ItemUse$GT$5clone17h5fb5ac7ab331a1f9E', symObjAddr: 0x27C30, symBinAddr: 0x122410, symSize: 0x130 }
  - { offsetInCU: 0x2F69C, offset: 0x514269, size: 0x8, addend: 0x0, symName: '__ZN3syn3gen5clone68_$LT$impl$u20$core..clone..Clone$u20$for$u20$syn..item..Receiver$GT$5clone17he1632aad4eb00ea9E', symObjAddr: 0x27D60, symBinAddr: 0x122540, symSize: 0x1C0 }
  - { offsetInCU: 0x2FB22, offset: 0x5146EF, size: 0x8, addend: 0x0, symName: '__ZN3syn3gen5clone69_$LT$impl$u20$core..clone..Clone$u20$for$u20$syn..item..Signature$GT$5clone17hcd624a7329112f28E', symObjAddr: 0x27F20, symBinAddr: 0x122700, symSize: 0x550 }
  - { offsetInCU: 0x302F1, offset: 0x514EBE, size: 0x8, addend: 0x0, symName: '__ZN3syn3gen5clone69_$LT$impl$u20$core..clone..Clone$u20$for$u20$syn..item..TraitItem$GT$5clone17h91969da39aa9081aE', symObjAddr: 0x28470, symBinAddr: 0x122C50, symSize: 0x1F0 }
  - { offsetInCU: 0x30663, offset: 0x515230, size: 0x8, addend: 0x0, symName: '__ZN3syn3gen5clone74_$LT$impl$u20$core..clone..Clone$u20$for$u20$syn..item..TraitItemConst$GT$5clone17h7b25f837a5eddbbaE', symObjAddr: 0x28660, symBinAddr: 0x122E40, symSize: 0x350 }
  - { offsetInCU: 0x30A3F, offset: 0x51560C, size: 0x8, addend: 0x0, symName: '__ZN3syn3gen5clone71_$LT$impl$u20$core..clone..Clone$u20$for$u20$syn..item..TraitItemFn$GT$5clone17h6b12e4721dd5a3afE', symObjAddr: 0x289B0, symBinAddr: 0x123190, symSize: 0x140 }
  - { offsetInCU: 0x30B08, offset: 0x5156D5, size: 0x8, addend: 0x0, symName: '__ZN3syn3gen5clone73_$LT$impl$u20$core..clone..Clone$u20$for$u20$syn..item..TraitItemType$GT$5clone17h03e91f5baa26948fE', symObjAddr: 0x28AF0, symBinAddr: 0x1232D0, symSize: 0x360 }
  - { offsetInCU: 0x30F95, offset: 0x515B62, size: 0x8, addend: 0x0, symName: '__ZN3syn3gen5clone67_$LT$impl$u20$core..clone..Clone$u20$for$u20$syn..item..UseTree$GT$5clone17hecc6e062c969de2cE', symObjAddr: 0x29140, symBinAddr: 0x123630, symSize: 0x390 }
  - { offsetInCU: 0x319B8, offset: 0x516585, size: 0x8, addend: 0x0, symName: '__ZN3syn3gen5clone68_$LT$impl$u20$core..clone..Clone$u20$for$u20$syn..item..Variadic$GT$5clone17h5d88b3ac0ece19b6E', symObjAddr: 0x294D0, symBinAddr: 0x1239C0, symSize: 0x110 }
  - { offsetInCU: 0x34218, offset: 0x518DE5, size: 0x8, addend: 0x0, symName: '__ZN4core3ptr100drop_in_place$LT$core..option..Option$LT$alloc..boxed..Box$LT$syn..path..GenericArgument$GT$$GT$$GT$17h7435c9de74860622E', symObjAddr: 0x300, symBinAddr: 0x103370, symSize: 0x50 }
  - { offsetInCU: 0x345B8, offset: 0x519185, size: 0x8, addend: 0x0, symName: '__ZN4core3ptr100drop_in_place$LT$syn..punctuated..Punctuated$LT$syn..path..PathSegment$C$syn..token..PathSep$GT$$GT$17hf414cb3581f8337aE', symObjAddr: 0x350, symBinAddr: 0x1033C0, symSize: 0x260 }
  - { offsetInCU: 0x34F51, offset: 0x519B1E, size: 0x8, addend: 0x0, symName: '__ZN4core3ptr103drop_in_place$LT$core..option..Option$LT$alloc..boxed..Box$LT$syn..generics..TypeParamBound$GT$$GT$$GT$17h5974f03e36b1a9c3E', symObjAddr: 0x5C0, symBinAddr: 0x103620, symSize: 0x50 }
  - { offsetInCU: 0x3519C, offset: 0x519D69, size: 0x8, addend: 0x0, symName: '__ZN4core3ptr103drop_in_place$LT$core..option..Option$LT$alloc..boxed..Box$LT$syn..generics..WherePredicate$GT$$GT$$GT$17hdd5111a374d8d6f2E', symObjAddr: 0x610, symBinAddr: 0x103670, symSize: 0xD0 }
  - { offsetInCU: 0x3552F, offset: 0x51A0FC, size: 0x8, addend: 0x0, symName: '__ZN4core3ptr103drop_in_place$LT$syn..punctuated..Punctuated$LT$syn..generics..GenericParam$C$syn..token..Comma$GT$$GT$17hf42353fa44ed6da8E', symObjAddr: 0x6E0, symBinAddr: 0x103740, symSize: 0xF0 }
  - { offsetInCU: 0x35995, offset: 0x51A562, size: 0x8, addend: 0x0, symName: '__ZN4core3ptr104drop_in_place$LT$syn..punctuated..Punctuated$LT$syn..generics..TypeParamBound$C$syn..token..Plus$GT$$GT$17h532f52c4a894b056E', symObjAddr: 0x7D0, symBinAddr: 0x103830, symSize: 0x190 }
  - { offsetInCU: 0x35FAB, offset: 0x51AB78, size: 0x8, addend: 0x0, symName: '__ZN4core3ptr107drop_in_place$LT$$LP$syn..restriction..Visibility$C$core..option..Option$LT$syn..token..Default$GT$$RP$$GT$17h8ea01d3f0e99b7f1E', symObjAddr: 0x960, symBinAddr: 0x1039C0, symSize: 0x60 }
  - { offsetInCU: 0x3617A, offset: 0x51AD47, size: 0x8, addend: 0x0, symName: '__ZN4core3ptr115drop_in_place$LT$core..option..Option$LT$$LP$alloc..boxed..Box$LT$syn..pat..Pat$GT$$C$syn..token..Colon$RP$$GT$$GT$17he854acc3c4717d92E', symObjAddr: 0x9C0, symBinAddr: 0x103A20, symSize: 0x50 }
  - { offsetInCU: 0x3634E, offset: 0x51AF1B, size: 0x8, addend: 0x0, symName: '__ZN4core3ptr115drop_in_place$LT$core..option..Option$LT$$LP$syn..token..Brace$C$alloc..vec..Vec$LT$syn..item..Item$GT$$RP$$GT$$GT$17h6df5bf3d47177236E', symObjAddr: 0xA10, symBinAddr: 0x103A70, symSize: 0xE0 }
  - { offsetInCU: 0x365F5, offset: 0x51B1C2, size: 0x8, addend: 0x0, symName: '__ZN4core3ptr126drop_in_place$LT$core..option..Option$LT$$LP$syn..token..And$C$core..option..Option$LT$syn..lifetime..Lifetime$GT$$RP$$GT$$GT$17hc269ac95805979aaE', symObjAddr: 0xAF0, symBinAddr: 0x103B50, symSize: 0x30 }
  - { offsetInCU: 0x368A4, offset: 0x51B471, size: 0x8, addend: 0x0, symName: '__ZN4core3ptr34drop_in_place$LT$syn..lit..Lit$GT$17h8902f5ff67917034E', symObjAddr: 0xBA0, symBinAddr: 0x103B80, symSize: 0x110 }
  - { offsetInCU: 0x36DDE, offset: 0x51B9AB, size: 0x8, addend: 0x0, symName: '__ZN4core3ptr34drop_in_place$LT$syn..pat..Pat$GT$17h4581eea028ec0969E', symObjAddr: 0xCB0, symBinAddr: 0x103C90, symSize: 0x1000 }
  - { offsetInCU: 0x3A868, offset: 0x51F435, size: 0x8, addend: 0x0, symName: '__ZN4core3ptr34drop_in_place$LT$syn..ty..Type$GT$17h369e41ad4a9f1ae0E', symObjAddr: 0x1CB0, symBinAddr: 0x104C90, symSize: 0x500 }
  - { offsetInCU: 0x3BDE3, offset: 0x5209B0, size: 0x8, addend: 0x0, symName: '__ZN4core3ptr36drop_in_place$LT$syn..expr..Expr$GT$17h0f7fd4c749bae801E', symObjAddr: 0x21B0, symBinAddr: 0x105190, symSize: 0x28E0 }
  - { offsetInCU: 0x456B2, offset: 0x52A27F, size: 0x8, addend: 0x0, symName: '__ZN4core3ptr36drop_in_place$LT$syn..item..Item$GT$17h13f5a53479ba6379E', symObjAddr: 0x4A90, symBinAddr: 0x107A70, symSize: 0x1990 }
  - { offsetInCU: 0x4B35D, offset: 0x52FF2A, size: 0x8, addend: 0x0, symName: '__ZN4core3ptr36drop_in_place$LT$syn..mac..Macro$GT$17h4ffde962df30ebe2E', symObjAddr: 0x6420, symBinAddr: 0x109400, symSize: 0x40 }
  - { offsetInCU: 0x4B397, offset: 0x52FF64, size: 0x8, addend: 0x0, symName: '__ZN4core3ptr36drop_in_place$LT$syn..path..Path$GT$17habea856181211e1cE', symObjAddr: 0x6460, symBinAddr: 0x109440, symSize: 0x220 }
  - { offsetInCU: 0x4BCCC, offset: 0x530899, size: 0x8, addend: 0x0, symName: '__ZN4core3ptr37drop_in_place$LT$syn..stmt..Block$GT$17hcc21a21cf949414cE', symObjAddr: 0x6680, symBinAddr: 0x109660, symSize: 0xD0 }
  - { offsetInCU: 0x4BF8F, offset: 0x530B5C, size: 0x8, addend: 0x0, symName: '__ZN4core3ptr38drop_in_place$LT$syn..data..Fields$GT$17h1dd1b203befc1316E', symObjAddr: 0x6750, symBinAddr: 0x109730, symSize: 0x190 }
  - { offsetInCU: 0x4C3AD, offset: 0x530F7A, size: 0x8, addend: 0x0, symName: '__ZN4core3ptr38drop_in_place$LT$syn..expr..Member$GT$17h022cbe5553aa40faE', symObjAddr: 0x68E0, symBinAddr: 0x1098C0, symSize: 0x30 }
  - { offsetInCU: 0x4C4AA, offset: 0x531077, size: 0x8, addend: 0x0, symName: '__ZN4core3ptr38drop_in_place$LT$syn..pat..PatType$GT$17hcbbce80a195201a4E.llvm.3361240308741372715', symObjAddr: 0x6910, symBinAddr: 0x1098F0, symSize: 0x140 }
  - { offsetInCU: 0x4C9F2, offset: 0x5315BF, size: 0x8, addend: 0x0, symName: '__ZN4core3ptr39drop_in_place$LT$proc_macro2..Ident$GT$17h8101e88c3ac359d6E', symObjAddr: 0x6A50, symBinAddr: 0x109A30, symSize: 0x30 }
  - { offsetInCU: 0x4CB4C, offset: 0x531719, size: 0x8, addend: 0x0, symName: '__ZN4core3ptr39drop_in_place$LT$syn..item..UseTree$GT$17h5b1281a5704d139dE', symObjAddr: 0x6B00, symBinAddr: 0x109A60, symSize: 0xD0 }
  - { offsetInCU: 0x4CF5E, offset: 0x531B2B, size: 0x8, addend: 0x0, symName: '__ZN4core3ptr40drop_in_place$LT$syn..item..ImplItem$GT$17he2e6e8f15695ea55E', symObjAddr: 0x6BD0, symBinAddr: 0x109B30, symSize: 0x5E0 }
  - { offsetInCU: 0x4E029, offset: 0x532BF6, size: 0x8, addend: 0x0, symName: '__ZN4core3ptr40drop_in_place$LT$syn..item..Receiver$GT$17h6743a41cd869c536E.llvm.3361240308741372715', symObjAddr: 0x71B0, symBinAddr: 0x10A110, symSize: 0x130 }
  - { offsetInCU: 0x4E5BC, offset: 0x533189, size: 0x8, addend: 0x0, symName: '__ZN4core3ptr40drop_in_place$LT$syn..item..Variadic$GT$17h856c1da4a3922974E', symObjAddr: 0x72F0, symBinAddr: 0x10A240, symSize: 0x120 }
  - { offsetInCU: 0x4E9E8, offset: 0x5335B5, size: 0x8, addend: 0x0, symName: '__ZN4core3ptr40drop_in_place$LT$syn..ty..ReturnType$GT$17h02cf41e2fec63d90E', symObjAddr: 0x7410, symBinAddr: 0x10A360, symSize: 0x50 }
  - { offsetInCU: 0x4EB5A, offset: 0x533727, size: 0x8, addend: 0x0, symName: '__ZN4core3ptr41drop_in_place$LT$syn..expr..ExprConst$GT$17h725a13e551d9f276E', symObjAddr: 0x7460, symBinAddr: 0x10A3B0, symSize: 0x180 }
  - { offsetInCU: 0x4F0CE, offset: 0x533C9B, size: 0x8, addend: 0x0, symName: '__ZN4core3ptr41drop_in_place$LT$syn..item..Signature$GT$17h691f115807a5d1eeE', symObjAddr: 0x75E0, symBinAddr: 0x10A530, symSize: 0x160 }
  - { offsetInCU: 0x4F7D4, offset: 0x5343A1, size: 0x8, addend: 0x0, symName: '__ZN4core3ptr41drop_in_place$LT$syn..item..TraitItem$GT$17hb6f9fbcba8fdea85E', symObjAddr: 0x7740, symBinAddr: 0x10A690, symSize: 0x6E0 }
  - { offsetInCU: 0x50ABB, offset: 0x535688, size: 0x8, addend: 0x0, symName: '__ZN4core3ptr42drop_in_place$LT$syn..item..ImplItemFn$GT$17h753bae801f2662d9E', symObjAddr: 0x7E70, symBinAddr: 0x10AD70, symSize: 0x200 }
  - { offsetInCU: 0x5118B, offset: 0x535D58, size: 0x8, addend: 0x0, symName: '__ZN4core3ptr43drop_in_place$LT$syn..data..FieldsNamed$GT$17hb2a97e73a85352cbE', symObjAddr: 0x8070, symBinAddr: 0x10AF70, symSize: 0xE0 }
  - { offsetInCU: 0x514F6, offset: 0x5360C3, size: 0x8, addend: 0x0, symName: '__ZN4core3ptr43drop_in_place$LT$syn..item..ForeignItem$GT$17h1398b9aa0a6e4c9dE', symObjAddr: 0x8150, symBinAddr: 0x10B050, symSize: 0x610 }
  - { offsetInCU: 0x529E8, offset: 0x5375B5, size: 0x8, addend: 0x0, symName: '__ZN4core3ptr44drop_in_place$LT$syn..generics..Generics$GT$17h10dea28dec64f81eE', symObjAddr: 0x8760, symBinAddr: 0x10B660, symSize: 0x40 }
  - { offsetInCU: 0x52A05, offset: 0x5375D2, size: 0x8, addend: 0x0, symName: '__ZN4core3ptr44drop_in_place$LT$syn..lifetime..Lifetime$GT$17hf0cdec2e9ec456d6E', symObjAddr: 0x87A0, symBinAddr: 0x10B6A0, symSize: 0x30 }
  - { offsetInCU: 0x52B7E, offset: 0x53774B, size: 0x8, addend: 0x0, symName: '__ZN4core3ptr44drop_in_place$LT$syn..parse..ParseBuffer$GT$17hd0dadba44a19aec2E.llvm.3361240308741372715', symObjAddr: 0x87D0, symBinAddr: 0x10B6D0, symSize: 0x70 }
  - { offsetInCU: 0x52FB3, offset: 0x537B80, size: 0x8, addend: 0x0, symName: '__ZN4core3ptr45drop_in_place$LT$proc_macro2..TokenStream$GT$17h3405f6c513e9f6cbE', symObjAddr: 0x8840, symBinAddr: 0x10B740, symSize: 0x140 }
  - { offsetInCU: 0x53422, offset: 0x537FEF, size: 0x8, addend: 0x0, symName: '__ZN4core3ptr45drop_in_place$LT$syn..generics..TypeParam$GT$17he5eda51070b7de47E', symObjAddr: 0x8980, symBinAddr: 0x10B880, symSize: 0x230 }
  - { offsetInCU: 0x53C1E, offset: 0x5387EB, size: 0x8, addend: 0x0, symName: '__ZN4core3ptr46drop_in_place$LT$syn..generics..ConstParam$GT$17hab0a58c4af8c549cE', symObjAddr: 0x8BB0, symBinAddr: 0x10BAB0, symSize: 0x150 }
  - { offsetInCU: 0x54048, offset: 0x538C15, size: 0x8, addend: 0x0, symName: '__ZN4core3ptr47drop_in_place$LT$syn..path..GenericArgument$GT$17h54f8794633f96823E', symObjAddr: 0x8D00, symBinAddr: 0x10BC00, symSize: 0x4A0 }
  - { offsetInCU: 0x550EF, offset: 0x539CBC, size: 0x8, addend: 0x0, symName: '__ZN4core3ptr49drop_in_place$LT$syn..generics..LifetimeParam$GT$17h41a7c7a290ea6289E', symObjAddr: 0x91A0, symBinAddr: 0x10C0A0, symSize: 0xF0 }
  - { offsetInCU: 0x554A9, offset: 0x53A076, size: 0x8, addend: 0x0, symName: '__ZN4core3ptr49drop_in_place$LT$syn..restriction..Visibility$GT$17h2a932c493942ef80E', symObjAddr: 0x9290, symBinAddr: 0x10C190, symSize: 0x60 }
  - { offsetInCU: 0x55630, offset: 0x53A1FD, size: 0x8, addend: 0x0, symName: '__ZN4core3ptr50drop_in_place$LT$syn..generics..TypeParamBound$GT$17hcd7771d4c6c221efE', symObjAddr: 0x92F0, symBinAddr: 0x10C1F0, symSize: 0x160 }
  - { offsetInCU: 0x55A6F, offset: 0x53A63C, size: 0x8, addend: 0x0, symName: '__ZN4core3ptr58drop_in_place$LT$alloc..vec..Vec$LT$syn..expr..Arm$GT$$GT$17h1a55df3d2cba1daaE', symObjAddr: 0x9480, symBinAddr: 0x10C350, symSize: 0xD0 }
  - { offsetInCU: 0x55CFC, offset: 0x53A8C9, size: 0x8, addend: 0x0, symName: '__ZN4core3ptr59drop_in_place$LT$alloc..boxed..Box$LT$syn..pat..Pat$GT$$GT$17h563b135d87aca8abE', symObjAddr: 0x9550, symBinAddr: 0x10C420, symSize: 0x50 }
  - { offsetInCU: 0x55E57, offset: 0x53AA24, size: 0x8, addend: 0x0, symName: '__ZN4core3ptr59drop_in_place$LT$alloc..boxed..Box$LT$syn..ty..Type$GT$$GT$17hffed36bad83adacbE', symObjAddr: 0x95A0, symBinAddr: 0x10C470, symSize: 0x50 }
  - { offsetInCU: 0x55FB2, offset: 0x53AB7F, size: 0x8, addend: 0x0, symName: '__ZN4core3ptr59drop_in_place$LT$alloc..vec..Vec$LT$syn..item..Item$GT$$GT$17hf874c2ed1282c93cE', symObjAddr: 0x95F0, symBinAddr: 0x10C4C0, symSize: 0xD0 }
  - { offsetInCU: 0x5623F, offset: 0x53AE0C, size: 0x8, addend: 0x0, symName: '__ZN4core3ptr59drop_in_place$LT$alloc..vec..Vec$LT$syn..stmt..Stmt$GT$$GT$17hb5c1acf3c61c43e2E', symObjAddr: 0x96C0, symBinAddr: 0x10C590, symSize: 0xD0 }
  - { offsetInCU: 0x564CC, offset: 0x53B099, size: 0x8, addend: 0x0, symName: '__ZN4core3ptr61drop_in_place$LT$alloc..boxed..Box$LT$syn..expr..Expr$GT$$GT$17h01091e47f131475dE', symObjAddr: 0x9790, symBinAddr: 0x10C660, symSize: 0x50 }
  - { offsetInCU: 0x566A3, offset: 0x53B270, size: 0x8, addend: 0x0, symName: '__ZN4core3ptr61drop_in_place$LT$syn..path..ParenthesizedGenericArguments$GT$17h43d4aac5494326a7E', symObjAddr: 0x9850, symBinAddr: 0x10C6B0, symSize: 0x170 }
  - { offsetInCU: 0x56C6A, offset: 0x53B837, size: 0x8, addend: 0x0, symName: '__ZN4core3ptr62drop_in_place$LT$alloc..boxed..Box$LT$syn..stmt..Block$GT$$GT$17h30434998ae0f12a8E', symObjAddr: 0x99C0, symBinAddr: 0x10C820, symSize: 0xE0 }
  - { offsetInCU: 0x5704B, offset: 0x53BC18, size: 0x8, addend: 0x0, symName: '__ZN4core3ptr62drop_in_place$LT$syn..path..AngleBracketedGenericArguments$GT$17hc5b69f68243636ddE', symObjAddr: 0x9AA0, symBinAddr: 0x10C900, symSize: 0x120 }
  - { offsetInCU: 0x57461, offset: 0x53C02E, size: 0x8, addend: 0x0, symName: '__ZN4core3ptr63drop_in_place$LT$alloc..boxed..Box$LT$syn..lit..LitRepr$GT$$GT$17hd8839b7fb35ee7afE', symObjAddr: 0x9BC0, symBinAddr: 0x10CA20, symSize: 0x60 }
  - { offsetInCU: 0x57737, offset: 0x53C304, size: 0x8, addend: 0x0, symName: '__ZN4core3ptr63drop_in_place$LT$alloc..vec..Vec$LT$syn..item..ImplItem$GT$$GT$17hda9ba61cc1df3d0eE', symObjAddr: 0x9C20, symBinAddr: 0x10CA80, symSize: 0x80 }
  - { offsetInCU: 0x579D4, offset: 0x53C5A1, size: 0x8, addend: 0x0, symName: '__ZN4core3ptr64drop_in_place$LT$alloc..boxed..Box$LT$syn..item..UseTree$GT$$GT$17he10cba0a4742709fE', symObjAddr: 0x9CA0, symBinAddr: 0x10CB00, symSize: 0xF0 }
  - { offsetInCU: 0x57F14, offset: 0x53CAE1, size: 0x8, addend: 0x0, symName: '__ZN4core3ptr64drop_in_place$LT$alloc..boxed..Box$LT$syn..pat..FieldPat$GT$$GT$17h4980b70a7597cc08E', symObjAddr: 0x9D90, symBinAddr: 0x10CBF0, symSize: 0x140 }
  - { offsetInCU: 0x585BF, offset: 0x53D18C, size: 0x8, addend: 0x0, symName: '__ZN4core3ptr64drop_in_place$LT$alloc..boxed..Box$LT$syn..ty..BareFnArg$GT$$GT$17h8b34096c620314efE', symObjAddr: 0x9ED0, symBinAddr: 0x10CD30, symSize: 0x140 }
  - { offsetInCU: 0x58AE3, offset: 0x53D6B0, size: 0x8, addend: 0x0, symName: '__ZN4core3ptr64drop_in_place$LT$alloc..vec..Vec$LT$syn..attr..Attribute$GT$$GT$17h3c8f2a04e701c675E', symObjAddr: 0xA010, symBinAddr: 0x10CE70, symSize: 0xD0 }
  - { offsetInCU: 0x58D70, offset: 0x53D93D, size: 0x8, addend: 0x0, symName: '__ZN4core3ptr64drop_in_place$LT$alloc..vec..Vec$LT$syn..item..TraitItem$GT$$GT$17h60eb4b8666c57b93E', symObjAddr: 0xA0E0, symBinAddr: 0x10CF40, symSize: 0x80 }
  - { offsetInCU: 0x58FEE, offset: 0x53DBBB, size: 0x8, addend: 0x0, symName: '__ZN4core3ptr65drop_in_place$LT$core..option..Option$LT$syn..expr..Label$GT$$GT$17h78189e72a8cb7951E', symObjAddr: 0xA160, symBinAddr: 0x10CFC0, symSize: 0x30 }
  - { offsetInCU: 0x59129, offset: 0x53DCF6, size: 0x8, addend: 0x0, symName: '__ZN4core3ptr66drop_in_place$LT$alloc..vec..Vec$LT$syn..item..ForeignItem$GT$$GT$17h3e58b8e683c84cf4E', symObjAddr: 0xA270, symBinAddr: 0x10CFF0, symSize: 0x80 }
  - { offsetInCU: 0x593A7, offset: 0x53DF74, size: 0x8, addend: 0x0, symName: '__ZN4core3ptr66drop_in_place$LT$core..option..Option$LT$syn..pat..PatRest$GT$$GT$17h61677cf4ff3a7393E', symObjAddr: 0xA2F0, symBinAddr: 0x10D070, symSize: 0xE0 }
  - { offsetInCU: 0x5962B, offset: 0x53E1F8, size: 0x8, addend: 0x0, symName: '__ZN4core3ptr67drop_in_place$LT$alloc..boxed..Box$LT$syn..expr..FieldValue$GT$$GT$17h93aaccf8aa22ef88E', symObjAddr: 0xA3D0, symBinAddr: 0x10D150, symSize: 0x140 }
  - { offsetInCU: 0x59B2F, offset: 0x53E6FC, size: 0x8, addend: 0x0, symName: '__ZN4core3ptr67drop_in_place$LT$core..option..Option$LT$proc_macro2..Ident$GT$$GT$17hec63a294be1dc410E', symObjAddr: 0xA510, symBinAddr: 0x10D290, symSize: 0x30 }
  - { offsetInCU: 0x59C2C, offset: 0x53E7F9, size: 0x8, addend: 0x0, symName: '__ZN4core3ptr68drop_in_place$LT$alloc..boxed..Box$LT$syn..path..PathSegment$GT$$GT$17h709dabdc13b58a71E', symObjAddr: 0xA540, symBinAddr: 0x10D2C0, symSize: 0x190 }
  - { offsetInCU: 0x5A30A, offset: 0x53EED7, size: 0x8, addend: 0x0, symName: '__ZN4core3ptr70drop_in_place$LT$core..option..Option$LT$syn..ty..BareVariadic$GT$$GT$17h45399348ea4b8d55E', symObjAddr: 0xA6F0, symBinAddr: 0x10D450, symSize: 0x120 }
  - { offsetInCU: 0x5A837, offset: 0x53F404, size: 0x8, addend: 0x0, symName: '__ZN4core3ptr72drop_in_place$LT$alloc..boxed..Box$LT$syn..path..GenericArgument$GT$$GT$17haa7dd8b716637b54E', symObjAddr: 0xA810, symBinAddr: 0x10D570, symSize: 0x1D0 }
  - { offsetInCU: 0x5ADDA, offset: 0x53F9A7, size: 0x8, addend: 0x0, symName: '__ZN4core3ptr72drop_in_place$LT$core..option..Option$LT$syn..lifetime..Lifetime$GT$$GT$17hfc363ccdd8bd9c32E', symObjAddr: 0xA9E0, symBinAddr: 0x10D740, symSize: 0x30 }
  - { offsetInCU: 0x5AEF6, offset: 0x53FAC3, size: 0x8, addend: 0x0, symName: '__ZN4core3ptr73drop_in_place$LT$alloc..boxed..Box$LT$syn..generics..GenericParam$GT$$GT$17hf6951dcd5ae07324E', symObjAddr: 0xAA10, symBinAddr: 0x10D770, symSize: 0x80 }
  - { offsetInCU: 0x5B06E, offset: 0x53FC3B, size: 0x8, addend: 0x0, symName: '__ZN4core3ptr75drop_in_place$LT$alloc..boxed..Box$LT$syn..generics..TypeParamBound$GT$$GT$17he61c00698a311a34E', symObjAddr: 0xAA90, symBinAddr: 0x10D7F0, symSize: 0xB0 }
  - { offsetInCU: 0x5B3E8, offset: 0x53FFB5, size: 0x8, addend: 0x0, symName: '__ZN4core3ptr75drop_in_place$LT$core..option..Option$LT$syn..generics..WhereClause$GT$$GT$17hdce7670be9790a3dE', symObjAddr: 0xAB40, symBinAddr: 0x10D8A0, symSize: 0x90 }
  - { offsetInCU: 0x5B69E, offset: 0x54026B, size: 0x8, addend: 0x0, symName: '__ZN4core3ptr86drop_in_place$LT$syn..punctuated..Punctuated$LT$syn..pat..Pat$C$syn..token..Or$GT$$GT$17h8e9173df21a44316E', symObjAddr: 0xABE0, symBinAddr: 0x10D930, symSize: 0x120 }
  - { offsetInCU: 0x5BAE4, offset: 0x5406B1, size: 0x8, addend: 0x0, symName: '__ZN4core3ptr87drop_in_place$LT$core..option..Option$LT$alloc..boxed..Box$LT$syn..pat..Pat$GT$$GT$$GT$17hd7b7c69f601b3926E', symObjAddr: 0xAD20, symBinAddr: 0x10DA50, symSize: 0x50 }
  - { offsetInCU: 0x5BC56, offset: 0x540823, size: 0x8, addend: 0x0, symName: '__ZN4core3ptr87drop_in_place$LT$core..option..Option$LT$alloc..boxed..Box$LT$syn..ty..Type$GT$$GT$$GT$17hd74f5d971aec2972E', symObjAddr: 0xAD70, symBinAddr: 0x10DAA0, symSize: 0x50 }
  - { offsetInCU: 0x5BDC8, offset: 0x540995, size: 0x8, addend: 0x0, symName: '__ZN4core3ptr89drop_in_place$LT$core..option..Option$LT$alloc..boxed..Box$LT$syn..expr..Expr$GT$$GT$$GT$17h8e135ac1a25a2dc5E', symObjAddr: 0xADE0, symBinAddr: 0x10DAF0, symSize: 0x50 }
  - { offsetInCU: 0x5BF78, offset: 0x540B45, size: 0x8, addend: 0x0, symName: '__ZN4core3ptr89drop_in_place$LT$syn..punctuated..Punctuated$LT$syn..pat..Pat$C$syn..token..Comma$GT$$GT$17h8d60e47f3fb1f87aE', symObjAddr: 0xAE30, symBinAddr: 0x10DB40, symSize: 0x120 }
  - { offsetInCU: 0x5C3D5, offset: 0x540FA2, size: 0x8, addend: 0x0, symName: '__ZN4core3ptr89drop_in_place$LT$syn..punctuated..Punctuated$LT$syn..ty..Type$C$syn..token..Comma$GT$$GT$17ha919b3114742fb9dE', symObjAddr: 0xAF50, symBinAddr: 0x10DC60, symSize: 0x120 }
  - { offsetInCU: 0x5C85D, offset: 0x54142A, size: 0x8, addend: 0x0, symName: '__ZN4core3ptr90drop_in_place$LT$core..option..Option$LT$alloc..boxed..Box$LT$syn..data..Field$GT$$GT$$GT$17h326c39537b0fcc46E', symObjAddr: 0xB070, symBinAddr: 0x10DD80, symSize: 0x200 }
  - { offsetInCU: 0x5D0C6, offset: 0x541C93, size: 0x8, addend: 0x0, symName: '__ZN4core3ptr90drop_in_place$LT$core..option..Option$LT$alloc..boxed..Box$LT$syn..item..FnArg$GT$$GT$$GT$17hbae3fdd388277508E', symObjAddr: 0xB270, symBinAddr: 0x10DF80, symSize: 0x60 }
  - { offsetInCU: 0x5D242, offset: 0x541E0F, size: 0x8, addend: 0x0, symName: '__ZN4core3ptr90drop_in_place$LT$core..option..Option$LT$syn..path..AngleBracketedGenericArguments$GT$$GT$17h80d9a5f0818c8bd9E', symObjAddr: 0xB2D0, symBinAddr: 0x10DFE0, symSize: 0x130 }
  - { offsetInCU: 0x5D6AD, offset: 0x54227A, size: 0x8, addend: 0x0, symName: '__ZN4core3ptr91drop_in_place$LT$syn..punctuated..Punctuated$LT$syn..expr..Expr$C$syn..token..Comma$GT$$GT$17h4f39b83dc86a4159E', symObjAddr: 0xB400, symBinAddr: 0x10E110, symSize: 0x120 }
  - { offsetInCU: 0x5DB0A, offset: 0x5426D7, size: 0x8, addend: 0x0, symName: '__ZN4core3ptr92drop_in_place$LT$core..option..Option$LT$$LP$syn..token..As$C$proc_macro2..Ident$RP$$GT$$GT$17h5c1a47ccb35d9d7eE', symObjAddr: 0xB520, symBinAddr: 0x10E230, symSize: 0x30 }
  - { offsetInCU: 0x5DC64, offset: 0x542831, size: 0x8, addend: 0x0, symName: '__ZN4core3ptr92drop_in_place$LT$core..option..Option$LT$alloc..boxed..Box$LT$syn..data..Variant$GT$$GT$$GT$17h3f89d7c982191526E', symObjAddr: 0xB550, symBinAddr: 0x10E260, symSize: 0x190 }
  - { offsetInCU: 0x5E30D, offset: 0x542EDA, size: 0x8, addend: 0x0, symName: '__ZN4core3ptr92drop_in_place$LT$syn..punctuated..Punctuated$LT$syn..item..FnArg$C$syn..token..Comma$GT$$GT$17h75db9d232662c7d3E', symObjAddr: 0xB6E0, symBinAddr: 0x10E3F0, symSize: 0x140 }
  - { offsetInCU: 0x5E75B, offset: 0x543328, size: 0x8, addend: 0x0, symName: '__ZN4core3ptr94drop_in_place$LT$syn..punctuated..Punctuated$LT$syn..data..Variant$C$syn..token..Comma$GT$$GT$17ha69d7e675441c7e2E', symObjAddr: 0xB820, symBinAddr: 0x10E530, symSize: 0xE0 }
  - { offsetInCU: 0x5EA88, offset: 0x543655, size: 0x8, addend: 0x0, symName: '__ZN4core3ptr94drop_in_place$LT$syn..punctuated..Punctuated$LT$syn..item..UseTree$C$syn..token..Comma$GT$$GT$17h4e4f303ffad9f549E', symObjAddr: 0xB900, symBinAddr: 0x10E610, symSize: 0xF0 }
  - { offsetInCU: 0x5ED99, offset: 0x543966, size: 0x8, addend: 0x0, symName: '__ZN4core3ptr94drop_in_place$LT$syn..punctuated..Punctuated$LT$syn..pat..FieldPat$C$syn..token..Comma$GT$$GT$17h112950ea198c8281E', symObjAddr: 0xB9F0, symBinAddr: 0x10E700, symSize: 0xF0 }
  - { offsetInCU: 0x5F063, offset: 0x543C30, size: 0x8, addend: 0x0, symName: '__ZN4core3ptr94drop_in_place$LT$syn..punctuated..Punctuated$LT$syn..ty..BareFnArg$C$syn..token..Comma$GT$$GT$17h1c7b44310f06243dE', symObjAddr: 0xBAE0, symBinAddr: 0x10E7F0, symSize: 0xF0 }
  - { offsetInCU: 0x5F32D, offset: 0x543EFA, size: 0x8, addend: 0x0, symName: '__ZN4core3ptr96drop_in_place$LT$core..option..Option$LT$alloc..boxed..Box$LT$syn..path..PathSegment$GT$$GT$$GT$17hb447d0f626c86a4eE', symObjAddr: 0xBBD0, symBinAddr: 0x10E8E0, symSize: 0x90 }
  - { offsetInCU: 0x5F5AF, offset: 0x54417C, size: 0x8, addend: 0x0, symName: '__ZN4core3ptr97drop_in_place$LT$syn..punctuated..Punctuated$LT$syn..expr..FieldValue$C$syn..token..Comma$GT$$GT$17h31b81f7462228dcbE', symObjAddr: 0xBC60, symBinAddr: 0x10E970, symSize: 0xF0 }
  - { offsetInCU: 0x5F879, offset: 0x544446, size: 0x8, addend: 0x0, symName: '__ZN4core3ptr98drop_in_place$LT$alloc..vec..Vec$LT$$LP$syn..path..GenericArgument$C$syn..token..Comma$RP$$GT$$GT$17h0657ff261f33b640E', symObjAddr: 0xBD50, symBinAddr: 0x10EA60, symSize: 0xD0 }
  - { offsetInCU: 0x5FB82, offset: 0x54474F, size: 0x8, addend: 0x0, symName: '__ZN4core3ptr98drop_in_place$LT$syn..punctuated..Punctuated$LT$syn..lifetime..Lifetime$C$syn..token..Plus$GT$$GT$17h0f8fc5f20f465f47E', symObjAddr: 0xBE20, symBinAddr: 0x10EB30, symSize: 0xC0 }
  - { offsetInCU: 0x6C7D3, offset: 0x5513A0, size: 0x8, addend: 0x0, symName: '__ZN5alloc3vec16Vec$LT$T$C$A$GT$4push17hee7056fca81de2b5E', symObjAddr: 0xC0D0, symBinAddr: 0x10EBF0, symSize: 0x60 }
  - { offsetInCU: 0x6CA0D, offset: 0x5515DA, size: 0x8, addend: 0x0, symName: '__ZN5alloc3vec16Vec$LT$T$C$A$GT$6append17h429b9c0d32835dc0E', symObjAddr: 0xC130, symBinAddr: 0x10EC50, symSize: 0x80 }
  - { offsetInCU: 0x6CCC2, offset: 0x55188F, size: 0x8, addend: 0x0, symName: __ZN3syn4item4Item13replace_attrs17hc89b3448d1af9bc5E, symObjAddr: 0xCC00, symBinAddr: 0x10ECD0, symSize: 0x1C0 }
  - { offsetInCU: 0x1E, offset: 0x55F9E4, size: 0x8, addend: 0x0, symName: '__ZN4core3ptr100drop_in_place$LT$alloc..vec..Vec$LT$$LP$syn..generics..TypeParamBound$C$syn..token..Plus$RP$$GT$$GT$17h8b4df1d78e856f8eE.llvm.720949811486110776', symObjAddr: 0x0, symBinAddr: 0x123AD0, symSize: 0xD0 }
  - { offsetInCU: 0x128A, offset: 0x560C50, size: 0x8, addend: 0x0, symName: '__ZN111_$LT$syn..punctuated..PrivateIter$LT$T$C$P$GT$$u20$as$u20$core..iter..traits..exact_size..ExactSizeIterator$GT$3len17h1cf8b173bc2fb53fE.llvm.720949811486110776', symObjAddr: 0x10370, symBinAddr: 0x1309D0, symSize: 0x0 }
  - { offsetInCU: 0x137B, offset: 0x560D41, size: 0x8, addend: 0x0, symName: '__ZN111_$LT$syn..punctuated..PrivateIter$LT$T$C$P$GT$$u20$as$u20$core..iter..traits..exact_size..ExactSizeIterator$GT$3len17hfca8917a1308f638E.llvm.720949811486110776', symObjAddr: 0x103F0, symBinAddr: 0x130A00, symSize: 0x0 }
  - { offsetInCU: 0x1598, offset: 0x560F5E, size: 0x8, addend: 0x0, symName: '__ZN115_$LT$syn..punctuated..PrivateIter$LT$T$C$P$GT$$u20$as$u20$core..iter..traits..double_ended..DoubleEndedIterator$GT$9next_back17h00773bc662e81ae7E.llvm.720949811486110776', symObjAddr: 0x102B0, symBinAddr: 0x130970, symSize: 0x0 }
  - { offsetInCU: 0x1832, offset: 0x5611F8, size: 0x8, addend: 0x0, symName: '__ZN115_$LT$syn..punctuated..PrivateIter$LT$T$C$P$GT$$u20$as$u20$core..iter..traits..double_ended..DoubleEndedIterator$GT$9next_back17h4e161a362cd3236cE.llvm.720949811486110776', symObjAddr: 0x10310, symBinAddr: 0x1309A0, symSize: 0x0 }
  - { offsetInCU: 0x1D28, offset: 0x5616EE, size: 0x8, addend: 0x0, symName: '__ZN100_$LT$syn..punctuated..PrivateIter$LT$T$C$P$GT$$u20$as$u20$core..iter..traits..iterator..Iterator$GT$4next17h2288f88597771eccE.llvm.720949811486110776', symObjAddr: 0x101F0, symBinAddr: 0x1308B0, symSize: 0x30 }
  - { offsetInCU: 0x1FBB, offset: 0x561981, size: 0x8, addend: 0x0, symName: '__ZN100_$LT$syn..punctuated..PrivateIter$LT$T$C$P$GT$$u20$as$u20$core..iter..traits..iterator..Iterator$GT$4next17h2b2ca8d3435ec515E.llvm.720949811486110776', symObjAddr: 0x10220, symBinAddr: 0x1308E0, symSize: 0x30 }
  - { offsetInCU: 0x224E, offset: 0x561C14, size: 0x8, addend: 0x0, symName: '__ZN100_$LT$syn..punctuated..PrivateIter$LT$T$C$P$GT$$u20$as$u20$core..iter..traits..iterator..Iterator$GT$4next17h2b5c344e5c67057fE.llvm.720949811486110776', symObjAddr: 0x10250, symBinAddr: 0x130910, symSize: 0x0 }
  - { offsetInCU: 0x24E1, offset: 0x561EA7, size: 0x8, addend: 0x0, symName: '__ZN100_$LT$syn..punctuated..PrivateIter$LT$T$C$P$GT$$u20$as$u20$core..iter..traits..iterator..Iterator$GT$4next17hf77cc5e76ff9bb52E.llvm.720949811486110776', symObjAddr: 0x10280, symBinAddr: 0x130940, symSize: 0x0 }
  - { offsetInCU: 0x2C92, offset: 0x562658, size: 0x8, addend: 0x0, symName: '__ZN79_$LT$syn..punctuated..Punctuated$LT$T$C$P$GT$$u20$as$u20$core..clone..Clone$GT$5clone17h1b6336e2635a9e8fE', symObjAddr: 0xC9B0, symBinAddr: 0x12F4F0, symSize: 0x110 }
  - { offsetInCU: 0x3095, offset: 0x562A5B, size: 0x8, addend: 0x0, symName: '__ZN79_$LT$syn..punctuated..Punctuated$LT$T$C$P$GT$$u20$as$u20$core..clone..Clone$GT$5clone17h216d0cc9fdbbad96E', symObjAddr: 0xCAC0, symBinAddr: 0x12F600, symSize: 0x2C0 }
  - { offsetInCU: 0x35D7, offset: 0x562F9D, size: 0x8, addend: 0x0, symName: '__ZN79_$LT$syn..punctuated..Punctuated$LT$T$C$P$GT$$u20$as$u20$core..clone..Clone$GT$5clone17h401205d976f2a24fE', symObjAddr: 0xCD80, symBinAddr: 0x12F8C0, symSize: 0xE0 }
  - { offsetInCU: 0x38A1, offset: 0x563267, size: 0x8, addend: 0x0, symName: '__ZN79_$LT$syn..punctuated..Punctuated$LT$T$C$P$GT$$u20$as$u20$core..clone..Clone$GT$5clone17h46c0276e4a1ee5d5E', symObjAddr: 0xCE60, symBinAddr: 0x12F9A0, symSize: 0x230 }
  - { offsetInCU: 0x3BCD, offset: 0x563593, size: 0x8, addend: 0x0, symName: '__ZN79_$LT$syn..punctuated..Punctuated$LT$T$C$P$GT$$u20$as$u20$core..clone..Clone$GT$5clone17h52bdce65b2924a44E', symObjAddr: 0xD170, symBinAddr: 0x12FBD0, symSize: 0xE0 }
  - { offsetInCU: 0x3E97, offset: 0x56385D, size: 0x8, addend: 0x0, symName: '__ZN79_$LT$syn..punctuated..Punctuated$LT$T$C$P$GT$$u20$as$u20$core..clone..Clone$GT$5clone17h6e5c167729c6dc97E', symObjAddr: 0xD330, symBinAddr: 0x12FCB0, symSize: 0x1C0 }
  - { offsetInCU: 0x41E1, offset: 0x563BA7, size: 0x8, addend: 0x0, symName: '__ZN79_$LT$syn..punctuated..Punctuated$LT$T$C$P$GT$$u20$as$u20$core..clone..Clone$GT$5clone17ha8c279133d54c43aE', symObjAddr: 0xD5F0, symBinAddr: 0x12FE70, symSize: 0xE0 }
  - { offsetInCU: 0x44AA, offset: 0x563E70, size: 0x8, addend: 0x0, symName: '__ZN79_$LT$syn..punctuated..Punctuated$LT$T$C$P$GT$$u20$as$u20$core..clone..Clone$GT$5clone17hc59117e85ed64290E', symObjAddr: 0xD8B0, symBinAddr: 0x12FF50, symSize: 0xE0 }
  - { offsetInCU: 0x4774, offset: 0x56413A, size: 0x8, addend: 0x0, symName: '__ZN79_$LT$syn..punctuated..Punctuated$LT$T$C$P$GT$$u20$as$u20$core..clone..Clone$GT$5clone17hca4078c0b112b9bbE', symObjAddr: 0xD990, symBinAddr: 0x130030, symSize: 0x140 }
  - { offsetInCU: 0x4C16, offset: 0x5645DC, size: 0x8, addend: 0x0, symName: '__ZN79_$LT$syn..punctuated..Punctuated$LT$T$C$P$GT$$u20$as$u20$core..clone..Clone$GT$5clone17heb9ec5c115753a9eE', symObjAddr: 0xDAD0, symBinAddr: 0x130170, symSize: 0xE0 }
  - { offsetInCU: 0x4EE0, offset: 0x5648A6, size: 0x8, addend: 0x0, symName: '__ZN79_$LT$syn..punctuated..Punctuated$LT$T$C$P$GT$$u20$as$u20$core..clone..Clone$GT$5clone17hfc802b453cbd89a2E', symObjAddr: 0xDBB0, symBinAddr: 0x130250, symSize: 0xE0 }
  - { offsetInCU: 0x52CE, offset: 0x564C94, size: 0x8, addend: 0x0, symName: '__ZN138_$LT$syn..punctuated..Punctuated$LT$T$C$P$GT$$u20$as$u20$core..iter..traits..collect..Extend$LT$syn..punctuated..Pair$LT$T$C$P$GT$$GT$$GT$6extend17h0c12569780469b5fE', symObjAddr: 0xF390, symBinAddr: 0x130330, symSize: 0x370 }
  - { offsetInCU: 0x57C3, offset: 0x565189, size: 0x8, addend: 0x0, symName: '__ZN102_$LT$syn..punctuated..Punctuated$LT$T$C$P$GT$$u20$as$u20$core..iter..traits..collect..IntoIterator$GT$9into_iter17h19dc66090da1f9fdE', symObjAddr: 0xFB40, symBinAddr: 0x1306A0, symSize: 0x210 }
  - { offsetInCU: 0x6857, offset: 0x56621D, size: 0x8, addend: 0x0, symName: '__ZN57_$LT$I$u20$as$u20$syn..punctuated..IterTrait$LT$T$GT$$GT$9clone_box17h1c27db5382a2680bE.llvm.720949811486110776', symObjAddr: 0x10420, symBinAddr: 0x130A30, symSize: 0x60 }
  - { offsetInCU: 0x6A71, offset: 0x566437, size: 0x8, addend: 0x0, symName: '__ZN97_$LT$syn..punctuated..Punctuated$LT$T$C$P$GT$$u20$as$u20$core..ops..index..Index$LT$usize$GT$$GT$5index17h4f8cb199669a0d4aE', symObjAddr: 0x105C0, symBinAddr: 0x130A90, symSize: 0x40 }
  - { offsetInCU: 0x6BB8, offset: 0x56657E, size: 0x8, addend: 0x0, symName: '__ZN3syn10punctuated8printing91_$LT$impl$u20$quote..to_tokens..ToTokens$u20$for$u20$syn..punctuated..Pair$LT$T$C$P$GT$$GT$9to_tokens17h1946c43ec2d8cf8fE', symObjAddr: 0x10890, symBinAddr: 0x130C80, symSize: 0xC0 }
  - { offsetInCU: 0x6DAA, offset: 0x566770, size: 0x8, addend: 0x0, symName: '__ZN3syn10punctuated8printing97_$LT$impl$u20$quote..to_tokens..ToTokens$u20$for$u20$syn..punctuated..Punctuated$LT$T$C$P$GT$$GT$9to_tokens17h183c223efb5c6660E', symObjAddr: 0x106E0, symBinAddr: 0x130AD0, symSize: 0x1B0 }
  - { offsetInCU: 0x10EA0, offset: 0x570866, size: 0x8, addend: 0x0, symName: '__ZN4core3ptr100drop_in_place$LT$alloc..vec..Vec$LT$$LP$syn..generics..TypeParamBound$C$syn..token..Plus$RP$$GT$$GT$17h8b4df1d78e856f8eE.llvm.720949811486110776', symObjAddr: 0x0, symBinAddr: 0x123AD0, symSize: 0xD0 }
  - { offsetInCU: 0x1114C, offset: 0x570B12, size: 0x8, addend: 0x0, symName: '__ZN4core3ptr100drop_in_place$LT$core..option..Option$LT$alloc..boxed..Box$LT$syn..path..GenericArgument$GT$$GT$$GT$17h7435c9de74860622E.llvm.720949811486110776', symObjAddr: 0xD0, symBinAddr: 0x123BA0, symSize: 0x50 }
  - { offsetInCU: 0x1133A, offset: 0x570D00, size: 0x8, addend: 0x0, symName: '__ZN4core3ptr100drop_in_place$LT$syn..punctuated..Punctuated$LT$syn..path..PathSegment$C$syn..token..PathSep$GT$$GT$17hf414cb3581f8337aE', symObjAddr: 0x120, symBinAddr: 0x123BF0, symSize: 0x110 }
  - { offsetInCU: 0x11758, offset: 0x57111E, size: 0x8, addend: 0x0, symName: '__ZN4core3ptr101drop_in_place$LT$alloc..vec..Vec$LT$$LP$syn..generics..WherePredicate$C$syn..token..Comma$RP$$GT$$GT$17hb2169051094b4da6E.llvm.720949811486110776', symObjAddr: 0x230, symBinAddr: 0x123D00, symSize: 0x60 }
  - { offsetInCU: 0x11960, offset: 0x571326, size: 0x8, addend: 0x0, symName: '__ZN4core3ptr101drop_in_place$LT$syn..punctuated..PrivateIter$LT$syn..path..PathSegment$C$syn..token..PathSep$GT$$GT$17hf6d6997603b255a8E.llvm.720949811486110776', symObjAddr: 0x290, symBinAddr: 0x123D60, symSize: 0x0 }
  - { offsetInCU: 0x119E9, offset: 0x5713AF, size: 0x8, addend: 0x0, symName: '__ZN4core3ptr102drop_in_place$LT$syn..punctuated..Punctuated$LT$syn..path..GenericArgument$C$syn..token..Comma$GT$$GT$17h39496ba4e6dba6cfE', symObjAddr: 0x2A0, symBinAddr: 0x123D70, symSize: 0xF0 }
  - { offsetInCU: 0x11CD2, offset: 0x571698, size: 0x8, addend: 0x0, symName: '__ZN4core3ptr103drop_in_place$LT$core..option..Option$LT$alloc..boxed..Box$LT$syn..generics..TypeParamBound$GT$$GT$$GT$17h5974f03e36b1a9c3E.llvm.720949811486110776', symObjAddr: 0x390, symBinAddr: 0x123E60, symSize: 0x50 }
  - { offsetInCU: 0x11EDF, offset: 0x5718A5, size: 0x8, addend: 0x0, symName: '__ZN4core3ptr103drop_in_place$LT$syn..punctuated..Punctuated$LT$syn..generics..GenericParam$C$syn..token..Comma$GT$$GT$17hf42353fa44ed6da8E.llvm.720949811486110776', symObjAddr: 0x3E0, symBinAddr: 0x123EB0, symSize: 0xF0 }
  - { offsetInCU: 0x123FF, offset: 0x571DC5, size: 0x8, addend: 0x0, symName: '__ZN4core3ptr104drop_in_place$LT$syn..punctuated..Punctuated$LT$syn..generics..TypeParamBound$C$syn..token..Plus$GT$$GT$17h532f52c4a894b056E.llvm.720949811486110776', symObjAddr: 0x4D0, symBinAddr: 0x123FA0, symSize: 0x190 }
  - { offsetInCU: 0x12A72, offset: 0x572438, size: 0x8, addend: 0x0, symName: '__ZN4core3ptr34drop_in_place$LT$syn..lit..Lit$GT$17h8902f5ff67917034E', symObjAddr: 0x660, symBinAddr: 0x124130, symSize: 0x110 }
  - { offsetInCU: 0x12FEA, offset: 0x5729B0, size: 0x8, addend: 0x0, symName: '__ZN4core3ptr34drop_in_place$LT$syn..pat..Pat$GT$17h4581eea028ec0969E.llvm.720949811486110776', symObjAddr: 0x770, symBinAddr: 0x124240, symSize: 0x1000 }
  - { offsetInCU: 0x16B2E, offset: 0x5764F4, size: 0x8, addend: 0x0, symName: '__ZN4core3ptr34drop_in_place$LT$syn..ty..Type$GT$17h369e41ad4a9f1ae0E.llvm.720949811486110776', symObjAddr: 0x1770, symBinAddr: 0x125240, symSize: 0x4F0 }
  - { offsetInCU: 0x18098, offset: 0x577A5E, size: 0x8, addend: 0x0, symName: '__ZN4core3ptr36drop_in_place$LT$syn..expr..Expr$GT$17h0f7fd4c749bae801E.llvm.720949811486110776', symObjAddr: 0x1C70, symBinAddr: 0x125730, symSize: 0x28C0 }
  - { offsetInCU: 0x2153D, offset: 0x580F03, size: 0x8, addend: 0x0, symName: '__ZN4core3ptr36drop_in_place$LT$syn..mac..Macro$GT$17h4ffde962df30ebe2E', symObjAddr: 0x4530, symBinAddr: 0x127FF0, symSize: 0x40 }
  - { offsetInCU: 0x21577, offset: 0x580F3D, size: 0x8, addend: 0x0, symName: '__ZN4core3ptr36drop_in_place$LT$syn..path..Path$GT$17habea856181211e1cE.llvm.720949811486110776', symObjAddr: 0x4570, symBinAddr: 0x128030, symSize: 0xC0 }
  - { offsetInCU: 0x21851, offset: 0x581217, size: 0x8, addend: 0x0, symName: '__ZN4core3ptr37drop_in_place$LT$syn..data..Field$GT$17h8ecf6e22a67a3b36E.llvm.720949811486110776', symObjAddr: 0x4630, symBinAddr: 0x1280F0, symSize: 0x140 }
  - { offsetInCU: 0x21C6D, offset: 0x581633, size: 0x8, addend: 0x0, symName: '__ZN4core3ptr37drop_in_place$LT$syn..item..FnArg$GT$17h3308e115b3b3c9adE.llvm.720949811486110776', symObjAddr: 0x4770, symBinAddr: 0x128230, symSize: 0x280 }
  - { offsetInCU: 0x22648, offset: 0x58200E, size: 0x8, addend: 0x0, symName: '__ZN4core3ptr37drop_in_place$LT$syn..stmt..Block$GT$17hcc21a21cf949414cE', symObjAddr: 0x49F0, symBinAddr: 0x1284B0, symSize: 0xD0 }
  - { offsetInCU: 0x228EC, offset: 0x5822B2, size: 0x8, addend: 0x0, symName: '__ZN4core3ptr38drop_in_place$LT$syn..expr..Member$GT$17h022cbe5553aa40faE.llvm.720949811486110776', symObjAddr: 0x4AC0, symBinAddr: 0x128580, symSize: 0x30 }
  - { offsetInCU: 0x229E9, offset: 0x5823AF, size: 0x8, addend: 0x0, symName: '__ZN4core3ptr39drop_in_place$LT$proc_macro2..Ident$GT$17h8101e88c3ac359d6E.llvm.720949811486110776', symObjAddr: 0x4AF0, symBinAddr: 0x1285B0, symSize: 0x30 }
  - { offsetInCU: 0x22B24, offset: 0x5824EA, size: 0x8, addend: 0x0, symName: '__ZN4core3ptr39drop_in_place$LT$syn..data..Variant$GT$17h7bd4c363751fc860E', symObjAddr: 0x4B20, symBinAddr: 0x1285E0, symSize: 0x150 }
  - { offsetInCU: 0x23074, offset: 0x582A3A, size: 0x8, addend: 0x0, symName: '__ZN4core3ptr39drop_in_place$LT$syn..item..UseTree$GT$17h5b1281a5704d139dE.llvm.720949811486110776', symObjAddr: 0x4C70, symBinAddr: 0x128730, symSize: 0x1D0 }
  - { offsetInCU: 0x23774, offset: 0x58313A, size: 0x8, addend: 0x0, symName: '__ZN4core3ptr39drop_in_place$LT$syn..pat..FieldPat$GT$17h6890d0559a60b030E.llvm.720949811486110776', symObjAddr: 0x4E40, symBinAddr: 0x128900, symSize: 0x130 }
  - { offsetInCU: 0x23CB6, offset: 0x58367C, size: 0x8, addend: 0x0, symName: '__ZN4core3ptr39drop_in_place$LT$syn..ty..BareFnArg$GT$17hac0a1b8fd6f7ad3cE.llvm.720949811486110776', symObjAddr: 0x4F70, symBinAddr: 0x128A30, symSize: 0x110 }
  - { offsetInCU: 0x24082, offset: 0x583A48, size: 0x8, addend: 0x0, symName: '__ZN4core3ptr40drop_in_place$LT$syn..ty..ReturnType$GT$17h02cf41e2fec63d90E', symObjAddr: 0x5080, symBinAddr: 0x128B40, symSize: 0x50 }
  - { offsetInCU: 0x241F4, offset: 0x583BBA, size: 0x8, addend: 0x0, symName: '__ZN4core3ptr41drop_in_place$LT$syn..expr..ExprConst$GT$17h725a13e551d9f276E', symObjAddr: 0x50D0, symBinAddr: 0x128B90, symSize: 0x180 }
  - { offsetInCU: 0x24749, offset: 0x58410F, size: 0x8, addend: 0x0, symName: '__ZN4core3ptr42drop_in_place$LT$syn..expr..FieldValue$GT$17h26d594bfbe912662E.llvm.720949811486110776', symObjAddr: 0x5250, symBinAddr: 0x128D10, symSize: 0x110 }
  - { offsetInCU: 0x24B33, offset: 0x5844F9, size: 0x8, addend: 0x0, symName: '__ZN4core3ptr43drop_in_place$LT$syn..path..PathSegment$GT$17h62e206c29667de7cE.llvm.720949811486110776', symObjAddr: 0x5360, symBinAddr: 0x128E20, symSize: 0x170 }
  - { offsetInCU: 0x25065, offset: 0x584A2B, size: 0x8, addend: 0x0, symName: '__ZN4core3ptr44drop_in_place$LT$syn..lifetime..Lifetime$GT$17hf0cdec2e9ec456d6E.llvm.720949811486110776', symObjAddr: 0x54D0, symBinAddr: 0x128F90, symSize: 0x30 }
  - { offsetInCU: 0x25298, offset: 0x584C5E, size: 0x8, addend: 0x0, symName: '__ZN4core3ptr45drop_in_place$LT$proc_macro2..TokenStream$GT$17h3405f6c513e9f6cbE.llvm.720949811486110776', symObjAddr: 0x5500, symBinAddr: 0x128FC0, symSize: 0x140 }
  - { offsetInCU: 0x25707, offset: 0x5850CD, size: 0x8, addend: 0x0, symName: '__ZN4core3ptr45drop_in_place$LT$syn..generics..TypeParam$GT$17he5eda51070b7de47E.llvm.720949811486110776', symObjAddr: 0x5640, symBinAddr: 0x129100, symSize: 0x230 }
  - { offsetInCU: 0x25F03, offset: 0x5858C9, size: 0x8, addend: 0x0, symName: '__ZN4core3ptr46drop_in_place$LT$syn..generics..ConstParam$GT$17hab0a58c4af8c549cE.llvm.720949811486110776', symObjAddr: 0x5870, symBinAddr: 0x129330, symSize: 0x150 }
  - { offsetInCU: 0x2632D, offset: 0x585CF3, size: 0x8, addend: 0x0, symName: '__ZN4core3ptr47drop_in_place$LT$syn..path..GenericArgument$GT$17h54f8794633f96823E.llvm.720949811486110776', symObjAddr: 0x59C0, symBinAddr: 0x129480, symSize: 0x460 }
  - { offsetInCU: 0x27036, offset: 0x5869FC, size: 0x8, addend: 0x0, symName: '__ZN4core3ptr48drop_in_place$LT$syn..generics..GenericParam$GT$17h9c895978ef08f584E.llvm.720949811486110776', symObjAddr: 0x5E20, symBinAddr: 0x1298E0, symSize: 0x40 }
  - { offsetInCU: 0x27053, offset: 0x586A19, size: 0x8, addend: 0x0, symName: '__ZN4core3ptr49drop_in_place$LT$syn..generics..LifetimeParam$GT$17h41a7c7a290ea6289E.llvm.720949811486110776', symObjAddr: 0x5E60, symBinAddr: 0x129920, symSize: 0xF0 }
  - { offsetInCU: 0x2744B, offset: 0x586E11, size: 0x8, addend: 0x0, symName: '__ZN4core3ptr49drop_in_place$LT$syn..restriction..Visibility$GT$17h2a932c493942ef80E', symObjAddr: 0x5F50, symBinAddr: 0x129A10, symSize: 0x110 }
  - { offsetInCU: 0x2787E, offset: 0x587244, size: 0x8, addend: 0x0, symName: '__ZN4core3ptr50drop_in_place$LT$syn..generics..TypeParamBound$GT$17hcd7771d4c6c221efE.llvm.720949811486110776', symObjAddr: 0x6060, symBinAddr: 0x129B20, symSize: 0x160 }
  - { offsetInCU: 0x27CDC, offset: 0x5876A2, size: 0x8, addend: 0x0, symName: '__ZN4core3ptr50drop_in_place$LT$syn..generics..WherePredicate$GT$17h1a9d05bc1beb1d91E.llvm.720949811486110776', symObjAddr: 0x61C0, symBinAddr: 0x129C80, symSize: 0xA0 }
  - { offsetInCU: 0x27E7D, offset: 0x587843, size: 0x8, addend: 0x0, symName: '__ZN4core3ptr58drop_in_place$LT$alloc..vec..Vec$LT$syn..expr..Arm$GT$$GT$17h1a55df3d2cba1daaE', symObjAddr: 0x6260, symBinAddr: 0x129D20, symSize: 0xD0 }
  - { offsetInCU: 0x2810A, offset: 0x587AD0, size: 0x8, addend: 0x0, symName: '__ZN4core3ptr59drop_in_place$LT$alloc..boxed..Box$LT$syn..pat..Pat$GT$$GT$17h563b135d87aca8abE.llvm.720949811486110776', symObjAddr: 0x6330, symBinAddr: 0x129DF0, symSize: 0x50 }
  - { offsetInCU: 0x28265, offset: 0x587C2B, size: 0x8, addend: 0x0, symName: '__ZN4core3ptr59drop_in_place$LT$alloc..boxed..Box$LT$syn..ty..Type$GT$$GT$17hffed36bad83adacbE.llvm.720949811486110776', symObjAddr: 0x6380, symBinAddr: 0x129E40, symSize: 0x50 }
  - { offsetInCU: 0x283C0, offset: 0x587D86, size: 0x8, addend: 0x0, symName: '__ZN4core3ptr61drop_in_place$LT$alloc..boxed..Box$LT$syn..expr..Expr$GT$$GT$17h01091e47f131475dE.llvm.720949811486110776', symObjAddr: 0x64A0, symBinAddr: 0x129E90, symSize: 0x50 }
  - { offsetInCU: 0x28597, offset: 0x587F5D, size: 0x8, addend: 0x0, symName: '__ZN4core3ptr61drop_in_place$LT$syn..path..ParenthesizedGenericArguments$GT$17h43d4aac5494326a7E.llvm.720949811486110776', symObjAddr: 0x64F0, symBinAddr: 0x129EE0, symSize: 0x170 }
  - { offsetInCU: 0x28B71, offset: 0x588537, size: 0x8, addend: 0x0, symName: '__ZN4core3ptr63drop_in_place$LT$alloc..boxed..Box$LT$syn..lit..LitRepr$GT$$GT$17hd8839b7fb35ee7afE', symObjAddr: 0x6700, symBinAddr: 0x12A050, symSize: 0x60 }
  - { offsetInCU: 0x28E47, offset: 0x58880D, size: 0x8, addend: 0x0, symName: '__ZN4core3ptr64drop_in_place$LT$alloc..boxed..Box$LT$syn..item..UseTree$GT$$GT$17he10cba0a4742709fE', symObjAddr: 0x67B0, symBinAddr: 0x12A0B0, symSize: 0x50 }
  - { offsetInCU: 0x28FC1, offset: 0x588987, size: 0x8, addend: 0x0, symName: '__ZN4core3ptr64drop_in_place$LT$alloc..boxed..Box$LT$syn..pat..FieldPat$GT$$GT$17h4980b70a7597cc08E', symObjAddr: 0x6800, symBinAddr: 0x12A100, symSize: 0x140 }
  - { offsetInCU: 0x2962E, offset: 0x588FF4, size: 0x8, addend: 0x0, symName: '__ZN4core3ptr64drop_in_place$LT$alloc..boxed..Box$LT$syn..ty..BareFnArg$GT$$GT$17h8b34096c620314efE', symObjAddr: 0x6940, symBinAddr: 0x12A240, symSize: 0x140 }
  - { offsetInCU: 0x29B52, offset: 0x589518, size: 0x8, addend: 0x0, symName: '__ZN4core3ptr65drop_in_place$LT$core..option..Option$LT$syn..expr..Label$GT$$GT$17h78189e72a8cb7951E', symObjAddr: 0x6A80, symBinAddr: 0x12A380, symSize: 0x30 }
  - { offsetInCU: 0x29C8D, offset: 0x589653, size: 0x8, addend: 0x0, symName: '__ZN4core3ptr66drop_in_place$LT$core..option..Option$LT$syn..pat..PatRest$GT$$GT$17h61677cf4ff3a7393E', symObjAddr: 0x6AB0, symBinAddr: 0x12A3B0, symSize: 0xE0 }
  - { offsetInCU: 0x29F11, offset: 0x5898D7, size: 0x8, addend: 0x0, symName: '__ZN4core3ptr67drop_in_place$LT$alloc..boxed..Box$LT$syn..expr..FieldValue$GT$$GT$17h93aaccf8aa22ef88E', symObjAddr: 0x6B90, symBinAddr: 0x12A490, symSize: 0x140 }
  - { offsetInCU: 0x2A434, offset: 0x589DFA, size: 0x8, addend: 0x0, symName: '__ZN4core3ptr70drop_in_place$LT$core..option..Option$LT$syn..ty..BareVariadic$GT$$GT$17h45399348ea4b8d55E', symObjAddr: 0x6D60, symBinAddr: 0x12A5D0, symSize: 0x120 }
  - { offsetInCU: 0x2A961, offset: 0x58A327, size: 0x8, addend: 0x0, symName: '__ZN4core3ptr72drop_in_place$LT$alloc..boxed..Box$LT$syn..path..GenericArgument$GT$$GT$17haa7dd8b716637b54E', symObjAddr: 0x6E80, symBinAddr: 0x12A6F0, symSize: 0x2B0 }
  - { offsetInCU: 0x2B34C, offset: 0x58AD12, size: 0x8, addend: 0x0, symName: '__ZN4core3ptr73drop_in_place$LT$alloc..boxed..Box$LT$syn..generics..GenericParam$GT$$GT$17hf6951dcd5ae07324E.llvm.720949811486110776', symObjAddr: 0x7130, symBinAddr: 0x12A9A0, symSize: 0x80 }
  - { offsetInCU: 0x2B4E3, offset: 0x58AEA9, size: 0x8, addend: 0x0, symName: '__ZN4core3ptr73drop_in_place$LT$alloc..vec..Vec$LT$syn..generics..TypeParamBound$GT$$GT$17hdab4c0986d98765bE.llvm.720949811486110776', symObjAddr: 0x71B0, symBinAddr: 0x12AA20, symSize: 0xC0 }
  - { offsetInCU: 0x2B783, offset: 0x58B149, size: 0x8, addend: 0x0, symName: '__ZN4core3ptr75drop_in_place$LT$alloc..boxed..Box$LT$syn..generics..TypeParamBound$GT$$GT$17he61c00698a311a34E', symObjAddr: 0x7270, symBinAddr: 0x12AAE0, symSize: 0xB0 }
  - { offsetInCU: 0x2BA81, offset: 0x58B447, size: 0x8, addend: 0x0, symName: '__ZN4core3ptr76drop_in_place$LT$$LP$syn..generics..GenericParam$C$syn..token..Comma$RP$$GT$17hadd4ee9dc4c521adE.llvm.720949811486110776', symObjAddr: 0x7370, symBinAddr: 0x12AB90, symSize: 0x40 }
  - { offsetInCU: 0x2BAEF, offset: 0x58B4B5, size: 0x8, addend: 0x0, symName: '__ZN4core3ptr82drop_in_place$LT$alloc..vec..Vec$LT$$LP$syn..pat..Pat$C$syn..token..Or$RP$$GT$$GT$17h79250e525f9bf0e5E.llvm.720949811486110776', symObjAddr: 0x7480, symBinAddr: 0x12ABD0, symSize: 0x0 }
  - { offsetInCU: 0x2BDB0, offset: 0x58B776, size: 0x8, addend: 0x0, symName: '__ZN4core3ptr85drop_in_place$LT$alloc..vec..Vec$LT$$LP$syn..ty..Type$C$syn..token..Comma$RP$$GT$$GT$17hf6a59a148065f17dE.llvm.720949811486110776', symObjAddr: 0x7550, symBinAddr: 0x12ACA0, symSize: 0xD0 }
  - { offsetInCU: 0x2C0AF, offset: 0x58BA75, size: 0x8, addend: 0x0, symName: '__ZN4core3ptr86drop_in_place$LT$syn..punctuated..Punctuated$LT$syn..pat..Pat$C$syn..token..Or$GT$$GT$17h8e9173df21a44316E', symObjAddr: 0x7620, symBinAddr: 0x12AD70, symSize: 0x120 }
  - { offsetInCU: 0x2C514, offset: 0x58BEDA, size: 0x8, addend: 0x0, symName: '__ZN4core3ptr87drop_in_place$LT$alloc..vec..Vec$LT$$LP$syn..expr..Expr$C$syn..token..Comma$RP$$GT$$GT$17hbf3f4cd50fb0b0ecE.llvm.720949811486110776', symObjAddr: 0x7740, symBinAddr: 0x12AE90, symSize: 0xD0 }
  - { offsetInCU: 0x2C7D5, offset: 0x58C19B, size: 0x8, addend: 0x0, symName: '__ZN4core3ptr87drop_in_place$LT$core..option..Option$LT$alloc..boxed..Box$LT$syn..pat..Pat$GT$$GT$$GT$17hd7b7c69f601b3926E', symObjAddr: 0x7810, symBinAddr: 0x12AF60, symSize: 0x50 }
  - { offsetInCU: 0x2C947, offset: 0x58C30D, size: 0x8, addend: 0x0, symName: '__ZN4core3ptr87drop_in_place$LT$core..option..Option$LT$alloc..boxed..Box$LT$syn..ty..Type$GT$$GT$$GT$17hd74f5d971aec2972E.llvm.720949811486110776', symObjAddr: 0x7860, symBinAddr: 0x12AFB0, symSize: 0x50 }
  - { offsetInCU: 0x2CAD8, offset: 0x58C49E, size: 0x8, addend: 0x0, symName: '__ZN4core3ptr88drop_in_place$LT$alloc..vec..Vec$LT$$LP$syn..data..Field$C$syn..token..Comma$RP$$GT$$GT$17h02f4d88f184a75f6E.llvm.720949811486110776', symObjAddr: 0x78B0, symBinAddr: 0x12B000, symSize: 0xD0 }
  - { offsetInCU: 0x2CDB8, offset: 0x58C77E, size: 0x8, addend: 0x0, symName: '__ZN4core3ptr88drop_in_place$LT$alloc..vec..Vec$LT$$LP$syn..item..FnArg$C$syn..token..Comma$RP$$GT$$GT$17h9235dca64c193d6aE.llvm.720949811486110776', symObjAddr: 0x7980, symBinAddr: 0x12B0D0, symSize: 0xE0 }
  - { offsetInCU: 0x2D086, offset: 0x58CA4C, size: 0x8, addend: 0x0, symName: '__ZN4core3ptr89drop_in_place$LT$core..option..Option$LT$alloc..boxed..Box$LT$syn..expr..Expr$GT$$GT$$GT$17h8e135ac1a25a2dc5E', symObjAddr: 0x7A60, symBinAddr: 0x12B1B0, symSize: 0x50 }
  - { offsetInCU: 0x2D236, offset: 0x58CBFC, size: 0x8, addend: 0x0, symName: '__ZN4core3ptr89drop_in_place$LT$syn..punctuated..Punctuated$LT$syn..pat..Pat$C$syn..token..Comma$GT$$GT$17h8d60e47f3fb1f87aE', symObjAddr: 0x7AB0, symBinAddr: 0x12B200, symSize: 0x120 }
  - { offsetInCU: 0x2D693, offset: 0x58D059, size: 0x8, addend: 0x0, symName: '__ZN4core3ptr89drop_in_place$LT$syn..punctuated..Punctuated$LT$syn..ty..Type$C$syn..token..Comma$GT$$GT$17ha919b3114742fb9dE.llvm.720949811486110776', symObjAddr: 0x7BD0, symBinAddr: 0x12B320, symSize: 0x120 }
  - { offsetInCU: 0x2DAFC, offset: 0x58D4C2, size: 0x8, addend: 0x0, symName: '__ZN4core3ptr90drop_in_place$LT$alloc..vec..Vec$LT$$LP$syn..data..Variant$C$syn..token..Comma$RP$$GT$$GT$17h680219081cc43a7dE.llvm.720949811486110776', symObjAddr: 0x7CF0, symBinAddr: 0x12B440, symSize: 0xD0 }
  - { offsetInCU: 0x2DDBD, offset: 0x58D783, size: 0x8, addend: 0x0, symName: '__ZN4core3ptr90drop_in_place$LT$alloc..vec..Vec$LT$$LP$syn..item..UseTree$C$syn..token..Comma$RP$$GT$$GT$17hac2434f3c2e2707dE.llvm.720949811486110776', symObjAddr: 0x7DC0, symBinAddr: 0x12B510, symSize: 0xD0 }
  - { offsetInCU: 0x2E07E, offset: 0x58DA44, size: 0x8, addend: 0x0, symName: '__ZN4core3ptr90drop_in_place$LT$alloc..vec..Vec$LT$$LP$syn..pat..FieldPat$C$syn..token..Comma$RP$$GT$$GT$17hb84c43e95b74d098E.llvm.720949811486110776', symObjAddr: 0x7E90, symBinAddr: 0x12B5E0, symSize: 0xD0 }
  - { offsetInCU: 0x2E30B, offset: 0x58DCD1, size: 0x8, addend: 0x0, symName: '__ZN4core3ptr90drop_in_place$LT$alloc..vec..Vec$LT$$LP$syn..ty..BareFnArg$C$syn..token..Comma$RP$$GT$$GT$17ha1bf96fdde0de332E.llvm.720949811486110776', symObjAddr: 0x7F60, symBinAddr: 0x12B6B0, symSize: 0xD0 }
  - { offsetInCU: 0x2E5B7, offset: 0x58DF7D, size: 0x8, addend: 0x0, symName: '__ZN4core3ptr90drop_in_place$LT$core..option..Option$LT$alloc..boxed..Box$LT$syn..data..Field$GT$$GT$$GT$17h326c39537b0fcc46E.llvm.720949811486110776', symObjAddr: 0x8030, symBinAddr: 0x12B780, symSize: 0x50 }
  - { offsetInCU: 0x2E73B, offset: 0x58E101, size: 0x8, addend: 0x0, symName: '__ZN4core3ptr91drop_in_place$LT$syn..punctuated..Punctuated$LT$syn..expr..Expr$C$syn..token..Comma$GT$$GT$17h4f39b83dc86a4159E.llvm.720949811486110776', symObjAddr: 0x8080, symBinAddr: 0x12B7D0, symSize: 0x120 }
  - { offsetInCU: 0x2EBB7, offset: 0x58E57D, size: 0x8, addend: 0x0, symName: '__ZN4core3ptr92drop_in_place$LT$core..option..Option$LT$alloc..boxed..Box$LT$syn..data..Variant$GT$$GT$$GT$17h3f89d7c982191526E', symObjAddr: 0x81A0, symBinAddr: 0x12B8F0, symSize: 0x50 }
  - { offsetInCU: 0x2ED5A, offset: 0x58E720, size: 0x8, addend: 0x0, symName: '__ZN4core3ptr92drop_in_place$LT$syn..punctuated..Punctuated$LT$syn..data..Field$C$syn..token..Comma$GT$$GT$17hca76f5e010a141e5E', symObjAddr: 0x81F0, symBinAddr: 0x12B940, symSize: 0x120 }
  - { offsetInCU: 0x2F197, offset: 0x58EB5D, size: 0x8, addend: 0x0, symName: '__ZN4core3ptr93drop_in_place$LT$alloc..vec..Vec$LT$$LP$syn..expr..FieldValue$C$syn..token..Comma$RP$$GT$$GT$17h9295f6966e75a214E.llvm.720949811486110776', symObjAddr: 0x8310, symBinAddr: 0x12BA60, symSize: 0xD0 }
  - { offsetInCU: 0x2F443, offset: 0x58EE09, size: 0x8, addend: 0x0, symName: '__ZN4core3ptr94drop_in_place$LT$alloc..vec..Vec$LT$$LP$syn..lifetime..Lifetime$C$syn..token..Plus$RP$$GT$$GT$17h5bdaba7f0fbee773E.llvm.720949811486110776', symObjAddr: 0x83E0, symBinAddr: 0x12BB30, symSize: 0x80 }
  - { offsetInCU: 0x2F708, offset: 0x58F0CE, size: 0x8, addend: 0x0, symName: '__ZN4core3ptr94drop_in_place$LT$syn..punctuated..Punctuated$LT$syn..data..Variant$C$syn..token..Comma$GT$$GT$17ha69d7e675441c7e2E', symObjAddr: 0x8460, symBinAddr: 0x12BBB0, symSize: 0x120 }
  - { offsetInCU: 0x2FB45, offset: 0x58F50B, size: 0x8, addend: 0x0, symName: '__ZN4core3ptr94drop_in_place$LT$syn..punctuated..Punctuated$LT$syn..pat..FieldPat$C$syn..token..Comma$GT$$GT$17h112950ea198c8281E', symObjAddr: 0x8580, symBinAddr: 0x12BCD0, symSize: 0xF0 }
  - { offsetInCU: 0x2FE0F, offset: 0x58F7D5, size: 0x8, addend: 0x0, symName: '__ZN4core3ptr94drop_in_place$LT$syn..punctuated..Punctuated$LT$syn..ty..BareFnArg$C$syn..token..Comma$GT$$GT$17h1c7b44310f06243dE', symObjAddr: 0x8670, symBinAddr: 0x12BDC0, symSize: 0xF0 }
  - { offsetInCU: 0x300D9, offset: 0x58FA9F, size: 0x8, addend: 0x0, symName: '__ZN4core3ptr95drop_in_place$LT$core..option..Option$LT$$LP$proc_macro2..Ident$C$syn..token..Colon$RP$$GT$$GT$17ha744bf0f41959716E.llvm.720949811486110776', symObjAddr: 0x8760, symBinAddr: 0x12BEB0, symSize: 0x30 }
  - { offsetInCU: 0x301F5, offset: 0x58FBBB, size: 0x8, addend: 0x0, symName: '__ZN4core3ptr96drop_in_place$LT$alloc..vec..Vec$LT$$LP$syn..path..PathSegment$C$syn..token..PathSep$RP$$GT$$GT$17h42880a1541c295f5E.llvm.720949811486110776', symObjAddr: 0x8790, symBinAddr: 0x12BEE0, symSize: 0xC0 }
  - { offsetInCU: 0x304A1, offset: 0x58FE67, size: 0x8, addend: 0x0, symName: '__ZN4core3ptr96drop_in_place$LT$core..option..Option$LT$alloc..boxed..Box$LT$syn..path..PathSegment$GT$$GT$$GT$17hb447d0f626c86a4eE.llvm.720949811486110776', symObjAddr: 0x8850, symBinAddr: 0x12BFA0, symSize: 0x180 }
  - { offsetInCU: 0x30B51, offset: 0x590517, size: 0x8, addend: 0x0, symName: '__ZN4core3ptr97drop_in_place$LT$syn..punctuated..Punctuated$LT$syn..expr..FieldValue$C$syn..token..Comma$GT$$GT$17h31b81f7462228dcbE', symObjAddr: 0x8A20, symBinAddr: 0x12C120, symSize: 0xF0 }
  - { offsetInCU: 0x30E1B, offset: 0x5907E1, size: 0x8, addend: 0x0, symName: '__ZN4core3ptr98drop_in_place$LT$alloc..vec..Vec$LT$$LP$syn..path..GenericArgument$C$syn..token..Comma$RP$$GT$$GT$17h0657ff261f33b640E.llvm.720949811486110776', symObjAddr: 0x8B10, symBinAddr: 0x12C210, symSize: 0xD0 }
  - { offsetInCU: 0x310E6, offset: 0x590AAC, size: 0x8, addend: 0x0, symName: '__ZN4core3ptr98drop_in_place$LT$syn..punctuated..Punctuated$LT$syn..lifetime..Lifetime$C$syn..token..Plus$GT$$GT$17h0f8fc5f20f465f47E.llvm.720949811486110776', symObjAddr: 0x8BE0, symBinAddr: 0x12C2E0, symSize: 0xC0 }
  - { offsetInCU: 0x3155E, offset: 0x590F24, size: 0x8, addend: 0x0, symName: '__ZN4core3ptr99drop_in_place$LT$alloc..vec..Vec$LT$$LP$syn..generics..GenericParam$C$syn..token..Comma$RP$$GT$$GT$17h80db164c829d38feE.llvm.720949811486110776', symObjAddr: 0x8CA0, symBinAddr: 0x12C3A0, symSize: 0x60 }
  - { offsetInCU: 0x317CF, offset: 0x591195, size: 0x8, addend: 0x0, symName: '__ZN4core3ptr99drop_in_place$LT$syn..punctuated..IntoPairs$LT$syn..path..PathSegment$C$syn..token..PathSep$GT$$GT$17h4470f4520ed6b72cE', symObjAddr: 0x8D00, symBinAddr: 0x12C400, symSize: 0x50 }
  - { offsetInCU: 0x397E4, offset: 0x5991AA, size: 0x8, addend: 0x0, symName: __ZN4core4iter6traits10exact_size17ExactSizeIterator8is_empty17h35ee032e6e88d349E.llvm.720949811486110776, symObjAddr: 0x8D50, symBinAddr: 0x12C450, symSize: 0x0 }
  - { offsetInCU: 0x3998C, offset: 0x599352, size: 0x8, addend: 0x0, symName: __ZN4core4iter6traits10exact_size17ExactSizeIterator8is_empty17h508607d8c3df7979E.llvm.720949811486110776, symObjAddr: 0x8DB0, symBinAddr: 0x12C480, symSize: 0x0 }
  - { offsetInCU: 0x39ADA, offset: 0x5994A0, size: 0x8, addend: 0x0, symName: __ZN4core4iter6traits12double_ended19DoubleEndedIterator15advance_back_by17h4d1e2015fdf30f06E.llvm.720949811486110776, symObjAddr: 0x8E00, symBinAddr: 0x12C4B0, symSize: 0x0 }
  - { offsetInCU: 0x39CDE, offset: 0x5996A4, size: 0x8, addend: 0x0, symName: __ZN4core4iter6traits12double_ended19DoubleEndedIterator15advance_back_by17h71a802ac204bbb9cE.llvm.720949811486110776, symObjAddr: 0x8E80, symBinAddr: 0x12C530, symSize: 0x0 }
  - { offsetInCU: 0x39F5B, offset: 0x599921, size: 0x8, addend: 0x0, symName: __ZN4core4iter6traits12double_ended19DoubleEndedIterator8nth_back17h213ac3cafced8236E.llvm.720949811486110776, symObjAddr: 0x8FE0, symBinAddr: 0x12C5B0, symSize: 0x0 }
  - { offsetInCU: 0x3A454, offset: 0x599E1A, size: 0x8, addend: 0x0, symName: __ZN4core4iter6traits12double_ended19DoubleEndedIterator8nth_back17h5a89a76496a5f1f6E.llvm.720949811486110776, symObjAddr: 0x9090, symBinAddr: 0x12C660, symSize: 0x0 }
  - { offsetInCU: 0x3A90D, offset: 0x59A2D3, size: 0x8, addend: 0x0, symName: __ZN4core4iter6traits8iterator8Iterator10advance_by17h0b5ecbdade63f94bE.llvm.720949811486110776, symObjAddr: 0x92A0, symBinAddr: 0x12C710, symSize: 0x0 }
  - { offsetInCU: 0x3AC25, offset: 0x59A5EB, size: 0x8, addend: 0x0, symName: __ZN4core4iter6traits8iterator8Iterator10advance_by17h81fbac6663af7f06E.llvm.720949811486110776, symObjAddr: 0x9370, symBinAddr: 0x12C780, symSize: 0x0 }
  - { offsetInCU: 0x3AFC0, offset: 0x59A986, size: 0x8, addend: 0x0, symName: __ZN4core4iter6traits8iterator8Iterator3nth17h2760078497cfc6daE.llvm.720949811486110776, symObjAddr: 0x9450, symBinAddr: 0x12C7F0, symSize: 0x0 }
  - { offsetInCU: 0x3B5DA, offset: 0x59AFA0, size: 0x8, addend: 0x0, symName: __ZN4core4iter6traits8iterator8Iterator3nth17h40c29dc3e10916faE.llvm.720949811486110776, symObjAddr: 0x94D0, symBinAddr: 0x12C870, symSize: 0x0 }
  - { offsetInCU: 0x3BBA3, offset: 0x59B569, size: 0x8, addend: 0x0, symName: __ZN4core4iter6traits8iterator8Iterator9size_hint17h27d36cc3f9874dd4E.llvm.720949811486110776, symObjAddr: 0x9650, symBinAddr: 0x12C8F0, symSize: 0x0 }
  - { offsetInCU: 0x3D26F, offset: 0x59CC35, size: 0x8, addend: 0x0, symName: _anon.756ee204431677f15e0e7c03ad545a45.9.llvm.720949811486110776, symObjAddr: 0x12D68, symBinAddr: 0x34DF28, symSize: 0x0 }
  - { offsetInCU: 0x3D369, offset: 0x59CD2F, size: 0x8, addend: 0x0, symName: _anon.756ee204431677f15e0e7c03ad545a45.14.llvm.720949811486110776, symObjAddr: 0x12F38, symBinAddr: 0x34DFE8, symSize: 0x0 }
  - { offsetInCU: 0x3F947, offset: 0x59F30D, size: 0x8, addend: 0x0, symName: '__ZN3syn10punctuated23Punctuated$LT$T$C$P$GT$10push_value17h1464794b59e71484E', symObjAddr: 0x9CF0, symBinAddr: 0x12C910, symSize: 0x110 }
  - { offsetInCU: 0x3FBC2, offset: 0x59F588, size: 0x8, addend: 0x0, symName: '__ZN3syn10punctuated23Punctuated$LT$T$C$P$GT$10push_value17h19b8fd7bec07dcc7E', symObjAddr: 0x9E00, symBinAddr: 0x12CA20, symSize: 0x0 }
  - { offsetInCU: 0x3FE57, offset: 0x59F81D, size: 0x8, addend: 0x0, symName: '__ZN3syn10punctuated23Punctuated$LT$T$C$P$GT$10push_value17h2ac8ee7d941e7bd6E', symObjAddr: 0x9F10, symBinAddr: 0x12CB30, symSize: 0x110 }
  - { offsetInCU: 0x400D2, offset: 0x59FA98, size: 0x8, addend: 0x0, symName: '__ZN3syn10punctuated23Punctuated$LT$T$C$P$GT$10push_value17h4d756fff73ab62fcE', symObjAddr: 0xA020, symBinAddr: 0x12CC40, symSize: 0x110 }
  - { offsetInCU: 0x4034D, offset: 0x59FD13, size: 0x8, addend: 0x0, symName: '__ZN3syn10punctuated23Punctuated$LT$T$C$P$GT$10push_value17h922210f6ed64bedfE', symObjAddr: 0xA130, symBinAddr: 0x12CD50, symSize: 0x110 }
  - { offsetInCU: 0x405C8, offset: 0x59FF8E, size: 0x8, addend: 0x0, symName: '__ZN3syn10punctuated23Punctuated$LT$T$C$P$GT$10push_value17h9bf9b9eda25b7b08E', symObjAddr: 0xA240, symBinAddr: 0x12CE60, symSize: 0x100 }
  - { offsetInCU: 0x40842, offset: 0x5A0208, size: 0x8, addend: 0x0, symName: '__ZN3syn10punctuated23Punctuated$LT$T$C$P$GT$10push_value17ha11f44006af1fce5E', symObjAddr: 0xA340, symBinAddr: 0x12CF60, symSize: 0x100 }
  - { offsetInCU: 0x40AB3, offset: 0x5A0479, size: 0x8, addend: 0x0, symName: '__ZN3syn10punctuated23Punctuated$LT$T$C$P$GT$10push_value17hb125b8a2ccd1d083E', symObjAddr: 0xA440, symBinAddr: 0x12D060, symSize: 0x110 }
  - { offsetInCU: 0x40E38, offset: 0x5A07FE, size: 0x8, addend: 0x0, symName: '__ZN3syn10punctuated23Punctuated$LT$T$C$P$GT$10push_value17hbe2de12ba6ba96f3E', symObjAddr: 0xA550, symBinAddr: 0x12D170, symSize: 0xD0 }
  - { offsetInCU: 0x410A9, offset: 0x5A0A6F, size: 0x8, addend: 0x0, symName: '__ZN3syn10punctuated23Punctuated$LT$T$C$P$GT$10push_value17hc84f0581e5006d1dE', symObjAddr: 0xA620, symBinAddr: 0x12D240, symSize: 0x110 }
  - { offsetInCU: 0x41324, offset: 0x5A0CEA, size: 0x8, addend: 0x0, symName: '__ZN3syn10punctuated23Punctuated$LT$T$C$P$GT$10push_value17hc8f25dfb73f20dfeE', symObjAddr: 0xA730, symBinAddr: 0x12D350, symSize: 0xF0 }
  - { offsetInCU: 0x41588, offset: 0x5A0F4E, size: 0x8, addend: 0x0, symName: '__ZN3syn10punctuated23Punctuated$LT$T$C$P$GT$10push_value17hf794ec4a43a6463aE', symObjAddr: 0xA820, symBinAddr: 0x12D440, symSize: 0x110 }
  - { offsetInCU: 0x4181D, offset: 0x5A11E3, size: 0x8, addend: 0x0, symName: '__ZN3syn10punctuated23Punctuated$LT$T$C$P$GT$10push_value17hfcd023ac5ed059ccE', symObjAddr: 0xA930, symBinAddr: 0x12D550, symSize: 0x100 }
  - { offsetInCU: 0x41AA8, offset: 0x5A146E, size: 0x8, addend: 0x0, symName: '__ZN3syn10punctuated23Punctuated$LT$T$C$P$GT$10push_punct17h009caae710d7fa9eE', symObjAddr: 0xAA30, symBinAddr: 0x12D650, symSize: 0x120 }
  - { offsetInCU: 0x41E87, offset: 0x5A184D, size: 0x8, addend: 0x0, symName: '__ZN3syn10punctuated23Punctuated$LT$T$C$P$GT$10push_punct17h466bf79492cbbcb5E', symObjAddr: 0xAB50, symBinAddr: 0x12D770, symSize: 0x120 }
  - { offsetInCU: 0x42280, offset: 0x5A1C46, size: 0x8, addend: 0x0, symName: '__ZN3syn10punctuated23Punctuated$LT$T$C$P$GT$10push_punct17h4774822b9e0d6ec3E', symObjAddr: 0xAC70, symBinAddr: 0x12D890, symSize: 0x120 }
