---
triple:          'x86_64-apple-darwin'
binary-path:     "/Users/justinlanouette/Chaos/ChaöS-Token/hello_world/target/release/deps/libsolana_sdk_macro-95c226f3e90abd84.dylib"
relocations:
  - { offsetInCU: 0x1E, offset: 0x1E, size: 0x8, addend: 0x0, symName: __ZN10proc_macro6bridge6client14HandleCounters3get17h02da01958788119eE, symObjAddr: 0x0, symBinAddr: 0x950, symSize: 0x10 }
  - { offsetInCU: 0x40, offset: 0x40, size: 0x8, addend: 0x0, symName: ___rustc_proc_macro_decls_af3d510aa98d25ac__, symObjAddr: 0x11250, symBinAddr: 0x224450, symSize: 0x0 }
  - { offsetInCU: 0x4E, offset: 0x4E, size: 0x8, addend: 0x0, symName: __ZN16solana_sdk_macro8parse_id17he2c9660bba4ff59bE.llvm.9230838213056212298, symObjAddr: 0xA4C0, symBinAddr: 0xAE10, symSize: 0x480 }
  - { offsetInCU: 0x9B2, offset: 0x9B2, size: 0x8, addend: 0x0, symName: __ZN16solana_sdk_macro12id_to_tokens17heb47b5c614feac17E.llvm.9230838213056212298, symObjAddr: 0xA940, symBinAddr: 0xB290, symSize: 0x7D0 }
  - { offsetInCU: 0xBB0, offset: 0xBB0, size: 0x8, addend: 0x0, symName: __ZN16solana_sdk_macro23deprecated_id_to_tokens17hef7006e05b1341fcE.llvm.9230838213056212298, symObjAddr: 0xB110, symBinAddr: 0xBA60, symSize: 0x9A0 }
  - { offsetInCU: 0xE35, offset: 0xE35, size: 0x8, addend: 0x0, symName: '__ZN58_$LT$solana_sdk_macro..Id$u20$as$u20$syn..parse..Parse$GT$5parse17h3d5184a04151c12aE', symObjAddr: 0xBAB0, symBinAddr: 0xC400, symSize: 0x0 }
  - { offsetInCU: 0xEB5, offset: 0xEB5, size: 0x8, addend: 0x0, symName: '__ZN68_$LT$solana_sdk_macro..ProgramSdkId$u20$as$u20$syn..parse..Parse$GT$5parse17h8e236984129cb4efE', symObjAddr: 0xBBD0, symBinAddr: 0xC520, symSize: 0x0 }
  - { offsetInCU: 0xF40, offset: 0xF40, size: 0x8, addend: 0x0, symName: '__ZN67_$LT$solana_sdk_macro..RespanInput$u20$as$u20$syn..parse..Parse$GT$5parse17h45328e42fdfc4e99E', symObjAddr: 0xBCF0, symBinAddr: 0xC640, symSize: 0x450 }
  - { offsetInCU: 0x15FB, offset: 0x15FB, size: 0x8, addend: 0x0, symName: __ZN16solana_sdk_macro6pubkey17h7c077e0f348239d4E, symObjAddr: 0xC140, symBinAddr: 0xCA90, symSize: 0x1D0 }
  - { offsetInCU: 0x1A37, offset: 0x1A37, size: 0x8, addend: 0x0, symName: __ZN16solana_sdk_macro14program_pubkey17hc219487b54e22422E, symObjAddr: 0xC310, symBinAddr: 0xCC60, symSize: 0x1D0 }
  - { offsetInCU: 0x1E54, offset: 0x1E54, size: 0x8, addend: 0x0, symName: __ZN16solana_sdk_macro10declare_id17hd8f54f78a7966669E, symObjAddr: 0xC4E0, symBinAddr: 0xCE30, symSize: 0x220 }
  - { offsetInCU: 0x2212, offset: 0x2212, size: 0x8, addend: 0x0, symName: __ZN16solana_sdk_macro21declare_deprecated_id17h3993d773881be55fE, symObjAddr: 0xC700, symBinAddr: 0xD050, symSize: 0x220 }
  - { offsetInCU: 0x25BD, offset: 0x25BD, size: 0x8, addend: 0x0, symName: __ZN16solana_sdk_macro18program_declare_id17h67111709e26a75b4E, symObjAddr: 0xC920, symBinAddr: 0xD270, symSize: 0x220 }
  - { offsetInCU: 0x297B, offset: 0x297B, size: 0x8, addend: 0x0, symName: __ZN16solana_sdk_macro29program_declare_deprecated_id17h0190193098ec5389E, symObjAddr: 0xCB40, symBinAddr: 0xD490, symSize: 0x220 }
  - { offsetInCU: 0x2DBD, offset: 0x2DBD, size: 0x8, addend: 0x0, symName: __ZN16solana_sdk_macro12parse_pubkey17h5cea8dceb6e22646E, symObjAddr: 0xCD60, symBinAddr: 0xD6B0, symSize: 0x3B0 }
  - { offsetInCU: 0x36F0, offset: 0x36F0, size: 0x8, addend: 0x0, symName: '__ZN63_$LT$solana_sdk_macro..Pubkeys$u20$as$u20$syn..parse..Parse$GT$5parse17h8d13972da8abab6bE', symObjAddr: 0xD110, symBinAddr: 0xDA60, symSize: 0x7A0 }
  - { offsetInCU: 0x451F, offset: 0x451F, size: 0x8, addend: 0x0, symName: __ZN16solana_sdk_macro7pubkeys17h5c52384c2607974bE, symObjAddr: 0xD8B0, symBinAddr: 0xE200, symSize: 0x5F0 }
  - { offsetInCU: 0x4AD9, offset: 0x4AD9, size: 0x8, addend: 0x0, symName: __ZN16solana_sdk_macro17wasm_bindgen_stub17h7b6da5e05a6ca557E, symObjAddr: 0xDEA0, symBinAddr: 0xE7F0, symSize: 0x360 }
  - { offsetInCU: 0x535E, offset: 0x535E, size: 0x8, addend: 0x0, symName: __ZN16solana_sdk_macro19derive_clone_zeroed17hd62c9bfeaedd19c0E, symObjAddr: 0xE200, symBinAddr: 0xEB50, symSize: 0xC40 }
  - { offsetInCU: 0x5EE2, offset: 0x5EE2, size: 0x8, addend: 0x0, symName: __ZN16solana_sdk_macro6respan17h830bac13677e9f94E, symObjAddr: 0xEE40, symBinAddr: 0xF790, symSize: 0x2A2 }
  - { offsetInCU: 0xA16B, offset: 0xA16B, size: 0x8, addend: 0x0, symName: '__ZN4core3ptr100drop_in_place$LT$core..option..Option$LT$alloc..boxed..Box$LT$syn..path..GenericArgument$GT$$GT$$GT$17hc3ebb1c43276de35E', symObjAddr: 0x10, symBinAddr: 0x960, symSize: 0x50 }
  - { offsetInCU: 0xA359, offset: 0xA359, size: 0x8, addend: 0x0, symName: '__ZN4core3ptr100drop_in_place$LT$syn..punctuated..Punctuated$LT$proc_macro2..TokenStream$C$syn..token..Comma$GT$$GT$17h2333e03ce1c41fd7E', symObjAddr: 0x60, symBinAddr: 0x9B0, symSize: 0x120 }
  - { offsetInCU: 0xA9C4, offset: 0xA9C4, size: 0x8, addend: 0x0, symName: '__ZN4core3ptr100drop_in_place$LT$syn..punctuated..Punctuated$LT$syn..path..PathSegment$C$syn..token..PathSep$GT$$GT$17h82ce1be2a77042c5E', symObjAddr: 0x180, symBinAddr: 0xAD0, symSize: 0x260 }
  - { offsetInCU: 0xB35D, offset: 0xB35D, size: 0x8, addend: 0x0, symName: '__ZN4core3ptr103drop_in_place$LT$core..option..Option$LT$alloc..boxed..Box$LT$syn..generics..TypeParamBound$GT$$GT$$GT$17hc50bb922e0ba62acE', symObjAddr: 0x3E0, symBinAddr: 0xD30, symSize: 0x50 }
  - { offsetInCU: 0xB5A8, offset: 0xB5A8, size: 0x8, addend: 0x0, symName: '__ZN4core3ptr103drop_in_place$LT$core..option..Option$LT$alloc..boxed..Box$LT$syn..generics..WherePredicate$GT$$GT$$GT$17hbea9f53f261c9840E', symObjAddr: 0x430, symBinAddr: 0xD80, symSize: 0xD0 }
  - { offsetInCU: 0xB93B, offset: 0xB93B, size: 0x8, addend: 0x0, symName: '__ZN4core3ptr103drop_in_place$LT$syn..punctuated..Punctuated$LT$syn..generics..GenericParam$C$syn..token..Comma$GT$$GT$17h5f295eef942e04d8E', symObjAddr: 0x500, symBinAddr: 0xE50, symSize: 0xF0 }
  - { offsetInCU: 0xBDA1, offset: 0xBDA1, size: 0x8, addend: 0x0, symName: '__ZN4core3ptr104drop_in_place$LT$syn..punctuated..Punctuated$LT$syn..generics..TypeParamBound$C$syn..token..Plus$GT$$GT$17h69f2b997a3e55d25E', symObjAddr: 0x5F0, symBinAddr: 0xF40, symSize: 0x190 }
  - { offsetInCU: 0xC3B7, offset: 0xC3B7, size: 0x8, addend: 0x0, symName: '__ZN4core3ptr115drop_in_place$LT$core..option..Option$LT$$LP$syn..token..Brace$C$alloc..vec..Vec$LT$syn..item..Item$GT$$RP$$GT$$GT$17h6c103102512890d6E', symObjAddr: 0x780, symBinAddr: 0x10D0, symSize: 0xE0 }
  - { offsetInCU: 0xC6DA, offset: 0xC6DA, size: 0x8, addend: 0x0, symName: '__ZN4core3ptr34drop_in_place$LT$syn..lit..Lit$GT$17h1f4687645f8bfe7eE', symObjAddr: 0x860, symBinAddr: 0x11B0, symSize: 0x110 }
  - { offsetInCU: 0xCC33, offset: 0xCC33, size: 0x8, addend: 0x0, symName: '__ZN4core3ptr34drop_in_place$LT$syn..pat..Pat$GT$17hde681b9baf8fb08dE', symObjAddr: 0x970, symBinAddr: 0x12C0, symSize: 0x1000 }
  - { offsetInCU: 0x10758, offset: 0x10758, size: 0x8, addend: 0x0, symName: '__ZN4core3ptr34drop_in_place$LT$syn..ty..Type$GT$17h0106c15e48fae4dfE', symObjAddr: 0x1970, symBinAddr: 0x22C0, symSize: 0x4F0 }
  - { offsetInCU: 0x11CA3, offset: 0x11CA3, size: 0x8, addend: 0x0, symName: '__ZN4core3ptr36drop_in_place$LT$syn..expr..Expr$GT$17h010d2bf1f3f18a00E', symObjAddr: 0x1E60, symBinAddr: 0x27B0, symSize: 0x28E0 }
  - { offsetInCU: 0x1B5CF, offset: 0x1B5CF, size: 0x8, addend: 0x0, symName: '__ZN4core3ptr36drop_in_place$LT$syn..item..Item$GT$17h3cd4799645f8ab5eE', symObjAddr: 0x4740, symBinAddr: 0x5090, symSize: 0x1840 }
  - { offsetInCU: 0x20D18, offset: 0x20D18, size: 0x8, addend: 0x0, symName: '__ZN4core3ptr36drop_in_place$LT$syn..mac..Macro$GT$17h7139b459d6850b0cE', symObjAddr: 0x5F80, symBinAddr: 0x68D0, symSize: 0x40 }
  - { offsetInCU: 0x20D52, offset: 0x20D52, size: 0x8, addend: 0x0, symName: '__ZN4core3ptr36drop_in_place$LT$syn..path..Path$GT$17hf592a52027c9597aE', symObjAddr: 0x5FC0, symBinAddr: 0x6910, symSize: 0x220 }
  - { offsetInCU: 0x21687, offset: 0x21687, size: 0x8, addend: 0x0, symName: '__ZN4core3ptr37drop_in_place$LT$syn..stmt..Block$GT$17h8d14d314b566db1fE', symObjAddr: 0x61E0, symBinAddr: 0x6B30, symSize: 0xD0 }
  - { offsetInCU: 0x2194A, offset: 0x2194A, size: 0x8, addend: 0x0, symName: '__ZN4core3ptr38drop_in_place$LT$syn..data..Fields$GT$17hb4205b88dba589abE', symObjAddr: 0x62B0, symBinAddr: 0x6C00, symSize: 0x190 }
  - { offsetInCU: 0x21DA6, offset: 0x21DA6, size: 0x8, addend: 0x0, symName: '__ZN4core3ptr38drop_in_place$LT$syn..error..Error$GT$17hb029701df54906f9E.llvm.9230838213056212298', symObjAddr: 0x6440, symBinAddr: 0x6D90, symSize: 0x80 }
  - { offsetInCU: 0x22064, offset: 0x22064, size: 0x8, addend: 0x0, symName: '__ZN4core3ptr38drop_in_place$LT$syn..expr..Member$GT$17h4c1444f728d1ac4bE', symObjAddr: 0x64C0, symBinAddr: 0x6E10, symSize: 0x30 }
  - { offsetInCU: 0x22278, offset: 0x22278, size: 0x8, addend: 0x0, symName: '__ZN4core3ptr39drop_in_place$LT$proc_macro2..Group$GT$17h74c4bb75c10f28bdE', symObjAddr: 0x64F0, symBinAddr: 0x6E40, symSize: 0x60 }
  - { offsetInCU: 0x223C6, offset: 0x223C6, size: 0x8, addend: 0x0, symName: '__ZN4core3ptr39drop_in_place$LT$proc_macro2..Ident$GT$17h9e15763a81c150e3E', symObjAddr: 0x6550, symBinAddr: 0x6EA0, symSize: 0x30 }
  - { offsetInCU: 0x225BB, offset: 0x225BB, size: 0x8, addend: 0x0, symName: '__ZN4core3ptr39drop_in_place$LT$syn..item..UseTree$GT$17hbef1676b25e8e560E', symObjAddr: 0x6580, symBinAddr: 0x6ED0, symSize: 0x1D0 }
  - { offsetInCU: 0x22CBB, offset: 0x22CBB, size: 0x8, addend: 0x0, symName: '__ZN4core3ptr40drop_in_place$LT$syn..ty..ReturnType$GT$17he2b77263b1f99703E', symObjAddr: 0x6750, symBinAddr: 0x70A0, symSize: 0x50 }
  - { offsetInCU: 0x22E2D, offset: 0x22E2D, size: 0x8, addend: 0x0, symName: '__ZN4core3ptr41drop_in_place$LT$syn..expr..ExprConst$GT$17h51915508e1311471E', symObjAddr: 0x67A0, symBinAddr: 0x70F0, symSize: 0x180 }
  - { offsetInCU: 0x233DF, offset: 0x233DF, size: 0x8, addend: 0x0, symName: '__ZN4core3ptr41drop_in_place$LT$syn..item..Signature$GT$17h3d2084b5862c4367E', symObjAddr: 0x6920, symBinAddr: 0x7270, symSize: 0x240 }
  - { offsetInCU: 0x23C58, offset: 0x23C58, size: 0x8, addend: 0x0, symName: '__ZN4core3ptr42drop_in_place$LT$syn..item..ItemStruct$GT$17h35d69cb66d5ecd8bE', symObjAddr: 0x6B60, symBinAddr: 0x74B0, symSize: 0x1A0 }
  - { offsetInCU: 0x2418F, offset: 0x2418F, size: 0x8, addend: 0x0, symName: '__ZN4core3ptr43drop_in_place$LT$proc_macro2..TokenTree$GT$17he5d199be5592457aE', symObjAddr: 0x6D00, symBinAddr: 0x7650, symSize: 0xB0 }
  - { offsetInCU: 0x244A3, offset: 0x244A3, size: 0x8, addend: 0x0, symName: '__ZN4core3ptr43drop_in_place$LT$syn..data..FieldsNamed$GT$17ha8647c0fe5fcc54dE', symObjAddr: 0x6DB0, symBinAddr: 0x7700, symSize: 0xE0 }
  - { offsetInCU: 0x24792, offset: 0x24792, size: 0x8, addend: 0x0, symName: '__ZN4core3ptr44drop_in_place$LT$syn..generics..Generics$GT$17h6161a1571fae173cE', symObjAddr: 0x6E90, symBinAddr: 0x77E0, symSize: 0x40 }
  - { offsetInCU: 0x247AF, offset: 0x247AF, size: 0x8, addend: 0x0, symName: '__ZN4core3ptr44drop_in_place$LT$syn..lifetime..Lifetime$GT$17ha08727e55d333d3eE', symObjAddr: 0x6ED0, symBinAddr: 0x7820, symSize: 0x30 }
  - { offsetInCU: 0x24928, offset: 0x24928, size: 0x8, addend: 0x0, symName: '__ZN4core3ptr44drop_in_place$LT$syn..parse..ParseBuffer$GT$17hd6693329ccc45cd6E', symObjAddr: 0x6F00, symBinAddr: 0x7850, symSize: 0x70 }
  - { offsetInCU: 0x24CB8, offset: 0x24CB8, size: 0x8, addend: 0x0, symName: '__ZN4core3ptr45drop_in_place$LT$proc_macro2..TokenStream$GT$17he80d81ee0aefd4e0E.llvm.9230838213056212298', symObjAddr: 0x6F70, symBinAddr: 0x78C0, symSize: 0x140 }
  - { offsetInCU: 0x25127, offset: 0x25127, size: 0x8, addend: 0x0, symName: '__ZN4core3ptr45drop_in_place$LT$syn..generics..TypeParam$GT$17hb4a24b881662578aE', symObjAddr: 0x70B0, symBinAddr: 0x7A00, symSize: 0x230 }
  - { offsetInCU: 0x25904, offset: 0x25904, size: 0x8, addend: 0x0, symName: '__ZN4core3ptr46drop_in_place$LT$solana_sdk_macro..Pubkeys$GT$17h760b0b0bb9c1b33cE', symObjAddr: 0x72E0, symBinAddr: 0x7C30, symSize: 0x40 }
  - { offsetInCU: 0x25A20, offset: 0x25A20, size: 0x8, addend: 0x0, symName: '__ZN4core3ptr46drop_in_place$LT$syn..generics..ConstParam$GT$17ha0167add76e199e3E', symObjAddr: 0x7320, symBinAddr: 0x7C70, symSize: 0x150 }
  - { offsetInCU: 0x25E4A, offset: 0x25E4A, size: 0x8, addend: 0x0, symName: '__ZN4core3ptr47drop_in_place$LT$syn..path..GenericArgument$GT$17h0055728b8de7b667E', symObjAddr: 0x7470, symBinAddr: 0x7DC0, symSize: 0x4A0 }
  - { offsetInCU: 0x26EF1, offset: 0x26EF1, size: 0x8, addend: 0x0, symName: '__ZN4core3ptr49drop_in_place$LT$syn..generics..LifetimeParam$GT$17h36966eca2bc25019E', symObjAddr: 0x7910, symBinAddr: 0x8260, symSize: 0xF0 }
  - { offsetInCU: 0x272AB, offset: 0x272AB, size: 0x8, addend: 0x0, symName: '__ZN4core3ptr49drop_in_place$LT$syn..restriction..Visibility$GT$17h8119a2a070fe079dE', symObjAddr: 0x7A00, symBinAddr: 0x8350, symSize: 0x60 }
  - { offsetInCU: 0x2742E, offset: 0x2742E, size: 0x8, addend: 0x0, symName: '__ZN4core3ptr50drop_in_place$LT$syn..generics..TypeParamBound$GT$17h61b62e36292ba54eE', symObjAddr: 0x7A60, symBinAddr: 0x83B0, symSize: 0x160 }
  - { offsetInCU: 0x2784E, offset: 0x2784E, size: 0x8, addend: 0x0, symName: '__ZN4core3ptr58drop_in_place$LT$alloc..vec..Vec$LT$syn..expr..Arm$GT$$GT$17heb67d33357be49cfE', symObjAddr: 0x7BC0, symBinAddr: 0x8510, symSize: 0xD0 }
  - { offsetInCU: 0x27ADB, offset: 0x27ADB, size: 0x8, addend: 0x0, symName: '__ZN4core3ptr59drop_in_place$LT$alloc..boxed..Box$LT$syn..pat..Pat$GT$$GT$17h177bea0e0defbb19E', symObjAddr: 0x7C90, symBinAddr: 0x85E0, symSize: 0x50 }
  - { offsetInCU: 0x27C36, offset: 0x27C36, size: 0x8, addend: 0x0, symName: '__ZN4core3ptr59drop_in_place$LT$alloc..boxed..Box$LT$syn..ty..Type$GT$$GT$17h3c530910e46a6c16E', symObjAddr: 0x7CE0, symBinAddr: 0x8630, symSize: 0x50 }
  - { offsetInCU: 0x27D91, offset: 0x27D91, size: 0x8, addend: 0x0, symName: '__ZN4core3ptr61drop_in_place$LT$alloc..boxed..Box$LT$syn..expr..Expr$GT$$GT$17h9c9a6e23a929c358E', symObjAddr: 0x7D30, symBinAddr: 0x8680, symSize: 0x50 }
  - { offsetInCU: 0x27F68, offset: 0x27F68, size: 0x8, addend: 0x0, symName: '__ZN4core3ptr61drop_in_place$LT$syn..path..ParenthesizedGenericArguments$GT$17h2231cf5dd7f94d0dE', symObjAddr: 0x7D80, symBinAddr: 0x86D0, symSize: 0x170 }
  - { offsetInCU: 0x2852F, offset: 0x2852F, size: 0x8, addend: 0x0, symName: '__ZN4core3ptr62drop_in_place$LT$alloc..boxed..Box$LT$syn..stmt..Block$GT$$GT$17h2d91d43260095047E', symObjAddr: 0x7EF0, symBinAddr: 0x8840, symSize: 0xE0 }
  - { offsetInCU: 0x2890C, offset: 0x2890C, size: 0x8, addend: 0x0, symName: '__ZN4core3ptr62drop_in_place$LT$syn..path..AngleBracketedGenericArguments$GT$17h3935a371a23d01eeE', symObjAddr: 0x7FD0, symBinAddr: 0x8920, symSize: 0x120 }
  - { offsetInCU: 0x28D22, offset: 0x28D22, size: 0x8, addend: 0x0, symName: '__ZN4core3ptr63drop_in_place$LT$alloc..boxed..Box$LT$syn..lit..LitRepr$GT$$GT$17h3ace10d3a7928f8cE', symObjAddr: 0x80F0, symBinAddr: 0x8A40, symSize: 0x60 }
  - { offsetInCU: 0x28FF8, offset: 0x28FF8, size: 0x8, addend: 0x0, symName: '__ZN4core3ptr63drop_in_place$LT$alloc..vec..Vec$LT$syn..item..ImplItem$GT$$GT$17haf0ee9cdd28718d2E', symObjAddr: 0x8150, symBinAddr: 0x8AA0, symSize: 0x80 }
  - { offsetInCU: 0x29276, offset: 0x29276, size: 0x8, addend: 0x0, symName: '__ZN4core3ptr64drop_in_place$LT$alloc..boxed..Box$LT$syn..item..UseTree$GT$$GT$17ha62eb7e7fa717c51E', symObjAddr: 0x81D0, symBinAddr: 0x8B20, symSize: 0x50 }
  - { offsetInCU: 0x293F0, offset: 0x293F0, size: 0x8, addend: 0x0, symName: '__ZN4core3ptr64drop_in_place$LT$alloc..boxed..Box$LT$syn..pat..FieldPat$GT$$GT$17h52f6106523bf1449E', symObjAddr: 0x8220, symBinAddr: 0x8B70, symSize: 0x140 }
  - { offsetInCU: 0x29A9B, offset: 0x29A9B, size: 0x8, addend: 0x0, symName: '__ZN4core3ptr64drop_in_place$LT$alloc..boxed..Box$LT$syn..ty..BareFnArg$GT$$GT$17hb641e3de6f34c275E', symObjAddr: 0x8360, symBinAddr: 0x8CB0, symSize: 0x140 }
  - { offsetInCU: 0x29FBF, offset: 0x29FBF, size: 0x8, addend: 0x0, symName: '__ZN4core3ptr64drop_in_place$LT$alloc..vec..Vec$LT$syn..item..TraitItem$GT$$GT$17hbd244ce2bbf85f4eE', symObjAddr: 0x84A0, symBinAddr: 0x8DF0, symSize: 0x80 }
  - { offsetInCU: 0x2A23D, offset: 0x2A23D, size: 0x8, addend: 0x0, symName: '__ZN4core3ptr65drop_in_place$LT$core..option..Option$LT$syn..expr..Label$GT$$GT$17h91cf194cd5e34cd5E', symObjAddr: 0x8520, symBinAddr: 0x8E70, symSize: 0x30 }
  - { offsetInCU: 0x2A378, offset: 0x2A378, size: 0x8, addend: 0x0, symName: '__ZN4core3ptr66drop_in_place$LT$alloc..vec..Vec$LT$syn..item..ForeignItem$GT$$GT$17h89c78ef64d9fade1E', symObjAddr: 0x8550, symBinAddr: 0x8EA0, symSize: 0x80 }
  - { offsetInCU: 0x2A5F6, offset: 0x2A5F6, size: 0x8, addend: 0x0, symName: '__ZN4core3ptr66drop_in_place$LT$core..option..Option$LT$syn..pat..PatRest$GT$$GT$17hbb6129f481ecab95E', symObjAddr: 0x85D0, symBinAddr: 0x8F20, symSize: 0xE0 }
  - { offsetInCU: 0x2A87A, offset: 0x2A87A, size: 0x8, addend: 0x0, symName: '__ZN4core3ptr67drop_in_place$LT$alloc..boxed..Box$LT$syn..expr..FieldValue$GT$$GT$17ha1e4c19bb7a29641E', symObjAddr: 0x86B0, symBinAddr: 0x9000, symSize: 0x140 }
  - { offsetInCU: 0x2AD7E, offset: 0x2AD7E, size: 0x8, addend: 0x0, symName: '__ZN4core3ptr68drop_in_place$LT$alloc..boxed..Box$LT$syn..path..PathSegment$GT$$GT$17h23fddb1adfb9011eE', symObjAddr: 0x87F0, symBinAddr: 0x9140, symSize: 0x190 }
  - { offsetInCU: 0x2B49A, offset: 0x2B49A, size: 0x8, addend: 0x0, symName: '__ZN4core3ptr68drop_in_place$LT$core..option..Option$LT$syn..item..Variadic$GT$$GT$17h4f2d5c295cf7eeecE', symObjAddr: 0x8980, symBinAddr: 0x92D0, symSize: 0x130 }
  - { offsetInCU: 0x2B9B8, offset: 0x2B9B8, size: 0x8, addend: 0x0, symName: '__ZN4core3ptr70drop_in_place$LT$core..option..Option$LT$syn..ty..BareVariadic$GT$$GT$17h3bf2d19dd9d64c19E', symObjAddr: 0x8AB0, symBinAddr: 0x9400, symSize: 0x120 }
  - { offsetInCU: 0x2BEE5, offset: 0x2BEE5, size: 0x8, addend: 0x0, symName: '__ZN4core3ptr72drop_in_place$LT$alloc..boxed..Box$LT$syn..path..GenericArgument$GT$$GT$17h44a3862ecec4332bE', symObjAddr: 0x8BD0, symBinAddr: 0x9520, symSize: 0x1D0 }
  - { offsetInCU: 0x2C488, offset: 0x2C488, size: 0x8, addend: 0x0, symName: '__ZN4core3ptr72drop_in_place$LT$core..option..Option$LT$syn..lifetime..Lifetime$GT$$GT$17hdccab75a5d5c39b8E', symObjAddr: 0x8DA0, symBinAddr: 0x96F0, symSize: 0x30 }
  - { offsetInCU: 0x2C5A4, offset: 0x2C5A4, size: 0x8, addend: 0x0, symName: '__ZN4core3ptr73drop_in_place$LT$alloc..boxed..Box$LT$syn..generics..GenericParam$GT$$GT$17hfa95abdb0b21754aE', symObjAddr: 0x8DD0, symBinAddr: 0x9720, symSize: 0x80 }
  - { offsetInCU: 0x2C71C, offset: 0x2C71C, size: 0x8, addend: 0x0, symName: '__ZN4core3ptr75drop_in_place$LT$alloc..boxed..Box$LT$syn..generics..TypeParamBound$GT$$GT$17h4c62423d3c63ecb3E', symObjAddr: 0x8E50, symBinAddr: 0x97A0, symSize: 0xB0 }
  - { offsetInCU: 0x2CA96, offset: 0x2CA96, size: 0x8, addend: 0x0, symName: '__ZN4core3ptr75drop_in_place$LT$core..option..Option$LT$syn..generics..WhereClause$GT$$GT$17hac930f0f6572f1f1E', symObjAddr: 0x8F00, symBinAddr: 0x9850, symSize: 0x90 }
  - { offsetInCU: 0x2CD4C, offset: 0x2CD4C, size: 0x8, addend: 0x0, symName: '__ZN4core3ptr86drop_in_place$LT$syn..punctuated..Punctuated$LT$syn..pat..Pat$C$syn..token..Or$GT$$GT$17h9a9261170a1c1dedE', symObjAddr: 0x8F90, symBinAddr: 0x98E0, symSize: 0x120 }
  - { offsetInCU: 0x2D192, offset: 0x2D192, size: 0x8, addend: 0x0, symName: '__ZN4core3ptr87drop_in_place$LT$core..option..Option$LT$alloc..boxed..Box$LT$syn..pat..Pat$GT$$GT$$GT$17he19d3d462e1aa905E', symObjAddr: 0x90B0, symBinAddr: 0x9A00, symSize: 0x50 }
  - { offsetInCU: 0x2D304, offset: 0x2D304, size: 0x8, addend: 0x0, symName: '__ZN4core3ptr87drop_in_place$LT$core..option..Option$LT$alloc..boxed..Box$LT$syn..ty..Type$GT$$GT$$GT$17h05427c2116ca75d2E', symObjAddr: 0x9100, symBinAddr: 0x9A50, symSize: 0x50 }
  - { offsetInCU: 0x2D476, offset: 0x2D476, size: 0x8, addend: 0x0, symName: '__ZN4core3ptr89drop_in_place$LT$core..option..Option$LT$alloc..boxed..Box$LT$syn..expr..Expr$GT$$GT$$GT$17hb24c5a0053d90fcaE', symObjAddr: 0x9150, symBinAddr: 0x9AA0, symSize: 0x50 }
  - { offsetInCU: 0x2D626, offset: 0x2D626, size: 0x8, addend: 0x0, symName: '__ZN4core3ptr89drop_in_place$LT$syn..punctuated..Punctuated$LT$syn..pat..Pat$C$syn..token..Comma$GT$$GT$17h3e4cb55ddf0a7994E', symObjAddr: 0x91A0, symBinAddr: 0x9AF0, symSize: 0x120 }
  - { offsetInCU: 0x2DA83, offset: 0x2DA83, size: 0x8, addend: 0x0, symName: '__ZN4core3ptr89drop_in_place$LT$syn..punctuated..Punctuated$LT$syn..ty..Type$C$syn..token..Comma$GT$$GT$17hb4b56257897aff9eE', symObjAddr: 0x92C0, symBinAddr: 0x9C10, symSize: 0x120 }
  - { offsetInCU: 0x2DF0B, offset: 0x2DF0B, size: 0x8, addend: 0x0, symName: '__ZN4core3ptr90drop_in_place$LT$core..option..Option$LT$alloc..boxed..Box$LT$syn..data..Field$GT$$GT$$GT$17he78f4f06c34538a6E', symObjAddr: 0x93E0, symBinAddr: 0x9D30, symSize: 0x200 }
  - { offsetInCU: 0x2E7DD, offset: 0x2E7DD, size: 0x8, addend: 0x0, symName: '__ZN4core3ptr90drop_in_place$LT$core..option..Option$LT$alloc..boxed..Box$LT$syn..item..FnArg$GT$$GT$$GT$17hed00a7eafe5bb657E', symObjAddr: 0x95E0, symBinAddr: 0x9F30, symSize: 0x2B0 }
  - { offsetInCU: 0x2F2F7, offset: 0x2F2F7, size: 0x8, addend: 0x0, symName: '__ZN4core3ptr90drop_in_place$LT$core..option..Option$LT$syn..path..AngleBracketedGenericArguments$GT$$GT$17hef7704ea7f6afb9dE', symObjAddr: 0x9890, symBinAddr: 0xA1E0, symSize: 0x130 }
  - { offsetInCU: 0x2F762, offset: 0x2F762, size: 0x8, addend: 0x0, symName: '__ZN4core3ptr91drop_in_place$LT$syn..punctuated..Punctuated$LT$syn..expr..Expr$C$syn..token..Comma$GT$$GT$17h55d34742a791e8b2E', symObjAddr: 0x99C0, symBinAddr: 0xA310, symSize: 0x120 }
  - { offsetInCU: 0x2FBBF, offset: 0x2FBBF, size: 0x8, addend: 0x0, symName: '__ZN4core3ptr92drop_in_place$LT$core..option..Option$LT$$LP$syn..token..As$C$proc_macro2..Ident$RP$$GT$$GT$17hca2c5398e3c179c5E', symObjAddr: 0x9AE0, symBinAddr: 0xA430, symSize: 0x30 }
  - { offsetInCU: 0x2FD57, offset: 0x2FD57, size: 0x8, addend: 0x0, symName: '__ZN4core3ptr92drop_in_place$LT$core..option..Option$LT$alloc..boxed..Box$LT$syn..data..Variant$GT$$GT$$GT$17he3d46264957049f3E', symObjAddr: 0x9B10, symBinAddr: 0xA460, symSize: 0x190 }
  - { offsetInCU: 0x303A3, offset: 0x303A3, size: 0x8, addend: 0x0, symName: '__ZN4core3ptr92drop_in_place$LT$syn..punctuated..Punctuated$LT$syn..item..FnArg$C$syn..token..Comma$GT$$GT$17h8c994c0b37f6ecb2E', symObjAddr: 0x9CA0, symBinAddr: 0xA5F0, symSize: 0xE0 }
  - { offsetInCU: 0x306E9, offset: 0x306E9, size: 0x8, addend: 0x0, symName: '__ZN4core3ptr92drop_in_place$LT$syn..punctuated..Punctuated$LT$syn..lit..LitStr$C$syn..token..Comma$GT$$GT$17hbc543691789a622fE', symObjAddr: 0x9D80, symBinAddr: 0xA6D0, symSize: 0x120 }
  - { offsetInCU: 0x30F4E, offset: 0x30F4E, size: 0x8, addend: 0x0, symName: '__ZN4core3ptr94drop_in_place$LT$syn..punctuated..Punctuated$LT$syn..data..Variant$C$syn..token..Comma$GT$$GT$17h55df3b0ca1d33228E', symObjAddr: 0x9EA0, symBinAddr: 0xA7F0, symSize: 0xE0 }
  - { offsetInCU: 0x3121E, offset: 0x3121E, size: 0x8, addend: 0x0, symName: '__ZN4core3ptr94drop_in_place$LT$syn..punctuated..Punctuated$LT$syn..pat..FieldPat$C$syn..token..Comma$GT$$GT$17h8df0d89198f0e314E', symObjAddr: 0x9F80, symBinAddr: 0xA8D0, symSize: 0xF0 }
  - { offsetInCU: 0x314E8, offset: 0x314E8, size: 0x8, addend: 0x0, symName: '__ZN4core3ptr94drop_in_place$LT$syn..punctuated..Punctuated$LT$syn..ty..BareFnArg$C$syn..token..Comma$GT$$GT$17h6bc42316ace38293E', symObjAddr: 0xA070, symBinAddr: 0xA9C0, symSize: 0xF0 }
  - { offsetInCU: 0x317B2, offset: 0x317B2, size: 0x8, addend: 0x0, symName: '__ZN4core3ptr96drop_in_place$LT$core..option..Option$LT$alloc..boxed..Box$LT$syn..path..PathSegment$GT$$GT$$GT$17hf5a4a4d96b29b166E', symObjAddr: 0xA160, symBinAddr: 0xAAB0, symSize: 0x90 }
  - { offsetInCU: 0x31A34, offset: 0x31A34, size: 0x8, addend: 0x0, symName: '__ZN4core3ptr97drop_in_place$LT$syn..punctuated..Punctuated$LT$syn..expr..FieldValue$C$syn..token..Comma$GT$$GT$17h9b1cdb83f369c771E', symObjAddr: 0xA1F0, symBinAddr: 0xAB40, symSize: 0xF0 }
  - { offsetInCU: 0x31CFE, offset: 0x31CFE, size: 0x8, addend: 0x0, symName: '__ZN4core3ptr98drop_in_place$LT$alloc..vec..Vec$LT$$LP$syn..path..GenericArgument$C$syn..token..Comma$RP$$GT$$GT$17h49e160636cd4a770E', symObjAddr: 0xA2E0, symBinAddr: 0xAC30, symSize: 0xD0 }
  - { offsetInCU: 0x31F8B, offset: 0x31F8B, size: 0x8, addend: 0x0, symName: '__ZN4core3ptr98drop_in_place$LT$core..option..Option$LT$alloc..boxed..Box$LT$proc_macro2..TokenStream$GT$$GT$$GT$17hc747d01e150a2e7eE', symObjAddr: 0xA3B0, symBinAddr: 0xAD00, symSize: 0x50 }
  - { offsetInCU: 0x3216C, offset: 0x3216C, size: 0x8, addend: 0x0, symName: '__ZN4core3ptr98drop_in_place$LT$syn..punctuated..Punctuated$LT$syn..lifetime..Lifetime$C$syn..token..Plus$GT$$GT$17h9179910af5ffd99cE', symObjAddr: 0xA400, symBinAddr: 0xAD50, symSize: 0xC0 }
  - { offsetInCU: 0x34D54, offset: 0x34D54, size: 0x8, addend: 0x0, symName: __ZN10proc_macro6bridge6client14HandleCounters3get17h02da01958788119eE, symObjAddr: 0x0, symBinAddr: 0x950, symSize: 0x10 }
  - { offsetInCU: 0x1E, offset: 0x425F5, size: 0x8, addend: 0x0, symName: '__ZN4core3ptr100drop_in_place$LT$core..option..Option$LT$alloc..boxed..Box$LT$syn..path..GenericArgument$GT$$GT$$GT$17hc3ebb1c43276de35E', symObjAddr: 0x0, symBinAddr: 0xFA40, symSize: 0x50 }
  - { offsetInCU: 0x1D53, offset: 0x4432A, size: 0x8, addend: 0x0, symName: '__ZN4core3ptr100drop_in_place$LT$core..option..Option$LT$alloc..boxed..Box$LT$syn..path..GenericArgument$GT$$GT$$GT$17hc3ebb1c43276de35E', symObjAddr: 0x0, symBinAddr: 0xFA40, symSize: 0x50 }
  - { offsetInCU: 0x2096, offset: 0x4466D, size: 0x8, addend: 0x0, symName: '__ZN4core3ptr100drop_in_place$LT$syn..punctuated..Punctuated$LT$syn..path..PathSegment$C$syn..token..PathSep$GT$$GT$17h82ce1be2a77042c5E.llvm.17176136686116987449', symObjAddr: 0x50, symBinAddr: 0xFA90, symSize: 0x1A0 }
  - { offsetInCU: 0x276E, offset: 0x44D45, size: 0x8, addend: 0x0, symName: '__ZN4core3ptr101drop_in_place$LT$core..option..Option$LT$alloc..boxed..Box$LT$syn..generics..GenericParam$GT$$GT$$GT$17h4e8de4c656218d31E', symObjAddr: 0x1F0, symBinAddr: 0xFC30, symSize: 0x50 }
  - { offsetInCU: 0x295C, offset: 0x44F33, size: 0x8, addend: 0x0, symName: '__ZN4core3ptr102drop_in_place$LT$syn..punctuated..Punctuated$LT$syn..path..GenericArgument$C$syn..token..Comma$GT$$GT$17h66c92c503e336311E.llvm.17176136686116987449', symObjAddr: 0x240, symBinAddr: 0xFC80, symSize: 0xF0 }
  - { offsetInCU: 0x2C45, offset: 0x4521C, size: 0x8, addend: 0x0, symName: '__ZN4core3ptr103drop_in_place$LT$core..option..Option$LT$alloc..boxed..Box$LT$syn..generics..TypeParamBound$GT$$GT$$GT$17hc50bb922e0ba62acE.llvm.17176136686116987449', symObjAddr: 0x330, symBinAddr: 0xFD70, symSize: 0x50 }
  - { offsetInCU: 0x2DD6, offset: 0x453AD, size: 0x8, addend: 0x0, symName: '__ZN4core3ptr103drop_in_place$LT$core..option..Option$LT$alloc..boxed..Box$LT$syn..generics..WherePredicate$GT$$GT$$GT$17hbea9f53f261c9840E', symObjAddr: 0x380, symBinAddr: 0xFDC0, symSize: 0x50 }
  - { offsetInCU: 0x3002, offset: 0x455D9, size: 0x8, addend: 0x0, symName: '__ZN4core3ptr103drop_in_place$LT$syn..punctuated..Punctuated$LT$syn..generics..GenericParam$C$syn..token..Comma$GT$$GT$17h5f295eef942e04d8E.llvm.17176136686116987449', symObjAddr: 0x3D0, symBinAddr: 0xFE10, symSize: 0x1A0 }
  - { offsetInCU: 0x35D1, offset: 0x45BA8, size: 0x8, addend: 0x0, symName: '__ZN4core3ptr104drop_in_place$LT$syn..punctuated..Punctuated$LT$syn..generics..TypeParamBound$C$syn..token..Plus$GT$$GT$17h69f2b997a3e55d25E.llvm.17176136686116987449', symObjAddr: 0x570, symBinAddr: 0xFFB0, symSize: 0x230 }
  - { offsetInCU: 0x3F02, offset: 0x464D9, size: 0x8, addend: 0x0, symName: '__ZN4core3ptr105drop_in_place$LT$syn..punctuated..Punctuated$LT$syn..generics..WherePredicate$C$syn..token..Comma$GT$$GT$17hfd5de33cca2c7826E', symObjAddr: 0x7A0, symBinAddr: 0x101E0, symSize: 0x190 }
  - { offsetInCU: 0x45D3, offset: 0x46BAA, size: 0x8, addend: 0x0, symName: '__ZN4core3ptr116drop_in_place$LT$core..option..Option$LT$$LP$syn..token..Else$C$alloc..boxed..Box$LT$syn..expr..Expr$GT$$RP$$GT$$GT$17he07eac024b5fdb46E', symObjAddr: 0x930, symBinAddr: 0x10370, symSize: 0x50 }
  - { offsetInCU: 0x4791, offset: 0x46D68, size: 0x8, addend: 0x0, symName: '__ZN4core3ptr126drop_in_place$LT$core..option..Option$LT$$LP$syn..token..And$C$core..option..Option$LT$syn..lifetime..Lifetime$GT$$RP$$GT$$GT$17h878c054120305592E', symObjAddr: 0x980, symBinAddr: 0x103C0, symSize: 0x30 }
  - { offsetInCU: 0x4A21, offset: 0x46FF8, size: 0x8, addend: 0x0, symName: '__ZN4core3ptr33drop_in_place$LT$syn..ty..Abi$GT$17h31175b449c69ff26E', symObjAddr: 0x9B0, symBinAddr: 0x103F0, symSize: 0x60 }
  - { offsetInCU: 0x4A3D, offset: 0x47014, size: 0x8, addend: 0x0, symName: '__ZN4core3ptr33drop_in_place$LT$syn..ty..Abi$GT$17h31175b449c69ff26E', symObjAddr: 0x9B0, symBinAddr: 0x103F0, symSize: 0x60 }
  - { offsetInCU: 0x4D37, offset: 0x4730E, size: 0x8, addend: 0x0, symName: '__ZN4core3ptr34drop_in_place$LT$syn..lit..Lit$GT$17h1f4687645f8bfe7eE', symObjAddr: 0xA10, symBinAddr: 0x10450, symSize: 0x110 }
  - { offsetInCU: 0x5271, offset: 0x47848, size: 0x8, addend: 0x0, symName: '__ZN4core3ptr34drop_in_place$LT$syn..pat..Pat$GT$17hde681b9baf8fb08dE.llvm.17176136686116987449', symObjAddr: 0xB20, symBinAddr: 0x10560, symSize: 0xA80 }
  - { offsetInCU: 0x8881, offset: 0x4AE58, size: 0x8, addend: 0x0, symName: '__ZN4core3ptr34drop_in_place$LT$syn..ty..Type$GT$17h0106c15e48fae4dfE.llvm.17176136686116987449', symObjAddr: 0x15A0, symBinAddr: 0x10FE0, symSize: 0x450 }
  - { offsetInCU: 0x96A8, offset: 0x4BC7F, size: 0x8, addend: 0x0, symName: '__ZN4core3ptr35drop_in_place$LT$syn..expr..Arm$GT$17h776a05b857f8f001E.llvm.17176136686116987449', symObjAddr: 0x19F0, symBinAddr: 0x11430, symSize: 0x190 }
  - { offsetInCU: 0xA145, offset: 0x4C71C, size: 0x8, addend: 0x0, symName: '__ZN4core3ptr36drop_in_place$LT$syn..expr..Expr$GT$17h010d2bf1f3f18a00E.llvm.17176136686116987449', symObjAddr: 0x1B80, symBinAddr: 0x115C0, symSize: 0x1D80 }
  - { offsetInCU: 0x136EA, offset: 0x55CC1, size: 0x8, addend: 0x0, symName: '__ZN4core3ptr36drop_in_place$LT$syn..item..Item$GT$17h3cd4799645f8ab5eE.llvm.17176136686116987449', symObjAddr: 0x3900, symBinAddr: 0x13340, symSize: 0x13E0 }
  - { offsetInCU: 0x1880A, offset: 0x5ADE1, size: 0x8, addend: 0x0, symName: '__ZN4core3ptr36drop_in_place$LT$syn..mac..Macro$GT$17h7139b459d6850b0cE', symObjAddr: 0x4CE0, symBinAddr: 0x14720, symSize: 0xE0 }
  - { offsetInCU: 0x18B14, offset: 0x5B0EB, size: 0x8, addend: 0x0, symName: '__ZN4core3ptr36drop_in_place$LT$syn..path..Path$GT$17hf592a52027c9597aE.llvm.17176136686116987449', symObjAddr: 0x4DC0, symBinAddr: 0x14800, symSize: 0x150 }
  - { offsetInCU: 0x190A2, offset: 0x5B679, size: 0x8, addend: 0x0, symName: '__ZN4core3ptr36drop_in_place$LT$syn..stmt..Stmt$GT$17h7b7b4238326e0bcaE.llvm.17176136686116987449', symObjAddr: 0x4F10, symBinAddr: 0x14950, symSize: 0x2F0 }
  - { offsetInCU: 0x19BFC, offset: 0x5C1D3, size: 0x8, addend: 0x0, symName: '__ZN4core3ptr37drop_in_place$LT$syn..data..Field$GT$17ha43743e6998c959aE.llvm.17176136686116987449', symObjAddr: 0x5200, symBinAddr: 0x14C40, symSize: 0x180 }
  - { offsetInCU: 0x1A18D, offset: 0x5C764, size: 0x8, addend: 0x0, symName: '__ZN4core3ptr37drop_in_place$LT$syn..item..FnArg$GT$17ha8a2c559019af914E', symObjAddr: 0x5380, symBinAddr: 0x14DC0, symSize: 0x190 }
  - { offsetInCU: 0x1A9B9, offset: 0x5CF90, size: 0x8, addend: 0x0, symName: '__ZN4core3ptr37drop_in_place$LT$syn..stmt..Block$GT$17h8d14d314b566db1fE', symObjAddr: 0x5510, symBinAddr: 0x14F50, symSize: 0xD0 }
  - { offsetInCU: 0x1AC5D, offset: 0x5D234, size: 0x8, addend: 0x0, symName: '__ZN4core3ptr38drop_in_place$LT$syn..expr..Member$GT$17h4c1444f728d1ac4bE.llvm.17176136686116987449', symObjAddr: 0x55E0, symBinAddr: 0x15020, symSize: 0x30 }
  - { offsetInCU: 0x1AD5A, offset: 0x5D331, size: 0x8, addend: 0x0, symName: '__ZN4core3ptr38drop_in_place$LT$syn..pat..PatType$GT$17hd8da43291afa9377E.llvm.17176136686116987449', symObjAddr: 0x5610, symBinAddr: 0x15050, symSize: 0x140 }
  - { offsetInCU: 0x1B2A2, offset: 0x5D879, size: 0x8, addend: 0x0, symName: '__ZN4core3ptr39drop_in_place$LT$proc_macro2..Ident$GT$17h9e15763a81c150e3E.llvm.17176136686116987449', symObjAddr: 0x5750, symBinAddr: 0x15190, symSize: 0x30 }
  - { offsetInCU: 0x1B3DD, offset: 0x5D9B4, size: 0x8, addend: 0x0, symName: '__ZN4core3ptr39drop_in_place$LT$syn..data..Variant$GT$17hf992142b56a67be3E.llvm.17176136686116987449', symObjAddr: 0x5780, symBinAddr: 0x151C0, symSize: 0x2F0 }
  - { offsetInCU: 0x1BFB7, offset: 0x5E58E, size: 0x8, addend: 0x0, symName: '__ZN4core3ptr39drop_in_place$LT$syn..item..UseTree$GT$17hbef1676b25e8e560E.llvm.17176136686116987449', symObjAddr: 0x5A70, symBinAddr: 0x154B0, symSize: 0x1D0 }
  - { offsetInCU: 0x1C6D6, offset: 0x5ECAD, size: 0x8, addend: 0x0, symName: '__ZN4core3ptr40drop_in_place$LT$syn..item..ImplItem$GT$17h5a5159507d4410b6E', symObjAddr: 0x5C40, symBinAddr: 0x15680, symSize: 0x1F0 }
  - { offsetInCU: 0x1CC8F, offset: 0x5F266, size: 0x8, addend: 0x0, symName: '__ZN4core3ptr40drop_in_place$LT$syn..item..Receiver$GT$17h4d9d36441eaffad4E.llvm.17176136686116987449', symObjAddr: 0x5E30, symBinAddr: 0x15870, symSize: 0x130 }
  - { offsetInCU: 0x1D22E, offset: 0x5F805, size: 0x8, addend: 0x0, symName: '__ZN4core3ptr40drop_in_place$LT$syn..item..Variadic$GT$17hda22898110e31844E', symObjAddr: 0x5F60, symBinAddr: 0x159A0, symSize: 0x120 }
  - { offsetInCU: 0x1D671, offset: 0x5FC48, size: 0x8, addend: 0x0, symName: '__ZN4core3ptr40drop_in_place$LT$syn..ty..ReturnType$GT$17he2b77263b1f99703E.llvm.17176136686116987449', symObjAddr: 0x6080, symBinAddr: 0x15AC0, symSize: 0x50 }
  - { offsetInCU: 0x1D840, offset: 0x5FE17, size: 0x8, addend: 0x0, symName: '__ZN4core3ptr41drop_in_place$LT$syn..attr..Attribute$GT$17hfa6631360aef99edE.llvm.17176136686116987449', symObjAddr: 0x60D0, symBinAddr: 0x15B10, symSize: 0x160 }
  - { offsetInCU: 0x1DD26, offset: 0x602FD, size: 0x8, addend: 0x0, symName: '__ZN4core3ptr41drop_in_place$LT$syn..item..Signature$GT$17h3d2084b5862c4367E', symObjAddr: 0x6230, symBinAddr: 0x15C70, symSize: 0x280 }
  - { offsetInCU: 0x1E815, offset: 0x60DEC, size: 0x8, addend: 0x0, symName: '__ZN4core3ptr41drop_in_place$LT$syn..item..TraitItem$GT$17heb3d18d94805db73E', symObjAddr: 0x64B0, symBinAddr: 0x15EF0, symSize: 0x340 }
  - { offsetInCU: 0x1F2B7, offset: 0x6188E, size: 0x8, addend: 0x0, symName: '__ZN4core3ptr42drop_in_place$LT$syn..item..ImplItemFn$GT$17h1561fe72eaac0768E', symObjAddr: 0x67F0, symBinAddr: 0x16230, symSize: 0x230 }
  - { offsetInCU: 0x1F9DE, offset: 0x61FB5, size: 0x8, addend: 0x0, symName: '__ZN4core3ptr42drop_in_place$LT$syn..path..Constraint$GT$17hc20cfa9bd61fb671E', symObjAddr: 0x6A20, symBinAddr: 0x16460, symSize: 0x160 }
  - { offsetInCU: 0x20074, offset: 0x6264B, size: 0x8, addend: 0x0, symName: '__ZN4core3ptr43drop_in_place$LT$proc_macro2..TokenTree$GT$17he5d199be5592457aE.llvm.17176136686116987449', symObjAddr: 0x6B80, symBinAddr: 0x165C0, symSize: 0xB0 }
  - { offsetInCU: 0x20388, offset: 0x6295F, size: 0x8, addend: 0x0, symName: '__ZN4core3ptr43drop_in_place$LT$syn..data..FieldsNamed$GT$17ha8647c0fe5fcc54dE', symObjAddr: 0x6C30, symBinAddr: 0x16670, symSize: 0x120 }
  - { offsetInCU: 0x20810, offset: 0x62DE7, size: 0x8, addend: 0x0, symName: '__ZN4core3ptr43drop_in_place$LT$syn..item..ForeignItem$GT$17ha437414a262f10ecE', symObjAddr: 0x6D50, symBinAddr: 0x16790, symSize: 0x2A0 }
  - { offsetInCU: 0x21113, offset: 0x636EA, size: 0x8, addend: 0x0, symName: '__ZN4core3ptr43drop_in_place$LT$syn..path..PathSegment$GT$17hd794382b6f0efa4dE.llvm.17176136686116987449', symObjAddr: 0x6FF0, symBinAddr: 0x16A30, symSize: 0x170 }
  - { offsetInCU: 0x216B7, offset: 0x63C8E, size: 0x8, addend: 0x0, symName: '__ZN4core3ptr44drop_in_place$LT$syn..generics..Generics$GT$17h6161a1571fae173cE', symObjAddr: 0x7160, symBinAddr: 0x16BA0, symSize: 0x220 }
  - { offsetInCU: 0x21F34, offset: 0x6450B, size: 0x8, addend: 0x0, symName: '__ZN4core3ptr44drop_in_place$LT$syn..item..ImplItemType$GT$17h1e34aaf7a3d501f2E', symObjAddr: 0x7380, symBinAddr: 0x16DC0, symSize: 0x1D0 }
  - { offsetInCU: 0x224E8, offset: 0x64ABF, size: 0x8, addend: 0x0, symName: '__ZN4core3ptr44drop_in_place$LT$syn..lifetime..Lifetime$GT$17ha08727e55d333d3eE.llvm.17176136686116987449', symObjAddr: 0x7550, symBinAddr: 0x16F90, symSize: 0x30 }
  - { offsetInCU: 0x22642, offset: 0x64C19, size: 0x8, addend: 0x0, symName: '__ZN4core3ptr45drop_in_place$LT$proc_macro2..TokenStream$GT$17he80d81ee0aefd4e0E.llvm.17176136686116987449', symObjAddr: 0x7580, symBinAddr: 0x16FC0, symSize: 0x70 }
  - { offsetInCU: 0x227A9, offset: 0x64D80, size: 0x8, addend: 0x0, symName: '__ZN4core3ptr45drop_in_place$LT$syn..generics..TypeParam$GT$17hb4a24b881662578aE.llvm.17176136686116987449', symObjAddr: 0x75F0, symBinAddr: 0x17030, symSize: 0x230 }
  - { offsetInCU: 0x22FBA, offset: 0x65591, size: 0x8, addend: 0x0, symName: '__ZN4core3ptr45drop_in_place$LT$syn..item..ImplItemConst$GT$17hc174db37433a4339E', symObjAddr: 0x7820, symBinAddr: 0x17260, symSize: 0x200 }
  - { offsetInCU: 0x235AC, offset: 0x65B83, size: 0x8, addend: 0x0, symName: '__ZN4core3ptr45drop_in_place$LT$syn..item..TraitItemType$GT$17h889fce7b243d532eE', symObjAddr: 0x7A20, symBinAddr: 0x17460, symSize: 0x290 }
  - { offsetInCU: 0x23E89, offset: 0x66460, size: 0x8, addend: 0x0, symName: '__ZN4core3ptr46drop_in_place$LT$syn..generics..ConstParam$GT$17ha0167add76e199e3E.llvm.17176136686116987449', symObjAddr: 0x7CB0, symBinAddr: 0x176F0, symSize: 0x150 }
  - { offsetInCU: 0x24256, offset: 0x6682D, size: 0x8, addend: 0x0, symName: '__ZN4core3ptr46drop_in_place$LT$syn..item..TraitItemConst$GT$17h5425204bde42183fE', symObjAddr: 0x7E00, symBinAddr: 0x17840, symSize: 0x1A0 }
  - { offsetInCU: 0x246D6, offset: 0x66CAD, size: 0x8, addend: 0x0, symName: '__ZN4core3ptr47drop_in_place$LT$syn..generics..WhereClause$GT$17h515fa3aee7852146E', symObjAddr: 0x7FA0, symBinAddr: 0x179E0, symSize: 0x120 }
  - { offsetInCU: 0x24B20, offset: 0x670F7, size: 0x8, addend: 0x0, symName: '__ZN4core3ptr47drop_in_place$LT$syn..item..ForeignItemType$GT$17h26f5597211363613E', symObjAddr: 0x80C0, symBinAddr: 0x17B00, symSize: 0x1A0 }
  - { offsetInCU: 0x25131, offset: 0x67708, size: 0x8, addend: 0x0, symName: '__ZN4core3ptr47drop_in_place$LT$syn..path..GenericArgument$GT$17h0055728b8de7b667E', symObjAddr: 0x8260, symBinAddr: 0x17CA0, symSize: 0x1C0 }
  - { offsetInCU: 0x255E4, offset: 0x67BBB, size: 0x8, addend: 0x0, symName: '__ZN4core3ptr48drop_in_place$LT$syn..generics..GenericParam$GT$17h4c894fc866762a30E', symObjAddr: 0x8420, symBinAddr: 0x17E60, symSize: 0xF0 }
  - { offsetInCU: 0x25993, offset: 0x67F6A, size: 0x8, addend: 0x0, symName: '__ZN4core3ptr49drop_in_place$LT$syn..generics..LifetimeParam$GT$17h36966eca2bc25019E.llvm.17176136686116987449', symObjAddr: 0x8510, symBinAddr: 0x17F50, symSize: 0xF0 }
  - { offsetInCU: 0x25D3A, offset: 0x68311, size: 0x8, addend: 0x0, symName: '__ZN4core3ptr49drop_in_place$LT$syn..generics..PredicateType$GT$17h439688baa3e9384aE.llvm.17176136686116987449', symObjAddr: 0x8600, symBinAddr: 0x18040, symSize: 0x170 }
  - { offsetInCU: 0x261B6, offset: 0x6878D, size: 0x8, addend: 0x0, symName: '__ZN4core3ptr49drop_in_place$LT$syn..item..ForeignItemStatic$GT$17h2a19b3099b90c4eaE', symObjAddr: 0x8770, symBinAddr: 0x181B0, symSize: 0x180 }
  - { offsetInCU: 0x2685B, offset: 0x68E32, size: 0x8, addend: 0x0, symName: '__ZN4core3ptr50drop_in_place$LT$$u5b$syn..item..ImplItem$u5d$$GT$17h90481728bee810daE.llvm.17176136686116987449', symObjAddr: 0x88F0, symBinAddr: 0x18330, symSize: 0x230 }
  - { offsetInCU: 0x26B4F, offset: 0x69126, size: 0x8, addend: 0x0, symName: '__ZN4core3ptr50drop_in_place$LT$syn..generics..TypeParamBound$GT$17h61b62e36292ba54eE.llvm.17176136686116987449', symObjAddr: 0x8B20, symBinAddr: 0x18560, symSize: 0xA0 }
  - { offsetInCU: 0x26CD5, offset: 0x692AC, size: 0x8, addend: 0x0, symName: '__ZN4core3ptr50drop_in_place$LT$syn..generics..WherePredicate$GT$17h51c397592071be46E', symObjAddr: 0x8BC0, symBinAddr: 0x18600, symSize: 0xA0 }
  - { offsetInCU: 0x26E82, offset: 0x69459, size: 0x8, addend: 0x0, symName: '__ZN4core3ptr51drop_in_place$LT$$u5b$syn..attr..Attribute$u5d$$GT$17h47b0ab8456e11441E.llvm.17176136686116987449', symObjAddr: 0x8C60, symBinAddr: 0x186A0, symSize: 0x110 }
  - { offsetInCU: 0x26F20, offset: 0x694F7, size: 0x8, addend: 0x0, symName: '__ZN4core3ptr51drop_in_place$LT$$u5b$syn..item..TraitItem$u5d$$GT$17h96c7b423fa861e96E.llvm.17176136686116987449', symObjAddr: 0x8D70, symBinAddr: 0x187B0, symSize: 0x3F0 }
  - { offsetInCU: 0x27710, offset: 0x69CE7, size: 0x8, addend: 0x0, symName: '__ZN4core3ptr52drop_in_place$LT$syn..restriction..VisRestricted$GT$17hb4aea636b3752141E', symObjAddr: 0x9160, symBinAddr: 0x18BA0, symSize: 0x50 }
  - { offsetInCU: 0x278A9, offset: 0x69E80, size: 0x8, addend: 0x0, symName: '__ZN4core3ptr53drop_in_place$LT$$u5b$syn..item..ForeignItem$u5d$$GT$17h30bf00f210888ae4E.llvm.17176136686116987449', symObjAddr: 0x91B0, symBinAddr: 0x18BF0, symSize: 0x360 }
  - { offsetInCU: 0x27FBF, offset: 0x6A596, size: 0x8, addend: 0x0, symName: '__ZN4core3ptr58drop_in_place$LT$alloc..vec..Vec$LT$syn..expr..Arm$GT$$GT$17heb67d33357be49cfE', symObjAddr: 0x9510, symBinAddr: 0x18F50, symSize: 0xD0 }
  - { offsetInCU: 0x2824C, offset: 0x6A823, size: 0x8, addend: 0x0, symName: '__ZN4core3ptr59drop_in_place$LT$alloc..boxed..Box$LT$syn..pat..Pat$GT$$GT$17h177bea0e0defbb19E.llvm.17176136686116987449', symObjAddr: 0x95E0, symBinAddr: 0x19020, symSize: 0x50 }
  - { offsetInCU: 0x283A7, offset: 0x6A97E, size: 0x8, addend: 0x0, symName: '__ZN4core3ptr59drop_in_place$LT$alloc..boxed..Box$LT$syn..ty..Type$GT$$GT$17h3c530910e46a6c16E.llvm.17176136686116987449', symObjAddr: 0x9630, symBinAddr: 0x19070, symSize: 0x50 }
  - { offsetInCU: 0x28502, offset: 0x6AAD9, size: 0x8, addend: 0x0, symName: '__ZN4core3ptr59drop_in_place$LT$alloc..vec..Vec$LT$syn..item..Item$GT$$GT$17h49b60b37eefa96bdE', symObjAddr: 0x9680, symBinAddr: 0x190C0, symSize: 0xD0 }
  - { offsetInCU: 0x2878F, offset: 0x6AD66, size: 0x8, addend: 0x0, symName: '__ZN4core3ptr61drop_in_place$LT$alloc..boxed..Box$LT$syn..expr..Expr$GT$$GT$17h9c9a6e23a929c358E', symObjAddr: 0x9750, symBinAddr: 0x19190, symSize: 0x50 }
  - { offsetInCU: 0x288EA, offset: 0x6AEC1, size: 0x8, addend: 0x0, symName: '__ZN4core3ptr61drop_in_place$LT$alloc..boxed..Box$LT$syn..path..Path$GT$$GT$17ha307c0c62e8cb247E', symObjAddr: 0x97A0, symBinAddr: 0x191E0, symSize: 0xF0 }
  - { offsetInCU: 0x28DD0, offset: 0x6B3A7, size: 0x8, addend: 0x0, symName: '__ZN4core3ptr61drop_in_place$LT$syn..path..ParenthesizedGenericArguments$GT$17h2231cf5dd7f94d0dE.llvm.17176136686116987449', symObjAddr: 0x9890, symBinAddr: 0x192D0, symSize: 0x170 }
  - { offsetInCU: 0x29397, offset: 0x6B96E, size: 0x8, addend: 0x0, symName: '__ZN4core3ptr62drop_in_place$LT$alloc..boxed..Box$LT$syn..data..Field$GT$$GT$17h60a0e6694dfdcb87E', symObjAddr: 0x9A00, symBinAddr: 0x19440, symSize: 0x50 }
  - { offsetInCU: 0x29511, offset: 0x6BAE8, size: 0x8, addend: 0x0, symName: '__ZN4core3ptr62drop_in_place$LT$alloc..boxed..Box$LT$syn..item..FnArg$GT$$GT$17h37152ef768be05d3E', symObjAddr: 0x9A50, symBinAddr: 0x19490, symSize: 0x60 }
  - { offsetInCU: 0x29689, offset: 0x6BC60, size: 0x8, addend: 0x0, symName: '__ZN4core3ptr62drop_in_place$LT$alloc..boxed..Box$LT$syn..stmt..Block$GT$$GT$17h2d91d43260095047E', symObjAddr: 0x9AB0, symBinAddr: 0x194F0, symSize: 0xE0 }
  - { offsetInCU: 0x29A6A, offset: 0x6C041, size: 0x8, addend: 0x0, symName: '__ZN4core3ptr62drop_in_place$LT$syn..path..AngleBracketedGenericArguments$GT$17h3935a371a23d01eeE.llvm.17176136686116987449', symObjAddr: 0x9B90, symBinAddr: 0x195D0, symSize: 0x120 }
  - { offsetInCU: 0x29EB4, offset: 0x6C48B, size: 0x8, addend: 0x0, symName: '__ZN4core3ptr63drop_in_place$LT$alloc..vec..Vec$LT$syn..item..ImplItem$GT$$GT$17haf0ee9cdd28718d2E', symObjAddr: 0x9CB0, symBinAddr: 0x196F0, symSize: 0x80 }
  - { offsetInCU: 0x2A132, offset: 0x6C709, size: 0x8, addend: 0x0, symName: '__ZN4core3ptr64drop_in_place$LT$alloc..boxed..Box$LT$syn..data..Variant$GT$$GT$17hb0032473642c4d11E', symObjAddr: 0x9D30, symBinAddr: 0x19770, symSize: 0x50 }
  - { offsetInCU: 0x2A28D, offset: 0x6C864, size: 0x8, addend: 0x0, symName: '__ZN4core3ptr64drop_in_place$LT$alloc..boxed..Box$LT$syn..item..UseTree$GT$$GT$17ha62eb7e7fa717c51E', symObjAddr: 0x9D80, symBinAddr: 0x197C0, symSize: 0x50 }
  - { offsetInCU: 0x2A407, offset: 0x6C9DE, size: 0x8, addend: 0x0, symName: '__ZN4core3ptr64drop_in_place$LT$alloc..boxed..Box$LT$syn..pat..FieldPat$GT$$GT$17h52f6106523bf1449E', symObjAddr: 0x9DD0, symBinAddr: 0x19810, symSize: 0x100 }
  - { offsetInCU: 0x2AA65, offset: 0x6D03C, size: 0x8, addend: 0x0, symName: '__ZN4core3ptr64drop_in_place$LT$alloc..boxed..Box$LT$syn..ty..BareFnArg$GT$$GT$17hb641e3de6f34c275E', symObjAddr: 0x9ED0, symBinAddr: 0x19910, symSize: 0xF0 }
  - { offsetInCU: 0x2AF7B, offset: 0x6D552, size: 0x8, addend: 0x0, symName: '__ZN4core3ptr64drop_in_place$LT$alloc..vec..Vec$LT$syn..attr..Attribute$GT$$GT$17haea200be06473a37E', symObjAddr: 0x9FC0, symBinAddr: 0x19A00, symSize: 0x180 }
  - { offsetInCU: 0x2B2CB, offset: 0x6D8A2, size: 0x8, addend: 0x0, symName: '__ZN4core3ptr64drop_in_place$LT$alloc..vec..Vec$LT$syn..item..TraitItem$GT$$GT$17hbd244ce2bbf85f4eE', symObjAddr: 0xA140, symBinAddr: 0x19B80, symSize: 0x80 }
  - { offsetInCU: 0x2B549, offset: 0x6DB20, size: 0x8, addend: 0x0, symName: '__ZN4core3ptr65drop_in_place$LT$$LP$syn..item..FnArg$C$syn..token..Comma$RP$$GT$17hd7d299cebe095fa3E.llvm.17176136686116987449', symObjAddr: 0xA1C0, symBinAddr: 0x19C00, symSize: 0x20 }
  - { offsetInCU: 0x2B5E2, offset: 0x6DBB9, size: 0x8, addend: 0x0, symName: '__ZN4core3ptr65drop_in_place$LT$alloc..vec..Vec$LT$proc_macro..TokenTree$GT$$GT$17h6315f502b610bde4E.llvm.17176136686116987449', symObjAddr: 0xA1E0, symBinAddr: 0x19C20, symSize: 0x120 }
  - { offsetInCU: 0x2B954, offset: 0x6DF2B, size: 0x8, addend: 0x0, symName: '__ZN4core3ptr65drop_in_place$LT$core..option..Option$LT$syn..expr..Label$GT$$GT$17h91cf194cd5e34cd5E', symObjAddr: 0xA300, symBinAddr: 0x19D40, symSize: 0x30 }
  - { offsetInCU: 0x2BA8F, offset: 0x6E066, size: 0x8, addend: 0x0, symName: '__ZN4core3ptr65drop_in_place$LT$core..option..Option$LT$syn..stmt..Block$GT$$GT$17hfa0dc0084f13a665E', symObjAddr: 0xA330, symBinAddr: 0x19D70, symSize: 0xE0 }
  - { offsetInCU: 0x2BCF4, offset: 0x6E2CB, size: 0x8, addend: 0x0, symName: '__ZN4core3ptr66drop_in_place$LT$alloc..vec..Vec$LT$syn..item..ForeignItem$GT$$GT$17h89c78ef64d9fade1E', symObjAddr: 0xA410, symBinAddr: 0x19E50, symSize: 0x80 }
  - { offsetInCU: 0x2BF72, offset: 0x6E549, size: 0x8, addend: 0x0, symName: '__ZN4core3ptr67drop_in_place$LT$$LP$syn..pat..FieldPat$C$syn..token..Comma$RP$$GT$17h8922f8820827b716E.llvm.17176136686116987449', symObjAddr: 0xA490, symBinAddr: 0x19ED0, symSize: 0xE0 }
  - { offsetInCU: 0x2C499, offset: 0x6EA70, size: 0x8, addend: 0x0, symName: '__ZN4core3ptr67drop_in_place$LT$$LP$syn..ty..BareFnArg$C$syn..token..Comma$RP$$GT$17h2fa089fb4f8f3f6dE.llvm.17176136686116987449', symObjAddr: 0xA570, symBinAddr: 0x19FB0, symSize: 0xC0 }
  - { offsetInCU: 0x2C8A8, offset: 0x6EE7F, size: 0x8, addend: 0x0, symName: '__ZN4core3ptr67drop_in_place$LT$alloc..boxed..Box$LT$syn..expr..FieldValue$GT$$GT$17ha1e4c19bb7a29641E', symObjAddr: 0xA630, symBinAddr: 0x1A070, symSize: 0xF0 }
  - { offsetInCU: 0x2CD9E, offset: 0x6F375, size: 0x8, addend: 0x0, symName: '__ZN4core3ptr68drop_in_place$LT$alloc..boxed..Box$LT$syn..path..PathSegment$GT$$GT$17h23fddb1adfb9011eE', symObjAddr: 0xA720, symBinAddr: 0x1A160, symSize: 0xD0 }
  - { offsetInCU: 0x2D19C, offset: 0x6F773, size: 0x8, addend: 0x0, symName: '__ZN4core3ptr69drop_in_place$LT$core..option..Option$LT$syn..stmt..LocalInit$GT$$GT$17h11e18909a17a224aE', symObjAddr: 0xA7F0, symBinAddr: 0x1A230, symSize: 0xC0 }
  - { offsetInCU: 0x2D4C4, offset: 0x6FA9B, size: 0x8, addend: 0x0, symName: '__ZN4core3ptr70drop_in_place$LT$$LP$syn..expr..FieldValue$C$syn..token..Comma$RP$$GT$17hec5e4ba713efcc9eE.llvm.17176136686116987449', symObjAddr: 0xA8B0, symBinAddr: 0x1A2F0, symSize: 0xC0 }
  - { offsetInCU: 0x2D894, offset: 0x6FE6B, size: 0x8, addend: 0x0, symName: '__ZN4core3ptr70drop_in_place$LT$core..option..Option$LT$syn..ty..BareVariadic$GT$$GT$17h3bf2d19dd9d64c19E', symObjAddr: 0xA970, symBinAddr: 0x1A3B0, symSize: 0xB0 }
  - { offsetInCU: 0x2DC81, offset: 0x70258, size: 0x8, addend: 0x0, symName: '__ZN4core3ptr72drop_in_place$LT$alloc..boxed..Box$LT$syn..path..GenericArgument$GT$$GT$17h44a3862ecec4332bE.llvm.17176136686116987449', symObjAddr: 0xAA20, symBinAddr: 0x1A460, symSize: 0x180 }
  - { offsetInCU: 0x2E156, offset: 0x7072D, size: 0x8, addend: 0x0, symName: '__ZN4core3ptr73drop_in_place$LT$$LP$syn..path..PathSegment$C$syn..token..PathSep$RP$$GT$17h6663bb8821a16534E.llvm.17176136686116987449', symObjAddr: 0xABA0, symBinAddr: 0x1A5E0, symSize: 0xC0 }
  - { offsetInCU: 0x2E41C, offset: 0x709F3, size: 0x8, addend: 0x0, symName: '__ZN4core3ptr73drop_in_place$LT$alloc..boxed..Box$LT$syn..generics..GenericParam$GT$$GT$17hfa95abdb0b21754aE', symObjAddr: 0xAC60, symBinAddr: 0x1A6A0, symSize: 0x80 }
  - { offsetInCU: 0x2E594, offset: 0x70B6B, size: 0x8, addend: 0x0, symName: '__ZN4core3ptr75drop_in_place$LT$$LP$syn..path..GenericArgument$C$syn..token..Comma$RP$$GT$17hb193a6b502a5158fE.llvm.17176136686116987449', symObjAddr: 0xACE0, symBinAddr: 0x1A720, symSize: 0x180 }
  - { offsetInCU: 0x2E91C, offset: 0x70EF3, size: 0x8, addend: 0x0, symName: '__ZN4core3ptr75drop_in_place$LT$alloc..boxed..Box$LT$syn..generics..TypeParamBound$GT$$GT$17h4c62423d3c63ecb3E', symObjAddr: 0xAE60, symBinAddr: 0x1A8A0, symSize: 0x160 }
  - { offsetInCU: 0x2EEB9, offset: 0x71490, size: 0x8, addend: 0x0, symName: '__ZN4core3ptr75drop_in_place$LT$alloc..boxed..Box$LT$syn..generics..WherePredicate$GT$$GT$17h3fc0fd7c76ccc418E', symObjAddr: 0xAFC0, symBinAddr: 0x1AA00, symSize: 0x80 }
  - { offsetInCU: 0x2F14F, offset: 0x71726, size: 0x8, addend: 0x0, symName: '__ZN4core3ptr76drop_in_place$LT$$LP$syn..generics..GenericParam$C$syn..token..Comma$RP$$GT$17hef01495899d4184aE.llvm.17176136686116987449', symObjAddr: 0xB040, symBinAddr: 0x1AA80, symSize: 0x40 }
  - { offsetInCU: 0x2F18B, offset: 0x71762, size: 0x8, addend: 0x0, symName: '__ZN4core3ptr77drop_in_place$LT$$LP$syn..generics..TypeParamBound$C$syn..token..Plus$RP$$GT$17h2707a8c9743fb1b5E.llvm.17176136686116987449', symObjAddr: 0xB080, symBinAddr: 0x1AAC0, symSize: 0x160 }
  - { offsetInCU: 0x2F5F6, offset: 0x71BCD, size: 0x8, addend: 0x0, symName: '__ZN4core3ptr78drop_in_place$LT$$LP$syn..generics..WherePredicate$C$syn..token..Comma$RP$$GT$17h0e4104ca29941db1E.llvm.17176136686116987449', symObjAddr: 0xB1E0, symBinAddr: 0x1AC20, symSize: 0x50 }
  - { offsetInCU: 0x2F750, offset: 0x71D27, size: 0x8, addend: 0x0, symName: '__ZN4core3ptr86drop_in_place$LT$$LP$syn..token..If$C$alloc..boxed..Box$LT$syn..expr..Expr$GT$$RP$$GT$17h8308eb373025b99fE', symObjAddr: 0xB230, symBinAddr: 0x1AC70, symSize: 0x50 }
  - { offsetInCU: 0x2F965, offset: 0x71F3C, size: 0x8, addend: 0x0, symName: '__ZN4core3ptr86drop_in_place$LT$syn..punctuated..Punctuated$LT$syn..pat..Pat$C$syn..token..Or$GT$$GT$17h9a9261170a1c1dedE', symObjAddr: 0xB280, symBinAddr: 0x1ACC0, symSize: 0x120 }
  - { offsetInCU: 0x2FDC2, offset: 0x72399, size: 0x8, addend: 0x0, symName: '__ZN4core3ptr87drop_in_place$LT$$LP$alloc..boxed..Box$LT$syn..pat..Pat$GT$$C$syn..token..Colon$RP$$GT$17hc23937017b0643b2E', symObjAddr: 0xB3A0, symBinAddr: 0x1ADE0, symSize: 0x50 }
  - { offsetInCU: 0x2FF3C, offset: 0x72513, size: 0x8, addend: 0x0, symName: '__ZN4core3ptr87drop_in_place$LT$core..option..Option$LT$alloc..boxed..Box$LT$syn..ty..Type$GT$$GT$$GT$17h05427c2116ca75d2E', symObjAddr: 0xB3F0, symBinAddr: 0x1AE30, symSize: 0x50 }
  - { offsetInCU: 0x300AE, offset: 0x72685, size: 0x8, addend: 0x0, symName: '__ZN4core3ptr89drop_in_place$LT$core..option..Option$LT$alloc..boxed..Box$LT$syn..expr..Expr$GT$$GT$$GT$17hb24c5a0053d90fcaE', symObjAddr: 0xB440, symBinAddr: 0x1AE80, symSize: 0x50 }
  - { offsetInCU: 0x30220, offset: 0x727F7, size: 0x8, addend: 0x0, symName: '__ZN4core3ptr89drop_in_place$LT$syn..punctuated..Punctuated$LT$syn..ty..Type$C$syn..token..Comma$GT$$GT$17hb4b56257897aff9eE.llvm.17176136686116987449', symObjAddr: 0xB490, symBinAddr: 0x1AED0, symSize: 0x120 }
  - { offsetInCU: 0x3066A, offset: 0x72C41, size: 0x8, addend: 0x0, symName: '__ZN4core3ptr90drop_in_place$LT$core..option..Option$LT$alloc..boxed..Box$LT$syn..data..Field$GT$$GT$$GT$17he78f4f06c34538a6E', symObjAddr: 0xB5B0, symBinAddr: 0x1AFF0, symSize: 0x50 }
  - { offsetInCU: 0x307DC, offset: 0x72DB3, size: 0x8, addend: 0x0, symName: '__ZN4core3ptr90drop_in_place$LT$core..option..Option$LT$alloc..boxed..Box$LT$syn..item..FnArg$GT$$GT$$GT$17hed00a7eafe5bb657E', symObjAddr: 0xB600, symBinAddr: 0x1B040, symSize: 0x50 }
  - { offsetInCU: 0x309CA, offset: 0x72FA1, size: 0x8, addend: 0x0, symName: '__ZN4core3ptr91drop_in_place$LT$syn..punctuated..Punctuated$LT$syn..expr..Expr$C$syn..token..Comma$GT$$GT$17h55d34742a791e8b2E', symObjAddr: 0xB650, symBinAddr: 0x1B090, symSize: 0x120 }
  - { offsetInCU: 0x30E27, offset: 0x733FE, size: 0x8, addend: 0x0, symName: '__ZN4core3ptr92drop_in_place$LT$core..option..Option$LT$$LP$syn..token..As$C$proc_macro2..Ident$RP$$GT$$GT$17hca2c5398e3c179c5E', symObjAddr: 0xB770, symBinAddr: 0x1B1B0, symSize: 0x30 }
  - { offsetInCU: 0x30F43, offset: 0x7351A, size: 0x8, addend: 0x0, symName: '__ZN4core3ptr92drop_in_place$LT$syn..punctuated..Punctuated$LT$syn..data..Field$C$syn..token..Comma$GT$$GT$17hf0219a7d994a0ed0E', symObjAddr: 0xB7A0, symBinAddr: 0x1B1E0, symSize: 0x120 }
  - { offsetInCU: 0x3138D, offset: 0x73964, size: 0x8, addend: 0x0, symName: '__ZN4core3ptr92drop_in_place$LT$syn..punctuated..Punctuated$LT$syn..item..FnArg$C$syn..token..Comma$GT$$GT$17h8c994c0b37f6ecb2E', symObjAddr: 0xB8C0, symBinAddr: 0x1B300, symSize: 0x150 }
  - { offsetInCU: 0x318A2, offset: 0x73E79, size: 0x8, addend: 0x0, symName: '__ZN4core3ptr94drop_in_place$LT$syn..punctuated..Punctuated$LT$syn..data..Variant$C$syn..token..Comma$GT$$GT$17h55df3b0ca1d33228E', symObjAddr: 0xBA10, symBinAddr: 0x1B450, symSize: 0x120 }
  - { offsetInCU: 0x31D7B, offset: 0x74352, size: 0x8, addend: 0x0, symName: '__ZN4core3ptr94drop_in_place$LT$syn..punctuated..Punctuated$LT$syn..pat..FieldPat$C$syn..token..Comma$GT$$GT$17h8df0d89198f0e314E', symObjAddr: 0xBB30, symBinAddr: 0x1B570, symSize: 0xF0 }
  - { offsetInCU: 0x320D4, offset: 0x746AB, size: 0x8, addend: 0x0, symName: '__ZN4core3ptr94drop_in_place$LT$syn..punctuated..Punctuated$LT$syn..ty..BareFnArg$C$syn..token..Comma$GT$$GT$17h6bc42316ace38293E', symObjAddr: 0xBC20, symBinAddr: 0x1B660, symSize: 0xF0 }
  - { offsetInCU: 0x323B1, offset: 0x74988, size: 0x8, addend: 0x0, symName: '__ZN4core3ptr95drop_in_place$LT$core..option..Option$LT$$LP$proc_macro2..Ident$C$syn..token..Colon$RP$$GT$$GT$17h1f813535fcf5d4abE.llvm.17176136686116987449', symObjAddr: 0xBD10, symBinAddr: 0x1B750, symSize: 0x30 }
  - { offsetInCU: 0x324CD, offset: 0x74AA4, size: 0x8, addend: 0x0, symName: '__ZN4core3ptr96drop_in_place$LT$core..option..Option$LT$alloc..boxed..Box$LT$syn..path..PathSegment$GT$$GT$$GT$17hf5a4a4d96b29b166E.llvm.17176136686116987449', symObjAddr: 0xBD40, symBinAddr: 0x1B780, symSize: 0x90 }
  - { offsetInCU: 0x327EA, offset: 0x74DC1, size: 0x8, addend: 0x0, symName: '__ZN4core3ptr97drop_in_place$LT$syn..punctuated..Punctuated$LT$syn..expr..FieldValue$C$syn..token..Comma$GT$$GT$17h9b1cdb83f369c771E', symObjAddr: 0xBE20, symBinAddr: 0x1B810, symSize: 0xF0 }
  - { offsetInCU: 0x32B62, offset: 0x75139, size: 0x8, addend: 0x0, symName: '__ZN4core3ptr98drop_in_place$LT$syn..punctuated..Punctuated$LT$syn..lifetime..Lifetime$C$syn..token..Plus$GT$$GT$17h9179910af5ffd99cE.llvm.17176136686116987449', symObjAddr: 0xBF10, symBinAddr: 0x1B900, symSize: 0xC0 }
  - { offsetInCU: 0x3AC4B, offset: 0x7D222, size: 0x8, addend: 0x0, symName: '__ZN70_$LT$alloc..vec..Vec$LT$T$C$A$GT$$u20$as$u20$core..ops..drop..Drop$GT$4drop17h2d6e746072bab7efE', symObjAddr: 0xCA30, symBinAddr: 0x1C060, symSize: 0xB0 }
  - { offsetInCU: 0x3ACAD, offset: 0x7D284, size: 0x8, addend: 0x0, symName: '__ZN70_$LT$alloc..vec..Vec$LT$T$C$A$GT$$u20$as$u20$core..ops..drop..Drop$GT$4drop17heed7e26d10c13b86E', symObjAddr: 0xD2C0, symBinAddr: 0x1C110, symSize: 0xB0 }
  - { offsetInCU: 0x3AE29, offset: 0x7D400, size: 0x8, addend: 0x0, symName: '__ZN70_$LT$alloc..vec..Vec$LT$T$C$A$GT$$u20$as$u20$core..ops..drop..Drop$GT$4drop17hf5352ec797a011c2E', symObjAddr: 0xD370, symBinAddr: 0x1C1C0, symSize: 0x90 }
  - { offsetInCU: 0x3AF4D, offset: 0x7D524, size: 0x8, addend: 0x0, symName: '__ZN5alloc3vec16Vec$LT$T$C$A$GT$6retain28_$u7b$$u7b$closure$u7d$$u7d$17h50c7e5a63f5e4163E.llvm.17176136686116987449', symObjAddr: 0xC1A0, symBinAddr: 0x1BB30, symSize: 0x1A0 }
  - { offsetInCU: 0x3B92B, offset: 0x7DF02, size: 0x8, addend: 0x0, symName: '__ZN67_$LT$alloc..vec..Vec$LT$T$C$A$GT$$u20$as$u20$core..clone..Clone$GT$5clone17hd4ed36e653f940e6E', symObjAddr: 0xC350, symBinAddr: 0x1BCD0, symSize: 0x390 }
  - { offsetInCU: 0x4026B, offset: 0x82842, size: 0x8, addend: 0x0, symName: '__ZN5alloc3vec16Vec$LT$T$C$A$GT$6retain17hb1c86b26b6183b74E', symObjAddr: 0xC030, symBinAddr: 0x1B9C0, symSize: 0x170 }
  - { offsetInCU: 0x1E, offset: 0x85544, size: 0x8, addend: 0x0, symName: '__ZN100_$LT$syn..punctuated..PrivateIter$LT$T$C$P$GT$$u20$as$u20$core..iter..traits..iterator..Iterator$GT$4next17h192e1015b6e046e7E.llvm.14666939630287156620', symObjAddr: 0x0, symBinAddr: 0x1C250, symSize: 0x30 }
  - { offsetInCU: 0x55C, offset: 0x85A82, size: 0x8, addend: 0x0, symName: '__ZN100_$LT$syn..punctuated..PrivateIter$LT$T$C$P$GT$$u20$as$u20$core..iter..traits..iterator..Iterator$GT$4next17h192e1015b6e046e7E.llvm.14666939630287156620', symObjAddr: 0x0, symBinAddr: 0x1C250, symSize: 0x30 }
  - { offsetInCU: 0x7EF, offset: 0x85D15, size: 0x8, addend: 0x0, symName: '__ZN100_$LT$syn..punctuated..PrivateIter$LT$T$C$P$GT$$u20$as$u20$core..iter..traits..iterator..Iterator$GT$4next17h8e019f9b5cebe7f5E.llvm.14666939630287156620', symObjAddr: 0x30, symBinAddr: 0x1C280, symSize: 0x0 }
  - { offsetInCU: 0xA82, offset: 0x85FA8, size: 0x8, addend: 0x0, symName: '__ZN100_$LT$syn..punctuated..PrivateIter$LT$T$C$P$GT$$u20$as$u20$core..iter..traits..iterator..Iterator$GT$4next17hd4ab6eef5a4fb2a2E.llvm.14666939630287156620', symObjAddr: 0x60, symBinAddr: 0x1C2B0, symSize: 0x30 }
  - { offsetInCU: 0xDAB, offset: 0x862D1, size: 0x8, addend: 0x0, symName: '__ZN111_$LT$syn..punctuated..PrivateIter$LT$T$C$P$GT$$u20$as$u20$core..iter..traits..exact_size..ExactSizeIterator$GT$3len17he5d659025b0a4dd4E.llvm.14666939630287156620', symObjAddr: 0xC0, symBinAddr: 0x1C2E0, symSize: 0x20 }
  - { offsetInCU: 0xF1D, offset: 0x86443, size: 0x8, addend: 0x0, symName: '__ZN115_$LT$syn..punctuated..PrivateIter$LT$T$C$P$GT$$u20$as$u20$core..iter..traits..double_ended..DoubleEndedIterator$GT$9next_back17h8d7cb8ec2dbda576E.llvm.14666939630287156620', symObjAddr: 0x140, symBinAddr: 0x1C300, symSize: 0x30 }
  - { offsetInCU: 0x14D5, offset: 0x869FB, size: 0x8, addend: 0x0, symName: '__ZN57_$LT$I$u20$as$u20$syn..punctuated..IterTrait$LT$T$GT$$GT$9clone_box17ha96791e9c87a7ec1E.llvm.14666939630287156620', symObjAddr: 0x12F0, symBinAddr: 0x1CD80, symSize: 0x60 }
  - { offsetInCU: 0x7AA1, offset: 0x8CFC7, size: 0x8, addend: 0x0, symName: '__ZN4core3ptr101drop_in_place$LT$syn..punctuated..PrivateIter$LT$syn..path..PathSegment$C$syn..token..PathSep$GT$$GT$17hbada0df5ce7783ebE.llvm.14666939630287156620', symObjAddr: 0x8A0, symBinAddr: 0x1C870, symSize: 0x0 }
  - { offsetInCU: 0x7BE4, offset: 0x8D10A, size: 0x8, addend: 0x0, symName: '__ZN4core3ptr37drop_in_place$LT$syn..lit..LitStr$GT$17h473ef3b0d6116805E', symObjAddr: 0x8B0, symBinAddr: 0x1C880, symSize: 0x60 }
  - { offsetInCU: 0x8006, offset: 0x8D52C, size: 0x8, addend: 0x0, symName: '__ZN4core3ptr45drop_in_place$LT$proc_macro2..TokenStream$GT$17he80d81ee0aefd4e0E.llvm.14666939630287156620', symObjAddr: 0x910, symBinAddr: 0x1C8E0, symSize: 0x140 }
  - { offsetInCU: 0x84D2, offset: 0x8D9F8, size: 0x8, addend: 0x0, symName: '__ZN4core3ptr92drop_in_place$LT$syn..punctuated..Punctuated$LT$syn..lit..LitStr$C$syn..token..Comma$GT$$GT$17hbc543691789a622fE', symObjAddr: 0xA50, symBinAddr: 0x1CA20, symSize: 0x120 }
  - { offsetInCU: 0xC403, offset: 0x91929, size: 0x8, addend: 0x0, symName: __ZN4core4iter6traits10exact_size17ExactSizeIterator8is_empty17hf03c33b4ebea159eE.llvm.14666939630287156620, symObjAddr: 0xBD0, symBinAddr: 0x1CB40, symSize: 0x20 }
  - { offsetInCU: 0xC550, offset: 0x91A76, size: 0x8, addend: 0x0, symName: __ZN4core4iter6traits12double_ended19DoubleEndedIterator15advance_back_by17hd1ae7013ef68434bE.llvm.14666939630287156620, symObjAddr: 0xCE0, symBinAddr: 0x1CB60, symSize: 0x70 }
  - { offsetInCU: 0xC7A0, offset: 0x91CC6, size: 0x8, addend: 0x0, symName: __ZN4core4iter6traits12double_ended19DoubleEndedIterator8nth_back17hc5396cedfe900726E.llvm.14666939630287156620, symObjAddr: 0xE00, symBinAddr: 0x1CBD0, symSize: 0xB0 }
  - { offsetInCU: 0xCC58, offset: 0x9217E, size: 0x8, addend: 0x0, symName: __ZN4core4iter6traits8iterator8Iterator10advance_by17h71775b2cb4502c92E.llvm.14666939630287156620, symObjAddr: 0xFD0, symBinAddr: 0x1CC80, symSize: 0x60 }
  - { offsetInCU: 0xCFC1, offset: 0x924E7, size: 0x8, addend: 0x0, symName: __ZN4core4iter6traits8iterator8Iterator3nth17haa0f627722fba6a4E.llvm.14666939630287156620, symObjAddr: 0x1110, symBinAddr: 0x1CCE0, symSize: 0x80 }
  - { offsetInCU: 0xD58A, offset: 0x92AB0, size: 0x8, addend: 0x0, symName: __ZN4core4iter6traits8iterator8Iterator9size_hint17h5dce4194356df410E.llvm.14666939630287156620, symObjAddr: 0x1210, symBinAddr: 0x1CD60, symSize: 0x0 }
  - { offsetInCU: 0xF194, offset: 0x946BA, size: 0x8, addend: 0x0, symName: _anon.545a3ab0ac379633dfd1c8882284bd66.16.llvm.14666939630287156620, symObjAddr: 0x18D0, symBinAddr: 0x224548, symSize: 0x0 }
  - { offsetInCU: 0xFC7E, offset: 0x951A4, size: 0x8, addend: 0x0, symName: '__ZN3syn10punctuated23Punctuated$LT$T$C$P$GT$21parse_terminated_with17h90ca3f532ba0a2b8E', symObjAddr: 0x1A0, symBinAddr: 0x1C330, symSize: 0x2B0 }
  - { offsetInCU: 0x10707, offset: 0x95C2D, size: 0x8, addend: 0x0, symName: '__ZN3syn10punctuated23Punctuated$LT$T$C$P$GT$4iter17h9a1d53713b847194E', symObjAddr: 0x530, symBinAddr: 0x1C5E0, symSize: 0x70 }
  - { offsetInCU: 0x10C29, offset: 0x9614F, size: 0x8, addend: 0x0, symName: '__ZN3syn10punctuated23Punctuated$LT$T$C$P$GT$4push17h1994b194f8a8c6edE', symObjAddr: 0x5A0, symBinAddr: 0x1C650, symSize: 0x220 }
  - { offsetInCU: 0x1E, offset: 0x972BB, size: 0x8, addend: 0x0, symName: __ZN3syn5parse6Parser5parse17h18644f5aaea7e9f5E, symObjAddr: 0x0, symBinAddr: 0x1CDE0, symSize: 0x530 }
  - { offsetInCU: 0x1C5E, offset: 0x98EFB, size: 0x8, addend: 0x0, symName: '__ZN4core3ptr100drop_in_place$LT$core..option..Option$LT$alloc..boxed..Box$LT$syn..path..GenericArgument$GT$$GT$$GT$17hc3ebb1c43276de35E', symObjAddr: 0x34D0, symBinAddr: 0x202B0, symSize: 0x50 }
  - { offsetInCU: 0x1E2D, offset: 0x990CA, size: 0x8, addend: 0x0, symName: '__ZN4core3ptr102drop_in_place$LT$syn..punctuated..Punctuated$LT$syn..path..GenericArgument$C$syn..token..Comma$GT$$GT$17h66c92c503e336311E', symObjAddr: 0x3520, symBinAddr: 0x20300, symSize: 0xF0 }
  - { offsetInCU: 0x2116, offset: 0x993B3, size: 0x8, addend: 0x0, symName: '__ZN4core3ptr103drop_in_place$LT$core..option..Option$LT$alloc..boxed..Box$LT$syn..generics..TypeParamBound$GT$$GT$$GT$17hc50bb922e0ba62acE', symObjAddr: 0x3610, symBinAddr: 0x203F0, symSize: 0x50 }
  - { offsetInCU: 0x2361, offset: 0x995FE, size: 0x8, addend: 0x0, symName: '__ZN4core3ptr103drop_in_place$LT$core..option..Option$LT$alloc..boxed..Box$LT$syn..generics..WherePredicate$GT$$GT$$GT$17hbea9f53f261c9840E', symObjAddr: 0x3660, symBinAddr: 0x20440, symSize: 0xD0 }
  - { offsetInCU: 0x26F4, offset: 0x99991, size: 0x8, addend: 0x0, symName: '__ZN4core3ptr103drop_in_place$LT$syn..punctuated..Punctuated$LT$syn..generics..GenericParam$C$syn..token..Comma$GT$$GT$17h5f295eef942e04d8E', symObjAddr: 0x3730, symBinAddr: 0x20510, symSize: 0xF0 }
  - { offsetInCU: 0x2BB7, offset: 0x99E54, size: 0x8, addend: 0x0, symName: '__ZN4core3ptr104drop_in_place$LT$syn..punctuated..Punctuated$LT$syn..generics..TypeParamBound$C$syn..token..Plus$GT$$GT$17h69f2b997a3e55d25E', symObjAddr: 0x3820, symBinAddr: 0x20600, symSize: 0x230 }
  - { offsetInCU: 0x3438, offset: 0x9A6D5, size: 0x8, addend: 0x0, symName: '__ZN4core3ptr115drop_in_place$LT$core..option..Option$LT$$LP$syn..token..Brace$C$alloc..vec..Vec$LT$syn..item..Item$GT$$RP$$GT$$GT$17h6c103102512890d6E', symObjAddr: 0x3A50, symBinAddr: 0x20830, symSize: 0xE0 }
  - { offsetInCU: 0x375B, offset: 0x9A9F8, size: 0x8, addend: 0x0, symName: '__ZN4core3ptr34drop_in_place$LT$syn..lit..Lit$GT$17h1f4687645f8bfe7eE', symObjAddr: 0x3B30, symBinAddr: 0x20910, symSize: 0x110 }
  - { offsetInCU: 0x3CB4, offset: 0x9AF51, size: 0x8, addend: 0x0, symName: '__ZN4core3ptr34drop_in_place$LT$syn..pat..Pat$GT$17hde681b9baf8fb08dE', symObjAddr: 0x3C40, symBinAddr: 0x20A20, symSize: 0xEE0 }
  - { offsetInCU: 0x7303, offset: 0x9E5A0, size: 0x8, addend: 0x0, symName: '__ZN4core3ptr34drop_in_place$LT$syn..ty..Type$GT$17h0106c15e48fae4dfE', symObjAddr: 0x4B20, symBinAddr: 0x21900, symSize: 0x5C0 }
  - { offsetInCU: 0x8B39, offset: 0x9FDD6, size: 0x8, addend: 0x0, symName: '__ZN4core3ptr36drop_in_place$LT$syn..expr..Expr$GT$17h010d2bf1f3f18a00E', symObjAddr: 0x50E0, symBinAddr: 0x21EC0, symSize: 0x2800 }
  - { offsetInCU: 0x121CF, offset: 0xA946C, size: 0x8, addend: 0x0, symName: '__ZN4core3ptr36drop_in_place$LT$syn..item..Item$GT$17h3cd4799645f8ab5eE', symObjAddr: 0x78E0, symBinAddr: 0x246C0, symSize: 0x19C0 }
  - { offsetInCU: 0x17DD3, offset: 0xAF070, size: 0x8, addend: 0x0, symName: '__ZN4core3ptr36drop_in_place$LT$syn..mac..Macro$GT$17h7139b459d6850b0cE', symObjAddr: 0x92A0, symBinAddr: 0x26080, symSize: 0xE0 }
  - { offsetInCU: 0x18144, offset: 0xAF3E1, size: 0x8, addend: 0x0, symName: '__ZN4core3ptr36drop_in_place$LT$syn..path..Path$GT$17hf592a52027c9597aE', symObjAddr: 0x9380, symBinAddr: 0x26160, symSize: 0x220 }
  - { offsetInCU: 0x18A79, offset: 0xAFD16, size: 0x8, addend: 0x0, symName: '__ZN4core3ptr37drop_in_place$LT$syn..stmt..Block$GT$17h8d14d314b566db1fE', symObjAddr: 0x95A0, symBinAddr: 0x26380, symSize: 0xD0 }
  - { offsetInCU: 0x18D3C, offset: 0xAFFD9, size: 0x8, addend: 0x0, symName: '__ZN4core3ptr38drop_in_place$LT$syn..data..Fields$GT$17hb4205b88dba589abE', symObjAddr: 0x9670, symBinAddr: 0x26450, symSize: 0x190 }
  - { offsetInCU: 0x1915A, offset: 0xB03F7, size: 0x8, addend: 0x0, symName: '__ZN4core3ptr38drop_in_place$LT$syn..expr..Member$GT$17h4c1444f728d1ac4bE', symObjAddr: 0x9800, symBinAddr: 0x265E0, symSize: 0x30 }
  - { offsetInCU: 0x19257, offset: 0xB04F4, size: 0x8, addend: 0x0, symName: '__ZN4core3ptr39drop_in_place$LT$proc_macro2..Ident$GT$17h9e15763a81c150e3E', symObjAddr: 0x9830, symBinAddr: 0x26610, symSize: 0x30 }
  - { offsetInCU: 0x1946B, offset: 0xB0708, size: 0x8, addend: 0x0, symName: '__ZN4core3ptr39drop_in_place$LT$syn..buffer..Entry$GT$17h0993c0740d3c51f0E', symObjAddr: 0x9860, symBinAddr: 0x26640, symSize: 0xC0 }
  - { offsetInCU: 0x19896, offset: 0xB0B33, size: 0x8, addend: 0x0, symName: '__ZN4core3ptr39drop_in_place$LT$syn..item..UseTree$GT$17hbef1676b25e8e560E', symObjAddr: 0x9920, symBinAddr: 0x26700, symSize: 0x1D0 }
  - { offsetInCU: 0x19F96, offset: 0xB1233, size: 0x8, addend: 0x0, symName: '__ZN4core3ptr40drop_in_place$LT$syn..ty..ReturnType$GT$17he2b77263b1f99703E', symObjAddr: 0x9AF0, symBinAddr: 0x268D0, symSize: 0x50 }
  - { offsetInCU: 0x1A108, offset: 0xB13A5, size: 0x8, addend: 0x0, symName: '__ZN4core3ptr41drop_in_place$LT$syn..expr..ExprConst$GT$17h51915508e1311471E', symObjAddr: 0x9B40, symBinAddr: 0x26920, symSize: 0x180 }
  - { offsetInCU: 0x1A6BA, offset: 0xB1957, size: 0x8, addend: 0x0, symName: '__ZN4core3ptr41drop_in_place$LT$syn..item..Signature$GT$17h3d2084b5862c4367E', symObjAddr: 0x9CC0, symBinAddr: 0x26AA0, symSize: 0x240 }
  - { offsetInCU: 0x1AF33, offset: 0xB21D0, size: 0x8, addend: 0x0, symName: '__ZN4core3ptr43drop_in_place$LT$syn..data..FieldsNamed$GT$17ha8647c0fe5fcc54dE', symObjAddr: 0x9F00, symBinAddr: 0x26CE0, symSize: 0xE0 }
  - { offsetInCU: 0x1B222, offset: 0xB24BF, size: 0x8, addend: 0x0, symName: '__ZN4core3ptr44drop_in_place$LT$syn..generics..Generics$GT$17h6161a1571fae173cE', symObjAddr: 0x9FE0, symBinAddr: 0x26DC0, symSize: 0x40 }
  - { offsetInCU: 0x1B23F, offset: 0xB24DC, size: 0x8, addend: 0x0, symName: '__ZN4core3ptr44drop_in_place$LT$syn..lifetime..Lifetime$GT$17ha08727e55d333d3eE', symObjAddr: 0xA020, symBinAddr: 0x26E00, symSize: 0x30 }
  - { offsetInCU: 0x1B33C, offset: 0xB25D9, size: 0x8, addend: 0x0, symName: '__ZN4core3ptr44drop_in_place$LT$syn..parse..ParseBuffer$GT$17hd6693329ccc45cd6E', symObjAddr: 0xA050, symBinAddr: 0x26E30, symSize: 0x70 }
  - { offsetInCU: 0x1B6B9, offset: 0xB2956, size: 0x8, addend: 0x0, symName: '__ZN4core3ptr45drop_in_place$LT$proc_macro2..TokenStream$GT$17he80d81ee0aefd4e0E', symObjAddr: 0xA0C0, symBinAddr: 0x26EA0, symSize: 0x140 }
  - { offsetInCU: 0x1BAEA, offset: 0xB2D87, size: 0x8, addend: 0x0, symName: '__ZN4core3ptr45drop_in_place$LT$syn..buffer..TokenBuffer$GT$17h019f86d43e6bb343E', symObjAddr: 0xA200, symBinAddr: 0x26FE0, symSize: 0xD0 }
  - { offsetInCU: 0x1BD50, offset: 0xB2FED, size: 0x8, addend: 0x0, symName: '__ZN4core3ptr45drop_in_place$LT$syn..generics..TypeParam$GT$17hb4a24b881662578aE', symObjAddr: 0xA2D0, symBinAddr: 0x270B0, symSize: 0x230 }
  - { offsetInCU: 0x1C54C, offset: 0xB37E9, size: 0x8, addend: 0x0, symName: '__ZN4core3ptr46drop_in_place$LT$syn..generics..ConstParam$GT$17ha0167add76e199e3E', symObjAddr: 0xA500, symBinAddr: 0x272E0, symSize: 0x150 }
  - { offsetInCU: 0x1C976, offset: 0xB3C13, size: 0x8, addend: 0x0, symName: '__ZN4core3ptr47drop_in_place$LT$syn..path..GenericArgument$GT$17h0055728b8de7b667E', symObjAddr: 0xA650, symBinAddr: 0x27430, symSize: 0x460 }
  - { offsetInCU: 0x1D67F, offset: 0xB491C, size: 0x8, addend: 0x0, symName: '__ZN4core3ptr49drop_in_place$LT$syn..generics..LifetimeParam$GT$17h36966eca2bc25019E', symObjAddr: 0xAAB0, symBinAddr: 0x27890, symSize: 0xF0 }
  - { offsetInCU: 0x1DA39, offset: 0xB4CD6, size: 0x8, addend: 0x0, symName: '__ZN4core3ptr49drop_in_place$LT$syn..restriction..Visibility$GT$17h8119a2a070fe079dE', symObjAddr: 0xABA0, symBinAddr: 0x27980, symSize: 0x60 }
  - { offsetInCU: 0x1DBBC, offset: 0xB4E59, size: 0x8, addend: 0x0, symName: '__ZN4core3ptr50drop_in_place$LT$syn..generics..TypeParamBound$GT$17h61b62e36292ba54eE', symObjAddr: 0xAC00, symBinAddr: 0x279E0, symSize: 0xA0 }
  - { offsetInCU: 0x1DD23, offset: 0xB4FC0, size: 0x8, addend: 0x0, symName: '__ZN4core3ptr58drop_in_place$LT$alloc..vec..Vec$LT$syn..expr..Arm$GT$$GT$17heb67d33357be49cfE', symObjAddr: 0xACA0, symBinAddr: 0x27A80, symSize: 0xD0 }
  - { offsetInCU: 0x1DFB0, offset: 0xB524D, size: 0x8, addend: 0x0, symName: '__ZN4core3ptr59drop_in_place$LT$alloc..boxed..Box$LT$syn..pat..Pat$GT$$GT$17h177bea0e0defbb19E', symObjAddr: 0xAD70, symBinAddr: 0x27B50, symSize: 0x50 }
  - { offsetInCU: 0x1E10B, offset: 0xB53A8, size: 0x8, addend: 0x0, symName: '__ZN4core3ptr59drop_in_place$LT$alloc..boxed..Box$LT$syn..ty..Type$GT$$GT$17h3c530910e46a6c16E', symObjAddr: 0xADC0, symBinAddr: 0x27BA0, symSize: 0x50 }
  - { offsetInCU: 0x1E266, offset: 0xB5503, size: 0x8, addend: 0x0, symName: '__ZN4core3ptr61drop_in_place$LT$alloc..boxed..Box$LT$syn..expr..Expr$GT$$GT$17h9c9a6e23a929c358E', symObjAddr: 0xAE10, symBinAddr: 0x27BF0, symSize: 0x50 }
  - { offsetInCU: 0x1E3C1, offset: 0xB565E, size: 0x8, addend: 0x0, symName: '__ZN4core3ptr61drop_in_place$LT$syn..path..ParenthesizedGenericArguments$GT$17h2231cf5dd7f94d0dE', symObjAddr: 0xAE60, symBinAddr: 0x27C40, symSize: 0x170 }
  - { offsetInCU: 0x1E99B, offset: 0xB5C38, size: 0x8, addend: 0x0, symName: '__ZN4core3ptr62drop_in_place$LT$alloc..boxed..Box$LT$syn..stmt..Block$GT$$GT$17h2d91d43260095047E', symObjAddr: 0xAFD0, symBinAddr: 0x27DB0, symSize: 0xE0 }
  - { offsetInCU: 0x1ED78, offset: 0xB6015, size: 0x8, addend: 0x0, symName: '__ZN4core3ptr63drop_in_place$LT$alloc..boxed..Box$LT$syn..lit..LitRepr$GT$$GT$17h3ace10d3a7928f8cE', symObjAddr: 0xB0B0, symBinAddr: 0x27E90, symSize: 0x60 }
  - { offsetInCU: 0x1F04E, offset: 0xB62EB, size: 0x8, addend: 0x0, symName: '__ZN4core3ptr63drop_in_place$LT$alloc..vec..Vec$LT$syn..item..ImplItem$GT$$GT$17haf0ee9cdd28718d2E', symObjAddr: 0xB110, symBinAddr: 0x27EF0, symSize: 0x80 }
  - { offsetInCU: 0x1F2CC, offset: 0xB6569, size: 0x8, addend: 0x0, symName: '__ZN4core3ptr64drop_in_place$LT$alloc..boxed..Box$LT$syn..item..UseTree$GT$$GT$17ha62eb7e7fa717c51E', symObjAddr: 0xB190, symBinAddr: 0x27F70, symSize: 0x50 }
  - { offsetInCU: 0x1F446, offset: 0xB66E3, size: 0x8, addend: 0x0, symName: '__ZN4core3ptr64drop_in_place$LT$alloc..boxed..Box$LT$syn..pat..FieldPat$GT$$GT$17h52f6106523bf1449E', symObjAddr: 0xB1E0, symBinAddr: 0x27FC0, symSize: 0x140 }
  - { offsetInCU: 0x1FAF1, offset: 0xB6D8E, size: 0x8, addend: 0x0, symName: '__ZN4core3ptr64drop_in_place$LT$alloc..boxed..Box$LT$syn..ty..BareFnArg$GT$$GT$17hb641e3de6f34c275E', symObjAddr: 0xB320, symBinAddr: 0x28100, symSize: 0x140 }
  - { offsetInCU: 0x20015, offset: 0xB72B2, size: 0x8, addend: 0x0, symName: '__ZN4core3ptr64drop_in_place$LT$alloc..vec..Vec$LT$syn..item..TraitItem$GT$$GT$17hbd244ce2bbf85f4eE', symObjAddr: 0xB460, symBinAddr: 0x28240, symSize: 0x80 }
  - { offsetInCU: 0x20293, offset: 0xB7530, size: 0x8, addend: 0x0, symName: '__ZN4core3ptr65drop_in_place$LT$core..option..Option$LT$syn..expr..Label$GT$$GT$17h91cf194cd5e34cd5E', symObjAddr: 0xB4E0, symBinAddr: 0x282C0, symSize: 0x30 }
  - { offsetInCU: 0x203CE, offset: 0xB766B, size: 0x8, addend: 0x0, symName: '__ZN4core3ptr66drop_in_place$LT$alloc..vec..Vec$LT$syn..item..ForeignItem$GT$$GT$17h89c78ef64d9fade1E', symObjAddr: 0xB510, symBinAddr: 0x282F0, symSize: 0x80 }
  - { offsetInCU: 0x2064C, offset: 0xB78E9, size: 0x8, addend: 0x0, symName: '__ZN4core3ptr66drop_in_place$LT$core..option..Option$LT$syn..pat..PatRest$GT$$GT$17hbb6129f481ecab95E', symObjAddr: 0xB590, symBinAddr: 0x28370, symSize: 0xE0 }
  - { offsetInCU: 0x208D0, offset: 0xB7B6D, size: 0x8, addend: 0x0, symName: '__ZN4core3ptr67drop_in_place$LT$alloc..boxed..Box$LT$syn..expr..FieldValue$GT$$GT$17ha1e4c19bb7a29641E', symObjAddr: 0xB670, symBinAddr: 0x28450, symSize: 0x140 }
  - { offsetInCU: 0x20E31, offset: 0xB80CE, size: 0x8, addend: 0x0, symName: '__ZN4core3ptr68drop_in_place$LT$core..option..Option$LT$syn..item..Variadic$GT$$GT$17h4f2d5c295cf7eeecE', symObjAddr: 0xB7B0, symBinAddr: 0x28590, symSize: 0x130 }
  - { offsetInCU: 0x2134F, offset: 0xB85EC, size: 0x8, addend: 0x0, symName: '__ZN4core3ptr70drop_in_place$LT$core..option..Option$LT$syn..ty..BareVariadic$GT$$GT$17h3bf2d19dd9d64c19E', symObjAddr: 0xB8E0, symBinAddr: 0x286C0, symSize: 0x120 }
  - { offsetInCU: 0x2187C, offset: 0xB8B19, size: 0x8, addend: 0x0, symName: '__ZN4core3ptr72drop_in_place$LT$alloc..boxed..Box$LT$syn..path..GenericArgument$GT$$GT$17h44a3862ecec4332bE', symObjAddr: 0xBA00, symBinAddr: 0x287E0, symSize: 0x2B0 }
  - { offsetInCU: 0x22267, offset: 0xB9504, size: 0x8, addend: 0x0, symName: '__ZN4core3ptr72drop_in_place$LT$core..option..Option$LT$syn..lifetime..Lifetime$GT$$GT$17hdccab75a5d5c39b8E', symObjAddr: 0xBCB0, symBinAddr: 0x28A90, symSize: 0x30 }
  - { offsetInCU: 0x22383, offset: 0xB9620, size: 0x8, addend: 0x0, symName: '__ZN4core3ptr73drop_in_place$LT$alloc..boxed..Box$LT$syn..generics..GenericParam$GT$$GT$17hfa95abdb0b21754aE', symObjAddr: 0xBCE0, symBinAddr: 0x28AC0, symSize: 0x80 }
  - { offsetInCU: 0x224FB, offset: 0xB9798, size: 0x8, addend: 0x0, symName: '__ZN4core3ptr75drop_in_place$LT$alloc..boxed..Box$LT$syn..generics..TypeParamBound$GT$$GT$17h4c62423d3c63ecb3E', symObjAddr: 0xBD60, symBinAddr: 0x28B40, symSize: 0x160 }
  - { offsetInCU: 0x22AE0, offset: 0xB9D7D, size: 0x8, addend: 0x0, symName: '__ZN4core3ptr75drop_in_place$LT$core..option..Option$LT$syn..generics..WhereClause$GT$$GT$17hac930f0f6572f1f1E', symObjAddr: 0xBEC0, symBinAddr: 0x28CA0, symSize: 0x90 }
  - { offsetInCU: 0x22D96, offset: 0xBA033, size: 0x8, addend: 0x0, symName: '__ZN4core3ptr86drop_in_place$LT$syn..punctuated..Punctuated$LT$syn..pat..Pat$C$syn..token..Or$GT$$GT$17h9a9261170a1c1dedE', symObjAddr: 0xBF50, symBinAddr: 0x28D30, symSize: 0x120 }
  - { offsetInCU: 0x231DC, offset: 0xBA479, size: 0x8, addend: 0x0, symName: '__ZN4core3ptr87drop_in_place$LT$core..option..Option$LT$alloc..boxed..Box$LT$syn..pat..Pat$GT$$GT$$GT$17he19d3d462e1aa905E', symObjAddr: 0xC070, symBinAddr: 0x28E50, symSize: 0x50 }
  - { offsetInCU: 0x2334E, offset: 0xBA5EB, size: 0x8, addend: 0x0, symName: '__ZN4core3ptr87drop_in_place$LT$core..option..Option$LT$alloc..boxed..Box$LT$syn..ty..Type$GT$$GT$$GT$17h05427c2116ca75d2E', symObjAddr: 0xC0C0, symBinAddr: 0x28EA0, symSize: 0x50 }
  - { offsetInCU: 0x234C0, offset: 0xBA75D, size: 0x8, addend: 0x0, symName: '__ZN4core3ptr89drop_in_place$LT$core..option..Option$LT$alloc..boxed..Box$LT$syn..expr..Expr$GT$$GT$$GT$17hb24c5a0053d90fcaE', symObjAddr: 0xC110, symBinAddr: 0x28EF0, symSize: 0x50 }
  - { offsetInCU: 0x23670, offset: 0xBA90D, size: 0x8, addend: 0x0, symName: '__ZN4core3ptr89drop_in_place$LT$syn..punctuated..Punctuated$LT$syn..pat..Pat$C$syn..token..Comma$GT$$GT$17h3e4cb55ddf0a7994E', symObjAddr: 0xC160, symBinAddr: 0x28F40, symSize: 0x120 }
  - { offsetInCU: 0x23B0B, offset: 0xBADA8, size: 0x8, addend: 0x0, symName: '__ZN4core3ptr90drop_in_place$LT$core..option..Option$LT$alloc..boxed..Box$LT$syn..data..Field$GT$$GT$$GT$17he78f4f06c34538a6E', symObjAddr: 0xC280, symBinAddr: 0x29060, symSize: 0x200 }
  - { offsetInCU: 0x243DD, offset: 0xBB67A, size: 0x8, addend: 0x0, symName: '__ZN4core3ptr90drop_in_place$LT$core..option..Option$LT$alloc..boxed..Box$LT$syn..item..FnArg$GT$$GT$$GT$17hed00a7eafe5bb657E', symObjAddr: 0xC480, symBinAddr: 0x29260, symSize: 0x2B0 }
  - { offsetInCU: 0x24F35, offset: 0xBC1D2, size: 0x8, addend: 0x0, symName: '__ZN4core3ptr91drop_in_place$LT$syn..punctuated..Punctuated$LT$syn..expr..Expr$C$syn..token..Comma$GT$$GT$17h55d34742a791e8b2E', symObjAddr: 0xC730, symBinAddr: 0x29510, symSize: 0x120 }
  - { offsetInCU: 0x25392, offset: 0xBC62F, size: 0x8, addend: 0x0, symName: '__ZN4core3ptr92drop_in_place$LT$core..option..Option$LT$$LP$syn..token..As$C$proc_macro2..Ident$RP$$GT$$GT$17hca2c5398e3c179c5E', symObjAddr: 0xC850, symBinAddr: 0x29630, symSize: 0x30 }
  - { offsetInCU: 0x2552A, offset: 0xBC7C7, size: 0x8, addend: 0x0, symName: '__ZN4core3ptr92drop_in_place$LT$core..option..Option$LT$alloc..boxed..Box$LT$syn..data..Variant$GT$$GT$$GT$17he3d46264957049f3E', symObjAddr: 0xC880, symBinAddr: 0x29660, symSize: 0x190 }
  - { offsetInCU: 0x25B76, offset: 0xBCE13, size: 0x8, addend: 0x0, symName: '__ZN4core3ptr92drop_in_place$LT$syn..punctuated..Punctuated$LT$syn..item..FnArg$C$syn..token..Comma$GT$$GT$17h8c994c0b37f6ecb2E', symObjAddr: 0xCA10, symBinAddr: 0x297F0, symSize: 0xE0 }
  - { offsetInCU: 0x25E40, offset: 0xBD0DD, size: 0x8, addend: 0x0, symName: '__ZN4core3ptr94drop_in_place$LT$syn..punctuated..Punctuated$LT$syn..data..Variant$C$syn..token..Comma$GT$$GT$17h55df3b0ca1d33228E', symObjAddr: 0xCAF0, symBinAddr: 0x298D0, symSize: 0xE0 }
  - { offsetInCU: 0x26110, offset: 0xBD3AD, size: 0x8, addend: 0x0, symName: '__ZN4core3ptr94drop_in_place$LT$syn..punctuated..Punctuated$LT$syn..pat..FieldPat$C$syn..token..Comma$GT$$GT$17h8df0d89198f0e314E', symObjAddr: 0xCBD0, symBinAddr: 0x299B0, symSize: 0xF0 }
  - { offsetInCU: 0x263DA, offset: 0xBD677, size: 0x8, addend: 0x0, symName: '__ZN4core3ptr94drop_in_place$LT$syn..punctuated..Punctuated$LT$syn..ty..BareFnArg$C$syn..token..Comma$GT$$GT$17h6bc42316ace38293E', symObjAddr: 0xCCC0, symBinAddr: 0x29AA0, symSize: 0xF0 }
  - { offsetInCU: 0x266A4, offset: 0xBD941, size: 0x8, addend: 0x0, symName: '__ZN4core3ptr96drop_in_place$LT$core..option..Option$LT$alloc..boxed..Box$LT$syn..path..PathSegment$GT$$GT$$GT$17hf5a4a4d96b29b166E', symObjAddr: 0xCDB0, symBinAddr: 0x29B90, symSize: 0x180 }
  - { offsetInCU: 0x26D35, offset: 0xBDFD2, size: 0x8, addend: 0x0, symName: '__ZN4core3ptr97drop_in_place$LT$syn..punctuated..Punctuated$LT$syn..expr..FieldValue$C$syn..token..Comma$GT$$GT$17h9b1cdb83f369c771E', symObjAddr: 0xCF30, symBinAddr: 0x29D10, symSize: 0xF0 }
  - { offsetInCU: 0x2707B, offset: 0xBE318, size: 0x8, addend: 0x0, symName: '__ZN4core3ptr98drop_in_place$LT$syn..punctuated..Punctuated$LT$syn..lifetime..Lifetime$C$syn..token..Plus$GT$$GT$17h9179910af5ffd99cE', symObjAddr: 0xD020, symBinAddr: 0x29E00, symSize: 0xB1 }
  - { offsetInCU: 0x2D0C4, offset: 0xC4361, size: 0x8, addend: 0x0, symName: '__ZN40_$LT$F$u20$as$u20$syn..parse..Parser$GT$6parse217h6d3ab18e3775993cE', symObjAddr: 0x3040, symBinAddr: 0x1FE20, symSize: 0x490 }
  - { offsetInCU: 0x2DEE7, offset: 0xC5184, size: 0x8, addend: 0x0, symName: __ZN3syn5parse6Parser5parse17h18644f5aaea7e9f5E, symObjAddr: 0x0, symBinAddr: 0x1CDE0, symSize: 0x530 }
  - { offsetInCU: 0x2EB47, offset: 0xC5DE4, size: 0x8, addend: 0x0, symName: __ZN3syn5parse6Parser5parse17h304f3e4183f616cbE, symObjAddr: 0x530, symBinAddr: 0x1D310, symSize: 0x530 }
  - { offsetInCU: 0x2F7A7, offset: 0xC6A44, size: 0x8, addend: 0x0, symName: __ZN3syn5parse6Parser5parse17h3777f9f195944c7aE, symObjAddr: 0xA60, symBinAddr: 0x1D840, symSize: 0x530 }
  - { offsetInCU: 0x303B7, offset: 0xC7654, size: 0x8, addend: 0x0, symName: __ZN3syn5parse6Parser5parse17h62654c70dfbc59d8E, symObjAddr: 0xF90, symBinAddr: 0x1DD70, symSize: 0x530 }
  - { offsetInCU: 0x31017, offset: 0xC82B4, size: 0x8, addend: 0x0, symName: __ZN3syn5parse6Parser5parse17h747ba76ac2abfa17E, symObjAddr: 0x14C0, symBinAddr: 0x1E2A0, symSize: 0x530 }
  - { offsetInCU: 0x31C77, offset: 0xC8F14, size: 0x8, addend: 0x0, symName: __ZN3syn5parse6Parser5parse17h9b9c86f4ac29fd53E, symObjAddr: 0x19F0, symBinAddr: 0x1E7D0, symSize: 0x530 }
  - { offsetInCU: 0x328D7, offset: 0xC9B74, size: 0x8, addend: 0x0, symName: __ZN3syn5parse6Parser5parse17hc4b1adab0b9203ffE, symObjAddr: 0x1F20, symBinAddr: 0x1ED00, symSize: 0x670 }
  - { offsetInCU: 0x33802, offset: 0xCAA9F, size: 0x8, addend: 0x0, symName: __ZN3syn5parse6Parser5parse17hd6a98304120a6c3aE, symObjAddr: 0x2590, symBinAddr: 0x1F370, symSize: 0x580 }
  - { offsetInCU: 0x3447B, offset: 0xCB718, size: 0x8, addend: 0x0, symName: __ZN3syn5parse6Parser5parse17hf513198c0bd32b97E, symObjAddr: 0x2B10, symBinAddr: 0x1F8F0, symSize: 0x530 }
  - { offsetInCU: 0x1E, offset: 0xD563A, size: 0x8, addend: 0x0, symName: __ZN5alloc7raw_vec11finish_grow17h9aaf9cbded9a6b6bE.llvm.3451260135768079907, symObjAddr: 0x0, symBinAddr: 0x29EC0, symSize: 0xA0 }
  - { offsetInCU: 0x1CC9, offset: 0xD72E5, size: 0x8, addend: 0x0, symName: __ZN5alloc7raw_vec11finish_grow17h9aaf9cbded9a6b6bE.llvm.3451260135768079907, symObjAddr: 0x0, symBinAddr: 0x29EC0, symSize: 0xA0 }
  - { offsetInCU: 0x238E, offset: 0xD79AA, size: 0x8, addend: 0x0, symName: '__ZN5alloc7raw_vec19RawVec$LT$T$C$A$GT$7reserve21do_reserve_and_handle17h1c2fba5ca96de0c3E', symObjAddr: 0x4A0, symBinAddr: 0x1C6A00, symSize: 0xB0 }
  - { offsetInCU: 0x26CD, offset: 0xD7CE9, size: 0x8, addend: 0x0, symName: '__ZN77_$LT$alloc..raw_vec..RawVec$LT$T$C$A$GT$$u20$as$u20$core..ops..drop..Drop$GT$4drop17h3ef1463d2c1bfb49E', symObjAddr: 0x610, symBinAddr: 0x2A270, symSize: 0x30 }
  - { offsetInCU: 0x27CA, offset: 0xD7DE6, size: 0x8, addend: 0x0, symName: '__ZN77_$LT$alloc..raw_vec..RawVec$LT$T$C$A$GT$$u20$as$u20$core..ops..drop..Drop$GT$4drop17h46a857947dd7b513E', symObjAddr: 0x670, symBinAddr: 0x2A2A0, symSize: 0x0 }
  - { offsetInCU: 0x30E1, offset: 0xD86FD, size: 0x8, addend: 0x0, symName: '__ZN5alloc7raw_vec19RawVec$LT$T$C$A$GT$16reserve_for_push17h4aa1cbd185567033E', symObjAddr: 0x190, symBinAddr: 0x29F60, symSize: 0xD0 }
  - { offsetInCU: 0x35A5, offset: 0xD8BC1, size: 0x8, addend: 0x0, symName: '__ZN5alloc7raw_vec19RawVec$LT$T$C$A$GT$16reserve_for_push17h4aa8cf0f74eecfccE', symObjAddr: 0x260, symBinAddr: 0x2A030, symSize: 0xD0 }
  - { offsetInCU: 0x3AA1, offset: 0xD90BD, size: 0x8, addend: 0x0, symName: '__ZN5alloc7raw_vec19RawVec$LT$T$C$A$GT$16reserve_for_push17h688e9f642878c9eeE', symObjAddr: 0x330, symBinAddr: 0x2A100, symSize: 0xC0 }
  - { offsetInCU: 0x3F65, offset: 0xD9581, size: 0x8, addend: 0x0, symName: '__ZN5alloc7raw_vec19RawVec$LT$T$C$A$GT$16reserve_for_push17h8b2bac676d06ac07E', symObjAddr: 0x3F0, symBinAddr: 0x2A1C0, symSize: 0xB0 }
  - { offsetInCU: 0x1E, offset: 0xD9935, size: 0x8, addend: 0x0, symName: '__ZN10proc_macro6bridge11scoped_cell19ScopedCell$LT$T$GT$7replace17h38bb66cf8158c692E', symObjAddr: 0x0, symBinAddr: 0x2A2D0, symSize: 0x0 }
  - { offsetInCU: 0xA04, offset: 0xDA31B, size: 0x8, addend: 0x0, symName: '__ZN4core3ptr145drop_in_place$LT$proc_macro..bridge..scoped_cell..ScopedCell$LT$T$GT$..replace..PutBackOnDrop$LT$proc_macro..bridge..client..BridgeStateL$GT$$GT$17hf9adaf9144bb6b58E.llvm.1620898949142973049', symObjAddr: 0x24E0, symBinAddr: 0x2C7B0, symSize: 0xC0 }
  - { offsetInCU: 0xD73, offset: 0xDA68A, size: 0x8, addend: 0x0, symName: '__ZN4core3ptr695drop_in_place$LT$proc_macro..bridge..scoped_cell..ScopedCell$LT$proc_macro..bridge..client..BridgeStateL$GT$..set$LT$$LP$$RP$$C$proc_macro..bridge..client..run_client$LT$$LP$proc_macro..bridge..client..TokenStream$C$proc_macro..bridge..client..TokenStream$RP$$C$core..option..Option$LT$proc_macro..bridge..client..TokenStream$GT$$C$proc_macro..bridge..client..Client$LT$$LP$proc_macro..TokenStream$C$proc_macro..TokenStream$RP$$C$proc_macro..TokenStream$GT$..expand2$LT$solana_sdk_macro..wasm_bindgen_stub$GT$..$u7b$$u7b$closure$u7d$$u7d$..$u7b$$u7b$closure$u7d$$u7d$$GT$..$u7b$$u7b$closure$u7d$$u7d$..$u7b$$u7b$closure$u7d$$u7d$..$u7b$$u7b$closure$u7d$$u7d$$GT$..$u7b$$u7b$closure$u7d$$u7d$$GT$17h9f7c3a32fdcd69efE', symObjAddr: 0x25A0, symBinAddr: 0x2C870, symSize: 0x3F }
  - { offsetInCU: 0x31C7, offset: 0xDCADE, size: 0x8, addend: 0x0, symName: '__ZN10proc_macro6bridge11scoped_cell19ScopedCell$LT$T$GT$7replace17h38bb66cf8158c692E', symObjAddr: 0x0, symBinAddr: 0x2A2D0, symSize: 0x0 }
  - { offsetInCU: 0x37B1, offset: 0xDD0C8, size: 0x8, addend: 0x0, symName: '__ZN10proc_macro6bridge11scoped_cell19ScopedCell$LT$T$GT$7replace17h98cf7fbd90cf2824E', symObjAddr: 0x1D0, symBinAddr: 0x2A4A0, symSize: 0x380 }
  - { offsetInCU: 0x40A3, offset: 0xDD9BA, size: 0x8, addend: 0x0, symName: '__ZN10proc_macro6bridge11scoped_cell19ScopedCell$LT$T$GT$7replace17ha09df9d6fdcdd64fE', symObjAddr: 0x550, symBinAddr: 0x2A820, symSize: 0x380 }
  - { offsetInCU: 0x4995, offset: 0xDE2AC, size: 0x8, addend: 0x0, symName: '__ZN10proc_macro6bridge11scoped_cell19ScopedCell$LT$T$GT$7replace17hb229ae72a098194dE', symObjAddr: 0x8D0, symBinAddr: 0x2ABA0, symSize: 0x380 }
  - { offsetInCU: 0x5287, offset: 0xDEB9E, size: 0x8, addend: 0x0, symName: '__ZN10proc_macro6bridge11scoped_cell19ScopedCell$LT$T$GT$7replace17hb5b4d017e4a124cbE', symObjAddr: 0xC50, symBinAddr: 0x2AF20, symSize: 0x380 }
  - { offsetInCU: 0x5B79, offset: 0xDF490, size: 0x8, addend: 0x0, symName: '__ZN10proc_macro6bridge11scoped_cell19ScopedCell$LT$T$GT$7replace17hc65d9093e555f261E', symObjAddr: 0xFD0, symBinAddr: 0x2B2A0, symSize: 0x380 }
  - { offsetInCU: 0x646B, offset: 0xDFD82, size: 0x8, addend: 0x0, symName: '__ZN10proc_macro6bridge11scoped_cell19ScopedCell$LT$T$GT$7replace17hd6e1196e939d2181E', symObjAddr: 0x1350, symBinAddr: 0x2B620, symSize: 0x380 }
  - { offsetInCU: 0x6D5D, offset: 0xE0674, size: 0x8, addend: 0x0, symName: '__ZN10proc_macro6bridge11scoped_cell19ScopedCell$LT$T$GT$7replace17hdf667232a9674b18E', symObjAddr: 0x16D0, symBinAddr: 0x2B9A0, symSize: 0x380 }
  - { offsetInCU: 0x764F, offset: 0xE0F66, size: 0x8, addend: 0x0, symName: '__ZN10proc_macro6bridge11scoped_cell19ScopedCell$LT$T$GT$7replace17hed73252a63fcedbcE', symObjAddr: 0x1A50, symBinAddr: 0x2BD20, symSize: 0x380 }
  - { offsetInCU: 0x7F41, offset: 0xE1858, size: 0x8, addend: 0x0, symName: '__ZN10proc_macro6bridge11scoped_cell19ScopedCell$LT$T$GT$7replace17hf51666bb0f0dda79E', symObjAddr: 0x1DD0, symBinAddr: 0x2C0A0, symSize: 0x380 }
  - { offsetInCU: 0x887F, offset: 0xE2196, size: 0x8, addend: 0x0, symName: '__ZN10proc_macro6bridge11scoped_cell19ScopedCell$LT$T$GT$7replace17hfbb21f08d11869fcE', symObjAddr: 0x2150, symBinAddr: 0x2C420, symSize: 0x390 }
  - { offsetInCU: 0x1E, offset: 0xE3E26, size: 0x8, addend: 0x0, symName: __ZN3std9panicking3try17h00ac1a866d536811E, symObjAddr: 0x0, symBinAddr: 0x2C8B0, symSize: 0x390 }
  - { offsetInCU: 0xE6E, offset: 0xE4C76, size: 0x8, addend: 0x0, symName: __ZN3std9panicking3try17h00ac1a866d536811E, symObjAddr: 0x0, symBinAddr: 0x2C8B0, symSize: 0x390 }
  - { offsetInCU: 0x151E, offset: 0xE5326, size: 0x8, addend: 0x0, symName: __ZN3std9panicking3try17h09f126385f95d009E, symObjAddr: 0x390, symBinAddr: 0x2CC40, symSize: 0x390 }
  - { offsetInCU: 0x1BCE, offset: 0xE59D6, size: 0x8, addend: 0x0, symName: __ZN3std9panicking3try17h0b92c15f2408a04dE, symObjAddr: 0x720, symBinAddr: 0x2CFD0, symSize: 0x390 }
  - { offsetInCU: 0x227E, offset: 0xE6086, size: 0x8, addend: 0x0, symName: __ZN3std9panicking3try17h1db394f4443229f3E, symObjAddr: 0xAB0, symBinAddr: 0x2D360, symSize: 0x390 }
  - { offsetInCU: 0x292E, offset: 0xE6736, size: 0x8, addend: 0x0, symName: __ZN3std9panicking3try17h8c96234085de93e7E, symObjAddr: 0xE40, symBinAddr: 0x2D6F0, symSize: 0x390 }
  - { offsetInCU: 0x2FDE, offset: 0xE6DE6, size: 0x8, addend: 0x0, symName: __ZN3std9panicking3try17hc944b92bde5b887dE, symObjAddr: 0x11D0, symBinAddr: 0x2DA80, symSize: 0x390 }
  - { offsetInCU: 0x368E, offset: 0xE7496, size: 0x8, addend: 0x0, symName: __ZN3std9panicking3try17hd0e9b47f54a8f6a6E, symObjAddr: 0x1560, symBinAddr: 0x2DE10, symSize: 0x390 }
  - { offsetInCU: 0x3D3E, offset: 0xE7B46, size: 0x8, addend: 0x0, symName: __ZN3std9panicking3try17he53a335789c5b42bE, symObjAddr: 0x1990, symBinAddr: 0x2E1A0, symSize: 0x230 }
  - { offsetInCU: 0x4102, offset: 0xE7F0A, size: 0x8, addend: 0x0, symName: __ZN3std9panicking3try17hfa89a8593809187eE, symObjAddr: 0x1BC0, symBinAddr: 0x2E3D0, symSize: 0x390 }
  - { offsetInCU: 0x47B2, offset: 0xE85BA, size: 0x8, addend: 0x0, symName: __ZN3std9panicking3try17hfd9dc2b93010c647E, symObjAddr: 0x1F50, symBinAddr: 0x2E760, symSize: 0x390 }
  - { offsetInCU: 0x5FFD, offset: 0xE9E05, size: 0x8, addend: 0x0, symName: '__ZN4core3ptr110drop_in_place$LT$$LP$proc_macro..bridge..client..TokenStream$C$proc_macro..bridge..client..TokenStream$RP$$GT$17ha98ee4e20ba1cebcE', symObjAddr: 0x22E0, symBinAddr: 0x2EAF0, symSize: 0x40 }
  - { offsetInCU: 0x6092, offset: 0xE9E9A, size: 0x8, addend: 0x0, symName: '__ZN4core3ptr522drop_in_place$LT$proc_macro..bridge..client..run_client$LT$$LP$proc_macro..bridge..client..TokenStream$C$proc_macro..bridge..client..TokenStream$RP$$C$core..option..Option$LT$proc_macro..bridge..client..TokenStream$GT$$C$proc_macro..bridge..client..Client$LT$$LP$proc_macro..TokenStream$C$proc_macro..TokenStream$RP$$C$proc_macro..TokenStream$GT$..expand2$LT$solana_sdk_macro..wasm_bindgen_stub$GT$..$u7b$$u7b$closure$u7d$$u7d$..$u7b$$u7b$closure$u7d$$u7d$$GT$..$u7b$$u7b$closure$u7d$$u7d$..$u7b$$u7b$closure$u7d$$u7d$$GT$17hde8e49367ebc563aE', symObjAddr: 0x2320, symBinAddr: 0x2EB30, symSize: 0xF0 }
  - { offsetInCU: 0x62C9, offset: 0xEA0D1, size: 0x8, addend: 0x0, symName: '__ZN4core3ptr52drop_in_place$LT$std..thread..local..AccessError$GT$17hd1e5e1a9343ed60dE', symObjAddr: 0x2410, symBinAddr: 0x2EC20, symSize: 0x6 }
  - { offsetInCU: 0x1E, offset: 0xECE7F, size: 0x8, addend: 0x0, symName: '__ZN4core3ptr100drop_in_place$LT$core..option..Option$LT$alloc..boxed..Box$LT$syn..path..GenericArgument$GT$$GT$$GT$17hc3ebb1c43276de35E', symObjAddr: 0x0, symBinAddr: 0x2EC30, symSize: 0x50 }
  - { offsetInCU: 0x1653, offset: 0xEE4B4, size: 0x8, addend: 0x0, symName: '__ZN4core3ptr100drop_in_place$LT$core..option..Option$LT$alloc..boxed..Box$LT$syn..path..GenericArgument$GT$$GT$$GT$17hc3ebb1c43276de35E', symObjAddr: 0x0, symBinAddr: 0x2EC30, symSize: 0x50 }
  - { offsetInCU: 0x1822, offset: 0xEE683, size: 0x8, addend: 0x0, symName: '__ZN4core3ptr102drop_in_place$LT$syn..punctuated..Punctuated$LT$syn..path..GenericArgument$C$syn..token..Comma$GT$$GT$17h66c92c503e336311E', symObjAddr: 0x50, symBinAddr: 0x2EC80, symSize: 0xF0 }
  - { offsetInCU: 0x1B0B, offset: 0xEE96C, size: 0x8, addend: 0x0, symName: '__ZN4core3ptr103drop_in_place$LT$core..option..Option$LT$alloc..boxed..Box$LT$syn..generics..TypeParamBound$GT$$GT$$GT$17hc50bb922e0ba62acE', symObjAddr: 0x140, symBinAddr: 0x2ED70, symSize: 0x50 }
  - { offsetInCU: 0x1D18, offset: 0xEEB79, size: 0x8, addend: 0x0, symName: '__ZN4core3ptr103drop_in_place$LT$syn..punctuated..Punctuated$LT$syn..generics..GenericParam$C$syn..token..Comma$GT$$GT$17h5f295eef942e04d8E', symObjAddr: 0x190, symBinAddr: 0x2EDC0, symSize: 0xF0 }
  - { offsetInCU: 0x22B4, offset: 0xEF115, size: 0x8, addend: 0x0, symName: '__ZN4core3ptr104drop_in_place$LT$syn..punctuated..Punctuated$LT$syn..generics..TypeParamBound$C$syn..token..Plus$GT$$GT$17h69f2b997a3e55d25E', symObjAddr: 0x280, symBinAddr: 0x2EEB0, symSize: 0x230 }
  - { offsetInCU: 0x2B92, offset: 0xEF9F3, size: 0x8, addend: 0x0, symName: '__ZN4core3ptr34drop_in_place$LT$syn..lit..Lit$GT$17h1f4687645f8bfe7eE', symObjAddr: 0x4B0, symBinAddr: 0x2F0E0, symSize: 0x110 }
  - { offsetInCU: 0x30EB, offset: 0xEFF4C, size: 0x8, addend: 0x0, symName: '__ZN4core3ptr34drop_in_place$LT$syn..pat..Pat$GT$17hde681b9baf8fb08dE', symObjAddr: 0x5C0, symBinAddr: 0x2F1F0, symSize: 0xEE0 }
  - { offsetInCU: 0x673A, offset: 0xF359B, size: 0x8, addend: 0x0, symName: '__ZN4core3ptr34drop_in_place$LT$syn..ty..Type$GT$17h0106c15e48fae4dfE', symObjAddr: 0x14A0, symBinAddr: 0x300D0, symSize: 0x5C0 }
  - { offsetInCU: 0x7F70, offset: 0xF4DD1, size: 0x8, addend: 0x0, symName: '__ZN4core3ptr36drop_in_place$LT$syn..expr..Expr$GT$17h010d2bf1f3f18a00E', symObjAddr: 0x1A60, symBinAddr: 0x30690, symSize: 0x2800 }
  - { offsetInCU: 0x1114D, offset: 0xFDFAE, size: 0x8, addend: 0x0, symName: '__ZN4core3ptr36drop_in_place$LT$syn..mac..Macro$GT$17h7139b459d6850b0cE', symObjAddr: 0x4260, symBinAddr: 0x32E90, symSize: 0xE0 }
  - { offsetInCU: 0x114BE, offset: 0xFE31F, size: 0x8, addend: 0x0, symName: '__ZN4core3ptr36drop_in_place$LT$syn..path..Path$GT$17hf592a52027c9597aE.llvm.2282893205473313437', symObjAddr: 0x4340, symBinAddr: 0x32F70, symSize: 0x220 }
  - { offsetInCU: 0x11DF3, offset: 0xFEC54, size: 0x8, addend: 0x0, symName: '__ZN4core3ptr37drop_in_place$LT$syn..stmt..Block$GT$17h8d14d314b566db1fE', symObjAddr: 0x4560, symBinAddr: 0x33190, symSize: 0xD0 }
  - { offsetInCU: 0x12097, offset: 0xFEEF8, size: 0x8, addend: 0x0, symName: '__ZN4core3ptr38drop_in_place$LT$syn..expr..Member$GT$17h4c1444f728d1ac4bE', symObjAddr: 0x4630, symBinAddr: 0x33260, symSize: 0x30 }
  - { offsetInCU: 0x12194, offset: 0xFEFF5, size: 0x8, addend: 0x0, symName: '__ZN4core3ptr39drop_in_place$LT$proc_macro2..Ident$GT$17h9e15763a81c150e3E', symObjAddr: 0x4660, symBinAddr: 0x33290, symSize: 0x30 }
  - { offsetInCU: 0x12272, offset: 0xFF0D3, size: 0x8, addend: 0x0, symName: '__ZN4core3ptr40drop_in_place$LT$syn..ty..ReturnType$GT$17he2b77263b1f99703E', symObjAddr: 0x4690, symBinAddr: 0x332C0, symSize: 0x50 }
  - { offsetInCU: 0x123E4, offset: 0xFF245, size: 0x8, addend: 0x0, symName: '__ZN4core3ptr41drop_in_place$LT$syn..expr..ExprConst$GT$17h51915508e1311471E', symObjAddr: 0x46E0, symBinAddr: 0x33310, symSize: 0x180 }
  - { offsetInCU: 0x12939, offset: 0xFF79A, size: 0x8, addend: 0x0, symName: '__ZN4core3ptr44drop_in_place$LT$syn..lifetime..Lifetime$GT$17ha08727e55d333d3eE', symObjAddr: 0x4860, symBinAddr: 0x33490, symSize: 0x30 }
  - { offsetInCU: 0x12B6C, offset: 0xFF9CD, size: 0x8, addend: 0x0, symName: '__ZN4core3ptr45drop_in_place$LT$proc_macro2..TokenStream$GT$17he80d81ee0aefd4e0E.llvm.2282893205473313437', symObjAddr: 0x4890, symBinAddr: 0x334C0, symSize: 0x140 }
  - { offsetInCU: 0x12FDB, offset: 0xFFE3C, size: 0x8, addend: 0x0, symName: '__ZN4core3ptr45drop_in_place$LT$syn..generics..TypeParam$GT$17hb4a24b881662578aE', symObjAddr: 0x49D0, symBinAddr: 0x33600, symSize: 0x230 }
  - { offsetInCU: 0x137D7, offset: 0x100638, size: 0x8, addend: 0x0, symName: '__ZN4core3ptr46drop_in_place$LT$syn..generics..ConstParam$GT$17ha0167add76e199e3E', symObjAddr: 0x4C00, symBinAddr: 0x33830, symSize: 0x150 }
  - { offsetInCU: 0x13C01, offset: 0x100A62, size: 0x8, addend: 0x0, symName: '__ZN4core3ptr47drop_in_place$LT$syn..path..GenericArgument$GT$17h0055728b8de7b667E', symObjAddr: 0x4D50, symBinAddr: 0x33980, symSize: 0x460 }
  - { offsetInCU: 0x1490A, offset: 0x10176B, size: 0x8, addend: 0x0, symName: '__ZN4core3ptr49drop_in_place$LT$syn..generics..LifetimeParam$GT$17h36966eca2bc25019E', symObjAddr: 0x51B0, symBinAddr: 0x33DE0, symSize: 0xF0 }
  - { offsetInCU: 0x14CC4, offset: 0x101B25, size: 0x8, addend: 0x0, symName: '__ZN4core3ptr50drop_in_place$LT$syn..generics..TypeParamBound$GT$17h61b62e36292ba54eE', symObjAddr: 0x52A0, symBinAddr: 0x33ED0, symSize: 0xA0 }
  - { offsetInCU: 0x14E2B, offset: 0x101C8C, size: 0x8, addend: 0x0, symName: '__ZN4core3ptr58drop_in_place$LT$alloc..vec..Vec$LT$syn..expr..Arm$GT$$GT$17heb67d33357be49cfE', symObjAddr: 0x5340, symBinAddr: 0x33F70, symSize: 0xD0 }
  - { offsetInCU: 0x150B8, offset: 0x101F19, size: 0x8, addend: 0x0, symName: '__ZN4core3ptr59drop_in_place$LT$alloc..boxed..Box$LT$syn..pat..Pat$GT$$GT$17h177bea0e0defbb19E', symObjAddr: 0x5410, symBinAddr: 0x34040, symSize: 0x50 }
  - { offsetInCU: 0x15213, offset: 0x102074, size: 0x8, addend: 0x0, symName: '__ZN4core3ptr59drop_in_place$LT$alloc..boxed..Box$LT$syn..ty..Type$GT$$GT$17h3c530910e46a6c16E', symObjAddr: 0x5460, symBinAddr: 0x34090, symSize: 0x50 }
  - { offsetInCU: 0x1536E, offset: 0x1021CF, size: 0x8, addend: 0x0, symName: '__ZN4core3ptr61drop_in_place$LT$alloc..boxed..Box$LT$syn..expr..Expr$GT$$GT$17h9c9a6e23a929c358E', symObjAddr: 0x54B0, symBinAddr: 0x340E0, symSize: 0x50 }
  - { offsetInCU: 0x154C9, offset: 0x10232A, size: 0x8, addend: 0x0, symName: '__ZN4core3ptr61drop_in_place$LT$syn..path..ParenthesizedGenericArguments$GT$17h2231cf5dd7f94d0dE', symObjAddr: 0x5500, symBinAddr: 0x34130, symSize: 0x170 }
  - { offsetInCU: 0x15AA3, offset: 0x102904, size: 0x8, addend: 0x0, symName: '__ZN4core3ptr63drop_in_place$LT$alloc..boxed..Box$LT$syn..lit..LitRepr$GT$$GT$17h3ace10d3a7928f8cE', symObjAddr: 0x5670, symBinAddr: 0x342A0, symSize: 0x60 }
  - { offsetInCU: 0x15D98, offset: 0x102BF9, size: 0x8, addend: 0x0, symName: '__ZN4core3ptr64drop_in_place$LT$alloc..boxed..Box$LT$syn..pat..FieldPat$GT$$GT$17h52f6106523bf1449E', symObjAddr: 0x56D0, symBinAddr: 0x34300, symSize: 0x140 }
  - { offsetInCU: 0x16443, offset: 0x1032A4, size: 0x8, addend: 0x0, symName: '__ZN4core3ptr64drop_in_place$LT$alloc..boxed..Box$LT$syn..ty..BareFnArg$GT$$GT$17hb641e3de6f34c275E', symObjAddr: 0x5810, symBinAddr: 0x34440, symSize: 0x140 }
  - { offsetInCU: 0x16967, offset: 0x1037C8, size: 0x8, addend: 0x0, symName: '__ZN4core3ptr65drop_in_place$LT$core..option..Option$LT$syn..expr..Label$GT$$GT$17h91cf194cd5e34cd5E', symObjAddr: 0x5950, symBinAddr: 0x34580, symSize: 0x30 }
  - { offsetInCU: 0x16AA2, offset: 0x103903, size: 0x8, addend: 0x0, symName: '__ZN4core3ptr66drop_in_place$LT$core..option..Option$LT$syn..pat..PatRest$GT$$GT$17hbb6129f481ecab95E', symObjAddr: 0x5980, symBinAddr: 0x345B0, symSize: 0xE0 }
  - { offsetInCU: 0x16D26, offset: 0x103B87, size: 0x8, addend: 0x0, symName: '__ZN4core3ptr67drop_in_place$LT$alloc..boxed..Box$LT$syn..expr..FieldValue$GT$$GT$17ha1e4c19bb7a29641E', symObjAddr: 0x5A60, symBinAddr: 0x34690, symSize: 0x140 }
  - { offsetInCU: 0x17249, offset: 0x1040AA, size: 0x8, addend: 0x0, symName: '__ZN4core3ptr70drop_in_place$LT$core..option..Option$LT$syn..ty..BareVariadic$GT$$GT$17h3bf2d19dd9d64c19E', symObjAddr: 0x5BA0, symBinAddr: 0x347D0, symSize: 0x120 }
  - { offsetInCU: 0x17776, offset: 0x1045D7, size: 0x8, addend: 0x0, symName: '__ZN4core3ptr72drop_in_place$LT$alloc..boxed..Box$LT$syn..path..GenericArgument$GT$$GT$17h44a3862ecec4332bE', symObjAddr: 0x5CC0, symBinAddr: 0x348F0, symSize: 0x2B0 }
  - { offsetInCU: 0x18161, offset: 0x104FC2, size: 0x8, addend: 0x0, symName: '__ZN4core3ptr72drop_in_place$LT$core..option..Option$LT$syn..lifetime..Lifetime$GT$$GT$17hdccab75a5d5c39b8E', symObjAddr: 0x5F70, symBinAddr: 0x34BA0, symSize: 0x30 }
  - { offsetInCU: 0x1827D, offset: 0x1050DE, size: 0x8, addend: 0x0, symName: '__ZN4core3ptr73drop_in_place$LT$alloc..boxed..Box$LT$syn..generics..GenericParam$GT$$GT$17hfa95abdb0b21754aE', symObjAddr: 0x5FA0, symBinAddr: 0x34BD0, symSize: 0x80 }
  - { offsetInCU: 0x183F5, offset: 0x105256, size: 0x8, addend: 0x0, symName: '__ZN4core3ptr75drop_in_place$LT$alloc..boxed..Box$LT$syn..generics..TypeParamBound$GT$$GT$17h4c62423d3c63ecb3E', symObjAddr: 0x6020, symBinAddr: 0x34C50, symSize: 0x160 }
  - { offsetInCU: 0x189BB, offset: 0x10581C, size: 0x8, addend: 0x0, symName: '__ZN4core3ptr86drop_in_place$LT$syn..punctuated..Punctuated$LT$syn..pat..Pat$C$syn..token..Or$GT$$GT$17h9a9261170a1c1dedE', symObjAddr: 0x6180, symBinAddr: 0x34DB0, symSize: 0x120 }
  - { offsetInCU: 0x18E01, offset: 0x105C62, size: 0x8, addend: 0x0, symName: '__ZN4core3ptr87drop_in_place$LT$core..option..Option$LT$alloc..boxed..Box$LT$syn..pat..Pat$GT$$GT$$GT$17he19d3d462e1aa905E', symObjAddr: 0x62A0, symBinAddr: 0x34ED0, symSize: 0x50 }
  - { offsetInCU: 0x18F73, offset: 0x105DD4, size: 0x8, addend: 0x0, symName: '__ZN4core3ptr87drop_in_place$LT$core..option..Option$LT$alloc..boxed..Box$LT$syn..ty..Type$GT$$GT$$GT$17h05427c2116ca75d2E', symObjAddr: 0x62F0, symBinAddr: 0x34F20, symSize: 0x50 }
  - { offsetInCU: 0x190E5, offset: 0x105F46, size: 0x8, addend: 0x0, symName: '__ZN4core3ptr89drop_in_place$LT$core..option..Option$LT$alloc..boxed..Box$LT$syn..expr..Expr$GT$$GT$$GT$17hb24c5a0053d90fcaE', symObjAddr: 0x6340, symBinAddr: 0x34F70, symSize: 0x50 }
  - { offsetInCU: 0x19295, offset: 0x1060F6, size: 0x8, addend: 0x0, symName: '__ZN4core3ptr89drop_in_place$LT$syn..punctuated..Punctuated$LT$syn..pat..Pat$C$syn..token..Comma$GT$$GT$17h3e4cb55ddf0a7994E', symObjAddr: 0x6390, symBinAddr: 0x34FC0, symSize: 0x120 }
  - { offsetInCU: 0x19730, offset: 0x106591, size: 0x8, addend: 0x0, symName: '__ZN4core3ptr91drop_in_place$LT$syn..punctuated..Punctuated$LT$syn..expr..Expr$C$syn..token..Comma$GT$$GT$17h55d34742a791e8b2E', symObjAddr: 0x64B0, symBinAddr: 0x350E0, symSize: 0x120 }
  - { offsetInCU: 0x19B8D, offset: 0x1069EE, size: 0x8, addend: 0x0, symName: '__ZN4core3ptr94drop_in_place$LT$syn..punctuated..Punctuated$LT$syn..pat..FieldPat$C$syn..token..Comma$GT$$GT$17h8df0d89198f0e314E', symObjAddr: 0x65D0, symBinAddr: 0x35200, symSize: 0xF0 }
  - { offsetInCU: 0x19E57, offset: 0x106CB8, size: 0x8, addend: 0x0, symName: '__ZN4core3ptr94drop_in_place$LT$syn..punctuated..Punctuated$LT$syn..ty..BareFnArg$C$syn..token..Comma$GT$$GT$17h6bc42316ace38293E', symObjAddr: 0x66C0, symBinAddr: 0x352F0, symSize: 0xF0 }
  - { offsetInCU: 0x1A121, offset: 0x106F82, size: 0x8, addend: 0x0, symName: '__ZN4core3ptr96drop_in_place$LT$core..option..Option$LT$alloc..boxed..Box$LT$syn..path..PathSegment$GT$$GT$$GT$17hf5a4a4d96b29b166E', symObjAddr: 0x67B0, symBinAddr: 0x353E0, symSize: 0x180 }
  - { offsetInCU: 0x1A7B2, offset: 0x107613, size: 0x8, addend: 0x0, symName: '__ZN4core3ptr97drop_in_place$LT$syn..punctuated..Punctuated$LT$syn..expr..FieldValue$C$syn..token..Comma$GT$$GT$17h9b1cdb83f369c771E', symObjAddr: 0x6930, symBinAddr: 0x35560, symSize: 0xF0 }
  - { offsetInCU: 0x1AAF8, offset: 0x107959, size: 0x8, addend: 0x0, symName: '__ZN4core3ptr98drop_in_place$LT$syn..punctuated..Punctuated$LT$syn..lifetime..Lifetime$C$syn..token..Plus$GT$$GT$17h9179910af5ffd99cE', symObjAddr: 0x6A20, symBinAddr: 0x35650, symSize: 0xC0 }
  - { offsetInCU: 0x35, offset: 0x112534, size: 0x8, addend: 0x0, symName: _anon.da23cad8beacaf8239b51d3a917dc40d.3.llvm.16908473870285680421, symObjAddr: 0x1DE8, symBinAddr: 0x224690, symSize: 0x0 }
  - { offsetInCU: 0x3BD, offset: 0x1128BC, size: 0x8, addend: 0x0, symName: '__ZN77_$LT$$LP$A$C$B$RP$$u20$as$u20$proc_macro..bridge..rpc..DecodeMut$LT$S$GT$$GT$6decode17ha70a3d037989c17cE', symObjAddr: 0x1B20, symBinAddr: 0x36800, symSize: 0xC2 }
  - { offsetInCU: 0xF9F, offset: 0x11349E, size: 0x8, addend: 0x0, symName: __ZN10proc_macro6bridge6client10run_client17h27b7c3e7efa231d6E, symObjAddr: 0x210, symBinAddr: 0x35710, symSize: 0x1B0 }
  - { offsetInCU: 0x12AC, offset: 0x1137AB, size: 0x8, addend: 0x0, symName: __ZN10proc_macro6bridge6client10run_client17h596f7d5eac1d298eE, symObjAddr: 0x3C0, symBinAddr: 0x358C0, symSize: 0x1B0 }
  - { offsetInCU: 0x15B9, offset: 0x113AB8, size: 0x8, addend: 0x0, symName: __ZN10proc_macro6bridge6client10run_client17h59decebe177746e9E, symObjAddr: 0x570, symBinAddr: 0x35A70, symSize: 0x1B0 }
  - { offsetInCU: 0x18C6, offset: 0x113DC5, size: 0x8, addend: 0x0, symName: __ZN10proc_macro6bridge6client10run_client17h82a7b676ed0b7240E, symObjAddr: 0x720, symBinAddr: 0x35C20, symSize: 0x1B0 }
  - { offsetInCU: 0x1BD3, offset: 0x1140D2, size: 0x8, addend: 0x0, symName: __ZN10proc_macro6bridge6client10run_client17h8c53c7bf0bf369b5E, symObjAddr: 0x8D0, symBinAddr: 0x35DD0, symSize: 0x1B0 }
  - { offsetInCU: 0x1EE0, offset: 0x1143DF, size: 0x8, addend: 0x0, symName: __ZN10proc_macro6bridge6client10run_client17h94316139cffcc45cE, symObjAddr: 0xA80, symBinAddr: 0x35F80, symSize: 0x1B0 }
  - { offsetInCU: 0x21ED, offset: 0x1146EC, size: 0x8, addend: 0x0, symName: __ZN10proc_macro6bridge6client10run_client17h94578b22f78f8018E, symObjAddr: 0xC30, symBinAddr: 0x36130, symSize: 0x1B0 }
  - { offsetInCU: 0x24FA, offset: 0x1149F9, size: 0x8, addend: 0x0, symName: __ZN10proc_macro6bridge6client10run_client17ha02b3541c419020eE, symObjAddr: 0xDE0, symBinAddr: 0x362E0, symSize: 0x1B0 }
  - { offsetInCU: 0x2807, offset: 0x114D06, size: 0x8, addend: 0x0, symName: __ZN10proc_macro6bridge6client10run_client17hc6cba3748d5d616fE, symObjAddr: 0xF90, symBinAddr: 0x36490, symSize: 0x1B0 }
  - { offsetInCU: 0x2B39, offset: 0x115038, size: 0x8, addend: 0x0, symName: __ZN10proc_macro6bridge6client10run_client17hc82d4949f50f7e65E, symObjAddr: 0x1140, symBinAddr: 0x36640, symSize: 0x1B0 }
  - { offsetInCU: 0x3058, offset: 0x115557, size: 0x8, addend: 0x0, symName: '__ZN4core3ptr52drop_in_place$LT$std..thread..local..AccessError$GT$17hd1e5e1a9343ed60dE.llvm.16908473870285680421', symObjAddr: 0x1B10, symBinAddr: 0x367F0, symSize: 0x10 }
  - { offsetInCU: 0x858, offset: 0x116F5C, size: 0x8, addend: 0x0, symName: '__ZN68_$LT$$RF$str$u20$as$u20$proc_macro..bridge..rpc..Encode$LT$S$GT$$GT$6encode17hbf68961d86413ac9E', symObjAddr: 0x70, symBinAddr: 0x368D0, symSize: 0x330 }
  - { offsetInCU: 0x1E, offset: 0x117793, size: 0x8, addend: 0x0, symName: __ZN4core3fmt5Write10write_char17h7d2078f44d73c59cE, symObjAddr: 0x0, symBinAddr: 0x36C00, symSize: 0x100 }
  - { offsetInCU: 0xC8, offset: 0x11783D, size: 0x8, addend: 0x0, symName: '__ZN80_$LT$std..io..Write..write_fmt..Adapter$LT$T$GT$$u20$as$u20$core..fmt..Write$GT$9write_str17hd65a5d04bf085dccE', symObjAddr: 0x1E0, symBinAddr: 0x36DE0, symSize: 0x3E }
  - { offsetInCU: 0x9F7, offset: 0x11816C, size: 0x8, addend: 0x0, symName: '__ZN4core3ptr81drop_in_place$LT$core..result..Result$LT$$LP$$RP$$C$std..io..error..Error$GT$$GT$17h9d6d88bb5c8ed015E', symObjAddr: 0x120, symBinAddr: 0x36D20, symSize: 0xB0 }
  - { offsetInCU: 0xE69, offset: 0x1185DE, size: 0x8, addend: 0x0, symName: '__ZN4core3ptr92drop_in_place$LT$std..io..Write..write_fmt..Adapter$LT$std..sys..unix..stdio..Stderr$GT$$GT$17ha544685363e6b952E', symObjAddr: 0x1D0, symBinAddr: 0x36DD0, symSize: 0x10 }
  - { offsetInCU: 0xFEF, offset: 0x118764, size: 0x8, addend: 0x0, symName: __ZN4core3fmt5Write10write_char17h7d2078f44d73c59cE, symObjAddr: 0x0, symBinAddr: 0x36C00, symSize: 0x100 }
  - { offsetInCU: 0x1158, offset: 0x1188CD, size: 0x8, addend: 0x0, symName: __ZN4core3fmt5Write9write_fmt17h2bb0657afb7daadeE, symObjAddr: 0x100, symBinAddr: 0x36D00, symSize: 0x20 }
  - { offsetInCU: 0x1E, offset: 0x11903D, size: 0x8, addend: 0x0, symName: __ZN3std2io5Write9write_all17h44ee6d3007ef9155E, symObjAddr: 0x0, symBinAddr: 0x36E20, symSize: 0xF0 }
  - { offsetInCU: 0x35, offset: 0x119054, size: 0x8, addend: 0x0, symName: _anon.0929a173d3e616e7b2c5b4b038c8668e.6.llvm.1016038237359061250, symObjAddr: 0x328, symBinAddr: 0x224740, symSize: 0x0 }
  - { offsetInCU: 0xE3, offset: 0x119102, size: 0x8, addend: 0x0, symName: __ZN3std2io5Write9write_all17h44ee6d3007ef9155E, symObjAddr: 0x0, symBinAddr: 0x36E20, symSize: 0xF0 }
  - { offsetInCU: 0x35F, offset: 0x11937E, size: 0x8, addend: 0x0, symName: __ZN3std2io5Write9write_fmt17h4b4a61ae4ea29b01E, symObjAddr: 0xF0, symBinAddr: 0x36F10, symSize: 0x90 }
  - { offsetInCU: 0x141D, offset: 0x11A43C, size: 0x8, addend: 0x0, symName: '__ZN4core3ptr42drop_in_place$LT$std..io..error..Error$GT$17h754c4ad2ef7a2ab7E.llvm.1016038237359061250', symObjAddr: 0x180, symBinAddr: 0x36FA0, symSize: 0xA0 }
  - { offsetInCU: 0x1881, offset: 0x11A8A0, size: 0x8, addend: 0x0, symName: '__ZN4core3ptr92drop_in_place$LT$std..io..Write..write_fmt..Adapter$LT$std..sys..unix..stdio..Stderr$GT$$GT$17ha544685363e6b952E.llvm.1016038237359061250', symObjAddr: 0x220, symBinAddr: 0x37040, symSize: 0x15 }
  - { offsetInCU: 0x1E, offset: 0x11B25E, size: 0x8, addend: 0x0, symName: '__ZN3std3sys6common12thread_local10fast_local12Key$LT$T$GT$14try_initialize17h099003a8be4dbd0eE.llvm.14692249595169941390', symObjAddr: 0x0, symBinAddr: 0x37060, symSize: 0x150 }
  - { offsetInCU: 0x3E7, offset: 0x11B627, size: 0x8, addend: 0x0, symName: __ZN3std3sys6common12thread_local10fast_local13destroy_value17h0197b8abc1e0fa50E, symObjAddr: 0x170, symBinAddr: 0x371B0, symSize: 0xE0 }
  - { offsetInCU: 0xF94, offset: 0x11C1D4, size: 0x8, addend: 0x0, symName: '__ZN4core3ptr81drop_in_place$LT$core..result..Result$LT$$LP$$RP$$C$std..io..error..Error$GT$$GT$17h9d6d88bb5c8ed015E', symObjAddr: 0x250, symBinAddr: 0x37290, symSize: 0xA5 }
  - { offsetInCU: 0x1C4B, offset: 0x11CE8B, size: 0x8, addend: 0x0, symName: '__ZN3std3sys6common12thread_local10fast_local12Key$LT$T$GT$14try_initialize17h099003a8be4dbd0eE.llvm.14692249595169941390', symObjAddr: 0x0, symBinAddr: 0x37060, symSize: 0x150 }
  - { offsetInCU: 0x1E, offset: 0x11E279, size: 0x8, addend: 0x0, symName: '__ZN4core3ptr73drop_in_place$LT$core..cell..UnsafeCell$LT$syn..parse..Unexpected$GT$$GT$17h3b19da039b3a9487E.llvm.9614719015652045832', symObjAddr: 0x0, symBinAddr: 0x37340, symSize: 0x50 }
  - { offsetInCU: 0xB35, offset: 0x11ED90, size: 0x8, addend: 0x0, symName: '__ZN4core3ptr73drop_in_place$LT$core..cell..UnsafeCell$LT$syn..parse..Unexpected$GT$$GT$17h3b19da039b3a9487E.llvm.9614719015652045832', symObjAddr: 0x0, symBinAddr: 0x37340, symSize: 0x50 }
  - { offsetInCU: 0x166C, offset: 0x11F8C7, size: 0x8, addend: 0x0, symName: '__ZN68_$LT$alloc..rc..Rc$LT$T$C$A$GT$$u20$as$u20$core..ops..drop..Drop$GT$4drop17h1b3b84e6a80068a4E', symObjAddr: 0xC0, symBinAddr: 0x37390, symSize: 0xE0 }
  - { offsetInCU: 0x1B5F, offset: 0x11FDBA, size: 0x8, addend: 0x0, symName: '__ZN68_$LT$alloc..rc..Rc$LT$T$C$A$GT$$u20$as$u20$core..ops..drop..Drop$GT$4drop17h8de326ad89717cb5E', symObjAddr: 0x1A0, symBinAddr: 0x37470, symSize: 0x40 }
  - { offsetInCU: 0x1DD4, offset: 0x12002F, size: 0x8, addend: 0x0, symName: '__ZN68_$LT$alloc..rc..Rc$LT$T$C$A$GT$$u20$as$u20$core..ops..drop..Drop$GT$4drop17heb9c3a2d1913afc1E', symObjAddr: 0x1E0, symBinAddr: 0x374B0, symSize: 0x24 }
  - { offsetInCU: 0x1E, offset: 0x120FFA, size: 0x8, addend: 0x0, symName: '__ZN120_$LT$proc_macro2..fallback..TokenStream$u20$as$u20$core..iter..traits..collect..Extend$LT$proc_macro2..TokenTree$GT$$GT$6extend17h398c8a83bb0c9651E', symObjAddr: 0x0, symBinAddr: 0x374E0, symSize: 0x110 }
  - { offsetInCU: 0x9A3, offset: 0x12197F, size: 0x8, addend: 0x0, symName: '__ZN120_$LT$proc_macro2..fallback..TokenStream$u20$as$u20$core..iter..traits..collect..Extend$LT$proc_macro2..TokenTree$GT$$GT$6extend17h398c8a83bb0c9651E', symObjAddr: 0x0, symBinAddr: 0x374E0, symSize: 0x110 }
  - { offsetInCU: 0xC2D, offset: 0x121C09, size: 0x8, addend: 0x0, symName: '__ZN126_$LT$proc_macro2..fallback..TokenStream$u20$as$u20$core..iter..traits..collect..FromIterator$LT$proc_macro2..TokenTree$GT$$GT$9from_iter17h18b98b8066568638E', symObjAddr: 0x110, symBinAddr: 0x375F0, symSize: 0x80 }
  - { offsetInCU: 0xFE1, offset: 0x121FBD, size: 0x8, addend: 0x0, symName: '__ZN4core3ptr150drop_in_place$LT$core..iter..adapters..map..Map$LT$proc_macro2..token_stream..IntoIter$C$solana_sdk_macro..respan..$u7b$$u7b$closure$u7d$$u7d$$GT$$GT$17h0e80c720245e1d5dE.llvm.1570128303224998353', symObjAddr: 0x190, symBinAddr: 0x37670, symSize: 0x20 }
  - { offsetInCU: 0x11F9, offset: 0x1221D5, size: 0x8, addend: 0x0, symName: '__ZN4core3ptr45drop_in_place$LT$proc_macro2..TokenStream$GT$17he80d81ee0aefd4e0E.llvm.1570128303224998353', symObjAddr: 0x1B0, symBinAddr: 0x37690, symSize: 0x140 }
  - { offsetInCU: 0x162A, offset: 0x122606, size: 0x8, addend: 0x0, symName: '__ZN4core3ptr55drop_in_place$LT$proc_macro2..fallback..TokenStream$GT$17he8bf3e04cbb974cfE.llvm.1570128303224998353', symObjAddr: 0x2F0, symBinAddr: 0x377D0, symSize: 0x40 }
  - { offsetInCU: 0x256E, offset: 0x12354A, size: 0x8, addend: 0x0, symName: '__ZN5alloc2rc15Rc$LT$T$C$A$GT$8make_mut17h8a84a539cf633696E.llvm.1570128303224998353', symObjAddr: 0x330, symBinAddr: 0x37810, symSize: 0x190 }
  - { offsetInCU: 0x1E, offset: 0x124692, size: 0x8, addend: 0x0, symName: __ZN3syn5error5Error11new_spanned17h3db8581706469096E, symObjAddr: 0x0, symBinAddr: 0x379A0, symSize: 0x90 }
  - { offsetInCU: 0x35, offset: 0x1246A9, size: 0x8, addend: 0x0, symName: _anon.2c4cd6f00f6a509aa438ce5078cc74ec.0.llvm.5107660982950486145, symObjAddr: 0x9A0, symBinAddr: 0x224780, symSize: 0x0 }
  - { offsetInCU: 0x176, offset: 0x1247EA, size: 0x8, addend: 0x0, symName: '__ZN58_$LT$alloc..string..String$u20$as$u20$core..fmt..Write$GT$10write_char17hd329c0cb943f081aE.llvm.5107660982950486145', symObjAddr: 0x6E0, symBinAddr: 0x37F90, symSize: 0x130 }
  - { offsetInCU: 0x51F, offset: 0x124B93, size: 0x8, addend: 0x0, symName: '__ZN58_$LT$alloc..string..String$u20$as$u20$core..fmt..Write$GT$9write_str17h1ff5aa96ca91c6d5E.llvm.5107660982950486145', symObjAddr: 0x810, symBinAddr: 0x380C0, symSize: 0x5B }
  - { offsetInCU: 0xBD5, offset: 0x125249, size: 0x8, addend: 0x0, symName: '__ZN4core3ptr37drop_in_place$LT$core..fmt..Error$GT$17heeb7032d91399dbdE.llvm.5107660982950486145', symObjAddr: 0x550, symBinAddr: 0x37E00, symSize: 0x10 }
  - { offsetInCU: 0xC01, offset: 0x125275, size: 0x8, addend: 0x0, symName: '__ZN4core3ptr42drop_in_place$LT$alloc..string..String$GT$17h43a16d9cd1f52776E.llvm.5107660982950486145', symObjAddr: 0x560, symBinAddr: 0x37E10, symSize: 0x20 }
  - { offsetInCU: 0xE40, offset: 0x1254B4, size: 0x8, addend: 0x0, symName: '__ZN4core3ptr45drop_in_place$LT$proc_macro2..TokenStream$GT$17he80d81ee0aefd4e0E.llvm.5107660982950486145', symObjAddr: 0x580, symBinAddr: 0x37E30, symSize: 0x140 }
  - { offsetInCU: 0x1399, offset: 0x125A0D, size: 0x8, addend: 0x0, symName: '__ZN53_$LT$core..fmt..Error$u20$as$u20$core..fmt..Debug$GT$3fmt17h43ae5cec9623af13E.llvm.5107660982950486145', symObjAddr: 0x6C0, symBinAddr: 0x37F70, symSize: 0x20 }
  - { offsetInCU: 0x1685, offset: 0x125CF9, size: 0x8, addend: 0x0, symName: _anon.2c4cd6f00f6a509aa438ce5078cc74ec.4.llvm.5107660982950486145, symObjAddr: 0x9E8, symBinAddr: 0x2247C8, symSize: 0x0 }
  - { offsetInCU: 0x1C9B, offset: 0x12630F, size: 0x8, addend: 0x0, symName: __ZN3syn5error5Error11new_spanned17h3db8581706469096E, symObjAddr: 0x0, symBinAddr: 0x379A0, symSize: 0x90 }
  - { offsetInCU: 0x200D, offset: 0x126681, size: 0x8, addend: 0x0, symName: __ZN3syn5error5Error11new_spanned17h65b62f5aa8c6d854E, symObjAddr: 0x90, symBinAddr: 0x37A30, symSize: 0x190 }
  - { offsetInCU: 0x2288, offset: 0x1268FC, size: 0x8, addend: 0x0, symName: __ZN3syn5error5Error11new_spanned17ha60b6102da3069b8E, symObjAddr: 0x220, symBinAddr: 0x37BC0, symSize: 0x120 }
  - { offsetInCU: 0x24B8, offset: 0x126B2C, size: 0x8, addend: 0x0, symName: __ZN3syn5error5Error11new_spanned17he6313e16c05a412aE, symObjAddr: 0x340, symBinAddr: 0x37CE0, symSize: 0x120 }
  - { offsetInCU: 0x1E, offset: 0x127FED, size: 0x8, addend: 0x0, symName: '__ZN4core3ptr43drop_in_place$LT$proc_macro2..TokenTree$GT$17he5d199be5592457aE.llvm.2115513361400827602', symObjAddr: 0x0, symBinAddr: 0x38120, symSize: 0xB0 }
  - { offsetInCU: 0xE42, offset: 0x128E11, size: 0x8, addend: 0x0, symName: '__ZN4core3ptr43drop_in_place$LT$proc_macro2..TokenTree$GT$17he5d199be5592457aE.llvm.2115513361400827602', symObjAddr: 0x0, symBinAddr: 0x38120, symSize: 0xB0 }
  - { offsetInCU: 0x18CC, offset: 0x12989B, size: 0x8, addend: 0x0, symName: '__ZN86_$LT$alloc..vec..into_iter..IntoIter$LT$T$C$A$GT$$u20$as$u20$core..ops..drop..Drop$GT$4drop17h71bc1460a23d81f1E', symObjAddr: 0xB0, symBinAddr: 0x381D0, symSize: 0xD0 }
  - { offsetInCU: 0x1B9C, offset: 0x129B6B, size: 0x8, addend: 0x0, symName: '__ZN86_$LT$alloc..vec..into_iter..IntoIter$LT$T$C$A$GT$$u20$as$u20$core..ops..drop..Drop$GT$4drop17hf4fad26dd2018626E', symObjAddr: 0x180, symBinAddr: 0x382A0, symSize: 0xE5 }
  - { offsetInCU: 0x1E, offset: 0x12A8AE, size: 0x8, addend: 0x0, symName: '__ZN102_$LT$core..iter..adapters..map..Map$LT$I$C$F$GT$$u20$as$u20$core..iter..traits..iterator..Iterator$GT$4fold17h2662a22e584e2f5dE', symObjAddr: 0x0, symBinAddr: 0x38390, symSize: 0x1C0 }
  - { offsetInCU: 0x11D7, offset: 0x12BA67, size: 0x8, addend: 0x0, symName: '__ZN4core3ptr43drop_in_place$LT$proc_macro2..TokenTree$GT$17he5d199be5592457aE.llvm.3753236668165503193', symObjAddr: 0x390, symBinAddr: 0x38720, symSize: 0xA1 }
  - { offsetInCU: 0x1861, offset: 0x12C0F1, size: 0x8, addend: 0x0, symName: '__ZN102_$LT$core..iter..adapters..map..Map$LT$I$C$F$GT$$u20$as$u20$core..iter..traits..iterator..Iterator$GT$4fold17h2662a22e584e2f5dE', symObjAddr: 0x0, symBinAddr: 0x38390, symSize: 0x1C0 }
  - { offsetInCU: 0x1CEE, offset: 0x12C57E, size: 0x8, addend: 0x0, symName: '__ZN102_$LT$core..iter..adapters..map..Map$LT$I$C$F$GT$$u20$as$u20$core..iter..traits..iterator..Iterator$GT$4fold17hd7f87844182e264dE', symObjAddr: 0x1C0, symBinAddr: 0x38550, symSize: 0x1D0 }
  - { offsetInCU: 0x1E, offset: 0x12D605, size: 0x8, addend: 0x0, symName: __ZN4core3fmt5Write9write_fmt17h063fe04baf6f4539E, symObjAddr: 0x0, symBinAddr: 0x387D0, symSize: 0x20 }
  - { offsetInCU: 0x89, offset: 0x12D670, size: 0x8, addend: 0x0, symName: '__ZN58_$LT$alloc..string..String$u20$as$u20$core..fmt..Write$GT$10write_char17hd329c0cb943f081aE', symObjAddr: 0x40, symBinAddr: 0x38810, symSize: 0x130 }
  - { offsetInCU: 0x430, offset: 0x12DA17, size: 0x8, addend: 0x0, symName: '__ZN58_$LT$alloc..string..String$u20$as$u20$core..fmt..Write$GT$9write_str17h1ff5aa96ca91c6d5E', symObjAddr: 0x170, symBinAddr: 0x38940, symSize: 0x5B }
  - { offsetInCU: 0x956, offset: 0x12DF3D, size: 0x8, addend: 0x0, symName: '__ZN4core3ptr42drop_in_place$LT$alloc..string..String$GT$17h43a16d9cd1f52776E', symObjAddr: 0x20, symBinAddr: 0x387F0, symSize: 0x20 }
  - { offsetInCU: 0xC0C, offset: 0x12E1F3, size: 0x8, addend: 0x0, symName: __ZN4core3fmt5Write9write_fmt17h063fe04baf6f4539E, symObjAddr: 0x0, symBinAddr: 0x387D0, symSize: 0x20 }
  - { offsetInCU: 0x1E, offset: 0x12EC9E, size: 0x8, addend: 0x0, symName: __ZN10proc_macro6bridge14selfless_reify31reify_to_extern_c_fn_hrt_bridge7wrapper17h04aa1483f908fefaE, symObjAddr: 0x0, symBinAddr: 0x389A0, symSize: 0x20 }
  - { offsetInCU: 0x3F8, offset: 0x12F078, size: 0x8, addend: 0x0, symName: __ZN10proc_macro6bridge14selfless_reify31reify_to_extern_c_fn_hrt_bridge7wrapper17h04aa1483f908fefaE, symObjAddr: 0x0, symBinAddr: 0x389A0, symSize: 0x20 }
  - { offsetInCU: 0x470, offset: 0x12F0F0, size: 0x8, addend: 0x0, symName: __ZN10proc_macro6bridge14selfless_reify31reify_to_extern_c_fn_hrt_bridge7wrapper17h0851e6cdfb062eb3E, symObjAddr: 0x20, symBinAddr: 0x389C0, symSize: 0x20 }
  - { offsetInCU: 0x4E8, offset: 0x12F168, size: 0x8, addend: 0x0, symName: __ZN10proc_macro6bridge14selfless_reify31reify_to_extern_c_fn_hrt_bridge7wrapper17h3077b0168e8445c2E, symObjAddr: 0x40, symBinAddr: 0x389E0, symSize: 0x20 }
  - { offsetInCU: 0x560, offset: 0x12F1E0, size: 0x8, addend: 0x0, symName: __ZN10proc_macro6bridge14selfless_reify31reify_to_extern_c_fn_hrt_bridge7wrapper17h43b35ee0d6a67346E, symObjAddr: 0x60, symBinAddr: 0x38A00, symSize: 0x20 }
  - { offsetInCU: 0x5D8, offset: 0x12F258, size: 0x8, addend: 0x0, symName: __ZN10proc_macro6bridge14selfless_reify31reify_to_extern_c_fn_hrt_bridge7wrapper17h5cc3fb1dad87d575E, symObjAddr: 0x80, symBinAddr: 0x38A20, symSize: 0x20 }
  - { offsetInCU: 0x650, offset: 0x12F2D0, size: 0x8, addend: 0x0, symName: __ZN10proc_macro6bridge14selfless_reify31reify_to_extern_c_fn_hrt_bridge7wrapper17h86edecb223c385d1E, symObjAddr: 0xA0, symBinAddr: 0x38A40, symSize: 0x20 }
  - { offsetInCU: 0x6C8, offset: 0x12F348, size: 0x8, addend: 0x0, symName: __ZN10proc_macro6bridge14selfless_reify31reify_to_extern_c_fn_hrt_bridge7wrapper17h90dc7fdfd20a1b4fE, symObjAddr: 0xC0, symBinAddr: 0x38A60, symSize: 0x20 }
  - { offsetInCU: 0x740, offset: 0x12F3C0, size: 0x8, addend: 0x0, symName: __ZN10proc_macro6bridge14selfless_reify31reify_to_extern_c_fn_hrt_bridge7wrapper17h9f7c40146ab0dbf8E, symObjAddr: 0xE0, symBinAddr: 0x38A80, symSize: 0x20 }
  - { offsetInCU: 0x7B8, offset: 0x12F438, size: 0x8, addend: 0x0, symName: __ZN10proc_macro6bridge14selfless_reify31reify_to_extern_c_fn_hrt_bridge7wrapper17hbddf780a0813361eE, symObjAddr: 0x100, symBinAddr: 0x38AA0, symSize: 0x20 }
  - { offsetInCU: 0x830, offset: 0x12F4B0, size: 0x8, addend: 0x0, symName: __ZN10proc_macro6bridge14selfless_reify31reify_to_extern_c_fn_hrt_bridge7wrapper17hd6c5cfadf8f79d6dE, symObjAddr: 0x120, symBinAddr: 0x38AC0, symSize: 0x20 }
  - { offsetInCU: 0x1E, offset: 0x12F6F4, size: 0x8, addend: 0x0, symName: '__ZN115_$LT$proc_macro2..imp..TokenStream$u20$as$u20$core..iter..traits..collect..Extend$LT$proc_macro2..TokenTree$GT$$GT$6extend17h51973c3c25933eccE', symObjAddr: 0x0, symBinAddr: 0x38AE0, symSize: 0x110 }
  - { offsetInCU: 0x71F, offset: 0x12FDF5, size: 0x8, addend: 0x0, symName: '__ZN115_$LT$proc_macro2..imp..TokenStream$u20$as$u20$core..iter..traits..collect..Extend$LT$proc_macro2..TokenTree$GT$$GT$6extend17h51973c3c25933eccE', symObjAddr: 0x0, symBinAddr: 0x38AE0, symSize: 0x110 }
  - { offsetInCU: 0x14A1, offset: 0x130B77, size: 0x8, addend: 0x0, symName: '__ZN4core3ptr150drop_in_place$LT$core..iter..adapters..map..Map$LT$proc_macro2..token_stream..IntoIter$C$solana_sdk_macro..respan..$u7b$$u7b$closure$u7d$$u7d$$GT$$GT$17h0e80c720245e1d5dE.llvm.13783325774200074433', symObjAddr: 0x1C0, symBinAddr: 0x38BF0, symSize: 0x20 }
  - { offsetInCU: 0x1583, offset: 0x130C59, size: 0x8, addend: 0x0, symName: '__ZN4core3ptr56drop_in_place$LT$proc_macro2..token_stream..IntoIter$GT$17h4bf7ac19bc4b3e2fE.llvm.13783325774200074433', symObjAddr: 0x200, symBinAddr: 0x38C10, symSize: 0x20 }
  - { offsetInCU: 0x1E, offset: 0x131020, size: 0x8, addend: 0x0, symName: '__ZN4core3ptr43drop_in_place$LT$proc_macro2..TokenTree$GT$17he5d199be5592457aE.llvm.10386837145964941837', symObjAddr: 0x0, symBinAddr: 0x38C30, symSize: 0xB0 }
  - { offsetInCU: 0xEAD, offset: 0x131EAF, size: 0x8, addend: 0x0, symName: '__ZN4core3ptr43drop_in_place$LT$proc_macro2..TokenTree$GT$17he5d199be5592457aE.llvm.10386837145964941837', symObjAddr: 0x0, symBinAddr: 0x38C30, symSize: 0xB0 }
  - { offsetInCU: 0x125C, offset: 0x13225E, size: 0x8, addend: 0x0, symName: '__ZN4core3ptr45drop_in_place$LT$proc_macro2..TokenStream$GT$17he80d81ee0aefd4e0E.llvm.10386837145964941837', symObjAddr: 0xB0, symBinAddr: 0x38CE0, symSize: 0x140 }
  - { offsetInCU: 0x1F6F, offset: 0x132F71, size: 0x8, addend: 0x0, symName: '__ZN71_$LT$proc_macro2..TokenStream$u20$as$u20$quote..ext..TokenStreamExt$GT$10append_all17h4d2c2166ba65462aE', symObjAddr: 0x290, symBinAddr: 0x38E20, symSize: 0x66 }
  - { offsetInCU: 0x1E, offset: 0x13397E, size: 0x8, addend: 0x0, symName: '__ZN10proc_macro6bridge104_$LT$impl$u20$proc_macro..bridge..rpc..Encode$LT$S$GT$$u20$for$u20$core..result..Result$LT$T$C$E$GT$$GT$6encode17h0d2c1198eaeac2f9E', symObjAddr: 0x0, symBinAddr: 0x38E90, symSize: 0x450 }
  - { offsetInCU: 0x16E, offset: 0x133ACE, size: 0x8, addend: 0x0, symName: '__ZN10proc_macro6bridge104_$LT$impl$u20$proc_macro..bridge..rpc..Encode$LT$S$GT$$u20$for$u20$core..result..Result$LT$T$C$E$GT$$GT$6encode17h0d2c1198eaeac2f9E', symObjAddr: 0x0, symBinAddr: 0x38E90, symSize: 0x450 }
  - { offsetInCU: 0xA1F, offset: 0x13437F, size: 0x8, addend: 0x0, symName: '__ZN10proc_macro6bridge104_$LT$impl$u20$proc_macro..bridge..rpc..Encode$LT$S$GT$$u20$for$u20$core..result..Result$LT$T$C$E$GT$$GT$6encode17h5e89069ead027053E', symObjAddr: 0x450, symBinAddr: 0x392E0, symSize: 0x3AD }
  - { offsetInCU: 0x1E, offset: 0x135321, size: 0x8, addend: 0x0, symName: '__ZN10proc_macro6bridge100_$LT$impl$u20$proc_macro..bridge..rpc..Encode$LT$S$GT$$u20$for$u20$core..option..Option$LT$T$GT$$GT$6encode17h47056018ce3444c3E', symObjAddr: 0x0, symBinAddr: 0x39690, symSize: 0x4F0 }
  - { offsetInCU: 0x437, offset: 0x13573A, size: 0x8, addend: 0x0, symName: '__ZN10proc_macro6bridge100_$LT$impl$u20$proc_macro..bridge..rpc..Encode$LT$S$GT$$u20$for$u20$core..option..Option$LT$T$GT$$GT$6encode17h47056018ce3444c3E', symObjAddr: 0x0, symBinAddr: 0x39690, symSize: 0x4F0 }
  - { offsetInCU: 0xD00, offset: 0x136003, size: 0x8, addend: 0x0, symName: '__ZN10proc_macro6bridge100_$LT$impl$u20$proc_macro..bridge..rpc..Encode$LT$S$GT$$u20$for$u20$core..option..Option$LT$T$GT$$GT$6encode17hda3801f7eb0db7a1E', symObjAddr: 0x4F0, symBinAddr: 0x39B80, symSize: 0x370 }
  - { offsetInCU: 0x1E, offset: 0x136B65, size: 0x8, addend: 0x0, symName: '__ZN4bs586decode22DecodeBuilder$LT$I$GT$8into_vec17h1be5722c8da996eaE', symObjAddr: 0x0, symBinAddr: 0x39EF0, symSize: 0x140 }
  - { offsetInCU: 0x5F8, offset: 0x13713F, size: 0x8, addend: 0x0, symName: '__ZN4bs586decode22DecodeBuilder$LT$I$GT$8into_vec17h1be5722c8da996eaE', symObjAddr: 0x0, symBinAddr: 0x39EF0, symSize: 0x140 }
  - { offsetInCU: 0x1E, offset: 0x137CC9, size: 0x8, addend: 0x0, symName: '__ZN114_$LT$proc_macro..TokenStream$u20$as$u20$core..iter..traits..collect..FromIterator$LT$proc_macro..TokenTree$GT$$GT$9from_iter17h95f918890e0b76b8E', symObjAddr: 0x0, symBinAddr: 0x3A030, symSize: 0xE0 }
  - { offsetInCU: 0x527, offset: 0x1381D2, size: 0x8, addend: 0x0, symName: '__ZN114_$LT$proc_macro..TokenStream$u20$as$u20$core..iter..traits..collect..FromIterator$LT$proc_macro..TokenTree$GT$$GT$9from_iter17h95f918890e0b76b8E', symObjAddr: 0x0, symBinAddr: 0x3A030, symSize: 0xE0 }
  - { offsetInCU: 0xF84, offset: 0x138C2F, size: 0x8, addend: 0x0, symName: '__ZN4core3ptr228drop_in_place$LT$core..iter..adapters..map..Map$LT$core..iter..adapters..map..Map$LT$proc_macro2..token_stream..IntoIter$C$solana_sdk_macro..respan..$u7b$$u7b$closure$u7d$$u7d$$GT$$C$proc_macro2..imp..into_compiler_token$GT$$GT$17h0a1a93cba7cb18edE.llvm.5002911106492290787', symObjAddr: 0xE0, symBinAddr: 0x3A110, symSize: 0x20 }
  - { offsetInCU: 0x10C3, offset: 0x138D6E, size: 0x8, addend: 0x0, symName: '__ZN4core3ptr50drop_in_place$LT$proc_macro..ConcatTreesHelper$GT$17ha3106924b29779b4E.llvm.5002911106492290787', symObjAddr: 0x100, symBinAddr: 0x3A130, symSize: 0x117 }
  - { offsetInCU: 0x1E, offset: 0x1399D7, size: 0x8, addend: 0x0, symName: __ZN5quote9to_tokens8ToTokens17into_token_stream17he80ce3cbd2f2652fE, symObjAddr: 0x0, symBinAddr: 0x3A250, symSize: 0x10A }
  - { offsetInCU: 0x876, offset: 0x13A22F, size: 0x8, addend: 0x0, symName: __ZN5quote9to_tokens8ToTokens17into_token_stream17he80ce3cbd2f2652fE, symObjAddr: 0x0, symBinAddr: 0x3A250, symSize: 0x10A }
  - { offsetInCU: 0x1E, offset: 0x13AFC4, size: 0x8, addend: 0x0, symName: '__ZN77_$LT$$LP$A$C$B$RP$$u20$as$u20$proc_macro..bridge..rpc..DecodeMut$LT$S$GT$$GT$6decode17h1285bdfc4994b616E', symObjAddr: 0x0, symBinAddr: 0x3A360, symSize: 0xE0 }
  - { offsetInCU: 0xB0, offset: 0x13B056, size: 0x8, addend: 0x0, symName: '__ZN77_$LT$$LP$A$C$B$RP$$u20$as$u20$proc_macro..bridge..rpc..DecodeMut$LT$S$GT$$GT$6decode17h1285bdfc4994b616E', symObjAddr: 0x0, symBinAddr: 0x3A360, symSize: 0xE0 }
  - { offsetInCU: 0xBD4, offset: 0x13BB7A, size: 0x8, addend: 0x0, symName: '__ZN77_$LT$$LP$A$C$B$RP$$u20$as$u20$proc_macro..bridge..rpc..DecodeMut$LT$S$GT$$GT$6decode17hc6fd6504b180ddc0E', symObjAddr: 0xE0, symBinAddr: 0x3A440, symSize: 0xDA }
  - { offsetInCU: 0x1E, offset: 0x13CB47, size: 0x8, addend: 0x0, symName: __ZN4bs586decode11decode_into17h52b56791f1b12cbeE, symObjAddr: 0x0, symBinAddr: 0x3A570, symSize: 0x360 }
  - { offsetInCU: 0xD95, offset: 0x13D8BE, size: 0x8, addend: 0x0, symName: __ZN4bs586decode11decode_into17h52b56791f1b12cbeE, symObjAddr: 0x0, symBinAddr: 0x3A570, symSize: 0x360 }
  - { offsetInCU: 0x47F8, offset: 0x14277C, size: 0x8, addend: 0x0, symName: '__ZN3syn4item7parsing63_$LT$impl$u20$syn..parse..Parse$u20$for$u20$syn..item..Item$GT$5parse17h2dd33e0a14c1cf15E', symObjAddr: 0xCE00, symBinAddr: 0x463F0, symSize: 0x1D0 }
  - { offsetInCU: 0x4DE7, offset: 0x142D6B, size: 0x8, addend: 0x0, symName: '__ZN3syn4item7parsing68_$LT$impl$u20$syn..parse..Parse$u20$for$u20$syn..item..ItemMacro$GT$5parse17hd2dbdd16085cb5b3E', symObjAddr: 0xCFD0, symBinAddr: 0x465C0, symSize: 0x690 }
  - { offsetInCU: 0x5A34, offset: 0x1439B8, size: 0x8, addend: 0x0, symName: '__ZN3syn4item7parsing74_$LT$impl$u20$syn..parse..Parse$u20$for$u20$syn..item..ItemExternCrate$GT$5parse17h6d92f7f00cd41009E', symObjAddr: 0xD660, symBinAddr: 0x46C50, symSize: 0x850 }
  - { offsetInCU: 0x6C2B, offset: 0x144BAF, size: 0x8, addend: 0x0, symName: '__ZN3syn4item7parsing75_$LT$impl$u20$syn..parse..Parse$u20$for$u20$syn..item..StaticMutability$GT$5parse17haf0db4a36b052efeE', symObjAddr: 0x1E720, symBinAddr: 0x51800, symSize: 0x90 }
  - { offsetInCU: 0x6DDE, offset: 0x144D62, size: 0x8, addend: 0x0, symName: '__ZN3syn4item7parsing68_$LT$impl$u20$syn..parse..Parse$u20$for$u20$syn..item..Signature$GT$5parse17h046b786ec6aea09bE', symObjAddr: 0xF5D0, symBinAddr: 0x474A0, symSize: 0xA00 }
  - { offsetInCU: 0x7A09, offset: 0x14598D, size: 0x8, addend: 0x0, symName: '__ZN3syn4item7parsing67_$LT$impl$u20$syn..parse..Parse$u20$for$u20$syn..item..Receiver$GT$5parse17h14ef46bb1836effbE', symObjAddr: 0x10510, symBinAddr: 0x47EA0, symSize: 0xA40 }
  - { offsetInCU: 0x8C26, offset: 0x146BAA, size: 0x8, addend: 0x0, symName: '__ZN3syn4item7parsing66_$LT$impl$u20$syn..parse..Parse$u20$for$u20$syn..item..ItemMod$GT$5parse17hdc999b9cf7b8d7bdE', symObjAddr: 0x10F50, symBinAddr: 0x488E0, symSize: 0xC30 }
  - { offsetInCU: 0xA7E7, offset: 0x14876B, size: 0x8, addend: 0x0, symName: '__ZN3syn4item7parsing73_$LT$impl$u20$syn..parse..Parse$u20$for$u20$syn..item..ItemForeignMod$GT$5parse17h6272e3455d73c09eE', symObjAddr: 0x11B80, symBinAddr: 0x49510, symSize: 0x6E0 }
  - { offsetInCU: 0xB657, offset: 0x1495DB, size: 0x8, addend: 0x0, symName: '__ZN3syn4item7parsing70_$LT$impl$u20$syn..parse..Parse$u20$for$u20$syn..item..ForeignItem$GT$5parse17hc264003d8c78165cE', symObjAddr: 0x12260, symBinAddr: 0x49BF0, symSize: 0x1A40 }
  - { offsetInCU: 0xF9C8, offset: 0x14D94C, size: 0x8, addend: 0x0, symName: '__ZN3syn4item7parsing69_$LT$impl$u20$syn..parse..Parse$u20$for$u20$syn..item..ItemStruct$GT$5parse17h9ee5a6f8e0cb788fE', symObjAddr: 0x15D30, symBinAddr: 0x4B630, symSize: 0x730 }
  - { offsetInCU: 0x10443, offset: 0x14E3C7, size: 0x8, addend: 0x0, symName: '__ZN3syn4item7parsing67_$LT$impl$u20$syn..parse..Parse$u20$for$u20$syn..item..ItemEnum$GT$5parse17h3908fae5439ca017E', symObjAddr: 0x16460, symBinAddr: 0x4BD60, symSize: 0x6A0 }
  - { offsetInCU: 0x10EBC, offset: 0x14EE40, size: 0x8, addend: 0x0, symName: '__ZN3syn4item7parsing68_$LT$impl$u20$syn..parse..Parse$u20$for$u20$syn..item..ItemUnion$GT$5parse17hcf21badb7f5d91b4E', symObjAddr: 0x16B00, symBinAddr: 0x4C400, symSize: 0x670 }
  - { offsetInCU: 0x1191B, offset: 0x14F89F, size: 0x8, addend: 0x0, symName: '__ZN3syn4item7parsing68_$LT$impl$u20$syn..parse..Parse$u20$for$u20$syn..item..ItemTrait$GT$5parse17he79f83c126b307abE', symObjAddr: 0x17170, symBinAddr: 0x4CA70, symSize: 0x690 }
  - { offsetInCU: 0x12595, offset: 0x150519, size: 0x8, addend: 0x0, symName: '__ZN3syn4item7parsing68_$LT$impl$u20$syn..parse..Parse$u20$for$u20$syn..item..TraitItem$GT$5parse17ha2b7a47a4118920dE', symObjAddr: 0x17940, symBinAddr: 0x4D100, symSize: 0x1D60 }
  - { offsetInCU: 0x180FF, offset: 0x156083, size: 0x8, addend: 0x0, symName: '__ZN3syn4item7parsing70_$LT$impl$u20$syn..parse..Parse$u20$for$u20$syn..item..TraitItemFn$GT$5parse17h2bd112e785c11adaE', symObjAddr: 0x1A020, symBinAddr: 0x4EE60, symSize: 0x9A0 }
  - { offsetInCU: 0x19822, offset: 0x1577A6, size: 0x8, addend: 0x0, symName: '__ZN3syn4item7parsing67_$LT$impl$u20$syn..parse..Parse$u20$for$u20$syn..item..ImplItem$GT$5parse17h7e88a76fe14f8010E', symObjAddr: 0x1B2D0, symBinAddr: 0x4F800, symSize: 0x1CD0 }
  - { offsetInCU: 0x1E998, offset: 0x15C91C, size: 0x8, addend: 0x0, symName: '__ZN3syn4item7parsing72_$LT$impl$u20$syn..parse..Parse$u20$for$u20$syn..item..ImplItemMacro$GT$5parse17h0ef0a527c904192aE', symObjAddr: 0x1E3F0, symBinAddr: 0x514D0, symSize: 0x0 }
  - { offsetInCU: 0x1EFFF, offset: 0x15CF83, size: 0x8, addend: 0x0, symName: '__ZN3syn4item8printing83_$LT$impl$u20$quote..to_tokens..ToTokens$u20$for$u20$syn..item..ItemExternCrate$GT$9to_tokens17h3856a361ae758360E', symObjAddr: 0x1E7B0, symBinAddr: 0x51890, symSize: 0x250 }
  - { offsetInCU: 0x1F5E3, offset: 0x15D567, size: 0x8, addend: 0x0, symName: '__ZN3syn4item8printing78_$LT$impl$u20$quote..to_tokens..ToTokens$u20$for$u20$syn..item..ItemStatic$GT$9to_tokens17h415e4cd72a569389E', symObjAddr: 0x1EBA0, symBinAddr: 0x51AE0, symSize: 0x230 }
  - { offsetInCU: 0x1FB4A, offset: 0x15DACE, size: 0x8, addend: 0x0, symName: '__ZN3syn4item8printing74_$LT$impl$u20$quote..to_tokens..ToTokens$u20$for$u20$syn..item..ItemFn$GT$9to_tokens17h8cdf913637011784E', symObjAddr: 0x1EFA0, symBinAddr: 0x51D10, symSize: 0x3A0 }
  - { offsetInCU: 0x204E9, offset: 0x15E46D, size: 0x8, addend: 0x0, symName: '__ZN3syn4item8printing75_$LT$impl$u20$quote..to_tokens..ToTokens$u20$for$u20$syn..item..ItemMod$GT$9to_tokens17h22b2effb376191d4E', symObjAddr: 0x1F340, symBinAddr: 0x520B0, symSize: 0x240 }
  - { offsetInCU: 0x20A60, offset: 0x15E9E4, size: 0x8, addend: 0x0, symName: '__ZN3syn4item8printing78_$LT$impl$u20$quote..to_tokens..ToTokens$u20$for$u20$syn..item..ItemStruct$GT$9to_tokens17h37d4984ce3001d19E', symObjAddr: 0x1FA90, symBinAddr: 0x522F0, symSize: 0x230 }
  - { offsetInCU: 0x20E84, offset: 0x15EE08, size: 0x8, addend: 0x0, symName: '__ZN3syn4item8printing77_$LT$impl$u20$quote..to_tokens..ToTokens$u20$for$u20$syn..item..ItemTrait$GT$9to_tokens17h5df32068ce60d15cE', symObjAddr: 0x1FE50, symBinAddr: 0x52520, symSize: 0x350 }
  - { offsetInCU: 0x21811, offset: 0x15F795, size: 0x8, addend: 0x0, symName: '__ZN3syn4item8printing82_$LT$impl$u20$quote..to_tokens..ToTokens$u20$for$u20$syn..item..ItemTraitAlias$GT$9to_tokens17hc929f21bb6c5846dE', symObjAddr: 0x201A0, symBinAddr: 0x52870, symSize: 0x240 }
  - { offsetInCU: 0x21E56, offset: 0x15FDDA, size: 0x8, addend: 0x0, symName: '__ZN3syn4item8printing76_$LT$impl$u20$quote..to_tokens..ToTokens$u20$for$u20$syn..item..ItemImpl$GT$9to_tokens17hbc6239c00e6682fbE', symObjAddr: 0x203E0, symBinAddr: 0x52AB0, symSize: 0x300 }
  - { offsetInCU: 0x225E1, offset: 0x160565, size: 0x8, addend: 0x0, symName: '__ZN3syn4item8printing77_$LT$impl$u20$quote..to_tokens..ToTokens$u20$for$u20$syn..item..ItemMacro$GT$9to_tokens17hebd52fd8a1615986E', symObjAddr: 0x206E0, symBinAddr: 0x52DB0, symSize: 0x180 }
  - { offsetInCU: 0x2298D, offset: 0x160911, size: 0x8, addend: 0x0, symName: '__ZN3syn4item8printing82_$LT$impl$u20$quote..to_tokens..ToTokens$u20$for$u20$syn..item..TraitItemConst$GT$9to_tokens17h089a36b809968ef3E', symObjAddr: 0x209B0, symBinAddr: 0x52F30, symSize: 0x1D0 }
  - { offsetInCU: 0x22D19, offset: 0x160C9D, size: 0x8, addend: 0x0, symName: '__ZN3syn4item8printing79_$LT$impl$u20$quote..to_tokens..ToTokens$u20$for$u20$syn..item..TraitItemFn$GT$9to_tokens17haad3b80ba26c3976E', symObjAddr: 0x20B80, symBinAddr: 0x53100, symSize: 0x420 }
  - { offsetInCU: 0x23757, offset: 0x1616DB, size: 0x8, addend: 0x0, symName: '__ZN3syn4item8printing81_$LT$impl$u20$quote..to_tokens..ToTokens$u20$for$u20$syn..item..TraitItemType$GT$9to_tokens17h64c3182d37c64beaE', symObjAddr: 0x20FA0, symBinAddr: 0x53520, symSize: 0x2B0 }
  - { offsetInCU: 0x23E9F, offset: 0x161E23, size: 0x8, addend: 0x0, symName: '__ZN3syn4item8printing81_$LT$impl$u20$quote..to_tokens..ToTokens$u20$for$u20$syn..item..ImplItemConst$GT$9to_tokens17hf0f4212b62d7bc92E', symObjAddr: 0x21250, symBinAddr: 0x537D0, symSize: 0x250 }
  - { offsetInCU: 0x2434F, offset: 0x1622D3, size: 0x8, addend: 0x0, symName: '__ZN3syn4item8printing78_$LT$impl$u20$quote..to_tokens..ToTokens$u20$for$u20$syn..item..ImplItemFn$GT$9to_tokens17hd72deb71e24247ddE', symObjAddr: 0x214A0, symBinAddr: 0x53A20, symSize: 0x410 }
  - { offsetInCU: 0x24E43, offset: 0x162DC7, size: 0x8, addend: 0x0, symName: '__ZN3syn4item8printing80_$LT$impl$u20$quote..to_tokens..ToTokens$u20$for$u20$syn..item..ImplItemType$GT$9to_tokens17h633e35cead6fe332E', symObjAddr: 0x218B0, symBinAddr: 0x53E30, symSize: 0x240 }
  - { offsetInCU: 0x25329, offset: 0x1632AD, size: 0x8, addend: 0x0, symName: '__ZN3syn4item8printing81_$LT$impl$u20$quote..to_tokens..ToTokens$u20$for$u20$syn..item..ForeignItemFn$GT$9to_tokens17hf978c504af4624b9E', symObjAddr: 0x21C00, symBinAddr: 0x54070, symSize: 0x3C0 }
  - { offsetInCU: 0x25CF0, offset: 0x163C74, size: 0x8, addend: 0x0, symName: '__ZN3syn4item8printing85_$LT$impl$u20$quote..to_tokens..ToTokens$u20$for$u20$syn..item..ForeignItemStatic$GT$9to_tokens17h6dca73543b11328bE', symObjAddr: 0x21FC0, symBinAddr: 0x54430, symSize: 0x210 }
  - { offsetInCU: 0x261D8, offset: 0x16415C, size: 0x8, addend: 0x0, symName: '__ZN3syn4item8printing76_$LT$impl$u20$quote..to_tokens..ToTokens$u20$for$u20$syn..item..Receiver$GT$9to_tokens17hb998d2cc4ddf9c5aE', symObjAddr: 0x22650, symBinAddr: 0x54640, symSize: 0x2F0 }
  - { offsetInCU: 0x2699B, offset: 0x16491F, size: 0x8, addend: 0x0, symName: '__ZN3syn4item8printing76_$LT$impl$u20$quote..to_tokens..ToTokens$u20$for$u20$syn..item..Variadic$GT$9to_tokens17h395edb0d0a0434c1E', symObjAddr: 0x22940, symBinAddr: 0x54930, symSize: 0x150 }
  - { offsetInCU: 0x26CD2, offset: 0x164C56, size: 0x8, addend: 0x0, symName: '__ZN62_$LT$syn..item..Item$u20$as$u20$quote..to_tokens..ToTokens$GT$9to_tokens17h16b724a3317228f3E', symObjAddr: 0x22B20, symBinAddr: 0x54A80, symSize: 0xB70 }
  - { offsetInCU: 0x2834B, offset: 0x1662CF, size: 0x8, addend: 0x0, symName: '__ZN65_$LT$syn..item..UseTree$u20$as$u20$quote..to_tokens..ToTokens$GT$9to_tokens17h058bd86238a4a925E', symObjAddr: 0x23690, symBinAddr: 0x555F0, symSize: 0x300 }
  - { offsetInCU: 0x28C0A, offset: 0x166B8E, size: 0x8, addend: 0x0, symName: '__ZN69_$LT$syn..item..ForeignItem$u20$as$u20$quote..to_tokens..ToTokens$GT$9to_tokens17ha60ee0587a491822E', symObjAddr: 0x23990, symBinAddr: 0x558F0, symSize: 0x320 }
  - { offsetInCU: 0x291B3, offset: 0x167137, size: 0x8, addend: 0x0, symName: '__ZN67_$LT$syn..item..TraitItem$u20$as$u20$quote..to_tokens..ToTokens$GT$9to_tokens17hd73ca22881a357f6E', symObjAddr: 0x23CB0, symBinAddr: 0x55C10, symSize: 0x1B0 }
  - { offsetInCU: 0x2948D, offset: 0x167411, size: 0x8, addend: 0x0, symName: '__ZN66_$LT$syn..item..ImplItem$u20$as$u20$quote..to_tokens..ToTokens$GT$9to_tokens17h8caf1b608d7ccb4bE', symObjAddr: 0x23E60, symBinAddr: 0x55DC0, symSize: 0x1B0 }
  - { offsetInCU: 0x2B8C3, offset: 0x169847, size: 0x8, addend: 0x0, symName: '__ZN4core3ptr100drop_in_place$LT$core..option..Option$LT$alloc..boxed..Box$LT$syn..path..GenericArgument$GT$$GT$$GT$17h7435c9de74860622E', symObjAddr: 0x300, symBinAddr: 0x3A8D0, symSize: 0x50 }
  - { offsetInCU: 0x2BC63, offset: 0x169BE7, size: 0x8, addend: 0x0, symName: '__ZN4core3ptr100drop_in_place$LT$syn..punctuated..Punctuated$LT$syn..path..PathSegment$C$syn..token..PathSep$GT$$GT$17hf414cb3581f8337aE', symObjAddr: 0x350, symBinAddr: 0x3A920, symSize: 0x260 }
  - { offsetInCU: 0x2C5FC, offset: 0x16A580, size: 0x8, addend: 0x0, symName: '__ZN4core3ptr103drop_in_place$LT$core..option..Option$LT$alloc..boxed..Box$LT$syn..generics..TypeParamBound$GT$$GT$$GT$17h5974f03e36b1a9c3E', symObjAddr: 0x5C0, symBinAddr: 0x3AB80, symSize: 0x50 }
  - { offsetInCU: 0x2C847, offset: 0x16A7CB, size: 0x8, addend: 0x0, symName: '__ZN4core3ptr103drop_in_place$LT$core..option..Option$LT$alloc..boxed..Box$LT$syn..generics..WherePredicate$GT$$GT$$GT$17hdd5111a374d8d6f2E', symObjAddr: 0x610, symBinAddr: 0x3ABD0, symSize: 0xD0 }
  - { offsetInCU: 0x2CBDA, offset: 0x16AB5E, size: 0x8, addend: 0x0, symName: '__ZN4core3ptr103drop_in_place$LT$syn..punctuated..Punctuated$LT$syn..generics..GenericParam$C$syn..token..Comma$GT$$GT$17hf42353fa44ed6da8E', symObjAddr: 0x6E0, symBinAddr: 0x3ACA0, symSize: 0xF0 }
  - { offsetInCU: 0x2D040, offset: 0x16AFC4, size: 0x8, addend: 0x0, symName: '__ZN4core3ptr104drop_in_place$LT$syn..punctuated..Punctuated$LT$syn..generics..TypeParamBound$C$syn..token..Plus$GT$$GT$17h532f52c4a894b056E', symObjAddr: 0x7D0, symBinAddr: 0x3AD90, symSize: 0x190 }
  - { offsetInCU: 0x2D656, offset: 0x16B5DA, size: 0x8, addend: 0x0, symName: '__ZN4core3ptr107drop_in_place$LT$$LP$syn..restriction..Visibility$C$core..option..Option$LT$syn..token..Default$GT$$RP$$GT$17h8ea01d3f0e99b7f1E', symObjAddr: 0x960, symBinAddr: 0x3AF20, symSize: 0x60 }
  - { offsetInCU: 0x2D825, offset: 0x16B7A9, size: 0x8, addend: 0x0, symName: '__ZN4core3ptr115drop_in_place$LT$core..option..Option$LT$$LP$alloc..boxed..Box$LT$syn..pat..Pat$GT$$C$syn..token..Colon$RP$$GT$$GT$17he854acc3c4717d92E', symObjAddr: 0x9C0, symBinAddr: 0x3AF80, symSize: 0x50 }
  - { offsetInCU: 0x2D9F9, offset: 0x16B97D, size: 0x8, addend: 0x0, symName: '__ZN4core3ptr115drop_in_place$LT$core..option..Option$LT$$LP$syn..token..Brace$C$alloc..vec..Vec$LT$syn..item..Item$GT$$RP$$GT$$GT$17h6df5bf3d47177236E', symObjAddr: 0xA10, symBinAddr: 0x3AFD0, symSize: 0xE0 }
  - { offsetInCU: 0x2DCA0, offset: 0x16BC24, size: 0x8, addend: 0x0, symName: '__ZN4core3ptr126drop_in_place$LT$core..option..Option$LT$$LP$syn..token..And$C$core..option..Option$LT$syn..lifetime..Lifetime$GT$$RP$$GT$$GT$17hc269ac95805979aaE', symObjAddr: 0xAF0, symBinAddr: 0x3B0B0, symSize: 0x30 }
  - { offsetInCU: 0x2DF4F, offset: 0x16BED3, size: 0x8, addend: 0x0, symName: '__ZN4core3ptr34drop_in_place$LT$syn..lit..Lit$GT$17h8902f5ff67917034E', symObjAddr: 0xBA0, symBinAddr: 0x3B0E0, symSize: 0x110 }
  - { offsetInCU: 0x2E489, offset: 0x16C40D, size: 0x8, addend: 0x0, symName: '__ZN4core3ptr34drop_in_place$LT$syn..pat..Pat$GT$17h4581eea028ec0969E', symObjAddr: 0xCB0, symBinAddr: 0x3B1F0, symSize: 0x1000 }
  - { offsetInCU: 0x31F13, offset: 0x16FE97, size: 0x8, addend: 0x0, symName: '__ZN4core3ptr34drop_in_place$LT$syn..ty..Type$GT$17h369e41ad4a9f1ae0E', symObjAddr: 0x1CB0, symBinAddr: 0x3C1F0, symSize: 0x500 }
  - { offsetInCU: 0x3348E, offset: 0x171412, size: 0x8, addend: 0x0, symName: '__ZN4core3ptr36drop_in_place$LT$syn..expr..Expr$GT$17h0f7fd4c749bae801E', symObjAddr: 0x21B0, symBinAddr: 0x3C6F0, symSize: 0x28E0 }
  - { offsetInCU: 0x3CD5D, offset: 0x17ACE1, size: 0x8, addend: 0x0, symName: '__ZN4core3ptr36drop_in_place$LT$syn..item..Item$GT$17h13f5a53479ba6379E', symObjAddr: 0x4A90, symBinAddr: 0x3EFD0, symSize: 0x1990 }
  - { offsetInCU: 0x42A08, offset: 0x18098C, size: 0x8, addend: 0x0, symName: '__ZN4core3ptr36drop_in_place$LT$syn..mac..Macro$GT$17h4ffde962df30ebe2E', symObjAddr: 0x6420, symBinAddr: 0x40960, symSize: 0x40 }
  - { offsetInCU: 0x42A42, offset: 0x1809C6, size: 0x8, addend: 0x0, symName: '__ZN4core3ptr36drop_in_place$LT$syn..path..Path$GT$17habea856181211e1cE', symObjAddr: 0x6460, symBinAddr: 0x409A0, symSize: 0x220 }
  - { offsetInCU: 0x43377, offset: 0x1812FB, size: 0x8, addend: 0x0, symName: '__ZN4core3ptr37drop_in_place$LT$syn..stmt..Block$GT$17hcc21a21cf949414cE', symObjAddr: 0x6680, symBinAddr: 0x40BC0, symSize: 0xD0 }
  - { offsetInCU: 0x4363A, offset: 0x1815BE, size: 0x8, addend: 0x0, symName: '__ZN4core3ptr38drop_in_place$LT$syn..data..Fields$GT$17h1dd1b203befc1316E', symObjAddr: 0x6750, symBinAddr: 0x40C90, symSize: 0x190 }
  - { offsetInCU: 0x43A58, offset: 0x1819DC, size: 0x8, addend: 0x0, symName: '__ZN4core3ptr38drop_in_place$LT$syn..expr..Member$GT$17h022cbe5553aa40faE', symObjAddr: 0x68E0, symBinAddr: 0x40E20, symSize: 0x30 }
  - { offsetInCU: 0x43B55, offset: 0x181AD9, size: 0x8, addend: 0x0, symName: '__ZN4core3ptr38drop_in_place$LT$syn..pat..PatType$GT$17hcbbce80a195201a4E.llvm.3361240308741372715', symObjAddr: 0x6910, symBinAddr: 0x40E50, symSize: 0x140 }
  - { offsetInCU: 0x4409D, offset: 0x182021, size: 0x8, addend: 0x0, symName: '__ZN4core3ptr39drop_in_place$LT$proc_macro2..Ident$GT$17h8101e88c3ac359d6E', symObjAddr: 0x6A50, symBinAddr: 0x40F90, symSize: 0x30 }
  - { offsetInCU: 0x441F7, offset: 0x18217B, size: 0x8, addend: 0x0, symName: '__ZN4core3ptr39drop_in_place$LT$syn..item..UseTree$GT$17h5b1281a5704d139dE', symObjAddr: 0x6B00, symBinAddr: 0x40FC0, symSize: 0xD0 }
  - { offsetInCU: 0x44609, offset: 0x18258D, size: 0x8, addend: 0x0, symName: '__ZN4core3ptr40drop_in_place$LT$syn..item..ImplItem$GT$17he2e6e8f15695ea55E', symObjAddr: 0x6BD0, symBinAddr: 0x41090, symSize: 0x5E0 }
  - { offsetInCU: 0x456D4, offset: 0x183658, size: 0x8, addend: 0x0, symName: '__ZN4core3ptr40drop_in_place$LT$syn..item..Receiver$GT$17h6743a41cd869c536E.llvm.3361240308741372715', symObjAddr: 0x71B0, symBinAddr: 0x41670, symSize: 0x130 }
  - { offsetInCU: 0x45C67, offset: 0x183BEB, size: 0x8, addend: 0x0, symName: '__ZN4core3ptr40drop_in_place$LT$syn..item..Variadic$GT$17h856c1da4a3922974E', symObjAddr: 0x72F0, symBinAddr: 0x417A0, symSize: 0x120 }
  - { offsetInCU: 0x46093, offset: 0x184017, size: 0x8, addend: 0x0, symName: '__ZN4core3ptr40drop_in_place$LT$syn..ty..ReturnType$GT$17h02cf41e2fec63d90E', symObjAddr: 0x7410, symBinAddr: 0x418C0, symSize: 0x50 }
  - { offsetInCU: 0x46205, offset: 0x184189, size: 0x8, addend: 0x0, symName: '__ZN4core3ptr41drop_in_place$LT$syn..expr..ExprConst$GT$17h725a13e551d9f276E', symObjAddr: 0x7460, symBinAddr: 0x41910, symSize: 0x180 }
  - { offsetInCU: 0x46779, offset: 0x1846FD, size: 0x8, addend: 0x0, symName: '__ZN4core3ptr41drop_in_place$LT$syn..item..Signature$GT$17h691f115807a5d1eeE', symObjAddr: 0x75E0, symBinAddr: 0x41A90, symSize: 0x160 }
  - { offsetInCU: 0x46E7F, offset: 0x184E03, size: 0x8, addend: 0x0, symName: '__ZN4core3ptr41drop_in_place$LT$syn..item..TraitItem$GT$17hb6f9fbcba8fdea85E', symObjAddr: 0x7740, symBinAddr: 0x41BF0, symSize: 0x6E0 }
  - { offsetInCU: 0x48166, offset: 0x1860EA, size: 0x8, addend: 0x0, symName: '__ZN4core3ptr42drop_in_place$LT$syn..item..ImplItemFn$GT$17h753bae801f2662d9E', symObjAddr: 0x7E70, symBinAddr: 0x422D0, symSize: 0x200 }
  - { offsetInCU: 0x48836, offset: 0x1867BA, size: 0x8, addend: 0x0, symName: '__ZN4core3ptr43drop_in_place$LT$syn..data..FieldsNamed$GT$17hb2a97e73a85352cbE', symObjAddr: 0x8070, symBinAddr: 0x424D0, symSize: 0xE0 }
  - { offsetInCU: 0x48BA1, offset: 0x186B25, size: 0x8, addend: 0x0, symName: '__ZN4core3ptr43drop_in_place$LT$syn..item..ForeignItem$GT$17h1398b9aa0a6e4c9dE', symObjAddr: 0x8150, symBinAddr: 0x425B0, symSize: 0x610 }
  - { offsetInCU: 0x4A093, offset: 0x188017, size: 0x8, addend: 0x0, symName: '__ZN4core3ptr44drop_in_place$LT$syn..generics..Generics$GT$17h10dea28dec64f81eE', symObjAddr: 0x8760, symBinAddr: 0x42BC0, symSize: 0x40 }
  - { offsetInCU: 0x4A0B0, offset: 0x188034, size: 0x8, addend: 0x0, symName: '__ZN4core3ptr44drop_in_place$LT$syn..lifetime..Lifetime$GT$17hf0cdec2e9ec456d6E', symObjAddr: 0x87A0, symBinAddr: 0x42C00, symSize: 0x30 }
  - { offsetInCU: 0x4A229, offset: 0x1881AD, size: 0x8, addend: 0x0, symName: '__ZN4core3ptr44drop_in_place$LT$syn..parse..ParseBuffer$GT$17hd0dadba44a19aec2E.llvm.3361240308741372715', symObjAddr: 0x87D0, symBinAddr: 0x42C30, symSize: 0x70 }
  - { offsetInCU: 0x4A65E, offset: 0x1885E2, size: 0x8, addend: 0x0, symName: '__ZN4core3ptr45drop_in_place$LT$proc_macro2..TokenStream$GT$17h3405f6c513e9f6cbE', symObjAddr: 0x8840, symBinAddr: 0x42CA0, symSize: 0x140 }
  - { offsetInCU: 0x4AACD, offset: 0x188A51, size: 0x8, addend: 0x0, symName: '__ZN4core3ptr45drop_in_place$LT$syn..generics..TypeParam$GT$17he5eda51070b7de47E', symObjAddr: 0x8980, symBinAddr: 0x42DE0, symSize: 0x230 }
  - { offsetInCU: 0x4B2C9, offset: 0x18924D, size: 0x8, addend: 0x0, symName: '__ZN4core3ptr46drop_in_place$LT$syn..generics..ConstParam$GT$17hab0a58c4af8c549cE', symObjAddr: 0x8BB0, symBinAddr: 0x43010, symSize: 0x150 }
  - { offsetInCU: 0x4B6F3, offset: 0x189677, size: 0x8, addend: 0x0, symName: '__ZN4core3ptr47drop_in_place$LT$syn..path..GenericArgument$GT$17h54f8794633f96823E', symObjAddr: 0x8D00, symBinAddr: 0x43160, symSize: 0x4A0 }
  - { offsetInCU: 0x4C79A, offset: 0x18A71E, size: 0x8, addend: 0x0, symName: '__ZN4core3ptr49drop_in_place$LT$syn..generics..LifetimeParam$GT$17h41a7c7a290ea6289E', symObjAddr: 0x91A0, symBinAddr: 0x43600, symSize: 0xF0 }
  - { offsetInCU: 0x4CB54, offset: 0x18AAD8, size: 0x8, addend: 0x0, symName: '__ZN4core3ptr49drop_in_place$LT$syn..restriction..Visibility$GT$17h2a932c493942ef80E', symObjAddr: 0x9290, symBinAddr: 0x436F0, symSize: 0x60 }
  - { offsetInCU: 0x4CCDB, offset: 0x18AC5F, size: 0x8, addend: 0x0, symName: '__ZN4core3ptr50drop_in_place$LT$syn..generics..TypeParamBound$GT$17hcd7771d4c6c221efE', symObjAddr: 0x92F0, symBinAddr: 0x43750, symSize: 0x160 }
  - { offsetInCU: 0x4D11A, offset: 0x18B09E, size: 0x8, addend: 0x0, symName: '__ZN4core3ptr58drop_in_place$LT$alloc..vec..Vec$LT$syn..expr..Arm$GT$$GT$17h1a55df3d2cba1daaE', symObjAddr: 0x9480, symBinAddr: 0x438B0, symSize: 0xD0 }
  - { offsetInCU: 0x4D3A7, offset: 0x18B32B, size: 0x8, addend: 0x0, symName: '__ZN4core3ptr59drop_in_place$LT$alloc..boxed..Box$LT$syn..pat..Pat$GT$$GT$17h563b135d87aca8abE', symObjAddr: 0x9550, symBinAddr: 0x43980, symSize: 0x50 }
  - { offsetInCU: 0x4D502, offset: 0x18B486, size: 0x8, addend: 0x0, symName: '__ZN4core3ptr59drop_in_place$LT$alloc..boxed..Box$LT$syn..ty..Type$GT$$GT$17hffed36bad83adacbE', symObjAddr: 0x95A0, symBinAddr: 0x439D0, symSize: 0x50 }
  - { offsetInCU: 0x4D65D, offset: 0x18B5E1, size: 0x8, addend: 0x0, symName: '__ZN4core3ptr59drop_in_place$LT$alloc..vec..Vec$LT$syn..item..Item$GT$$GT$17hf874c2ed1282c93cE', symObjAddr: 0x95F0, symBinAddr: 0x43A20, symSize: 0xD0 }
  - { offsetInCU: 0x4D8EA, offset: 0x18B86E, size: 0x8, addend: 0x0, symName: '__ZN4core3ptr59drop_in_place$LT$alloc..vec..Vec$LT$syn..stmt..Stmt$GT$$GT$17hb5c1acf3c61c43e2E', symObjAddr: 0x96C0, symBinAddr: 0x43AF0, symSize: 0xD0 }
  - { offsetInCU: 0x4DB77, offset: 0x18BAFB, size: 0x8, addend: 0x0, symName: '__ZN4core3ptr61drop_in_place$LT$alloc..boxed..Box$LT$syn..expr..Expr$GT$$GT$17h01091e47f131475dE', symObjAddr: 0x9790, symBinAddr: 0x43BC0, symSize: 0x50 }
  - { offsetInCU: 0x4DD4E, offset: 0x18BCD2, size: 0x8, addend: 0x0, symName: '__ZN4core3ptr61drop_in_place$LT$syn..path..ParenthesizedGenericArguments$GT$17h43d4aac5494326a7E', symObjAddr: 0x9850, symBinAddr: 0x43C10, symSize: 0x170 }
  - { offsetInCU: 0x4E315, offset: 0x18C299, size: 0x8, addend: 0x0, symName: '__ZN4core3ptr62drop_in_place$LT$alloc..boxed..Box$LT$syn..stmt..Block$GT$$GT$17h30434998ae0f12a8E', symObjAddr: 0x99C0, symBinAddr: 0x43D80, symSize: 0xE0 }
  - { offsetInCU: 0x4E6F6, offset: 0x18C67A, size: 0x8, addend: 0x0, symName: '__ZN4core3ptr62drop_in_place$LT$syn..path..AngleBracketedGenericArguments$GT$17hc5b69f68243636ddE', symObjAddr: 0x9AA0, symBinAddr: 0x43E60, symSize: 0x120 }
  - { offsetInCU: 0x4EB0C, offset: 0x18CA90, size: 0x8, addend: 0x0, symName: '__ZN4core3ptr63drop_in_place$LT$alloc..boxed..Box$LT$syn..lit..LitRepr$GT$$GT$17hd8839b7fb35ee7afE', symObjAddr: 0x9BC0, symBinAddr: 0x43F80, symSize: 0x60 }
  - { offsetInCU: 0x4EDE2, offset: 0x18CD66, size: 0x8, addend: 0x0, symName: '__ZN4core3ptr63drop_in_place$LT$alloc..vec..Vec$LT$syn..item..ImplItem$GT$$GT$17hda9ba61cc1df3d0eE', symObjAddr: 0x9C20, symBinAddr: 0x43FE0, symSize: 0x80 }
  - { offsetInCU: 0x4F07F, offset: 0x18D003, size: 0x8, addend: 0x0, symName: '__ZN4core3ptr64drop_in_place$LT$alloc..boxed..Box$LT$syn..item..UseTree$GT$$GT$17he10cba0a4742709fE', symObjAddr: 0x9CA0, symBinAddr: 0x44060, symSize: 0xF0 }
  - { offsetInCU: 0x4F5BF, offset: 0x18D543, size: 0x8, addend: 0x0, symName: '__ZN4core3ptr64drop_in_place$LT$alloc..boxed..Box$LT$syn..pat..FieldPat$GT$$GT$17h4980b70a7597cc08E', symObjAddr: 0x9D90, symBinAddr: 0x44150, symSize: 0x140 }
  - { offsetInCU: 0x4FC6A, offset: 0x18DBEE, size: 0x8, addend: 0x0, symName: '__ZN4core3ptr64drop_in_place$LT$alloc..boxed..Box$LT$syn..ty..BareFnArg$GT$$GT$17h8b34096c620314efE', symObjAddr: 0x9ED0, symBinAddr: 0x44290, symSize: 0x140 }
  - { offsetInCU: 0x5018E, offset: 0x18E112, size: 0x8, addend: 0x0, symName: '__ZN4core3ptr64drop_in_place$LT$alloc..vec..Vec$LT$syn..attr..Attribute$GT$$GT$17h3c8f2a04e701c675E', symObjAddr: 0xA010, symBinAddr: 0x443D0, symSize: 0xD0 }
  - { offsetInCU: 0x5041B, offset: 0x18E39F, size: 0x8, addend: 0x0, symName: '__ZN4core3ptr64drop_in_place$LT$alloc..vec..Vec$LT$syn..item..TraitItem$GT$$GT$17h60eb4b8666c57b93E', symObjAddr: 0xA0E0, symBinAddr: 0x444A0, symSize: 0x80 }
  - { offsetInCU: 0x50699, offset: 0x18E61D, size: 0x8, addend: 0x0, symName: '__ZN4core3ptr65drop_in_place$LT$core..option..Option$LT$syn..expr..Label$GT$$GT$17h78189e72a8cb7951E', symObjAddr: 0xA160, symBinAddr: 0x44520, symSize: 0x30 }
  - { offsetInCU: 0x507D4, offset: 0x18E758, size: 0x8, addend: 0x0, symName: '__ZN4core3ptr66drop_in_place$LT$alloc..vec..Vec$LT$syn..item..ForeignItem$GT$$GT$17h3e58b8e683c84cf4E', symObjAddr: 0xA270, symBinAddr: 0x44550, symSize: 0x80 }
  - { offsetInCU: 0x50A52, offset: 0x18E9D6, size: 0x8, addend: 0x0, symName: '__ZN4core3ptr66drop_in_place$LT$core..option..Option$LT$syn..pat..PatRest$GT$$GT$17h61677cf4ff3a7393E', symObjAddr: 0xA2F0, symBinAddr: 0x445D0, symSize: 0xE0 }
  - { offsetInCU: 0x50CD6, offset: 0x18EC5A, size: 0x8, addend: 0x0, symName: '__ZN4core3ptr67drop_in_place$LT$alloc..boxed..Box$LT$syn..expr..FieldValue$GT$$GT$17h93aaccf8aa22ef88E', symObjAddr: 0xA3D0, symBinAddr: 0x446B0, symSize: 0x140 }
  - { offsetInCU: 0x511DA, offset: 0x18F15E, size: 0x8, addend: 0x0, symName: '__ZN4core3ptr67drop_in_place$LT$core..option..Option$LT$proc_macro2..Ident$GT$$GT$17hec63a294be1dc410E', symObjAddr: 0xA510, symBinAddr: 0x447F0, symSize: 0x30 }
  - { offsetInCU: 0x512D7, offset: 0x18F25B, size: 0x8, addend: 0x0, symName: '__ZN4core3ptr68drop_in_place$LT$alloc..boxed..Box$LT$syn..path..PathSegment$GT$$GT$17h709dabdc13b58a71E', symObjAddr: 0xA540, symBinAddr: 0x44820, symSize: 0x190 }
  - { offsetInCU: 0x519B5, offset: 0x18F939, size: 0x8, addend: 0x0, symName: '__ZN4core3ptr70drop_in_place$LT$core..option..Option$LT$syn..ty..BareVariadic$GT$$GT$17h45399348ea4b8d55E', symObjAddr: 0xA6F0, symBinAddr: 0x449B0, symSize: 0x120 }
  - { offsetInCU: 0x51EE2, offset: 0x18FE66, size: 0x8, addend: 0x0, symName: '__ZN4core3ptr72drop_in_place$LT$alloc..boxed..Box$LT$syn..path..GenericArgument$GT$$GT$17haa7dd8b716637b54E', symObjAddr: 0xA810, symBinAddr: 0x44AD0, symSize: 0x1D0 }
  - { offsetInCU: 0x52485, offset: 0x190409, size: 0x8, addend: 0x0, symName: '__ZN4core3ptr72drop_in_place$LT$core..option..Option$LT$syn..lifetime..Lifetime$GT$$GT$17hfc363ccdd8bd9c32E', symObjAddr: 0xA9E0, symBinAddr: 0x44CA0, symSize: 0x30 }
  - { offsetInCU: 0x525A1, offset: 0x190525, size: 0x8, addend: 0x0, symName: '__ZN4core3ptr73drop_in_place$LT$alloc..boxed..Box$LT$syn..generics..GenericParam$GT$$GT$17hf6951dcd5ae07324E', symObjAddr: 0xAA10, symBinAddr: 0x44CD0, symSize: 0x80 }
  - { offsetInCU: 0x52719, offset: 0x19069D, size: 0x8, addend: 0x0, symName: '__ZN4core3ptr75drop_in_place$LT$alloc..boxed..Box$LT$syn..generics..TypeParamBound$GT$$GT$17he61c00698a311a34E', symObjAddr: 0xAA90, symBinAddr: 0x44D50, symSize: 0xB0 }
  - { offsetInCU: 0x52A93, offset: 0x190A17, size: 0x8, addend: 0x0, symName: '__ZN4core3ptr75drop_in_place$LT$core..option..Option$LT$syn..generics..WhereClause$GT$$GT$17hdce7670be9790a3dE', symObjAddr: 0xAB40, symBinAddr: 0x44E00, symSize: 0x90 }
  - { offsetInCU: 0x52D49, offset: 0x190CCD, size: 0x8, addend: 0x0, symName: '__ZN4core3ptr86drop_in_place$LT$syn..punctuated..Punctuated$LT$syn..pat..Pat$C$syn..token..Or$GT$$GT$17h8e9173df21a44316E', symObjAddr: 0xABE0, symBinAddr: 0x44E90, symSize: 0x120 }
  - { offsetInCU: 0x5318F, offset: 0x191113, size: 0x8, addend: 0x0, symName: '__ZN4core3ptr87drop_in_place$LT$core..option..Option$LT$alloc..boxed..Box$LT$syn..pat..Pat$GT$$GT$$GT$17hd7b7c69f601b3926E', symObjAddr: 0xAD20, symBinAddr: 0x44FB0, symSize: 0x50 }
  - { offsetInCU: 0x53301, offset: 0x191285, size: 0x8, addend: 0x0, symName: '__ZN4core3ptr87drop_in_place$LT$core..option..Option$LT$alloc..boxed..Box$LT$syn..ty..Type$GT$$GT$$GT$17hd74f5d971aec2972E', symObjAddr: 0xAD70, symBinAddr: 0x45000, symSize: 0x50 }
  - { offsetInCU: 0x53473, offset: 0x1913F7, size: 0x8, addend: 0x0, symName: '__ZN4core3ptr89drop_in_place$LT$core..option..Option$LT$alloc..boxed..Box$LT$syn..expr..Expr$GT$$GT$$GT$17h8e135ac1a25a2dc5E', symObjAddr: 0xADE0, symBinAddr: 0x45050, symSize: 0x50 }
  - { offsetInCU: 0x53623, offset: 0x1915A7, size: 0x8, addend: 0x0, symName: '__ZN4core3ptr89drop_in_place$LT$syn..punctuated..Punctuated$LT$syn..pat..Pat$C$syn..token..Comma$GT$$GT$17h8d60e47f3fb1f87aE', symObjAddr: 0xAE30, symBinAddr: 0x450A0, symSize: 0x120 }
  - { offsetInCU: 0x53A80, offset: 0x191A04, size: 0x8, addend: 0x0, symName: '__ZN4core3ptr89drop_in_place$LT$syn..punctuated..Punctuated$LT$syn..ty..Type$C$syn..token..Comma$GT$$GT$17ha919b3114742fb9dE', symObjAddr: 0xAF50, symBinAddr: 0x451C0, symSize: 0x120 }
  - { offsetInCU: 0x53F08, offset: 0x191E8C, size: 0x8, addend: 0x0, symName: '__ZN4core3ptr90drop_in_place$LT$core..option..Option$LT$alloc..boxed..Box$LT$syn..data..Field$GT$$GT$$GT$17h326c39537b0fcc46E', symObjAddr: 0xB070, symBinAddr: 0x452E0, symSize: 0x200 }
  - { offsetInCU: 0x54771, offset: 0x1926F5, size: 0x8, addend: 0x0, symName: '__ZN4core3ptr90drop_in_place$LT$core..option..Option$LT$alloc..boxed..Box$LT$syn..item..FnArg$GT$$GT$$GT$17hbae3fdd388277508E', symObjAddr: 0xB270, symBinAddr: 0x454E0, symSize: 0x60 }
  - { offsetInCU: 0x548ED, offset: 0x192871, size: 0x8, addend: 0x0, symName: '__ZN4core3ptr90drop_in_place$LT$core..option..Option$LT$syn..path..AngleBracketedGenericArguments$GT$$GT$17h80d9a5f0818c8bd9E', symObjAddr: 0xB2D0, symBinAddr: 0x45540, symSize: 0x130 }
  - { offsetInCU: 0x54D58, offset: 0x192CDC, size: 0x8, addend: 0x0, symName: '__ZN4core3ptr91drop_in_place$LT$syn..punctuated..Punctuated$LT$syn..expr..Expr$C$syn..token..Comma$GT$$GT$17h4f39b83dc86a4159E', symObjAddr: 0xB400, symBinAddr: 0x45670, symSize: 0x120 }
  - { offsetInCU: 0x551B5, offset: 0x193139, size: 0x8, addend: 0x0, symName: '__ZN4core3ptr92drop_in_place$LT$core..option..Option$LT$$LP$syn..token..As$C$proc_macro2..Ident$RP$$GT$$GT$17h5c1a47ccb35d9d7eE', symObjAddr: 0xB520, symBinAddr: 0x45790, symSize: 0x30 }
  - { offsetInCU: 0x5530F, offset: 0x193293, size: 0x8, addend: 0x0, symName: '__ZN4core3ptr92drop_in_place$LT$core..option..Option$LT$alloc..boxed..Box$LT$syn..data..Variant$GT$$GT$$GT$17h3f89d7c982191526E', symObjAddr: 0xB550, symBinAddr: 0x457C0, symSize: 0x190 }
  - { offsetInCU: 0x559B8, offset: 0x19393C, size: 0x8, addend: 0x0, symName: '__ZN4core3ptr92drop_in_place$LT$syn..punctuated..Punctuated$LT$syn..item..FnArg$C$syn..token..Comma$GT$$GT$17h75db9d232662c7d3E', symObjAddr: 0xB6E0, symBinAddr: 0x45950, symSize: 0x140 }
  - { offsetInCU: 0x55E06, offset: 0x193D8A, size: 0x8, addend: 0x0, symName: '__ZN4core3ptr94drop_in_place$LT$syn..punctuated..Punctuated$LT$syn..data..Variant$C$syn..token..Comma$GT$$GT$17ha69d7e675441c7e2E', symObjAddr: 0xB820, symBinAddr: 0x45A90, symSize: 0xE0 }
  - { offsetInCU: 0x56133, offset: 0x1940B7, size: 0x8, addend: 0x0, symName: '__ZN4core3ptr94drop_in_place$LT$syn..punctuated..Punctuated$LT$syn..item..UseTree$C$syn..token..Comma$GT$$GT$17h4e4f303ffad9f549E', symObjAddr: 0xB900, symBinAddr: 0x45B70, symSize: 0xF0 }
  - { offsetInCU: 0x56444, offset: 0x1943C8, size: 0x8, addend: 0x0, symName: '__ZN4core3ptr94drop_in_place$LT$syn..punctuated..Punctuated$LT$syn..pat..FieldPat$C$syn..token..Comma$GT$$GT$17h112950ea198c8281E', symObjAddr: 0xB9F0, symBinAddr: 0x45C60, symSize: 0xF0 }
  - { offsetInCU: 0x5670E, offset: 0x194692, size: 0x8, addend: 0x0, symName: '__ZN4core3ptr94drop_in_place$LT$syn..punctuated..Punctuated$LT$syn..ty..BareFnArg$C$syn..token..Comma$GT$$GT$17h1c7b44310f06243dE', symObjAddr: 0xBAE0, symBinAddr: 0x45D50, symSize: 0xF0 }
  - { offsetInCU: 0x569D8, offset: 0x19495C, size: 0x8, addend: 0x0, symName: '__ZN4core3ptr96drop_in_place$LT$core..option..Option$LT$alloc..boxed..Box$LT$syn..path..PathSegment$GT$$GT$$GT$17hb447d0f626c86a4eE', symObjAddr: 0xBBD0, symBinAddr: 0x45E40, symSize: 0x90 }
  - { offsetInCU: 0x56C5A, offset: 0x194BDE, size: 0x8, addend: 0x0, symName: '__ZN4core3ptr97drop_in_place$LT$syn..punctuated..Punctuated$LT$syn..expr..FieldValue$C$syn..token..Comma$GT$$GT$17h31b81f7462228dcbE', symObjAddr: 0xBC60, symBinAddr: 0x45ED0, symSize: 0xF0 }
  - { offsetInCU: 0x56F24, offset: 0x194EA8, size: 0x8, addend: 0x0, symName: '__ZN4core3ptr98drop_in_place$LT$alloc..vec..Vec$LT$$LP$syn..path..GenericArgument$C$syn..token..Comma$RP$$GT$$GT$17h0657ff261f33b640E', symObjAddr: 0xBD50, symBinAddr: 0x45FC0, symSize: 0xD0 }
  - { offsetInCU: 0x5722D, offset: 0x1951B1, size: 0x8, addend: 0x0, symName: '__ZN4core3ptr98drop_in_place$LT$syn..punctuated..Punctuated$LT$syn..lifetime..Lifetime$C$syn..token..Plus$GT$$GT$17h0f8fc5f20f465f47E', symObjAddr: 0xBE20, symBinAddr: 0x46090, symSize: 0xC0 }
  - { offsetInCU: 0x62E59, offset: 0x1A0DDD, size: 0x8, addend: 0x0, symName: '__ZN5alloc3vec16Vec$LT$T$C$A$GT$4push17hee7056fca81de2b5E', symObjAddr: 0xC0D0, symBinAddr: 0x46150, symSize: 0x60 }
  - { offsetInCU: 0x63094, offset: 0x1A1018, size: 0x8, addend: 0x0, symName: '__ZN5alloc3vec16Vec$LT$T$C$A$GT$6append17h429b9c0d32835dc0E', symObjAddr: 0xC130, symBinAddr: 0x461B0, symSize: 0x80 }
  - { offsetInCU: 0x63349, offset: 0x1A12CD, size: 0x8, addend: 0x0, symName: __ZN3syn4item4Item13replace_attrs17hc89b3448d1af9bc5E, symObjAddr: 0xCC00, symBinAddr: 0x46230, symSize: 0x1C0 }
  - { offsetInCU: 0x1E, offset: 0x1AE15A, size: 0x8, addend: 0x0, symName: '__ZN4core3ptr100drop_in_place$LT$alloc..vec..Vec$LT$$LP$syn..generics..TypeParamBound$C$syn..token..Plus$RP$$GT$$GT$17h8b4df1d78e856f8eE.llvm.720949811486110776', symObjAddr: 0x0, symBinAddr: 0x55F70, symSize: 0xD0 }
  - { offsetInCU: 0x12F9, offset: 0x1AF435, size: 0x8, addend: 0x0, symName: '__ZN100_$LT$syn..punctuated..PrivateIter$LT$T$C$P$GT$$u20$as$u20$core..iter..traits..iterator..Iterator$GT$4next17h2288f88597771eccE.llvm.720949811486110776', symObjAddr: 0x101F0, symBinAddr: 0x60F40, symSize: 0x30 }
  - { offsetInCU: 0x158C, offset: 0x1AF6C8, size: 0x8, addend: 0x0, symName: '__ZN100_$LT$syn..punctuated..PrivateIter$LT$T$C$P$GT$$u20$as$u20$core..iter..traits..iterator..Iterator$GT$4next17h2b2ca8d3435ec515E.llvm.720949811486110776', symObjAddr: 0x10220, symBinAddr: 0x60F70, symSize: 0x30 }
  - { offsetInCU: 0x1DDB, offset: 0x1AFF17, size: 0x8, addend: 0x0, symName: '__ZN138_$LT$syn..punctuated..Punctuated$LT$T$C$P$GT$$u20$as$u20$core..iter..traits..collect..Extend$LT$syn..punctuated..Pair$LT$T$C$P$GT$$GT$$GT$6extend17h0c12569780469b5fE', symObjAddr: 0xF390, symBinAddr: 0x609C0, symSize: 0x370 }
  - { offsetInCU: 0x22D0, offset: 0x1B040C, size: 0x8, addend: 0x0, symName: '__ZN102_$LT$syn..punctuated..Punctuated$LT$T$C$P$GT$$u20$as$u20$core..iter..traits..collect..IntoIterator$GT$9into_iter17h19dc66090da1f9fdE', symObjAddr: 0xFB40, symBinAddr: 0x60D30, symSize: 0x210 }
  - { offsetInCU: 0x3321, offset: 0x1B145D, size: 0x8, addend: 0x0, symName: '__ZN97_$LT$syn..punctuated..Punctuated$LT$T$C$P$GT$$u20$as$u20$core..ops..index..Index$LT$usize$GT$$GT$5index17h4f8cb199669a0d4aE', symObjAddr: 0x105C0, symBinAddr: 0x60FA0, symSize: 0x40 }
  - { offsetInCU: 0x3468, offset: 0x1B15A4, size: 0x8, addend: 0x0, symName: '__ZN3syn10punctuated8printing91_$LT$impl$u20$quote..to_tokens..ToTokens$u20$for$u20$syn..punctuated..Pair$LT$T$C$P$GT$$GT$9to_tokens17h1946c43ec2d8cf8fE', symObjAddr: 0x10890, symBinAddr: 0x61190, symSize: 0xC0 }
  - { offsetInCU: 0x365B, offset: 0x1B1797, size: 0x8, addend: 0x0, symName: '__ZN3syn10punctuated8printing97_$LT$impl$u20$quote..to_tokens..ToTokens$u20$for$u20$syn..punctuated..Punctuated$LT$T$C$P$GT$$GT$9to_tokens17h183c223efb5c6660E', symObjAddr: 0x106E0, symBinAddr: 0x60FE0, symSize: 0x1B0 }
  - { offsetInCU: 0xCB10, offset: 0x1BAC4C, size: 0x8, addend: 0x0, symName: '__ZN4core3ptr100drop_in_place$LT$alloc..vec..Vec$LT$$LP$syn..generics..TypeParamBound$C$syn..token..Plus$RP$$GT$$GT$17h8b4df1d78e856f8eE.llvm.720949811486110776', symObjAddr: 0x0, symBinAddr: 0x55F70, symSize: 0xD0 }
  - { offsetInCU: 0xCDBC, offset: 0x1BAEF8, size: 0x8, addend: 0x0, symName: '__ZN4core3ptr100drop_in_place$LT$core..option..Option$LT$alloc..boxed..Box$LT$syn..path..GenericArgument$GT$$GT$$GT$17h7435c9de74860622E.llvm.720949811486110776', symObjAddr: 0xD0, symBinAddr: 0x56040, symSize: 0x50 }
  - { offsetInCU: 0xCFAA, offset: 0x1BB0E6, size: 0x8, addend: 0x0, symName: '__ZN4core3ptr100drop_in_place$LT$syn..punctuated..Punctuated$LT$syn..path..PathSegment$C$syn..token..PathSep$GT$$GT$17hf414cb3581f8337aE', symObjAddr: 0x120, symBinAddr: 0x56090, symSize: 0x110 }
  - { offsetInCU: 0xD406, offset: 0x1BB542, size: 0x8, addend: 0x0, symName: '__ZN4core3ptr102drop_in_place$LT$syn..punctuated..Punctuated$LT$syn..path..GenericArgument$C$syn..token..Comma$GT$$GT$17h39496ba4e6dba6cfE', symObjAddr: 0x2A0, symBinAddr: 0x561A0, symSize: 0xF0 }
  - { offsetInCU: 0xD6EF, offset: 0x1BB82B, size: 0x8, addend: 0x0, symName: '__ZN4core3ptr103drop_in_place$LT$core..option..Option$LT$alloc..boxed..Box$LT$syn..generics..TypeParamBound$GT$$GT$$GT$17h5974f03e36b1a9c3E.llvm.720949811486110776', symObjAddr: 0x390, symBinAddr: 0x56290, symSize: 0x50 }
  - { offsetInCU: 0xD8FC, offset: 0x1BBA38, size: 0x8, addend: 0x0, symName: '__ZN4core3ptr103drop_in_place$LT$syn..punctuated..Punctuated$LT$syn..generics..GenericParam$C$syn..token..Comma$GT$$GT$17hf42353fa44ed6da8E.llvm.720949811486110776', symObjAddr: 0x3E0, symBinAddr: 0x562E0, symSize: 0xF0 }
  - { offsetInCU: 0xDE1C, offset: 0x1BBF58, size: 0x8, addend: 0x0, symName: '__ZN4core3ptr104drop_in_place$LT$syn..punctuated..Punctuated$LT$syn..generics..TypeParamBound$C$syn..token..Plus$GT$$GT$17h532f52c4a894b056E.llvm.720949811486110776', symObjAddr: 0x4D0, symBinAddr: 0x563D0, symSize: 0x190 }
  - { offsetInCU: 0xE48F, offset: 0x1BC5CB, size: 0x8, addend: 0x0, symName: '__ZN4core3ptr34drop_in_place$LT$syn..lit..Lit$GT$17h8902f5ff67917034E', symObjAddr: 0x660, symBinAddr: 0x56560, symSize: 0x110 }
  - { offsetInCU: 0xEA07, offset: 0x1BCB43, size: 0x8, addend: 0x0, symName: '__ZN4core3ptr34drop_in_place$LT$syn..pat..Pat$GT$17h4581eea028ec0969E.llvm.720949811486110776', symObjAddr: 0x770, symBinAddr: 0x56670, symSize: 0x1000 }
  - { offsetInCU: 0x1254B, offset: 0x1C0687, size: 0x8, addend: 0x0, symName: '__ZN4core3ptr34drop_in_place$LT$syn..ty..Type$GT$17h369e41ad4a9f1ae0E.llvm.720949811486110776', symObjAddr: 0x1770, symBinAddr: 0x57670, symSize: 0x4F0 }
  - { offsetInCU: 0x13AB5, offset: 0x1C1BF1, size: 0x8, addend: 0x0, symName: '__ZN4core3ptr36drop_in_place$LT$syn..expr..Expr$GT$17h0f7fd4c749bae801E.llvm.720949811486110776', symObjAddr: 0x1C70, symBinAddr: 0x57B60, symSize: 0x28C0 }
  - { offsetInCU: 0x1CF5A, offset: 0x1CB096, size: 0x8, addend: 0x0, symName: '__ZN4core3ptr36drop_in_place$LT$syn..mac..Macro$GT$17h4ffde962df30ebe2E', symObjAddr: 0x4530, symBinAddr: 0x5A420, symSize: 0x40 }
  - { offsetInCU: 0x1CF94, offset: 0x1CB0D0, size: 0x8, addend: 0x0, symName: '__ZN4core3ptr36drop_in_place$LT$syn..path..Path$GT$17habea856181211e1cE.llvm.720949811486110776', symObjAddr: 0x4570, symBinAddr: 0x5A460, symSize: 0xC0 }
  - { offsetInCU: 0x1D26E, offset: 0x1CB3AA, size: 0x8, addend: 0x0, symName: '__ZN4core3ptr37drop_in_place$LT$syn..data..Field$GT$17h8ecf6e22a67a3b36E.llvm.720949811486110776', symObjAddr: 0x4630, symBinAddr: 0x5A520, symSize: 0x140 }
  - { offsetInCU: 0x1D68B, offset: 0x1CB7C7, size: 0x8, addend: 0x0, symName: '__ZN4core3ptr37drop_in_place$LT$syn..item..FnArg$GT$17h3308e115b3b3c9adE.llvm.720949811486110776', symObjAddr: 0x4770, symBinAddr: 0x5A660, symSize: 0x280 }
  - { offsetInCU: 0x1E067, offset: 0x1CC1A3, size: 0x8, addend: 0x0, symName: '__ZN4core3ptr37drop_in_place$LT$syn..stmt..Block$GT$17hcc21a21cf949414cE', symObjAddr: 0x49F0, symBinAddr: 0x5A8E0, symSize: 0xD0 }
  - { offsetInCU: 0x1E30B, offset: 0x1CC447, size: 0x8, addend: 0x0, symName: '__ZN4core3ptr38drop_in_place$LT$syn..expr..Member$GT$17h022cbe5553aa40faE.llvm.720949811486110776', symObjAddr: 0x4AC0, symBinAddr: 0x5A9B0, symSize: 0x30 }
  - { offsetInCU: 0x1E408, offset: 0x1CC544, size: 0x8, addend: 0x0, symName: '__ZN4core3ptr39drop_in_place$LT$proc_macro2..Ident$GT$17h8101e88c3ac359d6E.llvm.720949811486110776', symObjAddr: 0x4AF0, symBinAddr: 0x5A9E0, symSize: 0x30 }
  - { offsetInCU: 0x1E543, offset: 0x1CC67F, size: 0x8, addend: 0x0, symName: '__ZN4core3ptr39drop_in_place$LT$syn..data..Variant$GT$17h7bd4c363751fc860E', symObjAddr: 0x4B20, symBinAddr: 0x5AA10, symSize: 0x150 }
  - { offsetInCU: 0x1EA93, offset: 0x1CCBCF, size: 0x8, addend: 0x0, symName: '__ZN4core3ptr39drop_in_place$LT$syn..item..UseTree$GT$17h5b1281a5704d139dE.llvm.720949811486110776', symObjAddr: 0x4C70, symBinAddr: 0x5AB60, symSize: 0x1D0 }
  - { offsetInCU: 0x1F193, offset: 0x1CD2CF, size: 0x8, addend: 0x0, symName: '__ZN4core3ptr39drop_in_place$LT$syn..pat..FieldPat$GT$17h6890d0559a60b030E.llvm.720949811486110776', symObjAddr: 0x4E40, symBinAddr: 0x5AD30, symSize: 0x130 }
  - { offsetInCU: 0x1F6D5, offset: 0x1CD811, size: 0x8, addend: 0x0, symName: '__ZN4core3ptr39drop_in_place$LT$syn..ty..BareFnArg$GT$17hac0a1b8fd6f7ad3cE.llvm.720949811486110776', symObjAddr: 0x4F70, symBinAddr: 0x5AE60, symSize: 0x110 }
  - { offsetInCU: 0x1FAA1, offset: 0x1CDBDD, size: 0x8, addend: 0x0, symName: '__ZN4core3ptr40drop_in_place$LT$syn..ty..ReturnType$GT$17h02cf41e2fec63d90E', symObjAddr: 0x5080, symBinAddr: 0x5AF70, symSize: 0x50 }
  - { offsetInCU: 0x1FC13, offset: 0x1CDD4F, size: 0x8, addend: 0x0, symName: '__ZN4core3ptr41drop_in_place$LT$syn..expr..ExprConst$GT$17h725a13e551d9f276E', symObjAddr: 0x50D0, symBinAddr: 0x5AFC0, symSize: 0x180 }
  - { offsetInCU: 0x20168, offset: 0x1CE2A4, size: 0x8, addend: 0x0, symName: '__ZN4core3ptr42drop_in_place$LT$syn..expr..FieldValue$GT$17h26d594bfbe912662E.llvm.720949811486110776', symObjAddr: 0x5250, symBinAddr: 0x5B140, symSize: 0x110 }
  - { offsetInCU: 0x20552, offset: 0x1CE68E, size: 0x8, addend: 0x0, symName: '__ZN4core3ptr43drop_in_place$LT$syn..path..PathSegment$GT$17h62e206c29667de7cE.llvm.720949811486110776', symObjAddr: 0x5360, symBinAddr: 0x5B250, symSize: 0x170 }
  - { offsetInCU: 0x20A84, offset: 0x1CEBC0, size: 0x8, addend: 0x0, symName: '__ZN4core3ptr44drop_in_place$LT$syn..lifetime..Lifetime$GT$17hf0cdec2e9ec456d6E.llvm.720949811486110776', symObjAddr: 0x54D0, symBinAddr: 0x5B3C0, symSize: 0x30 }
  - { offsetInCU: 0x20CB7, offset: 0x1CEDF3, size: 0x8, addend: 0x0, symName: '__ZN4core3ptr45drop_in_place$LT$proc_macro2..TokenStream$GT$17h3405f6c513e9f6cbE.llvm.720949811486110776', symObjAddr: 0x5500, symBinAddr: 0x5B3F0, symSize: 0x140 }
  - { offsetInCU: 0x21126, offset: 0x1CF262, size: 0x8, addend: 0x0, symName: '__ZN4core3ptr45drop_in_place$LT$syn..generics..TypeParam$GT$17he5eda51070b7de47E.llvm.720949811486110776', symObjAddr: 0x5640, symBinAddr: 0x5B530, symSize: 0x230 }
  - { offsetInCU: 0x21922, offset: 0x1CFA5E, size: 0x8, addend: 0x0, symName: '__ZN4core3ptr46drop_in_place$LT$syn..generics..ConstParam$GT$17hab0a58c4af8c549cE.llvm.720949811486110776', symObjAddr: 0x5870, symBinAddr: 0x5B760, symSize: 0x150 }
  - { offsetInCU: 0x21D4C, offset: 0x1CFE88, size: 0x8, addend: 0x0, symName: '__ZN4core3ptr47drop_in_place$LT$syn..path..GenericArgument$GT$17h54f8794633f96823E.llvm.720949811486110776', symObjAddr: 0x59C0, symBinAddr: 0x5B8B0, symSize: 0x460 }
  - { offsetInCU: 0x22A55, offset: 0x1D0B91, size: 0x8, addend: 0x0, symName: '__ZN4core3ptr48drop_in_place$LT$syn..generics..GenericParam$GT$17h9c895978ef08f584E.llvm.720949811486110776', symObjAddr: 0x5E20, symBinAddr: 0x5BD10, symSize: 0x40 }
  - { offsetInCU: 0x22A72, offset: 0x1D0BAE, size: 0x8, addend: 0x0, symName: '__ZN4core3ptr49drop_in_place$LT$syn..generics..LifetimeParam$GT$17h41a7c7a290ea6289E.llvm.720949811486110776', symObjAddr: 0x5E60, symBinAddr: 0x5BD50, symSize: 0xF0 }
  - { offsetInCU: 0x22E6A, offset: 0x1D0FA6, size: 0x8, addend: 0x0, symName: '__ZN4core3ptr49drop_in_place$LT$syn..restriction..Visibility$GT$17h2a932c493942ef80E', symObjAddr: 0x5F50, symBinAddr: 0x5BE40, symSize: 0x110 }
  - { offsetInCU: 0x2329D, offset: 0x1D13D9, size: 0x8, addend: 0x0, symName: '__ZN4core3ptr50drop_in_place$LT$syn..generics..TypeParamBound$GT$17hcd7771d4c6c221efE.llvm.720949811486110776', symObjAddr: 0x6060, symBinAddr: 0x5BF50, symSize: 0x160 }
  - { offsetInCU: 0x236FB, offset: 0x1D1837, size: 0x8, addend: 0x0, symName: '__ZN4core3ptr50drop_in_place$LT$syn..generics..WherePredicate$GT$17h1a9d05bc1beb1d91E.llvm.720949811486110776', symObjAddr: 0x61C0, symBinAddr: 0x5C0B0, symSize: 0xA0 }
  - { offsetInCU: 0x2389C, offset: 0x1D19D8, size: 0x8, addend: 0x0, symName: '__ZN4core3ptr58drop_in_place$LT$alloc..vec..Vec$LT$syn..expr..Arm$GT$$GT$17h1a55df3d2cba1daaE', symObjAddr: 0x6260, symBinAddr: 0x5C150, symSize: 0xD0 }
  - { offsetInCU: 0x23B29, offset: 0x1D1C65, size: 0x8, addend: 0x0, symName: '__ZN4core3ptr59drop_in_place$LT$alloc..boxed..Box$LT$syn..pat..Pat$GT$$GT$17h563b135d87aca8abE.llvm.720949811486110776', symObjAddr: 0x6330, symBinAddr: 0x5C220, symSize: 0x50 }
  - { offsetInCU: 0x23C84, offset: 0x1D1DC0, size: 0x8, addend: 0x0, symName: '__ZN4core3ptr59drop_in_place$LT$alloc..boxed..Box$LT$syn..ty..Type$GT$$GT$17hffed36bad83adacbE.llvm.720949811486110776', symObjAddr: 0x6380, symBinAddr: 0x5C270, symSize: 0x50 }
  - { offsetInCU: 0x23DDF, offset: 0x1D1F1B, size: 0x8, addend: 0x0, symName: '__ZN4core3ptr61drop_in_place$LT$alloc..boxed..Box$LT$syn..expr..Expr$GT$$GT$17h01091e47f131475dE.llvm.720949811486110776', symObjAddr: 0x64A0, symBinAddr: 0x5C2C0, symSize: 0x50 }
  - { offsetInCU: 0x23FB6, offset: 0x1D20F2, size: 0x8, addend: 0x0, symName: '__ZN4core3ptr61drop_in_place$LT$syn..path..ParenthesizedGenericArguments$GT$17h43d4aac5494326a7E.llvm.720949811486110776', symObjAddr: 0x64F0, symBinAddr: 0x5C310, symSize: 0x170 }
  - { offsetInCU: 0x24590, offset: 0x1D26CC, size: 0x8, addend: 0x0, symName: '__ZN4core3ptr63drop_in_place$LT$alloc..boxed..Box$LT$syn..lit..LitRepr$GT$$GT$17hd8839b7fb35ee7afE', symObjAddr: 0x6700, symBinAddr: 0x5C480, symSize: 0x60 }
  - { offsetInCU: 0x24866, offset: 0x1D29A2, size: 0x8, addend: 0x0, symName: '__ZN4core3ptr64drop_in_place$LT$alloc..boxed..Box$LT$syn..item..UseTree$GT$$GT$17he10cba0a4742709fE', symObjAddr: 0x67B0, symBinAddr: 0x5C4E0, symSize: 0x50 }
  - { offsetInCU: 0x249E0, offset: 0x1D2B1C, size: 0x8, addend: 0x0, symName: '__ZN4core3ptr64drop_in_place$LT$alloc..boxed..Box$LT$syn..pat..FieldPat$GT$$GT$17h4980b70a7597cc08E', symObjAddr: 0x6800, symBinAddr: 0x5C530, symSize: 0x140 }
  - { offsetInCU: 0x2504D, offset: 0x1D3189, size: 0x8, addend: 0x0, symName: '__ZN4core3ptr64drop_in_place$LT$alloc..boxed..Box$LT$syn..ty..BareFnArg$GT$$GT$17h8b34096c620314efE', symObjAddr: 0x6940, symBinAddr: 0x5C670, symSize: 0x140 }
  - { offsetInCU: 0x25571, offset: 0x1D36AD, size: 0x8, addend: 0x0, symName: '__ZN4core3ptr65drop_in_place$LT$core..option..Option$LT$syn..expr..Label$GT$$GT$17h78189e72a8cb7951E', symObjAddr: 0x6A80, symBinAddr: 0x5C7B0, symSize: 0x30 }
  - { offsetInCU: 0x256AC, offset: 0x1D37E8, size: 0x8, addend: 0x0, symName: '__ZN4core3ptr66drop_in_place$LT$core..option..Option$LT$syn..pat..PatRest$GT$$GT$17h61677cf4ff3a7393E', symObjAddr: 0x6AB0, symBinAddr: 0x5C7E0, symSize: 0xE0 }
  - { offsetInCU: 0x25930, offset: 0x1D3A6C, size: 0x8, addend: 0x0, symName: '__ZN4core3ptr67drop_in_place$LT$alloc..boxed..Box$LT$syn..expr..FieldValue$GT$$GT$17h93aaccf8aa22ef88E', symObjAddr: 0x6B90, symBinAddr: 0x5C8C0, symSize: 0x140 }
  - { offsetInCU: 0x25E53, offset: 0x1D3F8F, size: 0x8, addend: 0x0, symName: '__ZN4core3ptr70drop_in_place$LT$core..option..Option$LT$syn..ty..BareVariadic$GT$$GT$17h45399348ea4b8d55E', symObjAddr: 0x6D60, symBinAddr: 0x5CA00, symSize: 0x120 }
  - { offsetInCU: 0x26380, offset: 0x1D44BC, size: 0x8, addend: 0x0, symName: '__ZN4core3ptr72drop_in_place$LT$alloc..boxed..Box$LT$syn..path..GenericArgument$GT$$GT$17haa7dd8b716637b54E', symObjAddr: 0x6E80, symBinAddr: 0x5CB20, symSize: 0x2B0 }
  - { offsetInCU: 0x26D6B, offset: 0x1D4EA7, size: 0x8, addend: 0x0, symName: '__ZN4core3ptr73drop_in_place$LT$alloc..boxed..Box$LT$syn..generics..GenericParam$GT$$GT$17hf6951dcd5ae07324E.llvm.720949811486110776', symObjAddr: 0x7130, symBinAddr: 0x5CDD0, symSize: 0x80 }
  - { offsetInCU: 0x26F02, offset: 0x1D503E, size: 0x8, addend: 0x0, symName: '__ZN4core3ptr73drop_in_place$LT$alloc..vec..Vec$LT$syn..generics..TypeParamBound$GT$$GT$17hdab4c0986d98765bE.llvm.720949811486110776', symObjAddr: 0x71B0, symBinAddr: 0x5CE50, symSize: 0xC0 }
  - { offsetInCU: 0x271A2, offset: 0x1D52DE, size: 0x8, addend: 0x0, symName: '__ZN4core3ptr75drop_in_place$LT$alloc..boxed..Box$LT$syn..generics..TypeParamBound$GT$$GT$17he61c00698a311a34E', symObjAddr: 0x7270, symBinAddr: 0x5CF10, symSize: 0xB0 }
  - { offsetInCU: 0x274A0, offset: 0x1D55DC, size: 0x8, addend: 0x0, symName: '__ZN4core3ptr76drop_in_place$LT$$LP$syn..generics..GenericParam$C$syn..token..Comma$RP$$GT$17hadd4ee9dc4c521adE.llvm.720949811486110776', symObjAddr: 0x7370, symBinAddr: 0x5CFC0, symSize: 0x40 }
  - { offsetInCU: 0x2754C, offset: 0x1D5688, size: 0x8, addend: 0x0, symName: '__ZN4core3ptr86drop_in_place$LT$syn..punctuated..Punctuated$LT$syn..pat..Pat$C$syn..token..Or$GT$$GT$17h8e9173df21a44316E', symObjAddr: 0x7620, symBinAddr: 0x5D000, symSize: 0x120 }
  - { offsetInCU: 0x279B1, offset: 0x1D5AED, size: 0x8, addend: 0x0, symName: '__ZN4core3ptr87drop_in_place$LT$core..option..Option$LT$alloc..boxed..Box$LT$syn..pat..Pat$GT$$GT$$GT$17hd7b7c69f601b3926E', symObjAddr: 0x7810, symBinAddr: 0x5D120, symSize: 0x50 }
  - { offsetInCU: 0x27B23, offset: 0x1D5C5F, size: 0x8, addend: 0x0, symName: '__ZN4core3ptr87drop_in_place$LT$core..option..Option$LT$alloc..boxed..Box$LT$syn..ty..Type$GT$$GT$$GT$17hd74f5d971aec2972E.llvm.720949811486110776', symObjAddr: 0x7860, symBinAddr: 0x5D170, symSize: 0x50 }
  - { offsetInCU: 0x27CB4, offset: 0x1D5DF0, size: 0x8, addend: 0x0, symName: '__ZN4core3ptr89drop_in_place$LT$core..option..Option$LT$alloc..boxed..Box$LT$syn..expr..Expr$GT$$GT$$GT$17h8e135ac1a25a2dc5E', symObjAddr: 0x7A60, symBinAddr: 0x5D1C0, symSize: 0x50 }
  - { offsetInCU: 0x27E64, offset: 0x1D5FA0, size: 0x8, addend: 0x0, symName: '__ZN4core3ptr89drop_in_place$LT$syn..punctuated..Punctuated$LT$syn..pat..Pat$C$syn..token..Comma$GT$$GT$17h8d60e47f3fb1f87aE', symObjAddr: 0x7AB0, symBinAddr: 0x5D210, symSize: 0x120 }
  - { offsetInCU: 0x282C1, offset: 0x1D63FD, size: 0x8, addend: 0x0, symName: '__ZN4core3ptr89drop_in_place$LT$syn..punctuated..Punctuated$LT$syn..ty..Type$C$syn..token..Comma$GT$$GT$17ha919b3114742fb9dE.llvm.720949811486110776', symObjAddr: 0x7BD0, symBinAddr: 0x5D330, symSize: 0x120 }
  - { offsetInCU: 0x28749, offset: 0x1D6885, size: 0x8, addend: 0x0, symName: '__ZN4core3ptr90drop_in_place$LT$core..option..Option$LT$alloc..boxed..Box$LT$syn..data..Field$GT$$GT$$GT$17h326c39537b0fcc46E.llvm.720949811486110776', symObjAddr: 0x8030, symBinAddr: 0x5D450, symSize: 0x50 }
  - { offsetInCU: 0x288CD, offset: 0x1D6A09, size: 0x8, addend: 0x0, symName: '__ZN4core3ptr91drop_in_place$LT$syn..punctuated..Punctuated$LT$syn..expr..Expr$C$syn..token..Comma$GT$$GT$17h4f39b83dc86a4159E.llvm.720949811486110776', symObjAddr: 0x8080, symBinAddr: 0x5D4A0, symSize: 0x120 }
  - { offsetInCU: 0x28D49, offset: 0x1D6E85, size: 0x8, addend: 0x0, symName: '__ZN4core3ptr92drop_in_place$LT$core..option..Option$LT$alloc..boxed..Box$LT$syn..data..Variant$GT$$GT$$GT$17h3f89d7c982191526E', symObjAddr: 0x81A0, symBinAddr: 0x5D5C0, symSize: 0x50 }
  - { offsetInCU: 0x28EEC, offset: 0x1D7028, size: 0x8, addend: 0x0, symName: '__ZN4core3ptr92drop_in_place$LT$syn..punctuated..Punctuated$LT$syn..data..Field$C$syn..token..Comma$GT$$GT$17hca76f5e010a141e5E', symObjAddr: 0x81F0, symBinAddr: 0x5D610, symSize: 0x120 }
  - { offsetInCU: 0x29386, offset: 0x1D74C2, size: 0x8, addend: 0x0, symName: '__ZN4core3ptr94drop_in_place$LT$syn..punctuated..Punctuated$LT$syn..data..Variant$C$syn..token..Comma$GT$$GT$17ha69d7e675441c7e2E', symObjAddr: 0x8460, symBinAddr: 0x5D730, symSize: 0x120 }
  - { offsetInCU: 0x297C3, offset: 0x1D78FF, size: 0x8, addend: 0x0, symName: '__ZN4core3ptr94drop_in_place$LT$syn..punctuated..Punctuated$LT$syn..pat..FieldPat$C$syn..token..Comma$GT$$GT$17h112950ea198c8281E', symObjAddr: 0x8580, symBinAddr: 0x5D850, symSize: 0xF0 }
  - { offsetInCU: 0x29A8D, offset: 0x1D7BC9, size: 0x8, addend: 0x0, symName: '__ZN4core3ptr94drop_in_place$LT$syn..punctuated..Punctuated$LT$syn..ty..BareFnArg$C$syn..token..Comma$GT$$GT$17h1c7b44310f06243dE', symObjAddr: 0x8670, symBinAddr: 0x5D940, symSize: 0xF0 }
  - { offsetInCU: 0x29D57, offset: 0x1D7E93, size: 0x8, addend: 0x0, symName: '__ZN4core3ptr95drop_in_place$LT$core..option..Option$LT$$LP$proc_macro2..Ident$C$syn..token..Colon$RP$$GT$$GT$17ha744bf0f41959716E.llvm.720949811486110776', symObjAddr: 0x8760, symBinAddr: 0x5DA30, symSize: 0x30 }
  - { offsetInCU: 0x29E92, offset: 0x1D7FCE, size: 0x8, addend: 0x0, symName: '__ZN4core3ptr96drop_in_place$LT$core..option..Option$LT$alloc..boxed..Box$LT$syn..path..PathSegment$GT$$GT$$GT$17hb447d0f626c86a4eE.llvm.720949811486110776', symObjAddr: 0x8850, symBinAddr: 0x5DA60, symSize: 0x180 }
  - { offsetInCU: 0x2A542, offset: 0x1D867E, size: 0x8, addend: 0x0, symName: '__ZN4core3ptr97drop_in_place$LT$syn..punctuated..Punctuated$LT$syn..expr..FieldValue$C$syn..token..Comma$GT$$GT$17h31b81f7462228dcbE', symObjAddr: 0x8A20, symBinAddr: 0x5DBE0, symSize: 0xF0 }
  - { offsetInCU: 0x2A84A, offset: 0x1D8986, size: 0x8, addend: 0x0, symName: '__ZN4core3ptr98drop_in_place$LT$syn..punctuated..Punctuated$LT$syn..lifetime..Lifetime$C$syn..token..Plus$GT$$GT$17h0f8fc5f20f465f47E.llvm.720949811486110776', symObjAddr: 0x8BE0, symBinAddr: 0x5DCD0, symSize: 0xC0 }
  - { offsetInCU: 0x2AD3E, offset: 0x1D8E7A, size: 0x8, addend: 0x0, symName: '__ZN4core3ptr99drop_in_place$LT$syn..punctuated..IntoPairs$LT$syn..path..PathSegment$C$syn..token..PathSep$GT$$GT$17h4470f4520ed6b72cE', symObjAddr: 0x8D00, symBinAddr: 0x5DD90, symSize: 0x50 }
  - { offsetInCU: 0x342F9, offset: 0x1E2435, size: 0x8, addend: 0x0, symName: '__ZN3syn10punctuated23Punctuated$LT$T$C$P$GT$10push_value17h1464794b59e71484E', symObjAddr: 0x9CF0, symBinAddr: 0x5DDE0, symSize: 0x110 }
  - { offsetInCU: 0x34574, offset: 0x1E26B0, size: 0x8, addend: 0x0, symName: '__ZN3syn10punctuated23Punctuated$LT$T$C$P$GT$10push_value17h19b8fd7bec07dcc7E', symObjAddr: 0x9E00, symBinAddr: 0x5DEF0, symSize: 0x0 }
  - { offsetInCU: 0x34809, offset: 0x1E2945, size: 0x8, addend: 0x0, symName: '__ZN3syn10punctuated23Punctuated$LT$T$C$P$GT$10push_value17h2ac8ee7d941e7bd6E', symObjAddr: 0x9F10, symBinAddr: 0x5E000, symSize: 0x110 }
  - { offsetInCU: 0x34A84, offset: 0x1E2BC0, size: 0x8, addend: 0x0, symName: '__ZN3syn10punctuated23Punctuated$LT$T$C$P$GT$10push_value17h4d756fff73ab62fcE', symObjAddr: 0xA020, symBinAddr: 0x5E110, symSize: 0x110 }
  - { offsetInCU: 0x34CFF, offset: 0x1E2E3B, size: 0x8, addend: 0x0, symName: '__ZN3syn10punctuated23Punctuated$LT$T$C$P$GT$10push_value17h922210f6ed64bedfE', symObjAddr: 0xA130, symBinAddr: 0x5E220, symSize: 0x110 }
  - { offsetInCU: 0x34F7A, offset: 0x1E30B6, size: 0x8, addend: 0x0, symName: '__ZN3syn10punctuated23Punctuated$LT$T$C$P$GT$10push_value17h9bf9b9eda25b7b08E', symObjAddr: 0xA240, symBinAddr: 0x5E330, symSize: 0x100 }
  - { offsetInCU: 0x351F4, offset: 0x1E3330, size: 0x8, addend: 0x0, symName: '__ZN3syn10punctuated23Punctuated$LT$T$C$P$GT$10push_value17ha11f44006af1fce5E', symObjAddr: 0xA340, symBinAddr: 0x5E430, symSize: 0x100 }
  - { offsetInCU: 0x35465, offset: 0x1E35A1, size: 0x8, addend: 0x0, symName: '__ZN3syn10punctuated23Punctuated$LT$T$C$P$GT$10push_value17hb125b8a2ccd1d083E', symObjAddr: 0xA440, symBinAddr: 0x5E530, symSize: 0x110 }
  - { offsetInCU: 0x357EA, offset: 0x1E3926, size: 0x8, addend: 0x0, symName: '__ZN3syn10punctuated23Punctuated$LT$T$C$P$GT$10push_value17hbe2de12ba6ba96f3E', symObjAddr: 0xA550, symBinAddr: 0x5E640, symSize: 0xD0 }
  - { offsetInCU: 0x35A5B, offset: 0x1E3B97, size: 0x8, addend: 0x0, symName: '__ZN3syn10punctuated23Punctuated$LT$T$C$P$GT$10push_value17hc84f0581e5006d1dE', symObjAddr: 0xA620, symBinAddr: 0x5E710, symSize: 0x110 }
  - { offsetInCU: 0x35CD6, offset: 0x1E3E12, size: 0x8, addend: 0x0, symName: '__ZN3syn10punctuated23Punctuated$LT$T$C$P$GT$10push_value17hc8f25dfb73f20dfeE', symObjAddr: 0xA730, symBinAddr: 0x5E820, symSize: 0xF0 }
  - { offsetInCU: 0x35F3A, offset: 0x1E4076, size: 0x8, addend: 0x0, symName: '__ZN3syn10punctuated23Punctuated$LT$T$C$P$GT$10push_value17hf794ec4a43a6463aE', symObjAddr: 0xA820, symBinAddr: 0x5E910, symSize: 0x110 }
  - { offsetInCU: 0x361CF, offset: 0x1E430B, size: 0x8, addend: 0x0, symName: '__ZN3syn10punctuated23Punctuated$LT$T$C$P$GT$10push_value17hfcd023ac5ed059ccE', symObjAddr: 0xA930, symBinAddr: 0x5EA20, symSize: 0x100 }
  - { offsetInCU: 0x3645A, offset: 0x1E4596, size: 0x8, addend: 0x0, symName: '__ZN3syn10punctuated23Punctuated$LT$T$C$P$GT$10push_punct17h009caae710d7fa9eE', symObjAddr: 0xAA30, symBinAddr: 0x5EB20, symSize: 0x120 }
  - { offsetInCU: 0x36839, offset: 0x1E4975, size: 0x8, addend: 0x0, symName: '__ZN3syn10punctuated23Punctuated$LT$T$C$P$GT$10push_punct17h466bf79492cbbcb5E', symObjAddr: 0xAB50, symBinAddr: 0x5EC40, symSize: 0x120 }
  - { offsetInCU: 0x36C32, offset: 0x1E4D6E, size: 0x8, addend: 0x0, symName: '__ZN3syn10punctuated23Punctuated$LT$T$C$P$GT$10push_punct17h4774822b9e0d6ec3E', symObjAddr: 0xAC70, symBinAddr: 0x5ED60, symSize: 0x120 }
  - { offsetInCU: 0x37004, offset: 0x1E5140, size: 0x8, addend: 0x0, symName: '__ZN3syn10punctuated23Punctuated$LT$T$C$P$GT$10push_punct17h61110cebcbc73b5eE', symObjAddr: 0xAD90, symBinAddr: 0x5EE80, symSize: 0x120 }
  - { offsetInCU: 0x373C3, offset: 0x1E54FF, size: 0x8, addend: 0x0, symName: '__ZN3syn10punctuated23Punctuated$LT$T$C$P$GT$10push_punct17h6c195d18e6105754E', symObjAddr: 0xAEB0, symBinAddr: 0x5EFA0, symSize: 0x120 }
  - { offsetInCU: 0x377EF, offset: 0x1E592B, size: 0x8, addend: 0x0, symName: '__ZN3syn10punctuated23Punctuated$LT$T$C$P$GT$10push_punct17h7570ad2eb8eda148E', symObjAddr: 0xAFD0, symBinAddr: 0x5F0C0, symSize: 0x140 }
  - { offsetInCU: 0x37D11, offset: 0x1E5E4D, size: 0x8, addend: 0x0, symName: '__ZN3syn10punctuated23Punctuated$LT$T$C$P$GT$10push_punct17h89b356a21cce1885E', symObjAddr: 0xB110, symBinAddr: 0x5F200, symSize: 0x120 }
  - { offsetInCU: 0x380F0, offset: 0x1E622C, size: 0x8, addend: 0x0, symName: '__ZN3syn10punctuated23Punctuated$LT$T$C$P$GT$10push_punct17h9b1d77aef8736936E', symObjAddr: 0xB230, symBinAddr: 0x5F320, symSize: 0x120 }
  - { offsetInCU: 0x384CF, offset: 0x1E660B, size: 0x8, addend: 0x0, symName: '__ZN3syn10punctuated23Punctuated$LT$T$C$P$GT$10push_punct17ha8c738426f753245E', symObjAddr: 0xB350, symBinAddr: 0x5F440, symSize: 0x120 }
  - { offsetInCU: 0x388AE, offset: 0x1E69EA, size: 0x8, addend: 0x0, symName: '__ZN3syn10punctuated23Punctuated$LT$T$C$P$GT$10push_punct17hb0fc5a7a37e2e4edE', symObjAddr: 0xB470, symBinAddr: 0x5F560, symSize: 0x120 }
  - { offsetInCU: 0x38C8D, offset: 0x1E6DC9, size: 0x8, addend: 0x0, symName: '__ZN3syn10punctuated23Punctuated$LT$T$C$P$GT$10push_punct17hb4e9855c6f264597E', symObjAddr: 0xB590, symBinAddr: 0x5F680, symSize: 0x120 }
  - { offsetInCU: 0x3906C, offset: 0x1E71A8, size: 0x8, addend: 0x0, symName: '__ZN3syn10punctuated23Punctuated$LT$T$C$P$GT$10push_punct17hbb75469815d830eaE', symObjAddr: 0xB6B0, symBinAddr: 0x5F7A0, symSize: 0x110 }
  - { offsetInCU: 0x3944D, offset: 0x1E7589, size: 0x8, addend: 0x0, symName: '__ZN3syn10punctuated23Punctuated$LT$T$C$P$GT$10push_punct17hc20d22090670493fE', symObjAddr: 0xB7C0, symBinAddr: 0x5F8B0, symSize: 0xF0 }
  - { offsetInCU: 0x3982C, offset: 0x1E7968, size: 0x8, addend: 0x0, symName: '__ZN3syn10punctuated23Punctuated$LT$T$C$P$GT$10push_punct17hc2ba07c343e9a099E', symObjAddr: 0xB8B0, symBinAddr: 0x5F9A0, symSize: 0xF0 }
  - { offsetInCU: 0x39C0B, offset: 0x1E7D47, size: 0x8, addend: 0x0, symName: '__ZN3syn10punctuated23Punctuated$LT$T$C$P$GT$10push_punct17hfbed3f5b6fa00fbfE', symObjAddr: 0xB9A0, symBinAddr: 0x5FA90, symSize: 0x120 }
  - { offsetInCU: 0x3A090, offset: 0x1E81CC, size: 0x8, addend: 0x0, symName: '__ZN3syn10punctuated23Punctuated$LT$T$C$P$GT$3pop17h69e8e60024538083E', symObjAddr: 0xBAC0, symBinAddr: 0x5FBB0, symSize: 0xA0 }
  - { offsetInCU: 0x3A48F, offset: 0x1E85CB, size: 0x8, addend: 0x0, symName: '__ZN3syn10punctuated23Punctuated$LT$T$C$P$GT$4push17hc1655cb815934489E', symObjAddr: 0xBB60, symBinAddr: 0x5FC50, symSize: 0x170 }
  - { offsetInCU: 0x3A85D, offset: 0x1E8999, size: 0x8, addend: 0x0, symName: '__ZN3syn10punctuated23Punctuated$LT$T$C$P$GT$21parse_terminated_with17h124b73cd374cc0f5E', symObjAddr: 0xBCD0, symBinAddr: 0x5FDC0, symSize: 0x220 }
  - { offsetInCU: 0x3AE23, offset: 0x1E8F5F, size: 0x8, addend: 0x0, symName: '__ZN3syn10punctuated23Punctuated$LT$T$C$P$GT$21parse_terminated_with17h7169b9f60635eaacE', symObjAddr: 0xBEF0, symBinAddr: 0x5FFE0, symSize: 0x3E0 }
  - { offsetInCU: 0x3B72D, offset: 0x1E9869, size: 0x8, addend: 0x0, symName: '__ZN3syn10punctuated23Punctuated$LT$T$C$P$GT$21parse_terminated_with17hf39ea62a3f36347dE', symObjAddr: 0xC2D0, symBinAddr: 0x603C0, symSize: 0x220 }
  - { offsetInCU: 0x3BCD9, offset: 0x1E9E15, size: 0x8, addend: 0x0, symName: '__ZN3syn10punctuated23Punctuated$LT$T$C$P$GT$21parse_terminated_with17hf813a9f490e11643E', symObjAddr: 0xC4F0, symBinAddr: 0x605E0, symSize: 0x3E0 }
  - { offsetInCU: 0x2689, offset: 0x1F0FFE, size: 0x8, addend: 0x0, symName: '__ZN3syn4expr8printing77_$LT$impl$u20$quote..to_tokens..ToTokens$u20$for$u20$syn..expr..ExprArray$GT$9to_tokens17h2ef9833ff7ff7fceE', symObjAddr: 0x10970, symBinAddr: 0x6F3D0, symSize: 0x90 }
  - { offsetInCU: 0x2853, offset: 0x1F11C8, size: 0x8, addend: 0x0, symName: '__ZN3syn4expr8printing77_$LT$impl$u20$quote..to_tokens..ToTokens$u20$for$u20$syn..expr..ExprAsync$GT$9to_tokens17h2495d6e29bb4a201E', symObjAddr: 0x10A10, symBinAddr: 0x6F460, symSize: 0x170 }
  - { offsetInCU: 0x2D06, offset: 0x1F167B, size: 0x8, addend: 0x0, symName: '__ZN3syn4expr8printing77_$LT$impl$u20$quote..to_tokens..ToTokens$u20$for$u20$syn..expr..ExprBlock$GT$9to_tokens17hdd73246d789555d5E', symObjAddr: 0x10BA0, symBinAddr: 0x6F5D0, symSize: 0x100 }
  - { offsetInCU: 0x308D, offset: 0x1F1A02, size: 0x8, addend: 0x0, symName: '__ZN3syn4expr8printing79_$LT$impl$u20$quote..to_tokens..ToTokens$u20$for$u20$syn..expr..ExprClosure$GT$9to_tokens17h0d6ce1172208619dE', symObjAddr: 0x10CD0, symBinAddr: 0x6F6D0, symSize: 0x400 }
  - { offsetInCU: 0x3CC1, offset: 0x1F2636, size: 0x8, addend: 0x0, symName: '__ZN3syn4expr8printing77_$LT$impl$u20$quote..to_tokens..ToTokens$u20$for$u20$syn..expr..ExprConst$GT$9to_tokens17hcaf2e3202a16c77aE', symObjAddr: 0x110D0, symBinAddr: 0x6FAD0, symSize: 0x100 }
  - { offsetInCU: 0x3F70, offset: 0x1F28E5, size: 0x8, addend: 0x0, symName: '__ZN3syn4expr8printing80_$LT$impl$u20$quote..to_tokens..ToTokens$u20$for$u20$syn..expr..ExprContinue$GT$9to_tokens17hebd76b9e5d479ff4E', symObjAddr: 0x111D0, symBinAddr: 0x6FBD0, symSize: 0x140 }
  - { offsetInCU: 0x439F, offset: 0x1F2D14, size: 0x8, addend: 0x0, symName: '__ZN3syn4expr8printing77_$LT$impl$u20$quote..to_tokens..ToTokens$u20$for$u20$syn..expr..ExprGroup$GT$9to_tokens17h43695a0f104bbad3E', symObjAddr: 0x11560, symBinAddr: 0x6FD10, symSize: 0x90 }
  - { offsetInCU: 0x453C, offset: 0x1F2EB1, size: 0x8, addend: 0x0, symName: '__ZN3syn4expr8printing74_$LT$impl$u20$quote..to_tokens..ToTokens$u20$for$u20$syn..expr..ExprIf$GT$9to_tokens17h925864585cd53cb7E', symObjAddr: 0x115F0, symBinAddr: 0x6FDA0, symSize: 0x3D0 }
  - { offsetInCU: 0x5024, offset: 0x1F3999, size: 0x8, addend: 0x0, symName: '__ZN3syn4expr8printing77_$LT$impl$u20$quote..to_tokens..ToTokens$u20$for$u20$syn..expr..ExprInfer$GT$9to_tokens17he40a1f0c107707dbE', symObjAddr: 0x119D0, symBinAddr: 0x70170, symSize: 0xF0 }
  - { offsetInCU: 0x52D0, offset: 0x1F3C45, size: 0x8, addend: 0x0, symName: '__ZN3syn4expr8printing75_$LT$impl$u20$quote..to_tokens..ToTokens$u20$for$u20$syn..expr..ExprLit$GT$9to_tokens17ha9f3a462aa7f9b8cE', symObjAddr: 0x11AD0, symBinAddr: 0x70260, symSize: 0x80 }
  - { offsetInCU: 0x5463, offset: 0x1F3DD8, size: 0x8, addend: 0x0, symName: '__ZN3syn4expr8printing76_$LT$impl$u20$quote..to_tokens..ToTokens$u20$for$u20$syn..expr..ExprLoop$GT$9to_tokens17hc6f1b6becf15eae4E', symObjAddr: 0x11B50, symBinAddr: 0x702E0, symSize: 0x170 }
  - { offsetInCU: 0x5881, offset: 0x1F41F6, size: 0x8, addend: 0x0, symName: '__ZN3syn4expr8printing77_$LT$impl$u20$quote..to_tokens..ToTokens$u20$for$u20$syn..expr..ExprMacro$GT$9to_tokens17h1aad6dcc7b88acf6E', symObjAddr: 0x11CC0, symBinAddr: 0x70450, symSize: 0x90 }
  - { offsetInCU: 0x5A6C, offset: 0x1F43E1, size: 0x8, addend: 0x0, symName: '__ZN3syn4expr8printing77_$LT$impl$u20$quote..to_tokens..ToTokens$u20$for$u20$syn..expr..ExprParen$GT$9to_tokens17hf25c89af93be7f23E', symObjAddr: 0x11ED0, symBinAddr: 0x704E0, symSize: 0x90 }
  - { offsetInCU: 0x5C09, offset: 0x1F457E, size: 0x8, addend: 0x0, symName: '__ZN3syn4expr8printing76_$LT$impl$u20$quote..to_tokens..ToTokens$u20$for$u20$syn..expr..ExprPath$GT$9to_tokens17hab4f628f5b9ed40bE', symObjAddr: 0x11F60, symBinAddr: 0x70570, symSize: 0x90 }
  - { offsetInCU: 0x5DF6, offset: 0x1F476B, size: 0x8, addend: 0x0, symName: '__ZN3syn4expr8printing78_$LT$impl$u20$quote..to_tokens..ToTokens$u20$for$u20$syn..expr..ExprRepeat$GT$9to_tokens17h7f259068e0bd4858E', symObjAddr: 0x12010, symBinAddr: 0x70600, symSize: 0x90 }
  - { offsetInCU: 0x5FB4, offset: 0x1F4929, size: 0x8, addend: 0x0, symName: '__ZN3syn4expr8printing78_$LT$impl$u20$quote..to_tokens..ToTokens$u20$for$u20$syn..expr..ExprStruct$GT$9to_tokens17h572ac1509ac9915cE', symObjAddr: 0x120B0, symBinAddr: 0x70690, symSize: 0xA0 }
  - { offsetInCU: 0x6175, offset: 0x1F4AEA, size: 0x8, addend: 0x0, symName: '__ZN3syn4expr8printing80_$LT$impl$u20$quote..to_tokens..ToTokens$u20$for$u20$syn..expr..ExprTryBlock$GT$9to_tokens17h33126d9a5af6a3b9E', symObjAddr: 0x12160, symBinAddr: 0x70730, symSize: 0x100 }
  - { offsetInCU: 0x644A, offset: 0x1F4DBF, size: 0x8, addend: 0x0, symName: '__ZN3syn4expr8printing77_$LT$impl$u20$quote..to_tokens..ToTokens$u20$for$u20$syn..expr..ExprTuple$GT$9to_tokens17h802dba8012b208d4E', symObjAddr: 0x12260, symBinAddr: 0x70830, symSize: 0x90 }
  - { offsetInCU: 0x6608, offset: 0x1F4F7D, size: 0x8, addend: 0x0, symName: '__ZN3syn4expr8printing78_$LT$impl$u20$quote..to_tokens..ToTokens$u20$for$u20$syn..expr..ExprUnsafe$GT$9to_tokens17h40aedefd13b3e1e7E', symObjAddr: 0x12300, symBinAddr: 0x708C0, symSize: 0x100 }
  - { offsetInCU: 0x6911, offset: 0x1F5286, size: 0x8, addend: 0x0, symName: '__ZN3syn4expr8printing71_$LT$impl$u20$quote..to_tokens..ToTokens$u20$for$u20$syn..expr..Arm$GT$9to_tokens17h78a0e9de12a0eb67E', symObjAddr: 0x125E0, symBinAddr: 0x709C0, symSize: 0x180 }
  - { offsetInCU: 0x6CBC, offset: 0x1F5631, size: 0x8, addend: 0x0, symName: '__ZN3syn4expr8printing74_$LT$impl$u20$quote..to_tokens..ToTokens$u20$for$u20$syn..expr..Member$GT$9to_tokens17hfcc2f8d0a07457a9E', symObjAddr: 0x12970, symBinAddr: 0x70B40, symSize: 0xD0 }
  - { offsetInCU: 0x6F82, offset: 0x1F58F7, size: 0x8, addend: 0x0, symName: '__ZN3syn4expr7parsing63_$LT$impl$u20$syn..parse..Parse$u20$for$u20$syn..expr..Expr$GT$5parse17h55500ba46fd3498aE', symObjAddr: 0x92A0, symBinAddr: 0x68B30, symSize: 0x100 }
  - { offsetInCU: 0x702A, offset: 0x1F599F, size: 0x8, addend: 0x0, symName: '__ZN3syn4expr7parsing66_$LT$impl$u20$syn..parse..Parse$u20$for$u20$syn..expr..ExprLit$GT$5parse17h503d2569d625f8d4E', symObjAddr: 0x9D30, symBinAddr: 0x68C30, symSize: 0xD0 }
  - { offsetInCU: 0x710A, offset: 0x1F5A7F, size: 0x8, addend: 0x0, symName: '__ZN3syn4expr7parsing65_$LT$impl$u20$syn..parse..Parse$u20$for$u20$syn..expr..ExprIf$GT$5parse17h47168d1e46c083ceE', symObjAddr: 0x9E40, symBinAddr: 0x68D00, symSize: 0x1070 }
  - { offsetInCU: 0x9892, offset: 0x1F8207, size: 0x8, addend: 0x0, symName: '__ZN3syn4expr7parsing68_$LT$impl$u20$syn..parse..Parse$u20$for$u20$syn..expr..ExprInfer$GT$5parse17h96cf775fe66799ebE', symObjAddr: 0xAEB0, symBinAddr: 0x69D70, symSize: 0x190 }
  - { offsetInCU: 0x9C05, offset: 0x1F857A, size: 0x8, addend: 0x0, symName: '__ZN3syn4expr7parsing70_$LT$impl$u20$syn..parse..Parse$u20$for$u20$syn..expr..ExprForLoop$GT$5parse17hce5f73eac4ad2dc4E', symObjAddr: 0xB040, symBinAddr: 0x69F00, symSize: 0x9F0 }
  - { offsetInCU: 0xAE05, offset: 0x1F977A, size: 0x8, addend: 0x0, symName: '__ZN3syn4expr7parsing67_$LT$impl$u20$syn..parse..Parse$u20$for$u20$syn..expr..ExprLoop$GT$5parse17h1aa74e5d000da669E', symObjAddr: 0xBA30, symBinAddr: 0x6A8F0, symSize: 0x600 }
  - { offsetInCU: 0xBA59, offset: 0x1FA3CE, size: 0x8, addend: 0x0, symName: '__ZN3syn4expr7parsing68_$LT$impl$u20$syn..parse..Parse$u20$for$u20$syn..expr..ExprMatch$GT$5parse17h352dd08cf5c0778bE', symObjAddr: 0xC030, symBinAddr: 0x6AEF0, symSize: 0x7F0 }
  - { offsetInCU: 0xC42C, offset: 0x1FADA1, size: 0x8, addend: 0x0, symName: '__ZN3syn4expr7parsing69_$LT$impl$u20$syn..parse..Parse$u20$for$u20$syn..expr..ExprReturn$GT$5parse17h3d5bc077999de314E', symObjAddr: 0xCB30, symBinAddr: 0x6B6E0, symSize: 0x110 }
  - { offsetInCU: 0xC612, offset: 0x1FAF87, size: 0x8, addend: 0x0, symName: '__ZN3syn4expr7parsing71_$LT$impl$u20$syn..parse..Parse$u20$for$u20$syn..expr..ExprTryBlock$GT$5parse17hce262d6454af1d4eE', symObjAddr: 0xCC40, symBinAddr: 0x6B7F0, symSize: 0x140 }
  - { offsetInCU: 0xC793, offset: 0x1FB108, size: 0x8, addend: 0x0, symName: '__ZN3syn4expr7parsing68_$LT$impl$u20$syn..parse..Parse$u20$for$u20$syn..expr..ExprYield$GT$5parse17h17c1f052e1267cf9E', symObjAddr: 0xCD80, symBinAddr: 0x6B930, symSize: 0x110 }
  - { offsetInCU: 0xC987, offset: 0x1FB2FC, size: 0x8, addend: 0x0, symName: '__ZN3syn4expr7parsing68_$LT$impl$u20$syn..parse..Parse$u20$for$u20$syn..expr..ExprAsync$GT$5parse17h950490ecfb80e9a1E', symObjAddr: 0xCE90, symBinAddr: 0x6BA40, symSize: 0x1C0 }
  - { offsetInCU: 0xCC8B, offset: 0x1FB600, size: 0x8, addend: 0x0, symName: '__ZN3syn4expr7parsing68_$LT$impl$u20$syn..parse..Parse$u20$for$u20$syn..expr..ExprWhile$GT$5parse17h571b14b3fd0af108E', symObjAddr: 0xD050, symBinAddr: 0x6BC00, symSize: 0x910 }
  - { offsetInCU: 0xDB1C, offset: 0x1FC491, size: 0x8, addend: 0x0, symName: '__ZN3syn4expr7parsing68_$LT$impl$u20$syn..parse..Parse$u20$for$u20$syn..expr..ExprConst$GT$5parse17h01369ed4345e6402E', symObjAddr: 0xD960, symBinAddr: 0x6C510, symSize: 0x4B0 }
  - { offsetInCU: 0xE444, offset: 0x1FCDB9, size: 0x8, addend: 0x0, symName: '__ZN3syn4expr7parsing64_$LT$impl$u20$syn..parse..Parse$u20$for$u20$syn..expr..Label$GT$5parse17h93d18de187bdc41eE', symObjAddr: 0xDE10, symBinAddr: 0x6C9C0, symSize: 0x1D0 }
  - { offsetInCU: 0xE990, offset: 0x1FD305, size: 0x8, addend: 0x0, symName: '__ZN3syn4expr7parsing71_$LT$impl$u20$syn..parse..Parse$u20$for$u20$syn..expr..ExprContinue$GT$5parse17he5af0a754429df94E', symObjAddr: 0xDFE0, symBinAddr: 0x6CB90, symSize: 0x1A0 }
  - { offsetInCU: 0xEB0C, offset: 0x1FD481, size: 0x8, addend: 0x0, symName: '__ZN3syn4expr7parsing69_$LT$impl$u20$syn..parse..Parse$u20$for$u20$syn..expr..FieldValue$GT$5parse17h9c84ab0cc06aa064E', symObjAddr: 0xE180, symBinAddr: 0x6CD30, symSize: 0x660 }
  - { offsetInCU: 0xF4F6, offset: 0x1FDE6B, size: 0x8, addend: 0x0, symName: '__ZN3syn4expr7parsing69_$LT$impl$u20$syn..parse..Parse$u20$for$u20$syn..expr..ExprUnsafe$GT$5parse17he7d1a74465ffba81E', symObjAddr: 0xE930, symBinAddr: 0x6D390, symSize: 0x4B0 }
  - { offsetInCU: 0xFE1E, offset: 0x1FE793, size: 0x8, addend: 0x0, symName: '__ZN3syn4expr7parsing68_$LT$impl$u20$syn..parse..Parse$u20$for$u20$syn..expr..ExprBlock$GT$5parse17h74103f700210131fE', symObjAddr: 0xEDE0, symBinAddr: 0x6D840, symSize: 0x5E0 }
  - { offsetInCU: 0x10CB7, offset: 0x1FF62C, size: 0x8, addend: 0x0, symName: '__ZN3syn4expr7parsing70_$LT$impl$u20$syn..parse..Parse$u20$for$u20$syn..expr..RangeLimits$GT$5parse17hef78e73737c0f24cE', symObjAddr: 0xF3C0, symBinAddr: 0x6DE20, symSize: 0x2F0 }
  - { offsetInCU: 0x118E4, offset: 0x200259, size: 0x8, addend: 0x0, symName: '__ZN3syn4expr7parsing67_$LT$impl$u20$syn..parse..Parse$u20$for$u20$syn..expr..ExprPath$GT$5parse17haeeb72b62ac51e5cE', symObjAddr: 0xFA40, symBinAddr: 0x6E4A0, symSize: 0x2B0 }
  - { offsetInCU: 0x11CAF, offset: 0x200624, size: 0x8, addend: 0x0, symName: '__ZN3syn4expr7parsing65_$LT$impl$u20$syn..parse..Parse$u20$for$u20$syn..expr..Member$GT$5parse17h60bbc140c6d22534E', symObjAddr: 0xFCF0, symBinAddr: 0x6E750, symSize: 0x110 }
  - { offsetInCU: 0x11F03, offset: 0x200878, size: 0x8, addend: 0x0, symName: '__ZN3syn4expr7parsing62_$LT$impl$u20$syn..parse..Parse$u20$for$u20$syn..expr..Arm$GT$5parse17hbd2ba360fcc9627cE', symObjAddr: 0xFE00, symBinAddr: 0x6E860, symSize: 0x900 }
  - { offsetInCU: 0x12D25, offset: 0x20169A, size: 0x8, addend: 0x0, symName: '__ZN3syn4expr7parsing64_$LT$impl$u20$syn..parse..Parse$u20$for$u20$syn..expr..Index$GT$5parse17h213ef4a079d37babE', symObjAddr: 0x10700, symBinAddr: 0x6F160, symSize: 0x270 }
  - { offsetInCU: 0x13412, offset: 0x201D87, size: 0x8, addend: 0x0, symName: '__ZN62_$LT$syn..expr..Expr$u20$as$u20$quote..to_tokens..ToTokens$GT$9to_tokens17h69a442f5848eec7cE', symObjAddr: 0x12AD0, symBinAddr: 0x70C10, symSize: 0x2F80 }
  - { offsetInCU: 0x2084C, offset: 0x20F1C1, size: 0x8, addend: 0x0, symName: '__ZN4core3ptr100drop_in_place$LT$core..option..Option$LT$alloc..boxed..Box$LT$syn..path..GenericArgument$GT$$GT$$GT$17h7435c9de74860622E', symObjAddr: 0x150, symBinAddr: 0x61250, symSize: 0x50 }
  - { offsetInCU: 0x20BEC, offset: 0x20F561, size: 0x8, addend: 0x0, symName: '__ZN4core3ptr100drop_in_place$LT$syn..punctuated..Punctuated$LT$syn..path..PathSegment$C$syn..token..PathSep$GT$$GT$17hf414cb3581f8337aE', symObjAddr: 0x1A0, symBinAddr: 0x612A0, symSize: 0x260 }
  - { offsetInCU: 0x21585, offset: 0x20FEFA, size: 0x8, addend: 0x0, symName: '__ZN4core3ptr103drop_in_place$LT$core..option..Option$LT$alloc..boxed..Box$LT$syn..generics..TypeParamBound$GT$$GT$$GT$17h5974f03e36b1a9c3E', symObjAddr: 0x400, symBinAddr: 0x61500, symSize: 0x50 }
  - { offsetInCU: 0x21792, offset: 0x210107, size: 0x8, addend: 0x0, symName: '__ZN4core3ptr103drop_in_place$LT$syn..punctuated..Punctuated$LT$syn..generics..GenericParam$C$syn..token..Comma$GT$$GT$17hf42353fa44ed6da8E', symObjAddr: 0x450, symBinAddr: 0x61550, symSize: 0xF0 }
  - { offsetInCU: 0x21C55, offset: 0x2105CA, size: 0x8, addend: 0x0, symName: '__ZN4core3ptr104drop_in_place$LT$syn..punctuated..Punctuated$LT$syn..generics..TypeParamBound$C$syn..token..Plus$GT$$GT$17h532f52c4a894b056E', symObjAddr: 0x540, symBinAddr: 0x61640, symSize: 0x190 }
  - { offsetInCU: 0x2224C, offset: 0x210BC1, size: 0x8, addend: 0x0, symName: '__ZN4core3ptr114drop_in_place$LT$core..option..Option$LT$$LP$syn..token..If$C$alloc..boxed..Box$LT$syn..expr..Expr$GT$$RP$$GT$$GT$17hd695c14b2d7f5b56E.llvm.589876701818171446', symObjAddr: 0x6D0, symBinAddr: 0x617D0, symSize: 0x50 }
  - { offsetInCU: 0x223E2, offset: 0x210D57, size: 0x8, addend: 0x0, symName: '__ZN4core3ptr116drop_in_place$LT$core..option..Option$LT$$LP$syn..token..Else$C$alloc..boxed..Box$LT$syn..expr..Expr$GT$$RP$$GT$$GT$17hce47d33a8602d206E', symObjAddr: 0x720, symBinAddr: 0x61820, symSize: 0x50 }
  - { offsetInCU: 0x2261C, offset: 0x210F91, size: 0x8, addend: 0x0, symName: '__ZN4core3ptr34drop_in_place$LT$syn..lit..Lit$GT$17h8902f5ff67917034E.llvm.589876701818171446', symObjAddr: 0x770, symBinAddr: 0x61870, symSize: 0x110 }
  - { offsetInCU: 0x22B56, offset: 0x2114CB, size: 0x8, addend: 0x0, symName: '__ZN4core3ptr34drop_in_place$LT$syn..pat..Pat$GT$17h4581eea028ec0969E.llvm.589876701818171446', symObjAddr: 0x880, symBinAddr: 0x61980, symSize: 0x1000 }
  - { offsetInCU: 0x2667B, offset: 0x214FF0, size: 0x8, addend: 0x0, symName: '__ZN4core3ptr34drop_in_place$LT$syn..ty..Type$GT$17h369e41ad4a9f1ae0E.llvm.589876701818171446', symObjAddr: 0x1880, symBinAddr: 0x62980, symSize: 0x4F0 }
  - { offsetInCU: 0x27615, offset: 0x215F8A, size: 0x8, addend: 0x0, symName: '__ZN4core3ptr35drop_in_place$LT$syn..expr..Arm$GT$17hf2baebe0cd7aed98E', symObjAddr: 0x1D70, symBinAddr: 0x62E70, symSize: 0x180 }
  - { offsetInCU: 0x280C7, offset: 0x216A3C, size: 0x8, addend: 0x0, symName: '__ZN4core3ptr36drop_in_place$LT$syn..expr..Expr$GT$17h0f7fd4c749bae801E.llvm.589876701818171446', symObjAddr: 0x1EF0, symBinAddr: 0x62FF0, symSize: 0x2600 }
  - { offsetInCU: 0x30972, offset: 0x21F2E7, size: 0x8, addend: 0x0, symName: '__ZN4core3ptr36drop_in_place$LT$syn..mac..Macro$GT$17h4ffde962df30ebe2E.llvm.589876701818171446', symObjAddr: 0x44F0, symBinAddr: 0x655F0, symSize: 0x40 }
  - { offsetInCU: 0x309AC, offset: 0x21F321, size: 0x8, addend: 0x0, symName: '__ZN4core3ptr36drop_in_place$LT$syn..path..Path$GT$17habea856181211e1cE.llvm.589876701818171446', symObjAddr: 0x4530, symBinAddr: 0x65630, symSize: 0x220 }
  - { offsetInCU: 0x3131F, offset: 0x21FC94, size: 0x8, addend: 0x0, symName: '__ZN4core3ptr37drop_in_place$LT$syn..lit..LitInt$GT$17hdc2cb2f4b64b71f3E', symObjAddr: 0x4750, symBinAddr: 0x65850, symSize: 0x70 }
  - { offsetInCU: 0x3169F, offset: 0x220014, size: 0x8, addend: 0x0, symName: '__ZN4core3ptr37drop_in_place$LT$syn..stmt..Block$GT$17hcc21a21cf949414cE.llvm.589876701818171446', symObjAddr: 0x47C0, symBinAddr: 0x658C0, symSize: 0xD0 }
  - { offsetInCU: 0x31962, offset: 0x2202D7, size: 0x8, addend: 0x0, symName: '__ZN4core3ptr38drop_in_place$LT$syn..expr..ExprIf$GT$17h01a54a489d798b2dE', symObjAddr: 0x4890, symBinAddr: 0x65990, symSize: 0x200 }
  - { offsetInCU: 0x3218B, offset: 0x220B00, size: 0x8, addend: 0x0, symName: '__ZN4core3ptr38drop_in_place$LT$syn..expr..Member$GT$17h022cbe5553aa40faE.llvm.589876701818171446', symObjAddr: 0x4A90, symBinAddr: 0x65B90, symSize: 0x30 }
  - { offsetInCU: 0x32288, offset: 0x220BFD, size: 0x8, addend: 0x0, symName: '__ZN4core3ptr39drop_in_place$LT$proc_macro2..Ident$GT$17h8101e88c3ac359d6E', symObjAddr: 0x4AD0, symBinAddr: 0x65BC0, symSize: 0x30 }
  - { offsetInCU: 0x32366, offset: 0x220CDB, size: 0x8, addend: 0x0, symName: '__ZN4core3ptr40drop_in_place$LT$syn..ty..ReturnType$GT$17h02cf41e2fec63d90E', symObjAddr: 0x4E70, symBinAddr: 0x65BF0, symSize: 0x50 }
  - { offsetInCU: 0x324D8, offset: 0x220E4D, size: 0x8, addend: 0x0, symName: '__ZN4core3ptr41drop_in_place$LT$syn..expr..ExprConst$GT$17h725a13e551d9f276E', symObjAddr: 0x4EC0, symBinAddr: 0x65C40, symSize: 0x180 }
  - { offsetInCU: 0x32A2D, offset: 0x2213A2, size: 0x8, addend: 0x0, symName: '__ZN4core3ptr44drop_in_place$LT$syn..lifetime..Lifetime$GT$17hf0cdec2e9ec456d6E', symObjAddr: 0x5770, symBinAddr: 0x65DC0, symSize: 0x30 }
  - { offsetInCU: 0x32BA6, offset: 0x22151B, size: 0x8, addend: 0x0, symName: '__ZN4core3ptr44drop_in_place$LT$syn..parse..ParseBuffer$GT$17hd0dadba44a19aec2E', symObjAddr: 0x57A0, symBinAddr: 0x65DF0, symSize: 0x70 }
  - { offsetInCU: 0x32FDB, offset: 0x221950, size: 0x8, addend: 0x0, symName: '__ZN4core3ptr45drop_in_place$LT$proc_macro2..TokenStream$GT$17h3405f6c513e9f6cbE.llvm.589876701818171446', symObjAddr: 0x5810, symBinAddr: 0x65E60, symSize: 0x140 }
  - { offsetInCU: 0x3344A, offset: 0x221DBF, size: 0x8, addend: 0x0, symName: '__ZN4core3ptr45drop_in_place$LT$syn..generics..TypeParam$GT$17he5eda51070b7de47E', symObjAddr: 0x5950, symBinAddr: 0x65FA0, symSize: 0x230 }
  - { offsetInCU: 0x33CA3, offset: 0x222618, size: 0x8, addend: 0x0, symName: '__ZN4core3ptr46drop_in_place$LT$syn..expr..ExprMethodCall$GT$17hdf90cc01d847f3e4E', symObjAddr: 0x5B80, symBinAddr: 0x661D0, symSize: 0x320 }
  - { offsetInCU: 0x34A2E, offset: 0x2233A3, size: 0x8, addend: 0x0, symName: '__ZN4core3ptr46drop_in_place$LT$syn..generics..ConstParam$GT$17hab0a58c4af8c549cE', symObjAddr: 0x5EA0, symBinAddr: 0x664F0, symSize: 0x150 }
  - { offsetInCU: 0x34ED4, offset: 0x223849, size: 0x8, addend: 0x0, symName: '__ZN4core3ptr47drop_in_place$LT$syn..path..GenericArgument$GT$17h54f8794633f96823E', symObjAddr: 0x6020, symBinAddr: 0x66640, symSize: 0x4A0 }
  - { offsetInCU: 0x35F7B, offset: 0x2248F0, size: 0x8, addend: 0x0, symName: '__ZN4core3ptr49drop_in_place$LT$syn..generics..LifetimeParam$GT$17h41a7c7a290ea6289E', symObjAddr: 0x64C0, symBinAddr: 0x66AE0, symSize: 0xF0 }
  - { offsetInCU: 0x36335, offset: 0x224CAA, size: 0x8, addend: 0x0, symName: '__ZN4core3ptr50drop_in_place$LT$syn..generics..TypeParamBound$GT$17hcd7771d4c6c221efE', symObjAddr: 0x65B0, symBinAddr: 0x66BD0, symSize: 0x160 }
  - { offsetInCU: 0x36755, offset: 0x2250CA, size: 0x8, addend: 0x0, symName: '__ZN4core3ptr58drop_in_place$LT$alloc..vec..Vec$LT$syn..expr..Arm$GT$$GT$17h1a55df3d2cba1daaE', symObjAddr: 0x6710, symBinAddr: 0x66D30, symSize: 0xD0 }
  - { offsetInCU: 0x369E2, offset: 0x225357, size: 0x8, addend: 0x0, symName: '__ZN4core3ptr59drop_in_place$LT$alloc..boxed..Box$LT$syn..pat..Pat$GT$$GT$17h563b135d87aca8abE', symObjAddr: 0x67E0, symBinAddr: 0x66E00, symSize: 0x50 }
  - { offsetInCU: 0x36B3D, offset: 0x2254B2, size: 0x8, addend: 0x0, symName: '__ZN4core3ptr59drop_in_place$LT$alloc..boxed..Box$LT$syn..ty..Type$GT$$GT$17hffed36bad83adacbE', symObjAddr: 0x6830, symBinAddr: 0x66E50, symSize: 0x50 }
  - { offsetInCU: 0x36C98, offset: 0x22560D, size: 0x8, addend: 0x0, symName: '__ZN4core3ptr59drop_in_place$LT$alloc..vec..Vec$LT$syn..stmt..Stmt$GT$$GT$17hb5c1acf3c61c43e2E', symObjAddr: 0x6880, symBinAddr: 0x66EA0, symSize: 0xD0 }
  - { offsetInCU: 0x36F25, offset: 0x22589A, size: 0x8, addend: 0x0, symName: '__ZN4core3ptr61drop_in_place$LT$alloc..boxed..Box$LT$syn..expr..Expr$GT$$GT$17h01091e47f131475dE', symObjAddr: 0x6950, symBinAddr: 0x66F70, symSize: 0x50 }
  - { offsetInCU: 0x3709F, offset: 0x225A14, size: 0x8, addend: 0x0, symName: '__ZN4core3ptr61drop_in_place$LT$alloc..vec..Vec$LT$syn..expr..ExprIf$GT$$GT$17h0c094efa3006c900E', symObjAddr: 0x69A0, symBinAddr: 0x66FC0, symSize: 0xD0 }
  - { offsetInCU: 0x373A8, offset: 0x225D1D, size: 0x8, addend: 0x0, symName: '__ZN4core3ptr61drop_in_place$LT$syn..path..ParenthesizedGenericArguments$GT$17h43d4aac5494326a7E', symObjAddr: 0x6A70, symBinAddr: 0x67090, symSize: 0x170 }
  - { offsetInCU: 0x3796F, offset: 0x2262E4, size: 0x8, addend: 0x0, symName: '__ZN4core3ptr62drop_in_place$LT$syn..path..AngleBracketedGenericArguments$GT$17hc5b69f68243636ddE', symObjAddr: 0x6BE0, symBinAddr: 0x67200, symSize: 0x120 }
  - { offsetInCU: 0x37D85, offset: 0x2266FA, size: 0x8, addend: 0x0, symName: '__ZN4core3ptr63drop_in_place$LT$alloc..boxed..Box$LT$syn..lit..LitRepr$GT$$GT$17hd8839b7fb35ee7afE', symObjAddr: 0x6D00, symBinAddr: 0x67320, symSize: 0x60 }
  - { offsetInCU: 0x3807A, offset: 0x2269EF, size: 0x8, addend: 0x0, symName: '__ZN4core3ptr64drop_in_place$LT$alloc..boxed..Box$LT$syn..pat..FieldPat$GT$$GT$17h4980b70a7597cc08E', symObjAddr: 0x6D60, symBinAddr: 0x67380, symSize: 0x140 }
  - { offsetInCU: 0x38725, offset: 0x22709A, size: 0x8, addend: 0x0, symName: '__ZN4core3ptr64drop_in_place$LT$alloc..boxed..Box$LT$syn..ty..BareFnArg$GT$$GT$17h8b34096c620314efE', symObjAddr: 0x6EA0, symBinAddr: 0x674C0, symSize: 0x140 }
  - { offsetInCU: 0x38C49, offset: 0x2275BE, size: 0x8, addend: 0x0, symName: '__ZN4core3ptr64drop_in_place$LT$alloc..vec..Vec$LT$syn..attr..Attribute$GT$$GT$17h3c8f2a04e701c675E.llvm.589876701818171446', symObjAddr: 0x6FE0, symBinAddr: 0x67600, symSize: 0xD0 }
  - { offsetInCU: 0x38ED6, offset: 0x22784B, size: 0x8, addend: 0x0, symName: '__ZN4core3ptr65drop_in_place$LT$core..option..Option$LT$syn..expr..Label$GT$$GT$17h78189e72a8cb7951E', symObjAddr: 0x70B0, symBinAddr: 0x676D0, symSize: 0x30 }
  - { offsetInCU: 0x39011, offset: 0x227986, size: 0x8, addend: 0x0, symName: '__ZN4core3ptr65drop_in_place$LT$core..option..Option$LT$syn..path..QSelf$GT$$GT$17h9b72552ca06b7379E.llvm.589876701818171446', symObjAddr: 0x70E0, symBinAddr: 0x67700, symSize: 0x50 }
  - { offsetInCU: 0x391AA, offset: 0x227B1F, size: 0x8, addend: 0x0, symName: '__ZN4core3ptr66drop_in_place$LT$core..option..Option$LT$syn..pat..PatRest$GT$$GT$17h61677cf4ff3a7393E', symObjAddr: 0x7130, symBinAddr: 0x67750, symSize: 0xE0 }
  - { offsetInCU: 0x3942E, offset: 0x227DA3, size: 0x8, addend: 0x0, symName: '__ZN4core3ptr67drop_in_place$LT$alloc..boxed..Box$LT$syn..expr..FieldValue$GT$$GT$17h93aaccf8aa22ef88E', symObjAddr: 0x7210, symBinAddr: 0x67830, symSize: 0x140 }
  - { offsetInCU: 0x39932, offset: 0x2282A7, size: 0x8, addend: 0x0, symName: '__ZN4core3ptr68drop_in_place$LT$alloc..boxed..Box$LT$syn..path..PathSegment$GT$$GT$17h709dabdc13b58a71E', symObjAddr: 0x7350, symBinAddr: 0x67970, symSize: 0x190 }
  - { offsetInCU: 0x3A010, offset: 0x228985, size: 0x8, addend: 0x0, symName: '__ZN4core3ptr70drop_in_place$LT$core..option..Option$LT$syn..ty..BareVariadic$GT$$GT$17h45399348ea4b8d55E', symObjAddr: 0x74E0, symBinAddr: 0x67B00, symSize: 0x120 }
  - { offsetInCU: 0x3A53D, offset: 0x228EB2, size: 0x8, addend: 0x0, symName: '__ZN4core3ptr72drop_in_place$LT$alloc..boxed..Box$LT$syn..path..GenericArgument$GT$$GT$17haa7dd8b716637b54E', symObjAddr: 0x7600, symBinAddr: 0x67C20, symSize: 0x1D0 }
  - { offsetInCU: 0x3AAE0, offset: 0x229455, size: 0x8, addend: 0x0, symName: '__ZN4core3ptr72drop_in_place$LT$core..option..Option$LT$syn..lifetime..Lifetime$GT$$GT$17hfc363ccdd8bd9c32E', symObjAddr: 0x77D0, symBinAddr: 0x67DF0, symSize: 0x30 }
  - { offsetInCU: 0x3ABFC, offset: 0x229571, size: 0x8, addend: 0x0, symName: '__ZN4core3ptr73drop_in_place$LT$alloc..boxed..Box$LT$syn..generics..GenericParam$GT$$GT$17hf6951dcd5ae07324E', symObjAddr: 0x7800, symBinAddr: 0x67E20, symSize: 0x80 }
  - { offsetInCU: 0x3AD74, offset: 0x2296E9, size: 0x8, addend: 0x0, symName: '__ZN4core3ptr75drop_in_place$LT$alloc..boxed..Box$LT$syn..generics..TypeParamBound$GT$$GT$17he61c00698a311a34E', symObjAddr: 0x7880, symBinAddr: 0x67EA0, symSize: 0xB0 }
  - { offsetInCU: 0x3B0CF, offset: 0x229A44, size: 0x8, addend: 0x0, symName: '__ZN4core3ptr86drop_in_place$LT$syn..punctuated..Punctuated$LT$syn..pat..Pat$C$syn..token..Or$GT$$GT$17h8e9173df21a44316E', symObjAddr: 0x7950, symBinAddr: 0x67F50, symSize: 0x120 }
  - { offsetInCU: 0x3B515, offset: 0x229E8A, size: 0x8, addend: 0x0, symName: '__ZN4core3ptr87drop_in_place$LT$core..option..Option$LT$alloc..boxed..Box$LT$syn..pat..Pat$GT$$GT$$GT$17hd7b7c69f601b3926E', symObjAddr: 0x7A70, symBinAddr: 0x68070, symSize: 0x50 }
  - { offsetInCU: 0x3B687, offset: 0x229FFC, size: 0x8, addend: 0x0, symName: '__ZN4core3ptr87drop_in_place$LT$core..option..Option$LT$alloc..boxed..Box$LT$syn..ty..Type$GT$$GT$$GT$17hd74f5d971aec2972E', symObjAddr: 0x7AC0, symBinAddr: 0x680C0, symSize: 0x50 }
  - { offsetInCU: 0x3B7F9, offset: 0x22A16E, size: 0x8, addend: 0x0, symName: '__ZN4core3ptr88drop_in_place$LT$$LP$syn..token..Else$C$alloc..boxed..Box$LT$syn..expr..Expr$GT$$RP$$GT$17hba8984e392f62c24E', symObjAddr: 0x7B10, symBinAddr: 0x68110, symSize: 0x50 }
  - { offsetInCU: 0x3B973, offset: 0x22A2E8, size: 0x8, addend: 0x0, symName: '__ZN4core3ptr89drop_in_place$LT$core..option..Option$LT$alloc..boxed..Box$LT$syn..expr..Expr$GT$$GT$$GT$17h8e135ac1a25a2dc5E.llvm.589876701818171446', symObjAddr: 0x7B60, symBinAddr: 0x68160, symSize: 0x50 }
  - { offsetInCU: 0x3BB23, offset: 0x22A498, size: 0x8, addend: 0x0, symName: '__ZN4core3ptr89drop_in_place$LT$syn..punctuated..Punctuated$LT$syn..pat..Pat$C$syn..token..Comma$GT$$GT$17h8d60e47f3fb1f87aE', symObjAddr: 0x7BB0, symBinAddr: 0x681B0, symSize: 0x120 }
  - { offsetInCU: 0x3BF80, offset: 0x22A8F5, size: 0x8, addend: 0x0, symName: '__ZN4core3ptr89drop_in_place$LT$syn..punctuated..Punctuated$LT$syn..ty..Type$C$syn..token..Comma$GT$$GT$17ha919b3114742fb9dE', symObjAddr: 0x7CD0, symBinAddr: 0x682D0, symSize: 0x120 }
  - { offsetInCU: 0x3C3CA, offset: 0x22AD3F, size: 0x8, addend: 0x0, symName: '__ZN4core3ptr91drop_in_place$LT$syn..punctuated..Punctuated$LT$syn..expr..Expr$C$syn..token..Comma$GT$$GT$17h4f39b83dc86a4159E', symObjAddr: 0x7F20, symBinAddr: 0x683F0, symSize: 0x120 }
  - { offsetInCU: 0x3C814, offset: 0x22B189, size: 0x8, addend: 0x0, symName: '__ZN4core3ptr94drop_in_place$LT$syn..punctuated..Punctuated$LT$syn..pat..FieldPat$C$syn..token..Comma$GT$$GT$17h112950ea198c8281E', symObjAddr: 0x8040, symBinAddr: 0x68510, symSize: 0xF0 }
  - { offsetInCU: 0x3CADE, offset: 0x22B453, size: 0x8, addend: 0x0, symName: '__ZN4core3ptr94drop_in_place$LT$syn..punctuated..Punctuated$LT$syn..ty..BareFnArg$C$syn..token..Comma$GT$$GT$17h1c7b44310f06243dE', symObjAddr: 0x8130, symBinAddr: 0x68600, symSize: 0xF0 }
  - { offsetInCU: 0x3CDA8, offset: 0x22B71D, size: 0x8, addend: 0x0, symName: '__ZN4core3ptr95drop_in_place$LT$core..option..Option$LT$$LP$proc_macro2..Ident$C$syn..token..Colon$RP$$GT$$GT$17ha744bf0f41959716E', symObjAddr: 0x8220, symBinAddr: 0x686F0, symSize: 0x30 }
  - { offsetInCU: 0x3CEC4, offset: 0x22B839, size: 0x8, addend: 0x0, symName: '__ZN4core3ptr96drop_in_place$LT$core..option..Option$LT$alloc..boxed..Box$LT$syn..path..PathSegment$GT$$GT$$GT$17hb447d0f626c86a4eE', symObjAddr: 0x8250, symBinAddr: 0x68720, symSize: 0x90 }
  - { offsetInCU: 0x3D146, offset: 0x22BABB, size: 0x8, addend: 0x0, symName: '__ZN4core3ptr97drop_in_place$LT$syn..punctuated..Punctuated$LT$syn..expr..FieldValue$C$syn..token..Comma$GT$$GT$17h31b81f7462228dcbE', symObjAddr: 0x82E0, symBinAddr: 0x687B0, symSize: 0xF0 }
  - { offsetInCU: 0x3D48C, offset: 0x22BE01, size: 0x8, addend: 0x0, symName: '__ZN4core3ptr98drop_in_place$LT$syn..punctuated..Punctuated$LT$syn..lifetime..Lifetime$C$syn..token..Plus$GT$$GT$17h0f8fc5f20f465f47E', symObjAddr: 0x83D0, symBinAddr: 0x688A0, symSize: 0xC0 }
  - { offsetInCU: 0x4511C, offset: 0x233A91, size: 0x8, addend: 0x0, symName: __ZN3syn4expr4Expr13replace_attrs17h8f3cf7f80b801d36E, symObjAddr: 0x8FE0, symBinAddr: 0x68960, symSize: 0x1D0 }
  - { offsetInCU: 0x46340, offset: 0x234CB5, size: 0x8, addend: 0x0, symName: '__ZN3syn4expr7parsing40_$LT$impl$u20$syn..expr..RangeLimits$GT$14parse_obsolete17he567255c2d646d59E', symObjAddr: 0xF6B0, symBinAddr: 0x6E110, symSize: 0x390 }
  - { offsetInCU: 0x1090, offset: 0x240F28, size: 0x8, addend: 0x0, symName: '__ZN42_$LT$$RF$T$u20$as$u20$core..fmt..Debug$GT$3fmt17he3619b2352a5e524E', symObjAddr: 0x180, symBinAddr: 0x73C30, symSize: 0x80 }
  - { offsetInCU: 0x283E, offset: 0x2426D6, size: 0x8, addend: 0x0, symName: '__ZN4core3ptr100drop_in_place$LT$core..option..Option$LT$alloc..boxed..Box$LT$syn..path..GenericArgument$GT$$GT$$GT$17h7435c9de74860622E.llvm.2618680253894991198', symObjAddr: 0x280, symBinAddr: 0x73CB0, symSize: 0x50 }
  - { offsetInCU: 0x2B81, offset: 0x242A19, size: 0x8, addend: 0x0, symName: '__ZN4core3ptr100drop_in_place$LT$syn..punctuated..Punctuated$LT$syn..path..PathSegment$C$syn..token..PathSep$GT$$GT$17hf414cb3581f8337aE.llvm.2618680253894991198', symObjAddr: 0x2D0, symBinAddr: 0x73D00, symSize: 0x1A0 }
  - { offsetInCU: 0x3259, offset: 0x2430F1, size: 0x8, addend: 0x0, symName: '__ZN4core3ptr101drop_in_place$LT$core..option..Option$LT$alloc..boxed..Box$LT$syn..generics..GenericParam$GT$$GT$$GT$17hd5dce04b35fda9feE', symObjAddr: 0x470, symBinAddr: 0x73EA0, symSize: 0x50 }
  - { offsetInCU: 0x3447, offset: 0x2432DF, size: 0x8, addend: 0x0, symName: '__ZN4core3ptr102drop_in_place$LT$syn..punctuated..Punctuated$LT$syn..path..GenericArgument$C$syn..token..Comma$GT$$GT$17h39496ba4e6dba6cfE.llvm.2618680253894991198', symObjAddr: 0x4C0, symBinAddr: 0x73EF0, symSize: 0xF0 }
  - { offsetInCU: 0x3730, offset: 0x2435C8, size: 0x8, addend: 0x0, symName: '__ZN4core3ptr103drop_in_place$LT$core..option..Option$LT$alloc..boxed..Box$LT$syn..generics..TypeParamBound$GT$$GT$$GT$17h5974f03e36b1a9c3E.llvm.2618680253894991198', symObjAddr: 0x5B0, symBinAddr: 0x73FE0, symSize: 0x50 }
  - { offsetInCU: 0x38C1, offset: 0x243759, size: 0x8, addend: 0x0, symName: '__ZN4core3ptr103drop_in_place$LT$core..option..Option$LT$alloc..boxed..Box$LT$syn..generics..WherePredicate$GT$$GT$$GT$17hdd5111a374d8d6f2E', symObjAddr: 0x600, symBinAddr: 0x74030, symSize: 0x50 }
  - { offsetInCU: 0x3AED, offset: 0x243985, size: 0x8, addend: 0x0, symName: '__ZN4core3ptr103drop_in_place$LT$syn..punctuated..Punctuated$LT$syn..generics..GenericParam$C$syn..token..Comma$GT$$GT$17hf42353fa44ed6da8E.llvm.2618680253894991198', symObjAddr: 0x650, symBinAddr: 0x74080, symSize: 0x1A0 }
  - { offsetInCU: 0x40BC, offset: 0x243F54, size: 0x8, addend: 0x0, symName: '__ZN4core3ptr104drop_in_place$LT$syn..punctuated..Punctuated$LT$syn..generics..TypeParamBound$C$syn..token..Plus$GT$$GT$17h532f52c4a894b056E.llvm.2618680253894991198', symObjAddr: 0x7F0, symBinAddr: 0x74220, symSize: 0x230 }
  - { offsetInCU: 0x49ED, offset: 0x244885, size: 0x8, addend: 0x0, symName: '__ZN4core3ptr105drop_in_place$LT$syn..punctuated..Punctuated$LT$syn..generics..WherePredicate$C$syn..token..Comma$GT$$GT$17h935f9826ba562349E', symObjAddr: 0xA20, symBinAddr: 0x74450, symSize: 0x190 }
  - { offsetInCU: 0x50BE, offset: 0x244F56, size: 0x8, addend: 0x0, symName: '__ZN4core3ptr116drop_in_place$LT$core..option..Option$LT$$LP$syn..token..Else$C$alloc..boxed..Box$LT$syn..expr..Expr$GT$$RP$$GT$$GT$17hce47d33a8602d206E', symObjAddr: 0xBB0, symBinAddr: 0x745E0, symSize: 0x50 }
  - { offsetInCU: 0x527C, offset: 0x245114, size: 0x8, addend: 0x0, symName: '__ZN4core3ptr126drop_in_place$LT$core..option..Option$LT$$LP$syn..token..And$C$core..option..Option$LT$syn..lifetime..Lifetime$GT$$RP$$GT$$GT$17hc269ac95805979aaE', symObjAddr: 0xC00, symBinAddr: 0x74630, symSize: 0x30 }
  - { offsetInCU: 0x550C, offset: 0x2453A4, size: 0x8, addend: 0x0, symName: '__ZN4core3ptr33drop_in_place$LT$syn..ty..Abi$GT$17h82d9e208356e7513E', symObjAddr: 0xC30, symBinAddr: 0x74660, symSize: 0x60 }
  - { offsetInCU: 0x5528, offset: 0x2453C0, size: 0x8, addend: 0x0, symName: '__ZN4core3ptr33drop_in_place$LT$syn..ty..Abi$GT$17h82d9e208356e7513E', symObjAddr: 0xC30, symBinAddr: 0x74660, symSize: 0x60 }
  - { offsetInCU: 0x5822, offset: 0x2456BA, size: 0x8, addend: 0x0, symName: '__ZN4core3ptr34drop_in_place$LT$syn..lit..Lit$GT$17h8902f5ff67917034E', symObjAddr: 0xC90, symBinAddr: 0x746C0, symSize: 0x110 }
  - { offsetInCU: 0x5D9A, offset: 0x245C32, size: 0x8, addend: 0x0, symName: '__ZN4core3ptr34drop_in_place$LT$syn..pat..Pat$GT$17h4581eea028ec0969E.llvm.2618680253894991198', symObjAddr: 0xDA0, symBinAddr: 0x747D0, symSize: 0xF50 }
  - { offsetInCU: 0x9839, offset: 0x2496D1, size: 0x8, addend: 0x0, symName: '__ZN4core3ptr34drop_in_place$LT$syn..ty..Type$GT$17h369e41ad4a9f1ae0E.llvm.2618680253894991198', symObjAddr: 0x1CF0, symBinAddr: 0x75720, symSize: 0x4E0 }
  - { offsetInCU: 0xA902, offset: 0x24A79A, size: 0x8, addend: 0x0, symName: '__ZN4core3ptr35drop_in_place$LT$syn..expr..Arm$GT$17hf2baebe0cd7aed98E.llvm.2618680253894991198', symObjAddr: 0x21D0, symBinAddr: 0x75C00, symSize: 0x190 }
  - { offsetInCU: 0xAEE6, offset: 0x24AD7E, size: 0x8, addend: 0x0, symName: '__ZN4core3ptr36drop_in_place$LT$syn..attr..Meta$GT$17hceda0eaca68b0dd1E.llvm.2618680253894991198', symObjAddr: 0x2360, symBinAddr: 0x75D90, symSize: 0x220 }
  - { offsetInCU: 0xB9E5, offset: 0x24B87D, size: 0x8, addend: 0x0, symName: '__ZN4core3ptr36drop_in_place$LT$syn..expr..Expr$GT$17h0f7fd4c749bae801E.llvm.2618680253894991198', symObjAddr: 0x2580, symBinAddr: 0x75FB0, symSize: 0x2680 }
  - { offsetInCU: 0x15264, offset: 0x2550FC, size: 0x8, addend: 0x0, symName: '__ZN4core3ptr36drop_in_place$LT$syn..item..Item$GT$17h13f5a53479ba6379E.llvm.2618680253894991198', symObjAddr: 0x4C00, symBinAddr: 0x78630, symSize: 0x17D0 }
  - { offsetInCU: 0x1A763, offset: 0x25A5FB, size: 0x8, addend: 0x0, symName: '__ZN4core3ptr36drop_in_place$LT$syn..mac..Macro$GT$17h4ffde962df30ebe2E', symObjAddr: 0x63D0, symBinAddr: 0x79E00, symSize: 0xE0 }
  - { offsetInCU: 0x1AA6D, offset: 0x25A905, size: 0x8, addend: 0x0, symName: '__ZN4core3ptr36drop_in_place$LT$syn..path..Path$GT$17habea856181211e1cE.llvm.2618680253894991198', symObjAddr: 0x64B0, symBinAddr: 0x79EE0, symSize: 0x150 }
  - { offsetInCU: 0x1B01A, offset: 0x25AEB2, size: 0x8, addend: 0x0, symName: '__ZN4core3ptr36drop_in_place$LT$syn..stmt..Stmt$GT$17h7826ed37cb9634e5E.llvm.2618680253894991198', symObjAddr: 0x6600, symBinAddr: 0x7A030, symSize: 0x380 }
  - { offsetInCU: 0x1BBE6, offset: 0x25BA7E, size: 0x8, addend: 0x0, symName: '__ZN4core3ptr37drop_in_place$LT$syn..data..Field$GT$17h8ecf6e22a67a3b36E.llvm.2618680253894991198', symObjAddr: 0x6980, symBinAddr: 0x7A3B0, symSize: 0x180 }
  - { offsetInCU: 0x1C1AB, offset: 0x25C043, size: 0x8, addend: 0x0, symName: '__ZN4core3ptr37drop_in_place$LT$syn..item..FnArg$GT$17h3308e115b3b3c9adE.llvm.2618680253894991198', symObjAddr: 0x6B00, symBinAddr: 0x7A530, symSize: 0x230 }
  - { offsetInCU: 0x1CA5D, offset: 0x25C8F5, size: 0x8, addend: 0x0, symName: '__ZN4core3ptr37drop_in_place$LT$syn..stmt..Block$GT$17hcc21a21cf949414cE', symObjAddr: 0x6D30, symBinAddr: 0x7A760, symSize: 0xD0 }
  - { offsetInCU: 0x1CD01, offset: 0x25CB99, size: 0x8, addend: 0x0, symName: '__ZN4core3ptr38drop_in_place$LT$syn..expr..ExprIf$GT$17h01a54a489d798b2dE.llvm.2618680253894991198', symObjAddr: 0x6E00, symBinAddr: 0x7A830, symSize: 0x1B0 }
  - { offsetInCU: 0x1D56B, offset: 0x25D403, size: 0x8, addend: 0x0, symName: '__ZN4core3ptr38drop_in_place$LT$syn..expr..Member$GT$17h022cbe5553aa40faE.llvm.2618680253894991198', symObjAddr: 0x6FB0, symBinAddr: 0x7A9E0, symSize: 0x30 }
  - { offsetInCU: 0x1D668, offset: 0x25D500, size: 0x8, addend: 0x0, symName: '__ZN4core3ptr38drop_in_place$LT$syn..pat..PatType$GT$17hcbbce80a195201a4E.llvm.2618680253894991198', symObjAddr: 0x6FE0, symBinAddr: 0x7AA10, symSize: 0x140 }
  - { offsetInCU: 0x1DBE4, offset: 0x25DA7C, size: 0x8, addend: 0x0, symName: '__ZN4core3ptr39drop_in_place$LT$proc_macro2..Ident$GT$17h8101e88c3ac359d6E.llvm.2618680253894991198', symObjAddr: 0x7120, symBinAddr: 0x7AB50, symSize: 0x30 }
  - { offsetInCU: 0x1DDF8, offset: 0x25DC90, size: 0x8, addend: 0x0, symName: '__ZN4core3ptr39drop_in_place$LT$syn..buffer..Entry$GT$17h8c4c199506966aaeE.llvm.2618680253894991198', symObjAddr: 0x7150, symBinAddr: 0x7AB80, symSize: 0xC0 }
  - { offsetInCU: 0x1E169, offset: 0x25E001, size: 0x8, addend: 0x0, symName: '__ZN4core3ptr39drop_in_place$LT$syn..data..Variant$GT$17h7bd4c363751fc860E.llvm.2618680253894991198', symObjAddr: 0x7210, symBinAddr: 0x7AC40, symSize: 0x2F0 }
  - { offsetInCU: 0x1ED77, offset: 0x25EC0F, size: 0x8, addend: 0x0, symName: '__ZN4core3ptr39drop_in_place$LT$syn..item..UseTree$GT$17h5b1281a5704d139dE.llvm.2618680253894991198', symObjAddr: 0x7500, symBinAddr: 0x7AF30, symSize: 0x1D0 }
  - { offsetInCU: 0x1F496, offset: 0x25F32E, size: 0x8, addend: 0x0, symName: '__ZN4core3ptr40drop_in_place$LT$syn..item..ImplItem$GT$17he2e6e8f15695ea55E', symObjAddr: 0x76D0, symBinAddr: 0x7B100, symSize: 0x240 }
  - { offsetInCU: 0x1FA91, offset: 0x25F929, size: 0x8, addend: 0x0, symName: '__ZN4core3ptr40drop_in_place$LT$syn..item..Receiver$GT$17h6743a41cd869c536E.llvm.2618680253894991198', symObjAddr: 0x7910, symBinAddr: 0x7B340, symSize: 0x130 }
  - { offsetInCU: 0x20064, offset: 0x25FEFC, size: 0x8, addend: 0x0, symName: '__ZN4core3ptr40drop_in_place$LT$syn..item..Variadic$GT$17h856c1da4a3922974E', symObjAddr: 0x7A40, symBinAddr: 0x7B470, symSize: 0x120 }
  - { offsetInCU: 0x204DB, offset: 0x260373, size: 0x8, addend: 0x0, symName: '__ZN4core3ptr40drop_in_place$LT$syn..ty..ReturnType$GT$17h02cf41e2fec63d90E.llvm.2618680253894991198', symObjAddr: 0x7B60, symBinAddr: 0x7B590, symSize: 0x50 }
  - { offsetInCU: 0x2066C, offset: 0x260504, size: 0x8, addend: 0x0, symName: '__ZN4core3ptr41drop_in_place$LT$syn..attr..Attribute$GT$17h6038ab1bc013504dE.llvm.2618680253894991198', symObjAddr: 0x7BB0, symBinAddr: 0x7B5E0, symSize: 0x160 }
  - { offsetInCU: 0x20B52, offset: 0x2609EA, size: 0x8, addend: 0x0, symName: '__ZN4core3ptr41drop_in_place$LT$syn..item..Signature$GT$17h691f115807a5d1eeE', symObjAddr: 0x7D10, symBinAddr: 0x7B740, symSize: 0x280 }
  - { offsetInCU: 0x21641, offset: 0x2614D9, size: 0x8, addend: 0x0, symName: '__ZN4core3ptr41drop_in_place$LT$syn..item..TraitItem$GT$17hb6f9fbcba8fdea85E', symObjAddr: 0x7F90, symBinAddr: 0x7B9C0, symSize: 0x3E0 }
  - { offsetInCU: 0x22167, offset: 0x261FFF, size: 0x8, addend: 0x0, symName: '__ZN4core3ptr41drop_in_place$LT$syn..stmt..LocalInit$GT$17he02c3bb35adaf040E', symObjAddr: 0x8370, symBinAddr: 0x7BDA0, symSize: 0xC0 }
  - { offsetInCU: 0x2245B, offset: 0x2622F3, size: 0x8, addend: 0x0, symName: '__ZN4core3ptr42drop_in_place$LT$syn..item..ImplItemFn$GT$17h753bae801f2662d9E', symObjAddr: 0x8430, symBinAddr: 0x7BE60, symSize: 0x230 }
  - { offsetInCU: 0x22BB6, offset: 0x262A4E, size: 0x8, addend: 0x0, symName: '__ZN4core3ptr42drop_in_place$LT$syn..path..Constraint$GT$17h07cd69a204b9a6d4E', symObjAddr: 0x8660, symBinAddr: 0x7C090, symSize: 0x160 }
  - { offsetInCU: 0x23116, offset: 0x262FAE, size: 0x8, addend: 0x0, symName: '__ZN4core3ptr43drop_in_place$LT$proc_macro2..TokenTree$GT$17h9a731c54895ae11bE.llvm.2618680253894991198', symObjAddr: 0x87C0, symBinAddr: 0x7C1F0, symSize: 0xB0 }
  - { offsetInCU: 0x2342A, offset: 0x2632C2, size: 0x8, addend: 0x0, symName: '__ZN4core3ptr43drop_in_place$LT$syn..data..FieldsNamed$GT$17hb2a97e73a85352cbE', symObjAddr: 0x8870, symBinAddr: 0x7C2A0, symSize: 0x120 }
  - { offsetInCU: 0x238B2, offset: 0x26374A, size: 0x8, addend: 0x0, symName: '__ZN4core3ptr43drop_in_place$LT$syn..item..ForeignItem$GT$17h1398b9aa0a6e4c9dE', symObjAddr: 0x8990, symBinAddr: 0x7C3C0, symSize: 0x330 }
  - { offsetInCU: 0x24239, offset: 0x2640D1, size: 0x8, addend: 0x0, symName: '__ZN4core3ptr43drop_in_place$LT$syn..path..PathSegment$GT$17h62e206c29667de7cE.llvm.2618680253894991198', symObjAddr: 0x8CC0, symBinAddr: 0x7C6F0, symSize: 0x170 }
  - { offsetInCU: 0x247DD, offset: 0x264675, size: 0x8, addend: 0x0, symName: '__ZN4core3ptr44drop_in_place$LT$syn..generics..Generics$GT$17h10dea28dec64f81eE', symObjAddr: 0x8E30, symBinAddr: 0x7C860, symSize: 0x220 }
  - { offsetInCU: 0x2505A, offset: 0x264EF2, size: 0x8, addend: 0x0, symName: '__ZN4core3ptr44drop_in_place$LT$syn..item..ImplItemType$GT$17h9547daf76315cef8E', symObjAddr: 0x9050, symBinAddr: 0x7CA80, symSize: 0x1D0 }
  - { offsetInCU: 0x25642, offset: 0x2654DA, size: 0x8, addend: 0x0, symName: '__ZN4core3ptr44drop_in_place$LT$syn..lifetime..Lifetime$GT$17hf0cdec2e9ec456d6E.llvm.2618680253894991198', symObjAddr: 0x9220, symBinAddr: 0x7CC50, symSize: 0x30 }
  - { offsetInCU: 0x2579C, offset: 0x265634, size: 0x8, addend: 0x0, symName: '__ZN4core3ptr45drop_in_place$LT$proc_macro2..TokenStream$GT$17h3405f6c513e9f6cbE.llvm.2618680253894991198', symObjAddr: 0x9250, symBinAddr: 0x7CC80, symSize: 0x70 }
  - { offsetInCU: 0x25903, offset: 0x26579B, size: 0x8, addend: 0x0, symName: '__ZN4core3ptr45drop_in_place$LT$syn..generics..TypeParam$GT$17he5eda51070b7de47E.llvm.2618680253894991198', symObjAddr: 0x92C0, symBinAddr: 0x7CCF0, symSize: 0x230 }
  - { offsetInCU: 0x26148, offset: 0x265FE0, size: 0x8, addend: 0x0, symName: '__ZN4core3ptr45drop_in_place$LT$syn..item..ImplItemConst$GT$17he90cac64fa027f09E', symObjAddr: 0x94F0, symBinAddr: 0x7CF20, symSize: 0x200 }
  - { offsetInCU: 0x2676E, offset: 0x266606, size: 0x8, addend: 0x0, symName: '__ZN4core3ptr45drop_in_place$LT$syn..item..TraitItemType$GT$17hec5203fd126d0733E', symObjAddr: 0x96F0, symBinAddr: 0x7D120, symSize: 0x290 }
  - { offsetInCU: 0x2707F, offset: 0x266F17, size: 0x8, addend: 0x0, symName: '__ZN4core3ptr46drop_in_place$LT$$u5b$syn..stmt..Stmt$u5d$$GT$17h0a8006ae14c66d0fE.llvm.2618680253894991198', symObjAddr: 0x9980, symBinAddr: 0x7D3B0, symSize: 0x2F0 }
  - { offsetInCU: 0x276B1, offset: 0x267549, size: 0x8, addend: 0x0, symName: '__ZN4core3ptr46drop_in_place$LT$syn..generics..ConstParam$GT$17hab0a58c4af8c549cE.llvm.2618680253894991198', symObjAddr: 0x9C70, symBinAddr: 0x7D6A0, symSize: 0x150 }
  - { offsetInCU: 0x27AB2, offset: 0x26794A, size: 0x8, addend: 0x0, symName: '__ZN4core3ptr46drop_in_place$LT$syn..item..TraitItemConst$GT$17h93b00edde47e0b07E', symObjAddr: 0x9DC0, symBinAddr: 0x7D7F0, symSize: 0x1A0 }
  - { offsetInCU: 0x27F66, offset: 0x267DFE, size: 0x8, addend: 0x0, symName: '__ZN4core3ptr47drop_in_place$LT$syn..generics..WhereClause$GT$17h8d71cc7a854160ddE', symObjAddr: 0x9F60, symBinAddr: 0x7D990, symSize: 0x120 }
  - { offsetInCU: 0x283B0, offset: 0x268248, size: 0x8, addend: 0x0, symName: '__ZN4core3ptr47drop_in_place$LT$syn..item..ForeignItemType$GT$17ha1c97c43a7eb44cfE', symObjAddr: 0xA080, symBinAddr: 0x7DAB0, symSize: 0x1A0 }
  - { offsetInCU: 0x289F5, offset: 0x26888D, size: 0x8, addend: 0x0, symName: '__ZN4core3ptr47drop_in_place$LT$syn..path..GenericArgument$GT$17h54f8794633f96823E.llvm.2618680253894991198', symObjAddr: 0xA220, symBinAddr: 0x7DC50, symSize: 0x1C0 }
  - { offsetInCU: 0x28EA8, offset: 0x268D40, size: 0x8, addend: 0x0, symName: '__ZN4core3ptr48drop_in_place$LT$syn..generics..GenericParam$GT$17h9c895978ef08f584E.llvm.2618680253894991198', symObjAddr: 0xA3E0, symBinAddr: 0x7DE10, symSize: 0x150 }
  - { offsetInCU: 0x2929A, offset: 0x269132, size: 0x8, addend: 0x0, symName: '__ZN4core3ptr49drop_in_place$LT$syn..generics..LifetimeParam$GT$17h41a7c7a290ea6289E.llvm.2618680253894991198', symObjAddr: 0xA530, symBinAddr: 0x7DF60, symSize: 0xF0 }
  - { offsetInCU: 0x29675, offset: 0x26950D, size: 0x8, addend: 0x0, symName: '__ZN4core3ptr49drop_in_place$LT$syn..generics..PredicateType$GT$17hf38482bec426e936E.llvm.2618680253894991198', symObjAddr: 0xA620, symBinAddr: 0x7E050, symSize: 0x170 }
  - { offsetInCU: 0x29AF1, offset: 0x269989, size: 0x8, addend: 0x0, symName: '__ZN4core3ptr49drop_in_place$LT$syn..item..ForeignItemStatic$GT$17h7f3c810db69ed760E', symObjAddr: 0xA790, symBinAddr: 0x7E1C0, symSize: 0x180 }
  - { offsetInCU: 0x2A1CA, offset: 0x26A062, size: 0x8, addend: 0x0, symName: '__ZN4core3ptr50drop_in_place$LT$$u5b$syn..item..ImplItem$u5d$$GT$17haee7878761be0217E.llvm.2618680253894991198', symObjAddr: 0xA910, symBinAddr: 0x7E340, symSize: 0x230 }
  - { offsetInCU: 0x2A4F2, offset: 0x26A38A, size: 0x8, addend: 0x0, symName: '__ZN4core3ptr50drop_in_place$LT$syn..generics..TypeParamBound$GT$17hcd7771d4c6c221efE.llvm.2618680253894991198', symObjAddr: 0xAB40, symBinAddr: 0x7E570, symSize: 0xA0 }
  - { offsetInCU: 0x2A678, offset: 0x26A510, size: 0x8, addend: 0x0, symName: '__ZN4core3ptr50drop_in_place$LT$syn..generics..WherePredicate$GT$17h1a9d05bc1beb1d91E.llvm.2618680253894991198', symObjAddr: 0xABE0, symBinAddr: 0x7E610, symSize: 0xA0 }
  - { offsetInCU: 0x2A825, offset: 0x26A6BD, size: 0x8, addend: 0x0, symName: '__ZN4core3ptr51drop_in_place$LT$$u5b$syn..item..TraitItem$u5d$$GT$17h64a6457ddfeb24d5E.llvm.2618680253894991198', symObjAddr: 0xAC80, symBinAddr: 0x7E6B0, symSize: 0x3F0 }
  - { offsetInCU: 0x2B07D, offset: 0x26AF15, size: 0x8, addend: 0x0, symName: '__ZN4core3ptr52drop_in_place$LT$syn..restriction..VisRestricted$GT$17h7de420d0018508c5E', symObjAddr: 0xB070, symBinAddr: 0x7EAA0, symSize: 0x50 }
  - { offsetInCU: 0x2B216, offset: 0x26B0AE, size: 0x8, addend: 0x0, symName: '__ZN4core3ptr53drop_in_place$LT$$u5b$syn..item..ForeignItem$u5d$$GT$17h0fb84ff15c76ad7aE.llvm.2618680253894991198', symObjAddr: 0xB0C0, symBinAddr: 0x7EAF0, symSize: 0x360 }
  - { offsetInCU: 0x2B994, offset: 0x26B82C, size: 0x8, addend: 0x0, symName: '__ZN4core3ptr58drop_in_place$LT$alloc..vec..Vec$LT$syn..expr..Arm$GT$$GT$17h1a55df3d2cba1daaE', symObjAddr: 0xB420, symBinAddr: 0x7EE50, symSize: 0xD0 }
  - { offsetInCU: 0x2BC21, offset: 0x26BAB9, size: 0x8, addend: 0x0, symName: '__ZN4core3ptr59drop_in_place$LT$alloc..boxed..Box$LT$syn..pat..Pat$GT$$GT$17h563b135d87aca8abE.llvm.2618680253894991198', symObjAddr: 0xB4F0, symBinAddr: 0x7EF20, symSize: 0x50 }
  - { offsetInCU: 0x2BD7C, offset: 0x26BC14, size: 0x8, addend: 0x0, symName: '__ZN4core3ptr59drop_in_place$LT$alloc..boxed..Box$LT$syn..ty..Type$GT$$GT$17hffed36bad83adacbE.llvm.2618680253894991198', symObjAddr: 0xB540, symBinAddr: 0x7EF70, symSize: 0x50 }
  - { offsetInCU: 0x2BED7, offset: 0x26BD6F, size: 0x8, addend: 0x0, symName: '__ZN4core3ptr59drop_in_place$LT$alloc..vec..Vec$LT$syn..item..Item$GT$$GT$17hf874c2ed1282c93cE', symObjAddr: 0xB590, symBinAddr: 0x7EFC0, symSize: 0xD0 }
  - { offsetInCU: 0x2C164, offset: 0x26BFFC, size: 0x8, addend: 0x0, symName: '__ZN4core3ptr59drop_in_place$LT$alloc..vec..Vec$LT$syn..stmt..Stmt$GT$$GT$17hb5c1acf3c61c43e2E', symObjAddr: 0xB660, symBinAddr: 0x7F090, symSize: 0x80 }
  - { offsetInCU: 0x2C3E2, offset: 0x26C27A, size: 0x8, addend: 0x0, symName: '__ZN4core3ptr61drop_in_place$LT$alloc..boxed..Box$LT$syn..expr..Expr$GT$$GT$17h01091e47f131475dE', symObjAddr: 0xB6E0, symBinAddr: 0x7F110, symSize: 0x50 }
  - { offsetInCU: 0x2C53D, offset: 0x26C3D5, size: 0x8, addend: 0x0, symName: '__ZN4core3ptr61drop_in_place$LT$alloc..boxed..Box$LT$syn..path..Path$GT$$GT$17ha58e58ae7c31ea61E', symObjAddr: 0xB730, symBinAddr: 0x7F160, symSize: 0xF0 }
  - { offsetInCU: 0x2CA23, offset: 0x26C8BB, size: 0x8, addend: 0x0, symName: '__ZN4core3ptr61drop_in_place$LT$syn..path..ParenthesizedGenericArguments$GT$17h43d4aac5494326a7E.llvm.2618680253894991198', symObjAddr: 0xB820, symBinAddr: 0x7F250, symSize: 0x170 }
  - { offsetInCU: 0x2CFEA, offset: 0x26CE82, size: 0x8, addend: 0x0, symName: '__ZN4core3ptr62drop_in_place$LT$alloc..boxed..Box$LT$syn..data..Field$GT$$GT$17hebc7cac3b74f311dE', symObjAddr: 0xB990, symBinAddr: 0x7F3C0, symSize: 0x50 }
  - { offsetInCU: 0x2D164, offset: 0x26CFFC, size: 0x8, addend: 0x0, symName: '__ZN4core3ptr62drop_in_place$LT$alloc..boxed..Box$LT$syn..item..FnArg$GT$$GT$17hc527eff785dac3a2E', symObjAddr: 0xB9E0, symBinAddr: 0x7F410, symSize: 0x60 }
  - { offsetInCU: 0x2D2DC, offset: 0x26D174, size: 0x8, addend: 0x0, symName: '__ZN4core3ptr62drop_in_place$LT$alloc..boxed..Box$LT$syn..stmt..Block$GT$$GT$17h30434998ae0f12a8E', symObjAddr: 0xBA40, symBinAddr: 0x7F470, symSize: 0xE0 }
  - { offsetInCU: 0x2D6FB, offset: 0x26D593, size: 0x8, addend: 0x0, symName: '__ZN4core3ptr62drop_in_place$LT$alloc..vec..Vec$LT$syn..buffer..Entry$GT$$GT$17h73857e86c6f10397E.llvm.2618680253894991198', symObjAddr: 0xBB20, symBinAddr: 0x7F550, symSize: 0xC0 }
  - { offsetInCU: 0x2D99B, offset: 0x26D833, size: 0x8, addend: 0x0, symName: '__ZN4core3ptr62drop_in_place$LT$syn..path..AngleBracketedGenericArguments$GT$17hc5b69f68243636ddE.llvm.2618680253894991198', symObjAddr: 0xBBE0, symBinAddr: 0x7F610, symSize: 0x120 }
  - { offsetInCU: 0x2DDE5, offset: 0x26DC7D, size: 0x8, addend: 0x0, symName: '__ZN4core3ptr63drop_in_place$LT$alloc..vec..Vec$LT$syn..item..ImplItem$GT$$GT$17hda9ba61cc1df3d0eE', symObjAddr: 0xBD00, symBinAddr: 0x7F730, symSize: 0x80 }
  - { offsetInCU: 0x2E063, offset: 0x26DEFB, size: 0x8, addend: 0x0, symName: '__ZN4core3ptr64drop_in_place$LT$alloc..boxed..Box$LT$syn..data..Variant$GT$$GT$17h4d6d609d76c77795E', symObjAddr: 0xBD80, symBinAddr: 0x7F7B0, symSize: 0x50 }
  - { offsetInCU: 0x2E1BE, offset: 0x26E056, size: 0x8, addend: 0x0, symName: '__ZN4core3ptr64drop_in_place$LT$alloc..boxed..Box$LT$syn..item..UseTree$GT$$GT$17he10cba0a4742709fE', symObjAddr: 0xBDD0, symBinAddr: 0x7F800, symSize: 0x50 }
  - { offsetInCU: 0x2E338, offset: 0x26E1D0, size: 0x8, addend: 0x0, symName: '__ZN4core3ptr64drop_in_place$LT$alloc..boxed..Box$LT$syn..pat..FieldPat$GT$$GT$17h4980b70a7597cc08E', symObjAddr: 0xBE20, symBinAddr: 0x7F850, symSize: 0x140 }
  - { offsetInCU: 0x2E9D9, offset: 0x26E871, size: 0x8, addend: 0x0, symName: '__ZN4core3ptr64drop_in_place$LT$alloc..boxed..Box$LT$syn..ty..BareFnArg$GT$$GT$17h8b34096c620314efE', symObjAddr: 0xBF60, symBinAddr: 0x7F990, symSize: 0x140 }
  - { offsetInCU: 0x2EF31, offset: 0x26EDC9, size: 0x8, addend: 0x0, symName: '__ZN4core3ptr64drop_in_place$LT$alloc..vec..Vec$LT$syn..attr..Attribute$GT$$GT$17h3c8f2a04e701c675E', symObjAddr: 0xC0A0, symBinAddr: 0x7FAD0, symSize: 0xD0 }
  - { offsetInCU: 0x2F1F2, offset: 0x26F08A, size: 0x8, addend: 0x0, symName: '__ZN4core3ptr64drop_in_place$LT$alloc..vec..Vec$LT$syn..item..TraitItem$GT$$GT$17h60eb4b8666c57b93E', symObjAddr: 0xC170, symBinAddr: 0x7FBA0, symSize: 0x80 }
  - { offsetInCU: 0x2F470, offset: 0x26F308, size: 0x8, addend: 0x0, symName: '__ZN4core3ptr65drop_in_place$LT$$LP$syn..item..FnArg$C$syn..token..Comma$RP$$GT$17hc164d69e1fc45771E.llvm.2618680253894991198', symObjAddr: 0xC1F0, symBinAddr: 0x7FC20, symSize: 0x20 }
  - { offsetInCU: 0x2F509, offset: 0x26F3A1, size: 0x8, addend: 0x0, symName: '__ZN4core3ptr65drop_in_place$LT$alloc..vec..Vec$LT$proc_macro..TokenTree$GT$$GT$17h408088468d073beeE.llvm.2618680253894991198', symObjAddr: 0xC210, symBinAddr: 0x7FC40, symSize: 0x120 }
  - { offsetInCU: 0x2F87C, offset: 0x26F714, size: 0x8, addend: 0x0, symName: '__ZN4core3ptr65drop_in_place$LT$core..option..Option$LT$syn..expr..Label$GT$$GT$17h78189e72a8cb7951E', symObjAddr: 0xC330, symBinAddr: 0x7FD60, symSize: 0x30 }
  - { offsetInCU: 0x2F9B7, offset: 0x26F84F, size: 0x8, addend: 0x0, symName: '__ZN4core3ptr65drop_in_place$LT$core..option..Option$LT$syn..stmt..Block$GT$$GT$17h7d9c0a54a580a160E', symObjAddr: 0xC360, symBinAddr: 0x7FD90, symSize: 0xE0 }
  - { offsetInCU: 0x2FC1C, offset: 0x26FAB4, size: 0x8, addend: 0x0, symName: '__ZN4core3ptr66drop_in_place$LT$alloc..vec..Vec$LT$syn..item..ForeignItem$GT$$GT$17h3e58b8e683c84cf4E', symObjAddr: 0xC440, symBinAddr: 0x7FE70, symSize: 0x80 }
  - { offsetInCU: 0x2FE9A, offset: 0x26FD32, size: 0x8, addend: 0x0, symName: '__ZN4core3ptr67drop_in_place$LT$$LP$syn..pat..FieldPat$C$syn..token..Comma$RP$$GT$17h85e934ef4c19bf0fE.llvm.2618680253894991198', symObjAddr: 0xC4C0, symBinAddr: 0x7FEF0, symSize: 0x130 }
  - { offsetInCU: 0x30404, offset: 0x27029C, size: 0x8, addend: 0x0, symName: '__ZN4core3ptr67drop_in_place$LT$$LP$syn..ty..BareFnArg$C$syn..token..Comma$RP$$GT$17hd93958865c964865E.llvm.2618680253894991198', symObjAddr: 0xC5F0, symBinAddr: 0x80020, symSize: 0x110 }
  - { offsetInCU: 0x30855, offset: 0x2706ED, size: 0x8, addend: 0x0, symName: '__ZN4core3ptr67drop_in_place$LT$alloc..boxed..Box$LT$syn..expr..FieldValue$GT$$GT$17h93aaccf8aa22ef88E', symObjAddr: 0xC700, symBinAddr: 0x80130, symSize: 0x140 }
  - { offsetInCU: 0x30D8D, offset: 0x270C25, size: 0x8, addend: 0x0, symName: '__ZN4core3ptr68drop_in_place$LT$alloc..boxed..Box$LT$syn..path..PathSegment$GT$$GT$17h709dabdc13b58a71E', symObjAddr: 0xC840, symBinAddr: 0x80270, symSize: 0xD0 }
  - { offsetInCU: 0x3118B, offset: 0x271023, size: 0x8, addend: 0x0, symName: '__ZN4core3ptr69drop_in_place$LT$core..option..Option$LT$syn..stmt..LocalInit$GT$$GT$17h7427177b3fce4dc2E', symObjAddr: 0xC910, symBinAddr: 0x80340, symSize: 0xC0 }
  - { offsetInCU: 0x314B3, offset: 0x27134B, size: 0x8, addend: 0x0, symName: '__ZN4core3ptr70drop_in_place$LT$$LP$syn..expr..FieldValue$C$syn..token..Comma$RP$$GT$17h490c542958e56dacE.llvm.2618680253894991198', symObjAddr: 0xC9D0, symBinAddr: 0x80400, symSize: 0x110 }
  - { offsetInCU: 0x318C5, offset: 0x27175D, size: 0x8, addend: 0x0, symName: '__ZN4core3ptr70drop_in_place$LT$core..option..Option$LT$syn..ty..BareVariadic$GT$$GT$17h45399348ea4b8d55E', symObjAddr: 0xCAE0, symBinAddr: 0x80510, symSize: 0x100 }
  - { offsetInCU: 0x31CF5, offset: 0x271B8D, size: 0x8, addend: 0x0, symName: '__ZN4core3ptr72drop_in_place$LT$alloc..boxed..Box$LT$syn..path..GenericArgument$GT$$GT$17haa7dd8b716637b54E.llvm.2618680253894991198', symObjAddr: 0xCBE0, symBinAddr: 0x80610, symSize: 0x180 }
  - { offsetInCU: 0x321CA, offset: 0x272062, size: 0x8, addend: 0x0, symName: '__ZN4core3ptr73drop_in_place$LT$$LP$syn..path..PathSegment$C$syn..token..PathSep$RP$$GT$17hf7a8dbee7b1b25c8E.llvm.2618680253894991198', symObjAddr: 0xCD60, symBinAddr: 0x80790, symSize: 0xC0 }
  - { offsetInCU: 0x32490, offset: 0x272328, size: 0x8, addend: 0x0, symName: '__ZN4core3ptr73drop_in_place$LT$alloc..boxed..Box$LT$syn..generics..GenericParam$GT$$GT$17hf6951dcd5ae07324E', symObjAddr: 0xCE20, symBinAddr: 0x80850, symSize: 0x80 }
  - { offsetInCU: 0x32608, offset: 0x2724A0, size: 0x8, addend: 0x0, symName: '__ZN4core3ptr75drop_in_place$LT$$LP$syn..path..GenericArgument$C$syn..token..Comma$RP$$GT$17h3ba8f36bbe154baeE.llvm.2618680253894991198', symObjAddr: 0xCEA0, symBinAddr: 0x808D0, symSize: 0x180 }
  - { offsetInCU: 0x32990, offset: 0x272828, size: 0x8, addend: 0x0, symName: '__ZN4core3ptr75drop_in_place$LT$alloc..boxed..Box$LT$syn..generics..TypeParamBound$GT$$GT$17he61c00698a311a34E', symObjAddr: 0xD020, symBinAddr: 0x80A50, symSize: 0x160 }
  - { offsetInCU: 0x32F2D, offset: 0x272DC5, size: 0x8, addend: 0x0, symName: '__ZN4core3ptr75drop_in_place$LT$alloc..boxed..Box$LT$syn..generics..WherePredicate$GT$$GT$17hb3c3f96fc44a9b07E', symObjAddr: 0xD180, symBinAddr: 0x80BB0, symSize: 0x80 }
  - { offsetInCU: 0x331C3, offset: 0x27305B, size: 0x8, addend: 0x0, symName: '__ZN4core3ptr76drop_in_place$LT$$LP$syn..generics..GenericParam$C$syn..token..Comma$RP$$GT$17hadd4ee9dc4c521adE.llvm.2618680253894991198', symObjAddr: 0xD200, symBinAddr: 0x80C30, symSize: 0x40 }
  - { offsetInCU: 0x331FF, offset: 0x273097, size: 0x8, addend: 0x0, symName: '__ZN4core3ptr77drop_in_place$LT$$LP$syn..generics..TypeParamBound$C$syn..token..Plus$RP$$GT$17h74b4a4238bdefe04E.llvm.2618680253894991198', symObjAddr: 0xD240, symBinAddr: 0x80C70, symSize: 0x160 }
  - { offsetInCU: 0x3366A, offset: 0x273502, size: 0x8, addend: 0x0, symName: '__ZN4core3ptr78drop_in_place$LT$$LP$syn..generics..WherePredicate$C$syn..token..Comma$RP$$GT$17h53972732bf2fc9faE.llvm.2618680253894991198', symObjAddr: 0xD3A0, symBinAddr: 0x80DD0, symSize: 0x50 }
  - { offsetInCU: 0x337C4, offset: 0x27365C, size: 0x8, addend: 0x0, symName: '__ZN4core3ptr86drop_in_place$LT$$LP$syn..token..If$C$alloc..boxed..Box$LT$syn..expr..Expr$GT$$RP$$GT$17h2caf60ff8122e91dE', symObjAddr: 0xD3F0, symBinAddr: 0x80E20, symSize: 0x50 }
  - { offsetInCU: 0x339D9, offset: 0x273871, size: 0x8, addend: 0x0, symName: '__ZN4core3ptr86drop_in_place$LT$syn..punctuated..Punctuated$LT$syn..pat..Pat$C$syn..token..Or$GT$$GT$17h8e9173df21a44316E', symObjAddr: 0xD440, symBinAddr: 0x80E70, symSize: 0x120 }
  - { offsetInCU: 0x33E36, offset: 0x273CCE, size: 0x8, addend: 0x0, symName: '__ZN4core3ptr87drop_in_place$LT$$LP$alloc..boxed..Box$LT$syn..pat..Pat$GT$$C$syn..token..Colon$RP$$GT$17hf8324c490b9b3095E', symObjAddr: 0xD560, symBinAddr: 0x80F90, symSize: 0x50 }
  - { offsetInCU: 0x33FB0, offset: 0x273E48, size: 0x8, addend: 0x0, symName: '__ZN4core3ptr87drop_in_place$LT$core..option..Option$LT$alloc..boxed..Box$LT$syn..ty..Type$GT$$GT$$GT$17hd74f5d971aec2972E', symObjAddr: 0xD5B0, symBinAddr: 0x80FE0, symSize: 0x50 }
  - { offsetInCU: 0x34122, offset: 0x273FBA, size: 0x8, addend: 0x0, symName: '__ZN4core3ptr89drop_in_place$LT$core..option..Option$LT$alloc..boxed..Box$LT$syn..expr..Expr$GT$$GT$$GT$17h8e135ac1a25a2dc5E', symObjAddr: 0xD600, symBinAddr: 0x81030, symSize: 0x50 }
  - { offsetInCU: 0x34294, offset: 0x27412C, size: 0x8, addend: 0x0, symName: '__ZN4core3ptr89drop_in_place$LT$syn..punctuated..Punctuated$LT$syn..ty..Type$C$syn..token..Comma$GT$$GT$17ha919b3114742fb9dE.llvm.2618680253894991198', symObjAddr: 0xD650, symBinAddr: 0x81080, symSize: 0x120 }
  - { offsetInCU: 0x346DE, offset: 0x274576, size: 0x8, addend: 0x0, symName: '__ZN4core3ptr90drop_in_place$LT$core..option..Option$LT$alloc..boxed..Box$LT$syn..data..Field$GT$$GT$$GT$17h326c39537b0fcc46E', symObjAddr: 0xD770, symBinAddr: 0x811A0, symSize: 0x50 }
  - { offsetInCU: 0x34850, offset: 0x2746E8, size: 0x8, addend: 0x0, symName: '__ZN4core3ptr90drop_in_place$LT$core..option..Option$LT$alloc..boxed..Box$LT$syn..item..FnArg$GT$$GT$$GT$17hbae3fdd388277508E', symObjAddr: 0xD7C0, symBinAddr: 0x811F0, symSize: 0x50 }
  - { offsetInCU: 0x34A3E, offset: 0x2748D6, size: 0x8, addend: 0x0, symName: '__ZN4core3ptr91drop_in_place$LT$syn..punctuated..Punctuated$LT$syn..expr..Expr$C$syn..token..Comma$GT$$GT$17h4f39b83dc86a4159E', symObjAddr: 0xD810, symBinAddr: 0x81240, symSize: 0x120 }
  - { offsetInCU: 0x34E9B, offset: 0x274D33, size: 0x8, addend: 0x0, symName: '__ZN4core3ptr92drop_in_place$LT$core..option..Option$LT$$LP$syn..token..As$C$proc_macro2..Ident$RP$$GT$$GT$17h5c1a47ccb35d9d7eE', symObjAddr: 0xD930, symBinAddr: 0x81360, symSize: 0x30 }
  - { offsetInCU: 0x34FB7, offset: 0x274E4F, size: 0x8, addend: 0x0, symName: '__ZN4core3ptr92drop_in_place$LT$syn..punctuated..Punctuated$LT$syn..data..Field$C$syn..token..Comma$GT$$GT$17hca76f5e010a141e5E', symObjAddr: 0xD960, symBinAddr: 0x81390, symSize: 0x120 }
  - { offsetInCU: 0x35401, offset: 0x275299, size: 0x8, addend: 0x0, symName: '__ZN4core3ptr92drop_in_place$LT$syn..punctuated..Punctuated$LT$syn..item..FnArg$C$syn..token..Comma$GT$$GT$17h75db9d232662c7d3E', symObjAddr: 0xDA80, symBinAddr: 0x814B0, symSize: 0x150 }
  - { offsetInCU: 0x35916, offset: 0x2757AE, size: 0x8, addend: 0x0, symName: '__ZN4core3ptr94drop_in_place$LT$syn..punctuated..Punctuated$LT$syn..data..Variant$C$syn..token..Comma$GT$$GT$17ha69d7e675441c7e2E', symObjAddr: 0xDBD0, symBinAddr: 0x81600, symSize: 0x120 }
  - { offsetInCU: 0x35DEF, offset: 0x275C87, size: 0x8, addend: 0x0, symName: '__ZN4core3ptr94drop_in_place$LT$syn..punctuated..Punctuated$LT$syn..pat..FieldPat$C$syn..token..Comma$GT$$GT$17h112950ea198c8281E', symObjAddr: 0xDCF0, symBinAddr: 0x81720, symSize: 0xF0 }
  - { offsetInCU: 0x36148, offset: 0x275FE0, size: 0x8, addend: 0x0, symName: '__ZN4core3ptr94drop_in_place$LT$syn..punctuated..Punctuated$LT$syn..ty..BareFnArg$C$syn..token..Comma$GT$$GT$17h1c7b44310f06243dE', symObjAddr: 0xDDE0, symBinAddr: 0x81810, symSize: 0xF0 }
  - { offsetInCU: 0x36425, offset: 0x2762BD, size: 0x8, addend: 0x0, symName: '__ZN4core3ptr95drop_in_place$LT$core..option..Option$LT$$LP$proc_macro2..Ident$C$syn..token..Colon$RP$$GT$$GT$17ha744bf0f41959716E.llvm.2618680253894991198', symObjAddr: 0xDED0, symBinAddr: 0x81900, symSize: 0x30 }
  - { offsetInCU: 0x36541, offset: 0x2763D9, size: 0x8, addend: 0x0, symName: '__ZN4core3ptr96drop_in_place$LT$core..option..Option$LT$alloc..boxed..Box$LT$syn..path..PathSegment$GT$$GT$$GT$17hb447d0f626c86a4eE.llvm.2618680253894991198', symObjAddr: 0xDF00, symBinAddr: 0x81930, symSize: 0x90 }
  - { offsetInCU: 0x3685E, offset: 0x2766F6, size: 0x8, addend: 0x0, symName: '__ZN4core3ptr97drop_in_place$LT$syn..punctuated..Punctuated$LT$syn..expr..FieldValue$C$syn..token..Comma$GT$$GT$17h31b81f7462228dcbE', symObjAddr: 0xDFE0, symBinAddr: 0x819C0, symSize: 0xF0 }
  - { offsetInCU: 0x36BD6, offset: 0x276A6E, size: 0x8, addend: 0x0, symName: '__ZN4core3ptr98drop_in_place$LT$syn..punctuated..Punctuated$LT$syn..lifetime..Lifetime$C$syn..token..Plus$GT$$GT$17h0f8fc5f20f465f47E.llvm.2618680253894991198', symObjAddr: 0xE0D0, symBinAddr: 0x81AB0, symSize: 0xC0 }
  - { offsetInCU: 0x3A8B2, offset: 0x27A74A, size: 0x8, addend: 0x0, symName: '__ZN136_$LT$alloc..vec..Vec$LT$T$C$A$GT$$u20$as$u20$alloc..vec..spec_extend..SpecExtend$LT$T$C$alloc..vec..into_iter..IntoIter$LT$T$GT$$GT$$GT$11spec_extend17hd3fd65d04ebffaa6E', symObjAddr: 0xE0, symBinAddr: 0x73B90, symSize: 0xA0 }
  - { offsetInCU: 0x3ABB6, offset: 0x27AA4E, size: 0x8, addend: 0x0, symName: '__ZN97_$LT$alloc..vec..Vec$LT$T$C$A$GT$$u20$as$u20$alloc..vec..spec_extend..SpecExtend$LT$T$C$I$GT$$GT$11spec_extend17hd1980574a9ec2ab9E', symObjAddr: 0x13110, symBinAddr: 0x825B0, symSize: 0x100 }
  - { offsetInCU: 0x3B013, offset: 0x27AEAB, size: 0x8, addend: 0x0, symName: '__ZN97_$LT$alloc..vec..Vec$LT$T$C$A$GT$$u20$as$u20$alloc..vec..spec_extend..SpecExtend$LT$T$C$I$GT$$GT$11spec_extend17he326d35e9b0b5779E', symObjAddr: 0x13210, symBinAddr: 0x826B0, symSize: 0x670 }
  - { offsetInCU: 0x3DA81, offset: 0x27D919, size: 0x8, addend: 0x0, symName: '__ZN65_$LT$alloc..vec..Vec$LT$T$C$A$GT$$u20$as$u20$core..fmt..Debug$GT$3fmt17h3e19e46c95090761E', symObjAddr: 0xE580, symBinAddr: 0x81C00, symSize: 0x80 }
  - { offsetInCU: 0x3E0D5, offset: 0x27DF6D, size: 0x8, addend: 0x0, symName: '__ZN70_$LT$alloc..vec..Vec$LT$T$C$A$GT$$u20$as$u20$core..ops..drop..Drop$GT$4drop17ha1c46ee356be7175E', symObjAddr: 0x12530, symBinAddr: 0x822C0, symSize: 0x80 }
  - { offsetInCU: 0x3E15F, offset: 0x27DFF7, size: 0x8, addend: 0x0, symName: '__ZN70_$LT$alloc..vec..Vec$LT$T$C$A$GT$$u20$as$u20$core..ops..drop..Drop$GT$4drop17haac0f2ead37a83a5E', symObjAddr: 0x125B0, symBinAddr: 0x82340, symSize: 0xB0 }
  - { offsetInCU: 0x3E1C1, offset: 0x27E059, size: 0x8, addend: 0x0, symName: '__ZN70_$LT$alloc..vec..Vec$LT$T$C$A$GT$$u20$as$u20$core..ops..drop..Drop$GT$4drop17hb96511c1410270f4E', symObjAddr: 0x12780, symBinAddr: 0x823F0, symSize: 0xB0 }
  - { offsetInCU: 0x3E33D, offset: 0x27E1D5, size: 0x8, addend: 0x0, symName: '__ZN70_$LT$alloc..vec..Vec$LT$T$C$A$GT$$u20$as$u20$core..ops..drop..Drop$GT$4drop17hd1322190145f035dE', symObjAddr: 0x12930, symBinAddr: 0x824A0, symSize: 0x90 }
  - { offsetInCU: 0x3E443, offset: 0x27E2DB, size: 0x8, addend: 0x0, symName: '__ZN70_$LT$alloc..vec..Vec$LT$T$C$A$GT$$u20$as$u20$core..ops..drop..Drop$GT$4drop17hfddea9c8473ad6f6E', symObjAddr: 0x12C30, symBinAddr: 0x82530, symSize: 0x80 }
  - { offsetInCU: 0x3E5EE, offset: 0x27E486, size: 0x8, addend: 0x0, symName: '__ZN67_$LT$alloc..vec..Vec$LT$T$C$A$GT$$u20$as$u20$core..clone..Clone$GT$5clone17h24997e572bc498a7E', symObjAddr: 0xEFC0, symBinAddr: 0x81C80, symSize: 0x390 }
  - { offsetInCU: 0x3F1C5, offset: 0x27F05D, size: 0x8, addend: 0x0, symName: '__ZN67_$LT$alloc..vec..Vec$LT$T$C$A$GT$$u20$as$u20$core..clone..Clone$GT$5clone17hc4988e4008115670E', symObjAddr: 0x11380, symBinAddr: 0x82010, symSize: 0x2B0 }
  - { offsetInCU: 0x48EA6, offset: 0x288D3E, size: 0x8, addend: 0x0, symName: '__ZN5alloc3vec16Vec$LT$T$C$A$GT$16into_boxed_slice17h024a9e1f6dd0eb78E', symObjAddr: 0xE190, symBinAddr: 0x81B70, symSize: 0x90 }
  - { offsetInCU: 0x1E, offset: 0x28DB4E, size: 0x8, addend: 0x0, symName: __ZN5alloc7raw_vec11finish_grow17h835635d1269408a0E.llvm.6325988268937029972, symObjAddr: 0x0, symBinAddr: 0x82D20, symSize: 0xA0 }
  - { offsetInCU: 0x671F, offset: 0x29424F, size: 0x8, addend: 0x0, symName: __ZN5alloc7raw_vec11finish_grow17h835635d1269408a0E.llvm.6325988268937029972, symObjAddr: 0x0, symBinAddr: 0x82D20, symSize: 0xA0 }
  - { offsetInCU: 0x86D5, offset: 0x296205, size: 0x8, addend: 0x0, symName: '__ZN5alloc7raw_vec19RawVec$LT$T$C$A$GT$7reserve21do_reserve_and_handle17h13c018c554f6abd0E', symObjAddr: 0x1FD0, symBinAddr: 0x1C6AB0, symSize: 0xC0 }
  - { offsetInCU: 0x8A27, offset: 0x296557, size: 0x8, addend: 0x0, symName: '__ZN5alloc7raw_vec19RawVec$LT$T$C$A$GT$7reserve21do_reserve_and_handle17h214494add848a148E', symObjAddr: 0x2090, symBinAddr: 0x1C6B70, symSize: 0xC0 }
  - { offsetInCU: 0x8D7A, offset: 0x2968AA, size: 0x8, addend: 0x0, symName: '__ZN5alloc7raw_vec19RawVec$LT$T$C$A$GT$7reserve21do_reserve_and_handle17h40bab3f670f64c67E', symObjAddr: 0x2150, symBinAddr: 0x1C6C30, symSize: 0xC0 }
  - { offsetInCU: 0x90CC, offset: 0x296BFC, size: 0x8, addend: 0x0, symName: '__ZN5alloc7raw_vec19RawVec$LT$T$C$A$GT$7reserve21do_reserve_and_handle17h797428fa4f38120aE', symObjAddr: 0x23B0, symBinAddr: 0x1C6CF0, symSize: 0xC0 }
  - { offsetInCU: 0x941E, offset: 0x296F4E, size: 0x8, addend: 0x0, symName: '__ZN5alloc7raw_vec19RawVec$LT$T$C$A$GT$7reserve21do_reserve_and_handle17hd888e23e4c2bd144E', symObjAddr: 0x2470, symBinAddr: 0x1C6DB0, symSize: 0xB0 }
  - { offsetInCU: 0x975D, offset: 0x29728D, size: 0x8, addend: 0x0, symName: '__ZN77_$LT$alloc..raw_vec..RawVec$LT$T$C$A$GT$$u20$as$u20$core..ops..drop..Drop$GT$4drop17h6c6fd9c116ad0c74E', symObjAddr: 0x2720, symBinAddr: 0x84060, symSize: 0x0 }
  - { offsetInCU: 0x985A, offset: 0x29738A, size: 0x8, addend: 0x0, symName: '__ZN77_$LT$alloc..raw_vec..RawVec$LT$T$C$A$GT$$u20$as$u20$core..ops..drop..Drop$GT$4drop17hba0320ec2f949a38E', symObjAddr: 0x28A0, symBinAddr: 0x84090, symSize: 0x0 }
  - { offsetInCU: 0xF039, offset: 0x29CB69, size: 0x8, addend: 0x0, symName: '__ZN5alloc7raw_vec19RawVec$LT$T$C$A$GT$11allocate_in17hb51eef22739192aaE', symObjAddr: 0x870, symBinAddr: 0x82DC0, symSize: 0x70 }
  - { offsetInCU: 0xF3CC, offset: 0x29CEFC, size: 0x8, addend: 0x0, symName: '__ZN5alloc7raw_vec19RawVec$LT$T$C$A$GT$16reserve_for_push17h18e1051c99d90182E', symObjAddr: 0xBF0, symBinAddr: 0x82E30, symSize: 0xD0 }
  - { offsetInCU: 0xF891, offset: 0x29D3C1, size: 0x8, addend: 0x0, symName: '__ZN5alloc7raw_vec19RawVec$LT$T$C$A$GT$16reserve_for_push17h1d32b4f94470160eE', symObjAddr: 0xCC0, symBinAddr: 0x82F00, symSize: 0x0 }
  - { offsetInCU: 0xFD55, offset: 0x29D885, size: 0x8, addend: 0x0, symName: '__ZN5alloc7raw_vec19RawVec$LT$T$C$A$GT$16reserve_for_push17h245cfb4a8257421aE', symObjAddr: 0xD80, symBinAddr: 0x82FC0, symSize: 0xD0 }
  - { offsetInCU: 0x1021A, offset: 0x29DD4A, size: 0x8, addend: 0x0, symName: '__ZN5alloc7raw_vec19RawVec$LT$T$C$A$GT$16reserve_for_push17h296e58e879ed95bbE', symObjAddr: 0xE50, symBinAddr: 0x83090, symSize: 0xD0 }
  - { offsetInCU: 0x106DF, offset: 0x29E20F, size: 0x8, addend: 0x0, symName: '__ZN5alloc7raw_vec19RawVec$LT$T$C$A$GT$16reserve_for_push17h2c8e6b8c8c6e5170E', symObjAddr: 0xF20, symBinAddr: 0x83160, symSize: 0xD0 }
  - { offsetInCU: 0x10BA4, offset: 0x29E6D4, size: 0x8, addend: 0x0, symName: '__ZN5alloc7raw_vec19RawVec$LT$T$C$A$GT$16reserve_for_push17h39c2ec84e943635aE', symObjAddr: 0xFF0, symBinAddr: 0x83230, symSize: 0xD0 }
  - { offsetInCU: 0x1107D, offset: 0x29EBAD, size: 0x8, addend: 0x0, symName: '__ZN5alloc7raw_vec19RawVec$LT$T$C$A$GT$16reserve_for_push17h41d82450e00eae77E', symObjAddr: 0x10C0, symBinAddr: 0x83300, symSize: 0x0 }
  - { offsetInCU: 0x11541, offset: 0x29F071, size: 0x8, addend: 0x0, symName: '__ZN5alloc7raw_vec19RawVec$LT$T$C$A$GT$16reserve_for_push17h4241d3651c582227E', symObjAddr: 0x1180, symBinAddr: 0x833C0, symSize: 0x0 }
  - { offsetInCU: 0x11A06, offset: 0x29F536, size: 0x8, addend: 0x0, symName: '__ZN5alloc7raw_vec19RawVec$LT$T$C$A$GT$16reserve_for_push17h46a23222a4b20700E', symObjAddr: 0x1250, symBinAddr: 0x83490, symSize: 0x0 }
  - { offsetInCU: 0x11ECB, offset: 0x29F9FB, size: 0x8, addend: 0x0, symName: '__ZN5alloc7raw_vec19RawVec$LT$T$C$A$GT$16reserve_for_push17h52de2e841bbd4653E', symObjAddr: 0x1320, symBinAddr: 0x83560, symSize: 0xD0 }
  - { offsetInCU: 0x12390, offset: 0x29FEC0, size: 0x8, addend: 0x0, symName: '__ZN5alloc7raw_vec19RawVec$LT$T$C$A$GT$16reserve_for_push17h5435f1226628b70cE', symObjAddr: 0x13F0, symBinAddr: 0x83630, symSize: 0xD0 }
  - { offsetInCU: 0x12855, offset: 0x2A0385, size: 0x8, addend: 0x0, symName: '__ZN5alloc7raw_vec19RawVec$LT$T$C$A$GT$16reserve_for_push17h71935351b86bec57E', symObjAddr: 0x14C0, symBinAddr: 0x83700, symSize: 0xB0 }
  - { offsetInCU: 0x12D19, offset: 0x2A0849, size: 0x8, addend: 0x0, symName: '__ZN5alloc7raw_vec19RawVec$LT$T$C$A$GT$16reserve_for_push17h770742f0033a3542E', symObjAddr: 0x1570, symBinAddr: 0x837B0, symSize: 0xC0 }
  - { offsetInCU: 0x131DD, offset: 0x2A0D0D, size: 0x8, addend: 0x0, symName: '__ZN5alloc7raw_vec19RawVec$LT$T$C$A$GT$16reserve_for_push17h86f692456b543eb7E', symObjAddr: 0x1630, symBinAddr: 0x83870, symSize: 0xC0 }
  - { offsetInCU: 0x136A2, offset: 0x2A11D2, size: 0x8, addend: 0x0, symName: '__ZN5alloc7raw_vec19RawVec$LT$T$C$A$GT$16reserve_for_push17h878804b307f94982E', symObjAddr: 0x16F0, symBinAddr: 0x83930, symSize: 0xC0 }
  - { offsetInCU: 0x13B67, offset: 0x2A1697, size: 0x8, addend: 0x0, symName: '__ZN5alloc7raw_vec19RawVec$LT$T$C$A$GT$16reserve_for_push17h889a33689b0264dfE', symObjAddr: 0x17B0, symBinAddr: 0x839F0, symSize: 0xD0 }
  - { offsetInCU: 0x14056, offset: 0x2A1B86, size: 0x8, addend: 0x0, symName: '__ZN5alloc7raw_vec19RawVec$LT$T$C$A$GT$16reserve_for_push17h8eafba0cab3c2dcdE', symObjAddr: 0x1880, symBinAddr: 0x83AC0, symSize: 0xC0 }
  - { offsetInCU: 0x1451A, offset: 0x2A204A, size: 0x8, addend: 0x0, symName: '__ZN5alloc7raw_vec19RawVec$LT$T$C$A$GT$16reserve_for_push17h98c6de81c43255e3E', symObjAddr: 0x1940, symBinAddr: 0x83B80, symSize: 0x0 }
  - { offsetInCU: 0x149DF, offset: 0x2A250F, size: 0x8, addend: 0x0, symName: '__ZN5alloc7raw_vec19RawVec$LT$T$C$A$GT$16reserve_for_push17ha7ffa53757f2c194E', symObjAddr: 0x1A10, symBinAddr: 0x83C50, symSize: 0xD0 }
  - { offsetInCU: 0x14EA4, offset: 0x2A29D4, size: 0x8, addend: 0x0, symName: '__ZN5alloc7raw_vec19RawVec$LT$T$C$A$GT$16reserve_for_push17hbe43935ff1be244bE', symObjAddr: 0x1AE0, symBinAddr: 0x83D20, symSize: 0x0 }
  - { offsetInCU: 0x15368, offset: 0x2A2E98, size: 0x8, addend: 0x0, symName: '__ZN5alloc7raw_vec19RawVec$LT$T$C$A$GT$16reserve_for_push17hcca166daf631fbe0E', symObjAddr: 0x1BB0, symBinAddr: 0x83DF0, symSize: 0xD0 }
  - { offsetInCU: 0x1583A, offset: 0x2A336A, size: 0x8, addend: 0x0, symName: '__ZN5alloc7raw_vec19RawVec$LT$T$C$A$GT$16reserve_for_push17hd979c897ae7ef7edE', symObjAddr: 0x1C80, symBinAddr: 0x83EC0, symSize: 0xD0 }
  - { offsetInCU: 0x15CFE, offset: 0x2A382E, size: 0x8, addend: 0x0, symName: '__ZN5alloc7raw_vec19RawVec$LT$T$C$A$GT$16reserve_for_push17he5e22af04e3866afE', symObjAddr: 0x1D50, symBinAddr: 0x83F90, symSize: 0xD0 }
  - { offsetInCU: 0x1E, offset: 0x2A3F42, size: 0x8, addend: 0x0, symName: '__ZN4core3ptr100drop_in_place$LT$core..option..Option$LT$alloc..boxed..Box$LT$syn..path..GenericArgument$GT$$GT$$GT$17h7435c9de74860622E', symObjAddr: 0x0, symBinAddr: 0x840C0, symSize: 0x50 }
  - { offsetInCU: 0xB0, offset: 0x2A3FD4, size: 0x8, addend: 0x0, symName: '__ZN58_$LT$alloc..string..String$u20$as$u20$core..fmt..Write$GT$10write_char17hd329c0cb943f081aE', symObjAddr: 0x6FF0, symBinAddr: 0x8B0B0, symSize: 0x130 }
  - { offsetInCU: 0x457, offset: 0x2A437B, size: 0x8, addend: 0x0, symName: '__ZN58_$LT$alloc..string..String$u20$as$u20$core..fmt..Write$GT$9write_str17h1ff5aa96ca91c6d5E', symObjAddr: 0x7120, symBinAddr: 0x8B1E0, symSize: 0x60 }
  - { offsetInCU: 0x3433, offset: 0x2A7357, size: 0x8, addend: 0x0, symName: '__ZN4core3ptr100drop_in_place$LT$core..option..Option$LT$alloc..boxed..Box$LT$syn..path..GenericArgument$GT$$GT$$GT$17h7435c9de74860622E', symObjAddr: 0x0, symBinAddr: 0x840C0, symSize: 0x50 }
  - { offsetInCU: 0x3602, offset: 0x2A7526, size: 0x8, addend: 0x0, symName: '__ZN4core3ptr102drop_in_place$LT$syn..punctuated..Punctuated$LT$syn..path..GenericArgument$C$syn..token..Comma$GT$$GT$17h39496ba4e6dba6cfE', symObjAddr: 0x50, symBinAddr: 0x84110, symSize: 0xF0 }
  - { offsetInCU: 0x38EB, offset: 0x2A780F, size: 0x8, addend: 0x0, symName: '__ZN4core3ptr103drop_in_place$LT$core..option..Option$LT$alloc..boxed..Box$LT$syn..generics..TypeParamBound$GT$$GT$$GT$17h5974f03e36b1a9c3E', symObjAddr: 0x140, symBinAddr: 0x84200, symSize: 0x50 }
  - { offsetInCU: 0x3AF8, offset: 0x2A7A1C, size: 0x8, addend: 0x0, symName: '__ZN4core3ptr103drop_in_place$LT$syn..punctuated..Punctuated$LT$syn..generics..GenericParam$C$syn..token..Comma$GT$$GT$17hf42353fa44ed6da8E', symObjAddr: 0x190, symBinAddr: 0x84250, symSize: 0xF0 }
  - { offsetInCU: 0x4094, offset: 0x2A7FB8, size: 0x8, addend: 0x0, symName: '__ZN4core3ptr104drop_in_place$LT$syn..punctuated..Punctuated$LT$syn..generics..TypeParamBound$C$syn..token..Plus$GT$$GT$17h532f52c4a894b056E', symObjAddr: 0x280, symBinAddr: 0x84340, symSize: 0x230 }
  - { offsetInCU: 0x4972, offset: 0x2A8896, size: 0x8, addend: 0x0, symName: '__ZN4core3ptr34drop_in_place$LT$syn..lit..Lit$GT$17h8902f5ff67917034E', symObjAddr: 0x4B0, symBinAddr: 0x84570, symSize: 0x110 }
  - { offsetInCU: 0x4ECB, offset: 0x2A8DEF, size: 0x8, addend: 0x0, symName: '__ZN4core3ptr34drop_in_place$LT$syn..pat..Pat$GT$17h4581eea028ec0969E', symObjAddr: 0x5C0, symBinAddr: 0x84680, symSize: 0xEE0 }
  - { offsetInCU: 0x851A, offset: 0x2AC43E, size: 0x8, addend: 0x0, symName: '__ZN4core3ptr34drop_in_place$LT$syn..ty..Type$GT$17h369e41ad4a9f1ae0E', symObjAddr: 0x14A0, symBinAddr: 0x85560, symSize: 0x5C0 }
  - { offsetInCU: 0x9D50, offset: 0x2ADC74, size: 0x8, addend: 0x0, symName: '__ZN4core3ptr36drop_in_place$LT$syn..expr..Expr$GT$17h0f7fd4c749bae801E.llvm.6085117338949153622', symObjAddr: 0x1A60, symBinAddr: 0x85B20, symSize: 0x2800 }
  - { offsetInCU: 0x12F2D, offset: 0x2B6E51, size: 0x8, addend: 0x0, symName: '__ZN4core3ptr36drop_in_place$LT$syn..mac..Macro$GT$17h4ffde962df30ebe2E', symObjAddr: 0x4260, symBinAddr: 0x88320, symSize: 0xE0 }
  - { offsetInCU: 0x1329E, offset: 0x2B71C2, size: 0x8, addend: 0x0, symName: '__ZN4core3ptr36drop_in_place$LT$syn..path..Path$GT$17habea856181211e1cE', symObjAddr: 0x4340, symBinAddr: 0x88400, symSize: 0x220 }
  - { offsetInCU: 0x13BD3, offset: 0x2B7AF7, size: 0x8, addend: 0x0, symName: '__ZN4core3ptr37drop_in_place$LT$core..fmt..Error$GT$17h8e130a2736288a98E', symObjAddr: 0x4560, symBinAddr: 0x88620, symSize: 0x10 }
  - { offsetInCU: 0x13BFF, offset: 0x2B7B23, size: 0x8, addend: 0x0, symName: '__ZN4core3ptr37drop_in_place$LT$syn..stmt..Block$GT$17hcc21a21cf949414cE', symObjAddr: 0x4570, symBinAddr: 0x88630, symSize: 0xD0 }
  - { offsetInCU: 0x13EA3, offset: 0x2B7DC7, size: 0x8, addend: 0x0, symName: '__ZN4core3ptr38drop_in_place$LT$syn..expr..Member$GT$17h022cbe5553aa40faE', symObjAddr: 0x4640, symBinAddr: 0x88700, symSize: 0x30 }
  - { offsetInCU: 0x1403B, offset: 0x2B7F5F, size: 0x8, addend: 0x0, symName: '__ZN4core3ptr38drop_in_place$LT$syn..group..Group$GT$17hc3a29a397b30f633E', symObjAddr: 0x4670, symBinAddr: 0x88730, symSize: 0x70 }
  - { offsetInCU: 0x14351, offset: 0x2B8275, size: 0x8, addend: 0x0, symName: '__ZN4core3ptr39drop_in_place$LT$proc_macro2..Ident$GT$17h8101e88c3ac359d6E', symObjAddr: 0x46E0, symBinAddr: 0x887A0, symSize: 0x30 }
  - { offsetInCU: 0x1446D, offset: 0x2B8391, size: 0x8, addend: 0x0, symName: '__ZN4core3ptr39drop_in_place$LT$syn..lit..LitFloat$GT$17h58fbb0bf27438490E', symObjAddr: 0x4710, symBinAddr: 0x887D0, symSize: 0x70 }
  - { offsetInCU: 0x147ED, offset: 0x2B8711, size: 0x8, addend: 0x0, symName: '__ZN4core3ptr40drop_in_place$LT$syn..expr..ExprPath$GT$17h03786fb79b09c4c0E', symObjAddr: 0x4780, symBinAddr: 0x88840, symSize: 0x110 }
  - { offsetInCU: 0x14BF7, offset: 0x2B8B1B, size: 0x8, addend: 0x0, symName: '__ZN4core3ptr40drop_in_place$LT$syn..ty..ReturnType$GT$17h02cf41e2fec63d90E', symObjAddr: 0x4890, symBinAddr: 0x88950, symSize: 0x50 }
  - { offsetInCU: 0x14DC6, offset: 0x2B8CEA, size: 0x8, addend: 0x0, symName: '__ZN4core3ptr41drop_in_place$LT$syn..attr..Attribute$GT$17h6038ab1bc013504dE', symObjAddr: 0x48E0, symBinAddr: 0x889A0, symSize: 0xB0 }
  - { offsetInCU: 0x14E4B, offset: 0x2B8D6F, size: 0x8, addend: 0x0, symName: '__ZN4core3ptr41drop_in_place$LT$syn..expr..ExprConst$GT$17h725a13e551d9f276E', symObjAddr: 0x4990, symBinAddr: 0x88A50, symSize: 0x180 }
  - { offsetInCU: 0x153A0, offset: 0x2B92C4, size: 0x8, addend: 0x0, symName: '__ZN4core3ptr42drop_in_place$LT$alloc..string..String$GT$17h781ac6273fa84cb0E', symObjAddr: 0x4B10, symBinAddr: 0x88BD0, symSize: 0x20 }
  - { offsetInCU: 0x154A9, offset: 0x2B93CD, size: 0x8, addend: 0x0, symName: '__ZN4core3ptr44drop_in_place$LT$syn..lifetime..Lifetime$GT$17hf0cdec2e9ec456d6E', symObjAddr: 0x4B30, symBinAddr: 0x88BF0, symSize: 0x30 }
  - { offsetInCU: 0x155A6, offset: 0x2B94CA, size: 0x8, addend: 0x0, symName: '__ZN4core3ptr44drop_in_place$LT$syn..parse..ParseBuffer$GT$17hd0dadba44a19aec2E', symObjAddr: 0x4B60, symBinAddr: 0x88C20, symSize: 0x70 }
  - { offsetInCU: 0x159DB, offset: 0x2B98FF, size: 0x8, addend: 0x0, symName: '__ZN4core3ptr45drop_in_place$LT$proc_macro2..TokenStream$GT$17h3405f6c513e9f6cbE', symObjAddr: 0x4BD0, symBinAddr: 0x88C90, symSize: 0x140 }
  - { offsetInCU: 0x15E4A, offset: 0x2B9D6E, size: 0x8, addend: 0x0, symName: '__ZN4core3ptr45drop_in_place$LT$syn..generics..TypeParam$GT$17he5eda51070b7de47E', symObjAddr: 0x4D10, symBinAddr: 0x88DD0, symSize: 0x230 }
  - { offsetInCU: 0x16646, offset: 0x2BA56A, size: 0x8, addend: 0x0, symName: '__ZN4core3ptr46drop_in_place$LT$syn..generics..ConstParam$GT$17hab0a58c4af8c549cE', symObjAddr: 0x4F40, symBinAddr: 0x89000, symSize: 0x150 }
  - { offsetInCU: 0x16A70, offset: 0x2BA994, size: 0x8, addend: 0x0, symName: '__ZN4core3ptr47drop_in_place$LT$syn..path..GenericArgument$GT$17h54f8794633f96823E', symObjAddr: 0x5090, symBinAddr: 0x89150, symSize: 0x460 }
  - { offsetInCU: 0x17779, offset: 0x2BB69D, size: 0x8, addend: 0x0, symName: '__ZN4core3ptr49drop_in_place$LT$syn..generics..LifetimeParam$GT$17h41a7c7a290ea6289E', symObjAddr: 0x54F0, symBinAddr: 0x895B0, symSize: 0xF0 }
  - { offsetInCU: 0x17B33, offset: 0x2BBA57, size: 0x8, addend: 0x0, symName: '__ZN4core3ptr50drop_in_place$LT$syn..generics..TypeParamBound$GT$17hcd7771d4c6c221efE', symObjAddr: 0x55E0, symBinAddr: 0x896A0, symSize: 0xA0 }
  - { offsetInCU: 0x17C9A, offset: 0x2BBBBE, size: 0x8, addend: 0x0, symName: '__ZN4core3ptr58drop_in_place$LT$alloc..vec..Vec$LT$syn..expr..Arm$GT$$GT$17h1a55df3d2cba1daaE', symObjAddr: 0x5680, symBinAddr: 0x89740, symSize: 0xD0 }
  - { offsetInCU: 0x17F27, offset: 0x2BBE4B, size: 0x8, addend: 0x0, symName: '__ZN4core3ptr59drop_in_place$LT$alloc..boxed..Box$LT$syn..pat..Pat$GT$$GT$17h563b135d87aca8abE', symObjAddr: 0x5750, symBinAddr: 0x89810, symSize: 0x50 }
  - { offsetInCU: 0x18082, offset: 0x2BBFA6, size: 0x8, addend: 0x0, symName: '__ZN4core3ptr59drop_in_place$LT$alloc..boxed..Box$LT$syn..ty..Type$GT$$GT$17hffed36bad83adacbE', symObjAddr: 0x57A0, symBinAddr: 0x89860, symSize: 0x50 }
  - { offsetInCU: 0x181DD, offset: 0x2BC101, size: 0x8, addend: 0x0, symName: '__ZN4core3ptr61drop_in_place$LT$alloc..boxed..Box$LT$syn..expr..Expr$GT$$GT$17h01091e47f131475dE', symObjAddr: 0x57F0, symBinAddr: 0x898B0, symSize: 0x50 }
  - { offsetInCU: 0x18338, offset: 0x2BC25C, size: 0x8, addend: 0x0, symName: '__ZN4core3ptr61drop_in_place$LT$syn..path..ParenthesizedGenericArguments$GT$17h43d4aac5494326a7E', symObjAddr: 0x5840, symBinAddr: 0x89900, symSize: 0x170 }
  - { offsetInCU: 0x18912, offset: 0x2BC836, size: 0x8, addend: 0x0, symName: '__ZN4core3ptr63drop_in_place$LT$alloc..boxed..Box$LT$syn..lit..LitRepr$GT$$GT$17hd8839b7fb35ee7afE', symObjAddr: 0x59B0, symBinAddr: 0x89A70, symSize: 0x60 }
  - { offsetInCU: 0x18C07, offset: 0x2BCB2B, size: 0x8, addend: 0x0, symName: '__ZN4core3ptr64drop_in_place$LT$alloc..boxed..Box$LT$syn..pat..FieldPat$GT$$GT$17h4980b70a7597cc08E', symObjAddr: 0x5A10, symBinAddr: 0x89AD0, symSize: 0x140 }
  - { offsetInCU: 0x192B2, offset: 0x2BD1D6, size: 0x8, addend: 0x0, symName: '__ZN4core3ptr64drop_in_place$LT$alloc..boxed..Box$LT$syn..ty..BareFnArg$GT$$GT$17h8b34096c620314efE', symObjAddr: 0x5B50, symBinAddr: 0x89C10, symSize: 0x140 }
  - { offsetInCU: 0x197D6, offset: 0x2BD6FA, size: 0x8, addend: 0x0, symName: '__ZN4core3ptr64drop_in_place$LT$alloc..vec..Vec$LT$syn..attr..Attribute$GT$$GT$17h3c8f2a04e701c675E.llvm.6085117338949153622', symObjAddr: 0x5C90, symBinAddr: 0x89D50, symSize: 0xD0 }
  - { offsetInCU: 0x19A63, offset: 0x2BD987, size: 0x8, addend: 0x0, symName: '__ZN4core3ptr65drop_in_place$LT$core..option..Option$LT$syn..expr..Label$GT$$GT$17h78189e72a8cb7951E', symObjAddr: 0x5D60, symBinAddr: 0x89E20, symSize: 0x30 }
  - { offsetInCU: 0x19B9E, offset: 0x2BDAC2, size: 0x8, addend: 0x0, symName: '__ZN4core3ptr65drop_in_place$LT$core..option..Option$LT$syn..path..QSelf$GT$$GT$17h9b72552ca06b7379E', symObjAddr: 0x5D90, symBinAddr: 0x89E50, symSize: 0x50 }
  - { offsetInCU: 0x19D21, offset: 0x2BDC45, size: 0x8, addend: 0x0, symName: '__ZN4core3ptr66drop_in_place$LT$core..option..Option$LT$syn..pat..PatRest$GT$$GT$17h61677cf4ff3a7393E', symObjAddr: 0x5DE0, symBinAddr: 0x89EA0, symSize: 0xE0 }
  - { offsetInCU: 0x19FA5, offset: 0x2BDEC9, size: 0x8, addend: 0x0, symName: '__ZN4core3ptr67drop_in_place$LT$alloc..boxed..Box$LT$syn..expr..FieldValue$GT$$GT$17h93aaccf8aa22ef88E', symObjAddr: 0x5EC0, symBinAddr: 0x89F80, symSize: 0x140 }
  - { offsetInCU: 0x1A4C8, offset: 0x2BE3EC, size: 0x8, addend: 0x0, symName: '__ZN4core3ptr70drop_in_place$LT$core..option..Option$LT$syn..ty..BareVariadic$GT$$GT$17h45399348ea4b8d55E', symObjAddr: 0x6000, symBinAddr: 0x8A0C0, symSize: 0x120 }
  - { offsetInCU: 0x1A9F5, offset: 0x2BE919, size: 0x8, addend: 0x0, symName: '__ZN4core3ptr72drop_in_place$LT$alloc..boxed..Box$LT$syn..path..GenericArgument$GT$$GT$17haa7dd8b716637b54E', symObjAddr: 0x6120, symBinAddr: 0x8A1E0, symSize: 0x2B0 }
  - { offsetInCU: 0x1B3E0, offset: 0x2BF304, size: 0x8, addend: 0x0, symName: '__ZN4core3ptr72drop_in_place$LT$core..option..Option$LT$syn..lifetime..Lifetime$GT$$GT$17hfc363ccdd8bd9c32E', symObjAddr: 0x63D0, symBinAddr: 0x8A490, symSize: 0x30 }
  - { offsetInCU: 0x1B4FC, offset: 0x2BF420, size: 0x8, addend: 0x0, symName: '__ZN4core3ptr73drop_in_place$LT$alloc..boxed..Box$LT$syn..generics..GenericParam$GT$$GT$17hf6951dcd5ae07324E', symObjAddr: 0x6400, symBinAddr: 0x8A4C0, symSize: 0x80 }
  - { offsetInCU: 0x1B674, offset: 0x2BF598, size: 0x8, addend: 0x0, symName: '__ZN4core3ptr75drop_in_place$LT$alloc..boxed..Box$LT$syn..generics..TypeParamBound$GT$$GT$17he61c00698a311a34E', symObjAddr: 0x6480, symBinAddr: 0x8A540, symSize: 0x160 }
  - { offsetInCU: 0x1BC3A, offset: 0x2BFB5E, size: 0x8, addend: 0x0, symName: '__ZN4core3ptr83drop_in_place$LT$core..result..Result$LT$syn..op..BinOp$C$syn..error..Error$GT$$GT$17h1f0ce0e4fd241856E', symObjAddr: 0x65E0, symBinAddr: 0x8A6A0, symSize: 0x90 }
  - { offsetInCU: 0x1BF1E, offset: 0x2BFE42, size: 0x8, addend: 0x0, symName: '__ZN4core3ptr86drop_in_place$LT$syn..punctuated..Punctuated$LT$syn..pat..Pat$C$syn..token..Or$GT$$GT$17h8e9173df21a44316E', symObjAddr: 0x6670, symBinAddr: 0x8A730, symSize: 0x120 }
  - { offsetInCU: 0x1C364, offset: 0x2C0288, size: 0x8, addend: 0x0, symName: '__ZN4core3ptr87drop_in_place$LT$core..option..Option$LT$alloc..boxed..Box$LT$syn..pat..Pat$GT$$GT$$GT$17hd7b7c69f601b3926E', symObjAddr: 0x6790, symBinAddr: 0x8A850, symSize: 0x50 }
  - { offsetInCU: 0x1C4D6, offset: 0x2C03FA, size: 0x8, addend: 0x0, symName: '__ZN4core3ptr87drop_in_place$LT$core..option..Option$LT$alloc..boxed..Box$LT$syn..ty..Type$GT$$GT$$GT$17hd74f5d971aec2972E', symObjAddr: 0x67E0, symBinAddr: 0x8A8A0, symSize: 0x50 }
  - { offsetInCU: 0x1C648, offset: 0x2C056C, size: 0x8, addend: 0x0, symName: '__ZN4core3ptr89drop_in_place$LT$core..option..Option$LT$alloc..boxed..Box$LT$syn..expr..Expr$GT$$GT$$GT$17h8e135ac1a25a2dc5E', symObjAddr: 0x6830, symBinAddr: 0x8A8F0, symSize: 0x50 }
  - { offsetInCU: 0x1C7F8, offset: 0x2C071C, size: 0x8, addend: 0x0, symName: '__ZN4core3ptr89drop_in_place$LT$syn..punctuated..Punctuated$LT$syn..pat..Pat$C$syn..token..Comma$GT$$GT$17h8d60e47f3fb1f87aE', symObjAddr: 0x6880, symBinAddr: 0x8A940, symSize: 0x120 }
  - { offsetInCU: 0x1CC93, offset: 0x2C0BB7, size: 0x8, addend: 0x0, symName: '__ZN4core3ptr91drop_in_place$LT$syn..punctuated..Punctuated$LT$syn..expr..Expr$C$syn..token..Comma$GT$$GT$17h4f39b83dc86a4159E', symObjAddr: 0x69A0, symBinAddr: 0x8AA60, symSize: 0x120 }
  - { offsetInCU: 0x1D0DD, offset: 0x2C1001, size: 0x8, addend: 0x0, symName: '__ZN4core3ptr94drop_in_place$LT$syn..punctuated..Punctuated$LT$syn..pat..FieldPat$C$syn..token..Comma$GT$$GT$17h112950ea198c8281E', symObjAddr: 0x6AC0, symBinAddr: 0x8AB80, symSize: 0xF0 }
  - { offsetInCU: 0x1D3A7, offset: 0x2C12CB, size: 0x8, addend: 0x0, symName: '__ZN4core3ptr94drop_in_place$LT$syn..punctuated..Punctuated$LT$syn..ty..BareFnArg$C$syn..token..Comma$GT$$GT$17h1c7b44310f06243dE', symObjAddr: 0x6BB0, symBinAddr: 0x8AC70, symSize: 0xF0 }
  - { offsetInCU: 0x1D671, offset: 0x2C1595, size: 0x8, addend: 0x0, symName: '__ZN4core3ptr96drop_in_place$LT$core..option..Option$LT$alloc..boxed..Box$LT$syn..path..PathSegment$GT$$GT$$GT$17hb447d0f626c86a4eE', symObjAddr: 0x6CA0, symBinAddr: 0x8AD60, symSize: 0x180 }
  - { offsetInCU: 0x1DD02, offset: 0x2C1C26, size: 0x8, addend: 0x0, symName: '__ZN4core3ptr97drop_in_place$LT$syn..punctuated..Punctuated$LT$syn..expr..FieldValue$C$syn..token..Comma$GT$$GT$17h31b81f7462228dcbE', symObjAddr: 0x6E20, symBinAddr: 0x8AEE0, symSize: 0xF0 }
  - { offsetInCU: 0x1E048, offset: 0x2C1F6C, size: 0x8, addend: 0x0, symName: '__ZN4core3ptr98drop_in_place$LT$syn..punctuated..Punctuated$LT$syn..lifetime..Lifetime$C$syn..token..Plus$GT$$GT$17h0f8fc5f20f465f47E', symObjAddr: 0x6F10, symBinAddr: 0x8AFD0, symSize: 0xC0 }
  - { offsetInCU: 0x1EAEC, offset: 0x2C2A10, size: 0x8, addend: 0x0, symName: '__ZN53_$LT$core..fmt..Error$u20$as$u20$core..fmt..Debug$GT$3fmt17h43ae5cec9623af13E', symObjAddr: 0x6FD0, symBinAddr: 0x8B090, symSize: 0x20 }
  - { offsetInCU: 0x2902C, offset: 0x2CCF50, size: 0x8, addend: 0x0, symName: __ZN3syn4expr7parsing32parse_with_earlier_boundary_rule17hb02ce308a02a4a1eE, symObjAddr: 0x7180, symBinAddr: 0x8B240, symSize: 0x15B0 }
  - { offsetInCU: 0x2B40B, offset: 0x2CF32F, size: 0x8, addend: 0x0, symName: __ZN3syn4expr7parsing14can_begin_expr17hb418906263911ccdE, symObjAddr: 0x8730, symBinAddr: 0x8C7F0, symSize: 0x4C0 }
  - { offsetInCU: 0x2C9D3, offset: 0x2D08F7, size: 0x8, addend: 0x0, symName: __ZN3syn4expr7parsing10parse_expr17h9eb2cb7aa6283d86E.llvm.6085117338949153622, symObjAddr: 0x8BF0, symBinAddr: 0x8CCB0, symSize: 0x12E0 }
  - { offsetInCU: 0x2F6C4, offset: 0x2D35E8, size: 0x8, addend: 0x0, symName: __ZN3syn4expr7parsing15parse_binop_rhs17h21ef9d80df571ec4E, symObjAddr: 0x9ED0, symBinAddr: 0x8DF90, symSize: 0x540 }
  - { offsetInCU: 0x301E2, offset: 0x2D4106, size: 0x8, addend: 0x0, symName: __ZN3syn4expr7parsing14ambiguous_expr17he0894ca122c7f4e6E, symObjAddr: 0xA410, symBinAddr: 0x8E4D0, symSize: 0x100 }
  - { offsetInCU: 0x3025C, offset: 0x2D4180, size: 0x8, addend: 0x0, symName: __ZN3syn4expr7parsing10expr_attrs17hf14159509fa85ca8E, symObjAddr: 0xA510, symBinAddr: 0x8E5D0, symSize: 0x2A0 }
  - { offsetInCU: 0x30822, offset: 0x2D4746, size: 0x8, addend: 0x0, symName: __ZN3syn4expr7parsing10unary_expr17h8c2a984611866bdaE, symObjAddr: 0xA7B0, symBinAddr: 0x8E870, symSize: 0x8C0 }
  - { offsetInCU: 0x31E85, offset: 0x2D5DA9, size: 0x8, addend: 0x0, symName: __ZN3syn4expr7parsing12trailer_expr17h8a2bdad4a40548d7E, symObjAddr: 0xB070, symBinAddr: 0x8F130, symSize: 0x1A90 }
  - { offsetInCU: 0x360F9, offset: 0x2DA01D, size: 0x8, addend: 0x0, symName: __ZN3syn4expr7parsing14trailer_helper17h1b30b9a4fbca87bcE, symObjAddr: 0xCB00, symBinAddr: 0x90BC0, symSize: 0x21A0 }
  - { offsetInCU: 0x3A2BC, offset: 0x2DE1E0, size: 0x8, addend: 0x0, symName: __ZN3syn4expr7parsing12atom_labeled17h2b63f0bdbd1ffcf9E, symObjAddr: 0xECA0, symBinAddr: 0x92D60, symSize: 0x730 }
  - { offsetInCU: 0x3AC96, offset: 0x2DEBBA, size: 0x8, addend: 0x0, symName: __ZN3syn4expr7parsing12expr_builtin17hfe4d7860eb8d93a5E, symObjAddr: 0xF3D0, symBinAddr: 0x93490, symSize: 0x3E0 }
  - { offsetInCU: 0x3B6EA, offset: 0x2DF60E, size: 0x8, addend: 0x0, symName: __ZN3syn4expr7parsing23path_or_macro_or_struct17h3a35c18dd12111cfE, symObjAddr: 0xF7B0, symBinAddr: 0x93870, symSize: 0x160 }
  - { offsetInCU: 0x3B7A4, offset: 0x2DF6C8, size: 0x8, addend: 0x0, symName: __ZN3syn4expr7parsing31rest_of_path_or_macro_or_struct17h1201e78c90bb81baE, symObjAddr: 0xF910, symBinAddr: 0x939D0, symSize: 0x460 }
  - { offsetInCU: 0x3C023, offset: 0x2DFF47, size: 0x8, addend: 0x0, symName: __ZN3syn4expr7parsing14paren_or_tuple17h595ef5967864e1f0E, symObjAddr: 0xFD70, symBinAddr: 0x93E30, symSize: 0x810 }
  - { offsetInCU: 0x3C955, offset: 0x2E0879, size: 0x8, addend: 0x0, symName: __ZN3syn4expr7parsing15array_or_repeat17h16f1a87c0a940f8cE, symObjAddr: 0x10580, symBinAddr: 0x94640, symSize: 0x1240 }
  - { offsetInCU: 0x3F918, offset: 0x2E383C, size: 0x8, addend: 0x0, symName: __ZN3syn4expr7parsing10expr_group17h143c5f8a1b43603cE, symObjAddr: 0x117C0, symBinAddr: 0x95880, symSize: 0x920 }
  - { offsetInCU: 0x403D5, offset: 0x2E42F9, size: 0x8, addend: 0x0, symName: __ZN3syn4expr7parsing8expr_let17h53e6315ac8b5aee1E, symObjAddr: 0x12340, symBinAddr: 0x961A0, symSize: 0x560 }
  - { offsetInCU: 0x40B94, offset: 0x2E4AB8, size: 0x8, addend: 0x0, symName: __ZN3syn4expr7parsing10expr_unary17haacb582ebfbd68bfE, symObjAddr: 0x128A0, symBinAddr: 0x96700, symSize: 0x2E0 }
  - { offsetInCU: 0x41119, offset: 0x2E503D, size: 0x8, addend: 0x0, symName: __ZN3syn4expr7parsing12expr_closure17h23f22c4f2a9fedcbE, symObjAddr: 0x12B80, symBinAddr: 0x969E0, symSize: 0x1530 }
  - { offsetInCU: 0x42CDC, offset: 0x2E6C00, size: 0x8, addend: 0x0, symName: __ZN3syn4expr7parsing10expr_break17hd5ff63487f71dcffE, symObjAddr: 0x140B0, symBinAddr: 0x97F10, symSize: 0x7E0 }
  - { offsetInCU: 0x43E2C, offset: 0x2E7D50, size: 0x8, addend: 0x0, symName: __ZN3syn4expr7parsing18expr_struct_helper17h4c61023c9d934da0E, symObjAddr: 0x14890, symBinAddr: 0x986F0, symSize: 0x9C0 }
  - { offsetInCU: 0x44E92, offset: 0x2E8DB6, size: 0x8, addend: 0x0, symName: __ZN3syn4expr7parsing10expr_range17h09e34d6c6faf79a6E, symObjAddr: 0x15250, symBinAddr: 0x990B0, symSize: 0xE0 }
  - { offsetInCU: 0x45052, offset: 0x2E8F76, size: 0x8, addend: 0x0, symName: __ZN3syn4expr7parsing15parse_range_end17h0db540d84762afd5E, symObjAddr: 0x15330, symBinAddr: 0x99190, symSize: 0x194 }
  - { offsetInCU: 0x1E, offset: 0x2FBD28, size: 0x8, addend: 0x0, symName: '__ZN4core3ptr100drop_in_place$LT$core..option..Option$LT$alloc..boxed..Box$LT$syn..path..GenericArgument$GT$$GT$$GT$17h7435c9de74860622E', symObjAddr: 0x0, symBinAddr: 0x99330, symSize: 0x50 }
  - { offsetInCU: 0x18A2, offset: 0x2FD5AC, size: 0x8, addend: 0x0, symName: '__ZN4core3ptr100drop_in_place$LT$core..option..Option$LT$alloc..boxed..Box$LT$syn..path..GenericArgument$GT$$GT$$GT$17h7435c9de74860622E', symObjAddr: 0x0, symBinAddr: 0x99330, symSize: 0x50 }
  - { offsetInCU: 0x1A71, offset: 0x2FD77B, size: 0x8, addend: 0x0, symName: '__ZN4core3ptr102drop_in_place$LT$syn..punctuated..Punctuated$LT$syn..path..GenericArgument$C$syn..token..Comma$GT$$GT$17h39496ba4e6dba6cfE', symObjAddr: 0x50, symBinAddr: 0x99380, symSize: 0xF0 }
  - { offsetInCU: 0x1D5A, offset: 0x2FDA64, size: 0x8, addend: 0x0, symName: '__ZN4core3ptr103drop_in_place$LT$core..option..Option$LT$alloc..boxed..Box$LT$syn..generics..TypeParamBound$GT$$GT$$GT$17h5974f03e36b1a9c3E', symObjAddr: 0x140, symBinAddr: 0x99470, symSize: 0x50 }
  - { offsetInCU: 0x2021, offset: 0x2FDD2B, size: 0x8, addend: 0x0, symName: '__ZN4core3ptr103drop_in_place$LT$core..option..Option$LT$alloc..boxed..Box$LT$syn..generics..WherePredicate$GT$$GT$$GT$17hdd5111a374d8d6f2E', symObjAddr: 0x190, symBinAddr: 0x994C0, symSize: 0xD0 }
  - { offsetInCU: 0x23B4, offset: 0x2FE0BE, size: 0x8, addend: 0x0, symName: '__ZN4core3ptr103drop_in_place$LT$syn..punctuated..Punctuated$LT$syn..generics..GenericParam$C$syn..token..Comma$GT$$GT$17hf42353fa44ed6da8E', symObjAddr: 0x260, symBinAddr: 0x99590, symSize: 0xF0 }
  - { offsetInCU: 0x2877, offset: 0x2FE581, size: 0x8, addend: 0x0, symName: '__ZN4core3ptr104drop_in_place$LT$syn..punctuated..Punctuated$LT$syn..generics..TypeParamBound$C$syn..token..Plus$GT$$GT$17h532f52c4a894b056E', symObjAddr: 0x350, symBinAddr: 0x99680, symSize: 0x230 }
  - { offsetInCU: 0x326C, offset: 0x2FEF76, size: 0x8, addend: 0x0, symName: '__ZN4core3ptr109drop_in_place$LT$core..result..Result$LT$core..option..Option$LT$syn..ty..Abi$GT$$C$syn..error..Error$GT$$GT$17h8e7e96ef88c194afE', symObjAddr: 0x580, symBinAddr: 0x998B0, symSize: 0xD0 }
  - { offsetInCU: 0x384A, offset: 0x2FF554, size: 0x8, addend: 0x0, symName: '__ZN4core3ptr115drop_in_place$LT$core..option..Option$LT$$LP$alloc..boxed..Box$LT$syn..pat..Pat$GT$$C$syn..token..Colon$RP$$GT$$GT$17he854acc3c4717d92E', symObjAddr: 0x650, symBinAddr: 0x99980, symSize: 0x50 }
  - { offsetInCU: 0x3A1A, offset: 0x2FF724, size: 0x8, addend: 0x0, symName: '__ZN4core3ptr115drop_in_place$LT$core..option..Option$LT$$LP$syn..token..Brace$C$alloc..vec..Vec$LT$syn..item..Item$GT$$RP$$GT$$GT$17h6df5bf3d47177236E', symObjAddr: 0x6A0, symBinAddr: 0x999D0, symSize: 0xE0 }
  - { offsetInCU: 0x3CC1, offset: 0x2FF9CB, size: 0x8, addend: 0x0, symName: '__ZN4core3ptr126drop_in_place$LT$core..option..Option$LT$$LP$syn..token..And$C$core..option..Option$LT$syn..lifetime..Lifetime$GT$$RP$$GT$$GT$17hc269ac95805979aaE', symObjAddr: 0x780, symBinAddr: 0x99AB0, symSize: 0x30 }
  - { offsetInCU: 0x3E1B, offset: 0x2FFB25, size: 0x8, addend: 0x0, symName: '__ZN4core3ptr34drop_in_place$LT$syn..lit..Lit$GT$17h8902f5ff67917034E', symObjAddr: 0x7B0, symBinAddr: 0x99AE0, symSize: 0x110 }
  - { offsetInCU: 0x4355, offset: 0x30005F, size: 0x8, addend: 0x0, symName: '__ZN4core3ptr34drop_in_place$LT$syn..pat..Pat$GT$17h4581eea028ec0969E', symObjAddr: 0x8C0, symBinAddr: 0x99BF0, symSize: 0xEE0 }
  - { offsetInCU: 0x78CB, offset: 0x3035D5, size: 0x8, addend: 0x0, symName: '__ZN4core3ptr34drop_in_place$LT$syn..ty..Type$GT$17h369e41ad4a9f1ae0E', symObjAddr: 0x17A0, symBinAddr: 0x9AAD0, symSize: 0x5C0 }
  - { offsetInCU: 0x9101, offset: 0x304E0B, size: 0x8, addend: 0x0, symName: '__ZN4core3ptr36drop_in_place$LT$syn..expr..Expr$GT$17h0f7fd4c749bae801E', symObjAddr: 0x1D60, symBinAddr: 0x9B090, symSize: 0x2800 }
  - { offsetInCU: 0x126FC, offset: 0x30E406, size: 0x8, addend: 0x0, symName: '__ZN4core3ptr36drop_in_place$LT$syn..item..Item$GT$17h13f5a53479ba6379E', symObjAddr: 0x4560, symBinAddr: 0x9D890, symSize: 0x1800 }
  - { offsetInCU: 0x17CD5, offset: 0x3139DF, size: 0x8, addend: 0x0, symName: '__ZN4core3ptr36drop_in_place$LT$syn..mac..Macro$GT$17h4ffde962df30ebe2E', symObjAddr: 0x5D60, symBinAddr: 0x9F090, symSize: 0xE0 }
  - { offsetInCU: 0x18046, offset: 0x313D50, size: 0x8, addend: 0x0, symName: '__ZN4core3ptr36drop_in_place$LT$syn..path..Path$GT$17habea856181211e1cE', symObjAddr: 0x5E40, symBinAddr: 0x9F170, symSize: 0x220 }
  - { offsetInCU: 0x1897B, offset: 0x314685, size: 0x8, addend: 0x0, symName: '__ZN4core3ptr37drop_in_place$LT$syn..item..FnArg$GT$17h3308e115b3b3c9adE', symObjAddr: 0x6060, symBinAddr: 0x9F390, symSize: 0x190 }
  - { offsetInCU: 0x18EB6, offset: 0x314BC0, size: 0x8, addend: 0x0, symName: '__ZN4core3ptr37drop_in_place$LT$syn..stmt..Block$GT$17hcc21a21cf949414cE', symObjAddr: 0x61F0, symBinAddr: 0x9F520, symSize: 0xD0 }
  - { offsetInCU: 0x19179, offset: 0x314E83, size: 0x8, addend: 0x0, symName: '__ZN4core3ptr38drop_in_place$LT$syn..data..Fields$GT$17h1dd1b203befc1316E', symObjAddr: 0x62C0, symBinAddr: 0x9F5F0, symSize: 0x190 }
  - { offsetInCU: 0x19597, offset: 0x3152A1, size: 0x8, addend: 0x0, symName: '__ZN4core3ptr38drop_in_place$LT$syn..expr..Member$GT$17h022cbe5553aa40faE', symObjAddr: 0x6450, symBinAddr: 0x9F780, symSize: 0x30 }
  - { offsetInCU: 0x19694, offset: 0x31539E, size: 0x8, addend: 0x0, symName: '__ZN4core3ptr39drop_in_place$LT$proc_macro2..Ident$GT$17h8101e88c3ac359d6E', symObjAddr: 0x6480, symBinAddr: 0x9F7B0, symSize: 0x30 }
  - { offsetInCU: 0x197EE, offset: 0x3154F8, size: 0x8, addend: 0x0, symName: '__ZN4core3ptr39drop_in_place$LT$syn..item..UseTree$GT$17h5b1281a5704d139dE', symObjAddr: 0x64B0, symBinAddr: 0x9F7E0, symSize: 0xD0 }
  - { offsetInCU: 0x19BA3, offset: 0x3158AD, size: 0x8, addend: 0x0, symName: '__ZN4core3ptr39drop_in_place$LT$syn..ty..TypeGroup$GT$17h40bac393b20ff4afE', symObjAddr: 0x6580, symBinAddr: 0x9F8B0, symSize: 0x50 }
  - { offsetInCU: 0x19D8C, offset: 0x315A96, size: 0x8, addend: 0x0, symName: '__ZN4core3ptr40drop_in_place$LT$syn..item..ImplItem$GT$17he2e6e8f15695ea55E', symObjAddr: 0x65D0, symBinAddr: 0x9F900, symSize: 0x7D0 }
  - { offsetInCU: 0x1B534, offset: 0x31723E, size: 0x8, addend: 0x0, symName: '__ZN4core3ptr40drop_in_place$LT$syn..item..ItemImpl$GT$17h1b09f17c1730ab9cE', symObjAddr: 0x6DA0, symBinAddr: 0xA00D0, symSize: 0x1F0 }
  - { offsetInCU: 0x1BC6F, offset: 0x317979, size: 0x8, addend: 0x0, symName: '__ZN4core3ptr40drop_in_place$LT$syn..item..Receiver$GT$17h6743a41cd869c536E', symObjAddr: 0x6F90, symBinAddr: 0xA02C0, symSize: 0x130 }
  - { offsetInCU: 0x1C202, offset: 0x317F0C, size: 0x8, addend: 0x0, symName: '__ZN4core3ptr40drop_in_place$LT$syn..item..Variadic$GT$17h856c1da4a3922974E', symObjAddr: 0x70C0, symBinAddr: 0xA03F0, symSize: 0x110 }
  - { offsetInCU: 0x1C625, offset: 0x31832F, size: 0x8, addend: 0x0, symName: '__ZN4core3ptr40drop_in_place$LT$syn..ty..ReturnType$GT$17h02cf41e2fec63d90E', symObjAddr: 0x71D0, symBinAddr: 0xA0500, symSize: 0x50 }
  - { offsetInCU: 0x1C797, offset: 0x3184A1, size: 0x8, addend: 0x0, symName: '__ZN4core3ptr41drop_in_place$LT$syn..expr..ExprConst$GT$17h725a13e551d9f276E', symObjAddr: 0x7220, symBinAddr: 0xA0550, symSize: 0x180 }
  - { offsetInCU: 0x1CD0B, offset: 0x318A15, size: 0x8, addend: 0x0, symName: '__ZN4core3ptr41drop_in_place$LT$syn..item..Signature$GT$17h691f115807a5d1eeE', symObjAddr: 0x73A0, symBinAddr: 0xA06D0, symSize: 0x160 }
  - { offsetInCU: 0x1D3F7, offset: 0x319101, size: 0x8, addend: 0x0, symName: '__ZN4core3ptr41drop_in_place$LT$syn..item..TraitItem$GT$17hb6f9fbcba8fdea85E', symObjAddr: 0x7500, symBinAddr: 0xA0830, symSize: 0x6A0 }
  - { offsetInCU: 0x1E676, offset: 0x31A380, size: 0x8, addend: 0x0, symName: '__ZN4core3ptr43drop_in_place$LT$syn..data..FieldsNamed$GT$17hb2a97e73a85352cbE', symObjAddr: 0x7BA0, symBinAddr: 0xA0ED0, symSize: 0xE0 }
  - { offsetInCU: 0x1E965, offset: 0x31A66F, size: 0x8, addend: 0x0, symName: '__ZN4core3ptr44drop_in_place$LT$syn..generics..Generics$GT$17h10dea28dec64f81eE', symObjAddr: 0x7C80, symBinAddr: 0xA0FB0, symSize: 0x40 }
  - { offsetInCU: 0x1E982, offset: 0x31A68C, size: 0x8, addend: 0x0, symName: '__ZN4core3ptr44drop_in_place$LT$syn..lifetime..Lifetime$GT$17hf0cdec2e9ec456d6E', symObjAddr: 0x7CC0, symBinAddr: 0xA0FF0, symSize: 0x30 }
  - { offsetInCU: 0x1EAFB, offset: 0x31A805, size: 0x8, addend: 0x0, symName: '__ZN4core3ptr44drop_in_place$LT$syn..parse..ParseBuffer$GT$17hd0dadba44a19aec2E', symObjAddr: 0x7CF0, symBinAddr: 0xA1020, symSize: 0x70 }
  - { offsetInCU: 0x1EF30, offset: 0x31AC3A, size: 0x8, addend: 0x0, symName: '__ZN4core3ptr45drop_in_place$LT$proc_macro2..TokenStream$GT$17h3405f6c513e9f6cbE', symObjAddr: 0x7D60, symBinAddr: 0xA1090, symSize: 0x140 }
  - { offsetInCU: 0x1F39F, offset: 0x31B0A9, size: 0x8, addend: 0x0, symName: '__ZN4core3ptr45drop_in_place$LT$syn..generics..TypeParam$GT$17he5eda51070b7de47E', symObjAddr: 0x7EA0, symBinAddr: 0xA11D0, symSize: 0x230 }
  - { offsetInCU: 0x1FB9B, offset: 0x31B8A5, size: 0x8, addend: 0x0, symName: '__ZN4core3ptr46drop_in_place$LT$syn..generics..ConstParam$GT$17hab0a58c4af8c549cE', symObjAddr: 0x80D0, symBinAddr: 0xA1400, symSize: 0x150 }
  - { offsetInCU: 0x1FFC5, offset: 0x31BCCF, size: 0x8, addend: 0x0, symName: '__ZN4core3ptr47drop_in_place$LT$syn..path..GenericArgument$GT$17h54f8794633f96823E', symObjAddr: 0x8220, symBinAddr: 0xA1550, symSize: 0x460 }
  - { offsetInCU: 0x20CCE, offset: 0x31C9D8, size: 0x8, addend: 0x0, symName: '__ZN4core3ptr49drop_in_place$LT$syn..generics..LifetimeParam$GT$17h41a7c7a290ea6289E', symObjAddr: 0x8680, symBinAddr: 0xA19B0, symSize: 0xF0 }
  - { offsetInCU: 0x21088, offset: 0x31CD92, size: 0x8, addend: 0x0, symName: '__ZN4core3ptr49drop_in_place$LT$syn..restriction..Visibility$GT$17h2a932c493942ef80E', symObjAddr: 0x8770, symBinAddr: 0xA1AA0, symSize: 0x60 }
  - { offsetInCU: 0x2120B, offset: 0x31CF15, size: 0x8, addend: 0x0, symName: '__ZN4core3ptr50drop_in_place$LT$syn..generics..TypeParamBound$GT$17hcd7771d4c6c221efE', symObjAddr: 0x87D0, symBinAddr: 0xA1B00, symSize: 0xA0 }
  - { offsetInCU: 0x21372, offset: 0x31D07C, size: 0x8, addend: 0x0, symName: '__ZN4core3ptr58drop_in_place$LT$alloc..vec..Vec$LT$syn..expr..Arm$GT$$GT$17h1a55df3d2cba1daaE', symObjAddr: 0x8870, symBinAddr: 0xA1BA0, symSize: 0xD0 }
  - { offsetInCU: 0x215FF, offset: 0x31D309, size: 0x8, addend: 0x0, symName: '__ZN4core3ptr59drop_in_place$LT$alloc..boxed..Box$LT$syn..pat..Pat$GT$$GT$17h563b135d87aca8abE', symObjAddr: 0x8940, symBinAddr: 0xA1C70, symSize: 0x50 }
  - { offsetInCU: 0x2175A, offset: 0x31D464, size: 0x8, addend: 0x0, symName: '__ZN4core3ptr59drop_in_place$LT$alloc..boxed..Box$LT$syn..ty..Type$GT$$GT$17hffed36bad83adacbE', symObjAddr: 0x8990, symBinAddr: 0xA1CC0, symSize: 0x50 }
  - { offsetInCU: 0x218B5, offset: 0x31D5BF, size: 0x8, addend: 0x0, symName: '__ZN4core3ptr61drop_in_place$LT$alloc..boxed..Box$LT$syn..expr..Expr$GT$$GT$17h01091e47f131475dE', symObjAddr: 0x89E0, symBinAddr: 0xA1D10, symSize: 0x50 }
  - { offsetInCU: 0x21A10, offset: 0x31D71A, size: 0x8, addend: 0x0, symName: '__ZN4core3ptr61drop_in_place$LT$syn..path..ParenthesizedGenericArguments$GT$17h43d4aac5494326a7E', symObjAddr: 0x8A30, symBinAddr: 0xA1D60, symSize: 0x170 }
  - { offsetInCU: 0x21FEA, offset: 0x31DCF4, size: 0x8, addend: 0x0, symName: '__ZN4core3ptr62drop_in_place$LT$alloc..boxed..Box$LT$syn..stmt..Block$GT$$GT$17h30434998ae0f12a8E', symObjAddr: 0x8BA0, symBinAddr: 0xA1ED0, symSize: 0xE0 }
  - { offsetInCU: 0x223C7, offset: 0x31E0D1, size: 0x8, addend: 0x0, symName: '__ZN4core3ptr63drop_in_place$LT$alloc..boxed..Box$LT$syn..lit..LitRepr$GT$$GT$17hd8839b7fb35ee7afE', symObjAddr: 0x8C80, symBinAddr: 0xA1FB0, symSize: 0x60 }
  - { offsetInCU: 0x2269D, offset: 0x31E3A7, size: 0x8, addend: 0x0, symName: '__ZN4core3ptr63drop_in_place$LT$alloc..vec..Vec$LT$syn..item..ImplItem$GT$$GT$17hda9ba61cc1df3d0eE', symObjAddr: 0x8CE0, symBinAddr: 0xA2010, symSize: 0x80 }
  - { offsetInCU: 0x2293A, offset: 0x31E644, size: 0x8, addend: 0x0, symName: '__ZN4core3ptr64drop_in_place$LT$alloc..boxed..Box$LT$syn..item..UseTree$GT$$GT$17he10cba0a4742709fE', symObjAddr: 0x8D60, symBinAddr: 0xA2090, symSize: 0xF0 }
  - { offsetInCU: 0x22E7A, offset: 0x31EB84, size: 0x8, addend: 0x0, symName: '__ZN4core3ptr64drop_in_place$LT$alloc..boxed..Box$LT$syn..pat..FieldPat$GT$$GT$17h4980b70a7597cc08E', symObjAddr: 0x8E50, symBinAddr: 0xA2180, symSize: 0x140 }
  - { offsetInCU: 0x23525, offset: 0x31F22F, size: 0x8, addend: 0x0, symName: '__ZN4core3ptr64drop_in_place$LT$alloc..boxed..Box$LT$syn..ty..BareFnArg$GT$$GT$17h8b34096c620314efE', symObjAddr: 0x8F90, symBinAddr: 0xA22C0, symSize: 0x140 }
  - { offsetInCU: 0x23A49, offset: 0x31F753, size: 0x8, addend: 0x0, symName: '__ZN4core3ptr64drop_in_place$LT$alloc..vec..Vec$LT$syn..attr..Attribute$GT$$GT$17h3c8f2a04e701c675E', symObjAddr: 0x90D0, symBinAddr: 0xA2400, symSize: 0xD0 }
  - { offsetInCU: 0x23CD6, offset: 0x31F9E0, size: 0x8, addend: 0x0, symName: '__ZN4core3ptr64drop_in_place$LT$alloc..vec..Vec$LT$syn..item..TraitItem$GT$$GT$17h60eb4b8666c57b93E', symObjAddr: 0x91A0, symBinAddr: 0xA24D0, symSize: 0x80 }
  - { offsetInCU: 0x23F54, offset: 0x31FC5E, size: 0x8, addend: 0x0, symName: '__ZN4core3ptr65drop_in_place$LT$core..option..Option$LT$syn..expr..Label$GT$$GT$17h78189e72a8cb7951E', symObjAddr: 0x9220, symBinAddr: 0xA2550, symSize: 0x30 }
  - { offsetInCU: 0x2408F, offset: 0x31FD99, size: 0x8, addend: 0x0, symName: '__ZN4core3ptr65drop_in_place$LT$core..option..Option$LT$syn..path..QSelf$GT$$GT$17h9b72552ca06b7379E', symObjAddr: 0x9250, symBinAddr: 0xA2580, symSize: 0x50 }
  - { offsetInCU: 0x24212, offset: 0x31FF1C, size: 0x8, addend: 0x0, symName: '__ZN4core3ptr66drop_in_place$LT$alloc..vec..Vec$LT$syn..item..ForeignItem$GT$$GT$17h3e58b8e683c84cf4E', symObjAddr: 0x92A0, symBinAddr: 0xA25D0, symSize: 0x80 }
  - { offsetInCU: 0x24490, offset: 0x32019A, size: 0x8, addend: 0x0, symName: '__ZN4core3ptr66drop_in_place$LT$core..option..Option$LT$syn..pat..PatRest$GT$$GT$17h61677cf4ff3a7393E', symObjAddr: 0x9320, symBinAddr: 0xA2650, symSize: 0xE0 }
  - { offsetInCU: 0x24714, offset: 0x32041E, size: 0x8, addend: 0x0, symName: '__ZN4core3ptr67drop_in_place$LT$alloc..boxed..Box$LT$syn..expr..FieldValue$GT$$GT$17h93aaccf8aa22ef88E', symObjAddr: 0x9400, symBinAddr: 0xA2730, symSize: 0x140 }
  - { offsetInCU: 0x24C37, offset: 0x320941, size: 0x8, addend: 0x0, symName: '__ZN4core3ptr70drop_in_place$LT$core..option..Option$LT$syn..ty..BareVariadic$GT$$GT$17h45399348ea4b8d55E', symObjAddr: 0x9540, symBinAddr: 0xA2870, symSize: 0x120 }
  - { offsetInCU: 0x25164, offset: 0x320E6E, size: 0x8, addend: 0x0, symName: '__ZN4core3ptr72drop_in_place$LT$alloc..boxed..Box$LT$syn..path..GenericArgument$GT$$GT$17haa7dd8b716637b54E', symObjAddr: 0x9660, symBinAddr: 0xA2990, symSize: 0x2B0 }
  - { offsetInCU: 0x25B4F, offset: 0x321859, size: 0x8, addend: 0x0, symName: '__ZN4core3ptr72drop_in_place$LT$core..option..Option$LT$syn..lifetime..Lifetime$GT$$GT$17hfc363ccdd8bd9c32E', symObjAddr: 0x9910, symBinAddr: 0xA2C40, symSize: 0x30 }
  - { offsetInCU: 0x25C6B, offset: 0x321975, size: 0x8, addend: 0x0, symName: '__ZN4core3ptr73drop_in_place$LT$alloc..boxed..Box$LT$syn..generics..GenericParam$GT$$GT$17hf6951dcd5ae07324E', symObjAddr: 0x9940, symBinAddr: 0xA2C70, symSize: 0x80 }
  - { offsetInCU: 0x25DE3, offset: 0x321AED, size: 0x8, addend: 0x0, symName: '__ZN4core3ptr75drop_in_place$LT$alloc..boxed..Box$LT$syn..generics..TypeParamBound$GT$$GT$17he61c00698a311a34E', symObjAddr: 0x99C0, symBinAddr: 0xA2CF0, symSize: 0x160 }
  - { offsetInCU: 0x263C8, offset: 0x3220D2, size: 0x8, addend: 0x0, symName: '__ZN4core3ptr75drop_in_place$LT$core..option..Option$LT$syn..generics..WhereClause$GT$$GT$17hdce7670be9790a3dE', symObjAddr: 0x9B20, symBinAddr: 0xA2E50, symSize: 0x90 }
  - { offsetInCU: 0x2667E, offset: 0x322388, size: 0x8, addend: 0x0, symName: '__ZN4core3ptr86drop_in_place$LT$syn..punctuated..Punctuated$LT$syn..pat..Pat$C$syn..token..Or$GT$$GT$17h8e9173df21a44316E', symObjAddr: 0x9BB0, symBinAddr: 0xA2EE0, symSize: 0x120 }
  - { offsetInCU: 0x26AC4, offset: 0x3227CE, size: 0x8, addend: 0x0, symName: '__ZN4core3ptr87drop_in_place$LT$core..option..Option$LT$alloc..boxed..Box$LT$syn..pat..Pat$GT$$GT$$GT$17hd7b7c69f601b3926E', symObjAddr: 0x9CD0, symBinAddr: 0xA3000, symSize: 0x50 }
  - { offsetInCU: 0x26C36, offset: 0x322940, size: 0x8, addend: 0x0, symName: '__ZN4core3ptr87drop_in_place$LT$core..option..Option$LT$alloc..boxed..Box$LT$syn..ty..Type$GT$$GT$$GT$17hd74f5d971aec2972E', symObjAddr: 0x9D20, symBinAddr: 0xA3050, symSize: 0x50 }
  - { offsetInCU: 0x26DA8, offset: 0x322AB2, size: 0x8, addend: 0x0, symName: '__ZN4core3ptr89drop_in_place$LT$core..option..Option$LT$alloc..boxed..Box$LT$syn..expr..Expr$GT$$GT$$GT$17h8e135ac1a25a2dc5E', symObjAddr: 0x9D70, symBinAddr: 0xA30A0, symSize: 0x50 }
  - { offsetInCU: 0x26F58, offset: 0x322C62, size: 0x8, addend: 0x0, symName: '__ZN4core3ptr89drop_in_place$LT$syn..punctuated..Punctuated$LT$syn..pat..Pat$C$syn..token..Comma$GT$$GT$17h8d60e47f3fb1f87aE', symObjAddr: 0x9DC0, symBinAddr: 0xA30F0, symSize: 0x120 }
  - { offsetInCU: 0x273F3, offset: 0x3230FD, size: 0x8, addend: 0x0, symName: '__ZN4core3ptr90drop_in_place$LT$core..option..Option$LT$alloc..boxed..Box$LT$syn..data..Field$GT$$GT$$GT$17h326c39537b0fcc46E', symObjAddr: 0x9EE0, symBinAddr: 0xA3210, symSize: 0x200 }
  - { offsetInCU: 0x27C49, offset: 0x323953, size: 0x8, addend: 0x0, symName: '__ZN4core3ptr90drop_in_place$LT$core..option..Option$LT$alloc..boxed..Box$LT$syn..item..FnArg$GT$$GT$$GT$17hbae3fdd388277508E', symObjAddr: 0xA0E0, symBinAddr: 0xA3410, symSize: 0x50 }
  - { offsetInCU: 0x27DEC, offset: 0x323AF6, size: 0x8, addend: 0x0, symName: '__ZN4core3ptr91drop_in_place$LT$syn..punctuated..Punctuated$LT$syn..expr..Expr$C$syn..token..Comma$GT$$GT$17h4f39b83dc86a4159E', symObjAddr: 0xA130, symBinAddr: 0xA3460, symSize: 0x120 }
  - { offsetInCU: 0x28249, offset: 0x323F53, size: 0x8, addend: 0x0, symName: '__ZN4core3ptr92drop_in_place$LT$core..option..Option$LT$$LP$syn..token..As$C$proc_macro2..Ident$RP$$GT$$GT$17h5c1a47ccb35d9d7eE', symObjAddr: 0xA250, symBinAddr: 0xA3580, symSize: 0x30 }
  - { offsetInCU: 0x283A3, offset: 0x3240AD, size: 0x8, addend: 0x0, symName: '__ZN4core3ptr92drop_in_place$LT$core..option..Option$LT$alloc..boxed..Box$LT$syn..data..Variant$GT$$GT$$GT$17h3f89d7c982191526E', symObjAddr: 0xA280, symBinAddr: 0xA35B0, symSize: 0x190 }
  - { offsetInCU: 0x28A4C, offset: 0x324756, size: 0x8, addend: 0x0, symName: '__ZN4core3ptr92drop_in_place$LT$syn..punctuated..Punctuated$LT$syn..item..FnArg$C$syn..token..Comma$GT$$GT$17h75db9d232662c7d3E', symObjAddr: 0xA410, symBinAddr: 0xA3740, symSize: 0x130 }
  - { offsetInCU: 0x28E83, offset: 0x324B8D, size: 0x8, addend: 0x0, symName: '__ZN4core3ptr94drop_in_place$LT$syn..punctuated..Punctuated$LT$syn..data..Variant$C$syn..token..Comma$GT$$GT$17ha69d7e675441c7e2E', symObjAddr: 0xA540, symBinAddr: 0xA3870, symSize: 0xE0 }
  - { offsetInCU: 0x291B0, offset: 0x324EBA, size: 0x8, addend: 0x0, symName: '__ZN4core3ptr94drop_in_place$LT$syn..punctuated..Punctuated$LT$syn..item..UseTree$C$syn..token..Comma$GT$$GT$17h4e4f303ffad9f549E', symObjAddr: 0xA620, symBinAddr: 0xA3950, symSize: 0xF0 }
  - { offsetInCU: 0x294C1, offset: 0x3251CB, size: 0x8, addend: 0x0, symName: '__ZN4core3ptr94drop_in_place$LT$syn..punctuated..Punctuated$LT$syn..pat..FieldPat$C$syn..token..Comma$GT$$GT$17h112950ea198c8281E', symObjAddr: 0xA710, symBinAddr: 0xA3A40, symSize: 0xF0 }
  - { offsetInCU: 0x2978B, offset: 0x325495, size: 0x8, addend: 0x0, symName: '__ZN4core3ptr94drop_in_place$LT$syn..punctuated..Punctuated$LT$syn..ty..BareFnArg$C$syn..token..Comma$GT$$GT$17h1c7b44310f06243dE', symObjAddr: 0xA800, symBinAddr: 0xA3B30, symSize: 0xF0 }
  - { offsetInCU: 0x29A55, offset: 0x32575F, size: 0x8, addend: 0x0, symName: '__ZN4core3ptr96drop_in_place$LT$core..option..Option$LT$alloc..boxed..Box$LT$syn..path..PathSegment$GT$$GT$$GT$17hb447d0f626c86a4eE', symObjAddr: 0xA8F0, symBinAddr: 0xA3C20, symSize: 0x180 }
  - { offsetInCU: 0x2A0E6, offset: 0x325DF0, size: 0x8, addend: 0x0, symName: '__ZN4core3ptr97drop_in_place$LT$syn..punctuated..Punctuated$LT$syn..expr..FieldValue$C$syn..token..Comma$GT$$GT$17h31b81f7462228dcbE', symObjAddr: 0xAA70, symBinAddr: 0xA3DA0, symSize: 0xF0 }
  - { offsetInCU: 0x2A42C, offset: 0x326136, size: 0x8, addend: 0x0, symName: '__ZN4core3ptr98drop_in_place$LT$syn..punctuated..Punctuated$LT$syn..lifetime..Lifetime$C$syn..token..Plus$GT$$GT$17h0f8fc5f20f465f47E', symObjAddr: 0xAB60, symBinAddr: 0xA3E90, symSize: 0xC0 }
  - { offsetInCU: 0x31801, offset: 0x32D50B, size: 0x8, addend: 0x0, symName: __ZN3syn4item7parsing18parse_rest_of_item17h8569c0eb1b7d8242E, symObjAddr: 0xAC80, symBinAddr: 0xA3FB0, symSize: 0x4130 }
  - { offsetInCU: 0x3D511, offset: 0x33921B, size: 0x8, addend: 0x0, symName: __ZN3syn4item7parsing12parse_macro217h59aca4032c4075c2E, symObjAddr: 0xFC20, symBinAddr: 0xA8F50, symSize: 0x8D0 }
  - { offsetInCU: 0x3F01A, offset: 0x33AD24, size: 0x8, addend: 0x0, symName: __ZN3syn4item7parsing14parse_item_use17h87ea73b5b5534563E, symObjAddr: 0x104F0, symBinAddr: 0xA9820, symSize: 0x520 }
  - { offsetInCU: 0x3FA47, offset: 0x33B751, size: 0x8, addend: 0x0, symName: __ZN3syn4item7parsing14parse_use_tree17ha136166ddfa7b0b8E, symObjAddr: 0x10A10, symBinAddr: 0xA9D40, symSize: 0xE80 }
  - { offsetInCU: 0x42213, offset: 0x33DF1D, size: 0x8, addend: 0x0, symName: __ZN3syn4item7parsing14peek_signature17h5908d52294220ab3E, symObjAddr: 0x11890, symBinAddr: 0xAABC0, symSize: 0x380 }
  - { offsetInCU: 0x432B2, offset: 0x33EFBC, size: 0x8, addend: 0x0, symName: __ZN3syn4item7parsing16parse_rest_of_fn17hff377dc88eaa3b3fE, symObjAddr: 0x11C10, symBinAddr: 0xAAF40, symSize: 0x560 }
  - { offsetInCU: 0x44024, offset: 0x33FD2E, size: 0x8, addend: 0x0, symName: __ZN3syn4item7parsing24parse_fn_arg_or_variadic17h0946b5f8092c2f53E, symObjAddr: 0x12170, symBinAddr: 0xAB4A0, symSize: 0xEC0 }
  - { offsetInCU: 0x46C19, offset: 0x342923, size: 0x8, addend: 0x0, symName: __ZN3syn4item7parsing13parse_fn_args17hfcbadc903471329dE, symObjAddr: 0x13030, symBinAddr: 0xAC360, symSize: 0xA20 }
  - { offsetInCU: 0x47BC2, offset: 0x3438CC, size: 0x8, addend: 0x0, symName: __ZN3syn4item7parsing23parse_foreign_item_type17hbed431625837dc04E, symObjAddr: 0x13A50, symBinAddr: 0xACD80, symSize: 0x450 }
  - { offsetInCU: 0x482A7, offset: 0x343FB1, size: 0x8, addend: 0x0, symName: __ZN3syn4item7parsing15parse_item_type17h69a8e007f956ea7eE, symObjAddr: 0x13EA0, symBinAddr: 0xAD1D0, symSize: 0x580 }
  - { offsetInCU: 0x48D05, offset: 0x344A0F, size: 0x8, addend: 0x0, symName: __ZN3syn4item7parsing26parse_trait_or_trait_alias17h53e52e5f93715b35E, symObjAddr: 0x14420, symBinAddr: 0xAD750, symSize: 0x880 }
  - { offsetInCU: 0x4A6F5, offset: 0x3463FF, size: 0x8, addend: 0x0, symName: __ZN3syn4item7parsing19parse_rest_of_trait17h0b8f1e2c2e0da776E, symObjAddr: 0x14CA0, symBinAddr: 0xADFD0, symSize: 0xC10 }
  - { offsetInCU: 0x4BB3D, offset: 0x347847, size: 0x8, addend: 0x0, symName: __ZN3syn4item7parsing26parse_start_of_trait_alias17h83335d8e31321462E, symObjAddr: 0x158B0, symBinAddr: 0xAEBE0, symSize: 0x4F0 }
  - { offsetInCU: 0x4C514, offset: 0x34821E, size: 0x8, addend: 0x0, symName: __ZN3syn4item7parsing25parse_rest_of_trait_alias17hffc9e5855a2cde04E, symObjAddr: 0x15DA0, symBinAddr: 0xAF0D0, symSize: 0x680 }
  - { offsetInCU: 0x4D0F5, offset: 0x348DFF, size: 0x8, addend: 0x0, symName: __ZN3syn4item7parsing21parse_trait_item_type17h95d0bdc458584a4fE, symObjAddr: 0x16420, symBinAddr: 0xAF750, symSize: 0x4C0 }
  - { offsetInCU: 0x4D840, offset: 0x34954A, size: 0x8, addend: 0x0, symName: __ZN3syn4item7parsing10parse_impl17he5759138fa3bc5b8E, symObjAddr: 0x168E0, symBinAddr: 0xAFC10, symSize: 0x15F0 }
  - { offsetInCU: 0x4F151, offset: 0x34AE5B, size: 0x8, addend: 0x0, symName: __ZN3syn4item7parsing18parse_impl_item_fn17h96506ae9bfc9db41E, symObjAddr: 0x17ED0, symBinAddr: 0xB1200, symSize: 0x770 }
  - { offsetInCU: 0x4FC75, offset: 0x34B97F, size: 0x8, addend: 0x0, symName: __ZN3syn4item7parsing20parse_impl_item_type17h3bf2e7aa4b140554E, symObjAddr: 0x18640, symBinAddr: 0xB1970, symSize: 0x4D7 }
  - { offsetInCU: 0x587D8, offset: 0x3544E2, size: 0x8, addend: 0x0, symName: '__ZN5alloc3vec16Vec$LT$T$C$A$GT$4push17h3158ebd1c3360f00E', symObjAddr: 0xAC20, symBinAddr: 0xA3F50, symSize: 0x60 }
  - { offsetInCU: 0x59999, offset: 0x3556A3, size: 0x8, addend: 0x0, symName: __ZN3syn4item7parsing16FlexibleItemType5parse17ha511062c5b947fc4E, symObjAddr: 0xEDB0, symBinAddr: 0xA80E0, symSize: 0xA10 }
  - { offsetInCU: 0x5A715, offset: 0x35641F, size: 0x8, addend: 0x0, symName: __ZN3syn4item7parsing16FlexibleItemType21parse_optional_bounds17hbbaebf3e2d169441E, symObjAddr: 0xF7C0, symBinAddr: 0xA8AF0, symSize: 0x310 }
  - { offsetInCU: 0x5ADCE, offset: 0x356AD8, size: 0x8, addend: 0x0, symName: __ZN3syn4item7parsing16FlexibleItemType25parse_optional_definition17hbde9bf5fd31dafffE, symObjAddr: 0xFAD0, symBinAddr: 0xA8E00, symSize: 0x150 }
  - { offsetInCU: 0x2B22, offset: 0x364BD2, size: 0x8, addend: 0x0, symName: '__ZN3syn8generics7parsing71_$LT$impl$u20$syn..parse..Parse$u20$for$u20$syn..generics..Generics$GT$5parse17h6b35b0a678693bc9E', symObjAddr: 0x8310, symBinAddr: 0xB9350, symSize: 0x1010 }
  - { offsetInCU: 0x4C8D, offset: 0x366D3D, size: 0x8, addend: 0x0, symName: '__ZN3syn8generics7parsing76_$LT$impl$u20$syn..parse..Parse$u20$for$u20$syn..generics..LifetimeParam$GT$5parse17h3fc29617c6a43bdcE', symObjAddr: 0x9E70, symBinAddr: 0xBA360, symSize: 0x690 }
  - { offsetInCU: 0x5C27, offset: 0x367CD7, size: 0x8, addend: 0x0, symName: '__ZN3syn8generics7parsing77_$LT$impl$u20$syn..parse..Parse$u20$for$u20$syn..generics..BoundLifetimes$GT$5parse17h7a7c384f0cdd4b83E', symObjAddr: 0xA500, symBinAddr: 0xBA9F0, symSize: 0x620 }
  - { offsetInCU: 0x6934, offset: 0x3689E4, size: 0x8, addend: 0x0, symName: '__ZN3syn8generics7parsing72_$LT$impl$u20$syn..parse..Parse$u20$for$u20$syn..generics..TypeParam$GT$5parse17h86074eb5794d472dE', symObjAddr: 0xAB20, symBinAddr: 0xBB010, symSize: 0x7F0 }
  - { offsetInCU: 0x7A25, offset: 0x369AD5, size: 0x8, addend: 0x0, symName: '__ZN3syn8generics7parsing77_$LT$impl$u20$syn..parse..Parse$u20$for$u20$syn..generics..TypeParamBound$GT$5parse17hef57556d60488532E', symObjAddr: 0xB310, symBinAddr: 0xBB800, symSize: 0x1300 }
  - { offsetInCU: 0xB4EB, offset: 0x36D59B, size: 0x8, addend: 0x0, symName: '__ZN3syn8generics7parsing73_$LT$impl$u20$syn..parse..Parse$u20$for$u20$syn..generics..TraitBound$GT$5parse17h425a3489f7ef339fE', symObjAddr: 0xCB70, symBinAddr: 0xBD060, symSize: 0x720 }
  - { offsetInCU: 0xC651, offset: 0x36E701, size: 0x8, addend: 0x0, symName: '__ZN3syn8generics7parsing73_$LT$impl$u20$syn..parse..Parse$u20$for$u20$syn..generics..ConstParam$GT$5parse17hf00c756c03f8df0bE', symObjAddr: 0xD360, symBinAddr: 0xBD780, symSize: 0x880 }
  - { offsetInCU: 0xD59A, offset: 0x36F64A, size: 0x8, addend: 0x0, symName: '__ZN3syn8generics7parsing74_$LT$impl$u20$syn..parse..Parse$u20$for$u20$syn..generics..WhereClause$GT$5parse17h0184ea7b8fa9bf5fE', symObjAddr: 0xDBE0, symBinAddr: 0xBE000, symSize: 0x440 }
  - { offsetInCU: 0xE115, offset: 0x3701C5, size: 0x8, addend: 0x0, symName: '__ZN3syn8generics7parsing77_$LT$impl$u20$syn..parse..Parse$u20$for$u20$syn..generics..WherePredicate$GT$5parse17h285530128cf671e6E', symObjAddr: 0xE020, symBinAddr: 0xBE440, symSize: 0xEB0 }
  - { offsetInCU: 0x10414, offset: 0x3724C4, size: 0x8, addend: 0x0, symName: '__ZN3syn8generics8printing80_$LT$impl$u20$quote..to_tokens..ToTokens$u20$for$u20$syn..generics..Generics$GT$9to_tokens17h0ec80491c61b899eE', symObjAddr: 0xEED0, symBinAddr: 0xBF2F0, symSize: 0x240 }
  - { offsetInCU: 0x10C3E, offset: 0x372CEE, size: 0x8, addend: 0x0, symName: '__ZN3syn8generics8printing86_$LT$impl$u20$quote..to_tokens..ToTokens$u20$for$u20$syn..generics..BoundLifetimes$GT$9to_tokens17hf35c5fa847c9610bE', symObjAddr: 0xFA30, symBinAddr: 0xBF530, symSize: 0x150 }
  - { offsetInCU: 0x110EA, offset: 0x37319A, size: 0x8, addend: 0x0, symName: '__ZN3syn8generics8printing81_$LT$impl$u20$quote..to_tokens..ToTokens$u20$for$u20$syn..generics..TypeParam$GT$9to_tokens17h67a891f1844b10b9E', symObjAddr: 0xFDA0, symBinAddr: 0xBF680, symSize: 0x210 }
  - { offsetInCU: 0x117CB, offset: 0x37387B, size: 0x8, addend: 0x0, symName: '__ZN3syn8generics8printing82_$LT$impl$u20$quote..to_tokens..ToTokens$u20$for$u20$syn..generics..ConstParam$GT$9to_tokens17h19315c88864bea17E', symObjAddr: 0x10050, symBinAddr: 0xBF890, symSize: 0x1E0 }
  - { offsetInCU: 0x11B88, offset: 0x373C38, size: 0x8, addend: 0x0, symName: '__ZN3syn8generics8printing83_$LT$impl$u20$quote..to_tokens..ToTokens$u20$for$u20$syn..generics..WhereClause$GT$9to_tokens17hcd59109d6cd5532bE', symObjAddr: 0x10230, symBinAddr: 0xBFA70, symSize: 0x120 }
  - { offsetInCU: 0x1203B, offset: 0x3740EB, size: 0x8, addend: 0x0, symName: '__ZN74_$LT$syn..generics..GenericParam$u20$as$u20$quote..to_tokens..ToTokens$GT$9to_tokens17h7b28c56cca690554E', symObjAddr: 0x10590, symBinAddr: 0xBFB90, symSize: 0x280 }
  - { offsetInCU: 0x12920, offset: 0x3749D0, size: 0x8, addend: 0x0, symName: '__ZN76_$LT$syn..generics..TypeParamBound$u20$as$u20$quote..to_tokens..ToTokens$GT$9to_tokens17h626cf29a5d446a91E', symObjAddr: 0x10A70, symBinAddr: 0xBFE10, symSize: 0x110 }
  - { offsetInCU: 0x12B85, offset: 0x374C35, size: 0x8, addend: 0x0, symName: '__ZN76_$LT$syn..generics..WherePredicate$u20$as$u20$quote..to_tokens..ToTokens$GT$9to_tokens17h17ebe07335d01c13E', symObjAddr: 0x10B80, symBinAddr: 0xBFF20, symSize: 0x220 }
  - { offsetInCU: 0x17B3A, offset: 0x379BEA, size: 0x8, addend: 0x0, symName: '__ZN4core3ptr100drop_in_place$LT$core..option..Option$LT$alloc..boxed..Box$LT$syn..path..GenericArgument$GT$$GT$$GT$17h7435c9de74860622E', symObjAddr: 0x140, symBinAddr: 0xB1E50, symSize: 0x50 }
  - { offsetInCU: 0x17DC3, offset: 0x379E73, size: 0x8, addend: 0x0, symName: '__ZN4core3ptr100drop_in_place$LT$syn..punctuated..Punctuated$LT$syn..path..PathSegment$C$syn..token..PathSep$GT$$GT$17hf414cb3581f8337aE', symObjAddr: 0x190, symBinAddr: 0xB1EA0, symSize: 0x140 }
  - { offsetInCU: 0x182F7, offset: 0x37A3A7, size: 0x8, addend: 0x0, symName: '__ZN4core3ptr103drop_in_place$LT$core..option..Option$LT$alloc..boxed..Box$LT$syn..generics..TypeParamBound$GT$$GT$$GT$17h5974f03e36b1a9c3E', symObjAddr: 0x2D0, symBinAddr: 0xB1FE0, symSize: 0x50 }
  - { offsetInCU: 0x18542, offset: 0x37A5F2, size: 0x8, addend: 0x0, symName: '__ZN4core3ptr103drop_in_place$LT$core..option..Option$LT$alloc..boxed..Box$LT$syn..generics..WherePredicate$GT$$GT$$GT$17hdd5111a374d8d6f2E', symObjAddr: 0x320, symBinAddr: 0xB2030, symSize: 0xD0 }
  - { offsetInCU: 0x188D5, offset: 0x37A985, size: 0x8, addend: 0x0, symName: '__ZN4core3ptr103drop_in_place$LT$syn..punctuated..Punctuated$LT$syn..generics..GenericParam$C$syn..token..Comma$GT$$GT$17hf42353fa44ed6da8E.llvm.14890500243436994185', symObjAddr: 0x3F0, symBinAddr: 0xB2100, symSize: 0xF0 }
  - { offsetInCU: 0x18CFD, offset: 0x37ADAD, size: 0x8, addend: 0x0, symName: '__ZN4core3ptr104drop_in_place$LT$syn..punctuated..Punctuated$LT$syn..generics..TypeParamBound$C$syn..token..Plus$GT$$GT$17h532f52c4a894b056E', symObjAddr: 0x4E0, symBinAddr: 0xB21F0, symSize: 0x160 }
  - { offsetInCU: 0x1926B, offset: 0x37B31B, size: 0x8, addend: 0x0, symName: '__ZN4core3ptr105drop_in_place$LT$syn..punctuated..Punctuated$LT$syn..generics..WherePredicate$C$syn..token..Comma$GT$$GT$17h935f9826ba562349E', symObjAddr: 0x640, symBinAddr: 0xB2350, symSize: 0x80 }
  - { offsetInCU: 0x1952D, offset: 0x37B5DD, size: 0x8, addend: 0x0, symName: '__ZN4core3ptr34drop_in_place$LT$syn..lit..Lit$GT$17h8902f5ff67917034E', symObjAddr: 0x6C0, symBinAddr: 0xB23D0, symSize: 0x110 }
  - { offsetInCU: 0x19AC4, offset: 0x37BB74, size: 0x8, addend: 0x0, symName: '__ZN4core3ptr34drop_in_place$LT$syn..pat..Pat$GT$17h4581eea028ec0969E', symObjAddr: 0x7D0, symBinAddr: 0xB24E0, symSize: 0x1000 }
  - { offsetInCU: 0x1D608, offset: 0x37F6B8, size: 0x8, addend: 0x0, symName: '__ZN4core3ptr34drop_in_place$LT$syn..ty..Type$GT$17h369e41ad4a9f1ae0E.llvm.14890500243436994185', symObjAddr: 0x17D0, symBinAddr: 0xB34E0, symSize: 0x4F0 }
  - { offsetInCU: 0x1EB91, offset: 0x380C41, size: 0x8, addend: 0x0, symName: '__ZN4core3ptr36drop_in_place$LT$syn..expr..Expr$GT$17h0f7fd4c749bae801E.llvm.14890500243436994185', symObjAddr: 0x1CD0, symBinAddr: 0xB39D0, symSize: 0x28E0 }
  - { offsetInCU: 0x28023, offset: 0x38A0D3, size: 0x8, addend: 0x0, symName: '__ZN4core3ptr36drop_in_place$LT$syn..mac..Macro$GT$17h4ffde962df30ebe2E', symObjAddr: 0x45B0, symBinAddr: 0xB62B0, symSize: 0x40 }
  - { offsetInCU: 0x280D9, offset: 0x38A189, size: 0x8, addend: 0x0, symName: '__ZN4core3ptr36drop_in_place$LT$syn..path..Path$GT$17habea856181211e1cE', symObjAddr: 0x45F0, symBinAddr: 0xB62F0, symSize: 0x220 }
  - { offsetInCU: 0x28A0E, offset: 0x38AABE, size: 0x8, addend: 0x0, symName: '__ZN4core3ptr37drop_in_place$LT$syn..stmt..Block$GT$17hcc21a21cf949414cE', symObjAddr: 0x4810, symBinAddr: 0xB6510, symSize: 0xD0 }
  - { offsetInCU: 0x28CB2, offset: 0x38AD62, size: 0x8, addend: 0x0, symName: '__ZN4core3ptr38drop_in_place$LT$syn..expr..Member$GT$17h022cbe5553aa40faE', symObjAddr: 0x48F0, symBinAddr: 0xB65E0, symSize: 0x30 }
  - { offsetInCU: 0x28DAF, offset: 0x38AE5F, size: 0x8, addend: 0x0, symName: '__ZN4core3ptr39drop_in_place$LT$proc_macro2..Ident$GT$17h8101e88c3ac359d6E.llvm.14890500243436994185', symObjAddr: 0x4920, symBinAddr: 0xB6610, symSize: 0x30 }
  - { offsetInCU: 0x28E8D, offset: 0x38AF3D, size: 0x8, addend: 0x0, symName: '__ZN4core3ptr40drop_in_place$LT$syn..ty..ReturnType$GT$17h02cf41e2fec63d90E', symObjAddr: 0x4950, symBinAddr: 0xB6640, symSize: 0x50 }
  - { offsetInCU: 0x28FFF, offset: 0x38B0AF, size: 0x8, addend: 0x0, symName: '__ZN4core3ptr41drop_in_place$LT$syn..expr..ExprConst$GT$17h725a13e551d9f276E', symObjAddr: 0x49A0, symBinAddr: 0xB6690, symSize: 0x180 }
  - { offsetInCU: 0x29554, offset: 0x38B604, size: 0x8, addend: 0x0, symName: '__ZN4core3ptr44drop_in_place$LT$syn..lifetime..Lifetime$GT$17hf0cdec2e9ec456d6E.llvm.14890500243436994185', symObjAddr: 0x4B60, symBinAddr: 0xB6810, symSize: 0x30 }
  - { offsetInCU: 0x296CD, offset: 0x38B77D, size: 0x8, addend: 0x0, symName: '__ZN4core3ptr44drop_in_place$LT$syn..parse..ParseBuffer$GT$17hd0dadba44a19aec2E', symObjAddr: 0x4B90, symBinAddr: 0xB6840, symSize: 0x70 }
  - { offsetInCU: 0x29B02, offset: 0x38BBB2, size: 0x8, addend: 0x0, symName: '__ZN4core3ptr45drop_in_place$LT$proc_macro2..TokenStream$GT$17h3405f6c513e9f6cbE.llvm.14890500243436994185', symObjAddr: 0x4C00, symBinAddr: 0xB68B0, symSize: 0x140 }
  - { offsetInCU: 0x29F71, offset: 0x38C021, size: 0x8, addend: 0x0, symName: '__ZN4core3ptr45drop_in_place$LT$syn..generics..TypeParam$GT$17he5eda51070b7de47E.llvm.14890500243436994185', symObjAddr: 0x4D40, symBinAddr: 0xB69F0, symSize: 0x230 }
  - { offsetInCU: 0x2A76D, offset: 0x38C81D, size: 0x8, addend: 0x0, symName: '__ZN4core3ptr45drop_in_place$LT$syn..path..PathArguments$GT$17h7160021b3fdea550E', symObjAddr: 0x4F70, symBinAddr: 0xB6C20, symSize: 0x170 }
  - { offsetInCU: 0x2AC0A, offset: 0x38CCBA, size: 0x8, addend: 0x0, symName: '__ZN4core3ptr46drop_in_place$LT$syn..generics..ConstParam$GT$17hab0a58c4af8c549cE.llvm.14890500243436994185', symObjAddr: 0x50E0, symBinAddr: 0xB6D90, symSize: 0x150 }
  - { offsetInCU: 0x2AFD7, offset: 0x38D087, size: 0x8, addend: 0x0, symName: '__ZN4core3ptr46drop_in_place$LT$syn..generics..TraitBound$GT$17h73aacd08fea17a2cE.llvm.14890500243436994185', symObjAddr: 0x5230, symBinAddr: 0xB6EE0, symSize: 0xF0 }
  - { offsetInCU: 0x2B33E, offset: 0x38D3EE, size: 0x8, addend: 0x0, symName: '__ZN4core3ptr47drop_in_place$LT$syn..path..GenericArgument$GT$17h54f8794633f96823E', symObjAddr: 0x5320, symBinAddr: 0xB6FD0, symSize: 0x4A0 }
  - { offsetInCU: 0x2C3E5, offset: 0x38E495, size: 0x8, addend: 0x0, symName: '__ZN4core3ptr49drop_in_place$LT$syn..generics..LifetimeParam$GT$17h41a7c7a290ea6289E.llvm.14890500243436994185', symObjAddr: 0x57C0, symBinAddr: 0xB7470, symSize: 0xF0 }
  - { offsetInCU: 0x2C7BE, offset: 0x38E86E, size: 0x8, addend: 0x0, symName: '__ZN4core3ptr50drop_in_place$LT$syn..generics..TypeParamBound$GT$17hcd7771d4c6c221efE', symObjAddr: 0x5920, symBinAddr: 0xB7560, symSize: 0xA0 }
  - { offsetInCU: 0x2C925, offset: 0x38E9D5, size: 0x8, addend: 0x0, symName: '__ZN4core3ptr58drop_in_place$LT$alloc..vec..Vec$LT$syn..expr..Arm$GT$$GT$17h1a55df3d2cba1daaE', symObjAddr: 0x5A00, symBinAddr: 0xB7600, symSize: 0xD0 }
  - { offsetInCU: 0x2CBB2, offset: 0x38EC62, size: 0x8, addend: 0x0, symName: '__ZN4core3ptr59drop_in_place$LT$alloc..boxed..Box$LT$syn..pat..Pat$GT$$GT$17h563b135d87aca8abE', symObjAddr: 0x5AD0, symBinAddr: 0xB76D0, symSize: 0x50 }
  - { offsetInCU: 0x2CD0D, offset: 0x38EDBD, size: 0x8, addend: 0x0, symName: '__ZN4core3ptr59drop_in_place$LT$alloc..boxed..Box$LT$syn..ty..Type$GT$$GT$17hffed36bad83adacbE', symObjAddr: 0x5B20, symBinAddr: 0xB7720, symSize: 0x50 }
  - { offsetInCU: 0x2CE68, offset: 0x38EF18, size: 0x8, addend: 0x0, symName: '__ZN4core3ptr61drop_in_place$LT$alloc..boxed..Box$LT$syn..expr..Expr$GT$$GT$17h01091e47f131475dE', symObjAddr: 0x5B70, symBinAddr: 0xB7770, symSize: 0x50 }
  - { offsetInCU: 0x2D03F, offset: 0x38F0EF, size: 0x8, addend: 0x0, symName: '__ZN4core3ptr61drop_in_place$LT$syn..path..ParenthesizedGenericArguments$GT$17h43d4aac5494326a7E', symObjAddr: 0x5BC0, symBinAddr: 0xB77C0, symSize: 0x170 }
  - { offsetInCU: 0x2D606, offset: 0x38F6B6, size: 0x8, addend: 0x0, symName: '__ZN4core3ptr62drop_in_place$LT$syn..path..AngleBracketedGenericArguments$GT$17hc5b69f68243636ddE', symObjAddr: 0x5D50, symBinAddr: 0xB7930, symSize: 0x120 }
  - { offsetInCU: 0x2DA1C, offset: 0x38FACC, size: 0x8, addend: 0x0, symName: '__ZN4core3ptr63drop_in_place$LT$alloc..boxed..Box$LT$syn..lit..LitRepr$GT$$GT$17hd8839b7fb35ee7afE', symObjAddr: 0x5E70, symBinAddr: 0xB7A50, symSize: 0x60 }
  - { offsetInCU: 0x2DD11, offset: 0x38FDC1, size: 0x8, addend: 0x0, symName: '__ZN4core3ptr64drop_in_place$LT$alloc..boxed..Box$LT$syn..pat..FieldPat$GT$$GT$17h4980b70a7597cc08E', symObjAddr: 0x5ED0, symBinAddr: 0xB7AB0, symSize: 0x140 }
  - { offsetInCU: 0x2E3BC, offset: 0x39046C, size: 0x8, addend: 0x0, symName: '__ZN4core3ptr64drop_in_place$LT$alloc..boxed..Box$LT$syn..ty..BareFnArg$GT$$GT$17h8b34096c620314efE', symObjAddr: 0x6010, symBinAddr: 0xB7BF0, symSize: 0x140 }
  - { offsetInCU: 0x2E8E0, offset: 0x390990, size: 0x8, addend: 0x0, symName: '__ZN4core3ptr64drop_in_place$LT$alloc..vec..Vec$LT$syn..attr..Attribute$GT$$GT$17h3c8f2a04e701c675E.llvm.14890500243436994185', symObjAddr: 0x6150, symBinAddr: 0xB7D30, symSize: 0xD0 }
  - { offsetInCU: 0x2EB6D, offset: 0x390C1D, size: 0x8, addend: 0x0, symName: '__ZN4core3ptr65drop_in_place$LT$core..option..Option$LT$syn..expr..Label$GT$$GT$17h78189e72a8cb7951E', symObjAddr: 0x6240, symBinAddr: 0xB7E00, symSize: 0x30 }
  - { offsetInCU: 0x2ECA8, offset: 0x390D58, size: 0x8, addend: 0x0, symName: '__ZN4core3ptr66drop_in_place$LT$core..option..Option$LT$syn..pat..PatRest$GT$$GT$17h61677cf4ff3a7393E', symObjAddr: 0x6270, symBinAddr: 0xB7E30, symSize: 0xE0 }
  - { offsetInCU: 0x2EF2C, offset: 0x390FDC, size: 0x8, addend: 0x0, symName: '__ZN4core3ptr67drop_in_place$LT$alloc..boxed..Box$LT$syn..expr..FieldValue$GT$$GT$17h93aaccf8aa22ef88E', symObjAddr: 0x6350, symBinAddr: 0xB7F10, symSize: 0x140 }
  - { offsetInCU: 0x2F430, offset: 0x3914E0, size: 0x8, addend: 0x0, symName: '__ZN4core3ptr68drop_in_place$LT$alloc..boxed..Box$LT$syn..path..PathSegment$GT$$GT$17h709dabdc13b58a71E', symObjAddr: 0x6490, symBinAddr: 0xB8050, symSize: 0x190 }
  - { offsetInCU: 0x2FB0E, offset: 0x391BBE, size: 0x8, addend: 0x0, symName: '__ZN4core3ptr70drop_in_place$LT$core..option..Option$LT$syn..ty..BareVariadic$GT$$GT$17h45399348ea4b8d55E', symObjAddr: 0x6620, symBinAddr: 0xB81E0, symSize: 0x120 }
  - { offsetInCU: 0x3003B, offset: 0x3920EB, size: 0x8, addend: 0x0, symName: '__ZN4core3ptr72drop_in_place$LT$alloc..boxed..Box$LT$syn..path..GenericArgument$GT$$GT$17haa7dd8b716637b54E', symObjAddr: 0x6740, symBinAddr: 0xB8300, symSize: 0x2B0 }
  - { offsetInCU: 0x309C6, offset: 0x392A76, size: 0x8, addend: 0x0, symName: '__ZN4core3ptr72drop_in_place$LT$core..option..Option$LT$syn..lifetime..Lifetime$GT$$GT$17hfc363ccdd8bd9c32E', symObjAddr: 0x69F0, symBinAddr: 0xB85B0, symSize: 0x30 }
  - { offsetInCU: 0x30AE2, offset: 0x392B92, size: 0x8, addend: 0x0, symName: '__ZN4core3ptr73drop_in_place$LT$alloc..boxed..Box$LT$syn..generics..GenericParam$GT$$GT$17hf6951dcd5ae07324E.llvm.14890500243436994185', symObjAddr: 0x6A20, symBinAddr: 0xB85E0, symSize: 0x80 }
  - { offsetInCU: 0x30C5A, offset: 0x392D0A, size: 0x8, addend: 0x0, symName: '__ZN4core3ptr75drop_in_place$LT$alloc..boxed..Box$LT$syn..generics..TypeParamBound$GT$$GT$17he61c00698a311a34E', symObjAddr: 0x6AA0, symBinAddr: 0xB8660, symSize: 0x160 }
  - { offsetInCU: 0x3123F, offset: 0x3932EF, size: 0x8, addend: 0x0, symName: '__ZN4core3ptr86drop_in_place$LT$syn..punctuated..Punctuated$LT$syn..pat..Pat$C$syn..token..Or$GT$$GT$17h8e9173df21a44316E', symObjAddr: 0x6CB0, symBinAddr: 0xB87C0, symSize: 0x120 }
  - { offsetInCU: 0x31685, offset: 0x393735, size: 0x8, addend: 0x0, symName: '__ZN4core3ptr87drop_in_place$LT$core..option..Option$LT$alloc..boxed..Box$LT$syn..pat..Pat$GT$$GT$$GT$17hd7b7c69f601b3926E', symObjAddr: 0x6DD0, symBinAddr: 0xB88E0, symSize: 0x50 }
  - { offsetInCU: 0x317F7, offset: 0x3938A7, size: 0x8, addend: 0x0, symName: '__ZN4core3ptr87drop_in_place$LT$core..option..Option$LT$alloc..boxed..Box$LT$syn..ty..Type$GT$$GT$$GT$17hd74f5d971aec2972E', symObjAddr: 0x6E20, symBinAddr: 0xB8930, symSize: 0x50 }
  - { offsetInCU: 0x31969, offset: 0x393A19, size: 0x8, addend: 0x0, symName: '__ZN4core3ptr89drop_in_place$LT$core..option..Option$LT$alloc..boxed..Box$LT$syn..expr..Expr$GT$$GT$$GT$17h8e135ac1a25a2dc5E', symObjAddr: 0x6E70, symBinAddr: 0xB8980, symSize: 0x50 }
  - { offsetInCU: 0x31B19, offset: 0x393BC9, size: 0x8, addend: 0x0, symName: '__ZN4core3ptr89drop_in_place$LT$syn..punctuated..Punctuated$LT$syn..pat..Pat$C$syn..token..Comma$GT$$GT$17h8d60e47f3fb1f87aE', symObjAddr: 0x6EC0, symBinAddr: 0xB89D0, symSize: 0x120 }
  - { offsetInCU: 0x31F76, offset: 0x394026, size: 0x8, addend: 0x0, symName: '__ZN4core3ptr89drop_in_place$LT$syn..punctuated..Punctuated$LT$syn..ty..Type$C$syn..token..Comma$GT$$GT$17ha919b3114742fb9dE', symObjAddr: 0x6FE0, symBinAddr: 0xB8AF0, symSize: 0x120 }
  - { offsetInCU: 0x323C0, offset: 0x394470, size: 0x8, addend: 0x0, symName: '__ZN4core3ptr90drop_in_place$LT$core..option..Option$LT$syn..path..AngleBracketedGenericArguments$GT$$GT$17h80d9a5f0818c8bd9E', symObjAddr: 0x7100, symBinAddr: 0xB8C10, symSize: 0x130 }
  - { offsetInCU: 0x3282B, offset: 0x3948DB, size: 0x8, addend: 0x0, symName: '__ZN4core3ptr91drop_in_place$LT$syn..punctuated..Punctuated$LT$syn..expr..Expr$C$syn..token..Comma$GT$$GT$17h4f39b83dc86a4159E', symObjAddr: 0x7230, symBinAddr: 0xB8D40, symSize: 0x120 }
  - { offsetInCU: 0x32C88, offset: 0x394D38, size: 0x8, addend: 0x0, symName: '__ZN4core3ptr94drop_in_place$LT$syn..punctuated..Punctuated$LT$syn..pat..FieldPat$C$syn..token..Comma$GT$$GT$17h112950ea198c8281E', symObjAddr: 0x7350, symBinAddr: 0xB8E60, symSize: 0xF0 }
  - { offsetInCU: 0x32F52, offset: 0x395002, size: 0x8, addend: 0x0, symName: '__ZN4core3ptr94drop_in_place$LT$syn..punctuated..Punctuated$LT$syn..ty..BareFnArg$C$syn..token..Comma$GT$$GT$17h1c7b44310f06243dE', symObjAddr: 0x7440, symBinAddr: 0xB8F50, symSize: 0xF0 }
  - { offsetInCU: 0x3321C, offset: 0x3952CC, size: 0x8, addend: 0x0, symName: '__ZN4core3ptr96drop_in_place$LT$core..option..Option$LT$alloc..boxed..Box$LT$syn..path..PathSegment$GT$$GT$$GT$17hb447d0f626c86a4eE', symObjAddr: 0x7530, symBinAddr: 0xB9040, symSize: 0x90 }
  - { offsetInCU: 0x3349E, offset: 0x39554E, size: 0x8, addend: 0x0, symName: '__ZN4core3ptr97drop_in_place$LT$syn..punctuated..Punctuated$LT$syn..expr..FieldValue$C$syn..token..Comma$GT$$GT$17h31b81f7462228dcbE', symObjAddr: 0x75C0, symBinAddr: 0xB90D0, symSize: 0xF0 }
  - { offsetInCU: 0x33768, offset: 0x395818, size: 0x8, addend: 0x0, symName: '__ZN4core3ptr98drop_in_place$LT$alloc..vec..Vec$LT$$LP$syn..path..GenericArgument$C$syn..token..Comma$RP$$GT$$GT$17h0657ff261f33b640E', symObjAddr: 0x76B0, symBinAddr: 0xB91C0, symSize: 0xD0 }
  - { offsetInCU: 0x33A71, offset: 0x395B21, size: 0x8, addend: 0x0, symName: '__ZN4core3ptr98drop_in_place$LT$syn..punctuated..Punctuated$LT$syn..lifetime..Lifetime$C$syn..token..Plus$GT$$GT$17h0f8fc5f20f465f47E.llvm.14890500243436994185', symObjAddr: 0x7780, symBinAddr: 0xB9290, symSize: 0xC0 }
  - { offsetInCU: 0x3CC37, offset: 0x39ECE7, size: 0x8, addend: 0x0, symName: '__ZN3syn8generics7parsing47_$LT$impl$u20$syn..generics..TypeParamBound$GT$14parse_multiple17h0a18ee52418b5a4eE', symObjAddr: 0xC610, symBinAddr: 0xBCB00, symSize: 0x560 }
  - { offsetInCU: 0xE75, offset: 0x3A8CC4, size: 0x8, addend: 0x0, symName: '__ZN64_$LT$syn..token..Comma$u20$as$u20$quote..to_tokens..ToTokens$GT$9to_tokens17hf0487c9a4ca68d8bE', symObjAddr: 0x5070, symBinAddr: 0xC0FF0, symSize: 0x30 }
  - { offsetInCU: 0xEA1, offset: 0x3A8CF0, size: 0x8, addend: 0x0, symName: '__ZN60_$LT$syn..token..Underscore$u20$as$u20$syn..token..Token$GT$4peek17h789d27f9bb6ea028E', symObjAddr: 0xA30, symBinAddr: 0xC0280, symSize: 0x250 }
  - { offsetInCU: 0x16A2, offset: 0x3A94F1, size: 0x8, addend: 0x0, symName: '__ZN55_$LT$syn..token..Paren$u20$as$u20$syn..token..Token$GT$4peek17h25e234046af6258dE', symObjAddr: 0xEE0, symBinAddr: 0xC05F0, symSize: 0xB0 }
  - { offsetInCU: 0x16F5, offset: 0x3A9544, size: 0x8, addend: 0x0, symName: '__ZN55_$LT$syn..token..Paren$u20$as$u20$syn..token..Token$GT$4peek17h25e234046af6258dE', symObjAddr: 0xEE0, symBinAddr: 0xC05F0, symSize: 0xB0 }
  - { offsetInCU: 0x1705, offset: 0x3A9554, size: 0x8, addend: 0x0, symName: '__ZN55_$LT$syn..token..Paren$u20$as$u20$syn..token..Token$GT$4peek17h25e234046af6258dE', symObjAddr: 0xEE0, symBinAddr: 0xC05F0, symSize: 0xB0 }
  - { offsetInCU: 0x183D, offset: 0x3A968C, size: 0x8, addend: 0x0, symName: '__ZN55_$LT$syn..token..Brace$u20$as$u20$syn..token..Token$GT$4peek17ha752276b3db9eb99E', symObjAddr: 0xF90, symBinAddr: 0xC06A0, symSize: 0xB0 }
  - { offsetInCU: 0x1890, offset: 0x3A96DF, size: 0x8, addend: 0x0, symName: '__ZN55_$LT$syn..token..Brace$u20$as$u20$syn..token..Token$GT$4peek17ha752276b3db9eb99E', symObjAddr: 0xF90, symBinAddr: 0xC06A0, symSize: 0xB0 }
  - { offsetInCU: 0x18A0, offset: 0x3A96EF, size: 0x8, addend: 0x0, symName: '__ZN55_$LT$syn..token..Brace$u20$as$u20$syn..token..Token$GT$4peek17ha752276b3db9eb99E', symObjAddr: 0xF90, symBinAddr: 0xC06A0, symSize: 0xB0 }
  - { offsetInCU: 0x19E0, offset: 0x3A982F, size: 0x8, addend: 0x0, symName: '__ZN57_$LT$syn..token..Bracket$u20$as$u20$syn..token..Token$GT$4peek17h3f4b3ccc9e26c654E', symObjAddr: 0x1040, symBinAddr: 0xC0750, symSize: 0xB0 }
  - { offsetInCU: 0x1A33, offset: 0x3A9882, size: 0x8, addend: 0x0, symName: '__ZN57_$LT$syn..token..Bracket$u20$as$u20$syn..token..Token$GT$4peek17h3f4b3ccc9e26c654E', symObjAddr: 0x1040, symBinAddr: 0xC0750, symSize: 0xB0 }
  - { offsetInCU: 0x1A43, offset: 0x3A9892, size: 0x8, addend: 0x0, symName: '__ZN57_$LT$syn..token..Bracket$u20$as$u20$syn..token..Token$GT$4peek17h3f4b3ccc9e26c654E', symObjAddr: 0x1040, symBinAddr: 0xC0750, symSize: 0xB0 }
  - { offsetInCU: 0x1BB0, offset: 0x3A99FF, size: 0x8, addend: 0x0, symName: '__ZN52_$LT$syn..token..As$u20$as$u20$syn..parse..Parse$GT$5parse17h85019d46556fbac3E', symObjAddr: 0x1350, symBinAddr: 0xC0800, symSize: 0x60 }
  - { offsetInCU: 0x1C65, offset: 0x3A9AB4, size: 0x8, addend: 0x0, symName: '__ZN55_$LT$syn..token..Async$u20$as$u20$syn..token..Token$GT$4peek17h7ff0a4a69488c77fE', symObjAddr: 0x14D0, symBinAddr: 0xC0860, symSize: 0x20 }
  - { offsetInCU: 0x1C9C, offset: 0x3A9AEB, size: 0x8, addend: 0x0, symName: '__ZN54_$LT$syn..token..Auto$u20$as$u20$syn..token..Token$GT$4peek17hebee82bb54c38895E', symObjAddr: 0x15F0, symBinAddr: 0xC0880, symSize: 0x20 }
  - { offsetInCU: 0x1D2D, offset: 0x3A9B7C, size: 0x8, addend: 0x0, symName: '__ZN55_$LT$syn..token..Const$u20$as$u20$syn..parse..Parse$GT$5parse17h46c6cc59779da60bE', symObjAddr: 0x1B30, symBinAddr: 0xC08A0, symSize: 0x60 }
  - { offsetInCU: 0x1DB5, offset: 0x3A9C04, size: 0x8, addend: 0x0, symName: '__ZN55_$LT$syn..token..Const$u20$as$u20$syn..token..Token$GT$4peek17h2d7d2aba6f15afccE', symObjAddr: 0x1B90, symBinAddr: 0xC0900, symSize: 0x20 }
  - { offsetInCU: 0x1DEC, offset: 0x3A9C3B, size: 0x8, addend: 0x0, symName: '__ZN55_$LT$syn..token..Crate$u20$as$u20$syn..token..Token$GT$4peek17hd3ff9f9064291857E', symObjAddr: 0x1DD0, symBinAddr: 0xC0920, symSize: 0x20 }
  - { offsetInCU: 0x1E23, offset: 0x3A9C72, size: 0x8, addend: 0x0, symName: '__ZN53_$LT$syn..token..Dyn$u20$as$u20$syn..parse..Parse$GT$5parse17hd552992672026ee9E', symObjAddr: 0x20D0, symBinAddr: 0xC0940, symSize: 0x60 }
  - { offsetInCU: 0x1EAB, offset: 0x3A9CFA, size: 0x8, addend: 0x0, symName: '__ZN54_$LT$syn..token..Else$u20$as$u20$syn..parse..Parse$GT$5parse17h2b2f89d9de8133a6E', symObjAddr: 0x21F0, symBinAddr: 0xC09A0, symSize: 0x60 }
  - { offsetInCU: 0x1F33, offset: 0x3A9D82, size: 0x8, addend: 0x0, symName: '__ZN54_$LT$syn..token..Enum$u20$as$u20$syn..token..Token$GT$4peek17h70f8ca6d0a57ae7cE', symObjAddr: 0x2370, symBinAddr: 0xC0A00, symSize: 0x20 }
  - { offsetInCU: 0x1F6A, offset: 0x3A9DB9, size: 0x8, addend: 0x0, symName: '__ZN56_$LT$syn..token..Extern$u20$as$u20$syn..token..Token$GT$4peek17h0a1088e1ed9ac636E', symObjAddr: 0x2490, symBinAddr: 0xC0A20, symSize: 0x20 }
  - { offsetInCU: 0x1FA1, offset: 0x3A9DF0, size: 0x8, addend: 0x0, symName: '__ZN52_$LT$syn..token..Fn$u20$as$u20$syn..parse..Parse$GT$5parse17hbae4b7e03a0010e0E', symObjAddr: 0x2670, symBinAddr: 0xC0A40, symSize: 0x60 }
  - { offsetInCU: 0x2029, offset: 0x3A9E78, size: 0x8, addend: 0x0, symName: '__ZN52_$LT$syn..token..Fn$u20$as$u20$syn..token..Token$GT$4peek17hc7676a7b46f9ffb9E', symObjAddr: 0x26D0, symBinAddr: 0xC0AA0, symSize: 0x20 }
  - { offsetInCU: 0x208D, offset: 0x3A9EDC, size: 0x8, addend: 0x0, symName: '__ZN53_$LT$syn..token..For$u20$as$u20$syn..parse..Parse$GT$5parse17h7830b2807da6697cE', symObjAddr: 0x2790, symBinAddr: 0xC0AC0, symSize: 0x60 }
  - { offsetInCU: 0x2115, offset: 0x3A9F64, size: 0x8, addend: 0x0, symName: '__ZN54_$LT$syn..token..Impl$u20$as$u20$syn..token..Token$GT$4peek17h1bc8c1a17a8ac247E', symObjAddr: 0x2A30, symBinAddr: 0xC0B20, symSize: 0x20 }
  - { offsetInCU: 0x2179, offset: 0x3A9FC8, size: 0x8, addend: 0x0, symName: '__ZN52_$LT$syn..token..In$u20$as$u20$syn..parse..Parse$GT$5parse17hec49a7644160a01eE', symObjAddr: 0x2AF0, symBinAddr: 0xC0B40, symSize: 0x60 }
  - { offsetInCU: 0x225B, offset: 0x3AA0AA, size: 0x8, addend: 0x0, symName: '__ZN55_$LT$syn..token..Macro$u20$as$u20$syn..token..Token$GT$4peek17h6210815ff705b39aE', symObjAddr: 0x2EB0, symBinAddr: 0xC0BA0, symSize: 0x20 }
  - { offsetInCU: 0x22BF, offset: 0x3AA10E, size: 0x8, addend: 0x0, symName: '__ZN53_$LT$syn..token..Mod$u20$as$u20$syn..token..Token$GT$4peek17hbe008020d570fc7bE', symObjAddr: 0x30F0, symBinAddr: 0xC0BC0, symSize: 0x20 }
  - { offsetInCU: 0x2323, offset: 0x3AA172, size: 0x8, addend: 0x0, symName: '__ZN54_$LT$syn..token..Move$u20$as$u20$syn..token..Token$GT$4peek17h64855903f4cc82c7E', symObjAddr: 0x3210, symBinAddr: 0xC0BE0, symSize: 0x20 }
  - { offsetInCU: 0x2387, offset: 0x3AA1D6, size: 0x8, addend: 0x0, symName: '__ZN53_$LT$syn..token..Mut$u20$as$u20$syn..token..Token$GT$4peek17hfa3b784a7986bc45E', symObjAddr: 0x3330, symBinAddr: 0xC0C00, symSize: 0x20 }
  - { offsetInCU: 0x23EB, offset: 0x3AA23A, size: 0x8, addend: 0x0, symName: '__ZN53_$LT$syn..token..Ref$u20$as$u20$syn..token..Token$GT$4peek17h767951e2892cf942E', symObjAddr: 0x37B0, symBinAddr: 0xC0C20, symSize: 0x20 }
  - { offsetInCU: 0x2422, offset: 0x3AA271, size: 0x8, addend: 0x0, symName: '__ZN58_$LT$syn..token..SelfType$u20$as$u20$syn..token..Token$GT$4peek17h0c0bc843190daad6E', symObjAddr: 0x39F0, symBinAddr: 0xC0C40, symSize: 0x20 }
  - { offsetInCU: 0x2459, offset: 0x3AA2A8, size: 0x8, addend: 0x0, symName: '__ZN59_$LT$syn..token..SelfValue$u20$as$u20$syn..parse..Parse$GT$5parse17h051d3709124c46d9E', symObjAddr: 0x3AB0, symBinAddr: 0xC0C60, symSize: 0x60 }
  - { offsetInCU: 0x24E1, offset: 0x3AA330, size: 0x8, addend: 0x0, symName: '__ZN59_$LT$syn..token..SelfValue$u20$as$u20$syn..token..Token$GT$4peek17h50318bcccdb91ecaE', symObjAddr: 0x3B10, symBinAddr: 0xC0CC0, symSize: 0x20 }
  - { offsetInCU: 0x2518, offset: 0x3AA367, size: 0x8, addend: 0x0, symName: '__ZN56_$LT$syn..token..Static$u20$as$u20$syn..parse..Parse$GT$5parse17h5bb5f7745c7fe15eE', symObjAddr: 0x3BD0, symBinAddr: 0xC0CE0, symSize: 0x60 }
  - { offsetInCU: 0x25A0, offset: 0x3AA3EF, size: 0x8, addend: 0x0, symName: '__ZN56_$LT$syn..token..Static$u20$as$u20$syn..token..Token$GT$4peek17he4be23aaf817aacaE', symObjAddr: 0x3C30, symBinAddr: 0xC0D40, symSize: 0x20 }
  - { offsetInCU: 0x25D7, offset: 0x3AA426, size: 0x8, addend: 0x0, symName: '__ZN56_$LT$syn..token..Struct$u20$as$u20$syn..token..Token$GT$4peek17h19827cbab69b1623E', symObjAddr: 0x3D50, symBinAddr: 0xC0D60, symSize: 0x20 }
  - { offsetInCU: 0x260E, offset: 0x3AA45D, size: 0x8, addend: 0x0, symName: '__ZN55_$LT$syn..token..Super$u20$as$u20$syn..token..Token$GT$4peek17h275967d5b34f27d3E', symObjAddr: 0x3E70, symBinAddr: 0xC0D80, symSize: 0x20 }
  - { offsetInCU: 0x2645, offset: 0x3AA494, size: 0x8, addend: 0x0, symName: '__ZN55_$LT$syn..token..Trait$u20$as$u20$syn..token..Token$GT$4peek17h02f104e1d9e561e9E', symObjAddr: 0x3F90, symBinAddr: 0xC0DA0, symSize: 0x20 }
  - { offsetInCU: 0x26A9, offset: 0x3AA4F8, size: 0x8, addend: 0x0, symName: '__ZN53_$LT$syn..token..Try$u20$as$u20$syn..token..Token$GT$4peek17had59752cb32497b6E', symObjAddr: 0x40B0, symBinAddr: 0xC0DC0, symSize: 0x20 }
  - { offsetInCU: 0x26E0, offset: 0x3AA52F, size: 0x8, addend: 0x0, symName: '__ZN54_$LT$syn..token..Type$u20$as$u20$syn..token..Token$GT$4peek17hd609b66210c77b34E', symObjAddr: 0x41D0, symBinAddr: 0xC0DE0, symSize: 0x20 }
  - { offsetInCU: 0x2717, offset: 0x3AA566, size: 0x8, addend: 0x0, symName: '__ZN55_$LT$syn..token..Union$u20$as$u20$syn..token..Token$GT$4peek17h95e4cdd0419c4cc2E', symObjAddr: 0x4410, symBinAddr: 0xC0E00, symSize: 0x20 }
  - { offsetInCU: 0x277B, offset: 0x3AA5CA, size: 0x8, addend: 0x0, symName: '__ZN56_$LT$syn..token..Unsafe$u20$as$u20$syn..parse..Parse$GT$5parse17hba2df29f6bec55cdE', symObjAddr: 0x44D0, symBinAddr: 0xC0E20, symSize: 0x60 }
  - { offsetInCU: 0x2803, offset: 0x3AA652, size: 0x8, addend: 0x0, symName: '__ZN56_$LT$syn..token..Unsafe$u20$as$u20$syn..token..Token$GT$4peek17h5bb5d41f3ab3faf1E', symObjAddr: 0x4530, symBinAddr: 0xC0E80, symSize: 0x20 }
  - { offsetInCU: 0x283A, offset: 0x3AA689, size: 0x8, addend: 0x0, symName: '__ZN53_$LT$syn..token..Use$u20$as$u20$syn..token..Token$GT$4peek17hb629dd0a0c930e39E', symObjAddr: 0x4770, symBinAddr: 0xC0EA0, symSize: 0x20 }
  - { offsetInCU: 0x28CB, offset: 0x3AA71A, size: 0x8, addend: 0x0, symName: '__ZN53_$LT$syn..token..And$u20$as$u20$syn..parse..Parse$GT$5parse17h5b38fc9651d95e98E', symObjAddr: 0x4C40, symBinAddr: 0xC0EC0, symSize: 0x50 }
  - { offsetInCU: 0x292E, offset: 0x3AA77D, size: 0x8, addend: 0x0, symName: '__ZN53_$LT$syn..token..And$u20$as$u20$syn..token..Token$GT$4peek17h977f39081b12fb5aE', symObjAddr: 0x4C90, symBinAddr: 0xC0F10, symSize: 0x20 }
  - { offsetInCU: 0x2965, offset: 0x3AA7B4, size: 0x8, addend: 0x0, symName: '__ZN55_$LT$syn..token..Caret$u20$as$u20$syn..parse..Parse$GT$5parse17h985441110bef27beE', symObjAddr: 0x4EC0, symBinAddr: 0xC0F30, symSize: 0x50 }
  - { offsetInCU: 0x29F5, offset: 0x3AA844, size: 0x8, addend: 0x0, symName: '__ZN55_$LT$syn..token..Colon$u20$as$u20$syn..parse..Parse$GT$5parse17hb173b91a971bef7cE', symObjAddr: 0x5000, symBinAddr: 0xC0F80, symSize: 0x50 }
  - { offsetInCU: 0x2A58, offset: 0x3AA8A7, size: 0x8, addend: 0x0, symName: '__ZN55_$LT$syn..token..Colon$u20$as$u20$syn..token..Token$GT$4peek17hda082e4f86b2eba7E', symObjAddr: 0x5050, symBinAddr: 0xC0FD0, symSize: 0x20 }
  - { offsetInCU: 0x2A8F, offset: 0x3AA8DE, size: 0x8, addend: 0x0, symName: '__ZN55_$LT$syn..token..Comma$u20$as$u20$syn..parse..Parse$GT$5parse17hd6bc62bc2c71a22aE', symObjAddr: 0x50A0, symBinAddr: 0xC1020, symSize: 0x50 }
  - { offsetInCU: 0x2AF2, offset: 0x3AA941, size: 0x8, addend: 0x0, symName: '__ZN55_$LT$syn..token..Comma$u20$as$u20$syn..token..Token$GT$4peek17h35a333ecf294aee4E', symObjAddr: 0x50F0, symBinAddr: 0xC1070, symSize: 0x20 }
  - { offsetInCU: 0x2B56, offset: 0x3AA9A5, size: 0x8, addend: 0x0, symName: '__ZN53_$LT$syn..token..Dot$u20$as$u20$syn..token..Token$GT$4peek17h6d86fbdab90dfe7fE', symObjAddr: 0x5230, symBinAddr: 0xC1090, symSize: 0x20 }
  - { offsetInCU: 0x2BBA, offset: 0x3AAA09, size: 0x8, addend: 0x0, symName: '__ZN56_$LT$syn..token..DotDot$u20$as$u20$syn..token..Token$GT$4peek17hd3bd5b93702b4330E', symObjAddr: 0x52D0, symBinAddr: 0xC10B0, symSize: 0x20 }
  - { offsetInCU: 0x2BF1, offset: 0x3AAA40, size: 0x8, addend: 0x0, symName: '__ZN59_$LT$syn..token..DotDotDot$u20$as$u20$syn..token..Token$GT$4peek17hb44c133be230bd96E', symObjAddr: 0x5390, symBinAddr: 0xC10D0, symSize: 0x20 }
  - { offsetInCU: 0x2C28, offset: 0x3AAA77, size: 0x8, addend: 0x0, symName: '__ZN58_$LT$syn..token..DotDotEq$u20$as$u20$syn..token..Token$GT$4peek17h2fee0dc9b1a6aabeE', symObjAddr: 0x5450, symBinAddr: 0xC10F0, symSize: 0x20 }
  - { offsetInCU: 0x2C8C, offset: 0x3AAADB, size: 0x8, addend: 0x0, symName: '__ZN52_$LT$syn..token..Eq$u20$as$u20$syn..parse..Parse$GT$5parse17h9bd44d98b4fba545E', symObjAddr: 0x54A0, symBinAddr: 0xC1110, symSize: 0x50 }
  - { offsetInCU: 0x2CEF, offset: 0x3AAB3E, size: 0x8, addend: 0x0, symName: '__ZN52_$LT$syn..token..Eq$u20$as$u20$syn..token..Token$GT$4peek17hfd0450a878fd20a5E', symObjAddr: 0x54F0, symBinAddr: 0xC1160, symSize: 0x20 }
  - { offsetInCU: 0x2D26, offset: 0x3AAB75, size: 0x8, addend: 0x0, symName: '__ZN52_$LT$syn..token..Gt$u20$as$u20$syn..parse..Parse$GT$5parse17h280d30dfd0ec0e88E', symObjAddr: 0x5720, symBinAddr: 0xC1180, symSize: 0x50 }
  - { offsetInCU: 0x2D89, offset: 0x3AABD8, size: 0x8, addend: 0x0, symName: '__ZN52_$LT$syn..token..Gt$u20$as$u20$syn..token..Token$GT$4peek17hbf38b1119d014050E', symObjAddr: 0x5770, symBinAddr: 0xC11D0, symSize: 0x20 }
  - { offsetInCU: 0x2DC0, offset: 0x3AAC0F, size: 0x8, addend: 0x0, symName: '__ZN52_$LT$syn..token..Lt$u20$as$u20$syn..parse..Parse$GT$5parse17he341b95b06e78275E', symObjAddr: 0x5900, symBinAddr: 0xC11F0, symSize: 0x50 }
  - { offsetInCU: 0x2E23, offset: 0x3AAC72, size: 0x8, addend: 0x0, symName: '__ZN52_$LT$syn..token..Lt$u20$as$u20$syn..token..Token$GT$4peek17h5fc3809859b7b5faE', symObjAddr: 0x5950, symBinAddr: 0xC1240, symSize: 0x20 }
  - { offsetInCU: 0x2E5A, offset: 0x3AACA9, size: 0x8, addend: 0x0, symName: '__ZN55_$LT$syn..token..Minus$u20$as$u20$syn..parse..Parse$GT$5parse17h477a6d776dd7b43dE', symObjAddr: 0x59A0, symBinAddr: 0xC1260, symSize: 0x50 }
  - { offsetInCU: 0x2EEA, offset: 0x3AAD39, size: 0x8, addend: 0x0, symName: '__ZN53_$LT$syn..token..Not$u20$as$u20$syn..parse..Parse$GT$5parse17hed95949511af2130E', symObjAddr: 0x5B80, symBinAddr: 0xC12B0, symSize: 0x50 }
  - { offsetInCU: 0x2F4D, offset: 0x3AAD9C, size: 0x8, addend: 0x0, symName: '__ZN53_$LT$syn..token..Not$u20$as$u20$syn..token..Token$GT$4peek17hc7242dbe39d2cc52E', symObjAddr: 0x5BD0, symBinAddr: 0xC1300, symSize: 0x20 }
  - { offsetInCU: 0x2F84, offset: 0x3AADD3, size: 0x8, addend: 0x0, symName: '__ZN52_$LT$syn..token..Or$u20$as$u20$syn..parse..Parse$GT$5parse17h9e4bc6c60c89d717E', symObjAddr: 0x5C20, symBinAddr: 0xC1320, symSize: 0x50 }
  - { offsetInCU: 0x2FE7, offset: 0x3AAE36, size: 0x8, addend: 0x0, symName: '__ZN52_$LT$syn..token..Or$u20$as$u20$syn..token..Token$GT$4peek17hab4246a0272ea64dE', symObjAddr: 0x5C70, symBinAddr: 0xC1370, symSize: 0x20 }
  - { offsetInCU: 0x301E, offset: 0x3AAE6D, size: 0x8, addend: 0x0, symName: '__ZN57_$LT$syn..token..PathSep$u20$as$u20$syn..token..Token$GT$4peek17ha2b30e581acdbebaE', symObjAddr: 0x5E50, symBinAddr: 0xC1390, symSize: 0x20 }
  - { offsetInCU: 0x3055, offset: 0x3AAEA4, size: 0x8, addend: 0x0, symName: '__ZN57_$LT$syn..token..Percent$u20$as$u20$syn..parse..Parse$GT$5parse17h011c51e35c593cf7E', symObjAddr: 0x5EA0, symBinAddr: 0xC13B0, symSize: 0x50 }
  - { offsetInCU: 0x30B8, offset: 0x3AAF07, size: 0x8, addend: 0x0, symName: '__ZN54_$LT$syn..token..Plus$u20$as$u20$syn..parse..Parse$GT$5parse17hedad1693d91826e0E', symObjAddr: 0x5FE0, symBinAddr: 0xC1400, symSize: 0x50 }
  - { offsetInCU: 0x3148, offset: 0x3AAF97, size: 0x8, addend: 0x0, symName: '__ZN55_$LT$syn..token..Pound$u20$as$u20$syn..token..Token$GT$4peek17hd045620e0630b5b3E', symObjAddr: 0x6170, symBinAddr: 0xC1450, symSize: 0x20 }
  - { offsetInCU: 0x31AC, offset: 0x3AAFFB, size: 0x8, addend: 0x0, symName: '__ZN58_$LT$syn..token..Question$u20$as$u20$syn..token..Token$GT$4peek17h40ab090367cab48aE', symObjAddr: 0x6210, symBinAddr: 0xC1470, symSize: 0x20 }
  - { offsetInCU: 0x3210, offset: 0x3AB05F, size: 0x8, addend: 0x0, symName: '__ZN54_$LT$syn..token..Semi$u20$as$u20$syn..parse..Parse$GT$5parse17h5db424d26dfe3d07E', symObjAddr: 0x6300, symBinAddr: 0xC1490, symSize: 0x50 }
  - { offsetInCU: 0x3273, offset: 0x3AB0C2, size: 0x8, addend: 0x0, symName: '__ZN54_$LT$syn..token..Semi$u20$as$u20$syn..token..Token$GT$4peek17h5a07d3e2a049fb01E', symObjAddr: 0x6350, symBinAddr: 0xC14E0, symSize: 0x20 }
  - { offsetInCU: 0x32AA, offset: 0x3AB0F9, size: 0x8, addend: 0x0, symName: '__ZN55_$LT$syn..token..ShlEq$u20$as$u20$syn..parse..Parse$GT$5parse17h0c287701508b04adE', symObjAddr: 0x6440, symBinAddr: 0xC1500, symSize: 0x70 }
  - { offsetInCU: 0x3360, offset: 0x3AB1AF, size: 0x8, addend: 0x0, symName: '__ZN55_$LT$syn..token..ShrEq$u20$as$u20$syn..parse..Parse$GT$5parse17h2537afed55ecadcaE', symObjAddr: 0x65A0, symBinAddr: 0xC1570, symSize: 0x70 }
  - { offsetInCU: 0x3416, offset: 0x3AB265, size: 0x8, addend: 0x0, symName: '__ZN55_$LT$syn..token..Slash$u20$as$u20$syn..parse..Parse$GT$5parse17hd6cbb0af0be5e420E', symObjAddr: 0x6660, symBinAddr: 0xC15E0, symSize: 0x50 }
  - { offsetInCU: 0x3479, offset: 0x3AB2C8, size: 0x8, addend: 0x0, symName: '__ZN54_$LT$syn..token..Star$u20$as$u20$syn..parse..Parse$GT$5parse17hd453253e4a2951caE', symObjAddr: 0x67A0, symBinAddr: 0xC1630, symSize: 0x50 }
  - { offsetInCU: 0x34DC, offset: 0x3AB32B, size: 0x8, addend: 0x0, symName: '__ZN54_$LT$syn..token..Star$u20$as$u20$syn..token..Token$GT$4peek17h0f086c1ea8af6077E', symObjAddr: 0x67F0, symBinAddr: 0xC1680, symSize: 0x20 }
  - { offsetInCU: 0x3513, offset: 0x3AB362, size: 0x8, addend: 0x0, symName: '__ZN57_$LT$syn..token..At$u20$as$u20$core..default..Default$GT$7default17h00b388c888b463ceE', symObjAddr: 0x69B0, symBinAddr: 0xC16A0, symSize: 0x0 }
  - { offsetInCU: 0xA206, offset: 0x3B2055, size: 0x8, addend: 0x0, symName: '__ZN4core3ptr45drop_in_place$LT$proc_macro2..TokenStream$GT$17h3405f6c513e9f6cbE.llvm.7833956513218213385', symObjAddr: 0x730, symBinAddr: 0xC0140, symSize: 0x140 }
  - { offsetInCU: 0xFB8D, offset: 0x3B79DC, size: 0x8, addend: 0x0, symName: __ZN3syn5token5Group8surround17hfbe81a72805f5875E, symObjAddr: 0xDC0, symBinAddr: 0xC04D0, symSize: 0x120 }
  - { offsetInCU: 0xFE6F, offset: 0x3B7CBE, size: 0x8, addend: 0x0, symName: __ZN3syn5token5Brace8surround17h1616ad3374cfb32bE, symObjAddr: 0x7480, symBinAddr: 0xC16B0, symSize: 0x250 }
  - { offsetInCU: 0x10315, offset: 0x3B8164, size: 0x8, addend: 0x0, symName: __ZN3syn5token5Brace8surround17h1d2920be538b3d67E, symObjAddr: 0x76D0, symBinAddr: 0xC1900, symSize: 0x230 }
  - { offsetInCU: 0x10764, offset: 0x3B85B3, size: 0x8, addend: 0x0, symName: __ZN3syn5token5Brace8surround17h2f7384e739db3158E, symObjAddr: 0x7900, symBinAddr: 0xC1B30, symSize: 0x250 }
  - { offsetInCU: 0x10BFD, offset: 0x3B8A4C, size: 0x8, addend: 0x0, symName: __ZN3syn5token5Brace8surround17h3cea1965078b46e8E, symObjAddr: 0x7B50, symBinAddr: 0xC1D80, symSize: 0x230 }
  - { offsetInCU: 0x11135, offset: 0x3B8F84, size: 0x8, addend: 0x0, symName: __ZN3syn5token5Brace8surround17h44f34f1ab411b35eE, symObjAddr: 0x7D80, symBinAddr: 0xC1FB0, symSize: 0x150 }
  - { offsetInCU: 0x1141F, offset: 0x3B926E, size: 0x8, addend: 0x0, symName: __ZN3syn5token5Brace8surround17h4f53dfd33b0aa4c6E, symObjAddr: 0x7ED0, symBinAddr: 0xC2100, symSize: 0x230 }
  - { offsetInCU: 0x11964, offset: 0x3B97B3, size: 0x8, addend: 0x0, symName: __ZN3syn5token5Brace8surround17h658cc35944b0b219E, symObjAddr: 0x8100, symBinAddr: 0xC2330, symSize: 0x130 }
  - { offsetInCU: 0x11BA7, offset: 0x3B99F6, size: 0x8, addend: 0x0, symName: __ZN3syn5token5Brace8surround17h67ec14ac595125f5E, symObjAddr: 0x8230, symBinAddr: 0xC2460, symSize: 0x460 }
  - { offsetInCU: 0x127DD, offset: 0x3BA62C, size: 0x8, addend: 0x0, symName: __ZN3syn5token5Brace8surround17h830f66792d95d6a1E, symObjAddr: 0x8690, symBinAddr: 0xC28C0, symSize: 0x190 }
  - { offsetInCU: 0x12A77, offset: 0x3BA8C6, size: 0x8, addend: 0x0, symName: __ZN3syn5token5Brace8surround17h93d6e9c0e4ef6056E, symObjAddr: 0x8820, symBinAddr: 0xC2A50, symSize: 0x0 }
  - { offsetInCU: 0x12FAB, offset: 0x3BADFA, size: 0x8, addend: 0x0, symName: __ZN3syn5token5Brace8surround17h9a2e80ca99906d35E, symObjAddr: 0x8A50, symBinAddr: 0xC2C80, symSize: 0x0 }
  - { offsetInCU: 0x13249, offset: 0x3BB098, size: 0x8, addend: 0x0, symName: __ZN3syn5token5Brace8surround17hb0c8276345dde1c2E, symObjAddr: 0x8BD0, symBinAddr: 0xC2E00, symSize: 0x1B0 }
  - { offsetInCU: 0x1373D, offset: 0x3BB58C, size: 0x8, addend: 0x0, symName: __ZN3syn5token5Brace8surround17hb63569a8d18b567dE, symObjAddr: 0x8D80, symBinAddr: 0xC2FB0, symSize: 0x230 }
  - { offsetInCU: 0x13BCD, offset: 0x3BBA1C, size: 0x8, addend: 0x0, symName: __ZN3syn5token5Brace8surround17hc53934dc4c14330eE, symObjAddr: 0x8FB0, symBinAddr: 0xC31E0, symSize: 0x460 }
  - { offsetInCU: 0x145D1, offset: 0x3BC420, size: 0x8, addend: 0x0, symName: __ZN3syn5token5Brace8surround17hd5a84cf97badd42dE, symObjAddr: 0x9410, symBinAddr: 0xC3640, symSize: 0x230 }
  - { offsetInCU: 0x14B16, offset: 0x3BC965, size: 0x8, addend: 0x0, symName: __ZN3syn5token5Brace8surround17hd63b1effe05f3546E, symObjAddr: 0x9640, symBinAddr: 0xC3870, symSize: 0x250 }
  - { offsetInCU: 0x14FAF, offset: 0x3BCDFE, size: 0x8, addend: 0x0, symName: __ZN3syn5token5Brace8surround17hdb4abaf7d4aba6dfE, symObjAddr: 0x9890, symBinAddr: 0xC3AC0, symSize: 0x230 }
  - { offsetInCU: 0x15446, offset: 0x3BD295, size: 0x8, addend: 0x0, symName: __ZN3syn5token5Brace8surround17hdca5a0a12cc0e09cE, symObjAddr: 0x9AC0, symBinAddr: 0xC3CF0, symSize: 0x250 }
  - { offsetInCU: 0x15957, offset: 0x3BD7A6, size: 0x8, addend: 0x0, symName: __ZN3syn5token5Brace8surround17he90b59b4e7ee997dE, symObjAddr: 0x9D10, symBinAddr: 0xC3F40, symSize: 0x170 }
  - { offsetInCU: 0x15C0D, offset: 0x3BDA5C, size: 0x8, addend: 0x0, symName: __ZN3syn5token5Brace8surround17hecd06f1637cbfb86E, symObjAddr: 0x9E80, symBinAddr: 0xC40B0, symSize: 0x230 }
  - { offsetInCU: 0x1622E, offset: 0x3BE07D, size: 0x8, addend: 0x0, symName: __ZN3syn5token5Brace8surround17hf04846c82ffc2b75E, symObjAddr: 0xA0B0, symBinAddr: 0xC42E0, symSize: 0x280 }
  - { offsetInCU: 0x167B0, offset: 0x3BE5FF, size: 0x8, addend: 0x0, symName: __ZN3syn5token7Bracket8surround17h156a64f8715fd9d7E, symObjAddr: 0xA350, symBinAddr: 0xC4560, symSize: 0x190 }
  - { offsetInCU: 0x16A07, offset: 0x3BE856, size: 0x8, addend: 0x0, symName: __ZN3syn5token7Bracket8surround17h3268c628a093763bE, symObjAddr: 0xA4E0, symBinAddr: 0xC46F0, symSize: 0x160 }
  - { offsetInCU: 0x16C7A, offset: 0x3BEAC9, size: 0x8, addend: 0x0, symName: __ZN3syn5token7Bracket8surround17h59b80e5c4f1e2536E, symObjAddr: 0xA640, symBinAddr: 0xC4850, symSize: 0x1A0 }
  - { offsetInCU: 0x1714F, offset: 0x3BEF9E, size: 0x8, addend: 0x0, symName: __ZN3syn5token7Bracket8surround17h666da6b44b8f2314E, symObjAddr: 0xA7E0, symBinAddr: 0xC49F0, symSize: 0x130 }
  - { offsetInCU: 0x17381, offset: 0x3BF1D0, size: 0x8, addend: 0x0, symName: __ZN3syn5token7Bracket8surround17he461d4c5258c6ed9E, symObjAddr: 0xAAB0, symBinAddr: 0xC4B20, symSize: 0x130 }
  - { offsetInCU: 0x1758A, offset: 0x3BF3D9, size: 0x8, addend: 0x0, symName: __ZN3syn5token7Bracket8surround17hf2f56b7ec8e6cdfdE, symObjAddr: 0xABE0, symBinAddr: 0xC4C50, symSize: 0x150 }
  - { offsetInCU: 0x178BB, offset: 0x3BF70A, size: 0x8, addend: 0x0, symName: __ZN3syn5token5Paren8surround17h149d374eeacaaaf0E, symObjAddr: 0xAE80, symBinAddr: 0xC4DA0, symSize: 0x360 }
  - { offsetInCU: 0x18270, offset: 0x3C00BF, size: 0x8, addend: 0x0, symName: __ZN3syn5token5Paren8surround17h17edd0d0ba5e5361E, symObjAddr: 0xB1E0, symBinAddr: 0xC5100, symSize: 0x160 }
  - { offsetInCU: 0x185A2, offset: 0x3C03F1, size: 0x8, addend: 0x0, symName: __ZN3syn5token5Paren8surround17h2a820c17fc4ce3a7E, symObjAddr: 0xB340, symBinAddr: 0xC5260, symSize: 0x210 }
  - { offsetInCU: 0x18B05, offset: 0x3C0954, size: 0x8, addend: 0x0, symName: __ZN3syn5token5Paren8surround17h618017ebbb591ce6E, symObjAddr: 0xB550, symBinAddr: 0xC5470, symSize: 0x1A0 }
  - { offsetInCU: 0x19061, offset: 0x3C0EB0, size: 0x8, addend: 0x0, symName: __ZN3syn5token5Paren8surround17haf0fe92dddd4f436E, symObjAddr: 0xB930, symBinAddr: 0xC5610, symSize: 0x210 }
  - { offsetInCU: 0x195BF, offset: 0x3C140E, size: 0x8, addend: 0x0, symName: __ZN3syn5token5Paren8surround17hb26de38efb8247a2E, symObjAddr: 0xBB40, symBinAddr: 0xC5820, symSize: 0x130 }
  - { offsetInCU: 0x19796, offset: 0x3C15E5, size: 0x8, addend: 0x0, symName: __ZN3syn5token5Paren8surround17hb614c327a7c4effbE, symObjAddr: 0xBC70, symBinAddr: 0xC5950, symSize: 0x130 }
  - { offsetInCU: 0x1999A, offset: 0x3C17E9, size: 0x8, addend: 0x0, symName: __ZN3syn5token5Paren8surround17hb72c32fa2faca43dE, symObjAddr: 0xBDA0, symBinAddr: 0xC5A80, symSize: 0x120 }
  - { offsetInCU: 0x19BA3, offset: 0x3C19F2, size: 0x8, addend: 0x0, symName: __ZN3syn5token5Paren8surround17hbc9cea44f84e7c35E, symObjAddr: 0xBEC0, symBinAddr: 0xC5BA0, symSize: 0x460 }
  - { offsetInCU: 0x1A5A7, offset: 0x3C23F6, size: 0x8, addend: 0x0, symName: __ZN3syn5token5Paren8surround17hbe460fe33e1b9807E, symObjAddr: 0xC320, symBinAddr: 0xC6000, symSize: 0x1A0 }
  - { offsetInCU: 0x1AA7E, offset: 0x3C28CD, size: 0x8, addend: 0x0, symName: __ZN3syn5token5Paren8surround17hd6561f4009004b42E, symObjAddr: 0xC660, symBinAddr: 0xC61A0, symSize: 0x120 }
  - { offsetInCU: 0x1AC87, offset: 0x3C2AD6, size: 0x8, addend: 0x0, symName: __ZN3syn5token5Paren8surround17he038d9e0318c7237E, symObjAddr: 0xC780, symBinAddr: 0xC62C0, symSize: 0x1A0 }
  - { offsetInCU: 0x1B20F, offset: 0x3C305E, size: 0x8, addend: 0x0, symName: __ZN3syn5token5Paren8surround17he1dbac95a537a101E, symObjAddr: 0xC920, symBinAddr: 0xC6460, symSize: 0x230 }
  - { offsetInCU: 0x1BA14, offset: 0x3C3863, size: 0x8, addend: 0x0, symName: __ZN3syn5token5Paren8surround17he21459b4274789cfE, symObjAddr: 0xCB50, symBinAddr: 0xC6690, symSize: 0x27B0 }
  - { offsetInCU: 0x214FA, offset: 0x3C9349, size: 0x8, addend: 0x0, symName: __ZN3syn5token5Paren8surround17hf739ea3e87afa242E, symObjAddr: 0xF300, symBinAddr: 0xC8E40, symSize: 0x260 }
  - { offsetInCU: 0x21BCF, offset: 0x3C9A1E, size: 0x8, addend: 0x0, symName: __ZN3syn5token5Paren8surround17hfdecddc10755409eE, symObjAddr: 0xF560, symBinAddr: 0xC90A0, symSize: 0x18F }
  - { offsetInCU: 0x11CE, offset: 0x3D2523, size: 0x8, addend: 0x0, symName: '__ZN77_$LT$$RF$$u5b$syn..attr..Attribute$u5d$$u20$as$u20$syn..attr..FilterAttrs$GT$5outer8is_outer17h05806f843d7deec4E.llvm.6340778183057508401', symObjAddr: 0x7D20, symBinAddr: 0xD0480, symSize: 0x20 }
  - { offsetInCU: 0x1F6A, offset: 0x3D32BF, size: 0x8, addend: 0x0, symName: '__ZN3syn2ty8printing78_$LT$impl$u20$quote..to_tokens..ToTokens$u20$for$u20$syn..ty..BareVariadic$GT$9to_tokens17ha9341a662464f4c2E', symObjAddr: 0xBF20, symBinAddr: 0xD27C0, symSize: 0x150 }
  - { offsetInCU: 0x221C, offset: 0x3D3571, size: 0x8, addend: 0x0, symName: '__ZN3syn2ty7parsing61_$LT$impl$u20$syn..parse..Parse$u20$for$u20$syn..ty..Type$GT$5parse17h889cc5bfbc020ab2E', symObjAddr: 0x7D40, symBinAddr: 0xD04A0, symSize: 0x30 }
  - { offsetInCU: 0x22A2, offset: 0x3D35F7, size: 0x8, addend: 0x0, symName: '__ZN3syn2ty7parsing64_$LT$impl$u20$syn..parse..Parse$u20$for$u20$syn..ty..TypePtr$GT$5parse17h812b205086cf1413E', symObjAddr: 0x85B0, symBinAddr: 0xD04D0, symSize: 0x460 }
  - { offsetInCU: 0x2ECC, offset: 0x3D4221, size: 0x8, addend: 0x0, symName: '__ZN3syn2ty7parsing70_$LT$impl$u20$syn..parse..Parse$u20$for$u20$syn..ty..TypeReference$GT$5parse17h328046432bc63490E', symObjAddr: 0x8A10, symBinAddr: 0xD0930, symSize: 0x3E0 }
  - { offsetInCU: 0x3650, offset: 0x3D49A5, size: 0x8, addend: 0x0, symName: '__ZN3syn2ty7parsing67_$LT$impl$u20$syn..parse..Parse$u20$for$u20$syn..ty..TypeBareFn$GT$5parse17h38aebc87a74f9b4cE', symObjAddr: 0x8DF0, symBinAddr: 0xD0D10, symSize: 0xE10 }
  - { offsetInCU: 0x4946, offset: 0x3D5C9B, size: 0x8, addend: 0x0, symName: '__ZN3syn2ty7parsing66_$LT$impl$u20$syn..parse..Parse$u20$for$u20$syn..ty..TypeNever$GT$5parse17h5e83694d4dbbe60bE', symObjAddr: 0x9C00, symBinAddr: 0xD1B20, symSize: 0x50 }
  - { offsetInCU: 0x49F4, offset: 0x3D5D49, size: 0x8, addend: 0x0, symName: '__ZN3syn2ty7parsing72_$LT$impl$u20$syn..parse..Parse$u20$for$u20$syn..ty..TypeTraitObject$GT$5parse17h26a0300cf5800a6aE', symObjAddr: 0xA600, symBinAddr: 0xD1D30, symSize: 0x1B0 }
  - { offsetInCU: 0x5037, offset: 0x3D638C, size: 0x8, addend: 0x0, symName: '__ZN3syn2ty7parsing66_$LT$impl$u20$syn..parse..Parse$u20$for$u20$syn..ty..TypeGroup$GT$5parse17h39a20901238debb2E', symObjAddr: 0xAFD0, symBinAddr: 0xD2520, symSize: 0x2A0 }
  - { offsetInCU: 0x55B6, offset: 0x3D690B, size: 0x8, addend: 0x0, symName: '__ZN60_$LT$syn..ty..Type$u20$as$u20$quote..to_tokens..ToTokens$GT$9to_tokens17hb94ae3e2d75fc0b3E', symObjAddr: 0xC110, symBinAddr: 0xD2910, symSize: 0xA30 }
  - { offsetInCU: 0xBD86, offset: 0x3DD0DB, size: 0x8, addend: 0x0, symName: '__ZN4core3ptr100drop_in_place$LT$core..option..Option$LT$alloc..boxed..Box$LT$syn..path..GenericArgument$GT$$GT$$GT$17h7435c9de74860622E', symObjAddr: 0x150, symBinAddr: 0xC9230, symSize: 0x50 }
  - { offsetInCU: 0xC126, offset: 0x3DD47B, size: 0x8, addend: 0x0, symName: '__ZN4core3ptr100drop_in_place$LT$syn..punctuated..Punctuated$LT$syn..path..PathSegment$C$syn..token..PathSep$GT$$GT$17hf414cb3581f8337aE', symObjAddr: 0x1A0, symBinAddr: 0xC9280, symSize: 0x260 }
  - { offsetInCU: 0xCABF, offset: 0x3DDE14, size: 0x8, addend: 0x0, symName: '__ZN4core3ptr103drop_in_place$LT$core..option..Option$LT$alloc..boxed..Box$LT$syn..generics..TypeParamBound$GT$$GT$$GT$17h5974f03e36b1a9c3E', symObjAddr: 0x400, symBinAddr: 0xC94E0, symSize: 0x50 }
  - { offsetInCU: 0xCCCC, offset: 0x3DE021, size: 0x8, addend: 0x0, symName: '__ZN4core3ptr103drop_in_place$LT$syn..punctuated..Punctuated$LT$syn..generics..GenericParam$C$syn..token..Comma$GT$$GT$17hf42353fa44ed6da8E', symObjAddr: 0x450, symBinAddr: 0xC9530, symSize: 0xF0 }
  - { offsetInCU: 0xD18F, offset: 0x3DE4E4, size: 0x8, addend: 0x0, symName: '__ZN4core3ptr104drop_in_place$LT$syn..punctuated..Punctuated$LT$syn..generics..TypeParamBound$C$syn..token..Plus$GT$$GT$17h532f52c4a894b056E', symObjAddr: 0x540, symBinAddr: 0xC9620, symSize: 0x190 }
  - { offsetInCU: 0xD802, offset: 0x3DEB57, size: 0x8, addend: 0x0, symName: '__ZN4core3ptr34drop_in_place$LT$syn..lit..Lit$GT$17h8902f5ff67917034E', symObjAddr: 0x6D0, symBinAddr: 0xC97B0, symSize: 0x110 }
  - { offsetInCU: 0xDD5B, offset: 0x3DF0B0, size: 0x8, addend: 0x0, symName: '__ZN4core3ptr34drop_in_place$LT$syn..pat..Pat$GT$17h4581eea028ec0969E', symObjAddr: 0x7E0, symBinAddr: 0xC98C0, symSize: 0x1000 }
  - { offsetInCU: 0x11880, offset: 0x3E2BD5, size: 0x8, addend: 0x0, symName: '__ZN4core3ptr34drop_in_place$LT$syn..ty..Type$GT$17h369e41ad4a9f1ae0E.llvm.6340778183057508401', symObjAddr: 0x17E0, symBinAddr: 0xCA8C0, symSize: 0x500 }
  - { offsetInCU: 0x12DE9, offset: 0x3E413E, size: 0x8, addend: 0x0, symName: '__ZN4core3ptr36drop_in_place$LT$syn..expr..Expr$GT$17h0f7fd4c749bae801E', symObjAddr: 0x1CF0, symBinAddr: 0xCADC0, symSize: 0x28E0 }
  - { offsetInCU: 0x1C27B, offset: 0x3ED5D0, size: 0x8, addend: 0x0, symName: '__ZN4core3ptr36drop_in_place$LT$syn..mac..Macro$GT$17h4ffde962df30ebe2E', symObjAddr: 0x45D0, symBinAddr: 0xCD6A0, symSize: 0x40 }
  - { offsetInCU: 0x1C2B5, offset: 0x3ED60A, size: 0x8, addend: 0x0, symName: '__ZN4core3ptr36drop_in_place$LT$syn..path..Path$GT$17habea856181211e1cE', symObjAddr: 0x4610, symBinAddr: 0xCD6E0, symSize: 0x220 }
  - { offsetInCU: 0x1CBEA, offset: 0x3EDF3F, size: 0x8, addend: 0x0, symName: '__ZN4core3ptr37drop_in_place$LT$syn..stmt..Block$GT$17hcc21a21cf949414cE', symObjAddr: 0x4840, symBinAddr: 0xCD900, symSize: 0xD0 }
  - { offsetInCU: 0x1CE8E, offset: 0x3EE1E3, size: 0x8, addend: 0x0, symName: '__ZN4core3ptr38drop_in_place$LT$syn..expr..Member$GT$17h022cbe5553aa40faE', symObjAddr: 0x4910, symBinAddr: 0xCD9D0, symSize: 0x30 }
  - { offsetInCU: 0x1D026, offset: 0x3EE37B, size: 0x8, addend: 0x0, symName: '__ZN4core3ptr38drop_in_place$LT$syn..group..Group$GT$17hc3a29a397b30f633E.llvm.6340778183057508401', symObjAddr: 0x4940, symBinAddr: 0xCDA00, symSize: 0x70 }
  - { offsetInCU: 0x1D33C, offset: 0x3EE691, size: 0x8, addend: 0x0, symName: '__ZN4core3ptr39drop_in_place$LT$proc_macro2..Ident$GT$17h8101e88c3ac359d6E', symObjAddr: 0x49B0, symBinAddr: 0xCDA70, symSize: 0x30 }
  - { offsetInCU: 0x1D41A, offset: 0x3EE76F, size: 0x8, addend: 0x0, symName: '__ZN4core3ptr40drop_in_place$LT$syn..ty..ReturnType$GT$17h02cf41e2fec63d90E', symObjAddr: 0x49E0, symBinAddr: 0xCDAA0, symSize: 0x50 }
  - { offsetInCU: 0x1D58C, offset: 0x3EE8E1, size: 0x8, addend: 0x0, symName: '__ZN4core3ptr41drop_in_place$LT$syn..expr..ExprConst$GT$17h725a13e551d9f276E', symObjAddr: 0x4A30, symBinAddr: 0xCDAF0, symSize: 0x180 }
  - { offsetInCU: 0x1DAE1, offset: 0x3EEE36, size: 0x8, addend: 0x0, symName: '__ZN4core3ptr44drop_in_place$LT$syn..lifetime..Lifetime$GT$17hf0cdec2e9ec456d6E', symObjAddr: 0x4BB0, symBinAddr: 0xCDC70, symSize: 0x30 }
  - { offsetInCU: 0x1DBDE, offset: 0x3EEF33, size: 0x8, addend: 0x0, symName: '__ZN4core3ptr44drop_in_place$LT$syn..parse..ParseBuffer$GT$17hd0dadba44a19aec2E', symObjAddr: 0x4BE0, symBinAddr: 0xCDCA0, symSize: 0x70 }
  - { offsetInCU: 0x1E013, offset: 0x3EF368, size: 0x8, addend: 0x0, symName: '__ZN4core3ptr45drop_in_place$LT$proc_macro2..TokenStream$GT$17h3405f6c513e9f6cbE.llvm.6340778183057508401', symObjAddr: 0x4C50, symBinAddr: 0xCDD10, symSize: 0x140 }
  - { offsetInCU: 0x1E482, offset: 0x3EF7D7, size: 0x8, addend: 0x0, symName: '__ZN4core3ptr45drop_in_place$LT$syn..generics..TypeParam$GT$17he5eda51070b7de47E', symObjAddr: 0x4D90, symBinAddr: 0xCDE50, symSize: 0x230 }
  - { offsetInCU: 0x1EC7E, offset: 0x3EFFD3, size: 0x8, addend: 0x0, symName: '__ZN4core3ptr46drop_in_place$LT$syn..generics..ConstParam$GT$17hab0a58c4af8c549cE', symObjAddr: 0x4FC0, symBinAddr: 0xCE080, symSize: 0x150 }
  - { offsetInCU: 0x1F0A8, offset: 0x3F03FD, size: 0x8, addend: 0x0, symName: '__ZN4core3ptr47drop_in_place$LT$syn..path..GenericArgument$GT$17h54f8794633f96823E', symObjAddr: 0x5110, symBinAddr: 0xCE1D0, symSize: 0x4A0 }
  - { offsetInCU: 0x2014F, offset: 0x3F14A4, size: 0x8, addend: 0x0, symName: '__ZN4core3ptr49drop_in_place$LT$syn..generics..LifetimeParam$GT$17h41a7c7a290ea6289E', symObjAddr: 0x55B0, symBinAddr: 0xCE670, symSize: 0xF0 }
  - { offsetInCU: 0x20509, offset: 0x3F185E, size: 0x8, addend: 0x0, symName: '__ZN4core3ptr50drop_in_place$LT$syn..generics..TypeParamBound$GT$17hcd7771d4c6c221efE', symObjAddr: 0x56A0, symBinAddr: 0xCE760, symSize: 0x160 }
  - { offsetInCU: 0x20929, offset: 0x3F1C7E, size: 0x8, addend: 0x0, symName: '__ZN4core3ptr58drop_in_place$LT$alloc..vec..Vec$LT$syn..expr..Arm$GT$$GT$17h1a55df3d2cba1daaE', symObjAddr: 0x5800, symBinAddr: 0xCE8C0, symSize: 0xD0 }
  - { offsetInCU: 0x20BB6, offset: 0x3F1F0B, size: 0x8, addend: 0x0, symName: '__ZN4core3ptr59drop_in_place$LT$alloc..boxed..Box$LT$syn..pat..Pat$GT$$GT$17h563b135d87aca8abE', symObjAddr: 0x58D0, symBinAddr: 0xCE990, symSize: 0x50 }
  - { offsetInCU: 0x20D11, offset: 0x3F2066, size: 0x8, addend: 0x0, symName: '__ZN4core3ptr59drop_in_place$LT$alloc..boxed..Box$LT$syn..ty..Type$GT$$GT$17hffed36bad83adacbE', symObjAddr: 0x5920, symBinAddr: 0xCE9E0, symSize: 0x50 }
  - { offsetInCU: 0x20E6C, offset: 0x3F21C1, size: 0x8, addend: 0x0, symName: '__ZN4core3ptr61drop_in_place$LT$alloc..boxed..Box$LT$syn..expr..Expr$GT$$GT$17h01091e47f131475dE', symObjAddr: 0x5970, symBinAddr: 0xCEA30, symSize: 0x50 }
  - { offsetInCU: 0x21043, offset: 0x3F2398, size: 0x8, addend: 0x0, symName: '__ZN4core3ptr61drop_in_place$LT$syn..path..ParenthesizedGenericArguments$GT$17h43d4aac5494326a7E', symObjAddr: 0x5A30, symBinAddr: 0xCEA80, symSize: 0x170 }
  - { offsetInCU: 0x2160A, offset: 0x3F295F, size: 0x8, addend: 0x0, symName: '__ZN4core3ptr62drop_in_place$LT$syn..path..AngleBracketedGenericArguments$GT$17hc5b69f68243636ddE', symObjAddr: 0x5BA0, symBinAddr: 0xCEBF0, symSize: 0x120 }
  - { offsetInCU: 0x21A20, offset: 0x3F2D75, size: 0x8, addend: 0x0, symName: '__ZN4core3ptr63drop_in_place$LT$alloc..boxed..Box$LT$syn..lit..LitRepr$GT$$GT$17hd8839b7fb35ee7afE', symObjAddr: 0x5CC0, symBinAddr: 0xCED10, symSize: 0x60 }
  - { offsetInCU: 0x21D15, offset: 0x3F306A, size: 0x8, addend: 0x0, symName: '__ZN4core3ptr64drop_in_place$LT$alloc..boxed..Box$LT$syn..pat..FieldPat$GT$$GT$17h4980b70a7597cc08E', symObjAddr: 0x5D20, symBinAddr: 0xCED70, symSize: 0x140 }
  - { offsetInCU: 0x223C0, offset: 0x3F3715, size: 0x8, addend: 0x0, symName: '__ZN4core3ptr64drop_in_place$LT$alloc..boxed..Box$LT$syn..ty..BareFnArg$GT$$GT$17h8b34096c620314efE', symObjAddr: 0x5E60, symBinAddr: 0xCEEB0, symSize: 0x140 }
  - { offsetInCU: 0x228E4, offset: 0x3F3C39, size: 0x8, addend: 0x0, symName: '__ZN4core3ptr64drop_in_place$LT$alloc..vec..Vec$LT$syn..attr..Attribute$GT$$GT$17h3c8f2a04e701c675E.llvm.6340778183057508401', symObjAddr: 0x5FA0, symBinAddr: 0xCEFF0, symSize: 0xD0 }
  - { offsetInCU: 0x22B71, offset: 0x3F3EC6, size: 0x8, addend: 0x0, symName: '__ZN4core3ptr65drop_in_place$LT$core..option..Option$LT$syn..expr..Label$GT$$GT$17h78189e72a8cb7951E', symObjAddr: 0x6070, symBinAddr: 0xCF0C0, symSize: 0x30 }
  - { offsetInCU: 0x22CAC, offset: 0x3F4001, size: 0x8, addend: 0x0, symName: '__ZN4core3ptr66drop_in_place$LT$core..option..Option$LT$syn..pat..PatRest$GT$$GT$17h61677cf4ff3a7393E', symObjAddr: 0x6150, symBinAddr: 0xCF0F0, symSize: 0xE0 }
  - { offsetInCU: 0x22F30, offset: 0x3F4285, size: 0x8, addend: 0x0, symName: '__ZN4core3ptr67drop_in_place$LT$alloc..boxed..Box$LT$syn..expr..FieldValue$GT$$GT$17h93aaccf8aa22ef88E', symObjAddr: 0x6230, symBinAddr: 0xCF1D0, symSize: 0x140 }
  - { offsetInCU: 0x23434, offset: 0x3F4789, size: 0x8, addend: 0x0, symName: '__ZN4core3ptr68drop_in_place$LT$alloc..boxed..Box$LT$syn..path..PathSegment$GT$$GT$17h709dabdc13b58a71E', symObjAddr: 0x6370, symBinAddr: 0xCF310, symSize: 0x190 }
  - { offsetInCU: 0x23B12, offset: 0x3F4E67, size: 0x8, addend: 0x0, symName: '__ZN4core3ptr70drop_in_place$LT$core..option..Option$LT$syn..ty..BareVariadic$GT$$GT$17h45399348ea4b8d55E', symObjAddr: 0x6500, symBinAddr: 0xCF4A0, symSize: 0x120 }
  - { offsetInCU: 0x2403F, offset: 0x3F5394, size: 0x8, addend: 0x0, symName: '__ZN4core3ptr72drop_in_place$LT$alloc..boxed..Box$LT$syn..path..GenericArgument$GT$$GT$17haa7dd8b716637b54E', symObjAddr: 0x6620, symBinAddr: 0xCF5C0, symSize: 0x1D0 }
  - { offsetInCU: 0x245E2, offset: 0x3F5937, size: 0x8, addend: 0x0, symName: '__ZN4core3ptr73drop_in_place$LT$alloc..boxed..Box$LT$syn..generics..GenericParam$GT$$GT$17hf6951dcd5ae07324E', symObjAddr: 0x67F0, symBinAddr: 0xCF790, symSize: 0x80 }
  - { offsetInCU: 0x2475A, offset: 0x3F5AAF, size: 0x8, addend: 0x0, symName: '__ZN4core3ptr75drop_in_place$LT$alloc..boxed..Box$LT$syn..generics..TypeParamBound$GT$$GT$17he61c00698a311a34E', symObjAddr: 0x6870, symBinAddr: 0xCF810, symSize: 0xB0 }
  - { offsetInCU: 0x24AB5, offset: 0x3F5E0A, size: 0x8, addend: 0x0, symName: '__ZN4core3ptr86drop_in_place$LT$syn..punctuated..Punctuated$LT$syn..pat..Pat$C$syn..token..Or$GT$$GT$17h8e9173df21a44316E', symObjAddr: 0x6940, symBinAddr: 0xCF8C0, symSize: 0x120 }
  - { offsetInCU: 0x24EFB, offset: 0x3F6250, size: 0x8, addend: 0x0, symName: '__ZN4core3ptr87drop_in_place$LT$core..option..Option$LT$alloc..boxed..Box$LT$syn..pat..Pat$GT$$GT$$GT$17hd7b7c69f601b3926E', symObjAddr: 0x6A60, symBinAddr: 0xCF9E0, symSize: 0x50 }
  - { offsetInCU: 0x2506D, offset: 0x3F63C2, size: 0x8, addend: 0x0, symName: '__ZN4core3ptr87drop_in_place$LT$core..option..Option$LT$alloc..boxed..Box$LT$syn..ty..Type$GT$$GT$$GT$17hd74f5d971aec2972E', symObjAddr: 0x6AB0, symBinAddr: 0xCFA30, symSize: 0x50 }
  - { offsetInCU: 0x251DF, offset: 0x3F6534, size: 0x8, addend: 0x0, symName: '__ZN4core3ptr89drop_in_place$LT$core..option..Option$LT$alloc..boxed..Box$LT$syn..expr..Expr$GT$$GT$$GT$17h8e135ac1a25a2dc5E', symObjAddr: 0x6B00, symBinAddr: 0xCFA80, symSize: 0x50 }
  - { offsetInCU: 0x2538F, offset: 0x3F66E4, size: 0x8, addend: 0x0, symName: '__ZN4core3ptr89drop_in_place$LT$syn..punctuated..Punctuated$LT$syn..pat..Pat$C$syn..token..Comma$GT$$GT$17h8d60e47f3fb1f87aE', symObjAddr: 0x6B50, symBinAddr: 0xCFAD0, symSize: 0x120 }
  - { offsetInCU: 0x257EC, offset: 0x3F6B41, size: 0x8, addend: 0x0, symName: '__ZN4core3ptr89drop_in_place$LT$syn..punctuated..Punctuated$LT$syn..ty..Type$C$syn..token..Comma$GT$$GT$17ha919b3114742fb9dE', symObjAddr: 0x6C70, symBinAddr: 0xCFBF0, symSize: 0x120 }
  - { offsetInCU: 0x25C36, offset: 0x3F6F8B, size: 0x8, addend: 0x0, symName: '__ZN4core3ptr90drop_in_place$LT$core..option..Option$LT$syn..path..AngleBracketedGenericArguments$GT$$GT$17h80d9a5f0818c8bd9E', symObjAddr: 0x6D90, symBinAddr: 0xCFD10, symSize: 0x130 }
  - { offsetInCU: 0x260A1, offset: 0x3F73F6, size: 0x8, addend: 0x0, symName: '__ZN4core3ptr91drop_in_place$LT$syn..punctuated..Punctuated$LT$syn..expr..Expr$C$syn..token..Comma$GT$$GT$17h4f39b83dc86a4159E', symObjAddr: 0x6EC0, symBinAddr: 0xCFE40, symSize: 0x120 }
  - { offsetInCU: 0x264FE, offset: 0x3F7853, size: 0x8, addend: 0x0, symName: '__ZN4core3ptr94drop_in_place$LT$syn..punctuated..Punctuated$LT$syn..pat..FieldPat$C$syn..token..Comma$GT$$GT$17h112950ea198c8281E', symObjAddr: 0x6FE0, symBinAddr: 0xCFF60, symSize: 0xF0 }
  - { offsetInCU: 0x267C8, offset: 0x3F7B1D, size: 0x8, addend: 0x0, symName: '__ZN4core3ptr94drop_in_place$LT$syn..punctuated..Punctuated$LT$syn..ty..BareFnArg$C$syn..token..Comma$GT$$GT$17h1c7b44310f06243dE', symObjAddr: 0x70D0, symBinAddr: 0xD0050, symSize: 0xF0 }
  - { offsetInCU: 0x26A92, offset: 0x3F7DE7, size: 0x8, addend: 0x0, symName: '__ZN4core3ptr95drop_in_place$LT$core..option..Option$LT$$LP$proc_macro2..Ident$C$syn..token..Colon$RP$$GT$$GT$17ha744bf0f41959716E.llvm.6340778183057508401', symObjAddr: 0x71C0, symBinAddr: 0xD0140, symSize: 0x30 }
  - { offsetInCU: 0x26BAE, offset: 0x3F7F03, size: 0x8, addend: 0x0, symName: '__ZN4core3ptr96drop_in_place$LT$core..option..Option$LT$alloc..boxed..Box$LT$syn..path..PathSegment$GT$$GT$$GT$17hb447d0f626c86a4eE', symObjAddr: 0x71F0, symBinAddr: 0xD0170, symSize: 0x90 }
  - { offsetInCU: 0x26E30, offset: 0x3F8185, size: 0x8, addend: 0x0, symName: '__ZN4core3ptr97drop_in_place$LT$syn..punctuated..Punctuated$LT$syn..expr..FieldValue$C$syn..token..Comma$GT$$GT$17h31b81f7462228dcbE', symObjAddr: 0x7280, symBinAddr: 0xD0200, symSize: 0xF0 }
  - { offsetInCU: 0x270FA, offset: 0x3F844F, size: 0x8, addend: 0x0, symName: '__ZN4core3ptr98drop_in_place$LT$alloc..vec..Vec$LT$$LP$syn..path..GenericArgument$C$syn..token..Comma$RP$$GT$$GT$17h0657ff261f33b640E', symObjAddr: 0x7370, symBinAddr: 0xD02F0, symSize: 0xD0 }
  - { offsetInCU: 0x27403, offset: 0x3F8758, size: 0x8, addend: 0x0, symName: '__ZN4core3ptr98drop_in_place$LT$syn..punctuated..Punctuated$LT$syn..lifetime..Lifetime$C$syn..token..Plus$GT$$GT$17h0f8fc5f20f465f47E', symObjAddr: 0x7440, symBinAddr: 0xD03C0, symSize: 0xC0 }
  - { offsetInCU: 0x2EA5A, offset: 0x3FFDAF, size: 0x8, addend: 0x0, symName: '__ZN3syn2ty7parsing37_$LT$impl$u20$syn..ty..ReturnType$GT$5parse17he324a0d79314d8d8E.llvm.6340778183057508401', symObjAddr: 0xA420, symBinAddr: 0xD1B70, symSize: 0x1C0 }
  - { offsetInCU: 0x2EF71, offset: 0x4002C6, size: 0x8, addend: 0x0, symName: '__ZN3syn2ty7parsing42_$LT$impl$u20$syn..ty..TypeTraitObject$GT$12parse_bounds17hef91dc1b8f27672eE', symObjAddr: 0xA950, symBinAddr: 0xD1EE0, symSize: 0x2F0 }
  - { offsetInCU: 0x2F634, offset: 0x400989, size: 0x8, addend: 0x0, symName: '__ZN3syn2ty7parsing40_$LT$impl$u20$syn..ty..TypeImplTrait$GT$5parse17hd7958562640d7c66E', symObjAddr: 0xAC80, symBinAddr: 0xD21D0, symSize: 0x350 }
  - { offsetInCU: 0xD72, offset: 0x407EFE, size: 0x8, addend: 0x0, symName: '__ZN3syn3pat8printing75_$LT$impl$u20$quote..to_tokens..ToTokens$u20$for$u20$syn..pat..PatIdent$GT$9to_tokens17h348ed871f50ef358E', symObjAddr: 0x8BC0, symBinAddr: 0xD4540, symSize: 0x200 }
  - { offsetInCU: 0x12F8, offset: 0x408484, size: 0x8, addend: 0x0, symName: '__ZN3syn3pat8printing74_$LT$impl$u20$quote..to_tokens..ToTokens$u20$for$u20$syn..pat..PatRest$GT$9to_tokens17hbab31be22b0a07a1E', symObjAddr: 0x9180, symBinAddr: 0xD4740, symSize: 0xF0 }
  - { offsetInCU: 0x15C9, offset: 0x408755, size: 0x8, addend: 0x0, symName: '__ZN3syn3pat8printing74_$LT$impl$u20$quote..to_tokens..ToTokens$u20$for$u20$syn..pat..PatType$GT$9to_tokens17h413fc48f12d68c5eE', symObjAddr: 0x9610, symBinAddr: 0xD4830, symSize: 0x100 }
  - { offsetInCU: 0x1862, offset: 0x4089EE, size: 0x8, addend: 0x0, symName: '__ZN60_$LT$syn..pat..Pat$u20$as$u20$quote..to_tokens..ToTokens$GT$9to_tokens17hd89cff4ed8404be9E', symObjAddr: 0x9960, symBinAddr: 0xD4930, symSize: 0xDC0 }
  - { offsetInCU: 0x3C8F, offset: 0x40AE1B, size: 0x8, addend: 0x0, symName: '__ZN77_$LT$$RF$$u5b$syn..attr..Attribute$u5d$$u20$as$u20$syn..attr..FilterAttrs$GT$5outer8is_outer17h05806f843d7deec4E.llvm.16708040419612450194', symObjAddr: 0x75A0, symBinAddr: 0xD33B0, symSize: 0x20 }
  - { offsetInCU: 0x8C6A, offset: 0x40FDF6, size: 0x8, addend: 0x0, symName: '__ZN4core3ptr44drop_in_place$LT$syn..parse..ParseBuffer$GT$17hd0dadba44a19aec2E', symObjAddr: 0x4A50, symBinAddr: 0xD3340, symSize: 0x70 }
  - { offsetInCU: 0xD9D5, offset: 0x414B61, size: 0x8, addend: 0x0, symName: '__ZN3syn3pat7parsing31_$LT$impl$u20$syn..pat..Pat$GT$12parse_single17he8272f3d05bd5b62E', symObjAddr: 0x7690, symBinAddr: 0xD33D0, symSize: 0x10A0 }
  - { offsetInCU: 0x124B2, offset: 0x41963E, size: 0x8, addend: 0x0, symName: '__ZN3syn3pat7parsing31_$LT$impl$u20$syn..pat..Pat$GT$29parse_multi_with_leading_vert17hff4a0f009e279073E', symObjAddr: 0x8750, symBinAddr: 0xD4470, symSize: 0xD0 }
  - { offsetInCU: 0x35, offset: 0x41DD28, size: 0x8, addend: 0x0, symName: _anon.9fa2b4368973a3c0948f9ae02c44caa7.1.llvm.11936935375936494365, symObjAddr: 0xDA20, symBinAddr: 0x224A88, symSize: 0x0 }
  - { offsetInCU: 0x1C6E, offset: 0x41F961, size: 0x8, addend: 0x0, symName: '__ZN4core3ptr100drop_in_place$LT$syn..punctuated..Punctuated$LT$syn..path..PathSegment$C$syn..token..PathSep$GT$$GT$17hf414cb3581f8337aE.llvm.11936935375936494365', symObjAddr: 0x250, symBinAddr: 0xD56F0, symSize: 0x140 }
  - { offsetInCU: 0x21C1, offset: 0x41FEB4, size: 0x8, addend: 0x0, symName: '__ZN4core3ptr101drop_in_place$LT$core..option..Option$LT$alloc..boxed..Box$LT$syn..generics..GenericParam$GT$$GT$$GT$17hd5dce04b35fda9feE', symObjAddr: 0x390, symBinAddr: 0xD5830, symSize: 0x90 }
  - { offsetInCU: 0x23A7, offset: 0x42009A, size: 0x8, addend: 0x0, symName: '__ZN4core3ptr102drop_in_place$LT$syn..punctuated..Punctuated$LT$syn..path..GenericArgument$C$syn..token..Comma$GT$$GT$17h39496ba4e6dba6cfE.llvm.11936935375936494365', symObjAddr: 0x420, symBinAddr: 0xD58C0, symSize: 0xF0 }
  - { offsetInCU: 0x26A3, offset: 0x420396, size: 0x8, addend: 0x0, symName: '__ZN4core3ptr103drop_in_place$LT$core..option..Option$LT$alloc..boxed..Box$LT$syn..generics..TypeParamBound$GT$$GT$$GT$17h5974f03e36b1a9c3E', symObjAddr: 0x510, symBinAddr: 0xD59B0, symSize: 0x50 }
  - { offsetInCU: 0x2872, offset: 0x420565, size: 0x8, addend: 0x0, symName: '__ZN4core3ptr103drop_in_place$LT$syn..punctuated..Punctuated$LT$syn..generics..GenericParam$C$syn..token..Comma$GT$$GT$17hf42353fa44ed6da8E', symObjAddr: 0x560, symBinAddr: 0xD5A00, symSize: 0xF0 }
  - { offsetInCU: 0x2D41, offset: 0x420A34, size: 0x8, addend: 0x0, symName: '__ZN4core3ptr104drop_in_place$LT$syn..punctuated..Punctuated$LT$syn..generics..TypeParamBound$C$syn..token..Plus$GT$$GT$17h532f52c4a894b056E', symObjAddr: 0x650, symBinAddr: 0xD5AF0, symSize: 0x260 }
  - { offsetInCU: 0x372B, offset: 0x42141E, size: 0x8, addend: 0x0, symName: '__ZN4core3ptr34drop_in_place$LT$syn..lit..Lit$GT$17h8902f5ff67917034E', symObjAddr: 0x8C0, symBinAddr: 0xD5D50, symSize: 0x110 }
  - { offsetInCU: 0x3CA3, offset: 0x421996, size: 0x8, addend: 0x0, symName: '__ZN4core3ptr34drop_in_place$LT$syn..pat..Pat$GT$17h4581eea028ec0969E', symObjAddr: 0x9D0, symBinAddr: 0xD5E60, symSize: 0x1000 }
  - { offsetInCU: 0x77E7, offset: 0x4254DA, size: 0x8, addend: 0x0, symName: '__ZN4core3ptr34drop_in_place$LT$syn..ty..Type$GT$17h369e41ad4a9f1ae0E.llvm.11936935375936494365', symObjAddr: 0x19D0, symBinAddr: 0xD6E60, symSize: 0x4F0 }
  - { offsetInCU: 0x8D52, offset: 0x426A45, size: 0x8, addend: 0x0, symName: '__ZN4core3ptr36drop_in_place$LT$syn..expr..Expr$GT$17h0f7fd4c749bae801E.llvm.11936935375936494365', symObjAddr: 0x1EC0, symBinAddr: 0xD7350, symSize: 0x28C0 }
  - { offsetInCU: 0x121F7, offset: 0x42FEEA, size: 0x8, addend: 0x0, symName: '__ZN4core3ptr36drop_in_place$LT$syn..mac..Macro$GT$17h4ffde962df30ebe2E', symObjAddr: 0x4780, symBinAddr: 0xD9C10, symSize: 0x40 }
  - { offsetInCU: 0x12250, offset: 0x42FF43, size: 0x8, addend: 0x0, symName: '__ZN4core3ptr36drop_in_place$LT$syn..path..Path$GT$17habea856181211e1cE.llvm.11936935375936494365', symObjAddr: 0x47C0, symBinAddr: 0xD9C50, symSize: 0x140 }
  - { offsetInCU: 0x12795, offset: 0x430488, size: 0x8, addend: 0x0, symName: '__ZN4core3ptr37drop_in_place$LT$syn..stmt..Block$GT$17hcc21a21cf949414cE', symObjAddr: 0x4900, symBinAddr: 0xD9D90, symSize: 0xD0 }
  - { offsetInCU: 0x12A39, offset: 0x43072C, size: 0x8, addend: 0x0, symName: '__ZN4core3ptr38drop_in_place$LT$syn..expr..Member$GT$17h022cbe5553aa40faE', symObjAddr: 0x49D0, symBinAddr: 0xD9E60, symSize: 0x30 }
  - { offsetInCU: 0x12B36, offset: 0x430829, size: 0x8, addend: 0x0, symName: '__ZN4core3ptr38drop_in_place$LT$syn..ty..TypePath$GT$17he8f590b78af8d8f3E', symObjAddr: 0x4A00, symBinAddr: 0xD9E90, symSize: 0x80 }
  - { offsetInCU: 0x12CB5, offset: 0x4309A8, size: 0x8, addend: 0x0, symName: '__ZN4core3ptr39drop_in_place$LT$proc_macro2..Ident$GT$17h8101e88c3ac359d6E.llvm.11936935375936494365', symObjAddr: 0x4A80, symBinAddr: 0xD9F10, symSize: 0x30 }
  - { offsetInCU: 0x12D93, offset: 0x430A86, size: 0x8, addend: 0x0, symName: '__ZN4core3ptr40drop_in_place$LT$syn..ty..ReturnType$GT$17h02cf41e2fec63d90E', symObjAddr: 0x4AB0, symBinAddr: 0xD9F40, symSize: 0x50 }
  - { offsetInCU: 0x12F05, offset: 0x430BF8, size: 0x8, addend: 0x0, symName: '__ZN4core3ptr41drop_in_place$LT$syn..expr..ExprConst$GT$17h725a13e551d9f276E', symObjAddr: 0x4B00, symBinAddr: 0xD9F90, symSize: 0x180 }
  - { offsetInCU: 0x13479, offset: 0x43116C, size: 0x8, addend: 0x0, symName: '__ZN4core3ptr42drop_in_place$LT$syn..path..Constraint$GT$17h07cd69a204b9a6d4E.llvm.11936935375936494365', symObjAddr: 0x4D60, symBinAddr: 0xDA110, symSize: 0x160 }
  - { offsetInCU: 0x139B8, offset: 0x4316AB, size: 0x8, addend: 0x0, symName: '__ZN4core3ptr44drop_in_place$LT$syn..lifetime..Lifetime$GT$17hf0cdec2e9ec456d6E.llvm.11936935375936494365', symObjAddr: 0x4EC0, symBinAddr: 0xDA270, symSize: 0x30 }
  - { offsetInCU: 0x13B31, offset: 0x431824, size: 0x8, addend: 0x0, symName: '__ZN4core3ptr44drop_in_place$LT$syn..parse..ParseBuffer$GT$17hd0dadba44a19aec2E', symObjAddr: 0x4EF0, symBinAddr: 0xDA2A0, symSize: 0x70 }
  - { offsetInCU: 0x13F66, offset: 0x431C59, size: 0x8, addend: 0x0, symName: '__ZN4core3ptr45drop_in_place$LT$proc_macro2..TokenStream$GT$17h3405f6c513e9f6cbE', symObjAddr: 0x4F60, symBinAddr: 0xDA310, symSize: 0x140 }
  - { offsetInCU: 0x143B6, offset: 0x4320A9, size: 0x8, addend: 0x0, symName: '__ZN4core3ptr45drop_in_place$LT$syn..generics..TypeParam$GT$17he5eda51070b7de47E', symObjAddr: 0x50A0, symBinAddr: 0xDA450, symSize: 0x140 }
  - { offsetInCU: 0x147A8, offset: 0x43249B, size: 0x8, addend: 0x0, symName: '__ZN4core3ptr45drop_in_place$LT$syn..path..PathArguments$GT$17h7160021b3fdea550E.llvm.11936935375936494365', symObjAddr: 0x51E0, symBinAddr: 0xDA590, symSize: 0xA0 }
  - { offsetInCU: 0x1497D, offset: 0x432670, size: 0x8, addend: 0x0, symName: '__ZN4core3ptr46drop_in_place$LT$syn..generics..ConstParam$GT$17hab0a58c4af8c549cE', symObjAddr: 0x5280, symBinAddr: 0xDA630, symSize: 0x150 }
  - { offsetInCU: 0x14D4A, offset: 0x432A3D, size: 0x8, addend: 0x0, symName: '__ZN4core3ptr49drop_in_place$LT$syn..generics..LifetimeParam$GT$17h41a7c7a290ea6289E', symObjAddr: 0x53D0, symBinAddr: 0xDA780, symSize: 0xF0 }
  - { offsetInCU: 0x15104, offset: 0x432DF7, size: 0x8, addend: 0x0, symName: '__ZN4core3ptr50drop_in_place$LT$syn..generics..TypeParamBound$GT$17hcd7771d4c6c221efE', symObjAddr: 0x54C0, symBinAddr: 0xDA870, symSize: 0x160 }
  - { offsetInCU: 0x15524, offset: 0x433217, size: 0x8, addend: 0x0, symName: '__ZN4core3ptr58drop_in_place$LT$alloc..vec..Vec$LT$syn..expr..Arm$GT$$GT$17h1a55df3d2cba1daaE', symObjAddr: 0x5620, symBinAddr: 0xDA9D0, symSize: 0xD0 }
  - { offsetInCU: 0x157B1, offset: 0x4334A4, size: 0x8, addend: 0x0, symName: '__ZN4core3ptr59drop_in_place$LT$alloc..boxed..Box$LT$syn..pat..Pat$GT$$GT$17h563b135d87aca8abE', symObjAddr: 0x56F0, symBinAddr: 0xDAAA0, symSize: 0x50 }
  - { offsetInCU: 0x1590C, offset: 0x4335FF, size: 0x8, addend: 0x0, symName: '__ZN4core3ptr59drop_in_place$LT$alloc..boxed..Box$LT$syn..ty..Type$GT$$GT$17hffed36bad83adacbE.llvm.11936935375936494365', symObjAddr: 0x5740, symBinAddr: 0xDAAF0, symSize: 0x50 }
  - { offsetInCU: 0x15A67, offset: 0x43375A, size: 0x8, addend: 0x0, symName: '__ZN4core3ptr61drop_in_place$LT$alloc..boxed..Box$LT$syn..expr..Expr$GT$$GT$17h01091e47f131475dE', symObjAddr: 0x5790, symBinAddr: 0xDAB40, symSize: 0x50 }
  - { offsetInCU: 0x15C3E, offset: 0x433931, size: 0x8, addend: 0x0, symName: '__ZN4core3ptr61drop_in_place$LT$syn..path..ParenthesizedGenericArguments$GT$17h43d4aac5494326a7E.llvm.11936935375936494365', symObjAddr: 0x57E0, symBinAddr: 0xDAB90, symSize: 0x170 }
  - { offsetInCU: 0x16205, offset: 0x433EF8, size: 0x8, addend: 0x0, symName: '__ZN4core3ptr63drop_in_place$LT$alloc..boxed..Box$LT$syn..lit..LitRepr$GT$$GT$17hd8839b7fb35ee7afE', symObjAddr: 0x5950, symBinAddr: 0xDAD00, symSize: 0x60 }
  - { offsetInCU: 0x164FA, offset: 0x4341ED, size: 0x8, addend: 0x0, symName: '__ZN4core3ptr64drop_in_place$LT$alloc..boxed..Box$LT$syn..pat..FieldPat$GT$$GT$17h4980b70a7597cc08E', symObjAddr: 0x59B0, symBinAddr: 0xDAD60, symSize: 0x140 }
  - { offsetInCU: 0x16BA5, offset: 0x434898, size: 0x8, addend: 0x0, symName: '__ZN4core3ptr64drop_in_place$LT$alloc..boxed..Box$LT$syn..ty..BareFnArg$GT$$GT$17h8b34096c620314efE', symObjAddr: 0x5AF0, symBinAddr: 0xDAEA0, symSize: 0x140 }
  - { offsetInCU: 0x170C9, offset: 0x434DBC, size: 0x8, addend: 0x0, symName: '__ZN4core3ptr65drop_in_place$LT$core..option..Option$LT$syn..expr..Label$GT$$GT$17h78189e72a8cb7951E', symObjAddr: 0x5C30, symBinAddr: 0xDAFE0, symSize: 0x30 }
  - { offsetInCU: 0x17204, offset: 0x434EF7, size: 0x8, addend: 0x0, symName: '__ZN4core3ptr66drop_in_place$LT$core..option..Option$LT$syn..pat..PatRest$GT$$GT$17h61677cf4ff3a7393E', symObjAddr: 0x5C60, symBinAddr: 0xDB010, symSize: 0xE0 }
  - { offsetInCU: 0x17488, offset: 0x43517B, size: 0x8, addend: 0x0, symName: '__ZN4core3ptr67drop_in_place$LT$alloc..boxed..Box$LT$syn..expr..FieldValue$GT$$GT$17h93aaccf8aa22ef88E', symObjAddr: 0x5D40, symBinAddr: 0xDB0F0, symSize: 0x140 }
  - { offsetInCU: 0x1798C, offset: 0x43567F, size: 0x8, addend: 0x0, symName: '__ZN4core3ptr68drop_in_place$LT$alloc..boxed..Box$LT$syn..path..PathSegment$GT$$GT$17h709dabdc13b58a71E', symObjAddr: 0x5E80, symBinAddr: 0xDB230, symSize: 0xD0 }
  - { offsetInCU: 0x17DA9, offset: 0x435A9C, size: 0x8, addend: 0x0, symName: '__ZN4core3ptr70drop_in_place$LT$core..option..Option$LT$syn..ty..BareVariadic$GT$$GT$17h45399348ea4b8d55E', symObjAddr: 0x5F60, symBinAddr: 0xDB300, symSize: 0x120 }
  - { offsetInCU: 0x18314, offset: 0x436007, size: 0x8, addend: 0x0, symName: '__ZN4core3ptr72drop_in_place$LT$alloc..boxed..Box$LT$syn..path..GenericArgument$GT$$GT$17haa7dd8b716637b54E.llvm.11936935375936494365', symObjAddr: 0x6080, symBinAddr: 0xDB420, symSize: 0x180 }
  - { offsetInCU: 0x187FC, offset: 0x4364EF, size: 0x8, addend: 0x0, symName: '__ZN4core3ptr72drop_in_place$LT$core..option..Option$LT$syn..lifetime..Lifetime$GT$$GT$17hfc363ccdd8bd9c32E', symObjAddr: 0x6200, symBinAddr: 0xDB5A0, symSize: 0x30 }
  - { offsetInCU: 0x18937, offset: 0x43662A, size: 0x8, addend: 0x0, symName: '__ZN4core3ptr73drop_in_place$LT$alloc..boxed..Box$LT$syn..generics..GenericParam$GT$$GT$17hf6951dcd5ae07324E', symObjAddr: 0x6260, symBinAddr: 0xDB5D0, symSize: 0x80 }
  - { offsetInCU: 0x18AAF, offset: 0x4367A2, size: 0x8, addend: 0x0, symName: '__ZN4core3ptr75drop_in_place$LT$alloc..boxed..Box$LT$syn..generics..TypeParamBound$GT$$GT$17he61c00698a311a34E', symObjAddr: 0x62E0, symBinAddr: 0xDB650, symSize: 0x190 }
  - { offsetInCU: 0x19187, offset: 0x436E7A, size: 0x8, addend: 0x0, symName: '__ZN4core3ptr86drop_in_place$LT$syn..punctuated..Punctuated$LT$syn..pat..Pat$C$syn..token..Or$GT$$GT$17h8e9173df21a44316E', symObjAddr: 0x6470, symBinAddr: 0xDB7E0, symSize: 0x120 }
  - { offsetInCU: 0x195CD, offset: 0x4372C0, size: 0x8, addend: 0x0, symName: '__ZN4core3ptr87drop_in_place$LT$core..option..Option$LT$alloc..boxed..Box$LT$syn..pat..Pat$GT$$GT$$GT$17hd7b7c69f601b3926E', symObjAddr: 0x6590, symBinAddr: 0xDB900, symSize: 0x50 }
  - { offsetInCU: 0x1973F, offset: 0x437432, size: 0x8, addend: 0x0, symName: '__ZN4core3ptr87drop_in_place$LT$core..option..Option$LT$alloc..boxed..Box$LT$syn..ty..Type$GT$$GT$$GT$17hd74f5d971aec2972E.llvm.11936935375936494365', symObjAddr: 0x65E0, symBinAddr: 0xDB950, symSize: 0x50 }
  - { offsetInCU: 0x198B1, offset: 0x4375A4, size: 0x8, addend: 0x0, symName: '__ZN4core3ptr89drop_in_place$LT$core..option..Option$LT$alloc..boxed..Box$LT$syn..expr..Expr$GT$$GT$$GT$17h8e135ac1a25a2dc5E', symObjAddr: 0x6630, symBinAddr: 0xDB9A0, symSize: 0x50 }
  - { offsetInCU: 0x19A61, offset: 0x437754, size: 0x8, addend: 0x0, symName: '__ZN4core3ptr89drop_in_place$LT$syn..punctuated..Punctuated$LT$syn..pat..Pat$C$syn..token..Comma$GT$$GT$17h8d60e47f3fb1f87aE', symObjAddr: 0x6680, symBinAddr: 0xDB9F0, symSize: 0x120 }
  - { offsetInCU: 0x19EBE, offset: 0x437BB1, size: 0x8, addend: 0x0, symName: '__ZN4core3ptr89drop_in_place$LT$syn..punctuated..Punctuated$LT$syn..ty..Type$C$syn..token..Comma$GT$$GT$17ha919b3114742fb9dE.llvm.11936935375936494365', symObjAddr: 0x67A0, symBinAddr: 0xDBB10, symSize: 0x120 }
  - { offsetInCU: 0x1A346, offset: 0x438039, size: 0x8, addend: 0x0, symName: '__ZN4core3ptr91drop_in_place$LT$syn..punctuated..Punctuated$LT$syn..expr..Expr$C$syn..token..Comma$GT$$GT$17h4f39b83dc86a4159E', symObjAddr: 0x68E0, symBinAddr: 0xDBC30, symSize: 0x120 }
  - { offsetInCU: 0x1A7A3, offset: 0x438496, size: 0x8, addend: 0x0, symName: '__ZN4core3ptr94drop_in_place$LT$syn..punctuated..Punctuated$LT$syn..pat..FieldPat$C$syn..token..Comma$GT$$GT$17h112950ea198c8281E', symObjAddr: 0x6A00, symBinAddr: 0xDBD50, symSize: 0xF0 }
  - { offsetInCU: 0x1AA6D, offset: 0x438760, size: 0x8, addend: 0x0, symName: '__ZN4core3ptr94drop_in_place$LT$syn..punctuated..Punctuated$LT$syn..ty..BareFnArg$C$syn..token..Comma$GT$$GT$17h1c7b44310f06243dE', symObjAddr: 0x6AF0, symBinAddr: 0xDBE40, symSize: 0xF0 }
  - { offsetInCU: 0x1AD37, offset: 0x438A2A, size: 0x8, addend: 0x0, symName: '__ZN4core3ptr96drop_in_place$LT$core..option..Option$LT$alloc..boxed..Box$LT$syn..path..PathSegment$GT$$GT$$GT$17hb447d0f626c86a4eE.llvm.11936935375936494365', symObjAddr: 0x6BE0, symBinAddr: 0xDBF30, symSize: 0x90 }
  - { offsetInCU: 0x1AFD8, offset: 0x438CCB, size: 0x8, addend: 0x0, symName: '__ZN4core3ptr97drop_in_place$LT$syn..punctuated..Punctuated$LT$syn..expr..FieldValue$C$syn..token..Comma$GT$$GT$17h31b81f7462228dcbE', symObjAddr: 0x6C70, symBinAddr: 0xDBFC0, symSize: 0xF0 }
  - { offsetInCU: 0x1B31E, offset: 0x439011, size: 0x8, addend: 0x0, symName: '__ZN4core3ptr98drop_in_place$LT$syn..punctuated..Punctuated$LT$syn..lifetime..Lifetime$C$syn..token..Plus$GT$$GT$17h0f8fc5f20f465f47E', symObjAddr: 0x6D60, symBinAddr: 0xDC0B0, symSize: 0xC0 }
  - { offsetInCU: 0x2139B, offset: 0x43F08E, size: 0x8, addend: 0x0, symName: '__ZN3syn4path8printing72_$LT$impl$u20$quote..to_tokens..ToTokens$u20$for$u20$syn..path..Path$GT$9to_tokens17hfb34523432ea271cE', symObjAddr: 0x9DB0, symBinAddr: 0xDE8A0, symSize: 0x70 }
  - { offsetInCU: 0x21645, offset: 0x43F338, size: 0x8, addend: 0x0, symName: '__ZN3syn4path8printing83_$LT$impl$u20$quote..to_tokens..ToTokens$u20$for$u20$syn..path..GenericArgument$GT$9to_tokens17h9a59d2d6bd262af6E', symObjAddr: 0x9F50, symBinAddr: 0xDE910, symSize: 0x240 }
  - { offsetInCU: 0x21C6D, offset: 0x43F960, size: 0x8, addend: 0x0, symName: '__ZN3syn4path8printing98_$LT$impl$u20$quote..to_tokens..ToTokens$u20$for$u20$syn..path..AngleBracketedGenericArguments$GT$9to_tokens17he4942a448a6b5094E', symObjAddr: 0xA190, symBinAddr: 0xDEB50, symSize: 0x200 }
  - { offsetInCU: 0x22428, offset: 0x44011B, size: 0x8, addend: 0x0, symName: '__ZN64_$LT$syn..path..Path$u20$as$u20$core..convert..From$LT$T$GT$$GT$4from17h27b9250e6fa6a0e9E', symObjAddr: 0x7310, symBinAddr: 0xDC170, symSize: 0xC0 }
  - { offsetInCU: 0x224CF, offset: 0x4401C2, size: 0x8, addend: 0x0, symName: '__ZN3syn4path7parsing63_$LT$impl$u20$syn..parse..Parse$u20$for$u20$syn..path..Path$GT$5parse17h64cc595f7a2ba5adE', symObjAddr: 0x77C0, symBinAddr: 0xDC340, symSize: 0x20 }
  - { offsetInCU: 0x22505, offset: 0x4401F8, size: 0x8, addend: 0x0, symName: '__ZN3syn4path7parsing74_$LT$impl$u20$syn..parse..Parse$u20$for$u20$syn..path..GenericArgument$GT$5parse17h65a40b108c2e8b8aE', symObjAddr: 0x77E0, symBinAddr: 0xDC360, symSize: 0xEE0 }
  - { offsetInCU: 0x23BBF, offset: 0x4418B2, size: 0x8, addend: 0x0, symName: '__ZN3syn4path7parsing89_$LT$impl$u20$syn..parse..Parse$u20$for$u20$syn..path..AngleBracketedGenericArguments$GT$5parse17hb7926999981a34ccE', symObjAddr: 0x8A60, symBinAddr: 0xDD570, symSize: 0xC0 }
  - { offsetInCU: 0x23DB0, offset: 0x441AA3, size: 0x8, addend: 0x0, symName: '__ZN3syn4path7parsing88_$LT$impl$u20$syn..parse..Parse$u20$for$u20$syn..path..ParenthesizedGenericArguments$GT$5parse17hfb5732c56514d24fE', symObjAddr: 0x8B20, symBinAddr: 0xDD630, symSize: 0x3B0 }
  - { offsetInCU: 0x2A4E1, offset: 0x4481D4, size: 0x8, addend: 0x0, symName: __ZN3syn4path4Path8is_ident17h134d0fe341c9f063E, symObjAddr: 0x73D0, symBinAddr: 0xDC230, symSize: 0x110 }
  - { offsetInCU: 0x2B085, offset: 0x448D78, size: 0x8, addend: 0x0, symName: '__ZN3syn4path7parsing59_$LT$impl$u20$syn..path..AngleBracketedGenericArguments$GT$8do_parse17hb08d246db2c3708aE.llvm.11936935375936494365', symObjAddr: 0x8730, symBinAddr: 0xDD240, symSize: 0x330 }
  - { offsetInCU: 0x2B951, offset: 0x449644, size: 0x8, addend: 0x0, symName: '__ZN3syn4path7parsing40_$LT$impl$u20$syn..path..PathSegment$GT$12parse_helper17h9184466aa9fa491fE', symObjAddr: 0x8EF0, symBinAddr: 0xDD9E0, symSize: 0x380 }
  - { offsetInCU: 0x2C4D0, offset: 0x44A1C3, size: 0x8, addend: 0x0, symName: '__ZN3syn4path7parsing33_$LT$impl$u20$syn..path..Path$GT$15parse_mod_style17ha248aba2a7f4b234E', symObjAddr: 0x9270, symBinAddr: 0xDDD60, symSize: 0x420 }
  - { offsetInCU: 0x2CE5D, offset: 0x44AB50, size: 0x8, addend: 0x0, symName: '__ZN3syn4path7parsing33_$LT$impl$u20$syn..path..Path$GT$12parse_helper17h93c4dc222d1465d8E', symObjAddr: 0x9690, symBinAddr: 0xDE180, symSize: 0x310 }
  - { offsetInCU: 0x2D23A, offset: 0x44AF2D, size: 0x8, addend: 0x0, symName: '__ZN3syn4path7parsing33_$LT$impl$u20$syn..path..Path$GT$10parse_rest17h674b45704d8e502eE', symObjAddr: 0x99A0, symBinAddr: 0xDE490, symSize: 0x370 }
  - { offsetInCU: 0x2D8AC, offset: 0x44B59F, size: 0x8, addend: 0x0, symName: '__ZN3syn4path7parsing33_$LT$impl$u20$syn..path..Path$GT$12is_mod_style17hb0190b672a8d9ee2E', symObjAddr: 0x9D10, symBinAddr: 0xDE800, symSize: 0xA0 }
  - { offsetInCU: 0x1E, offset: 0x450A8D, size: 0x8, addend: 0x0, symName: '__ZN4core3fmt3num52_$LT$impl$u20$core..fmt..Debug$u20$for$u20$usize$GT$3fmt17h05928cb6857c498fE', symObjAddr: 0x0, symBinAddr: 0xDED50, symSize: 0x30 }
  - { offsetInCU: 0x6B, offset: 0x450ADA, size: 0x8, addend: 0x0, symName: '__ZN64_$LT$alloc..ffi..c_str..NulError$u20$as$u20$core..fmt..Debug$GT$3fmt17h27eb6f0aef87a2a7E', symObjAddr: 0xA0, symBinAddr: 0xDEDF0, symSize: 0x50 }
  - { offsetInCU: 0x633, offset: 0x4510A2, size: 0x8, addend: 0x0, symName: '__ZN65_$LT$alloc..string..FromUtf8Error$u20$as$u20$core..fmt..Debug$GT$3fmt17h7e8b2a6ae2113c0eE', symObjAddr: 0xF0, symBinAddr: 0xDEE40, symSize: 0x70 }
  - { offsetInCU: 0x131E, offset: 0x451D8D, size: 0x8, addend: 0x0, symName: '__ZN4core3ptr26drop_in_place$LT$usize$GT$17h589ee933aeb38d3fE', symObjAddr: 0x30, symBinAddr: 0xDED80, symSize: 0x10 }
  - { offsetInCU: 0x1369, offset: 0x451DD8, size: 0x8, addend: 0x0, symName: '__ZN4core3ptr46drop_in_place$LT$alloc..vec..Vec$LT$u8$GT$$GT$17hc2907af9838bcdd1E', symObjAddr: 0x40, symBinAddr: 0xDED90, symSize: 0x20 }
  - { offsetInCU: 0x1472, offset: 0x451EE1, size: 0x8, addend: 0x0, symName: '__ZN4core3ptr48drop_in_place$LT$alloc..ffi..c_str..NulError$GT$17h1aea77be2d5835acE', symObjAddr: 0x60, symBinAddr: 0xDEDB0, symSize: 0x20 }
  - { offsetInCU: 0x157B, offset: 0x451FEA, size: 0x8, addend: 0x0, symName: '__ZN4core3ptr49drop_in_place$LT$alloc..string..FromUtf8Error$GT$17h2fbc0159c498e595E', symObjAddr: 0x80, symBinAddr: 0xDEDD0, symSize: 0x20 }
  - { offsetInCU: 0x3103, offset: 0x453B72, size: 0x8, addend: 0x0, symName: '__ZN4core3fmt3num52_$LT$impl$u20$core..fmt..Debug$u20$for$u20$usize$GT$3fmt17h05928cb6857c498fE', symObjAddr: 0x0, symBinAddr: 0xDED50, symSize: 0x30 }
  - { offsetInCU: 0x4694, offset: 0x455103, size: 0x8, addend: 0x0, symName: __ZN3syn3lit5value13parse_lit_str17h3c5d218175e31e78E, symObjAddr: 0x180, symBinAddr: 0xDEEB0, symSize: 0x8C0 }
  - { offsetInCU: 0x5B55, offset: 0x4565C4, size: 0x8, addend: 0x0, symName: __ZN3syn3lit5value17parse_lit_str_raw17h168cf9b36ed3dcafE, symObjAddr: 0xA40, symBinAddr: 0xDF770, symSize: 0x390 }
  - { offsetInCU: 0x6A79, offset: 0x4574E8, size: 0x8, addend: 0x0, symName: __ZN3syn3lit5value18parse_lit_byte_str17h114ea87e1e5530f9E, symObjAddr: 0xDD0, symBinAddr: 0xDFB00, symSize: 0x5F0 }
  - { offsetInCU: 0x7C18, offset: 0x458687, size: 0x8, addend: 0x0, symName: __ZN3syn3lit5value15parse_lit_c_str17h2e23f382676eb89fE, symObjAddr: 0x13C0, symBinAddr: 0xE00F0, symSize: 0xDC0 }
  - { offsetInCU: 0x974C, offset: 0x45A1BB, size: 0x8, addend: 0x0, symName: __ZN3syn3lit5value14parse_lit_byte17h8368b76f54c902edE, symObjAddr: 0x2180, symBinAddr: 0xE0EB0, symSize: 0x360 }
  - { offsetInCU: 0xA11C, offset: 0x45AB8B, size: 0x8, addend: 0x0, symName: __ZN3syn3lit5value14parse_lit_char17h4662affc67fe4c35E, symObjAddr: 0x24E0, symBinAddr: 0xE1210, symSize: 0x540 }
  - { offsetInCU: 0xAB89, offset: 0x45B5F8, size: 0x8, addend: 0x0, symName: __ZN3syn3lit5value11backslash_x17h6af15b4541eecc81E, symObjAddr: 0x2A20, symBinAddr: 0xE1750, symSize: 0x140 }
  - { offsetInCU: 0xADAE, offset: 0x45B81D, size: 0x8, addend: 0x0, symName: __ZN3syn3lit5value11backslash_x17hc9cdb612cbcee4eaE, symObjAddr: 0x2B60, symBinAddr: 0xE1890, symSize: 0x160 }
  - { offsetInCU: 0xAFC4, offset: 0x45BA33, size: 0x8, addend: 0x0, symName: __ZN3syn3lit5value11backslash_u17h55bb2c22887e188dE, symObjAddr: 0x2CC0, symBinAddr: 0xE19F0, symSize: 0x320 }
  - { offsetInCU: 0xB6C5, offset: 0x45C134, size: 0x8, addend: 0x0, symName: __ZN3syn3lit5value13parse_lit_int17h099083565c080e1fE, symObjAddr: 0x2FE0, symBinAddr: 0xE1D10, symSize: 0x640 }
  - { offsetInCU: 0xCB2B, offset: 0x45D59A, size: 0x8, addend: 0x0, symName: __ZN3syn3lit5value15parse_lit_float17h1ae5183bffb9d56bE, symObjAddr: 0x3620, symBinAddr: 0xE2350, symSize: 0x760 }
  - { offsetInCU: 0xDDA0, offset: 0x45E80F, size: 0x8, addend: 0x0, symName: __ZN3syn3lit5value11backslash_u18panic_cold_display17h739e2f3538fc20ddE, symObjAddr: 0x3D80, symBinAddr: 0x1C6E60, symSize: 0x59 }
  - { offsetInCU: 0x1E, offset: 0x4602D3, size: 0x8, addend: 0x0, symName: __ZN4core3ops8function6FnOnce9call_once17h74ffd67680f50378E, symObjAddr: 0x0, symBinAddr: 0xE2AB0, symSize: 0x140 }
  - { offsetInCU: 0x17C9, offset: 0x461A7E, size: 0x8, addend: 0x0, symName: '__ZN4core3ptr100drop_in_place$LT$core..option..Option$LT$alloc..boxed..Box$LT$syn..path..GenericArgument$GT$$GT$$GT$17h7435c9de74860622E', symObjAddr: 0x140, symBinAddr: 0xE2BF0, symSize: 0x50 }
  - { offsetInCU: 0x1B69, offset: 0x461E1E, size: 0x8, addend: 0x0, symName: '__ZN4core3ptr100drop_in_place$LT$syn..punctuated..Punctuated$LT$syn..path..PathSegment$C$syn..token..PathSep$GT$$GT$17hf414cb3581f8337aE', symObjAddr: 0x190, symBinAddr: 0xE2C40, symSize: 0x260 }
  - { offsetInCU: 0x24E3, offset: 0x462798, size: 0x8, addend: 0x0, symName: '__ZN4core3ptr102drop_in_place$LT$syn..punctuated..Punctuated$LT$syn..path..GenericArgument$C$syn..token..Comma$GT$$GT$17h39496ba4e6dba6cfE', symObjAddr: 0x3F0, symBinAddr: 0xE2EA0, symSize: 0xF0 }
  - { offsetInCU: 0x27CC, offset: 0x462A81, size: 0x8, addend: 0x0, symName: '__ZN4core3ptr103drop_in_place$LT$core..option..Option$LT$alloc..boxed..Box$LT$syn..generics..TypeParamBound$GT$$GT$$GT$17h5974f03e36b1a9c3E', symObjAddr: 0x4E0, symBinAddr: 0xE2F90, symSize: 0x50 }
  - { offsetInCU: 0x29D9, offset: 0x462C8E, size: 0x8, addend: 0x0, symName: '__ZN4core3ptr103drop_in_place$LT$syn..punctuated..Punctuated$LT$syn..generics..GenericParam$C$syn..token..Comma$GT$$GT$17hf42353fa44ed6da8E', symObjAddr: 0x530, symBinAddr: 0xE2FE0, symSize: 0xF0 }
  - { offsetInCU: 0x2EBB, offset: 0x463170, size: 0x8, addend: 0x0, symName: '__ZN4core3ptr104drop_in_place$LT$syn..punctuated..Punctuated$LT$syn..generics..TypeParamBound$C$syn..token..Plus$GT$$GT$17h532f52c4a894b056E', symObjAddr: 0x620, symBinAddr: 0xE30D0, symSize: 0x230 }
  - { offsetInCU: 0x3799, offset: 0x463A4E, size: 0x8, addend: 0x0, symName: '__ZN4core3ptr34drop_in_place$LT$syn..lit..Lit$GT$17h8902f5ff67917034E', symObjAddr: 0x850, symBinAddr: 0xE3300, symSize: 0x110 }
  - { offsetInCU: 0x3CD3, offset: 0x463F88, size: 0x8, addend: 0x0, symName: '__ZN4core3ptr34drop_in_place$LT$syn..pat..Pat$GT$17h4581eea028ec0969E.llvm.6604562245513491834', symObjAddr: 0x960, symBinAddr: 0xE3410, symSize: 0x1000 }
  - { offsetInCU: 0x77F8, offset: 0x467AAD, size: 0x8, addend: 0x0, symName: '__ZN4core3ptr34drop_in_place$LT$syn..ty..Type$GT$17h369e41ad4a9f1ae0E', symObjAddr: 0x1960, symBinAddr: 0xE4410, symSize: 0x460 }
  - { offsetInCU: 0x8A8A, offset: 0x468D3F, size: 0x8, addend: 0x0, symName: '__ZN4core3ptr36drop_in_place$LT$syn..expr..Expr$GT$17h0f7fd4c749bae801E', symObjAddr: 0x1DC0, symBinAddr: 0xE4870, symSize: 0x2770 }
  - { offsetInCU: 0x119BC, offset: 0x471C71, size: 0x8, addend: 0x0, symName: '__ZN4core3ptr36drop_in_place$LT$syn..mac..Macro$GT$17h4ffde962df30ebe2E', symObjAddr: 0x4530, symBinAddr: 0xE6FE0, symSize: 0x40 }
  - { offsetInCU: 0x119F6, offset: 0x471CAB, size: 0x8, addend: 0x0, symName: '__ZN4core3ptr36drop_in_place$LT$syn..path..Path$GT$17habea856181211e1cE', symObjAddr: 0x4570, symBinAddr: 0xE7020, symSize: 0x220 }
  - { offsetInCU: 0x1232B, offset: 0x4725E0, size: 0x8, addend: 0x0, symName: '__ZN4core3ptr37drop_in_place$LT$syn..stmt..Block$GT$17hcc21a21cf949414cE', symObjAddr: 0x4790, symBinAddr: 0xE7240, symSize: 0xD0 }
  - { offsetInCU: 0x125CF, offset: 0x472884, size: 0x8, addend: 0x0, symName: '__ZN4core3ptr38drop_in_place$LT$syn..expr..Member$GT$17h022cbe5553aa40faE', symObjAddr: 0x4860, symBinAddr: 0xE7310, symSize: 0x30 }
  - { offsetInCU: 0x126CC, offset: 0x472981, size: 0x8, addend: 0x0, symName: '__ZN4core3ptr39drop_in_place$LT$proc_macro2..Ident$GT$17h8101e88c3ac359d6E', symObjAddr: 0x4890, symBinAddr: 0xE7340, symSize: 0x30 }
  - { offsetInCU: 0x127AA, offset: 0x472A5F, size: 0x8, addend: 0x0, symName: '__ZN4core3ptr40drop_in_place$LT$syn..ty..ReturnType$GT$17h02cf41e2fec63d90E', symObjAddr: 0x48C0, symBinAddr: 0xE7370, symSize: 0x50 }
  - { offsetInCU: 0x1291C, offset: 0x472BD1, size: 0x8, addend: 0x0, symName: '__ZN4core3ptr41drop_in_place$LT$syn..expr..ExprConst$GT$17h725a13e551d9f276E', symObjAddr: 0x4910, symBinAddr: 0xE73C0, symSize: 0x180 }
  - { offsetInCU: 0x12E71, offset: 0x473126, size: 0x8, addend: 0x0, symName: '__ZN4core3ptr41drop_in_place$LT$syn..expr..ExprRange$GT$17h438536f001486768E', symObjAddr: 0x4A90, symBinAddr: 0xE7540, symSize: 0x160 }
  - { offsetInCU: 0x133E2, offset: 0x473697, size: 0x8, addend: 0x0, symName: '__ZN4core3ptr44drop_in_place$LT$syn..lifetime..Lifetime$GT$17hf0cdec2e9ec456d6E', symObjAddr: 0x4BF0, symBinAddr: 0xE76A0, symSize: 0x30 }
  - { offsetInCU: 0x1355B, offset: 0x473810, size: 0x8, addend: 0x0, symName: '__ZN4core3ptr44drop_in_place$LT$syn..parse..ParseBuffer$GT$17hd0dadba44a19aec2E.llvm.6604562245513491834', symObjAddr: 0x4C20, symBinAddr: 0xE76D0, symSize: 0x70 }
  - { offsetInCU: 0x13990, offset: 0x473C45, size: 0x8, addend: 0x0, symName: '__ZN4core3ptr45drop_in_place$LT$proc_macro2..TokenStream$GT$17h3405f6c513e9f6cbE', symObjAddr: 0x4C90, symBinAddr: 0xE7740, symSize: 0x140 }
  - { offsetInCU: 0x13DFF, offset: 0x4740B4, size: 0x8, addend: 0x0, symName: '__ZN4core3ptr45drop_in_place$LT$syn..generics..TypeParam$GT$17he5eda51070b7de47E', symObjAddr: 0x4DD0, symBinAddr: 0xE7880, symSize: 0x230 }
  - { offsetInCU: 0x145FB, offset: 0x4748B0, size: 0x8, addend: 0x0, symName: '__ZN4core3ptr46drop_in_place$LT$syn..generics..ConstParam$GT$17hab0a58c4af8c549cE', symObjAddr: 0x5000, symBinAddr: 0xE7AB0, symSize: 0x150 }
  - { offsetInCU: 0x14A25, offset: 0x474CDA, size: 0x8, addend: 0x0, symName: '__ZN4core3ptr47drop_in_place$LT$syn..path..GenericArgument$GT$17h54f8794633f96823E', symObjAddr: 0x5150, symBinAddr: 0xE7C00, symSize: 0x460 }
  - { offsetInCU: 0x1572E, offset: 0x4759E3, size: 0x8, addend: 0x0, symName: '__ZN4core3ptr49drop_in_place$LT$syn..generics..LifetimeParam$GT$17h41a7c7a290ea6289E', symObjAddr: 0x55B0, symBinAddr: 0xE8060, symSize: 0xF0 }
  - { offsetInCU: 0x15AE8, offset: 0x475D9D, size: 0x8, addend: 0x0, symName: '__ZN4core3ptr50drop_in_place$LT$syn..generics..TypeParamBound$GT$17hcd7771d4c6c221efE', symObjAddr: 0x56A0, symBinAddr: 0xE8150, symSize: 0xA0 }
  - { offsetInCU: 0x15C4F, offset: 0x475F04, size: 0x8, addend: 0x0, symName: '__ZN4core3ptr53drop_in_place$LT$syn..pat..parsing..PatRangeBound$GT$17hcc6099fc140c1b73E', symObjAddr: 0x5740, symBinAddr: 0xE81F0, symSize: 0x210 }
  - { offsetInCU: 0x163E2, offset: 0x476697, size: 0x8, addend: 0x0, symName: '__ZN4core3ptr58drop_in_place$LT$alloc..vec..Vec$LT$syn..expr..Arm$GT$$GT$17h1a55df3d2cba1daaE', symObjAddr: 0x5950, symBinAddr: 0xE8400, symSize: 0xD0 }
  - { offsetInCU: 0x1666F, offset: 0x476924, size: 0x8, addend: 0x0, symName: '__ZN4core3ptr59drop_in_place$LT$alloc..boxed..Box$LT$syn..pat..Pat$GT$$GT$17h563b135d87aca8abE', symObjAddr: 0x5A20, symBinAddr: 0xE84D0, symSize: 0x50 }
  - { offsetInCU: 0x167CA, offset: 0x476A7F, size: 0x8, addend: 0x0, symName: '__ZN4core3ptr59drop_in_place$LT$alloc..boxed..Box$LT$syn..ty..Type$GT$$GT$17hffed36bad83adacbE', symObjAddr: 0x5A70, symBinAddr: 0xE8520, symSize: 0x50 }
  - { offsetInCU: 0x16925, offset: 0x476BDA, size: 0x8, addend: 0x0, symName: '__ZN4core3ptr61drop_in_place$LT$alloc..boxed..Box$LT$syn..expr..Expr$GT$$GT$17h01091e47f131475dE', symObjAddr: 0x5AC0, symBinAddr: 0xE8570, symSize: 0x50 }
  - { offsetInCU: 0x16AFC, offset: 0x476DB1, size: 0x8, addend: 0x0, symName: '__ZN4core3ptr61drop_in_place$LT$syn..path..ParenthesizedGenericArguments$GT$17h43d4aac5494326a7E', symObjAddr: 0x5B10, symBinAddr: 0xE85C0, symSize: 0x170 }
  - { offsetInCU: 0x170C3, offset: 0x477378, size: 0x8, addend: 0x0, symName: '__ZN4core3ptr63drop_in_place$LT$alloc..boxed..Box$LT$syn..lit..LitRepr$GT$$GT$17hd8839b7fb35ee7afE', symObjAddr: 0x5C80, symBinAddr: 0xE8730, symSize: 0x60 }
  - { offsetInCU: 0x173B8, offset: 0x47766D, size: 0x8, addend: 0x0, symName: '__ZN4core3ptr64drop_in_place$LT$alloc..boxed..Box$LT$syn..pat..FieldPat$GT$$GT$17h4980b70a7597cc08E', symObjAddr: 0x5CE0, symBinAddr: 0xE8790, symSize: 0x140 }
  - { offsetInCU: 0x17A63, offset: 0x477D18, size: 0x8, addend: 0x0, symName: '__ZN4core3ptr64drop_in_place$LT$alloc..boxed..Box$LT$syn..ty..BareFnArg$GT$$GT$17h8b34096c620314efE', symObjAddr: 0x5E20, symBinAddr: 0xE88D0, symSize: 0x140 }
  - { offsetInCU: 0x17F87, offset: 0x47823C, size: 0x8, addend: 0x0, symName: '__ZN4core3ptr64drop_in_place$LT$alloc..vec..Vec$LT$syn..attr..Attribute$GT$$GT$17h3c8f2a04e701c675E.llvm.6604562245513491834', symObjAddr: 0x5F60, symBinAddr: 0xE8A10, symSize: 0xD0 }
  - { offsetInCU: 0x18214, offset: 0x4784C9, size: 0x8, addend: 0x0, symName: '__ZN4core3ptr65drop_in_place$LT$core..option..Option$LT$syn..expr..Label$GT$$GT$17h78189e72a8cb7951E', symObjAddr: 0x6030, symBinAddr: 0xE8AE0, symSize: 0x30 }
  - { offsetInCU: 0x1834F, offset: 0x478604, size: 0x8, addend: 0x0, symName: '__ZN4core3ptr65drop_in_place$LT$core..option..Option$LT$syn..path..QSelf$GT$$GT$17h9b72552ca06b7379E', symObjAddr: 0x6060, symBinAddr: 0xE8B10, symSize: 0x50 }
  - { offsetInCU: 0x184D2, offset: 0x478787, size: 0x8, addend: 0x0, symName: '__ZN4core3ptr66drop_in_place$LT$core..option..Option$LT$syn..pat..PatRest$GT$$GT$17h61677cf4ff3a7393E', symObjAddr: 0x60B0, symBinAddr: 0xE8B60, symSize: 0xE0 }
  - { offsetInCU: 0x18756, offset: 0x478A0B, size: 0x8, addend: 0x0, symName: '__ZN4core3ptr67drop_in_place$LT$alloc..boxed..Box$LT$syn..expr..FieldValue$GT$$GT$17h93aaccf8aa22ef88E', symObjAddr: 0x6190, symBinAddr: 0xE8C40, symSize: 0x140 }
  - { offsetInCU: 0x18C5A, offset: 0x478F0F, size: 0x8, addend: 0x0, symName: '__ZN4core3ptr68drop_in_place$LT$alloc..boxed..Box$LT$syn..path..PathSegment$GT$$GT$17h709dabdc13b58a71E', symObjAddr: 0x62D0, symBinAddr: 0xE8D80, symSize: 0x190 }
  - { offsetInCU: 0x19338, offset: 0x4795ED, size: 0x8, addend: 0x0, symName: '__ZN4core3ptr70drop_in_place$LT$core..option..Option$LT$syn..ty..BareVariadic$GT$$GT$17h45399348ea4b8d55E', symObjAddr: 0x6460, symBinAddr: 0xE8F10, symSize: 0x120 }
  - { offsetInCU: 0x19865, offset: 0x479B1A, size: 0x8, addend: 0x0, symName: '__ZN4core3ptr72drop_in_place$LT$alloc..boxed..Box$LT$syn..path..GenericArgument$GT$$GT$17haa7dd8b716637b54E', symObjAddr: 0x6580, symBinAddr: 0xE9030, symSize: 0x2B0 }
  - { offsetInCU: 0x1A250, offset: 0x47A505, size: 0x8, addend: 0x0, symName: '__ZN4core3ptr72drop_in_place$LT$core..option..Option$LT$syn..lifetime..Lifetime$GT$$GT$17hfc363ccdd8bd9c32E', symObjAddr: 0x6830, symBinAddr: 0xE92E0, symSize: 0x30 }
  - { offsetInCU: 0x1A36C, offset: 0x47A621, size: 0x8, addend: 0x0, symName: '__ZN4core3ptr73drop_in_place$LT$alloc..boxed..Box$LT$syn..generics..GenericParam$GT$$GT$17hf6951dcd5ae07324E', symObjAddr: 0x6860, symBinAddr: 0xE9310, symSize: 0x80 }
  - { offsetInCU: 0x1A4E4, offset: 0x47A799, size: 0x8, addend: 0x0, symName: '__ZN4core3ptr75drop_in_place$LT$alloc..boxed..Box$LT$syn..generics..TypeParamBound$GT$$GT$17he61c00698a311a34E', symObjAddr: 0x68E0, symBinAddr: 0xE9390, symSize: 0x160 }
  - { offsetInCU: 0x1AAAA, offset: 0x47AD5F, size: 0x8, addend: 0x0, symName: '__ZN4core3ptr86drop_in_place$LT$syn..punctuated..Punctuated$LT$syn..pat..Pat$C$syn..token..Or$GT$$GT$17h8e9173df21a44316E', symObjAddr: 0x6A40, symBinAddr: 0xE94F0, symSize: 0x120 }
  - { offsetInCU: 0x1AF07, offset: 0x47B1BC, size: 0x8, addend: 0x0, symName: '__ZN4core3ptr87drop_in_place$LT$core..option..Option$LT$alloc..boxed..Box$LT$syn..pat..Pat$GT$$GT$$GT$17hd7b7c69f601b3926E', symObjAddr: 0x6B60, symBinAddr: 0xE9610, symSize: 0x50 }
  - { offsetInCU: 0x1B079, offset: 0x47B32E, size: 0x8, addend: 0x0, symName: '__ZN4core3ptr87drop_in_place$LT$core..option..Option$LT$alloc..boxed..Box$LT$syn..ty..Type$GT$$GT$$GT$17hd74f5d971aec2972E', symObjAddr: 0x6BB0, symBinAddr: 0xE9660, symSize: 0x50 }
  - { offsetInCU: 0x1B1EB, offset: 0x47B4A0, size: 0x8, addend: 0x0, symName: '__ZN4core3ptr89drop_in_place$LT$core..option..Option$LT$alloc..boxed..Box$LT$syn..expr..Expr$GT$$GT$$GT$17h8e135ac1a25a2dc5E', symObjAddr: 0x6C00, symBinAddr: 0xE96B0, symSize: 0x50 }
  - { offsetInCU: 0x1B39B, offset: 0x47B650, size: 0x8, addend: 0x0, symName: '__ZN4core3ptr89drop_in_place$LT$syn..punctuated..Punctuated$LT$syn..pat..Pat$C$syn..token..Comma$GT$$GT$17h8d60e47f3fb1f87aE', symObjAddr: 0x6C50, symBinAddr: 0xE9700, symSize: 0x120 }
  - { offsetInCU: 0x1B7E1, offset: 0x47BA96, size: 0x8, addend: 0x0, symName: '__ZN4core3ptr89drop_in_place$LT$syn..punctuated..Punctuated$LT$syn..ty..Type$C$syn..token..Comma$GT$$GT$17ha919b3114742fb9dE', symObjAddr: 0x6D70, symBinAddr: 0xE9820, symSize: 0x120 }
  - { offsetInCU: 0x1BC69, offset: 0x47BF1E, size: 0x8, addend: 0x0, symName: '__ZN4core3ptr91drop_in_place$LT$syn..punctuated..Punctuated$LT$syn..expr..Expr$C$syn..token..Comma$GT$$GT$17h4f39b83dc86a4159E', symObjAddr: 0x6E90, symBinAddr: 0xE9940, symSize: 0x120 }
  - { offsetInCU: 0x1C0C6, offset: 0x47C37B, size: 0x8, addend: 0x0, symName: '__ZN4core3ptr94drop_in_place$LT$syn..punctuated..Punctuated$LT$syn..pat..FieldPat$C$syn..token..Comma$GT$$GT$17h112950ea198c8281E', symObjAddr: 0x6FB0, symBinAddr: 0xE9A60, symSize: 0xF0 }
  - { offsetInCU: 0x1C390, offset: 0x47C645, size: 0x8, addend: 0x0, symName: '__ZN4core3ptr94drop_in_place$LT$syn..punctuated..Punctuated$LT$syn..ty..BareFnArg$C$syn..token..Comma$GT$$GT$17h1c7b44310f06243dE', symObjAddr: 0x70A0, symBinAddr: 0xE9B50, symSize: 0xF0 }
  - { offsetInCU: 0x1C65A, offset: 0x47C90F, size: 0x8, addend: 0x0, symName: '__ZN4core3ptr96drop_in_place$LT$core..option..Option$LT$alloc..boxed..Box$LT$syn..path..PathSegment$GT$$GT$$GT$17hb447d0f626c86a4eE', symObjAddr: 0x7190, symBinAddr: 0xE9C40, symSize: 0x180 }
  - { offsetInCU: 0x1CCEB, offset: 0x47CFA0, size: 0x8, addend: 0x0, symName: '__ZN4core3ptr97drop_in_place$LT$syn..punctuated..Punctuated$LT$syn..expr..FieldValue$C$syn..token..Comma$GT$$GT$17h31b81f7462228dcbE', symObjAddr: 0x7310, symBinAddr: 0xE9DC0, symSize: 0xF0 }
  - { offsetInCU: 0x1D031, offset: 0x47D2E6, size: 0x8, addend: 0x0, symName: '__ZN4core3ptr98drop_in_place$LT$syn..punctuated..Punctuated$LT$syn..lifetime..Lifetime$C$syn..token..Plus$GT$$GT$17h0f8fc5f20f465f47E', symObjAddr: 0x7400, symBinAddr: 0xE9EB0, symSize: 0xC0 }
  - { offsetInCU: 0x211ED, offset: 0x4814A2, size: 0x8, addend: 0x0, symName: __ZN4core3ops8function6FnOnce9call_once17h74ffd67680f50378E, symObjAddr: 0x0, symBinAddr: 0xE2AB0, symSize: 0x140 }
  - { offsetInCU: 0x21B96, offset: 0x481E4B, size: 0x8, addend: 0x0, symName: __ZN3syn3pat7parsing14multi_pat_impl17h047667a96fb4a7f8E, symObjAddr: 0x74C0, symBinAddr: 0xE9F70, symSize: 0x410 }
  - { offsetInCU: 0x2255A, offset: 0x48280F, size: 0x8, addend: 0x0, symName: __ZN3syn3pat7parsing36pat_path_or_macro_or_struct_or_range17ha6b9b4e6671af2c5E, symObjAddr: 0x78D0, symBinAddr: 0xEA380, symSize: 0x2530 }
  - { offsetInCU: 0x26925, offset: 0x486BDA, size: 0x8, addend: 0x0, symName: __ZN3syn3pat7parsing8pat_wild17h3163b2cc2476a134E, symObjAddr: 0x9E00, symBinAddr: 0xEC8B0, symSize: 0xA0 }
  - { offsetInCU: 0x26A30, offset: 0x486CE5, size: 0x8, addend: 0x0, symName: __ZN3syn3pat7parsing7pat_box17h176f8a2e65bc6ac7E, symObjAddr: 0x9EA0, symBinAddr: 0xEC950, symSize: 0x220 }
  - { offsetInCU: 0x26D85, offset: 0x48703A, size: 0x8, addend: 0x0, symName: __ZN3syn3pat7parsing9pat_ident17h29c4fea1c82c143bE, symObjAddr: 0xA0C0, symBinAddr: 0xECB70, symSize: 0x5C0 }
  - { offsetInCU: 0x277A6, offset: 0x487A5B, size: 0x8, addend: 0x0, symName: __ZN3syn3pat7parsing19pat_range_half_open17h9918d3b6ea18cb21E, symObjAddr: 0xA680, symBinAddr: 0xED130, symSize: 0x380 }
  - { offsetInCU: 0x27B47, offset: 0x487DFC, size: 0x8, addend: 0x0, symName: __ZN3syn3pat7parsing18pat_paren_or_tuple17h5846a503fc9a892bE, symObjAddr: 0xAA00, symBinAddr: 0xED4B0, symSize: 0x680 }
  - { offsetInCU: 0x282D0, offset: 0x488585, size: 0x8, addend: 0x0, symName: __ZN3syn3pat7parsing13pat_reference17he9c12140d78c642fE, symObjAddr: 0xB080, symBinAddr: 0xEDB30, symSize: 0x2A0 }
  - { offsetInCU: 0x28680, offset: 0x488935, size: 0x8, addend: 0x0, symName: __ZN3syn3pat7parsing16pat_lit_or_range17h9d56a323b0b14005E, symObjAddr: 0xB320, symBinAddr: 0xEDDD0, symSize: 0x610 }
  - { offsetInCU: 0x28B56, offset: 0x488E0B, size: 0x8, addend: 0x0, symName: __ZN3syn3pat7parsing15pat_range_bound17ha07cbae00643b70eE, symObjAddr: 0xB930, symBinAddr: 0xEE3E0, symSize: 0x8D0 }
  - { offsetInCU: 0x2B320, offset: 0x48B5D5, size: 0x8, addend: 0x0, symName: __ZN3syn3pat7parsing9pat_slice17heed66f754c4e282eE, symObjAddr: 0xC200, symBinAddr: 0xEECB0, symSize: 0x720 }
  - { offsetInCU: 0x2BC1A, offset: 0x48BECF, size: 0x8, addend: 0x0, symName: __ZN3syn3pat7parsing9pat_const17ha05adebc1fdfb4e6E, symObjAddr: 0xC920, symBinAddr: 0xEF3D0, symSize: 0x55E }
  - { offsetInCU: 0x1E, offset: 0x49B521, size: 0x8, addend: 0x0, symName: '__ZN4core3ptr100drop_in_place$LT$core..option..Option$LT$alloc..boxed..Box$LT$syn..path..GenericArgument$GT$$GT$$GT$17h7435c9de74860622E', symObjAddr: 0x0, symBinAddr: 0xEF930, symSize: 0x50 }
  - { offsetInCU: 0x16A1, offset: 0x49CBA4, size: 0x8, addend: 0x0, symName: '__ZN4core3ptr100drop_in_place$LT$core..option..Option$LT$alloc..boxed..Box$LT$syn..path..GenericArgument$GT$$GT$$GT$17h7435c9de74860622E', symObjAddr: 0x0, symBinAddr: 0xEF930, symSize: 0x50 }
  - { offsetInCU: 0x192A, offset: 0x49CE2D, size: 0x8, addend: 0x0, symName: '__ZN4core3ptr100drop_in_place$LT$syn..punctuated..Punctuated$LT$syn..path..PathSegment$C$syn..token..PathSep$GT$$GT$17hf414cb3581f8337aE', symObjAddr: 0x50, symBinAddr: 0xEF980, symSize: 0x140 }
  - { offsetInCU: 0x1E5E, offset: 0x49D361, size: 0x8, addend: 0x0, symName: '__ZN4core3ptr103drop_in_place$LT$core..option..Option$LT$alloc..boxed..Box$LT$syn..generics..TypeParamBound$GT$$GT$$GT$17h5974f03e36b1a9c3E', symObjAddr: 0x190, symBinAddr: 0xEFAC0, symSize: 0x50 }
  - { offsetInCU: 0x206B, offset: 0x49D56E, size: 0x8, addend: 0x0, symName: '__ZN4core3ptr103drop_in_place$LT$syn..punctuated..Punctuated$LT$syn..generics..GenericParam$C$syn..token..Comma$GT$$GT$17hf42353fa44ed6da8E', symObjAddr: 0x1E0, symBinAddr: 0xEFB10, symSize: 0xF0 }
  - { offsetInCU: 0x254D, offset: 0x49DA50, size: 0x8, addend: 0x0, symName: '__ZN4core3ptr104drop_in_place$LT$syn..punctuated..Punctuated$LT$syn..generics..TypeParamBound$C$syn..token..Plus$GT$$GT$17h532f52c4a894b056E', symObjAddr: 0x2D0, symBinAddr: 0xEFC00, symSize: 0x230 }
  - { offsetInCU: 0x2E2B, offset: 0x49E32E, size: 0x8, addend: 0x0, symName: '__ZN4core3ptr34drop_in_place$LT$syn..lit..Lit$GT$17h8902f5ff67917034E', symObjAddr: 0x500, symBinAddr: 0xEFE30, symSize: 0x110 }
  - { offsetInCU: 0x3384, offset: 0x49E887, size: 0x8, addend: 0x0, symName: '__ZN4core3ptr34drop_in_place$LT$syn..pat..Pat$GT$17h4581eea028ec0969E', symObjAddr: 0x610, symBinAddr: 0xEFF40, symSize: 0x1000 }
  - { offsetInCU: 0x6D54, offset: 0x4A2257, size: 0x8, addend: 0x0, symName: '__ZN4core3ptr34drop_in_place$LT$syn..ty..Type$GT$17h369e41ad4a9f1ae0E', symObjAddr: 0x1610, symBinAddr: 0xF0F40, symSize: 0x340 }
  - { offsetInCU: 0x7C41, offset: 0x4A3144, size: 0x8, addend: 0x0, symName: '__ZN4core3ptr36drop_in_place$LT$syn..expr..Expr$GT$17h0f7fd4c749bae801E', symObjAddr: 0x1950, symBinAddr: 0xF1280, symSize: 0x28E0 }
  - { offsetInCU: 0x110D3, offset: 0x4AC5D6, size: 0x8, addend: 0x0, symName: '__ZN4core3ptr36drop_in_place$LT$syn..mac..Macro$GT$17h4ffde962df30ebe2E', symObjAddr: 0x4230, symBinAddr: 0xF3B60, symSize: 0x40 }
  - { offsetInCU: 0x11189, offset: 0x4AC68C, size: 0x8, addend: 0x0, symName: '__ZN4core3ptr36drop_in_place$LT$syn..path..Path$GT$17habea856181211e1cE', symObjAddr: 0x4270, symBinAddr: 0xF3BA0, symSize: 0x220 }
  - { offsetInCU: 0x11ABE, offset: 0x4ACFC1, size: 0x8, addend: 0x0, symName: '__ZN4core3ptr37drop_in_place$LT$syn..stmt..Block$GT$17hcc21a21cf949414cE', symObjAddr: 0x4490, symBinAddr: 0xF3DC0, symSize: 0xD0 }
  - { offsetInCU: 0x11D62, offset: 0x4AD265, size: 0x8, addend: 0x0, symName: '__ZN4core3ptr38drop_in_place$LT$syn..expr..Member$GT$17h022cbe5553aa40faE', symObjAddr: 0x4560, symBinAddr: 0xF3E90, symSize: 0x30 }
  - { offsetInCU: 0x11E5F, offset: 0x4AD362, size: 0x8, addend: 0x0, symName: '__ZN4core3ptr38drop_in_place$LT$syn..ty..TypePath$GT$17he8f590b78af8d8f3E', symObjAddr: 0x4590, symBinAddr: 0xF3EC0, symSize: 0x80 }
  - { offsetInCU: 0x11FDE, offset: 0x4AD4E1, size: 0x8, addend: 0x0, symName: '__ZN4core3ptr39drop_in_place$LT$proc_macro2..Ident$GT$17h8101e88c3ac359d6E', symObjAddr: 0x4610, symBinAddr: 0xF3F40, symSize: 0x30 }
  - { offsetInCU: 0x120FA, offset: 0x4AD5FD, size: 0x8, addend: 0x0, symName: '__ZN4core3ptr39drop_in_place$LT$syn..ty..BareFnArg$GT$17hac0a1b8fd6f7ad3cE', symObjAddr: 0x4640, symBinAddr: 0xF3F70, symSize: 0x110 }
  - { offsetInCU: 0x124C6, offset: 0x4AD9C9, size: 0x8, addend: 0x0, symName: '__ZN4core3ptr40drop_in_place$LT$syn..ty..ReturnType$GT$17h02cf41e2fec63d90E', symObjAddr: 0x4750, symBinAddr: 0xF4080, symSize: 0x50 }
  - { offsetInCU: 0x1278D, offset: 0x4ADC90, size: 0x8, addend: 0x0, symName: '__ZN4core3ptr40drop_in_place$LT$syn..ty..TypeBareFn$GT$17h6adb001e6a03e7b0E', symObjAddr: 0x47A0, symBinAddr: 0xF40D0, symSize: 0x220 }
  - { offsetInCU: 0x130DF, offset: 0x4AE5E2, size: 0x8, addend: 0x0, symName: '__ZN4core3ptr41drop_in_place$LT$syn..expr..ExprConst$GT$17h725a13e551d9f276E', symObjAddr: 0x49C0, symBinAddr: 0xF42F0, symSize: 0x180 }
  - { offsetInCU: 0x13634, offset: 0x4AEB37, size: 0x8, addend: 0x0, symName: '__ZN4core3ptr44drop_in_place$LT$syn..lifetime..Lifetime$GT$17hf0cdec2e9ec456d6E', symObjAddr: 0x4B40, symBinAddr: 0xF4470, symSize: 0x30 }
  - { offsetInCU: 0x137AD, offset: 0x4AECB0, size: 0x8, addend: 0x0, symName: '__ZN4core3ptr44drop_in_place$LT$syn..parse..ParseBuffer$GT$17hd0dadba44a19aec2E', symObjAddr: 0x4B70, symBinAddr: 0xF44A0, symSize: 0x70 }
  - { offsetInCU: 0x13BE2, offset: 0x4AF0E5, size: 0x8, addend: 0x0, symName: '__ZN4core3ptr45drop_in_place$LT$proc_macro2..TokenStream$GT$17h3405f6c513e9f6cbE', symObjAddr: 0x4BE0, symBinAddr: 0xF4510, symSize: 0x140 }
  - { offsetInCU: 0x14051, offset: 0x4AF554, size: 0x8, addend: 0x0, symName: '__ZN4core3ptr45drop_in_place$LT$syn..generics..TypeParam$GT$17he5eda51070b7de47E', symObjAddr: 0x4D20, symBinAddr: 0xF4650, symSize: 0x230 }
  - { offsetInCU: 0x1484D, offset: 0x4AFD50, size: 0x8, addend: 0x0, symName: '__ZN4core3ptr45drop_in_place$LT$syn..path..PathArguments$GT$17h7160021b3fdea550E', symObjAddr: 0x4F50, symBinAddr: 0xF4880, symSize: 0x170 }
  - { offsetInCU: 0x14CEA, offset: 0x4B01ED, size: 0x8, addend: 0x0, symName: '__ZN4core3ptr46drop_in_place$LT$syn..generics..ConstParam$GT$17hab0a58c4af8c549cE', symObjAddr: 0x50C0, symBinAddr: 0xF49F0, symSize: 0x150 }
  - { offsetInCU: 0x15114, offset: 0x4B0617, size: 0x8, addend: 0x0, symName: '__ZN4core3ptr47drop_in_place$LT$syn..path..GenericArgument$GT$17h54f8794633f96823E', symObjAddr: 0x5210, symBinAddr: 0xF4B40, symSize: 0x4A0 }
  - { offsetInCU: 0x161BB, offset: 0x4B16BE, size: 0x8, addend: 0x0, symName: '__ZN4core3ptr49drop_in_place$LT$syn..generics..LifetimeParam$GT$17h41a7c7a290ea6289E', symObjAddr: 0x56B0, symBinAddr: 0xF4FE0, symSize: 0xF0 }
  - { offsetInCU: 0x16575, offset: 0x4B1A78, size: 0x8, addend: 0x0, symName: '__ZN4core3ptr50drop_in_place$LT$syn..generics..TypeParamBound$GT$17hcd7771d4c6c221efE', symObjAddr: 0x57A0, symBinAddr: 0xF50D0, symSize: 0xA0 }
  - { offsetInCU: 0x166DC, offset: 0x4B1BDF, size: 0x8, addend: 0x0, symName: '__ZN4core3ptr58drop_in_place$LT$alloc..vec..Vec$LT$syn..expr..Arm$GT$$GT$17h1a55df3d2cba1daaE', symObjAddr: 0x5840, symBinAddr: 0xF5170, symSize: 0xD0 }
  - { offsetInCU: 0x16969, offset: 0x4B1E6C, size: 0x8, addend: 0x0, symName: '__ZN4core3ptr59drop_in_place$LT$alloc..boxed..Box$LT$syn..pat..Pat$GT$$GT$17h563b135d87aca8abE', symObjAddr: 0x5910, symBinAddr: 0xF5240, symSize: 0x50 }
  - { offsetInCU: 0x16AC4, offset: 0x4B1FC7, size: 0x8, addend: 0x0, symName: '__ZN4core3ptr59drop_in_place$LT$alloc..boxed..Box$LT$syn..ty..Type$GT$$GT$17hffed36bad83adacbE', symObjAddr: 0x5960, symBinAddr: 0xF5290, symSize: 0x50 }
  - { offsetInCU: 0x16C1F, offset: 0x4B2122, size: 0x8, addend: 0x0, symName: '__ZN4core3ptr61drop_in_place$LT$alloc..boxed..Box$LT$syn..expr..Expr$GT$$GT$17h01091e47f131475dE', symObjAddr: 0x59B0, symBinAddr: 0xF52E0, symSize: 0x50 }
  - { offsetInCU: 0x16DF6, offset: 0x4B22F9, size: 0x8, addend: 0x0, symName: '__ZN4core3ptr61drop_in_place$LT$syn..path..ParenthesizedGenericArguments$GT$17h43d4aac5494326a7E', symObjAddr: 0x5A00, symBinAddr: 0xF5330, symSize: 0x170 }
  - { offsetInCU: 0x173BD, offset: 0x4B28C0, size: 0x8, addend: 0x0, symName: '__ZN4core3ptr62drop_in_place$LT$syn..path..AngleBracketedGenericArguments$GT$17hc5b69f68243636ddE', symObjAddr: 0x5B70, symBinAddr: 0xF54A0, symSize: 0x120 }
  - { offsetInCU: 0x177D3, offset: 0x4B2CD6, size: 0x8, addend: 0x0, symName: '__ZN4core3ptr63drop_in_place$LT$alloc..boxed..Box$LT$syn..lit..LitRepr$GT$$GT$17hd8839b7fb35ee7afE', symObjAddr: 0x5C90, symBinAddr: 0xF55C0, symSize: 0x60 }
  - { offsetInCU: 0x17AC8, offset: 0x4B2FCB, size: 0x8, addend: 0x0, symName: '__ZN4core3ptr64drop_in_place$LT$alloc..boxed..Box$LT$syn..pat..FieldPat$GT$$GT$17h4980b70a7597cc08E', symObjAddr: 0x5CF0, symBinAddr: 0xF5620, symSize: 0x140 }
  - { offsetInCU: 0x18135, offset: 0x4B3638, size: 0x8, addend: 0x0, symName: '__ZN4core3ptr64drop_in_place$LT$alloc..boxed..Box$LT$syn..ty..BareFnArg$GT$$GT$17h8b34096c620314efE', symObjAddr: 0x5E30, symBinAddr: 0xF5760, symSize: 0x140 }
  - { offsetInCU: 0x18646, offset: 0x4B3B49, size: 0x8, addend: 0x0, symName: '__ZN4core3ptr64drop_in_place$LT$alloc..vec..Vec$LT$syn..attr..Attribute$GT$$GT$17h3c8f2a04e701c675E', symObjAddr: 0x5F70, symBinAddr: 0xF58A0, symSize: 0xD0 }
  - { offsetInCU: 0x188D3, offset: 0x4B3DD6, size: 0x8, addend: 0x0, symName: '__ZN4core3ptr65drop_in_place$LT$core..option..Option$LT$syn..expr..Label$GT$$GT$17h78189e72a8cb7951E', symObjAddr: 0x6040, symBinAddr: 0xF5970, symSize: 0x30 }
  - { offsetInCU: 0x18A0E, offset: 0x4B3F11, size: 0x8, addend: 0x0, symName: '__ZN4core3ptr65drop_in_place$LT$core..option..Option$LT$syn..path..QSelf$GT$$GT$17h9b72552ca06b7379E', symObjAddr: 0x6070, symBinAddr: 0xF59A0, symSize: 0x50 }
  - { offsetInCU: 0x18B91, offset: 0x4B4094, size: 0x8, addend: 0x0, symName: '__ZN4core3ptr66drop_in_place$LT$core..option..Option$LT$syn..pat..PatRest$GT$$GT$17h61677cf4ff3a7393E', symObjAddr: 0x60C0, symBinAddr: 0xF59F0, symSize: 0xE0 }
  - { offsetInCU: 0x18E15, offset: 0x4B4318, size: 0x8, addend: 0x0, symName: '__ZN4core3ptr67drop_in_place$LT$alloc..boxed..Box$LT$syn..expr..FieldValue$GT$$GT$17h93aaccf8aa22ef88E', symObjAddr: 0x61A0, symBinAddr: 0xF5AD0, symSize: 0x140 }
  - { offsetInCU: 0x19319, offset: 0x4B481C, size: 0x8, addend: 0x0, symName: '__ZN4core3ptr68drop_in_place$LT$alloc..boxed..Box$LT$syn..path..PathSegment$GT$$GT$17h709dabdc13b58a71E', symObjAddr: 0x62E0, symBinAddr: 0xF5C10, symSize: 0x190 }
  - { offsetInCU: 0x199F7, offset: 0x4B4EFA, size: 0x8, addend: 0x0, symName: '__ZN4core3ptr70drop_in_place$LT$core..option..Option$LT$syn..ty..BareVariadic$GT$$GT$17h45399348ea4b8d55E', symObjAddr: 0x6470, symBinAddr: 0xF5DA0, symSize: 0x120 }
  - { offsetInCU: 0x19F24, offset: 0x4B5427, size: 0x8, addend: 0x0, symName: '__ZN4core3ptr72drop_in_place$LT$alloc..boxed..Box$LT$syn..path..GenericArgument$GT$$GT$17haa7dd8b716637b54E', symObjAddr: 0x6590, symBinAddr: 0xF5EC0, symSize: 0x2B0 }
  - { offsetInCU: 0x1A8AF, offset: 0x4B5DB2, size: 0x8, addend: 0x0, symName: '__ZN4core3ptr72drop_in_place$LT$core..option..Option$LT$syn..lifetime..Lifetime$GT$$GT$17hfc363ccdd8bd9c32E', symObjAddr: 0x6840, symBinAddr: 0xF6170, symSize: 0x30 }
  - { offsetInCU: 0x1A9CB, offset: 0x4B5ECE, size: 0x8, addend: 0x0, symName: '__ZN4core3ptr73drop_in_place$LT$alloc..boxed..Box$LT$syn..generics..GenericParam$GT$$GT$17hf6951dcd5ae07324E', symObjAddr: 0x6870, symBinAddr: 0xF61A0, symSize: 0x80 }
  - { offsetInCU: 0x1AB43, offset: 0x4B6046, size: 0x8, addend: 0x0, symName: '__ZN4core3ptr75drop_in_place$LT$alloc..boxed..Box$LT$syn..generics..TypeParamBound$GT$$GT$17he61c00698a311a34E', symObjAddr: 0x68F0, symBinAddr: 0xF6220, symSize: 0x160 }
  - { offsetInCU: 0x1B109, offset: 0x4B660C, size: 0x8, addend: 0x0, symName: '__ZN4core3ptr86drop_in_place$LT$syn..punctuated..Punctuated$LT$syn..pat..Pat$C$syn..token..Or$GT$$GT$17h8e9173df21a44316E', symObjAddr: 0x6A50, symBinAddr: 0xF6380, symSize: 0x120 }
  - { offsetInCU: 0x1B54F, offset: 0x4B6A52, size: 0x8, addend: 0x0, symName: '__ZN4core3ptr87drop_in_place$LT$core..option..Option$LT$alloc..boxed..Box$LT$syn..pat..Pat$GT$$GT$$GT$17hd7b7c69f601b3926E', symObjAddr: 0x6B70, symBinAddr: 0xF64A0, symSize: 0x50 }
  - { offsetInCU: 0x1B6C1, offset: 0x4B6BC4, size: 0x8, addend: 0x0, symName: '__ZN4core3ptr87drop_in_place$LT$core..option..Option$LT$alloc..boxed..Box$LT$syn..ty..Type$GT$$GT$$GT$17hd74f5d971aec2972E', symObjAddr: 0x6BC0, symBinAddr: 0xF64F0, symSize: 0x50 }
  - { offsetInCU: 0x1B833, offset: 0x4B6D36, size: 0x8, addend: 0x0, symName: '__ZN4core3ptr89drop_in_place$LT$core..option..Option$LT$alloc..boxed..Box$LT$syn..expr..Expr$GT$$GT$$GT$17h8e135ac1a25a2dc5E', symObjAddr: 0x6C10, symBinAddr: 0xF6540, symSize: 0x50 }
  - { offsetInCU: 0x1B9E3, offset: 0x4B6EE6, size: 0x8, addend: 0x0, symName: '__ZN4core3ptr89drop_in_place$LT$syn..punctuated..Punctuated$LT$syn..pat..Pat$C$syn..token..Comma$GT$$GT$17h8d60e47f3fb1f87aE', symObjAddr: 0x6C60, symBinAddr: 0xF6590, symSize: 0x120 }
  - { offsetInCU: 0x1BE40, offset: 0x4B7343, size: 0x8, addend: 0x0, symName: '__ZN4core3ptr89drop_in_place$LT$syn..punctuated..Punctuated$LT$syn..ty..Type$C$syn..token..Comma$GT$$GT$17ha919b3114742fb9dE', symObjAddr: 0x6D80, symBinAddr: 0xF66B0, symSize: 0x120 }
  - { offsetInCU: 0x1C28A, offset: 0x4B778D, size: 0x8, addend: 0x0, symName: '__ZN4core3ptr90drop_in_place$LT$core..option..Option$LT$syn..path..AngleBracketedGenericArguments$GT$$GT$17h80d9a5f0818c8bd9E', symObjAddr: 0x6EA0, symBinAddr: 0xF67D0, symSize: 0x130 }
  - { offsetInCU: 0x1C6F5, offset: 0x4B7BF8, size: 0x8, addend: 0x0, symName: '__ZN4core3ptr91drop_in_place$LT$syn..punctuated..Punctuated$LT$syn..expr..Expr$C$syn..token..Comma$GT$$GT$17h4f39b83dc86a4159E', symObjAddr: 0x6FD0, symBinAddr: 0xF6900, symSize: 0x120 }
  - { offsetInCU: 0x1CB52, offset: 0x4B8055, size: 0x8, addend: 0x0, symName: '__ZN4core3ptr92drop_in_place$LT$core..option..Option$LT$alloc..boxed..Box$LT$syn..ty..BareFnArg$GT$$GT$$GT$17ha02746b13f393dbcE', symObjAddr: 0x70F0, symBinAddr: 0xF6A20, symSize: 0x50 }
  - { offsetInCU: 0x1CCC4, offset: 0x4B81C7, size: 0x8, addend: 0x0, symName: '__ZN4core3ptr94drop_in_place$LT$syn..punctuated..Punctuated$LT$syn..pat..FieldPat$C$syn..token..Comma$GT$$GT$17h112950ea198c8281E', symObjAddr: 0x7140, symBinAddr: 0xF6A70, symSize: 0xF0 }
  - { offsetInCU: 0x1CF8E, offset: 0x4B8491, size: 0x8, addend: 0x0, symName: '__ZN4core3ptr94drop_in_place$LT$syn..punctuated..Punctuated$LT$syn..ty..BareFnArg$C$syn..token..Comma$GT$$GT$17h1c7b44310f06243dE', symObjAddr: 0x7230, symBinAddr: 0xF6B60, symSize: 0xF0 }
  - { offsetInCU: 0x1D258, offset: 0x4B875B, size: 0x8, addend: 0x0, symName: '__ZN4core3ptr96drop_in_place$LT$core..option..Option$LT$alloc..boxed..Box$LT$syn..path..PathSegment$GT$$GT$$GT$17hb447d0f626c86a4eE', symObjAddr: 0x7320, symBinAddr: 0xF6C50, symSize: 0x90 }
  - { offsetInCU: 0x1D4DA, offset: 0x4B89DD, size: 0x8, addend: 0x0, symName: '__ZN4core3ptr97drop_in_place$LT$syn..punctuated..Punctuated$LT$syn..expr..FieldValue$C$syn..token..Comma$GT$$GT$17h31b81f7462228dcbE', symObjAddr: 0x73B0, symBinAddr: 0xF6CE0, symSize: 0xF0 }
  - { offsetInCU: 0x1D7A4, offset: 0x4B8CA7, size: 0x8, addend: 0x0, symName: '__ZN4core3ptr98drop_in_place$LT$alloc..vec..Vec$LT$$LP$syn..path..GenericArgument$C$syn..token..Comma$RP$$GT$$GT$17h0657ff261f33b640E', symObjAddr: 0x74A0, symBinAddr: 0xF6DD0, symSize: 0xD0 }
  - { offsetInCU: 0x1DAAD, offset: 0x4B8FB0, size: 0x8, addend: 0x0, symName: '__ZN4core3ptr98drop_in_place$LT$syn..punctuated..Punctuated$LT$syn..lifetime..Lifetime$C$syn..token..Plus$GT$$GT$17h0f8fc5f20f465f47E', symObjAddr: 0x7570, symBinAddr: 0xF6EA0, symSize: 0xC0 }
  - { offsetInCU: 0x2273E, offset: 0x4BDC41, size: 0x8, addend: 0x0, symName: __ZN3syn2ty7parsing8ambig_ty17hc9eb00e08bc74836E, symObjAddr: 0x7630, symBinAddr: 0xF6F60, symSize: 0x41C0 }
  - { offsetInCU: 0x2C18E, offset: 0x4C7691, size: 0x8, addend: 0x0, symName: __ZN3syn2ty7parsing17parse_bare_fn_arg17ha417bfcad3ad9c3cE, symObjAddr: 0xB7F0, symBinAddr: 0xFB120, symSize: 0xD80 }
  - { offsetInCU: 0x2E2C9, offset: 0x4C97CC, size: 0x8, addend: 0x0, symName: __ZN3syn2ty7parsing19parse_bare_variadic17hf15461e356619008E, symObjAddr: 0xC570, symBinAddr: 0xFBEA0, symSize: 0x5B2 }
  - { offsetInCU: 0x1AE6, offset: 0x4DB0A4, size: 0x8, addend: 0x0, symName: '__ZN4core3ptr100drop_in_place$LT$core..option..Option$LT$alloc..boxed..Box$LT$syn..path..GenericArgument$GT$$GT$$GT$17h7435c9de74860622E', symObjAddr: 0x40, symBinAddr: 0xFC460, symSize: 0x50 }
  - { offsetInCU: 0x1CB5, offset: 0x4DB273, size: 0x8, addend: 0x0, symName: '__ZN4core3ptr102drop_in_place$LT$syn..punctuated..Punctuated$LT$syn..path..GenericArgument$C$syn..token..Comma$GT$$GT$17h39496ba4e6dba6cfE', symObjAddr: 0x90, symBinAddr: 0xFC4B0, symSize: 0xF0 }
  - { offsetInCU: 0x1F9E, offset: 0x4DB55C, size: 0x8, addend: 0x0, symName: '__ZN4core3ptr103drop_in_place$LT$core..option..Option$LT$alloc..boxed..Box$LT$syn..generics..TypeParamBound$GT$$GT$$GT$17h5974f03e36b1a9c3E', symObjAddr: 0x180, symBinAddr: 0xFC5A0, symSize: 0x50 }
  - { offsetInCU: 0x21AB, offset: 0x4DB769, size: 0x8, addend: 0x0, symName: '__ZN4core3ptr103drop_in_place$LT$syn..punctuated..Punctuated$LT$syn..generics..GenericParam$C$syn..token..Comma$GT$$GT$17hf42353fa44ed6da8E', symObjAddr: 0x1D0, symBinAddr: 0xFC5F0, symSize: 0xF0 }
  - { offsetInCU: 0x2747, offset: 0x4DBD05, size: 0x8, addend: 0x0, symName: '__ZN4core3ptr104drop_in_place$LT$syn..punctuated..Punctuated$LT$syn..generics..TypeParamBound$C$syn..token..Plus$GT$$GT$17h532f52c4a894b056E', symObjAddr: 0x2C0, symBinAddr: 0xFC6E0, symSize: 0x230 }
  - { offsetInCU: 0x3025, offset: 0x4DC5E3, size: 0x8, addend: 0x0, symName: '__ZN4core3ptr34drop_in_place$LT$syn..lit..Lit$GT$17h8902f5ff67917034E', symObjAddr: 0x4F0, symBinAddr: 0xFC910, symSize: 0x110 }
  - { offsetInCU: 0x357E, offset: 0x4DCB3C, size: 0x8, addend: 0x0, symName: '__ZN4core3ptr34drop_in_place$LT$syn..pat..Pat$GT$17h4581eea028ec0969E', symObjAddr: 0x600, symBinAddr: 0xFCA20, symSize: 0xEE0 }
  - { offsetInCU: 0x6BCD, offset: 0x4E018B, size: 0x8, addend: 0x0, symName: '__ZN4core3ptr34drop_in_place$LT$syn..ty..Type$GT$17h369e41ad4a9f1ae0E.llvm.2300162851086642361', symObjAddr: 0x14E0, symBinAddr: 0xFD900, symSize: 0x5C0 }
  - { offsetInCU: 0x8403, offset: 0x4E19C1, size: 0x8, addend: 0x0, symName: '__ZN4core3ptr36drop_in_place$LT$syn..expr..Expr$GT$17h0f7fd4c749bae801E', symObjAddr: 0x1AA0, symBinAddr: 0xFDEC0, symSize: 0x2800 }
  - { offsetInCU: 0x115E0, offset: 0x4EAB9E, size: 0x8, addend: 0x0, symName: '__ZN4core3ptr36drop_in_place$LT$syn..mac..Macro$GT$17h4ffde962df30ebe2E', symObjAddr: 0x42A0, symBinAddr: 0x1006C0, symSize: 0xE0 }
  - { offsetInCU: 0x11951, offset: 0x4EAF0F, size: 0x8, addend: 0x0, symName: '__ZN4core3ptr36drop_in_place$LT$syn..path..Path$GT$17habea856181211e1cE.llvm.2300162851086642361', symObjAddr: 0x4380, symBinAddr: 0x1007A0, symSize: 0x220 }
  - { offsetInCU: 0x12286, offset: 0x4EB844, size: 0x8, addend: 0x0, symName: '__ZN4core3ptr37drop_in_place$LT$syn..stmt..Block$GT$17hcc21a21cf949414cE', symObjAddr: 0x45A0, symBinAddr: 0x1009C0, symSize: 0xD0 }
  - { offsetInCU: 0x125C5, offset: 0x4EBB83, size: 0x8, addend: 0x0, symName: '__ZN4core3ptr38drop_in_place$LT$syn..data..Fields$GT$17h1dd1b203befc1316E.llvm.2300162851086642361', symObjAddr: 0x4670, symBinAddr: 0x100A90, symSize: 0x190 }
  - { offsetInCU: 0x129E3, offset: 0x4EBFA1, size: 0x8, addend: 0x0, symName: '__ZN4core3ptr38drop_in_place$LT$syn..expr..Member$GT$17h022cbe5553aa40faE', symObjAddr: 0x4800, symBinAddr: 0x100C20, symSize: 0x30 }
  - { offsetInCU: 0x12AE0, offset: 0x4EC09E, size: 0x8, addend: 0x0, symName: '__ZN4core3ptr39drop_in_place$LT$proc_macro2..Ident$GT$17h8101e88c3ac359d6E.llvm.2300162851086642361', symObjAddr: 0x4830, symBinAddr: 0x100C50, symSize: 0x30 }
  - { offsetInCU: 0x12BBE, offset: 0x4EC17C, size: 0x8, addend: 0x0, symName: '__ZN4core3ptr40drop_in_place$LT$syn..ty..ReturnType$GT$17h02cf41e2fec63d90E', symObjAddr: 0x4860, symBinAddr: 0x100C80, symSize: 0x50 }
  - { offsetInCU: 0x12D30, offset: 0x4EC2EE, size: 0x8, addend: 0x0, symName: '__ZN4core3ptr41drop_in_place$LT$syn..expr..ExprConst$GT$17h725a13e551d9f276E', symObjAddr: 0x48B0, symBinAddr: 0x100CD0, symSize: 0x180 }
  - { offsetInCU: 0x13285, offset: 0x4EC843, size: 0x8, addend: 0x0, symName: '__ZN4core3ptr43drop_in_place$LT$syn..data..FieldsNamed$GT$17hb2a97e73a85352cbE', symObjAddr: 0x4A40, symBinAddr: 0x100E50, symSize: 0xE0 }
  - { offsetInCU: 0x13574, offset: 0x4ECB32, size: 0x8, addend: 0x0, symName: '__ZN4core3ptr44drop_in_place$LT$syn..lifetime..Lifetime$GT$17hf0cdec2e9ec456d6E', symObjAddr: 0x4B20, symBinAddr: 0x100F30, symSize: 0x30 }
  - { offsetInCU: 0x136ED, offset: 0x4ECCAB, size: 0x8, addend: 0x0, symName: '__ZN4core3ptr44drop_in_place$LT$syn..parse..ParseBuffer$GT$17hd0dadba44a19aec2E.llvm.2300162851086642361', symObjAddr: 0x4B50, symBinAddr: 0x100F60, symSize: 0x70 }
  - { offsetInCU: 0x13B22, offset: 0x4ED0E0, size: 0x8, addend: 0x0, symName: '__ZN4core3ptr45drop_in_place$LT$proc_macro2..TokenStream$GT$17h3405f6c513e9f6cbE', symObjAddr: 0x4BC0, symBinAddr: 0x100FD0, symSize: 0x140 }
  - { offsetInCU: 0x13F91, offset: 0x4ED54F, size: 0x8, addend: 0x0, symName: '__ZN4core3ptr45drop_in_place$LT$syn..generics..TypeParam$GT$17he5eda51070b7de47E', symObjAddr: 0x4D00, symBinAddr: 0x101110, symSize: 0x230 }
  - { offsetInCU: 0x1478D, offset: 0x4EDD4B, size: 0x8, addend: 0x0, symName: '__ZN4core3ptr46drop_in_place$LT$syn..generics..ConstParam$GT$17hab0a58c4af8c549cE', symObjAddr: 0x4F30, symBinAddr: 0x101340, symSize: 0x150 }
  - { offsetInCU: 0x14BB7, offset: 0x4EE175, size: 0x8, addend: 0x0, symName: '__ZN4core3ptr47drop_in_place$LT$syn..path..GenericArgument$GT$17h54f8794633f96823E', symObjAddr: 0x5080, symBinAddr: 0x101490, symSize: 0x460 }
  - { offsetInCU: 0x158C0, offset: 0x4EEE7E, size: 0x8, addend: 0x0, symName: '__ZN4core3ptr49drop_in_place$LT$syn..generics..LifetimeParam$GT$17h41a7c7a290ea6289E', symObjAddr: 0x54E0, symBinAddr: 0x1018F0, symSize: 0xF0 }
  - { offsetInCU: 0x15CB8, offset: 0x4EF276, size: 0x8, addend: 0x0, symName: '__ZN4core3ptr49drop_in_place$LT$syn..restriction..Visibility$GT$17h2a932c493942ef80E.llvm.2300162851086642361', symObjAddr: 0x55D0, symBinAddr: 0x1019E0, symSize: 0x60 }
  - { offsetInCU: 0x15E3F, offset: 0x4EF3FD, size: 0x8, addend: 0x0, symName: '__ZN4core3ptr50drop_in_place$LT$syn..generics..TypeParamBound$GT$17hcd7771d4c6c221efE', symObjAddr: 0x5630, symBinAddr: 0x101A40, symSize: 0xA0 }
  - { offsetInCU: 0x15FA6, offset: 0x4EF564, size: 0x8, addend: 0x0, symName: '__ZN4core3ptr58drop_in_place$LT$alloc..vec..Vec$LT$syn..expr..Arm$GT$$GT$17h1a55df3d2cba1daaE', symObjAddr: 0x56E0, symBinAddr: 0x101AE0, symSize: 0xD0 }
  - { offsetInCU: 0x16233, offset: 0x4EF7F1, size: 0x8, addend: 0x0, symName: '__ZN4core3ptr59drop_in_place$LT$alloc..boxed..Box$LT$syn..pat..Pat$GT$$GT$17h563b135d87aca8abE', symObjAddr: 0x57B0, symBinAddr: 0x101BB0, symSize: 0x50 }
  - { offsetInCU: 0x1638E, offset: 0x4EF94C, size: 0x8, addend: 0x0, symName: '__ZN4core3ptr59drop_in_place$LT$alloc..boxed..Box$LT$syn..ty..Type$GT$$GT$17hffed36bad83adacbE', symObjAddr: 0x5800, symBinAddr: 0x101C00, symSize: 0x50 }
  - { offsetInCU: 0x164E9, offset: 0x4EFAA7, size: 0x8, addend: 0x0, symName: '__ZN4core3ptr61drop_in_place$LT$alloc..boxed..Box$LT$syn..expr..Expr$GT$$GT$17h01091e47f131475dE', symObjAddr: 0x5850, symBinAddr: 0x101C50, symSize: 0x50 }
  - { offsetInCU: 0x16644, offset: 0x4EFC02, size: 0x8, addend: 0x0, symName: '__ZN4core3ptr61drop_in_place$LT$syn..path..ParenthesizedGenericArguments$GT$17h43d4aac5494326a7E', symObjAddr: 0x58A0, symBinAddr: 0x101CA0, symSize: 0x170 }
  - { offsetInCU: 0x16C1E, offset: 0x4F01DC, size: 0x8, addend: 0x0, symName: '__ZN4core3ptr63drop_in_place$LT$alloc..boxed..Box$LT$syn..lit..LitRepr$GT$$GT$17hd8839b7fb35ee7afE', symObjAddr: 0x5A10, symBinAddr: 0x101E10, symSize: 0x60 }
  - { offsetInCU: 0x16F13, offset: 0x4F04D1, size: 0x8, addend: 0x0, symName: '__ZN4core3ptr64drop_in_place$LT$alloc..boxed..Box$LT$syn..pat..FieldPat$GT$$GT$17h4980b70a7597cc08E', symObjAddr: 0x5A70, symBinAddr: 0x101E70, symSize: 0x140 }
  - { offsetInCU: 0x175BE, offset: 0x4F0B7C, size: 0x8, addend: 0x0, symName: '__ZN4core3ptr64drop_in_place$LT$alloc..boxed..Box$LT$syn..ty..BareFnArg$GT$$GT$17h8b34096c620314efE', symObjAddr: 0x5BB0, symBinAddr: 0x101FB0, symSize: 0x140 }
  - { offsetInCU: 0x17AE2, offset: 0x4F10A0, size: 0x8, addend: 0x0, symName: '__ZN4core3ptr64drop_in_place$LT$alloc..vec..Vec$LT$syn..attr..Attribute$GT$$GT$17h3c8f2a04e701c675E.llvm.2300162851086642361', symObjAddr: 0x5CF0, symBinAddr: 0x1020F0, symSize: 0xD0 }
  - { offsetInCU: 0x17D6F, offset: 0x4F132D, size: 0x8, addend: 0x0, symName: '__ZN4core3ptr65drop_in_place$LT$core..option..Option$LT$syn..expr..Label$GT$$GT$17h78189e72a8cb7951E', symObjAddr: 0x5DC0, symBinAddr: 0x1021C0, symSize: 0x30 }
  - { offsetInCU: 0x17EAA, offset: 0x4F1468, size: 0x8, addend: 0x0, symName: '__ZN4core3ptr66drop_in_place$LT$core..option..Option$LT$syn..pat..PatRest$GT$$GT$17h61677cf4ff3a7393E', symObjAddr: 0x5DF0, symBinAddr: 0x1021F0, symSize: 0xE0 }
  - { offsetInCU: 0x1812E, offset: 0x4F16EC, size: 0x8, addend: 0x0, symName: '__ZN4core3ptr67drop_in_place$LT$alloc..boxed..Box$LT$syn..expr..FieldValue$GT$$GT$17h93aaccf8aa22ef88E', symObjAddr: 0x5EE0, symBinAddr: 0x1022D0, symSize: 0x140 }
  - { offsetInCU: 0x18651, offset: 0x4F1C0F, size: 0x8, addend: 0x0, symName: '__ZN4core3ptr70drop_in_place$LT$core..option..Option$LT$syn..ty..BareVariadic$GT$$GT$17h45399348ea4b8d55E', symObjAddr: 0x6050, symBinAddr: 0x102410, symSize: 0x120 }
  - { offsetInCU: 0x18B7E, offset: 0x4F213C, size: 0x8, addend: 0x0, symName: '__ZN4core3ptr72drop_in_place$LT$alloc..boxed..Box$LT$syn..path..GenericArgument$GT$$GT$17haa7dd8b716637b54E', symObjAddr: 0x6170, symBinAddr: 0x102530, symSize: 0x2B0 }
  - { offsetInCU: 0x19569, offset: 0x4F2B27, size: 0x8, addend: 0x0, symName: '__ZN4core3ptr72drop_in_place$LT$core..option..Option$LT$syn..lifetime..Lifetime$GT$$GT$17hfc363ccdd8bd9c32E', symObjAddr: 0x6420, symBinAddr: 0x1027E0, symSize: 0x30 }
  - { offsetInCU: 0x19685, offset: 0x4F2C43, size: 0x8, addend: 0x0, symName: '__ZN4core3ptr73drop_in_place$LT$alloc..boxed..Box$LT$syn..generics..GenericParam$GT$$GT$17hf6951dcd5ae07324E', symObjAddr: 0x6450, symBinAddr: 0x102810, symSize: 0x80 }
  - { offsetInCU: 0x197FD, offset: 0x4F2DBB, size: 0x8, addend: 0x0, symName: '__ZN4core3ptr75drop_in_place$LT$alloc..boxed..Box$LT$syn..generics..TypeParamBound$GT$$GT$17he61c00698a311a34E', symObjAddr: 0x64D0, symBinAddr: 0x102890, symSize: 0x160 }
  - { offsetInCU: 0x19DC3, offset: 0x4F3381, size: 0x8, addend: 0x0, symName: '__ZN4core3ptr86drop_in_place$LT$syn..punctuated..Punctuated$LT$syn..pat..Pat$C$syn..token..Or$GT$$GT$17h8e9173df21a44316E', symObjAddr: 0x6630, symBinAddr: 0x1029F0, symSize: 0x120 }
  - { offsetInCU: 0x1A209, offset: 0x4F37C7, size: 0x8, addend: 0x0, symName: '__ZN4core3ptr87drop_in_place$LT$core..option..Option$LT$alloc..boxed..Box$LT$syn..pat..Pat$GT$$GT$$GT$17hd7b7c69f601b3926E', symObjAddr: 0x6750, symBinAddr: 0x102B10, symSize: 0x50 }
  - { offsetInCU: 0x1A37B, offset: 0x4F3939, size: 0x8, addend: 0x0, symName: '__ZN4core3ptr87drop_in_place$LT$core..option..Option$LT$alloc..boxed..Box$LT$syn..ty..Type$GT$$GT$$GT$17hd74f5d971aec2972E', symObjAddr: 0x67A0, symBinAddr: 0x102B60, symSize: 0x50 }
  - { offsetInCU: 0x1A4ED, offset: 0x4F3AAB, size: 0x8, addend: 0x0, symName: '__ZN4core3ptr89drop_in_place$LT$core..option..Option$LT$alloc..boxed..Box$LT$syn..expr..Expr$GT$$GT$$GT$17h8e135ac1a25a2dc5E', symObjAddr: 0x6810, symBinAddr: 0x102BB0, symSize: 0x50 }
  - { offsetInCU: 0x1A69D, offset: 0x4F3C5B, size: 0x8, addend: 0x0, symName: '__ZN4core3ptr89drop_in_place$LT$syn..punctuated..Punctuated$LT$syn..pat..Pat$C$syn..token..Comma$GT$$GT$17h8d60e47f3fb1f87aE', symObjAddr: 0x6860, symBinAddr: 0x102C00, symSize: 0x120 }
  - { offsetInCU: 0x1AB76, offset: 0x4F4134, size: 0x8, addend: 0x0, symName: '__ZN4core3ptr90drop_in_place$LT$core..option..Option$LT$alloc..boxed..Box$LT$syn..data..Field$GT$$GT$$GT$17h326c39537b0fcc46E', symObjAddr: 0x6980, symBinAddr: 0x102D20, symSize: 0x200 }
  - { offsetInCU: 0x1B3FE, offset: 0x4F49BC, size: 0x8, addend: 0x0, symName: '__ZN4core3ptr91drop_in_place$LT$syn..punctuated..Punctuated$LT$syn..expr..Expr$C$syn..token..Comma$GT$$GT$17h4f39b83dc86a4159E', symObjAddr: 0x6B80, symBinAddr: 0x102F20, symSize: 0x120 }
  - { offsetInCU: 0x1B85B, offset: 0x4F4E19, size: 0x8, addend: 0x0, symName: '__ZN4core3ptr94drop_in_place$LT$syn..punctuated..Punctuated$LT$syn..pat..FieldPat$C$syn..token..Comma$GT$$GT$17h112950ea198c8281E', symObjAddr: 0x6D80, symBinAddr: 0x103040, symSize: 0xF0 }
  - { offsetInCU: 0x1BB25, offset: 0x4F50E3, size: 0x8, addend: 0x0, symName: '__ZN4core3ptr94drop_in_place$LT$syn..punctuated..Punctuated$LT$syn..ty..BareFnArg$C$syn..token..Comma$GT$$GT$17h1c7b44310f06243dE', symObjAddr: 0x6E70, symBinAddr: 0x103130, symSize: 0xF0 }
  - { offsetInCU: 0x1BDEF, offset: 0x4F53AD, size: 0x8, addend: 0x0, symName: '__ZN4core3ptr96drop_in_place$LT$core..option..Option$LT$alloc..boxed..Box$LT$syn..path..PathSegment$GT$$GT$$GT$17hb447d0f626c86a4eE', symObjAddr: 0x6F60, symBinAddr: 0x103220, symSize: 0x180 }
  - { offsetInCU: 0x1C480, offset: 0x4F5A3E, size: 0x8, addend: 0x0, symName: '__ZN4core3ptr97drop_in_place$LT$syn..punctuated..Punctuated$LT$syn..expr..FieldValue$C$syn..token..Comma$GT$$GT$17h31b81f7462228dcbE', symObjAddr: 0x70E0, symBinAddr: 0x1033A0, symSize: 0xF0 }
  - { offsetInCU: 0x1C7C6, offset: 0x4F5D84, size: 0x8, addend: 0x0, symName: '__ZN4core3ptr98drop_in_place$LT$syn..punctuated..Punctuated$LT$syn..lifetime..Lifetime$C$syn..token..Plus$GT$$GT$17h0f8fc5f20f465f47E', symObjAddr: 0x71D0, symBinAddr: 0x103490, symSize: 0xC0 }
  - { offsetInCU: 0x255D0, offset: 0x4FEB8E, size: 0x8, addend: 0x0, symName: '__ZN3syn4data8printing75_$LT$impl$u20$quote..to_tokens..ToTokens$u20$for$u20$syn..data..Variant$GT$9to_tokens17h13d1f99ede0509a8E', symObjAddr: 0x93E0, symBinAddr: 0x104E50, symSize: 0x150 }
  - { offsetInCU: 0x257B6, offset: 0x4FED74, size: 0x8, addend: 0x0, symName: '__ZN3syn4data7parsing66_$LT$impl$u20$syn..parse..Parse$u20$for$u20$syn..data..Variant$GT$5parse17h93decb632da50941E', symObjAddr: 0x7AE0, symBinAddr: 0x103550, symSize: 0x880 }
  - { offsetInCU: 0x2682A, offset: 0x4FFDE8, size: 0x8, addend: 0x0, symName: '__ZN3syn4data7parsing70_$LT$impl$u20$syn..parse..Parse$u20$for$u20$syn..data..FieldsNamed$GT$5parse17h6c11e41f70d0356cE', symObjAddr: 0x8360, symBinAddr: 0x103DD0, symSize: 0x250 }
  - { offsetInCU: 0x26B6F, offset: 0x50012D, size: 0x8, addend: 0x0, symName: '__ZN3syn4data7parsing72_$LT$impl$u20$syn..parse..Parse$u20$for$u20$syn..data..FieldsUnnamed$GT$5parse17h86d92da9625cb1a7E', symObjAddr: 0x85B0, symBinAddr: 0x104020, symSize: 0x250 }
  - { offsetInCU: 0x293BF, offset: 0x50297D, size: 0x8, addend: 0x0, symName: '__ZN3syn4data7parsing34_$LT$impl$u20$syn..data..Field$GT$11parse_named17h059cc70e1c3f901bE', symObjAddr: 0x8800, symBinAddr: 0x104270, symSize: 0x800 }
  - { offsetInCU: 0x2A3B7, offset: 0x503975, size: 0x8, addend: 0x0, symName: '__ZN3syn4data7parsing34_$LT$impl$u20$syn..data..Field$GT$13parse_unnamed17he5dcaef9dc8bfaa1E', symObjAddr: 0x9000, symBinAddr: 0x104A70, symSize: 0x3E0 }
  - { offsetInCU: 0x99, offset: 0x506CF9, size: 0x8, addend: 0x0, symName: '__ZN58_$LT$alloc..string..String$u20$as$u20$core..fmt..Write$GT$10write_char17hd329c0cb943f081aE', symObjAddr: 0x730, symBinAddr: 0x1053E0, symSize: 0x130 }
  - { offsetInCU: 0x440, offset: 0x5070A0, size: 0x8, addend: 0x0, symName: '__ZN58_$LT$alloc..string..String$u20$as$u20$core..fmt..Write$GT$9write_str17h1ff5aa96ca91c6d5E', symObjAddr: 0x860, symBinAddr: 0x105510, symSize: 0x60 }
  - { offsetInCU: 0x6A4, offset: 0x507304, size: 0x8, addend: 0x0, symName: '__ZN60_$LT$alloc..string..String$u20$as$u20$core..fmt..Display$GT$3fmt17hc365578c40090489E', symObjAddr: 0x8C0, symBinAddr: 0x105570, symSize: 0x20 }
  - { offsetInCU: 0x1591, offset: 0x5081F1, size: 0x8, addend: 0x0, symName: '__ZN4core3ptr116drop_in_place$LT$core..option..Option$LT$$LP$alloc..boxed..Box$LT$str$GT$$C$alloc..boxed..Box$LT$str$GT$$RP$$GT$$GT$17h943ea7cbf1e3a9d3E', symObjAddr: 0xB0, symBinAddr: 0x104FA0, symSize: 0x50 }
  - { offsetInCU: 0x17E2, offset: 0x508442, size: 0x8, addend: 0x0, symName: '__ZN4core3ptr34drop_in_place$LT$syn..lit..Lit$GT$17h8902f5ff67917034E.llvm.15985430365941682814', symObjAddr: 0x110, symBinAddr: 0x104FF0, symSize: 0x110 }
  - { offsetInCU: 0x197A, offset: 0x5085DA, size: 0x8, addend: 0x0, symName: '__ZN4core3ptr37drop_in_place$LT$core..fmt..Error$GT$17h8e130a2736288a98E', symObjAddr: 0x220, symBinAddr: 0x105100, symSize: 0x10 }
  - { offsetInCU: 0x19E4, offset: 0x508644, size: 0x8, addend: 0x0, symName: '__ZN4core3ptr37drop_in_place$LT$syn..lit..LitInt$GT$17hdc2cb2f4b64b71f3E.llvm.15985430365941682814', symObjAddr: 0x230, symBinAddr: 0x105110, symSize: 0x0 }
  - { offsetInCU: 0x1DB3, offset: 0x508A13, size: 0x8, addend: 0x0, symName: '__ZN4core3ptr37drop_in_place$LT$syn..lit..LitStr$GT$17h0f45e3667374f869E.llvm.15985430365941682814', symObjAddr: 0x2A0, symBinAddr: 0x105180, symSize: 0x0 }
  - { offsetInCU: 0x20B0, offset: 0x508D10, size: 0x8, addend: 0x0, symName: '__ZN4core3ptr38drop_in_place$LT$syn..lit..LitRepr$GT$17h1d2fb6b3a94c0552E.llvm.15985430365941682814', symObjAddr: 0x300, symBinAddr: 0x1051E0, symSize: 0x50 }
  - { offsetInCU: 0x22C9, offset: 0x508F29, size: 0x8, addend: 0x0, symName: '__ZN4core3ptr41drop_in_place$LT$syn..lit..LitIntRepr$GT$17hde5d4b83d43b5087E.llvm.15985430365941682814', symObjAddr: 0x390, symBinAddr: 0x105230, symSize: 0x0 }
  - { offsetInCU: 0x2576, offset: 0x5091D6, size: 0x8, addend: 0x0, symName: '__ZN4core3ptr42drop_in_place$LT$alloc..string..String$GT$17h781ac6273fa84cb0E', symObjAddr: 0x3F0, symBinAddr: 0x105290, symSize: 0x20 }
  - { offsetInCU: 0x26FB, offset: 0x50935B, size: 0x8, addend: 0x0, symName: '__ZN4core3ptr44drop_in_place$LT$syn..parse..ParseBuffer$GT$17hd0dadba44a19aec2E.llvm.15985430365941682814', symObjAddr: 0x4C0, symBinAddr: 0x1052B0, symSize: 0x70 }
  - { offsetInCU: 0x2A57, offset: 0x5096B7, size: 0x8, addend: 0x0, symName: '__ZN4core3ptr82drop_in_place$LT$core..result..Result$LT$syn..lit..Lit$C$syn..error..Error$GT$$GT$17h46d502669dad5b38E.llvm.15985430365941682814', symObjAddr: 0x670, symBinAddr: 0x105320, symSize: 0xA0 }
  - { offsetInCU: 0x3094, offset: 0x509CF4, size: 0x8, addend: 0x0, symName: '__ZN53_$LT$core..fmt..Error$u20$as$u20$core..fmt..Debug$GT$3fmt17h43ae5cec9623af13E', symObjAddr: 0x710, symBinAddr: 0x1053C0, symSize: 0x20 }
  - { offsetInCU: 0x4788, offset: 0x50B3E8, size: 0x8, addend: 0x0, symName: '__ZN3syn3lit7parsing64_$LT$impl$u20$syn..parse..Parse$u20$for$u20$syn..lit..LitStr$GT$5parse17hc3c09d83f26d3abaE', symObjAddr: 0x2B00, symBinAddr: 0x1057E0, symSize: 0x260 }
  - { offsetInCU: 0x5015, offset: 0x50BC75, size: 0x8, addend: 0x0, symName: '__ZN3syn3lit7parsing64_$LT$impl$u20$syn..parse..Parse$u20$for$u20$syn..lit..LitInt$GT$5parse17hf21709ab5bed9f5dE', symObjAddr: 0x36E0, symBinAddr: 0x105A40, symSize: 0x260 }
  - { offsetInCU: 0x58A2, offset: 0x50C502, size: 0x8, addend: 0x0, symName: '__ZN3syn3lit7parsing66_$LT$impl$u20$syn..parse..Parse$u20$for$u20$syn..lit..LitFloat$GT$5parse17h3d8e90a1cfb7dbeeE', symObjAddr: 0x3940, symBinAddr: 0x105CA0, symSize: 0x260 }
  - { offsetInCU: 0x612F, offset: 0x50CD8F, size: 0x8, addend: 0x0, symName: '__ZN3syn3lit7parsing61_$LT$impl$u20$syn..token..Token$u20$for$u20$syn..lit..Lit$GT$4peek17hf363c22e33f56401E', symObjAddr: 0x4EC0, symBinAddr: 0x1069C0, symSize: 0x180 }
  - { offsetInCU: 0x6AA2, offset: 0x50D702, size: 0x8, addend: 0x0, symName: '__ZN3syn3lit7parsing64_$LT$impl$u20$syn..token..Token$u20$for$u20$syn..lit..LitStr$GT$4peek17h4c34042f8612caedE', symObjAddr: 0x5040, symBinAddr: 0x106B40, symSize: 0x180 }
  - { offsetInCU: 0x7415, offset: 0x50E075, size: 0x8, addend: 0x0, symName: '__ZN3syn3lit7parsing64_$LT$impl$u20$syn..token..Token$u20$for$u20$syn..lit..LitInt$GT$4peek17hbbc9a1b585736a45E', symObjAddr: 0x57C0, symBinAddr: 0x106CC0, symSize: 0x180 }
  - { offsetInCU: 0x7D88, offset: 0x50E9E8, size: 0x8, addend: 0x0, symName: '__ZN3syn3lit7parsing66_$LT$impl$u20$syn..token..Token$u20$for$u20$syn..lit..LitFloat$GT$4peek17h52f73ed094a66d04E', symObjAddr: 0x5940, symBinAddr: 0x106E40, symSize: 0x180 }
  - { offsetInCU: 0x8885, offset: 0x50F4E5, size: 0x8, addend: 0x0, symName: '__ZN3syn3lit8printing73_$LT$impl$u20$quote..to_tokens..ToTokens$u20$for$u20$syn..lit..LitStr$GT$9to_tokens17h457a04150de56a10E', symObjAddr: 0x3DC0, symBinAddr: 0x105F00, symSize: 0x0 }
  - { offsetInCU: 0x88F4, offset: 0x50F554, size: 0x8, addend: 0x0, symName: '__ZN60_$LT$syn..lit..Lit$u20$as$u20$quote..to_tokens..ToTokens$GT$9to_tokens17hf20c46f174f037f0E', symObjAddr: 0x4930, symBinAddr: 0x1068D0, symSize: 0xF0 }
  - { offsetInCU: 0x9043, offset: 0x50FCA3, size: 0x8, addend: 0x0, symName: __ZN3syn3lit6LitStr5value17h4dd347c62dd2d628E, symObjAddr: 0xB20, symBinAddr: 0x105590, symSize: 0x160 }
  - { offsetInCU: 0x960A, offset: 0x51026A, size: 0x8, addend: 0x0, symName: __ZN3syn3lit7LitByte3new17h4d7478793e233f23E, symObjAddr: 0x14C0, symBinAddr: 0x1056F0, symSize: 0xF0 }
  - { offsetInCU: 0x9A4D, offset: 0x5106AD, size: 0x8, addend: 0x0, symName: '__ZN3syn3lit5value31_$LT$impl$u20$syn..lit..Lit$GT$3new17h7222278f7f00ab07E', symObjAddr: 0x3E90, symBinAddr: 0x105F20, symSize: 0x9B0 }
  - { offsetInCU: 0x8BC, offset: 0x513808, size: 0x8, addend: 0x0, symName: '__ZN4core3ptr39drop_in_place$LT$syn..buffer..Entry$GT$17h8c4c199506966aaeE', symObjAddr: 0x1A0, symBinAddr: 0x106FC0, symSize: 0xC0 }
  - { offsetInCU: 0xBD0, offset: 0x513B1C, size: 0x8, addend: 0x0, symName: '__ZN4core3ptr43drop_in_place$LT$proc_macro2..TokenTree$GT$17h9a731c54895ae11bE', symObjAddr: 0x260, symBinAddr: 0x107080, symSize: 0xB0 }
  - { offsetInCU: 0x5886, offset: 0x5187D2, size: 0x8, addend: 0x0, symName: '__ZN80_$LT$syn..parse..ParseBuffer$u20$as$u20$syn..parse..discouraged..Speculative$GT$10advance_to17hc1d93e8143d1374bE', symObjAddr: 0x520, symBinAddr: 0x107130, symSize: 0x2C0 }
  - { offsetInCU: 0x6EB1, offset: 0x519DFD, size: 0x8, addend: 0x0, symName: '__ZN65_$LT$syn..parse..ParseBuffer$u20$as$u20$core..ops..drop..Drop$GT$4drop17h7a8329a6785bf652E', symObjAddr: 0x990, symBinAddr: 0x1073F0, symSize: 0xC0 }
  - { offsetInCU: 0x75F1, offset: 0x51A53D, size: 0x8, addend: 0x0, symName: __ZN3syn5parse16inner_unexpected17h5cb5fd588473b12cE.llvm.9658514889328286378, symObjAddr: 0xB60, symBinAddr: 0x1074B0, symSize: 0x130 }
  - { offsetInCU: 0x7F65, offset: 0x51AEB1, size: 0x8, addend: 0x0, symName: __ZN3syn5parse33span_of_unexpected_ignoring_nones17h88b6772bd6968365E, symObjAddr: 0xC90, symBinAddr: 0x1075E0, symSize: 0x180 }
  - { offsetInCU: 0x8485, offset: 0x51B3D1, size: 0x8, addend: 0x0, symName: __ZN3syn5parse11ParseBuffer5peek25peek217hca9ad5378ed4a691E, symObjAddr: 0x1430, symBinAddr: 0x1079D0, symSize: 0x100 }
  - { offsetInCU: 0x8703, offset: 0x51B64F, size: 0x8, addend: 0x0, symName: __ZN3syn5parse11ParseBuffer5peek35peek317h0b004316ff5c3d58E, symObjAddr: 0x1530, symBinAddr: 0x107AD0, symSize: 0x1C0 }
  - { offsetInCU: 0x8CF7, offset: 0x51BC43, size: 0x8, addend: 0x0, symName: __ZN3syn5parse6Parser9parse_str17h41d1ab4ccd0f4179E, symObjAddr: 0x3F30, symBinAddr: 0x109D60, symSize: 0x700 }
  - { offsetInCU: 0xA0CA, offset: 0x51D016, size: 0x8, addend: 0x0, symName: __ZN3syn5parse22tokens_to_parse_buffer17h49f2ace1712511faE, symObjAddr: 0x4E00, symBinAddr: 0x10A460, symSize: 0x100 }
  - { offsetInCU: 0xB166, offset: 0x51E0B2, size: 0x8, addend: 0x0, symName: __ZN3syn5parse11ParseBuffer5parse17h557164c6a406d073E, symObjAddr: 0xFE0, symBinAddr: 0x107760, symSize: 0xC0 }
  - { offsetInCU: 0xB35A, offset: 0x51E2A6, size: 0x8, addend: 0x0, symName: __ZN3syn5parse11ParseBuffer5parse17h56ee5f00ccbbd323E, symObjAddr: 0x10A0, symBinAddr: 0x107820, symSize: 0x100 }
  - { offsetInCU: 0xB43C, offset: 0x51E388, size: 0x8, addend: 0x0, symName: __ZN3syn5parse11ParseBuffer5parse17hc3d2362d4d40130dE, symObjAddr: 0x1300, symBinAddr: 0x107920, symSize: 0xB0 }
  - { offsetInCU: 0xB6DC, offset: 0x51E628, size: 0x8, addend: 0x0, symName: __ZN3syn5parse11ParseBuffer4fork17h834155dba4cc11c8E, symObjAddr: 0x16F0, symBinAddr: 0x107C90, symSize: 0xB0 }
  - { offsetInCU: 0xB9DB, offset: 0x51E927, size: 0x8, addend: 0x0, symName: __ZN3syn5parse11ParseBuffer4step17h17f5a98a5c39dc6bE, symObjAddr: 0x1820, symBinAddr: 0x107D40, symSize: 0x250 }
  - { offsetInCU: 0xC5DE, offset: 0x51F52A, size: 0x8, addend: 0x0, symName: __ZN3syn5parse11ParseBuffer4step17h2568650e76fb76e2E, symObjAddr: 0x1A70, symBinAddr: 0x107F90, symSize: 0x370 }
  - { offsetInCU: 0xD0B2, offset: 0x51FFFE, size: 0x8, addend: 0x0, symName: __ZN3syn5parse11ParseBuffer4step17h3901f23df1aacc5bE, symObjAddr: 0x1EF0, symBinAddr: 0x108300, symSize: 0xC0 }
  - { offsetInCU: 0xD3C4, offset: 0x520310, size: 0x8, addend: 0x0, symName: __ZN3syn5parse11ParseBuffer4step17h4d38b1841156ecf4E, symObjAddr: 0x1FB0, symBinAddr: 0x1083C0, symSize: 0x230 }
  - { offsetInCU: 0xDF57, offset: 0x520EA3, size: 0x8, addend: 0x0, symName: __ZN3syn5parse11ParseBuffer4step17h63e5939dbbd4c354E, symObjAddr: 0x21E0, symBinAddr: 0x1085F0, symSize: 0x350 }
  - { offsetInCU: 0xED95, offset: 0x521CE1, size: 0x8, addend: 0x0, symName: __ZN3syn5parse11ParseBuffer4step17h80285e64ccf27fbeE, symObjAddr: 0x2760, symBinAddr: 0x108940, symSize: 0x280 }
  - { offsetInCU: 0xF4B6, offset: 0x522402, size: 0x8, addend: 0x0, symName: __ZN3syn5parse11ParseBuffer4step17h839cb5b675a9cfa9E, symObjAddr: 0x29E0, symBinAddr: 0x108BC0, symSize: 0x630 }
  - { offsetInCU: 0x1062D, offset: 0x523579, size: 0x8, addend: 0x0, symName: __ZN3syn5parse11ParseBuffer4step17h8f1c6caee46c0ddbE, symObjAddr: 0x3110, symBinAddr: 0x1091F0, symSize: 0x170 }
  - { offsetInCU: 0x10AD8, offset: 0x523A24, size: 0x8, addend: 0x0, symName: __ZN3syn5parse11ParseBuffer4step17ha4832aa894bb7cdeE, symObjAddr: 0x3280, symBinAddr: 0x109360, symSize: 0x2D0 }
  - { offsetInCU: 0x1171C, offset: 0x524668, size: 0x8, addend: 0x0, symName: __ZN3syn5parse11ParseBuffer4step17he65381b6e10e4466E, symObjAddr: 0x3770, symBinAddr: 0x109630, symSize: 0x240 }
  - { offsetInCU: 0x121BC, offset: 0x525108, size: 0x8, addend: 0x0, symName: __ZN3syn5parse11ParseBuffer4step17hf5122463d58ba43cE, symObjAddr: 0x39B0, symBinAddr: 0x109870, symSize: 0x360 }
  - { offsetInCU: 0x1283B, offset: 0x525787, size: 0x8, addend: 0x0, symName: __ZN3syn5parse11ParseBuffer16check_unexpected17hc81062d17bdf4fb9E, symObjAddr: 0x3DA0, symBinAddr: 0x109BD0, symSize: 0x190 }
  - { offsetInCU: 0x207, offset: 0x530AB7, size: 0x8, addend: 0x0, symName: '__ZN3syn4stmt7parsing64_$LT$impl$u20$syn..parse..Parse$u20$for$u20$syn..stmt..Block$GT$5parse17h437a27c9550f455fE', symObjAddr: 0xAD70, symBinAddr: 0x114F20, symSize: 0x270 }
  - { offsetInCU: 0x56C, offset: 0x530E1C, size: 0x8, addend: 0x0, symName: '__ZN3syn4stmt8printing72_$LT$impl$u20$quote..to_tokens..ToTokens$u20$for$u20$syn..stmt..Stmt$GT$9to_tokens17hb778a36b6095bf33E', symObjAddr: 0xB020, symBinAddr: 0x115190, symSize: 0x210 }
  - { offsetInCU: 0x9B3, offset: 0x531263, size: 0x8, addend: 0x0, symName: '__ZN3syn4stmt8printing73_$LT$impl$u20$quote..to_tokens..ToTokens$u20$for$u20$syn..stmt..Local$GT$9to_tokens17had5b23123aa66001E', symObjAddr: 0xB230, symBinAddr: 0x1153A0, symSize: 0x3E0 }
  - { offsetInCU: 0x734A, offset: 0x537BFA, size: 0x8, addend: 0x0, symName: '__ZN4core3ptr100drop_in_place$LT$core..option..Option$LT$alloc..boxed..Box$LT$syn..path..GenericArgument$GT$$GT$$GT$17h7435c9de74860622E', symObjAddr: 0x1B0, symBinAddr: 0x10A560, symSize: 0x50 }
  - { offsetInCU: 0x76EA, offset: 0x537F9A, size: 0x8, addend: 0x0, symName: '__ZN4core3ptr100drop_in_place$LT$syn..punctuated..Punctuated$LT$syn..path..PathSegment$C$syn..token..PathSep$GT$$GT$17hf414cb3581f8337aE', symObjAddr: 0x200, symBinAddr: 0x10A5B0, symSize: 0x260 }
  - { offsetInCU: 0x8083, offset: 0x538933, size: 0x8, addend: 0x0, symName: '__ZN4core3ptr103drop_in_place$LT$core..option..Option$LT$alloc..boxed..Box$LT$syn..generics..TypeParamBound$GT$$GT$$GT$17h5974f03e36b1a9c3E', symObjAddr: 0x460, symBinAddr: 0x10A810, symSize: 0x50 }
  - { offsetInCU: 0x82CE, offset: 0x538B7E, size: 0x8, addend: 0x0, symName: '__ZN4core3ptr103drop_in_place$LT$core..option..Option$LT$alloc..boxed..Box$LT$syn..generics..WherePredicate$GT$$GT$$GT$17hdd5111a374d8d6f2E', symObjAddr: 0x4B0, symBinAddr: 0x10A860, symSize: 0xD0 }
  - { offsetInCU: 0x8661, offset: 0x538F11, size: 0x8, addend: 0x0, symName: '__ZN4core3ptr103drop_in_place$LT$syn..punctuated..Punctuated$LT$syn..generics..GenericParam$C$syn..token..Comma$GT$$GT$17hf42353fa44ed6da8E', symObjAddr: 0x580, symBinAddr: 0x10A930, symSize: 0xF0 }
  - { offsetInCU: 0x8AC7, offset: 0x539377, size: 0x8, addend: 0x0, symName: '__ZN4core3ptr104drop_in_place$LT$syn..punctuated..Punctuated$LT$syn..generics..TypeParamBound$C$syn..token..Plus$GT$$GT$17h532f52c4a894b056E', symObjAddr: 0x670, symBinAddr: 0x10AA20, symSize: 0x190 }
  - { offsetInCU: 0x90DD, offset: 0x53998D, size: 0x8, addend: 0x0, symName: '__ZN4core3ptr115drop_in_place$LT$core..option..Option$LT$$LP$syn..token..Brace$C$alloc..vec..Vec$LT$syn..item..Item$GT$$RP$$GT$$GT$17h6df5bf3d47177236E', symObjAddr: 0x800, symBinAddr: 0x10ABB0, symSize: 0xE0 }
  - { offsetInCU: 0x9384, offset: 0x539C34, size: 0x8, addend: 0x0, symName: '__ZN4core3ptr116drop_in_place$LT$core..option..Option$LT$$LP$syn..token..Else$C$alloc..boxed..Box$LT$syn..expr..Expr$GT$$RP$$GT$$GT$17hce47d33a8602d206E', symObjAddr: 0x8E0, symBinAddr: 0x10AC90, symSize: 0x50 }
  - { offsetInCU: 0x95BE, offset: 0x539E6E, size: 0x8, addend: 0x0, symName: '__ZN4core3ptr34drop_in_place$LT$syn..lit..Lit$GT$17h8902f5ff67917034E', symObjAddr: 0x930, symBinAddr: 0x10ACE0, symSize: 0x110 }
  - { offsetInCU: 0x9AF8, offset: 0x53A3A8, size: 0x8, addend: 0x0, symName: '__ZN4core3ptr34drop_in_place$LT$syn..pat..Pat$GT$17h4581eea028ec0969E.llvm.2062191468462725206', symObjAddr: 0xA40, symBinAddr: 0x10ADF0, symSize: 0x1000 }
  - { offsetInCU: 0xD61D, offset: 0x53DECD, size: 0x8, addend: 0x0, symName: '__ZN4core3ptr34drop_in_place$LT$syn..ty..Type$GT$17h369e41ad4a9f1ae0E', symObjAddr: 0x1A40, symBinAddr: 0x10BDF0, symSize: 0x4F0 }
  - { offsetInCU: 0xEB49, offset: 0x53F3F9, size: 0x8, addend: 0x0, symName: '__ZN4core3ptr36drop_in_place$LT$syn..expr..Expr$GT$17h0f7fd4c749bae801E', symObjAddr: 0x1F30, symBinAddr: 0x10C2E0, symSize: 0x28D0 }
  - { offsetInCU: 0x18476, offset: 0x548D26, size: 0x8, addend: 0x0, symName: '__ZN4core3ptr36drop_in_place$LT$syn..item..Item$GT$17h13f5a53479ba6379E', symObjAddr: 0x4800, symBinAddr: 0x10EBB0, symSize: 0x19D0 }
  - { offsetInCU: 0x1E0AE, offset: 0x54E95E, size: 0x8, addend: 0x0, symName: '__ZN4core3ptr36drop_in_place$LT$syn..mac..Macro$GT$17h4ffde962df30ebe2E', symObjAddr: 0x61D0, symBinAddr: 0x110580, symSize: 0x40 }
  - { offsetInCU: 0x1E0E8, offset: 0x54E998, size: 0x8, addend: 0x0, symName: '__ZN4core3ptr36drop_in_place$LT$syn..path..Path$GT$17habea856181211e1cE', symObjAddr: 0x6210, symBinAddr: 0x1105C0, symSize: 0x220 }
  - { offsetInCU: 0x1EA5B, offset: 0x54F30B, size: 0x8, addend: 0x0, symName: '__ZN4core3ptr36drop_in_place$LT$syn..stmt..Stmt$GT$17h7826ed37cb9634e5E', symObjAddr: 0x6430, symBinAddr: 0x1107E0, symSize: 0x260 }
  - { offsetInCU: 0x1F041, offset: 0x54F8F1, size: 0x8, addend: 0x0, symName: '__ZN4core3ptr37drop_in_place$LT$syn..stmt..Block$GT$17hcc21a21cf949414cE', symObjAddr: 0x6690, symBinAddr: 0x110A40, symSize: 0xD0 }
  - { offsetInCU: 0x1F304, offset: 0x54FBB4, size: 0x8, addend: 0x0, symName: '__ZN4core3ptr38drop_in_place$LT$syn..data..Fields$GT$17h1dd1b203befc1316E', symObjAddr: 0x6760, symBinAddr: 0x110B10, symSize: 0x190 }
  - { offsetInCU: 0x1F722, offset: 0x54FFD2, size: 0x8, addend: 0x0, symName: '__ZN4core3ptr38drop_in_place$LT$syn..expr..Member$GT$17h022cbe5553aa40faE', symObjAddr: 0x68F0, symBinAddr: 0x110CA0, symSize: 0x30 }
  - { offsetInCU: 0x1F81F, offset: 0x5500CF, size: 0x8, addend: 0x0, symName: '__ZN4core3ptr39drop_in_place$LT$proc_macro2..Ident$GT$17h8101e88c3ac359d6E', symObjAddr: 0x6930, symBinAddr: 0x110CD0, symSize: 0x30 }
  - { offsetInCU: 0x1FA14, offset: 0x5502C4, size: 0x8, addend: 0x0, symName: '__ZN4core3ptr39drop_in_place$LT$syn..item..UseTree$GT$17h5b1281a5704d139dE', symObjAddr: 0x6960, symBinAddr: 0x110D00, symSize: 0x1D0 }
  - { offsetInCU: 0x20114, offset: 0x5509C4, size: 0x8, addend: 0x0, symName: '__ZN4core3ptr40drop_in_place$LT$syn..ty..ReturnType$GT$17h02cf41e2fec63d90E', symObjAddr: 0x6B30, symBinAddr: 0x110ED0, symSize: 0x50 }
  - { offsetInCU: 0x20286, offset: 0x550B36, size: 0x8, addend: 0x0, symName: '__ZN4core3ptr41drop_in_place$LT$syn..expr..ExprConst$GT$17h725a13e551d9f276E', symObjAddr: 0x6B90, symBinAddr: 0x110F20, symSize: 0x180 }
  - { offsetInCU: 0x20838, offset: 0x5510E8, size: 0x8, addend: 0x0, symName: '__ZN4core3ptr41drop_in_place$LT$syn..item..Signature$GT$17h691f115807a5d1eeE', symObjAddr: 0x6D10, symBinAddr: 0x1110A0, symSize: 0x240 }
  - { offsetInCU: 0x210B1, offset: 0x551961, size: 0x8, addend: 0x0, symName: '__ZN4core3ptr43drop_in_place$LT$syn..data..FieldsNamed$GT$17hb2a97e73a85352cbE', symObjAddr: 0x6F50, symBinAddr: 0x1112E0, symSize: 0xE0 }
  - { offsetInCU: 0x213A0, offset: 0x551C50, size: 0x8, addend: 0x0, symName: '__ZN4core3ptr44drop_in_place$LT$syn..generics..Generics$GT$17h10dea28dec64f81eE', symObjAddr: 0x7030, symBinAddr: 0x1113C0, symSize: 0x40 }
  - { offsetInCU: 0x213BD, offset: 0x551C6D, size: 0x8, addend: 0x0, symName: '__ZN4core3ptr44drop_in_place$LT$syn..lifetime..Lifetime$GT$17hf0cdec2e9ec456d6E', symObjAddr: 0x7070, symBinAddr: 0x111400, symSize: 0x30 }
  - { offsetInCU: 0x21536, offset: 0x551DE6, size: 0x8, addend: 0x0, symName: '__ZN4core3ptr44drop_in_place$LT$syn..parse..ParseBuffer$GT$17hd0dadba44a19aec2E.llvm.2062191468462725206', symObjAddr: 0x70A0, symBinAddr: 0x111430, symSize: 0x70 }
  - { offsetInCU: 0x2196B, offset: 0x55221B, size: 0x8, addend: 0x0, symName: '__ZN4core3ptr45drop_in_place$LT$proc_macro2..TokenStream$GT$17h3405f6c513e9f6cbE', symObjAddr: 0x7110, symBinAddr: 0x1114A0, symSize: 0x140 }
  - { offsetInCU: 0x21DDA, offset: 0x55268A, size: 0x8, addend: 0x0, symName: '__ZN4core3ptr45drop_in_place$LT$syn..generics..TypeParam$GT$17he5eda51070b7de47E', symObjAddr: 0x7250, symBinAddr: 0x1115E0, symSize: 0x230 }
  - { offsetInCU: 0x225D6, offset: 0x552E86, size: 0x8, addend: 0x0, symName: '__ZN4core3ptr46drop_in_place$LT$syn..generics..ConstParam$GT$17hab0a58c4af8c549cE', symObjAddr: 0x7480, symBinAddr: 0x111810, symSize: 0x150 }
  - { offsetInCU: 0x22A00, offset: 0x5532B0, size: 0x8, addend: 0x0, symName: '__ZN4core3ptr47drop_in_place$LT$syn..path..GenericArgument$GT$17h54f8794633f96823E', symObjAddr: 0x75D0, symBinAddr: 0x111960, symSize: 0x4A0 }
  - { offsetInCU: 0x23AA7, offset: 0x554357, size: 0x8, addend: 0x0, symName: '__ZN4core3ptr49drop_in_place$LT$syn..generics..LifetimeParam$GT$17h41a7c7a290ea6289E', symObjAddr: 0x7A70, symBinAddr: 0x111E00, symSize: 0xF0 }
  - { offsetInCU: 0x23E61, offset: 0x554711, size: 0x8, addend: 0x0, symName: '__ZN4core3ptr49drop_in_place$LT$syn..restriction..Visibility$GT$17h2a932c493942ef80E', symObjAddr: 0x7B60, symBinAddr: 0x111EF0, symSize: 0x60 }
  - { offsetInCU: 0x23FE4, offset: 0x554894, size: 0x8, addend: 0x0, symName: '__ZN4core3ptr50drop_in_place$LT$syn..generics..TypeParamBound$GT$17hcd7771d4c6c221efE', symObjAddr: 0x7BC0, symBinAddr: 0x111F50, symSize: 0x160 }
  - { offsetInCU: 0x24404, offset: 0x554CB4, size: 0x8, addend: 0x0, symName: '__ZN4core3ptr58drop_in_place$LT$alloc..vec..Vec$LT$syn..expr..Arm$GT$$GT$17h1a55df3d2cba1daaE', symObjAddr: 0x7D20, symBinAddr: 0x1120B0, symSize: 0xD0 }
  - { offsetInCU: 0x24691, offset: 0x554F41, size: 0x8, addend: 0x0, symName: '__ZN4core3ptr59drop_in_place$LT$alloc..boxed..Box$LT$syn..pat..Pat$GT$$GT$17h563b135d87aca8abE', symObjAddr: 0x7DF0, symBinAddr: 0x112180, symSize: 0x50 }
  - { offsetInCU: 0x247EC, offset: 0x55509C, size: 0x8, addend: 0x0, symName: '__ZN4core3ptr59drop_in_place$LT$alloc..boxed..Box$LT$syn..ty..Type$GT$$GT$17hffed36bad83adacbE', symObjAddr: 0x7E40, symBinAddr: 0x1121D0, symSize: 0x50 }
  - { offsetInCU: 0x24947, offset: 0x5551F7, size: 0x8, addend: 0x0, symName: '__ZN4core3ptr59drop_in_place$LT$alloc..vec..Vec$LT$syn..stmt..Stmt$GT$$GT$17hb5c1acf3c61c43e2E.llvm.2062191468462725206', symObjAddr: 0x7E90, symBinAddr: 0x112220, symSize: 0xD0 }
  - { offsetInCU: 0x24BD4, offset: 0x555484, size: 0x8, addend: 0x0, symName: '__ZN4core3ptr61drop_in_place$LT$alloc..boxed..Box$LT$syn..expr..Expr$GT$$GT$17h01091e47f131475dE', symObjAddr: 0x7F60, symBinAddr: 0x1122F0, symSize: 0x50 }
  - { offsetInCU: 0x24DAB, offset: 0x55565B, size: 0x8, addend: 0x0, symName: '__ZN4core3ptr61drop_in_place$LT$syn..path..ParenthesizedGenericArguments$GT$17h43d4aac5494326a7E', symObjAddr: 0x7FB0, symBinAddr: 0x112340, symSize: 0x170 }
  - { offsetInCU: 0x25372, offset: 0x555C22, size: 0x8, addend: 0x0, symName: '__ZN4core3ptr62drop_in_place$LT$alloc..boxed..Box$LT$syn..stmt..Block$GT$$GT$17h30434998ae0f12a8E', symObjAddr: 0x8120, symBinAddr: 0x1124B0, symSize: 0xE0 }
  - { offsetInCU: 0x2574F, offset: 0x555FFF, size: 0x8, addend: 0x0, symName: '__ZN4core3ptr62drop_in_place$LT$syn..path..AngleBracketedGenericArguments$GT$17hc5b69f68243636ddE', symObjAddr: 0x8200, symBinAddr: 0x112590, symSize: 0x120 }
  - { offsetInCU: 0x25B65, offset: 0x556415, size: 0x8, addend: 0x0, symName: '__ZN4core3ptr63drop_in_place$LT$alloc..boxed..Box$LT$syn..lit..LitRepr$GT$$GT$17hd8839b7fb35ee7afE', symObjAddr: 0x8320, symBinAddr: 0x1126B0, symSize: 0x60 }
  - { offsetInCU: 0x25E3B, offset: 0x5566EB, size: 0x8, addend: 0x0, symName: '__ZN4core3ptr63drop_in_place$LT$alloc..vec..Vec$LT$syn..item..ImplItem$GT$$GT$17hda9ba61cc1df3d0eE', symObjAddr: 0x8380, symBinAddr: 0x112710, symSize: 0x80 }
  - { offsetInCU: 0x260B9, offset: 0x556969, size: 0x8, addend: 0x0, symName: '__ZN4core3ptr64drop_in_place$LT$alloc..boxed..Box$LT$syn..item..UseTree$GT$$GT$17he10cba0a4742709fE', symObjAddr: 0x8400, symBinAddr: 0x112790, symSize: 0x50 }
  - { offsetInCU: 0x26233, offset: 0x556AE3, size: 0x8, addend: 0x0, symName: '__ZN4core3ptr64drop_in_place$LT$alloc..boxed..Box$LT$syn..pat..FieldPat$GT$$GT$17h4980b70a7597cc08E', symObjAddr: 0x8450, symBinAddr: 0x1127E0, symSize: 0x140 }
  - { offsetInCU: 0x268DE, offset: 0x55718E, size: 0x8, addend: 0x0, symName: '__ZN4core3ptr64drop_in_place$LT$alloc..boxed..Box$LT$syn..ty..BareFnArg$GT$$GT$17h8b34096c620314efE', symObjAddr: 0x8590, symBinAddr: 0x112920, symSize: 0x140 }
  - { offsetInCU: 0x26E02, offset: 0x5576B2, size: 0x8, addend: 0x0, symName: '__ZN4core3ptr64drop_in_place$LT$alloc..vec..Vec$LT$syn..item..TraitItem$GT$$GT$17h60eb4b8666c57b93E', symObjAddr: 0x87A0, symBinAddr: 0x112A60, symSize: 0x80 }
  - { offsetInCU: 0x27080, offset: 0x557930, size: 0x8, addend: 0x0, symName: '__ZN4core3ptr65drop_in_place$LT$core..option..Option$LT$syn..expr..Label$GT$$GT$17h78189e72a8cb7951E', symObjAddr: 0x8820, symBinAddr: 0x112AE0, symSize: 0x30 }
  - { offsetInCU: 0x271BB, offset: 0x557A6B, size: 0x8, addend: 0x0, symName: '__ZN4core3ptr66drop_in_place$LT$alloc..vec..Vec$LT$syn..item..ForeignItem$GT$$GT$17h3e58b8e683c84cf4E', symObjAddr: 0x8850, symBinAddr: 0x112B10, symSize: 0x80 }
  - { offsetInCU: 0x27439, offset: 0x557CE9, size: 0x8, addend: 0x0, symName: '__ZN4core3ptr66drop_in_place$LT$core..option..Option$LT$syn..pat..PatRest$GT$$GT$17h61677cf4ff3a7393E', symObjAddr: 0x88D0, symBinAddr: 0x112B90, symSize: 0xE0 }
  - { offsetInCU: 0x276BD, offset: 0x557F6D, size: 0x8, addend: 0x0, symName: '__ZN4core3ptr67drop_in_place$LT$alloc..boxed..Box$LT$syn..expr..FieldValue$GT$$GT$17h93aaccf8aa22ef88E', symObjAddr: 0x89B0, symBinAddr: 0x112C70, symSize: 0x140 }
  - { offsetInCU: 0x27BC1, offset: 0x558471, size: 0x8, addend: 0x0, symName: '__ZN4core3ptr68drop_in_place$LT$alloc..boxed..Box$LT$syn..path..PathSegment$GT$$GT$17h709dabdc13b58a71E', symObjAddr: 0x8AF0, symBinAddr: 0x112DB0, symSize: 0x190 }
  - { offsetInCU: 0x282DD, offset: 0x558B8D, size: 0x8, addend: 0x0, symName: '__ZN4core3ptr68drop_in_place$LT$core..option..Option$LT$syn..item..Variadic$GT$$GT$17hc6fc8899a00a03e2E', symObjAddr: 0x8C80, symBinAddr: 0x112F40, symSize: 0x130 }
  - { offsetInCU: 0x287FB, offset: 0x5590AB, size: 0x8, addend: 0x0, symName: '__ZN4core3ptr69drop_in_place$LT$core..option..Option$LT$syn..stmt..LocalInit$GT$$GT$17h7427177b3fce4dc2E', symObjAddr: 0x8DB0, symBinAddr: 0x113070, symSize: 0xD0 }
  - { offsetInCU: 0x28BEF, offset: 0x55949F, size: 0x8, addend: 0x0, symName: '__ZN4core3ptr70drop_in_place$LT$core..option..Option$LT$syn..ty..BareVariadic$GT$$GT$17h45399348ea4b8d55E', symObjAddr: 0x8E80, symBinAddr: 0x113140, symSize: 0x120 }
  - { offsetInCU: 0x2911C, offset: 0x5599CC, size: 0x8, addend: 0x0, symName: '__ZN4core3ptr72drop_in_place$LT$alloc..boxed..Box$LT$syn..path..GenericArgument$GT$$GT$17haa7dd8b716637b54E', symObjAddr: 0x8FA0, symBinAddr: 0x113260, symSize: 0x1D0 }
  - { offsetInCU: 0x296BF, offset: 0x559F6F, size: 0x8, addend: 0x0, symName: '__ZN4core3ptr72drop_in_place$LT$core..option..Option$LT$syn..lifetime..Lifetime$GT$$GT$17hfc363ccdd8bd9c32E', symObjAddr: 0x9170, symBinAddr: 0x113430, symSize: 0x30 }
  - { offsetInCU: 0x297DB, offset: 0x55A08B, size: 0x8, addend: 0x0, symName: '__ZN4core3ptr73drop_in_place$LT$alloc..boxed..Box$LT$syn..generics..GenericParam$GT$$GT$17hf6951dcd5ae07324E', symObjAddr: 0x91A0, symBinAddr: 0x113460, symSize: 0x80 }
  - { offsetInCU: 0x29953, offset: 0x55A203, size: 0x8, addend: 0x0, symName: '__ZN4core3ptr75drop_in_place$LT$alloc..boxed..Box$LT$syn..generics..TypeParamBound$GT$$GT$17he61c00698a311a34E', symObjAddr: 0x9220, symBinAddr: 0x1134E0, symSize: 0xB0 }
  - { offsetInCU: 0x29CCD, offset: 0x55A57D, size: 0x8, addend: 0x0, symName: '__ZN4core3ptr75drop_in_place$LT$core..option..Option$LT$syn..generics..WhereClause$GT$$GT$17hdce7670be9790a3dE', symObjAddr: 0x92D0, symBinAddr: 0x113590, symSize: 0x90 }
  - { offsetInCU: 0x29F83, offset: 0x55A833, size: 0x8, addend: 0x0, symName: '__ZN4core3ptr86drop_in_place$LT$syn..punctuated..Punctuated$LT$syn..pat..Pat$C$syn..token..Or$GT$$GT$17h8e9173df21a44316E', symObjAddr: 0x9360, symBinAddr: 0x113620, symSize: 0x120 }
  - { offsetInCU: 0x2A3C9, offset: 0x55AC79, size: 0x8, addend: 0x0, symName: '__ZN4core3ptr87drop_in_place$LT$core..option..Option$LT$alloc..boxed..Box$LT$syn..pat..Pat$GT$$GT$$GT$17hd7b7c69f601b3926E', symObjAddr: 0x9480, symBinAddr: 0x113740, symSize: 0x50 }
  - { offsetInCU: 0x2A53B, offset: 0x55ADEB, size: 0x8, addend: 0x0, symName: '__ZN4core3ptr87drop_in_place$LT$core..option..Option$LT$alloc..boxed..Box$LT$syn..ty..Type$GT$$GT$$GT$17hd74f5d971aec2972E', symObjAddr: 0x94D0, symBinAddr: 0x113790, symSize: 0x50 }
  - { offsetInCU: 0x2A6AD, offset: 0x55AF5D, size: 0x8, addend: 0x0, symName: '__ZN4core3ptr89drop_in_place$LT$core..option..Option$LT$alloc..boxed..Box$LT$syn..expr..Expr$GT$$GT$$GT$17h8e135ac1a25a2dc5E', symObjAddr: 0x9520, symBinAddr: 0x1137E0, symSize: 0x50 }
  - { offsetInCU: 0x2A85D, offset: 0x55B10D, size: 0x8, addend: 0x0, symName: '__ZN4core3ptr89drop_in_place$LT$syn..punctuated..Punctuated$LT$syn..pat..Pat$C$syn..token..Comma$GT$$GT$17h8d60e47f3fb1f87aE', symObjAddr: 0x9570, symBinAddr: 0x113830, symSize: 0x120 }
  - { offsetInCU: 0x2ACBA, offset: 0x55B56A, size: 0x8, addend: 0x0, symName: '__ZN4core3ptr89drop_in_place$LT$syn..punctuated..Punctuated$LT$syn..ty..Type$C$syn..token..Comma$GT$$GT$17ha919b3114742fb9dE', symObjAddr: 0x9690, symBinAddr: 0x113950, symSize: 0x120 }
  - { offsetInCU: 0x2B142, offset: 0x55B9F2, size: 0x8, addend: 0x0, symName: '__ZN4core3ptr90drop_in_place$LT$core..option..Option$LT$alloc..boxed..Box$LT$syn..data..Field$GT$$GT$$GT$17h326c39537b0fcc46E', symObjAddr: 0x97B0, symBinAddr: 0x113A70, symSize: 0x200 }
  - { offsetInCU: 0x2BA14, offset: 0x55C2C4, size: 0x8, addend: 0x0, symName: '__ZN4core3ptr90drop_in_place$LT$core..option..Option$LT$alloc..boxed..Box$LT$syn..item..FnArg$GT$$GT$$GT$17hbae3fdd388277508E', symObjAddr: 0x99B0, symBinAddr: 0x113C70, symSize: 0x2B0 }
  - { offsetInCU: 0x2C52E, offset: 0x55CDDE, size: 0x8, addend: 0x0, symName: '__ZN4core3ptr90drop_in_place$LT$core..option..Option$LT$syn..path..AngleBracketedGenericArguments$GT$$GT$17h80d9a5f0818c8bd9E', symObjAddr: 0x9C60, symBinAddr: 0x113F20, symSize: 0x130 }
  - { offsetInCU: 0x2C999, offset: 0x55D249, size: 0x8, addend: 0x0, symName: '__ZN4core3ptr91drop_in_place$LT$syn..punctuated..Punctuated$LT$syn..expr..Expr$C$syn..token..Comma$GT$$GT$17h4f39b83dc86a4159E', symObjAddr: 0x9D90, symBinAddr: 0x114050, symSize: 0x120 }
  - { offsetInCU: 0x2CDF6, offset: 0x55D6A6, size: 0x8, addend: 0x0, symName: '__ZN4core3ptr92drop_in_place$LT$core..option..Option$LT$$LP$syn..token..As$C$proc_macro2..Ident$RP$$GT$$GT$17h5c1a47ccb35d9d7eE', symObjAddr: 0x9EB0, symBinAddr: 0x114170, symSize: 0x30 }
  - { offsetInCU: 0x2CF8E, offset: 0x55D83E, size: 0x8, addend: 0x0, symName: '__ZN4core3ptr92drop_in_place$LT$core..option..Option$LT$alloc..boxed..Box$LT$syn..data..Variant$GT$$GT$$GT$17h3f89d7c982191526E', symObjAddr: 0x9EE0, symBinAddr: 0x1141A0, symSize: 0x190 }
  - { offsetInCU: 0x2D5DA, offset: 0x55DE8A, size: 0x8, addend: 0x0, symName: '__ZN4core3ptr92drop_in_place$LT$syn..punctuated..Punctuated$LT$syn..item..FnArg$C$syn..token..Comma$GT$$GT$17h75db9d232662c7d3E', symObjAddr: 0xA070, symBinAddr: 0x114330, symSize: 0xE0 }
  - { offsetInCU: 0x2D8A4, offset: 0x55E154, size: 0x8, addend: 0x0, symName: '__ZN4core3ptr94drop_in_place$LT$syn..punctuated..Punctuated$LT$syn..data..Variant$C$syn..token..Comma$GT$$GT$17ha69d7e675441c7e2E', symObjAddr: 0xA150, symBinAddr: 0x114410, symSize: 0xE0 }
  - { offsetInCU: 0x2DB74, offset: 0x55E424, size: 0x8, addend: 0x0, symName: '__ZN4core3ptr94drop_in_place$LT$syn..punctuated..Punctuated$LT$syn..pat..FieldPat$C$syn..token..Comma$GT$$GT$17h112950ea198c8281E', symObjAddr: 0xA230, symBinAddr: 0x1144F0, symSize: 0xF0 }
  - { offsetInCU: 0x2DE3E, offset: 0x55E6EE, size: 0x8, addend: 0x0, symName: '__ZN4core3ptr94drop_in_place$LT$syn..punctuated..Punctuated$LT$syn..ty..BareFnArg$C$syn..token..Comma$GT$$GT$17h1c7b44310f06243dE', symObjAddr: 0xA320, symBinAddr: 0x1145E0, symSize: 0xF0 }
  - { offsetInCU: 0x2E108, offset: 0x55E9B8, size: 0x8, addend: 0x0, symName: '__ZN4core3ptr96drop_in_place$LT$core..option..Option$LT$alloc..boxed..Box$LT$syn..path..PathSegment$GT$$GT$$GT$17hb447d0f626c86a4eE', symObjAddr: 0xA410, symBinAddr: 0x1146D0, symSize: 0x90 }
  - { offsetInCU: 0x2E38A, offset: 0x55EC3A, size: 0x8, addend: 0x0, symName: '__ZN4core3ptr97drop_in_place$LT$syn..punctuated..Punctuated$LT$syn..expr..FieldValue$C$syn..token..Comma$GT$$GT$17h31b81f7462228dcbE', symObjAddr: 0xA4A0, symBinAddr: 0x114760, symSize: 0xF0 }
  - { offsetInCU: 0x2E654, offset: 0x55EF04, size: 0x8, addend: 0x0, symName: '__ZN4core3ptr98drop_in_place$LT$alloc..vec..Vec$LT$$LP$syn..path..GenericArgument$C$syn..token..Comma$RP$$GT$$GT$17h0657ff261f33b640E', symObjAddr: 0xA590, symBinAddr: 0x114850, symSize: 0xD0 }
  - { offsetInCU: 0x2E95D, offset: 0x55F20D, size: 0x8, addend: 0x0, symName: '__ZN4core3ptr98drop_in_place$LT$syn..punctuated..Punctuated$LT$syn..lifetime..Lifetime$C$syn..token..Plus$GT$$GT$17h0f8fc5f20f465f47E', symObjAddr: 0xA660, symBinAddr: 0x114920, symSize: 0xC0 }
  - { offsetInCU: 0x348D4, offset: 0x565184, size: 0x8, addend: 0x0, symName: '__ZN3syn4stmt7parsing34_$LT$impl$u20$syn..stmt..Block$GT$12parse_within17h700f4312de5725a3E', symObjAddr: 0xA830, symBinAddr: 0x1149E0, symSize: 0x540 }
  - { offsetInCU: 0x44C6, offset: 0x56DF15, size: 0x8, addend: 0x0, symName: '__ZN64_$LT$alloc..boxed..Box$LT$T$GT$$u20$as$u20$syn..parse..Parse$GT$5parse17hbcec1c202c69a7d4E', symObjAddr: 0x7A80, symBinAddr: 0x11C810, symSize: 0xF0 }
  - { offsetInCU: 0x46A2, offset: 0x56E0F1, size: 0x8, addend: 0x0, symName: '__ZN64_$LT$alloc..boxed..Box$LT$T$GT$$u20$as$u20$syn..parse..Parse$GT$5parse17hdc862de91324b0b0E', symObjAddr: 0x7B70, symBinAddr: 0x11C900, symSize: 0x1B0 }
  - { offsetInCU: 0x7ACC, offset: 0x57151B, size: 0x8, addend: 0x0, symName: '__ZN4core3ptr100drop_in_place$LT$core..option..Option$LT$alloc..boxed..Box$LT$syn..path..GenericArgument$GT$$GT$$GT$17h7435c9de74860622E', symObjAddr: 0x90, symBinAddr: 0x115780, symSize: 0x50 }
  - { offsetInCU: 0x7E6C, offset: 0x5718BB, size: 0x8, addend: 0x0, symName: '__ZN4core3ptr100drop_in_place$LT$syn..punctuated..Punctuated$LT$syn..path..PathSegment$C$syn..token..PathSep$GT$$GT$17hf414cb3581f8337aE', symObjAddr: 0xE0, symBinAddr: 0x1157D0, symSize: 0x260 }
  - { offsetInCU: 0x8805, offset: 0x572254, size: 0x8, addend: 0x0, symName: '__ZN4core3ptr103drop_in_place$LT$core..option..Option$LT$alloc..boxed..Box$LT$syn..generics..TypeParamBound$GT$$GT$$GT$17h5974f03e36b1a9c3E', symObjAddr: 0x340, symBinAddr: 0x115A30, symSize: 0x50 }
  - { offsetInCU: 0x8A12, offset: 0x572461, size: 0x8, addend: 0x0, symName: '__ZN4core3ptr103drop_in_place$LT$syn..punctuated..Punctuated$LT$syn..generics..GenericParam$C$syn..token..Comma$GT$$GT$17hf42353fa44ed6da8E', symObjAddr: 0x390, symBinAddr: 0x115A80, symSize: 0xF0 }
  - { offsetInCU: 0x8ED5, offset: 0x572924, size: 0x8, addend: 0x0, symName: '__ZN4core3ptr104drop_in_place$LT$syn..punctuated..Punctuated$LT$syn..generics..TypeParamBound$C$syn..token..Plus$GT$$GT$17h532f52c4a894b056E', symObjAddr: 0x480, symBinAddr: 0x115B70, symSize: 0x190 }
  - { offsetInCU: 0x9548, offset: 0x572F97, size: 0x8, addend: 0x0, symName: '__ZN4core3ptr34drop_in_place$LT$syn..lit..Lit$GT$17h8902f5ff67917034E', symObjAddr: 0x610, symBinAddr: 0x115D00, symSize: 0x110 }
  - { offsetInCU: 0x9AA1, offset: 0x5734F0, size: 0x8, addend: 0x0, symName: '__ZN4core3ptr34drop_in_place$LT$syn..pat..Pat$GT$17h4581eea028ec0969E', symObjAddr: 0x720, symBinAddr: 0x115E10, symSize: 0x1000 }
  - { offsetInCU: 0xD5C6, offset: 0x577015, size: 0x8, addend: 0x0, symName: '__ZN4core3ptr34drop_in_place$LT$syn..ty..Type$GT$17h369e41ad4a9f1ae0E.llvm.10818439455205336655', symObjAddr: 0x1720, symBinAddr: 0x116E10, symSize: 0x4F0 }
  - { offsetInCU: 0xEB11, offset: 0x578560, size: 0x8, addend: 0x0, symName: '__ZN4core3ptr36drop_in_place$LT$syn..expr..Expr$GT$17h0f7fd4c749bae801E.llvm.10818439455205336655', symObjAddr: 0x1C10, symBinAddr: 0x117300, symSize: 0x28E0 }
  - { offsetInCU: 0x17FA3, offset: 0x5819F2, size: 0x8, addend: 0x0, symName: '__ZN4core3ptr36drop_in_place$LT$syn..mac..Macro$GT$17h4ffde962df30ebe2E', symObjAddr: 0x44F0, symBinAddr: 0x119BE0, symSize: 0x40 }
  - { offsetInCU: 0x17FDD, offset: 0x581A2C, size: 0x8, addend: 0x0, symName: '__ZN4core3ptr36drop_in_place$LT$syn..path..Path$GT$17habea856181211e1cE', symObjAddr: 0x4530, symBinAddr: 0x119C20, symSize: 0x220 }
  - { offsetInCU: 0x18912, offset: 0x582361, size: 0x8, addend: 0x0, symName: '__ZN4core3ptr37drop_in_place$LT$syn..stmt..Block$GT$17hcc21a21cf949414cE', symObjAddr: 0x4750, symBinAddr: 0x119E40, symSize: 0xD0 }
  - { offsetInCU: 0x18BB6, offset: 0x582605, size: 0x8, addend: 0x0, symName: '__ZN4core3ptr38drop_in_place$LT$syn..expr..Member$GT$17h022cbe5553aa40faE', symObjAddr: 0x4820, symBinAddr: 0x119F10, symSize: 0x30 }
  - { offsetInCU: 0x18CB3, offset: 0x582702, size: 0x8, addend: 0x0, symName: '__ZN4core3ptr39drop_in_place$LT$proc_macro2..Ident$GT$17h8101e88c3ac359d6E', symObjAddr: 0x4850, symBinAddr: 0x119F40, symSize: 0x30 }
  - { offsetInCU: 0x18D91, offset: 0x5827E0, size: 0x8, addend: 0x0, symName: '__ZN4core3ptr40drop_in_place$LT$syn..ty..ReturnType$GT$17h02cf41e2fec63d90E', symObjAddr: 0x4880, symBinAddr: 0x119F70, symSize: 0x50 }
  - { offsetInCU: 0x18F03, offset: 0x582952, size: 0x8, addend: 0x0, symName: '__ZN4core3ptr41drop_in_place$LT$syn..expr..ExprConst$GT$17h725a13e551d9f276E', symObjAddr: 0x48D0, symBinAddr: 0x119FC0, symSize: 0x180 }
  - { offsetInCU: 0x19458, offset: 0x582EA7, size: 0x8, addend: 0x0, symName: '__ZN4core3ptr44drop_in_place$LT$syn..lifetime..Lifetime$GT$17hf0cdec2e9ec456d6E', symObjAddr: 0x4A60, symBinAddr: 0x11A140, symSize: 0x30 }
  - { offsetInCU: 0x1968B, offset: 0x5830DA, size: 0x8, addend: 0x0, symName: '__ZN4core3ptr45drop_in_place$LT$proc_macro2..TokenStream$GT$17h3405f6c513e9f6cbE', symObjAddr: 0x4A90, symBinAddr: 0x11A170, symSize: 0x140 }
  - { offsetInCU: 0x19AFA, offset: 0x583549, size: 0x8, addend: 0x0, symName: '__ZN4core3ptr45drop_in_place$LT$syn..generics..TypeParam$GT$17he5eda51070b7de47E', symObjAddr: 0x4BD0, symBinAddr: 0x11A2B0, symSize: 0x230 }
  - { offsetInCU: 0x1A2F6, offset: 0x583D45, size: 0x8, addend: 0x0, symName: '__ZN4core3ptr46drop_in_place$LT$syn..generics..ConstParam$GT$17hab0a58c4af8c549cE', symObjAddr: 0x4E00, symBinAddr: 0x11A4E0, symSize: 0x150 }
  - { offsetInCU: 0x1A720, offset: 0x58416F, size: 0x8, addend: 0x0, symName: '__ZN4core3ptr47drop_in_place$LT$syn..path..GenericArgument$GT$17h54f8794633f96823E', symObjAddr: 0x4F50, symBinAddr: 0x11A630, symSize: 0x4A0 }
  - { offsetInCU: 0x1B7C7, offset: 0x585216, size: 0x8, addend: 0x0, symName: '__ZN4core3ptr49drop_in_place$LT$syn..generics..LifetimeParam$GT$17h41a7c7a290ea6289E', symObjAddr: 0x53F0, symBinAddr: 0x11AAD0, symSize: 0xF0 }
  - { offsetInCU: 0x1BB81, offset: 0x5855D0, size: 0x8, addend: 0x0, symName: '__ZN4core3ptr50drop_in_place$LT$syn..generics..TypeParamBound$GT$17hcd7771d4c6c221efE', symObjAddr: 0x54E0, symBinAddr: 0x11ABC0, symSize: 0x160 }
  - { offsetInCU: 0x1BFA1, offset: 0x5859F0, size: 0x8, addend: 0x0, symName: '__ZN4core3ptr58drop_in_place$LT$alloc..vec..Vec$LT$syn..expr..Arm$GT$$GT$17h1a55df3d2cba1daaE', symObjAddr: 0x5640, symBinAddr: 0x11AD20, symSize: 0xD0 }
  - { offsetInCU: 0x1C22E, offset: 0x585C7D, size: 0x8, addend: 0x0, symName: '__ZN4core3ptr59drop_in_place$LT$alloc..boxed..Box$LT$syn..pat..Pat$GT$$GT$17h563b135d87aca8abE', symObjAddr: 0x5710, symBinAddr: 0x11ADF0, symSize: 0x50 }
  - { offsetInCU: 0x1C389, offset: 0x585DD8, size: 0x8, addend: 0x0, symName: '__ZN4core3ptr59drop_in_place$LT$alloc..boxed..Box$LT$syn..ty..Type$GT$$GT$17hffed36bad83adacbE', symObjAddr: 0x5760, symBinAddr: 0x11AE40, symSize: 0x50 }
  - { offsetInCU: 0x1C4E4, offset: 0x585F33, size: 0x8, addend: 0x0, symName: '__ZN4core3ptr61drop_in_place$LT$alloc..boxed..Box$LT$syn..expr..Expr$GT$$GT$17h01091e47f131475dE', symObjAddr: 0x57B0, symBinAddr: 0x11AE90, symSize: 0x50 }
  - { offsetInCU: 0x1C6BB, offset: 0x58610A, size: 0x8, addend: 0x0, symName: '__ZN4core3ptr61drop_in_place$LT$syn..path..ParenthesizedGenericArguments$GT$17h43d4aac5494326a7E', symObjAddr: 0x5800, symBinAddr: 0x11AEE0, symSize: 0x170 }
  - { offsetInCU: 0x1CC82, offset: 0x5866D1, size: 0x8, addend: 0x0, symName: '__ZN4core3ptr62drop_in_place$LT$syn..path..AngleBracketedGenericArguments$GT$17hc5b69f68243636ddE', symObjAddr: 0x5970, symBinAddr: 0x11B050, symSize: 0x120 }
  - { offsetInCU: 0x1D098, offset: 0x586AE7, size: 0x8, addend: 0x0, symName: '__ZN4core3ptr63drop_in_place$LT$alloc..boxed..Box$LT$syn..lit..LitRepr$GT$$GT$17hd8839b7fb35ee7afE', symObjAddr: 0x5A90, symBinAddr: 0x11B170, symSize: 0x60 }
  - { offsetInCU: 0x1D38D, offset: 0x586DDC, size: 0x8, addend: 0x0, symName: '__ZN4core3ptr64drop_in_place$LT$alloc..boxed..Box$LT$syn..pat..FieldPat$GT$$GT$17h4980b70a7597cc08E', symObjAddr: 0x5AF0, symBinAddr: 0x11B1D0, symSize: 0x140 }
  - { offsetInCU: 0x1DA38, offset: 0x587487, size: 0x8, addend: 0x0, symName: '__ZN4core3ptr64drop_in_place$LT$alloc..boxed..Box$LT$syn..ty..BareFnArg$GT$$GT$17h8b34096c620314efE', symObjAddr: 0x5C30, symBinAddr: 0x11B310, symSize: 0x140 }
  - { offsetInCU: 0x1DF5C, offset: 0x5879AB, size: 0x8, addend: 0x0, symName: '__ZN4core3ptr65drop_in_place$LT$core..option..Option$LT$syn..expr..Label$GT$$GT$17h78189e72a8cb7951E', symObjAddr: 0x5D70, symBinAddr: 0x11B450, symSize: 0x30 }
  - { offsetInCU: 0x1E097, offset: 0x587AE6, size: 0x8, addend: 0x0, symName: '__ZN4core3ptr66drop_in_place$LT$core..option..Option$LT$syn..pat..PatRest$GT$$GT$17h61677cf4ff3a7393E', symObjAddr: 0x5DA0, symBinAddr: 0x11B480, symSize: 0xE0 }
  - { offsetInCU: 0x1E31B, offset: 0x587D6A, size: 0x8, addend: 0x0, symName: '__ZN4core3ptr67drop_in_place$LT$alloc..boxed..Box$LT$syn..expr..FieldValue$GT$$GT$17h93aaccf8aa22ef88E', symObjAddr: 0x5E80, symBinAddr: 0x11B560, symSize: 0x140 }
  - { offsetInCU: 0x1E81F, offset: 0x58826E, size: 0x8, addend: 0x0, symName: '__ZN4core3ptr68drop_in_place$LT$alloc..boxed..Box$LT$syn..path..PathSegment$GT$$GT$17h709dabdc13b58a71E', symObjAddr: 0x5FC0, symBinAddr: 0x11B6A0, symSize: 0x190 }
  - { offsetInCU: 0x1EEFD, offset: 0x58894C, size: 0x8, addend: 0x0, symName: '__ZN4core3ptr70drop_in_place$LT$core..option..Option$LT$syn..ty..BareVariadic$GT$$GT$17h45399348ea4b8d55E', symObjAddr: 0x6150, symBinAddr: 0x11B830, symSize: 0x120 }
  - { offsetInCU: 0x1F42A, offset: 0x588E79, size: 0x8, addend: 0x0, symName: '__ZN4core3ptr72drop_in_place$LT$alloc..boxed..Box$LT$syn..path..GenericArgument$GT$$GT$17haa7dd8b716637b54E', symObjAddr: 0x6270, symBinAddr: 0x11B950, symSize: 0x1D0 }
  - { offsetInCU: 0x1F9CD, offset: 0x58941C, size: 0x8, addend: 0x0, symName: '__ZN4core3ptr72drop_in_place$LT$core..option..Option$LT$syn..lifetime..Lifetime$GT$$GT$17hfc363ccdd8bd9c32E', symObjAddr: 0x6440, symBinAddr: 0x11BB20, symSize: 0x30 }
  - { offsetInCU: 0x1FAE9, offset: 0x589538, size: 0x8, addend: 0x0, symName: '__ZN4core3ptr73drop_in_place$LT$alloc..boxed..Box$LT$syn..generics..GenericParam$GT$$GT$17hf6951dcd5ae07324E', symObjAddr: 0x6470, symBinAddr: 0x11BB50, symSize: 0x80 }
  - { offsetInCU: 0x1FC61, offset: 0x5896B0, size: 0x8, addend: 0x0, symName: '__ZN4core3ptr75drop_in_place$LT$alloc..boxed..Box$LT$syn..generics..TypeParamBound$GT$$GT$17he61c00698a311a34E', symObjAddr: 0x64F0, symBinAddr: 0x11BBD0, symSize: 0xB0 }
  - { offsetInCU: 0x1FFBC, offset: 0x589A0B, size: 0x8, addend: 0x0, symName: '__ZN4core3ptr86drop_in_place$LT$syn..punctuated..Punctuated$LT$syn..pat..Pat$C$syn..token..Or$GT$$GT$17h8e9173df21a44316E', symObjAddr: 0x65A0, symBinAddr: 0x11BC80, symSize: 0x120 }
  - { offsetInCU: 0x20402, offset: 0x589E51, size: 0x8, addend: 0x0, symName: '__ZN4core3ptr87drop_in_place$LT$core..option..Option$LT$alloc..boxed..Box$LT$syn..pat..Pat$GT$$GT$$GT$17hd7b7c69f601b3926E', symObjAddr: 0x66C0, symBinAddr: 0x11BDA0, symSize: 0x50 }
  - { offsetInCU: 0x20574, offset: 0x589FC3, size: 0x8, addend: 0x0, symName: '__ZN4core3ptr87drop_in_place$LT$core..option..Option$LT$alloc..boxed..Box$LT$syn..ty..Type$GT$$GT$$GT$17hd74f5d971aec2972E', symObjAddr: 0x6710, symBinAddr: 0x11BDF0, symSize: 0x50 }
  - { offsetInCU: 0x206E6, offset: 0x58A135, size: 0x8, addend: 0x0, symName: '__ZN4core3ptr89drop_in_place$LT$core..option..Option$LT$alloc..boxed..Box$LT$syn..expr..Expr$GT$$GT$$GT$17h8e135ac1a25a2dc5E', symObjAddr: 0x6760, symBinAddr: 0x11BE40, symSize: 0x50 }
  - { offsetInCU: 0x20896, offset: 0x58A2E5, size: 0x8, addend: 0x0, symName: '__ZN4core3ptr89drop_in_place$LT$syn..punctuated..Punctuated$LT$syn..pat..Pat$C$syn..token..Comma$GT$$GT$17h8d60e47f3fb1f87aE', symObjAddr: 0x67B0, symBinAddr: 0x11BE90, symSize: 0x120 }
  - { offsetInCU: 0x20CF3, offset: 0x58A742, size: 0x8, addend: 0x0, symName: '__ZN4core3ptr89drop_in_place$LT$syn..punctuated..Punctuated$LT$syn..ty..Type$C$syn..token..Comma$GT$$GT$17ha919b3114742fb9dE', symObjAddr: 0x68D0, symBinAddr: 0x11BFB0, symSize: 0x120 }
  - { offsetInCU: 0x2113D, offset: 0x58AB8C, size: 0x8, addend: 0x0, symName: '__ZN4core3ptr90drop_in_place$LT$core..option..Option$LT$syn..path..AngleBracketedGenericArguments$GT$$GT$17h80d9a5f0818c8bd9E', symObjAddr: 0x69F0, symBinAddr: 0x11C0D0, symSize: 0x130 }
  - { offsetInCU: 0x215A8, offset: 0x58AFF7, size: 0x8, addend: 0x0, symName: '__ZN4core3ptr91drop_in_place$LT$syn..punctuated..Punctuated$LT$syn..expr..Expr$C$syn..token..Comma$GT$$GT$17h4f39b83dc86a4159E', symObjAddr: 0x6B20, symBinAddr: 0x11C200, symSize: 0x120 }
  - { offsetInCU: 0x21A05, offset: 0x58B454, size: 0x8, addend: 0x0, symName: '__ZN4core3ptr94drop_in_place$LT$syn..punctuated..Punctuated$LT$syn..pat..FieldPat$C$syn..token..Comma$GT$$GT$17h112950ea198c8281E', symObjAddr: 0x6C40, symBinAddr: 0x11C320, symSize: 0xF0 }
  - { offsetInCU: 0x21CCF, offset: 0x58B71E, size: 0x8, addend: 0x0, symName: '__ZN4core3ptr94drop_in_place$LT$syn..punctuated..Punctuated$LT$syn..ty..BareFnArg$C$syn..token..Comma$GT$$GT$17h1c7b44310f06243dE', symObjAddr: 0x6D30, symBinAddr: 0x11C410, symSize: 0xF0 }
  - { offsetInCU: 0x21F99, offset: 0x58B9E8, size: 0x8, addend: 0x0, symName: '__ZN4core3ptr96drop_in_place$LT$core..option..Option$LT$alloc..boxed..Box$LT$syn..path..PathSegment$GT$$GT$$GT$17hb447d0f626c86a4eE', symObjAddr: 0x6E20, symBinAddr: 0x11C500, symSize: 0x90 }
  - { offsetInCU: 0x2221B, offset: 0x58BC6A, size: 0x8, addend: 0x0, symName: '__ZN4core3ptr97drop_in_place$LT$syn..punctuated..Punctuated$LT$syn..expr..FieldValue$C$syn..token..Comma$GT$$GT$17h31b81f7462228dcbE', symObjAddr: 0x6EB0, symBinAddr: 0x11C590, symSize: 0xF0 }
  - { offsetInCU: 0x224E5, offset: 0x58BF34, size: 0x8, addend: 0x0, symName: '__ZN4core3ptr98drop_in_place$LT$alloc..vec..Vec$LT$$LP$syn..path..GenericArgument$C$syn..token..Comma$RP$$GT$$GT$17h0657ff261f33b640E', symObjAddr: 0x6FA0, symBinAddr: 0x11C680, symSize: 0xD0 }
  - { offsetInCU: 0x227EE, offset: 0x58C23D, size: 0x8, addend: 0x0, symName: '__ZN4core3ptr98drop_in_place$LT$syn..punctuated..Punctuated$LT$syn..lifetime..Lifetime$C$syn..token..Plus$GT$$GT$17h0f8fc5f20f465f47E', symObjAddr: 0x7070, symBinAddr: 0x11C750, symSize: 0xC0 }
  - { offsetInCU: 0x1E, offset: 0x592051, size: 0x8, addend: 0x0, symName: '__ZN4core3ptr100drop_in_place$LT$core..option..Option$LT$alloc..boxed..Box$LT$syn..path..GenericArgument$GT$$GT$$GT$17h7435c9de74860622E', symObjAddr: 0x0, symBinAddr: 0x11CAB0, symSize: 0x50 }
  - { offsetInCU: 0x16A1, offset: 0x5936D4, size: 0x8, addend: 0x0, symName: '__ZN4core3ptr100drop_in_place$LT$core..option..Option$LT$alloc..boxed..Box$LT$syn..path..GenericArgument$GT$$GT$$GT$17h7435c9de74860622E', symObjAddr: 0x0, symBinAddr: 0x11CAB0, symSize: 0x50 }
  - { offsetInCU: 0x1870, offset: 0x5938A3, size: 0x8, addend: 0x0, symName: '__ZN4core3ptr102drop_in_place$LT$syn..punctuated..Punctuated$LT$syn..path..GenericArgument$C$syn..token..Comma$GT$$GT$17h39496ba4e6dba6cfE', symObjAddr: 0x50, symBinAddr: 0x11CB00, symSize: 0xF0 }
  - { offsetInCU: 0x1B59, offset: 0x593B8C, size: 0x8, addend: 0x0, symName: '__ZN4core3ptr103drop_in_place$LT$core..option..Option$LT$alloc..boxed..Box$LT$syn..generics..TypeParamBound$GT$$GT$$GT$17h5974f03e36b1a9c3E', symObjAddr: 0x140, symBinAddr: 0x11CBF0, symSize: 0x50 }
  - { offsetInCU: 0x1D66, offset: 0x593D99, size: 0x8, addend: 0x0, symName: '__ZN4core3ptr103drop_in_place$LT$syn..punctuated..Punctuated$LT$syn..generics..GenericParam$C$syn..token..Comma$GT$$GT$17hf42353fa44ed6da8E', symObjAddr: 0x190, symBinAddr: 0x11CC40, symSize: 0xF0 }
  - { offsetInCU: 0x2302, offset: 0x594335, size: 0x8, addend: 0x0, symName: '__ZN4core3ptr104drop_in_place$LT$syn..punctuated..Punctuated$LT$syn..generics..TypeParamBound$C$syn..token..Plus$GT$$GT$17h532f52c4a894b056E', symObjAddr: 0x280, symBinAddr: 0x11CD30, symSize: 0x230 }
  - { offsetInCU: 0x2B64, offset: 0x594B97, size: 0x8, addend: 0x0, symName: '__ZN4core3ptr116drop_in_place$LT$core..option..Option$LT$$LP$syn..token..Else$C$alloc..boxed..Box$LT$syn..expr..Expr$GT$$RP$$GT$$GT$17hce47d33a8602d206E', symObjAddr: 0x4B0, symBinAddr: 0x11CF60, symSize: 0x50 }
  - { offsetInCU: 0x2D91, offset: 0x594DC4, size: 0x8, addend: 0x0, symName: '__ZN4core3ptr34drop_in_place$LT$syn..lit..Lit$GT$17h8902f5ff67917034E', symObjAddr: 0x500, symBinAddr: 0x11CFB0, symSize: 0x110 }
  - { offsetInCU: 0x32CB, offset: 0x5952FE, size: 0x8, addend: 0x0, symName: '__ZN4core3ptr34drop_in_place$LT$syn..pat..Pat$GT$17h4581eea028ec0969E', symObjAddr: 0x610, symBinAddr: 0x11D0C0, symSize: 0xEE0 }
  - { offsetInCU: 0x691A, offset: 0x59894D, size: 0x8, addend: 0x0, symName: '__ZN4core3ptr34drop_in_place$LT$syn..ty..Type$GT$17h369e41ad4a9f1ae0E', symObjAddr: 0x14F0, symBinAddr: 0x11DFA0, symSize: 0x5C0 }
  - { offsetInCU: 0x8131, offset: 0x59A164, size: 0x8, addend: 0x0, symName: '__ZN4core3ptr36drop_in_place$LT$syn..expr..Expr$GT$17h0f7fd4c749bae801E', symObjAddr: 0x1AB0, symBinAddr: 0x11E560, symSize: 0x2800 }
  - { offsetInCU: 0x1130E, offset: 0x5A3341, size: 0x8, addend: 0x0, symName: '__ZN4core3ptr36drop_in_place$LT$syn..mac..Macro$GT$17h4ffde962df30ebe2E', symObjAddr: 0x42B0, symBinAddr: 0x120D60, symSize: 0xE0 }
  - { offsetInCU: 0x1167F, offset: 0x5A36B2, size: 0x8, addend: 0x0, symName: '__ZN4core3ptr36drop_in_place$LT$syn..path..Path$GT$17habea856181211e1cE', symObjAddr: 0x4390, symBinAddr: 0x120E40, symSize: 0x220 }
  - { offsetInCU: 0x11FB4, offset: 0x5A3FE7, size: 0x8, addend: 0x0, symName: '__ZN4core3ptr37drop_in_place$LT$syn..stmt..Block$GT$17hcc21a21cf949414cE', symObjAddr: 0x45B0, symBinAddr: 0x121060, symSize: 0xD0 }
  - { offsetInCU: 0x12258, offset: 0x5A428B, size: 0x8, addend: 0x0, symName: '__ZN4core3ptr38drop_in_place$LT$syn..expr..Member$GT$17h022cbe5553aa40faE', symObjAddr: 0x4680, symBinAddr: 0x121130, symSize: 0x30 }
  - { offsetInCU: 0x12355, offset: 0x5A4388, size: 0x8, addend: 0x0, symName: '__ZN4core3ptr39drop_in_place$LT$proc_macro2..Ident$GT$17h8101e88c3ac359d6E', symObjAddr: 0x46B0, symBinAddr: 0x121160, symSize: 0x30 }
  - { offsetInCU: 0x12433, offset: 0x5A4466, size: 0x8, addend: 0x0, symName: '__ZN4core3ptr40drop_in_place$LT$syn..ty..ReturnType$GT$17h02cf41e2fec63d90E', symObjAddr: 0x46E0, symBinAddr: 0x121190, symSize: 0x50 }
  - { offsetInCU: 0x125A5, offset: 0x5A45D8, size: 0x8, addend: 0x0, symName: '__ZN4core3ptr41drop_in_place$LT$syn..expr..ExprConst$GT$17h725a13e551d9f276E', symObjAddr: 0x4730, symBinAddr: 0x1211E0, symSize: 0x180 }
  - { offsetInCU: 0x12AFA, offset: 0x5A4B2D, size: 0x8, addend: 0x0, symName: '__ZN4core3ptr44drop_in_place$LT$syn..lifetime..Lifetime$GT$17hf0cdec2e9ec456d6E', symObjAddr: 0x48B0, symBinAddr: 0x121360, symSize: 0x30 }
  - { offsetInCU: 0x12C73, offset: 0x5A4CA6, size: 0x8, addend: 0x0, symName: '__ZN4core3ptr44drop_in_place$LT$syn..parse..ParseBuffer$GT$17hd0dadba44a19aec2E', symObjAddr: 0x48E0, symBinAddr: 0x121390, symSize: 0x70 }
  - { offsetInCU: 0x130A8, offset: 0x5A50DB, size: 0x8, addend: 0x0, symName: '__ZN4core3ptr45drop_in_place$LT$proc_macro2..TokenStream$GT$17h3405f6c513e9f6cbE', symObjAddr: 0x4950, symBinAddr: 0x121400, symSize: 0x140 }
  - { offsetInCU: 0x13517, offset: 0x5A554A, size: 0x8, addend: 0x0, symName: '__ZN4core3ptr45drop_in_place$LT$syn..generics..TypeParam$GT$17he5eda51070b7de47E', symObjAddr: 0x4A90, symBinAddr: 0x121540, symSize: 0x230 }
  - { offsetInCU: 0x13D13, offset: 0x5A5D46, size: 0x8, addend: 0x0, symName: '__ZN4core3ptr46drop_in_place$LT$syn..generics..ConstParam$GT$17hab0a58c4af8c549cE', symObjAddr: 0x4CC0, symBinAddr: 0x121770, symSize: 0x150 }
  - { offsetInCU: 0x1413D, offset: 0x5A6170, size: 0x8, addend: 0x0, symName: '__ZN4core3ptr47drop_in_place$LT$syn..path..GenericArgument$GT$17h54f8794633f96823E', symObjAddr: 0x4E10, symBinAddr: 0x1218C0, symSize: 0x460 }
  - { offsetInCU: 0x14E46, offset: 0x5A6E79, size: 0x8, addend: 0x0, symName: '__ZN4core3ptr49drop_in_place$LT$syn..generics..LifetimeParam$GT$17h41a7c7a290ea6289E', symObjAddr: 0x5270, symBinAddr: 0x121D20, symSize: 0xF0 }
  - { offsetInCU: 0x15200, offset: 0x5A7233, size: 0x8, addend: 0x0, symName: '__ZN4core3ptr50drop_in_place$LT$syn..generics..TypeParamBound$GT$17hcd7771d4c6c221efE', symObjAddr: 0x5360, symBinAddr: 0x121E10, symSize: 0xA0 }
  - { offsetInCU: 0x15367, offset: 0x5A739A, size: 0x8, addend: 0x0, symName: '__ZN4core3ptr58drop_in_place$LT$alloc..vec..Vec$LT$syn..expr..Arm$GT$$GT$17h1a55df3d2cba1daaE', symObjAddr: 0x5400, symBinAddr: 0x121EB0, symSize: 0xD0 }
  - { offsetInCU: 0x155F4, offset: 0x5A7627, size: 0x8, addend: 0x0, symName: '__ZN4core3ptr59drop_in_place$LT$alloc..boxed..Box$LT$syn..pat..Pat$GT$$GT$17h563b135d87aca8abE', symObjAddr: 0x54D0, symBinAddr: 0x121F80, symSize: 0x50 }
  - { offsetInCU: 0x1574F, offset: 0x5A7782, size: 0x8, addend: 0x0, symName: '__ZN4core3ptr59drop_in_place$LT$alloc..boxed..Box$LT$syn..ty..Type$GT$$GT$17hffed36bad83adacbE', symObjAddr: 0x5520, symBinAddr: 0x121FD0, symSize: 0x50 }
  - { offsetInCU: 0x158AA, offset: 0x5A78DD, size: 0x8, addend: 0x0, symName: '__ZN4core3ptr61drop_in_place$LT$alloc..boxed..Box$LT$syn..expr..Expr$GT$$GT$17h01091e47f131475dE', symObjAddr: 0x5570, symBinAddr: 0x122020, symSize: 0x50 }
  - { offsetInCU: 0x15A05, offset: 0x5A7A38, size: 0x8, addend: 0x0, symName: '__ZN4core3ptr61drop_in_place$LT$syn..path..ParenthesizedGenericArguments$GT$17h43d4aac5494326a7E', symObjAddr: 0x55C0, symBinAddr: 0x122070, symSize: 0x170 }
  - { offsetInCU: 0x15FDF, offset: 0x5A8012, size: 0x8, addend: 0x0, symName: '__ZN4core3ptr63drop_in_place$LT$alloc..boxed..Box$LT$syn..lit..LitRepr$GT$$GT$17hd8839b7fb35ee7afE', symObjAddr: 0x5730, symBinAddr: 0x1221E0, symSize: 0x60 }
  - { offsetInCU: 0x162D4, offset: 0x5A8307, size: 0x8, addend: 0x0, symName: '__ZN4core3ptr64drop_in_place$LT$alloc..boxed..Box$LT$syn..pat..FieldPat$GT$$GT$17h4980b70a7597cc08E', symObjAddr: 0x5790, symBinAddr: 0x122240, symSize: 0x140 }
  - { offsetInCU: 0x1697F, offset: 0x5A89B2, size: 0x8, addend: 0x0, symName: '__ZN4core3ptr64drop_in_place$LT$alloc..boxed..Box$LT$syn..ty..BareFnArg$GT$$GT$17h8b34096c620314efE', symObjAddr: 0x58D0, symBinAddr: 0x122380, symSize: 0x140 }
  - { offsetInCU: 0x16EA3, offset: 0x5A8ED6, size: 0x8, addend: 0x0, symName: '__ZN4core3ptr64drop_in_place$LT$alloc..vec..Vec$LT$syn..attr..Attribute$GT$$GT$17h3c8f2a04e701c675E', symObjAddr: 0x5A10, symBinAddr: 0x1224C0, symSize: 0xD0 }
  - { offsetInCU: 0x17130, offset: 0x5A9163, size: 0x8, addend: 0x0, symName: '__ZN4core3ptr65drop_in_place$LT$core..option..Option$LT$syn..expr..Label$GT$$GT$17h78189e72a8cb7951E', symObjAddr: 0x5AE0, symBinAddr: 0x122590, symSize: 0x30 }
  - { offsetInCU: 0x1726B, offset: 0x5A929E, size: 0x8, addend: 0x0, symName: '__ZN4core3ptr66drop_in_place$LT$core..option..Option$LT$syn..pat..PatRest$GT$$GT$17h61677cf4ff3a7393E', symObjAddr: 0x5B10, symBinAddr: 0x1225C0, symSize: 0xE0 }
  - { offsetInCU: 0x174EF, offset: 0x5A9522, size: 0x8, addend: 0x0, symName: '__ZN4core3ptr67drop_in_place$LT$alloc..boxed..Box$LT$syn..expr..FieldValue$GT$$GT$17h93aaccf8aa22ef88E', symObjAddr: 0x5BF0, symBinAddr: 0x1226A0, symSize: 0x140 }
  - { offsetInCU: 0x17A12, offset: 0x5A9A45, size: 0x8, addend: 0x0, symName: '__ZN4core3ptr69drop_in_place$LT$core..option..Option$LT$syn..stmt..LocalInit$GT$$GT$17h7427177b3fce4dc2E', symObjAddr: 0x5D30, symBinAddr: 0x1227E0, symSize: 0xC0 }
  - { offsetInCU: 0x17DDE, offset: 0x5A9E11, size: 0x8, addend: 0x0, symName: '__ZN4core3ptr70drop_in_place$LT$core..option..Option$LT$syn..ty..BareVariadic$GT$$GT$17h45399348ea4b8d55E', symObjAddr: 0x5DF0, symBinAddr: 0x1228A0, symSize: 0x120 }
  - { offsetInCU: 0x1830B, offset: 0x5AA33E, size: 0x8, addend: 0x0, symName: '__ZN4core3ptr72drop_in_place$LT$alloc..boxed..Box$LT$syn..path..GenericArgument$GT$$GT$17haa7dd8b716637b54E', symObjAddr: 0x5F10, symBinAddr: 0x1229C0, symSize: 0x2B0 }
  - { offsetInCU: 0x18CF6, offset: 0x5AAD29, size: 0x8, addend: 0x0, symName: '__ZN4core3ptr72drop_in_place$LT$core..option..Option$LT$syn..lifetime..Lifetime$GT$$GT$17hfc363ccdd8bd9c32E', symObjAddr: 0x61C0, symBinAddr: 0x122C70, symSize: 0x30 }
  - { offsetInCU: 0x18E12, offset: 0x5AAE45, size: 0x8, addend: 0x0, symName: '__ZN4core3ptr73drop_in_place$LT$alloc..boxed..Box$LT$syn..generics..GenericParam$GT$$GT$17hf6951dcd5ae07324E', symObjAddr: 0x61F0, symBinAddr: 0x122CA0, symSize: 0x80 }
  - { offsetInCU: 0x18F8A, offset: 0x5AAFBD, size: 0x8, addend: 0x0, symName: '__ZN4core3ptr75drop_in_place$LT$alloc..boxed..Box$LT$syn..generics..TypeParamBound$GT$$GT$17he61c00698a311a34E', symObjAddr: 0x6270, symBinAddr: 0x122D20, symSize: 0x160 }
  - { offsetInCU: 0x19550, offset: 0x5AB583, size: 0x8, addend: 0x0, symName: '__ZN4core3ptr86drop_in_place$LT$syn..punctuated..Punctuated$LT$syn..pat..Pat$C$syn..token..Or$GT$$GT$17h8e9173df21a44316E', symObjAddr: 0x63D0, symBinAddr: 0x122E80, symSize: 0x120 }
  - { offsetInCU: 0x19996, offset: 0x5AB9C9, size: 0x8, addend: 0x0, symName: '__ZN4core3ptr87drop_in_place$LT$core..option..Option$LT$alloc..boxed..Box$LT$syn..pat..Pat$GT$$GT$$GT$17hd7b7c69f601b3926E', symObjAddr: 0x64F0, symBinAddr: 0x122FA0, symSize: 0x50 }
  - { offsetInCU: 0x19B08, offset: 0x5ABB3B, size: 0x8, addend: 0x0, symName: '__ZN4core3ptr87drop_in_place$LT$core..option..Option$LT$alloc..boxed..Box$LT$syn..ty..Type$GT$$GT$$GT$17hd74f5d971aec2972E', symObjAddr: 0x6540, symBinAddr: 0x122FF0, symSize: 0x50 }
  - { offsetInCU: 0x19C7A, offset: 0x5ABCAD, size: 0x8, addend: 0x0, symName: '__ZN4core3ptr89drop_in_place$LT$core..option..Option$LT$alloc..boxed..Box$LT$syn..expr..Expr$GT$$GT$$GT$17h8e135ac1a25a2dc5E', symObjAddr: 0x6590, symBinAddr: 0x123040, symSize: 0x50 }
