---
triple:          'x86_64-apple-darwin'
binary-path:     "/Users/justinlanouette/Chaos/ChaöS-Token/hello_world/target/release/build/proc-macro2-e39ee77d9a1b7f1f/build_script_build-e39ee77d9a1b7f1f"
relocations:
  - { offsetInCU: 0x1E, offset: 0x1E, size: 0x8, addend: 0x0, symName: '__ZN4core3ptr288drop_in_place$LT$core..iter..adapters..chain..Chain$LT$core..iter..adapters..chain..Chain$LT$core..option..IntoIter$LT$std..ffi..os_str..OsString$GT$$C$core..option..IntoIter$LT$std..ffi..os_str..OsString$GT$$GT$$C$core..iter..sources..once..Once$LT$std..ffi..os_str..OsString$GT$$GT$$GT$17h2208c3011fd0859bE', symObjAddr: 0x0, symBinAddr: 0x100000FC0, symSize: 0x90 }
  - { offsetInCU: 0xF07, offset: 0xF07, size: 0x8, addend: 0x0, symName: '__ZN4core3ptr288drop_in_place$LT$core..iter..adapters..chain..Chain$LT$core..iter..adapters..chain..Chain$LT$core..option..IntoIter$LT$std..ffi..os_str..OsString$GT$$C$core..option..IntoIter$LT$std..ffi..os_str..OsString$GT$$GT$$C$core..iter..sources..once..Once$LT$std..ffi..os_str..OsString$GT$$GT$$GT$17h2208c3011fd0859bE', symObjAddr: 0x0, symBinAddr: 0x100000FC0, symSize: 0x90 }
  - { offsetInCU: 0x1478, offset: 0x1478, size: 0x8, addend: 0x0, symName: '__ZN4core3ptr41drop_in_place$LT$std..process..Output$GT$17h1a55f4caedf010dcE', symObjAddr: 0x90, symBinAddr: 0x100001050, symSize: 0x50 }
  - { offsetInCU: 0x17B4, offset: 0x17B4, size: 0x8, addend: 0x0, symName: '__ZN4core3ptr42drop_in_place$LT$std..io..error..Error$GT$17h6f53b8d2aef4bbe8E', symObjAddr: 0xE0, symBinAddr: 0x1000010A0, symSize: 0xA0 }
  - { offsetInCU: 0x1E64, offset: 0x1E64, size: 0x8, addend: 0x0, symName: '__ZN4core3ptr42drop_in_place$LT$std..process..Command$GT$17h8e6bc02566439bf2E', symObjAddr: 0x180, symBinAddr: 0x100001140, symSize: 0x250 }
  - { offsetInCU: 0x555F, offset: 0x555F, size: 0x8, addend: 0x0, symName: '__ZN4core3str4iter22SplitInternal$LT$P$GT$4next17haca45c7ff7ac658bE', symObjAddr: 0x3D0, symBinAddr: 0x100001390, symSize: 0x220 }
  - { offsetInCU: 0x5A75, offset: 0x5A75, size: 0x8, addend: 0x0, symName: __ZN18build_script_build4main17h42738a8780b82e0bE, symObjAddr: 0x5F0, symBinAddr: 0x1000015B0, symSize: 0xB50 }
  - { offsetInCU: 0x6A6C, offset: 0x6A6C, size: 0x8, addend: 0x0, symName: __ZN18build_script_build13compile_probe17h7272165c11a6acb3E, symObjAddr: 0x1140, symBinAddr: 0x100002100, symSize: 0x840 }
  - { offsetInCU: 0xAF5, offset: 0xA0E1, size: 0x8, addend: 0x0, symName: '__ZN4core3ptr288drop_in_place$LT$core..iter..adapters..chain..Chain$LT$core..iter..adapters..chain..Chain$LT$core..option..IntoIter$LT$std..ffi..os_str..OsString$GT$$C$core..option..IntoIter$LT$std..ffi..os_str..OsString$GT$$GT$$C$core..iter..sources..once..Once$LT$std..ffi..os_str..OsString$GT$$GT$$GT$17h2208c3011fd0859bE', symObjAddr: 0x460, symBinAddr: 0x100002BF0, symSize: 0x90 }
  - { offsetInCU: 0x2223, offset: 0xB80F, size: 0x8, addend: 0x0, symName: __ZN3std7process7Command4args17h73eba520465f2a6fE, symObjAddr: 0x1B0, symBinAddr: 0x100002960, symSize: 0x290 }
  - { offsetInCU: 0x53E, offset: 0xC8D8, size: 0x8, addend: 0x0, symName: '__ZN70_$LT$alloc..vec..Vec$LT$T$C$A$GT$$u20$as$u20$core..ops..drop..Drop$GT$4drop17h860703c01f754650E', symObjAddr: 0x50, symBinAddr: 0x100002C80, symSize: 0xF0 }
  - { offsetInCU: 0x1E, offset: 0xCED9, size: 0x8, addend: 0x0, symName: '__ZN99_$LT$alloc..collections..btree..map..BTreeMap$LT$K$C$V$C$A$GT$$u20$as$u20$core..ops..drop..Drop$GT$4drop17h180cc5f154b3bb22E', symObjAddr: 0x0, symBinAddr: 0x100002D70, symSize: 0x3A8 }
  - { offsetInCU: 0xA24, offset: 0xD8DF, size: 0x8, addend: 0x0, symName: '__ZN99_$LT$alloc..collections..btree..map..BTreeMap$LT$K$C$V$C$A$GT$$u20$as$u20$core..ops..drop..Drop$GT$4drop17h180cc5f154b3bb22E', symObjAddr: 0x0, symBinAddr: 0x100002D70, symSize: 0x3A8 }
  - { offsetInCU: 0x1E, offset: 0xFB3F, size: 0x8, addend: 0x0, symName: __ZN3std2rt10lang_start17h86f932cfb57b29e0E, symObjAddr: 0x0, symBinAddr: 0x100003120, symSize: 0x30 }
  - { offsetInCU: 0x5B, offset: 0xFB7C, size: 0x8, addend: 0x0, symName: '__ZN3std2rt10lang_start28_$u7b$$u7b$closure$u7d$$u7d$17h45eded1ad8312affE', symObjAddr: 0x30, symBinAddr: 0x100003150, symSize: 0x10 }
  - { offsetInCU: 0x9F, offset: 0xFBC0, size: 0x8, addend: 0x0, symName: __ZN3std2rt10lang_start17h86f932cfb57b29e0E, symObjAddr: 0x0, symBinAddr: 0x100003120, symSize: 0x30 }
  - { offsetInCU: 0x15E, offset: 0xFC7F, size: 0x8, addend: 0x0, symName: '__ZN4core3ops8function6FnOnce40call_once$u7b$$u7b$vtable.shim$u7d$$u7d$17h70c6f1585967734eE', symObjAddr: 0x40, symBinAddr: 0x100003160, symSize: 0x10 }
  - { offsetInCU: 0x1D8, offset: 0xFCF9, size: 0x8, addend: 0x0, symName: '__ZN4core3ptr85drop_in_place$LT$std..rt..lang_start$LT$$LP$$RP$$GT$..$u7b$$u7b$closure$u7d$$u7d$$GT$17hb9339d6cd0d52663E', symObjAddr: 0x50, symBinAddr: 0x100003170, symSize: 0x6 }
  - { offsetInCU: 0x1E, offset: 0xFD7A, size: 0x8, addend: 0x0, symName: __ZN3std10sys_common9backtrace28__rust_begin_short_backtrace17hb5b814e8f19dd821E, symObjAddr: 0x0, symBinAddr: 0x100003180, symSize: 0x8 }
  - { offsetInCU: 0xBF, offset: 0xFE1B, size: 0x8, addend: 0x0, symName: __ZN3std10sys_common9backtrace28__rust_begin_short_backtrace17hb5b814e8f19dd821E, symObjAddr: 0x0, symBinAddr: 0x100003180, symSize: 0x8 }
  - { offsetInCU: 0x1E, offset: 0xFEC0, size: 0x8, addend: 0x0, symName: '__ZN44_$LT$$RF$T$u20$as$u20$core..fmt..Display$GT$3fmt17hd8fc66ea98558906E', symObjAddr: 0x0, symBinAddr: 0x100003190, symSize: 0x17 }
  - { offsetInCU: 0x64, offset: 0xFF06, size: 0x8, addend: 0x0, symName: '__ZN44_$LT$$RF$T$u20$as$u20$core..fmt..Display$GT$3fmt17hd8fc66ea98558906E', symObjAddr: 0x0, symBinAddr: 0x100003190, symSize: 0x17 }
...
