---
triple:          'x86_64-apple-darwin'
binary-path:     "/Users/justinlanouette/Chaos/ChaöS-Token/hello_world/target/release/build/blake3-0385622b1726b7ad/build_script_build-0385622b1726b7ad"
relocations:
  - { offsetInCU: 0x1E, offset: 0x1E, size: 0x8, addend: 0x0, symName: '__ZN46_$LT$cc..Error$u20$as$u20$core..fmt..Debug$GT$3fmt17hda1e58c41b271981E', symObjAddr: 0x0, symBinAddr: 0x1000045F0, symSize: 0x70 }
  - { offsetInCU: 0xFB, offset: 0xFB, size: 0x8, addend: 0x0, symName: '__ZN46_$LT$cc..Error$u20$as$u20$core..fmt..Debug$GT$3fmt17hda1e58c41b271981E', symObjAddr: 0x0, symBinAddr: 0x1000045F0, symSize: 0x70 }
  - { offsetInCU: 0x264, offset: 0x264, size: 0x8, addend: 0x0, symName: '__ZN50_$LT$cc..ErrorKind$u20$as$u20$core..fmt..Debug$GT$3fmt17hf5653dfd6258290dE', symObjAddr: 0x12D0, symBinAddr: 0x100005830, symSize: 0x30 }
  - { offsetInCU: 0x2209, offset: 0x2209, size: 0x8, addend: 0x0, symName: '__ZN4core3ptr104drop_in_place$LT$core..option..Option$LT$core..option..Option$LT$alloc..sync..Arc$LT$str$GT$$GT$$GT$$GT$17hb72cc60bfa8bad5aE', symObjAddr: 0x100, symBinAddr: 0x100004660, symSize: 0x30 }
  - { offsetInCU: 0x22F8, offset: 0x22F8, size: 0x8, addend: 0x0, symName: '__ZN4core3ptr137drop_in_place$LT$alloc..vec..Vec$LT$$LP$alloc..sync..Arc$LT$str$GT$$C$core..option..Option$LT$alloc..sync..Arc$LT$str$GT$$GT$$RP$$GT$$GT$17ha61a54526728ad21E', symObjAddr: 0x130, symBinAddr: 0x100004690, symSize: 0x60 }
  - { offsetInCU: 0x2544, offset: 0x2544, size: 0x8, addend: 0x0, symName: '__ZN4core3ptr149drop_in_place$LT$alloc..vec..Vec$LT$$LP$alloc..sync..Arc$LT$std..ffi..os_str..OsStr$GT$$C$alloc..sync..Arc$LT$std..ffi..os_str..OsStr$GT$$RP$$GT$$GT$17hde7b080acc2512a7E', symObjAddr: 0x190, symBinAddr: 0x1000046F0, symSize: 0x60 }
  - { offsetInCU: 0x2961, offset: 0x2961, size: 0x8, addend: 0x0, symName: '__ZN4core3ptr30drop_in_place$LT$cc..Build$GT$17h824b41ccdb0cb049E', symObjAddr: 0x1F0, symBinAddr: 0x100004750, symSize: 0xB60 }
  - { offsetInCU: 0x67BE, offset: 0x67BE, size: 0x8, addend: 0x0, symName: '__ZN4core3ptr35drop_in_place$LT$cc..tool..Tool$GT$17h56e25e97ac9849f0E', symObjAddr: 0xD50, symBinAddr: 0x1000052B0, symSize: 0x1F0 }
  - { offsetInCU: 0x7605, offset: 0x7605, size: 0x8, addend: 0x0, symName: '__ZN4core3ptr39drop_in_place$LT$std..env..VarError$GT$17h88d9efa260fababbE', symObjAddr: 0xF40, symBinAddr: 0x1000054A0, symSize: 0x30 }
  - { offsetInCU: 0x7894, offset: 0x7894, size: 0x8, addend: 0x0, symName: '__ZN4core3ptr42drop_in_place$LT$std..io..error..Error$GT$17ha4a7d74d75f5bef0E', symObjAddr: 0xF70, symBinAddr: 0x1000054D0, symSize: 0xA0 }
  - { offsetInCU: 0x7D12, offset: 0x7D12, size: 0x8, addend: 0x0, symName: '__ZN4core3ptr65drop_in_place$LT$alloc..vec..Vec$LT$alloc..string..String$GT$$GT$17h9eac28044c8d434dE', symObjAddr: 0x1010, symBinAddr: 0x100005570, symSize: 0x90 }
  - { offsetInCU: 0x7F93, offset: 0x7F93, size: 0x8, addend: 0x0, symName: '__ZN4core3ptr83drop_in_place$LT$alloc..vec..Vec$LT$alloc..sync..Arc$LT$std..path..Path$GT$$GT$$GT$17h1c7da94dec5a07cbE', symObjAddr: 0x10A0, symBinAddr: 0x100005600, symSize: 0x110 }
  - { offsetInCU: 0x8424, offset: 0x8424, size: 0x8, addend: 0x0, symName: '__ZN4core3ptr91drop_in_place$LT$alloc..vec..Vec$LT$alloc..sync..Arc$LT$std..ffi..os_str..OsStr$GT$$GT$$GT$17h05e3ec6b087a4e1eE', symObjAddr: 0x11B0, symBinAddr: 0x100005710, symSize: 0x110 }
  - { offsetInCU: 0x9F04, offset: 0x9F04, size: 0x8, addend: 0x0, symName: __ZN4core5error5Error7provide17he4d3d944b8bf491fE, symObjAddr: 0x12C0, symBinAddr: 0x100005820, symSize: 0x10 }
  - { offsetInCU: 0xAE21, offset: 0xAE21, size: 0x8, addend: 0x0, symName: '__ZN55_$LT$std..env..VarError$u20$as$u20$core..fmt..Debug$GT$3fmt17hfdf45cfe12c33a85E', symObjAddr: 0x1300, symBinAddr: 0x100005860, symSize: 0x50 }
  - { offsetInCU: 0xB725, offset: 0xB725, size: 0x8, addend: 0x0, symName: __ZN18build_script_build4warn17hc072780cc47ffeeeE, symObjAddr: 0x1350, symBinAddr: 0x1000058B0, symSize: 0x180 }
  - { offsetInCU: 0xBB38, offset: 0xBB38, size: 0x8, addend: 0x0, symName: __ZN18build_script_build17target_components17h9b0783558daf0e10E, symObjAddr: 0x14D0, symBinAddr: 0x100005A30, symSize: 0x170 }
  - { offsetInCU: 0xBFF4, offset: 0xBFF4, size: 0x8, addend: 0x0, symName: __ZN18build_script_build9is_x86_6417hd9240baee2ae0e79E, symObjAddr: 0x1640, symBinAddr: 0x100005BA0, symSize: 0xE0 }
  - { offsetInCU: 0xC4F7, offset: 0xC4F7, size: 0x8, addend: 0x0, symName: __ZN18build_script_build9is_x86_3217h0ea465c20b18aaddE, symObjAddr: 0x1720, symBinAddr: 0x100005C80, symSize: 0xE0 }
  - { offsetInCU: 0xCB21, offset: 0xCB21, size: 0x8, addend: 0x0, symName: __ZN18build_script_build10is_aarch6417hcebba4a41929c432E, symObjAddr: 0x1800, symBinAddr: 0x100005D60, symSize: 0xE0 }
  - { offsetInCU: 0xD024, offset: 0xD024, size: 0x8, addend: 0x0, symName: __ZN18build_script_build8is_armv717h1cc7af7896c1366aE, symObjAddr: 0x18E0, symBinAddr: 0x100005E40, symSize: 0xE0 }
  - { offsetInCU: 0xD527, offset: 0xD527, size: 0x8, addend: 0x0, symName: __ZN18build_script_build10endianness17he27196439a852aefE, symObjAddr: 0x19C0, symBinAddr: 0x100005F20, symSize: 0x120 }
  - { offsetInCU: 0xD932, offset: 0xD932, size: 0x8, addend: 0x0, symName: __ZN18build_script_build15is_windows_msvc17h5c899052a4fd1f20E, symObjAddr: 0x1AE0, symBinAddr: 0x100006040, symSize: 0x2A0 }
  - { offsetInCU: 0xEA37, offset: 0xEA37, size: 0x8, addend: 0x0, symName: __ZN18build_script_build14is_windows_gnu17h4f8eb5d3fc84bd37E, symObjAddr: 0x1D80, symBinAddr: 0x1000062E0, symSize: 0x2B0 }
  - { offsetInCU: 0xFCB6, offset: 0xFCB6, size: 0x8, addend: 0x0, symName: __ZN18build_script_build4main17h40ee2fad49412457E, symObjAddr: 0x2030, symBinAddr: 0x100006590, symSize: 0x1A50 }
  - { offsetInCU: 0x1E, offset: 0x17645, size: 0x8, addend: 0x0, symName: '__ZN79_$LT$hashbrown..raw..RawTable$LT$T$C$A$GT$$u20$as$u20$core..ops..drop..Drop$GT$4drop17h00407be3e3cd031cE', symObjAddr: 0x0, symBinAddr: 0x100008020, symSize: 0x110 }
  - { offsetInCU: 0x1FA8, offset: 0x195CF, size: 0x8, addend: 0x0, symName: '__ZN79_$LT$hashbrown..raw..RawTable$LT$T$C$A$GT$$u20$as$u20$core..ops..drop..Drop$GT$4drop17h00407be3e3cd031cE', symObjAddr: 0x0, symBinAddr: 0x100008020, symSize: 0x110 }
  - { offsetInCU: 0x27DA, offset: 0x19E01, size: 0x8, addend: 0x0, symName: '__ZN79_$LT$hashbrown..raw..RawTable$LT$T$C$A$GT$$u20$as$u20$core..ops..drop..Drop$GT$4drop17h47a205a738ea7c12E', symObjAddr: 0x110, symBinAddr: 0x100008130, symSize: 0x110 }
  - { offsetInCU: 0x2808, offset: 0x19E2F, size: 0x8, addend: 0x0, symName: '__ZN79_$LT$hashbrown..raw..RawTable$LT$T$C$A$GT$$u20$as$u20$core..ops..drop..Drop$GT$4drop17h47a205a738ea7c12E', symObjAddr: 0x110, symBinAddr: 0x100008130, symSize: 0x110 }
  - { offsetInCU: 0x282F, offset: 0x19E56, size: 0x8, addend: 0x0, symName: '__ZN79_$LT$hashbrown..raw..RawTable$LT$T$C$A$GT$$u20$as$u20$core..ops..drop..Drop$GT$4drop17h47a205a738ea7c12E', symObjAddr: 0x110, symBinAddr: 0x100008130, symSize: 0x110 }
  - { offsetInCU: 0x2840, offset: 0x19E67, size: 0x8, addend: 0x0, symName: '__ZN79_$LT$hashbrown..raw..RawTable$LT$T$C$A$GT$$u20$as$u20$core..ops..drop..Drop$GT$4drop17h47a205a738ea7c12E', symObjAddr: 0x110, symBinAddr: 0x100008130, symSize: 0x110 }
  - { offsetInCU: 0x3052, offset: 0x1A679, size: 0x8, addend: 0x0, symName: '__ZN79_$LT$hashbrown..raw..RawTable$LT$T$C$A$GT$$u20$as$u20$core..ops..drop..Drop$GT$4drop17h5728c436d27559cfE', symObjAddr: 0x220, symBinAddr: 0x100008240, symSize: 0x120 }
  - { offsetInCU: 0x3080, offset: 0x1A6A7, size: 0x8, addend: 0x0, symName: '__ZN79_$LT$hashbrown..raw..RawTable$LT$T$C$A$GT$$u20$as$u20$core..ops..drop..Drop$GT$4drop17h5728c436d27559cfE', symObjAddr: 0x220, symBinAddr: 0x100008240, symSize: 0x120 }
  - { offsetInCU: 0x30A7, offset: 0x1A6CE, size: 0x8, addend: 0x0, symName: '__ZN79_$LT$hashbrown..raw..RawTable$LT$T$C$A$GT$$u20$as$u20$core..ops..drop..Drop$GT$4drop17h5728c436d27559cfE', symObjAddr: 0x220, symBinAddr: 0x100008240, symSize: 0x120 }
  - { offsetInCU: 0x30B8, offset: 0x1A6DF, size: 0x8, addend: 0x0, symName: '__ZN79_$LT$hashbrown..raw..RawTable$LT$T$C$A$GT$$u20$as$u20$core..ops..drop..Drop$GT$4drop17h5728c436d27559cfE', symObjAddr: 0x220, symBinAddr: 0x100008240, symSize: 0x120 }
  - { offsetInCU: 0x3967, offset: 0x1AF8E, size: 0x8, addend: 0x0, symName: '__ZN79_$LT$hashbrown..raw..RawTable$LT$T$C$A$GT$$u20$as$u20$core..ops..drop..Drop$GT$4drop17h6c01b5e929146309E', symObjAddr: 0x340, symBinAddr: 0x100008360, symSize: 0x110 }
  - { offsetInCU: 0x3995, offset: 0x1AFBC, size: 0x8, addend: 0x0, symName: '__ZN79_$LT$hashbrown..raw..RawTable$LT$T$C$A$GT$$u20$as$u20$core..ops..drop..Drop$GT$4drop17h6c01b5e929146309E', symObjAddr: 0x340, symBinAddr: 0x100008360, symSize: 0x110 }
  - { offsetInCU: 0x39BC, offset: 0x1AFE3, size: 0x8, addend: 0x0, symName: '__ZN79_$LT$hashbrown..raw..RawTable$LT$T$C$A$GT$$u20$as$u20$core..ops..drop..Drop$GT$4drop17h6c01b5e929146309E', symObjAddr: 0x340, symBinAddr: 0x100008360, symSize: 0x110 }
  - { offsetInCU: 0x39CD, offset: 0x1AFF4, size: 0x8, addend: 0x0, symName: '__ZN79_$LT$hashbrown..raw..RawTable$LT$T$C$A$GT$$u20$as$u20$core..ops..drop..Drop$GT$4drop17h6c01b5e929146309E', symObjAddr: 0x340, symBinAddr: 0x100008360, symSize: 0x110 }
  - { offsetInCU: 0x41DF, offset: 0x1B806, size: 0x8, addend: 0x0, symName: '__ZN79_$LT$hashbrown..raw..RawTable$LT$T$C$A$GT$$u20$as$u20$core..ops..drop..Drop$GT$4drop17hbf33b1124d0cf21cE', symObjAddr: 0x450, symBinAddr: 0x100008470, symSize: 0xFD }
  - { offsetInCU: 0x420D, offset: 0x1B834, size: 0x8, addend: 0x0, symName: '__ZN79_$LT$hashbrown..raw..RawTable$LT$T$C$A$GT$$u20$as$u20$core..ops..drop..Drop$GT$4drop17hbf33b1124d0cf21cE', symObjAddr: 0x450, symBinAddr: 0x100008470, symSize: 0xFD }
  - { offsetInCU: 0x4234, offset: 0x1B85B, size: 0x8, addend: 0x0, symName: '__ZN79_$LT$hashbrown..raw..RawTable$LT$T$C$A$GT$$u20$as$u20$core..ops..drop..Drop$GT$4drop17hbf33b1124d0cf21cE', symObjAddr: 0x450, symBinAddr: 0x100008470, symSize: 0xFD }
  - { offsetInCU: 0x4245, offset: 0x1B86C, size: 0x8, addend: 0x0, symName: '__ZN79_$LT$hashbrown..raw..RawTable$LT$T$C$A$GT$$u20$as$u20$core..ops..drop..Drop$GT$4drop17hbf33b1124d0cf21cE', symObjAddr: 0x450, symBinAddr: 0x100008470, symSize: 0xFD }
  - { offsetInCU: 0x1E, offset: 0x1E68E, size: 0x8, addend: 0x0, symName: __ZN5alloc7raw_vec11finish_grow17hccd58136505cdeceE.llvm.12294548076335018292, symObjAddr: 0x0, symBinAddr: 0x100008570, symSize: 0xA0 }
  - { offsetInCU: 0xFE3, offset: 0x1F653, size: 0x8, addend: 0x0, symName: __ZN5alloc7raw_vec11finish_grow17hccd58136505cdeceE.llvm.12294548076335018292, symObjAddr: 0x0, symBinAddr: 0x100008570, symSize: 0xA0 }
  - { offsetInCU: 0x13C8, offset: 0x1FA38, size: 0x8, addend: 0x0, symName: '__ZN5alloc7raw_vec19RawVec$LT$T$C$A$GT$7reserve21do_reserve_and_handle17h063c21cadca6103bE', symObjAddr: 0x200, symBinAddr: 0x100091440, symSize: 0xC0 }
  - { offsetInCU: 0x1FF5, offset: 0x20665, size: 0x8, addend: 0x0, symName: '__ZN5alloc7raw_vec19RawVec$LT$T$C$A$GT$8grow_one17h43d92da23b11b624E', symObjAddr: 0x2C0, symBinAddr: 0x100008610, symSize: 0x0 }
  - { offsetInCU: 0x1E, offset: 0x209DC, size: 0x8, addend: 0x0, symName: '__ZN102_$LT$core..iter..adapters..map..Map$LT$I$C$F$GT$$u20$as$u20$core..iter..traits..iterator..Iterator$GT$4next17h7ff82d63c9ed4100E.llvm.4098411252932771284', symObjAddr: 0x0, symBinAddr: 0x1000086C0, symSize: 0x2C0 }
  - { offsetInCU: 0x561, offset: 0x20F1F, size: 0x8, addend: 0x0, symName: '__ZN4core3ptr114drop_in_place$LT$$LP$alloc..sync..Arc$LT$str$GT$$C$core..option..Option$LT$alloc..sync..Arc$LT$str$GT$$GT$$RP$$GT$17he60b732f887a6516E.llvm.4098411252932771284', symObjAddr: 0x2C0, symBinAddr: 0x100008980, symSize: 0x70 }
  - { offsetInCU: 0x801, offset: 0x211BF, size: 0x8, addend: 0x0, symName: '__ZN4core3ptr126drop_in_place$LT$$LP$alloc..sync..Arc$LT$std..ffi..os_str..OsStr$GT$$C$alloc..sync..Arc$LT$std..ffi..os_str..OsStr$GT$$RP$$GT$17hd04d86c6476f3158E.llvm.4098411252932771284', symObjAddr: 0x330, symBinAddr: 0x1000089F0, symSize: 0x60 }
  - { offsetInCU: 0xB45, offset: 0x21503, size: 0x8, addend: 0x0, symName: '__ZN4core3ptr65drop_in_place$LT$alloc..vec..Vec$LT$alloc..string..String$GT$$GT$17h9eac28044c8d434dE.llvm.4098411252932771284', symObjAddr: 0x390, symBinAddr: 0x100008A50, symSize: 0x90 }
  - { offsetInCU: 0x1E7D, offset: 0x2283B, size: 0x8, addend: 0x0, symName: '__ZN102_$LT$core..iter..adapters..map..Map$LT$I$C$F$GT$$u20$as$u20$core..iter..traits..iterator..Iterator$GT$4next17h7ff82d63c9ed4100E.llvm.4098411252932771284', symObjAddr: 0x0, symBinAddr: 0x1000086C0, symSize: 0x2C0 }
  - { offsetInCU: 0x2BE2, offset: 0x235A0, size: 0x8, addend: 0x0, symName: '__ZN70_$LT$alloc..vec..Vec$LT$T$C$A$GT$$u20$as$u20$core..ops..drop..Drop$GT$4drop17h9165ed8122241ef7E', symObjAddr: 0x7D0, symBinAddr: 0x100008CD0, symSize: 0xB0 }
  - { offsetInCU: 0x2EB8, offset: 0x23876, size: 0x8, addend: 0x0, symName: '__ZN70_$LT$alloc..vec..Vec$LT$T$C$A$GT$$u20$as$u20$core..ops..drop..Drop$GT$4drop17hcc628a4e35fec2d7E', symObjAddr: 0x980, symBinAddr: 0x100008D80, symSize: 0xB0 }
  - { offsetInCU: 0x32B1, offset: 0x23C6F, size: 0x8, addend: 0x0, symName: '__ZN98_$LT$alloc..vec..Vec$LT$T$GT$$u20$as$u20$alloc..vec..spec_from_iter..SpecFromIter$LT$T$C$I$GT$$GT$9from_iter17h3379a74f068db9feE', symObjAddr: 0xA30, symBinAddr: 0x100008E30, symSize: 0x1C9 }
  - { offsetInCU: 0x4165, offset: 0x24B23, size: 0x8, addend: 0x0, symName: __ZN4core3str7pattern14TwoWaySearcher4next17h174d013f712af991E, symObjAddr: 0x470, symBinAddr: 0x100008AE0, symSize: 0x1F0 }
  - { offsetInCU: 0x1E, offset: 0x259BE, size: 0x8, addend: 0x0, symName: '__ZN5alloc4sync16Arc$LT$T$C$A$GT$9drop_slow17h2662082efc1a86a9E', symObjAddr: 0x0, symBinAddr: 0x100009000, symSize: 0x40 }
  - { offsetInCU: 0x35, offset: 0x259D5, size: 0x8, addend: 0x0, symName: _anon.f0dbcebb13a0a96ffbb3aa43f8d82a2b.0.llvm.5136344673014962772, symObjAddr: 0x318, symBinAddr: 0x1000B08C8, symSize: 0x0 }
  - { offsetInCU: 0x10B, offset: 0x25AAB, size: 0x8, addend: 0x0, symName: '__ZN69_$LT$core..alloc..layout..LayoutError$u20$as$u20$core..fmt..Debug$GT$3fmt17h954ec1b18e5120d2E.llvm.5136344673014962772', symObjAddr: 0x2F0, symBinAddr: 0x100009230, symSize: 0x19 }
  - { offsetInCU: 0x2B97, offset: 0x28537, size: 0x8, addend: 0x0, symName: '__ZN5alloc4sync16Arc$LT$T$C$A$GT$9drop_slow17h2662082efc1a86a9E', symObjAddr: 0x0, symBinAddr: 0x100009000, symSize: 0x40 }
  - { offsetInCU: 0x2FB9, offset: 0x28959, size: 0x8, addend: 0x0, symName: '__ZN5alloc4sync16Arc$LT$T$C$A$GT$9drop_slow17h55127e4b6287fdbcE', symObjAddr: 0x40, symBinAddr: 0x100009040, symSize: 0x80 }
  - { offsetInCU: 0x3541, offset: 0x28EE1, size: 0x8, addend: 0x0, symName: '__ZN5alloc4sync16Arc$LT$T$C$A$GT$9drop_slow17h7629870b34851e9aE', symObjAddr: 0xC0, symBinAddr: 0x1000090C0, symSize: 0x0 }
  - { offsetInCU: 0x38D7, offset: 0x29277, size: 0x8, addend: 0x0, symName: '__ZN5alloc4sync16Arc$LT$T$C$A$GT$9drop_slow17h83703fc11b0bb059E', symObjAddr: 0x100, symBinAddr: 0x100009100, symSize: 0x40 }
  - { offsetInCU: 0x3C3A, offset: 0x295DA, size: 0x8, addend: 0x0, symName: '__ZN5alloc4sync16Arc$LT$T$C$A$GT$9drop_slow17h8dc19c5f0ba49233E', symObjAddr: 0x140, symBinAddr: 0x100009140, symSize: 0x30 }
  - { offsetInCU: 0x3F93, offset: 0x29933, size: 0x8, addend: 0x0, symName: '__ZN5alloc4sync16Arc$LT$T$C$A$GT$9drop_slow17h9753f8f0cb2baf31E', symObjAddr: 0x170, symBinAddr: 0x100009170, symSize: 0x40 }
  - { offsetInCU: 0x43B0, offset: 0x29D50, size: 0x8, addend: 0x0, symName: '__ZN5alloc4sync16Arc$LT$T$C$A$GT$9drop_slow17hb7810c5207433691E', symObjAddr: 0x1B0, symBinAddr: 0x1000091B0, symSize: 0x40 }
  - { offsetInCU: 0x47A6, offset: 0x2A146, size: 0x8, addend: 0x0, symName: '__ZN5alloc4sync16Arc$LT$T$C$A$GT$9drop_slow17hf999dcf3002e9cd6E', symObjAddr: 0x1F0, symBinAddr: 0x1000091F0, symSize: 0x40 }
  - { offsetInCU: 0x1E, offset: 0x2A619, size: 0x8, addend: 0x0, symName: __ZN2cc5Build17is_flag_supported17h799d9f8d926588a9E, symObjAddr: 0x0, symBinAddr: 0x100009250, symSize: 0x1E0 }
  - { offsetInCU: 0xA63, offset: 0x2B05E, size: 0x8, addend: 0x0, symName: '__ZN4core3ptr35drop_in_place$LT$cc..tool..Tool$GT$17h56e25e97ac9849f0E.llvm.1588970150860470556', symObjAddr: 0x440, symBinAddr: 0x100009690, symSize: 0x1F0 }
  - { offsetInCU: 0x38C4, offset: 0x2DEBF, size: 0x8, addend: 0x0, symName: __ZN2cc5Build17is_flag_supported17h799d9f8d926588a9E, symObjAddr: 0x0, symBinAddr: 0x100009250, symSize: 0x1E0 }
  - { offsetInCU: 0x3D63, offset: 0x2E35E, size: 0x8, addend: 0x0, symName: __ZN2cc5Build4file17hccc9028a3d750dcdE, symObjAddr: 0x1E0, symBinAddr: 0x100009430, symSize: 0x140 }
  - { offsetInCU: 0x442E, offset: 0x2EA29, size: 0x8, addend: 0x0, symName: __ZN2cc5Build4flag17hf7065d279dd69171E, symObjAddr: 0x320, symBinAddr: 0x100009570, symSize: 0x120 }
  - { offsetInCU: 0x1E, offset: 0x2FD69, size: 0x8, addend: 0x0, symName: '__ZN4core3ptr72drop_in_place$LT$alloc..boxed..Box$LT$dyn$u20$core..error..Error$GT$$GT$17h224779e6df083bc8E.llvm.1915395082113931010', symObjAddr: 0x0, symBinAddr: 0x100009880, symSize: 0x70 }
  - { offsetInCU: 0x371, offset: 0x300BC, size: 0x8, addend: 0x0, symName: '__ZN4core3ptr72drop_in_place$LT$alloc..boxed..Box$LT$dyn$u20$core..error..Error$GT$$GT$17h224779e6df083bc8E.llvm.1915395082113931010', symObjAddr: 0x0, symBinAddr: 0x100009880, symSize: 0x70 }
  - { offsetInCU: 0xD78, offset: 0x30AC3, size: 0x8, addend: 0x0, symName: '__ZN79_$LT$core..result..Result$LT$T$C$E$GT$$u20$as$u20$std..process..Termination$GT$6report17h5616b46c9f3dfee0E', symObjAddr: 0x70, symBinAddr: 0x1000098F0, symSize: 0xD9 }
  - { offsetInCU: 0x1E, offset: 0x30DA2, size: 0x8, addend: 0x0, symName: '__ZN42_$LT$$RF$T$u20$as$u20$core..fmt..Debug$GT$3fmt17h7d10b46f800556e7E', symObjAddr: 0x0, symBinAddr: 0x1000099D0, symSize: 0x18 }
  - { offsetInCU: 0xBD, offset: 0x30E41, size: 0x8, addend: 0x0, symName: '__ZN42_$LT$$RF$T$u20$as$u20$core..fmt..Debug$GT$3fmt17h7d10b46f800556e7E', symObjAddr: 0x0, symBinAddr: 0x1000099D0, symSize: 0x18 }
  - { offsetInCU: 0x35, offset: 0x312C8, size: 0x8, addend: 0x0, symName: _anon.c55504ae005aad1f734f18f1dc4a02a2.0.llvm.8433111178327787024, symObjAddr: 0x70, symBinAddr: 0x1000B0920, symSize: 0x0 }
  - { offsetInCU: 0xC9, offset: 0x3135C, size: 0x8, addend: 0x0, symName: '__ZN3std2rt10lang_start28_$u7b$$u7b$closure$u7d$$u7d$17hbb0dff4523a78cddE.llvm.8433111178327787024', symObjAddr: 0x30, symBinAddr: 0x1000099F0, symSize: 0x20 }
  - { offsetInCU: 0x2A4, offset: 0x31537, size: 0x8, addend: 0x0, symName: '__ZN4core3ops8function6FnOnce40call_once$u7b$$u7b$vtable.shim$u7d$$u7d$17hdca939d1a9905a3eE.llvm.8433111178327787024', symObjAddr: 0x50, symBinAddr: 0x100009A10, symSize: 0x1C }
  - { offsetInCU: 0x1E, offset: 0x316BC, size: 0x8, addend: 0x0, symName: __ZN4core5error5Error7type_id17h0dc50e1827ca2773E, symObjAddr: 0x0, symBinAddr: 0x100009A30, symSize: 0x1A }
  - { offsetInCU: 0x299, offset: 0x31937, size: 0x8, addend: 0x0, symName: __ZN4core5error5Error7type_id17h0dc50e1827ca2773E, symObjAddr: 0x0, symBinAddr: 0x100009A30, symSize: 0x1A }
  - { offsetInCU: 0x1E, offset: 0x31AE2, size: 0x8, addend: 0x0, symName: '__ZN67_$LT$alloc..boxed..Box$LT$T$C$A$GT$$u20$as$u20$core..fmt..Debug$GT$3fmt17ha23138591109bde1E', symObjAddr: 0x0, symBinAddr: 0x100009A50, symSize: 0x15 }
  - { offsetInCU: 0x1BE, offset: 0x31C82, size: 0x8, addend: 0x0, symName: '__ZN67_$LT$alloc..boxed..Box$LT$T$C$A$GT$$u20$as$u20$core..fmt..Debug$GT$3fmt17ha23138591109bde1E', symObjAddr: 0x0, symBinAddr: 0x100009A50, symSize: 0x15 }
  - { offsetInCU: 0x1E, offset: 0x31DD5, size: 0x8, addend: 0x0, symName: __ZN3std3sys9backtrace28__rust_begin_short_backtrace17h723e9a350c136aa7E, symObjAddr: 0x0, symBinAddr: 0x100009A70, symSize: 0x8 }
  - { offsetInCU: 0x1A9, offset: 0x31F60, size: 0x8, addend: 0x0, symName: __ZN3std3sys9backtrace28__rust_begin_short_backtrace17h723e9a350c136aa7E, symObjAddr: 0x0, symBinAddr: 0x100009A70, symSize: 0x8 }
  - { offsetInCU: 0x1E, offset: 0x3200A, size: 0x8, addend: 0x0, symName: '__ZN42_$LT$$RF$T$u20$as$u20$core..fmt..Debug$GT$3fmt17hd58f7bbfcafde202E', symObjAddr: 0x0, symBinAddr: 0x100009A80, symSize: 0x17 }
  - { offsetInCU: 0x64, offset: 0x32050, size: 0x8, addend: 0x0, symName: '__ZN42_$LT$$RF$T$u20$as$u20$core..fmt..Debug$GT$3fmt17hd58f7bbfcafde202E', symObjAddr: 0x0, symBinAddr: 0x100009A80, symSize: 0x17 }
  - { offsetInCU: 0x1E, offset: 0x32323, size: 0x8, addend: 0x0, symName: '__ZN44_$LT$$RF$T$u20$as$u20$core..fmt..Display$GT$3fmt17hde3d25c9d3b626aaE', symObjAddr: 0x0, symBinAddr: 0x100009AA0, symSize: 0x17 }
  - { offsetInCU: 0x64, offset: 0x32369, size: 0x8, addend: 0x0, symName: '__ZN44_$LT$$RF$T$u20$as$u20$core..fmt..Display$GT$3fmt17hde3d25c9d3b626aaE', symObjAddr: 0x0, symBinAddr: 0x100009AA0, symSize: 0x17 }
  - { offsetInCU: 0x1E, offset: 0x325D3, size: 0x8, addend: 0x0, symName: '__ZN42_$LT$$RF$T$u20$as$u20$core..fmt..Debug$GT$3fmt17head1f62f4db5feacE', symObjAddr: 0x0, symBinAddr: 0x100009AC0, symSize: 0xD }
  - { offsetInCU: 0x64, offset: 0x32619, size: 0x8, addend: 0x0, symName: '__ZN42_$LT$$RF$T$u20$as$u20$core..fmt..Debug$GT$3fmt17head1f62f4db5feacE', symObjAddr: 0x0, symBinAddr: 0x100009AC0, symSize: 0xD }
  - { offsetInCU: 0x1E, offset: 0x329DC, size: 0x8, addend: 0x0, symName: __ZN3std3sys3pal4unix2os11split_paths12is_separator17hf91dafa8854fe971E, symObjAddr: 0x0, symBinAddr: 0x100009B10, symSize: 0x10 }
  - { offsetInCU: 0x2E7, offset: 0x32CA5, size: 0x8, addend: 0x0, symName: '__ZN58_$LT$alloc..string..String$u20$as$u20$core..fmt..Write$GT$10write_char17h04bc467bd68a934bE', symObjAddr: 0x3290, symBinAddr: 0x10000CBE0, symSize: 0x140 }
  - { offsetInCU: 0x6EC, offset: 0x330AA, size: 0x8, addend: 0x0, symName: '__ZN58_$LT$alloc..string..String$u20$as$u20$core..fmt..Write$GT$9write_str17h46a93205c3443fbaE', symObjAddr: 0x33D0, symBinAddr: 0x10000CD20, symSize: 0x60 }
  - { offsetInCU: 0xA31, offset: 0x333EF, size: 0x8, addend: 0x0, symName: '__ZN60_$LT$alloc..string..String$u20$as$u20$core..fmt..Display$GT$3fmt17h0d0eb46f3054e2dfE', symObjAddr: 0x36E0, symBinAddr: 0x10000D030, symSize: 0x20 }
  - { offsetInCU: 0xB22, offset: 0x334E0, size: 0x8, addend: 0x0, symName: '__ZN78_$LT$alloc..string..String$u20$as$u20$core..ops..arith..Add$LT$$RF$str$GT$$GT$3add17h4fcdaf97d927fc2aE', symObjAddr: 0x3750, symBinAddr: 0x10000D0A0, symSize: 0xA0 }
  - { offsetInCU: 0x4871, offset: 0x3722F, size: 0x8, addend: 0x0, symName: '__ZN52_$LT$T$u20$as$u20$alloc..slice..hack..ConvertVec$GT$6to_vec17h4b867585eb10d4d0E', symObjAddr: 0x2C90, symBinAddr: 0x10000C5E0, symSize: 0x90 }
  - { offsetInCU: 0x545C, offset: 0x37E1A, size: 0x8, addend: 0x0, symName: '__ZN5alloc3str56_$LT$impl$u20$alloc..borrow..ToOwned$u20$for$u20$str$GT$10clone_into17he8da64b4778208b5E', symObjAddr: 0x3600, symBinAddr: 0x10000CF50, symSize: 0x60 }
  - { offsetInCU: 0x5849, offset: 0x38207, size: 0x8, addend: 0x0, symName: '__ZN5alloc3str21_$LT$impl$u20$str$GT$7replace17h4e7296a8cd62a6c9E', symObjAddr: 0x3430, symBinAddr: 0x10000CD80, symSize: 0x1D0 }
  - { offsetInCU: 0x8B11, offset: 0x3B4CF, size: 0x8, addend: 0x0, symName: '__ZN4core3ptr104drop_in_place$LT$core..option..Option$LT$core..option..Option$LT$alloc..sync..Arc$LT$str$GT$$GT$$GT$$GT$17hae40b5120e052d91E', symObjAddr: 0x110, symBinAddr: 0x100009B90, symSize: 0x30 }
  - { offsetInCU: 0x8C00, offset: 0x3B5BE, size: 0x8, addend: 0x0, symName: '__ZN4core3ptr107drop_in_place$LT$alloc..vec..Vec$LT$$LP$std..ffi..os_str..OsString$C$std..ffi..os_str..OsString$RP$$GT$$GT$17hf3367384d142ee8bE', symObjAddr: 0x140, symBinAddr: 0x100009BC0, symSize: 0xA0 }
  - { offsetInCU: 0x9053, offset: 0x3BA11, size: 0x8, addend: 0x0, symName: '__ZN4core3ptr108drop_in_place$LT$core..result..Result$LT$alloc..sync..Arc$LT$std..ffi..os_str..OsStr$GT$$C$cc..Error$GT$$GT$17hcec6d02f98b335acE', symObjAddr: 0x1E0, symBinAddr: 0x100009C60, symSize: 0x50 }
  - { offsetInCU: 0x928C, offset: 0x3BC4A, size: 0x8, addend: 0x0, symName: '__ZN4core3ptr137drop_in_place$LT$alloc..vec..Vec$LT$$LP$alloc..sync..Arc$LT$str$GT$$C$core..option..Option$LT$alloc..sync..Arc$LT$str$GT$$GT$$RP$$GT$$GT$17h24274bf7c626efb6E', symObjAddr: 0x230, symBinAddr: 0x100009CB0, symSize: 0x60 }
  - { offsetInCU: 0x94D8, offset: 0x3BE96, size: 0x8, addend: 0x0, symName: '__ZN4core3ptr149drop_in_place$LT$alloc..vec..Vec$LT$$LP$alloc..sync..Arc$LT$std..ffi..os_str..OsStr$GT$$C$alloc..sync..Arc$LT$std..ffi..os_str..OsStr$GT$$RP$$GT$$GT$17haae8afcd0fc4e462E', symObjAddr: 0x290, symBinAddr: 0x100009D10, symSize: 0x60 }
  - { offsetInCU: 0x9724, offset: 0x3C0E2, size: 0x8, addend: 0x0, symName: '__ZN4core3ptr168drop_in_place$LT$std..sync..poison..PoisonError$LT$std..sync..rwlock..RwLockReadGuard$LT$std..collections..hash..map..HashMap$LT$cc..CompilerFlag$C$bool$GT$$GT$$GT$$GT$17ha19c640bfe57f274E', symObjAddr: 0x2F0, symBinAddr: 0x100009D70, symSize: 0x40 }
  - { offsetInCU: 0x9904, offset: 0x3C2C2, size: 0x8, addend: 0x0, symName: '__ZN4core3ptr169drop_in_place$LT$std..sync..poison..PoisonError$LT$std..sync..rwlock..RwLockWriteGuard$LT$std..collections..hash..map..HashMap$LT$cc..CompilerFlag$C$bool$GT$$GT$$GT$$GT$17h30995c4cb0638673E', symObjAddr: 0x330, symBinAddr: 0x100009DB0, symSize: 0x60 }
  - { offsetInCU: 0x9B89, offset: 0x3C547, size: 0x8, addend: 0x0, symName: '__ZN4core3ptr171drop_in_place$LT$$LP$std..process..Command$C$alloc..borrow..Cow$LT$std..path..Path$GT$$C$cc..Build..compile_objects..KillOnDrop$C$cc..parallel..job_token..JobToken$RP$$GT$17hdea37887261da870E.llvm.16925996641570778777', symObjAddr: 0x390, symBinAddr: 0x100009E10, symSize: 0x120 }
  - { offsetInCU: 0xA070, offset: 0x3CA2E, size: 0x8, addend: 0x0, symName: '__ZN4core3ptr194drop_in_place$LT$alloc..vec..Vec$LT$$LP$std..process..Command$C$alloc..borrow..Cow$LT$std..path..Path$GT$$C$cc..Build..compile_objects..KillOnDrop$C$cc..parallel..job_token..JobToken$RP$$GT$$GT$17hd8bf7593b3cbd05fE.llvm.16925996641570778777', symObjAddr: 0x4B0, symBinAddr: 0x100009F30, symSize: 0xD0 }
  - { offsetInCU: 0xA34F, offset: 0x3CD0D, size: 0x8, addend: 0x0, symName: '__ZN4core3ptr251drop_in_place$LT$alloc..vec..Vec$LT$alloc..boxed..Box$LT$dyn$u20$core..ops..function..FnMut$LT$$LP$$RP$$GT$$u2b$Output$u20$$u3d$$u20$core..result..Result$LT$$LP$$RP$$C$std..io..error..Error$GT$$u2b$core..marker..Sync$u2b$core..marker..Send$GT$$GT$$GT$17h114d73b5d355f64bE', symObjAddr: 0x580, symBinAddr: 0x10000A000, symSize: 0x60 }
  - { offsetInCU: 0xA76C, offset: 0x3D12A, size: 0x8, addend: 0x0, symName: '__ZN4core3ptr30drop_in_place$LT$cc..Build$GT$17h7ce031225a5c5db4E', symObjAddr: 0x5E0, symBinAddr: 0x10000A060, symSize: 0xB60 }
  - { offsetInCU: 0xE50F, offset: 0x40ECD, size: 0x8, addend: 0x0, symName: '__ZN4core3ptr35drop_in_place$LT$cc..tool..Tool$GT$17heec2ec674e98fa05E', symObjAddr: 0x1140, symBinAddr: 0x10000ABC0, symSize: 0x1F0 }
  - { offsetInCU: 0xF394, offset: 0x41D52, size: 0x8, addend: 0x0, symName: '__ZN4core3ptr37drop_in_place$LT$cc..CompilerFlag$GT$17hd8d429f0bacc95c7E', symObjAddr: 0x1330, symBinAddr: 0x10000ADB0, symSize: 0x50 }
  - { offsetInCU: 0xF5EE, offset: 0x41FAC, size: 0x8, addend: 0x0, symName: '__ZN4core3ptr40drop_in_place$LT$std..process..Child$GT$17h61b10f9c65d7084aE.llvm.16925996641570778777', symObjAddr: 0x1380, symBinAddr: 0x10000AE00, symSize: 0x40 }
  - { offsetInCU: 0xF76D, offset: 0x4212B, size: 0x8, addend: 0x0, symName: '__ZN4core3ptr41drop_in_place$LT$std..process..Output$GT$17hb3f859e2fadd089dE', symObjAddr: 0x13C0, symBinAddr: 0x10000AE40, symSize: 0x50 }
  - { offsetInCU: 0xF95E, offset: 0x4231C, size: 0x8, addend: 0x0, symName: '__ZN4core3ptr42drop_in_place$LT$alloc..string..String$GT$17he65bbe603b37b51dE', symObjAddr: 0x1410, symBinAddr: 0x10000AE90, symSize: 0x20 }
  - { offsetInCU: 0x1000C, offset: 0x429CA, size: 0x8, addend: 0x0, symName: '__ZN4core3ptr42drop_in_place$LT$std..io..error..Error$GT$17h1b20bc390b06fba6E.llvm.16925996641570778777', symObjAddr: 0x1430, symBinAddr: 0x10000AEB0, symSize: 0xA0 }
  - { offsetInCU: 0x10644, offset: 0x43002, size: 0x8, addend: 0x0, symName: '__ZN4core3ptr42drop_in_place$LT$std..process..Command$GT$17h705bee0d97bf5103E.llvm.16925996641570778777', symObjAddr: 0x14D0, symBinAddr: 0x10000AF50, symSize: 0x250 }
  - { offsetInCU: 0x1141A, offset: 0x43DD8, size: 0x8, addend: 0x0, symName: '__ZN4core3ptr54drop_in_place$LT$alloc..vec..Vec$LT$cc..Object$GT$$GT$17h598ee74b8ca15795E', symObjAddr: 0x1720, symBinAddr: 0x10000B1A0, symSize: 0xA0 }
  - { offsetInCU: 0x11815, offset: 0x441D3, size: 0x8, addend: 0x0, symName: '__ZN4core3ptr57drop_in_place$LT$cc..command_helpers..StderrForwarder$GT$17hd71c9a617131a245E.llvm.16925996641570778777', symObjAddr: 0x17C0, symBinAddr: 0x10000B240, symSize: 0x40 }
  - { offsetInCU: 0x11A06, offset: 0x443C4, size: 0x8, addend: 0x0, symName: '__ZN4core3ptr59drop_in_place$LT$cc..Build..compile_objects..KillOnDrop$GT$17hf904e9831280e99aE.llvm.16925996641570778777', symObjAddr: 0x1800, symBinAddr: 0x10000B280, symSize: 0x90 }
  - { offsetInCU: 0x11DB2, offset: 0x44770, size: 0x8, addend: 0x0, symName: '__ZN4core3ptr65drop_in_place$LT$alloc..vec..Vec$LT$alloc..string..String$GT$$GT$17hfbd4d1c14cb8b0cbE', symObjAddr: 0x18C0, symBinAddr: 0x10000B310, symSize: 0x90 }
  - { offsetInCU: 0x1211F, offset: 0x44ADD, size: 0x8, addend: 0x0, symName: '__ZN4core3ptr66drop_in_place$LT$cc..parallel..job_token..ActiveJobTokenServer$GT$17h3441079ed8fcef1eE', symObjAddr: 0x1950, symBinAddr: 0x10000B3A0, symSize: 0xA0 }
  - { offsetInCU: 0x12425, offset: 0x44DE3, size: 0x8, addend: 0x0, symName: '__ZN4core3ptr70drop_in_place$LT$alloc..vec..Vec$LT$std..ffi..os_str..OsString$GT$$GT$17h2463cd238496e148E', symObjAddr: 0x19F0, symBinAddr: 0x10000B440, symSize: 0x90 }
  - { offsetInCU: 0x127AC, offset: 0x4516A, size: 0x8, addend: 0x0, symName: '__ZN4core3ptr71drop_in_place$LT$core..option..Option$LT$jobserver..imp..Helper$GT$$GT$17h68e9aced30df9e16E', symObjAddr: 0x1A80, symBinAddr: 0x10000B4D0, symSize: 0xC0 }
  - { offsetInCU: 0x12DCA, offset: 0x45788, size: 0x8, addend: 0x0, symName: '__ZN4core3ptr83drop_in_place$LT$alloc..vec..Vec$LT$alloc..sync..Arc$LT$std..path..Path$GT$$GT$$GT$17h554dd20e8e338708E', symObjAddr: 0x1B40, symBinAddr: 0x10000B590, symSize: 0x110 }
  - { offsetInCU: 0x1325B, offset: 0x45C19, size: 0x8, addend: 0x0, symName: '__ZN4core3ptr84drop_in_place$LT$$LP$std..ffi..os_str..OsString$C$std..ffi..os_str..OsString$RP$$GT$17h6443e5d095fa3cadE', symObjAddr: 0x1C50, symBinAddr: 0x10000B6A0, symSize: 0x50 }
  - { offsetInCU: 0x134DC, offset: 0x45E9A, size: 0x8, addend: 0x0, symName: '__ZN4core3ptr86drop_in_place$LT$core..result..Result$LT$alloc..vec..Vec$LT$u8$GT$$C$cc..Error$GT$$GT$17h523dfaa1a0140e05E', symObjAddr: 0x1CA0, symBinAddr: 0x10000B6F0, symSize: 0x40 }
  - { offsetInCU: 0x135B5, offset: 0x45F73, size: 0x8, addend: 0x0, symName: '__ZN4core3ptr90drop_in_place$LT$core..result..Result$LT$std..fs..Metadata$C$std..io..error..Error$GT$$GT$17h0b8e32752750e67fE', symObjAddr: 0x1CE0, symBinAddr: 0x10000B730, symSize: 0xB0 }
  - { offsetInCU: 0x13A0B, offset: 0x463C9, size: 0x8, addend: 0x0, symName: '__ZN4core3ptr91drop_in_place$LT$alloc..vec..Vec$LT$alloc..sync..Arc$LT$std..ffi..os_str..OsStr$GT$$GT$$GT$17h2b4c5a7620abb119E', symObjAddr: 0x1D90, symBinAddr: 0x10000B7E0, symSize: 0x110 }
  - { offsetInCU: 0x13EBB, offset: 0x46879, size: 0x8, addend: 0x0, symName: '__ZN4core3ptr93drop_in_place$LT$core..result..Result$LT$std..process..Output$C$std..io..error..Error$GT$$GT$17h38abda34d0420174E', symObjAddr: 0x1EA0, symBinAddr: 0x10000B8F0, symSize: 0xF0 }
  - { offsetInCU: 0x14500, offset: 0x46EBE, size: 0x8, addend: 0x0, symName: '__ZN4core3ptr97drop_in_place$LT$core..result..Result$LT$std..process..ExitStatus$C$std..io..error..Error$GT$$GT$17h0e89ade42f08812aE', symObjAddr: 0x1F90, symBinAddr: 0x10000B9E0, symSize: 0xB0 }
  - { offsetInCU: 0x15A3E, offset: 0x483FC, size: 0x8, addend: 0x0, symName: '__ZN53_$LT$core..fmt..Error$u20$as$u20$core..fmt..Debug$GT$3fmt17h03dc662ab152f3aeE', symObjAddr: 0x2D20, symBinAddr: 0x10000C670, symSize: 0x20 }
  - { offsetInCU: 0x15ADB, offset: 0x48499, size: 0x8, addend: 0x0, symName: '__ZN68_$LT$core..num..error..ParseIntError$u20$as$u20$core..fmt..Debug$GT$3fmt17h96ecbd66dfb72074E', symObjAddr: 0x3700, symBinAddr: 0x10000D050, symSize: 0x50 }
  - { offsetInCU: 0x205D7, offset: 0x52F95, size: 0x8, addend: 0x0, symName: '__ZN4core5slice29_$LT$impl$u20$$u5b$T$u5d$$GT$20binary_search_by_key17h344c333fe6a5d925E', symObjAddr: 0x2570, symBinAddr: 0x10000BEC0, symSize: 0x160 }
  - { offsetInCU: 0x22B22, offset: 0x554E0, size: 0x8, addend: 0x0, symName: '__ZN4core3str7pattern13simd_contains28_$u7b$$u7b$closure$u7d$$u7d$17h84c98b00237902ceE', symObjAddr: 0x20A0, symBinAddr: 0x100091500, symSize: 0x100 }
  - { offsetInCU: 0x234E8, offset: 0x55EA6, size: 0x8, addend: 0x0, symName: '__ZN55_$LT$$RF$str$u20$as$u20$core..str..pattern..Pattern$GT$15is_contained_in17h3b44ad7441fe57baE', symObjAddr: 0x2D40, symBinAddr: 0x10000C690, symSize: 0x550 }
  - { offsetInCU: 0x2490A, offset: 0x572C8, size: 0x8, addend: 0x0, symName: '__ZN80_$LT$core..str..pattern..StrSearcher$u20$as$u20$core..str..pattern..Searcher$GT$10next_match17hc546c55aa87fd2fbE', symObjAddr: 0x37F0, symBinAddr: 0x10000D140, symSize: 0x1D0 }
  - { offsetInCU: 0x24CC1, offset: 0x5767F, size: 0x8, addend: 0x0, symName: '__ZN81_$LT$core..str..pattern..CharSearcher$u20$as$u20$core..str..pattern..Searcher$GT$10next_match17had7e2e2870f26130E', symObjAddr: 0x39C0, symBinAddr: 0x10000D310, symSize: 0x210 }
  - { offsetInCU: 0x25341, offset: 0x57CFF, size: 0x8, addend: 0x0, symName: '__ZN4core3str21_$LT$impl$u20$str$GT$5rfind17h0337f43f2b03e1e8E', symObjAddr: 0x2040, symBinAddr: 0x10000BA90, symSize: 0x60 }
  - { offsetInCU: 0x2A6C2, offset: 0x5D080, size: 0x8, addend: 0x0, symName: __ZN4core4iter6traits8iterator8Iterator8try_fold17hda2efbd871734240E, symObjAddr: 0x2390, symBinAddr: 0x10000BCE0, symSize: 0x1E0 }
  - { offsetInCU: 0x2D5BF, offset: 0x5FF7D, size: 0x8, addend: 0x0, symName: __ZN3std3sys3pal4unix2os11split_paths12is_separator17hf91dafa8854fe971E, symObjAddr: 0x0, symBinAddr: 0x100009B10, symSize: 0x10 }
  - { offsetInCU: 0x30E53, offset: 0x63811, size: 0x8, addend: 0x0, symName: '__ZN52_$LT$Q$u20$as$u20$hashbrown..Equivalent$LT$K$GT$$GT$10equivalent17h21e7aabcbea3a06aE', symObjAddr: 0x2A10, symBinAddr: 0x10000C360, symSize: 0x280 }
  - { offsetInCU: 0x31626, offset: 0x63FE4, size: 0x8, addend: 0x0, symName: '__ZN108_$LT$cc..Build..windows_registry_find_tool..BuildEnvGetter$u20$as$u20$cc..windows..find_tools..EnvGetter$GT$7get_env17h75defef9032cb812E', symObjAddr: 0x1CE20, symBinAddr: 0x100025350, symSize: 0x40 }
  - { offsetInCU: 0x3191C, offset: 0x642DA, size: 0x8, addend: 0x0, symName: '__ZN2cc5Build24apple_deployment_version28_$u7b$$u7b$closure$u7d$$u7d$17he817a15799e4d14aE', symObjAddr: 0x1C2A0, symBinAddr: 0x1000247D0, symSize: 0x1C0 }
  - { offsetInCU: 0x322AA, offset: 0x64C68, size: 0x8, addend: 0x0, symName: '__ZN2cc5Build24apple_deployment_version28_$u7b$$u7b$closure$u7d$$u7d$17h1fcff34986c559cbE', symObjAddr: 0x1C460, symBinAddr: 0x100024990, symSize: 0x490 }
  - { offsetInCU: 0x33144, offset: 0x65B02, size: 0x8, addend: 0x0, symName: '__ZN2cc5Build11try_compile28_$u7b$$u7b$closure$u7d$$u7d$17h5396143be1d4085dE', symObjAddr: 0x8820, symBinAddr: 0x1000119D0, symSize: 0x130 }
  - { offsetInCU: 0x33543, offset: 0x65F01, size: 0x8, addend: 0x0, symName: '__ZN80_$LT$cc..Build..compile_objects..KillOnDrop$u20$as$u20$core..ops..drop..Drop$GT$4drop17hd120e330728b0834E', symObjAddr: 0x9140, symBinAddr: 0x100011FE0, symSize: 0xB0 }
  - { offsetInCU: 0x33A97, offset: 0x66455, size: 0x8, addend: 0x0, symName: __ZN2cc5Build15compile_objects11cell_update17h7b00dbab58456437E, symObjAddr: 0x91F0, symBinAddr: 0x100012090, symSize: 0x270 }
  - { offsetInCU: 0x34093, offset: 0x66A51, size: 0x8, addend: 0x0, symName: __ZN2cc5Build15compile_objects11cell_update17h9ce09beace46af07E, symObjAddr: 0x9460, symBinAddr: 0x100012300, symSize: 0x160 }
  - { offsetInCU: 0x34AFC, offset: 0x674BA, size: 0x8, addend: 0x0, symName: '__ZN2cc5Build20apple_sdk_root_inner28_$u7b$$u7b$closure$u7d$$u7d$17hb2014fe175348b8bE', symObjAddr: 0x1B930, symBinAddr: 0x100023E60, symSize: 0xB0 }
  - { offsetInCU: 0x3562F, offset: 0x67FED, size: 0x8, addend: 0x0, symName: '__ZN2cc5Build5which28_$u7b$$u7b$closure$u7d$$u7d$17h918a6bc841245d0dE', symObjAddr: 0x1CBD0, symBinAddr: 0x100025100, symSize: 0x250 }
  - { offsetInCU: 0x36FB3, offset: 0x69971, size: 0x8, addend: 0x0, symName: '__ZN57_$LT$cc..tool..ToolFamily$u20$as$u20$core..fmt..Debug$GT$3fmt17h1a6fd00bb3fb3b90E', symObjAddr: 0x1DBC0, symBinAddr: 0x1000260D0, symSize: 0xA0 }
  - { offsetInCU: 0x3703F, offset: 0x699FD, size: 0x8, addend: 0x0, symName: __ZN2cc32NEW_STANDALONE_ANDROID_COMPILERS17hb2c1e5abfb1921efE, symObjAddr: 0x22C30, symBinAddr: 0x1000B1710, symSize: 0x0 }
  - { offsetInCU: 0x37534, offset: 0x69EF2, size: 0x8, addend: 0x0, symName: '__ZN78_$LT$cc..Error$u20$as$u20$core..convert..From$LT$std..io..error..Error$GT$$GT$4from17he13bdf257aa7cd61E', symObjAddr: 0x3C00, symBinAddr: 0x10000D520, symSize: 0x130 }
  - { offsetInCU: 0x37ABD, offset: 0x6A47B, size: 0x8, addend: 0x0, symName: '__ZN48_$LT$cc..Error$u20$as$u20$core..fmt..Display$GT$3fmt17hab75b4f6091d9086E', symObjAddr: 0x3D30, symBinAddr: 0x10000D650, symSize: 0x70 }
  - { offsetInCU: 0x37E18, offset: 0x6A7D6, size: 0x8, addend: 0x0, symName: __ZN2cc4fail17hf9e7bfff79cac724E, symObjAddr: 0x1CE80, symBinAddr: 0x100025390, symSize: 0x70 }
  - { offsetInCU: 0x37E6D, offset: 0x6A82B, size: 0x8, addend: 0x0, symName: '__ZN48_$LT$cc..AppleOs$u20$as$u20$core..fmt..Debug$GT$3fmt17hfd4c484f1daa8688E', symObjAddr: 0x1CEF0, symBinAddr: 0x100025400, symSize: 0xA0 }
  - { offsetInCU: 0x37EAE, offset: 0x6A86C, size: 0x8, addend: 0x0, symName: __ZN2cc18apple_os_sdk_parts17habadde126c8e942cE, symObjAddr: 0x1CF90, symBinAddr: 0x1000254A0, symSize: 0x1D0 }
  - { offsetInCU: 0x3814E, offset: 0x6AB0C, size: 0x8, addend: 0x0, symName: __ZN2cc27autodetect_android_compiler17h9aecf1b3940f2488E, symObjAddr: 0x1D160, symBinAddr: 0x100025670, symSize: 0x880 }
  - { offsetInCU: 0x3A11B, offset: 0x6CAD9, size: 0x8, addend: 0x0, symName: __ZN2cc52map_darwin_target_from_rust_to_compiler_architecture17h9e47608914a8dd07E, symObjAddr: 0x1D9E0, symBinAddr: 0x100025EF0, symSize: 0x140 }
  - { offsetInCU: 0x3A2DB, offset: 0x6CC99, size: 0x8, addend: 0x0, symName: '__ZN50_$LT$cc..ErrorKind$u20$as$u20$core..fmt..Debug$GT$3fmt17hf5653dfd6258290dE', symObjAddr: 0x1DC60, symBinAddr: 0x100026170, symSize: 0x2C }
  - { offsetInCU: 0x3A78B, offset: 0x6D149, size: 0x8, addend: 0x0, symName: '__ZN3std4sync6rwlock15RwLock$LT$T$GT$5write17h1f6072bc7ead5905E', symObjAddr: 0x10, symBinAddr: 0x100009B20, symSize: 0x70 }
  - { offsetInCU: 0x3BBC0, offset: 0x6E57E, size: 0x8, addend: 0x0, symName: __ZN4core3str7pattern14TwoWaySearcher4next17ha5fde42a6839db66E, symObjAddr: 0x21A0, symBinAddr: 0x10000BAF0, symSize: 0x1F0 }
  - { offsetInCU: 0x3C279, offset: 0x6EC37, size: 0x8, addend: 0x0, symName: '__ZN4core6option15Option$LT$T$GT$7or_else17hffce3f04cac57fc7E', symObjAddr: 0x26D0, symBinAddr: 0x10000C020, symSize: 0x340 }
  - { offsetInCU: 0x3D7AA, offset: 0x70168, size: 0x8, addend: 0x0, symName: '__ZN5alloc3vec16Vec$LT$T$C$A$GT$4push17h240ae26f220f4437E', symObjAddr: 0x3660, symBinAddr: 0x10000CFB0, symSize: 0x80 }
  - { offsetInCU: 0x3E3BD, offset: 0x70D7B, size: 0x8, addend: 0x0, symName: __ZN2cc5Build3new17h52531201f14f5c83E, symObjAddr: 0x3DA0, symBinAddr: 0x10000D6C0, symSize: 0xBD0 }
  - { offsetInCU: 0x417CE, offset: 0x7418C, size: 0x8, addend: 0x0, symName: __ZN2cc5Build23is_flag_supported_inner17hbf3f5fb602693eacE, symObjAddr: 0x49A0, symBinAddr: 0x10000E290, symSize: 0x13D0 }
  - { offsetInCU: 0x46467, offset: 0x78E25, size: 0x8, addend: 0x0, symName: __ZN2cc5Build9opt_level17hc2d2fed703e41effE, symObjAddr: 0x63A0, symBinAddr: 0x10000F660, symSize: 0x200 }
  - { offsetInCU: 0x47C0F, offset: 0x7A5CD, size: 0x8, addend: 0x0, symName: __ZN2cc5Build11try_compile17h2faca9e48cdeda39E, symObjAddr: 0x66B0, symBinAddr: 0x10000F860, symSize: 0x2170 }
  - { offsetInCU: 0x4F47A, offset: 0x81E38, size: 0x8, addend: 0x0, symName: __ZN2cc5Build7compile17h1b276dee42b03a18E, symObjAddr: 0x8950, symBinAddr: 0x100011B00, symSize: 0x80 }
  - { offsetInCU: 0x4F6A2, offset: 0x82060, size: 0x8, addend: 0x0, symName: __ZN2cc5Build15compile_objects17he8a905684fec2140E, symObjAddr: 0x8CE0, symBinAddr: 0x100011B80, symSize: 0x460 }
  - { offsetInCU: 0x50CD3, offset: 0x83691, size: 0x8, addend: 0x0, symName: __ZN2cc5Build25create_compile_object_cmd17h0deb69191cc154b2E, symObjAddr: 0x95C0, symBinAddr: 0x100012460, symSize: 0x1480 }
  - { offsetInCU: 0x54827, offset: 0x871E5, size: 0x8, addend: 0x0, symName: __ZN2cc5Build12get_compiler17h29d5736128ed8b59E, symObjAddr: 0xADD0, symBinAddr: 0x1000138E0, symSize: 0xA0 }
  - { offsetInCU: 0x54F0F, offset: 0x878CD, size: 0x8, addend: 0x0, symName: __ZN2cc5Build16try_get_compiler17h8c1b568cdb1e2033E, symObjAddr: 0xAE70, symBinAddr: 0x100013980, symSize: 0xE40 }
  - { offsetInCU: 0x599C3, offset: 0x8C381, size: 0x8, addend: 0x0, symName: __ZN2cc5Build17add_default_flags17h8e5ddabc8aa64408E, symObjAddr: 0xBCB0, symBinAddr: 0x1000147C0, symSize: 0x6D50 }
  - { offsetInCU: 0x6FE86, offset: 0xA2844, size: 0x8, addend: 0x0, symName: __ZN2cc5Build20assemble_progressive17h8cd01610bb03685eE, symObjAddr: 0x12A00, symBinAddr: 0x10001B510, symSize: 0x620 }
  - { offsetInCU: 0x712B5, offset: 0xA3C73, size: 0x8, addend: 0x0, symName: __ZN2cc5Build3cmd17ha9f9827a10542b11E, symObjAddr: 0x13020, symBinAddr: 0x10001BB30, symSize: 0xC0 }
  - { offsetInCU: 0x71498, offset: 0xA3E56, size: 0x8, addend: 0x0, symName: __ZN2cc5Build3cmd17hb4faa51904155279E, symObjAddr: 0x130E0, symBinAddr: 0x10001BBF0, symSize: 0xC0 }
  - { offsetInCU: 0x72035, offset: 0xA49F3, size: 0x8, addend: 0x0, symName: __ZN2cc5Build17get_base_compiler17h58114b4b25855fefE, symObjAddr: 0x131A0, symBinAddr: 0x10001BCB0, symSize: 0x2850 }
  - { offsetInCU: 0x79791, offset: 0xAC14F, size: 0x8, addend: 0x0, symName: __ZN2cc5Build22rustc_wrapper_fallback17h213bae1cac7ad657E, symObjAddr: 0x159F0, symBinAddr: 0x10001E500, symSize: 0xE0 }
  - { offsetInCU: 0x79E50, offset: 0xAC80E, size: 0x8, addend: 0x0, symName: __ZN2cc5Build8env_tool17hc74d6d03deff23c2E, symObjAddr: 0x15AD0, symBinAddr: 0x10001E5E0, symSize: 0x5A0 }
  - { offsetInCU: 0x7B0CA, offset: 0xADA88, size: 0x8, addend: 0x0, symName: __ZN2cc5Build19get_cpp_link_stdlib17h9957e2836442a996E, symObjAddr: 0x16070, symBinAddr: 0x10001EB80, symSize: 0x3D0 }
  - { offsetInCU: 0x7BE19, offset: 0xAE7D7, size: 0x8, addend: 0x0, symName: __ZN2cc5Build26try_get_archiver_and_flags17h6cfe7d7a6fe726a4E, symObjAddr: 0x16630, symBinAddr: 0x10001EF50, symSize: 0x370 }
  - { offsetInCU: 0x7CDF4, offset: 0xAF7B2, size: 0x8, addend: 0x0, symName: __ZN2cc5Build25get_base_archiver_variant17h3e2a2a448301e138E, symObjAddr: 0x16D90, symBinAddr: 0x10001F2C0, symSize: 0x1D00 }
  - { offsetInCU: 0x8276D, offset: 0xB512B, size: 0x8, addend: 0x0, symName: __ZN2cc5Build17prefix_for_target17hf2dfccb71ee56918E, symObjAddr: 0x18A90, symBinAddr: 0x100020FC0, symSize: 0x1260 }
  - { offsetInCU: 0x87ACB, offset: 0xBA489, size: 0x8, addend: 0x0, symName: __ZN2cc5Build23find_working_gnu_prefix17hd51aa5856d4567b3E, symObjAddr: 0x19CF0, symBinAddr: 0x100022220, symSize: 0x450 }
  - { offsetInCU: 0x88EB1, offset: 0xBB86F, size: 0x8, addend: 0x0, symName: __ZN2cc5Build10get_target17h50bbfc6669491defE, symObjAddr: 0x1A140, symBinAddr: 0x100022670, symSize: 0xB0 }
  - { offsetInCU: 0x88F8C, offset: 0xBB94A, size: 0x8, addend: 0x0, symName: __ZN2cc5Build8get_host17h700bd20b7eeeeba1E, symObjAddr: 0x1A1F0, symBinAddr: 0x100022720, symSize: 0xB0 }
  - { offsetInCU: 0x89067, offset: 0xBBA25, size: 0x8, addend: 0x0, symName: __ZN2cc5Build9get_debug17hded7cfe902d1332fE, symObjAddr: 0x1A2A0, symBinAddr: 0x1000227D0, symSize: 0x70 }
  - { offsetInCU: 0x893D4, offset: 0xBBD92, size: 0x8, addend: 0x0, symName: __ZN2cc5Build11get_out_dir17hd31232f25ae13126E, symObjAddr: 0x1A310, symBinAddr: 0x100022840, symSize: 0x110 }
  - { offsetInCU: 0x89EC0, offset: 0xBC87E, size: 0x8, addend: 0x0, symName: __ZN2cc5Build6getenv17h01767675c8b53750E, symObjAddr: 0x1A420, symBinAddr: 0x100022950, symSize: 0x940 }
  - { offsetInCU: 0x8C51E, offset: 0xBEEDC, size: 0x8, addend: 0x0, symName: __ZN2cc5Build17getenv_unwrap_str17hfc8114c26b210967E, symObjAddr: 0x1AD60, symBinAddr: 0x100023290, symSize: 0x250 }
  - { offsetInCU: 0x8D0BD, offset: 0xBFA7B, size: 0x8, addend: 0x0, symName: __ZN2cc5Build27getenv_with_target_prefixes17h4f8e13f363725d9aE, symObjAddr: 0x1AFB0, symBinAddr: 0x1000234E0, symSize: 0x840 }
  - { offsetInCU: 0x8F47B, offset: 0xC1E39, size: 0x8, addend: 0x0, symName: __ZN2cc5Build8envflags17ha0d8a0790f067182E, symObjAddr: 0x1B7F0, symBinAddr: 0x100023D20, symSize: 0x140 }
  - { offsetInCU: 0x9024E, offset: 0xC2C0C, size: 0x8, addend: 0x0, symName: __ZN2cc5Build24apple_deployment_version17hdd11663483f3339cE, symObjAddr: 0x1B9E0, symBinAddr: 0x100023F10, symSize: 0x8C0 }
  - { offsetInCU: 0x934BC, offset: 0xC5E7A, size: 0x8, addend: 0x0, symName: __ZN2cc5Build5which17h0438d64c23a4b89eE, symObjAddr: 0x1C8F0, symBinAddr: 0x100024E20, symSize: 0x2E0 }
  - { offsetInCU: 0x946A3, offset: 0xC7061, size: 0x8, addend: 0x0, symName: __ZN2cc10AsmFileExt9from_path17ha32431f45dbddeaeE, symObjAddr: 0x1DB20, symBinAddr: 0x100026030, symSize: 0xA0 }
  - { offsetInCU: 0x1226, offset: 0xD1C81, size: 0x8, addend: 0x0, symName: __ZN2cc4tool4Tool13with_features9is_zig_cc17h905977a3d3ab50feE, symObjAddr: 0x2250, symBinAddr: 0x1000281B0, symSize: 0x180 }
  - { offsetInCU: 0x3893, offset: 0xD42EE, size: 0x8, addend: 0x0, symName: '__ZN4core3ptr208drop_in_place$LT$std..sync..poison..PoisonError$LT$std..sync..rwlock..RwLockReadGuard$LT$std..collections..hash..map..HashMap$LT$alloc..boxed..Box$LT$std..path..Path$GT$$C$cc..tool..ToolFamily$GT$$GT$$GT$$GT$17h00fc1c735a83bcfcE', symObjAddr: 0x80, symBinAddr: 0x1000261A0, symSize: 0x40 }
  - { offsetInCU: 0x3A73, offset: 0xD44CE, size: 0x8, addend: 0x0, symName: '__ZN4core3ptr209drop_in_place$LT$std..sync..poison..PoisonError$LT$std..sync..rwlock..RwLockWriteGuard$LT$std..collections..hash..map..HashMap$LT$alloc..boxed..Box$LT$std..path..Path$GT$$C$cc..tool..ToolFamily$GT$$GT$$GT$$GT$17h4991018270f9fea5E', symObjAddr: 0xC0, symBinAddr: 0x1000261E0, symSize: 0x60 }
  - { offsetInCU: 0x3C7C, offset: 0xD46D7, size: 0x8, addend: 0x0, symName: '__ZN4core3ptr251drop_in_place$LT$alloc..vec..Vec$LT$alloc..boxed..Box$LT$dyn$u20$core..ops..function..FnMut$LT$$LP$$RP$$GT$$u2b$Output$u20$$u3d$$u20$core..result..Result$LT$$LP$$RP$$C$std..io..error..Error$GT$$u2b$core..marker..Sync$u2b$core..marker..Send$GT$$GT$$GT$17h114d73b5d355f64bE', symObjAddr: 0x120, symBinAddr: 0x100026240, symSize: 0x60 }
  - { offsetInCU: 0x40FC, offset: 0xD4B57, size: 0x8, addend: 0x0, symName: '__ZN4core3ptr42drop_in_place$LT$std..io..error..Error$GT$17h1b20bc390b06fba6E', symObjAddr: 0x180, symBinAddr: 0x1000262A0, symSize: 0xA0 }
  - { offsetInCU: 0x4772, offset: 0xD51CD, size: 0x8, addend: 0x0, symName: '__ZN4core3ptr42drop_in_place$LT$std..process..Command$GT$17h705bee0d97bf5103E.llvm.7482791767308197148', symObjAddr: 0x220, symBinAddr: 0x100026340, symSize: 0x250 }
  - { offsetInCU: 0x5621, offset: 0xD607C, size: 0x8, addend: 0x0, symName: '__ZN4core3ptr48drop_in_place$LT$cc..tempfile..NamedTempfile$GT$17h7b46da14ca476da2E', symObjAddr: 0x490, symBinAddr: 0x100026590, symSize: 0x80 }
  - { offsetInCU: 0x5971, offset: 0xD63CC, size: 0x8, addend: 0x0, symName: '__ZN4core3ptr50drop_in_place$LT$alloc..borrow..Cow$LT$str$GT$$GT$17hfc01897c3094bed9E.llvm.7482791767308197148', symObjAddr: 0x510, symBinAddr: 0x100026610, symSize: 0x30 }
  - { offsetInCU: 0x91BD, offset: 0xD9C18, size: 0x8, addend: 0x0, symName: '__ZN4core3str7pattern13simd_contains28_$u7b$$u7b$closure$u7d$$u7d$17h84c98b00237902ceE', symObjAddr: 0x570, symBinAddr: 0x100091600, symSize: 0x100 }
  - { offsetInCU: 0x97E6, offset: 0xDA241, size: 0x8, addend: 0x0, symName: '__ZN55_$LT$$RF$str$u20$as$u20$core..str..pattern..Pattern$GT$15is_contained_in17h3b44ad7441fe57baE.llvm.7482791767308197148', symObjAddr: 0x670, symBinAddr: 0x100026640, symSize: 0x8B0 }
  - { offsetInCU: 0xDACE, offset: 0xDE529, size: 0x8, addend: 0x0, symName: __ZN2cc4tool4Tool13with_features17h6412f833ad0c0951E, symObjAddr: 0xF90, symBinAddr: 0x100026EF0, symSize: 0x12C0 }
  - { offsetInCU: 0x11CDE, offset: 0xE2739, size: 0x8, addend: 0x0, symName: __ZN2cc4tool4Tool10remove_arg17hc8ab735b2977f917E, symObjAddr: 0x23D0, symBinAddr: 0x100028330, symSize: 0x80 }
  - { offsetInCU: 0x11EE4, offset: 0xE293F, size: 0x8, addend: 0x0, symName: __ZN2cc4tool4Tool11push_cc_arg17h531bae3649ffab02E, symObjAddr: 0x2450, symBinAddr: 0x1000283B0, symSize: 0x120 }
  - { offsetInCU: 0x1265D, offset: 0xE30B8, size: 0x8, addend: 0x0, symName: __ZN2cc4tool4Tool25push_opt_unless_duplicate17h9db7dc2f39b16e57E, symObjAddr: 0x2570, symBinAddr: 0x1000284D0, symSize: 0x3B0 }
  - { offsetInCU: 0x133EC, offset: 0xE3E47, size: 0x8, addend: 0x0, symName: __ZN2cc4tool4Tool10to_command17h30ce0cc39105ee4bE, symObjAddr: 0x2920, symBinAddr: 0x100028880, symSize: 0x230 }
  - { offsetInCU: 0x13EE6, offset: 0xE4941, size: 0x8, addend: 0x0, symName: __ZN2cc4tool10ToolFamily15add_debug_flags17hc81ce4bb5e125497E, symObjAddr: 0x2E50, symBinAddr: 0x100028AB0, symSize: 0xF0 }
  - { offsetInCU: 0x1E, offset: 0xE6D9C, size: 0x8, addend: 0x0, symName: '__ZN4core3ptr107drop_in_place$LT$alloc..vec..Vec$LT$$LP$std..ffi..os_str..OsString$C$std..ffi..os_str..OsString$RP$$GT$$GT$17hf3367384d142ee8bE', symObjAddr: 0x0, symBinAddr: 0x100028BA0, symSize: 0xA0 }
  - { offsetInCU: 0x10A, offset: 0xE6E88, size: 0x8, addend: 0x0, symName: '__ZN83_$LT$std..io..buffered..bufwriter..BufWriter$LT$W$GT$$u20$as$u20$std..io..Write$GT$17is_write_vectored17h93be20318dc67b54E', symObjAddr: 0x1800, symBinAddr: 0x100029B80, symSize: 0x10 }
  - { offsetInCU: 0x13E, offset: 0xE6EBC, size: 0x8, addend: 0x0, symName: '__ZN83_$LT$std..io..buffered..bufwriter..BufWriter$LT$W$GT$$u20$as$u20$std..io..Write$GT$5write17h49d7a165f1653be7E', symObjAddr: 0x1810, symBinAddr: 0x100029B90, symSize: 0x60 }
  - { offsetInCU: 0x32A, offset: 0xE70A8, size: 0x8, addend: 0x0, symName: '__ZN83_$LT$std..io..buffered..bufwriter..BufWriter$LT$W$GT$$u20$as$u20$std..io..Write$GT$9write_all17h080eeb59ed0efc4bE', symObjAddr: 0x1870, symBinAddr: 0x100029BF0, symSize: 0x60 }
  - { offsetInCU: 0x21A0, offset: 0xE8F1E, size: 0x8, addend: 0x0, symName: '__ZN4core3ptr107drop_in_place$LT$alloc..vec..Vec$LT$$LP$std..ffi..os_str..OsString$C$std..ffi..os_str..OsString$RP$$GT$$GT$17hf3367384d142ee8bE', symObjAddr: 0x0, symBinAddr: 0x100028BA0, symSize: 0xA0 }
  - { offsetInCU: 0x258A, offset: 0xE9308, size: 0x8, addend: 0x0, symName: '__ZN4core3ptr114drop_in_place$LT$$LP$alloc..sync..Arc$LT$str$GT$$C$core..option..Option$LT$alloc..sync..Arc$LT$str$GT$$GT$$RP$$GT$17h9da05554e273f378E.llvm.1271792300694495877', symObjAddr: 0xA0, symBinAddr: 0x100028C40, symSize: 0x70 }
  - { offsetInCU: 0x282A, offset: 0xE95A8, size: 0x8, addend: 0x0, symName: '__ZN4core3ptr126drop_in_place$LT$$LP$alloc..sync..Arc$LT$std..ffi..os_str..OsStr$GT$$C$alloc..sync..Arc$LT$std..ffi..os_str..OsStr$GT$$RP$$GT$17h0006a0907fb795fcE.llvm.1271792300694495877', symObjAddr: 0x110, symBinAddr: 0x100028CB0, symSize: 0x60 }
  - { offsetInCU: 0x2DBB, offset: 0xE9B39, size: 0x8, addend: 0x0, symName: '__ZN4core3ptr171drop_in_place$LT$$LP$std..process..Command$C$alloc..borrow..Cow$LT$std..path..Path$GT$$C$cc..Build..compile_objects..KillOnDrop$C$cc..parallel..job_token..JobToken$RP$$GT$17hdea37887261da870E.llvm.1271792300694495877', symObjAddr: 0x170, symBinAddr: 0x100028D10, symSize: 0x350 }
  - { offsetInCU: 0x3FA8, offset: 0xEAD26, size: 0x8, addend: 0x0, symName: '__ZN4core3ptr228drop_in_place$LT$alloc..boxed..Box$LT$dyn$u20$core..ops..function..FnMut$LT$$LP$$RP$$GT$$u2b$Output$u20$$u3d$$u20$core..result..Result$LT$$LP$$RP$$C$std..io..error..Error$GT$$u2b$core..marker..Sync$u2b$core..marker..Send$GT$$GT$17h38fd8de8f794cdf7E.llvm.1271792300694495877', symObjAddr: 0x4C0, symBinAddr: 0x100029060, symSize: 0x70 }
  - { offsetInCU: 0x41A1, offset: 0xEAF1F, size: 0x8, addend: 0x0, symName: '__ZN4core3ptr251drop_in_place$LT$alloc..vec..Vec$LT$alloc..boxed..Box$LT$dyn$u20$core..ops..function..FnMut$LT$$LP$$RP$$GT$$u2b$Output$u20$$u3d$$u20$core..result..Result$LT$$LP$$RP$$C$std..io..error..Error$GT$$u2b$core..marker..Sync$u2b$core..marker..Send$GT$$GT$$GT$17h114d73b5d355f64bE', symObjAddr: 0x530, symBinAddr: 0x1000290D0, symSize: 0x60 }
  - { offsetInCU: 0x44A7, offset: 0xEB225, size: 0x8, addend: 0x0, symName: '__ZN4core3ptr40drop_in_place$LT$std..process..Child$GT$17h61b10f9c65d7084aE', symObjAddr: 0x5E0, symBinAddr: 0x100029130, symSize: 0x40 }
  - { offsetInCU: 0x4664, offset: 0xEB3E2, size: 0x8, addend: 0x0, symName: '__ZN4core3ptr57drop_in_place$LT$cc..command_helpers..StderrForwarder$GT$17hd71c9a617131a245E', symObjAddr: 0x620, symBinAddr: 0x100029170, symSize: 0x40 }
  - { offsetInCU: 0x4855, offset: 0xEB5D3, size: 0x8, addend: 0x0, symName: '__ZN4core3ptr59drop_in_place$LT$cc..Build..compile_objects..KillOnDrop$GT$17hf904e9831280e99aE', symObjAddr: 0x660, symBinAddr: 0x1000291B0, symSize: 0x90 }
  - { offsetInCU: 0x4C3F, offset: 0xEB9BD, size: 0x8, addend: 0x0, symName: '__ZN4core3ptr65drop_in_place$LT$alloc..vec..Vec$LT$alloc..string..String$GT$$GT$17hfbd4d1c14cb8b0cbE', symObjAddr: 0x6F0, symBinAddr: 0x100029240, symSize: 0x90 }
  - { offsetInCU: 0x4F11, offset: 0xEBC8F, size: 0x8, addend: 0x0, symName: '__ZN4core3ptr70drop_in_place$LT$alloc..vec..Vec$LT$std..ffi..os_str..OsString$GT$$GT$17h2463cd238496e148E.llvm.1271792300694495877', symObjAddr: 0x780, symBinAddr: 0x1000292D0, symSize: 0x90 }
  - { offsetInCU: 0x51B3, offset: 0xEBF31, size: 0x8, addend: 0x0, symName: '__ZN4core3ptr90drop_in_place$LT$std..io..buffered..bufwriter..BufWriter$LT$std..io..stdio..Stdout$GT$$GT$17h4246f813160bf21eE', symObjAddr: 0x810, symBinAddr: 0x100029360, symSize: 0x50 }
  - { offsetInCU: 0x8C64, offset: 0xEF9E2, size: 0x8, addend: 0x0, symName: '__ZN91_$LT$core..str..iter..SplitWhitespace$u20$as$u20$core..iter..traits..iterator..Iterator$GT$4next17h5ca0c78a296ef7efE', symObjAddr: 0x18D0, symBinAddr: 0x100029C50, symSize: 0x1E0 }
  - { offsetInCU: 0x9942, offset: 0xF06C0, size: 0x8, addend: 0x0, symName: '__ZN70_$LT$alloc..vec..Vec$LT$T$C$A$GT$$u20$as$u20$core..ops..drop..Drop$GT$4drop17h4e0ca51b09179536E', symObjAddr: 0x12A0, symBinAddr: 0x100029960, symSize: 0xC0 }
  - { offsetInCU: 0x9B80, offset: 0xF08FE, size: 0x8, addend: 0x0, symName: '__ZN70_$LT$alloc..vec..Vec$LT$T$C$A$GT$$u20$as$u20$core..ops..drop..Drop$GT$4drop17hea98fb93b1d95329E', symObjAddr: 0x16A0, symBinAddr: 0x100029A20, symSize: 0xB0 }
  - { offsetInCU: 0x9EA4, offset: 0xF0C22, size: 0x8, addend: 0x0, symName: '__ZN70_$LT$alloc..vec..Vec$LT$T$C$A$GT$$u20$as$u20$core..ops..drop..Drop$GT$4drop17hfad69f81c470a065E', symObjAddr: 0x1750, symBinAddr: 0x100029AD0, symSize: 0xB0 }
  - { offsetInCU: 0xABC6, offset: 0xF1944, size: 0x8, addend: 0x0, symName: '__ZN67_$LT$alloc..vec..Vec$LT$T$C$A$GT$$u20$as$u20$core..clone..Clone$GT$5clone17h5f16fd4889a9fbefE', symObjAddr: 0xDC0, symBinAddr: 0x100029590, symSize: 0x180 }
  - { offsetInCU: 0xB174, offset: 0xF1EF2, size: 0x8, addend: 0x0, symName: '__ZN67_$LT$alloc..vec..Vec$LT$T$C$A$GT$$u20$as$u20$core..clone..Clone$GT$5clone17hc1f6612f7b1afa21E', symObjAddr: 0xF40, symBinAddr: 0x100029710, symSize: 0x250 }
  - { offsetInCU: 0xBFE4, offset: 0xF2D62, size: 0x8, addend: 0x0, symName: '__ZN98_$LT$alloc..vec..Vec$LT$T$GT$$u20$as$u20$alloc..vec..spec_from_iter..SpecFromIter$LT$T$C$I$GT$$GT$9from_iter17h1d057b37fb4356e2E', symObjAddr: 0x1C70, symBinAddr: 0x100029E30, symSize: 0x330 }
  - { offsetInCU: 0xD2EC, offset: 0xF406A, size: 0x8, addend: 0x0, symName: '__ZN98_$LT$alloc..vec..Vec$LT$T$GT$$u20$as$u20$alloc..vec..spec_from_iter..SpecFromIter$LT$T$C$I$GT$$GT$9from_iter17h26ca583bf319edf5E', symObjAddr: 0x1FA0, symBinAddr: 0x10002A160, symSize: 0x0 }
  - { offsetInCU: 0xDE9E, offset: 0xF4C1C, size: 0x8, addend: 0x0, symName: '__ZN98_$LT$alloc..vec..Vec$LT$T$GT$$u20$as$u20$alloc..vec..spec_from_iter..SpecFromIter$LT$T$C$I$GT$$GT$9from_iter17h81325b3080d74a77E', symObjAddr: 0x2250, symBinAddr: 0x10002A410, symSize: 0x350 }
  - { offsetInCU: 0xEC40, offset: 0xF59BE, size: 0x8, addend: 0x0, symName: '__ZN98_$LT$alloc..vec..Vec$LT$T$GT$$u20$as$u20$alloc..vec..spec_from_iter..SpecFromIter$LT$T$C$I$GT$$GT$9from_iter17hab19c9d24a7aaa45E', symObjAddr: 0x25A0, symBinAddr: 0x10002A760, symSize: 0x270 }
  - { offsetInCU: 0x1117D, offset: 0xF7EFB, size: 0x8, addend: 0x0, symName: '__ZN2cc5Build15compile_objects28_$u7b$$u7b$closure$u7d$$u7d$28_$u7b$$u7b$closure$u7d$$u7d$28_$u7b$$u7b$closure$u7d$$u7d$17hfccd45ee90411489E.llvm.1271792300694495877', symObjAddr: 0x2810, symBinAddr: 0x10002A9D0, symSize: 0x232 }
  - { offsetInCU: 0x12E45, offset: 0xF9BC3, size: 0x8, addend: 0x0, symName: '__ZN5alloc3vec16Vec$LT$T$C$A$GT$10retain_mut17h1a7d1f7df1de5b2dE', symObjAddr: 0x860, symBinAddr: 0x1000293B0, symSize: 0x160 }
  - { offsetInCU: 0x1334C, offset: 0xFA0CA, size: 0x8, addend: 0x0, symName: '__ZN5alloc3vec16Vec$LT$T$C$A$GT$6remove17h2ba802d17f36a980E', symObjAddr: 0xA50, symBinAddr: 0x100029510, symSize: 0x80 }
  - { offsetInCU: 0x1E, offset: 0xFEA30, size: 0x8, addend: 0x0, symName: __ZN3std2io5error5Error4kind17h476d3690a46ae4c1E, symObjAddr: 0x0, symBinAddr: 0x10002AC10, symSize: 0x60 }
  - { offsetInCU: 0x1248, offset: 0xFFC5A, size: 0x8, addend: 0x0, symName: '__ZN4core3ptr31drop_in_place$LT$cc..Object$GT$17heed50c58ea993ee7E', symObjAddr: 0x60, symBinAddr: 0x10002AC70, symSize: 0x50 }
  - { offsetInCU: 0x161E, offset: 0x100030, size: 0x8, addend: 0x0, symName: '__ZN4core3ptr40drop_in_place$LT$std..process..Child$GT$17h61b10f9c65d7084aE.llvm.7834839387742176320', symObjAddr: 0xB0, symBinAddr: 0x10002ACC0, symSize: 0x40 }
  - { offsetInCU: 0x19DF, offset: 0x1003F1, size: 0x8, addend: 0x0, symName: '__ZN4core3ptr42drop_in_place$LT$std..io..error..Error$GT$17h1b20bc390b06fba6E', symObjAddr: 0xF0, symBinAddr: 0x10002AD00, symSize: 0xA0 }
  - { offsetInCU: 0x1E4A, offset: 0x10085C, size: 0x8, addend: 0x0, symName: '__ZN4core3ptr47drop_in_place$LT$std..io..stdio..StdoutLock$GT$17h7335c03b08622cd8E', symObjAddr: 0x1B0, symBinAddr: 0x10002ADA0, symSize: 0x60 }
  - { offsetInCU: 0x20E8, offset: 0x100AFA, size: 0x8, addend: 0x0, symName: '__ZN4core3ptr54drop_in_place$LT$alloc..vec..Vec$LT$cc..Object$GT$$GT$17h598ee74b8ca15795E', symObjAddr: 0x210, symBinAddr: 0x10002AE00, symSize: 0xA0 }
  - { offsetInCU: 0x24E3, offset: 0x100EF5, size: 0x8, addend: 0x0, symName: '__ZN4core3ptr57drop_in_place$LT$cc..command_helpers..StderrForwarder$GT$17hd71c9a617131a245E', symObjAddr: 0x2B0, symBinAddr: 0x10002AEA0, symSize: 0x40 }
  - { offsetInCU: 0x5F32, offset: 0x104944, size: 0x8, addend: 0x0, symName: __ZN2cc15command_helpers13write_warning17h6d86cbe2663de363E, symObjAddr: 0xBF0, symBinAddr: 0x10002B680, symSize: 0x190 }
  - { offsetInCU: 0x62C4, offset: 0x104CD6, size: 0x8, addend: 0x0, symName: __ZN2cc15command_helpers13wait_on_child17hd7ad21b9c70eacfeE.llvm.7834839387742176320, symObjAddr: 0xD80, symBinAddr: 0x10002B810, symSize: 0x420 }
  - { offsetInCU: 0x70AE, offset: 0x105AC0, size: 0x8, addend: 0x0, symName: __ZN2cc15command_helpers18objects_from_files17h4c077cd8b1349a32E, symObjAddr: 0x11A0, symBinAddr: 0x10002BC30, symSize: 0x9D0 }
  - { offsetInCU: 0x97FC, offset: 0x10820E, size: 0x8, addend: 0x0, symName: __ZN2cc15command_helpers3run17h187cf05515788fefE, symObjAddr: 0x1B70, symBinAddr: 0x10002C600, symSize: 0x100 }
  - { offsetInCU: 0x9AD9, offset: 0x1084EB, size: 0x8, addend: 0x0, symName: __ZN2cc15command_helpers3run17h29bdcb8a7d02c0c6E, symObjAddr: 0x1C70, symBinAddr: 0x10002C700, symSize: 0x0 }
  - { offsetInCU: 0x9DA1, offset: 0x1087B3, size: 0x8, addend: 0x0, symName: __ZN2cc15command_helpers3run17hf843e728ac6a23ffE, symObjAddr: 0x1D60, symBinAddr: 0x10002C7F0, symSize: 0x100 }
  - { offsetInCU: 0xA0EA, offset: 0x108AFC, size: 0x8, addend: 0x0, symName: __ZN2cc15command_helpers10run_output17h45fb68cba1633a66E, symObjAddr: 0x1E60, symBinAddr: 0x10002C8F0, symSize: 0x0 }
  - { offsetInCU: 0xAAAA, offset: 0x1094BC, size: 0x8, addend: 0x0, symName: __ZN2cc15command_helpers5spawn17h16f34f443845ecb0E, symObjAddr: 0x2100, symBinAddr: 0x10002CB90, symSize: 0x490 }
  - { offsetInCU: 0xB9A0, offset: 0x10A3B2, size: 0x8, addend: 0x0, symName: __ZN2cc15command_helpers23command_add_output_file17h87c8c16b707bd949E, symObjAddr: 0x25A0, symBinAddr: 0x10002D020, symSize: 0x120 }
  - { offsetInCU: 0xBE16, offset: 0x10A828, size: 0x8, addend: 0x0, symName: __ZN2cc15command_helpers17try_wait_on_child17h3dc49fb50ed3d335E, symObjAddr: 0x26C0, symBinAddr: 0x10002D140, symSize: 0x379 }
  - { offsetInCU: 0xC9D4, offset: 0x10B3E6, size: 0x8, addend: 0x0, symName: __ZN3std2io5error5Error4kind17h476d3690a46ae4c1E, symObjAddr: 0x0, symBinAddr: 0x10002AC10, symSize: 0x60 }
  - { offsetInCU: 0xDA03, offset: 0x10C415, size: 0x8, addend: 0x0, symName: __ZN2cc15command_helpers11CargoOutput3new17he118b2842c0c4121E, symObjAddr: 0x320, symBinAddr: 0x10002AEE0, symSize: 0xD0 }
  - { offsetInCU: 0xDEA3, offset: 0x10C8B5, size: 0x8, addend: 0x0, symName: __ZN2cc15command_helpers11CargoOutput14print_metadata17hc8733dd100c25d2fE, symObjAddr: 0x3F0, symBinAddr: 0x10002AFB0, symSize: 0x70 }
  - { offsetInCU: 0xDF12, offset: 0x10C924, size: 0x8, addend: 0x0, symName: __ZN2cc15command_helpers11CargoOutput13print_warning17hac076865d727713bE, symObjAddr: 0x460, symBinAddr: 0x10002B020, symSize: 0x70 }
  - { offsetInCU: 0xE094, offset: 0x10CAA6, size: 0x8, addend: 0x0, symName: __ZN2cc15command_helpers11CargoOutput11print_debug17he03acab04b558678E, symObjAddr: 0x4D0, symBinAddr: 0x10002B090, symSize: 0xD0 }
  - { offsetInCU: 0xE7A3, offset: 0x10D1B5, size: 0x8, addend: 0x0, symName: __ZN2cc15command_helpers15StderrForwarder17forward_available17hb4bdb30cfe8d7027E, symObjAddr: 0x640, symBinAddr: 0x10002B160, symSize: 0x520 }
  - { offsetInCU: 0x1E, offset: 0x111D84, size: 0x8, addend: 0x0, symName: '__ZN4core3ptr107drop_in_place$LT$$LP$alloc..boxed..Box$LT$str$GT$$C$alloc..sync..Arc$LT$std..ffi..os_str..OsStr$GT$$RP$$GT$17h6ca427f99e85df67E', symObjAddr: 0x0, symBinAddr: 0x10002D4C0, symSize: 0x50 }
  - { offsetInCU: 0xFF9, offset: 0x112D5F, size: 0x8, addend: 0x0, symName: '__ZN79_$LT$hashbrown..raw..RawTable$LT$T$C$A$GT$$u20$as$u20$core..ops..drop..Drop$GT$4drop17h2732e47715ea613dE', symObjAddr: 0x260, symBinAddr: 0x10002D720, symSize: 0x110 }
  - { offsetInCU: 0x1834, offset: 0x11359A, size: 0x8, addend: 0x0, symName: '__ZN79_$LT$hashbrown..raw..RawTable$LT$T$C$A$GT$$u20$as$u20$core..ops..drop..Drop$GT$4drop17h536b02269fcc4722E', symObjAddr: 0x370, symBinAddr: 0x10002D830, symSize: 0x110 }
  - { offsetInCU: 0x1862, offset: 0x1135C8, size: 0x8, addend: 0x0, symName: '__ZN79_$LT$hashbrown..raw..RawTable$LT$T$C$A$GT$$u20$as$u20$core..ops..drop..Drop$GT$4drop17h536b02269fcc4722E', symObjAddr: 0x370, symBinAddr: 0x10002D830, symSize: 0x110 }
  - { offsetInCU: 0x1889, offset: 0x1135EF, size: 0x8, addend: 0x0, symName: '__ZN79_$LT$hashbrown..raw..RawTable$LT$T$C$A$GT$$u20$as$u20$core..ops..drop..Drop$GT$4drop17h536b02269fcc4722E', symObjAddr: 0x370, symBinAddr: 0x10002D830, symSize: 0x110 }
  - { offsetInCU: 0x189A, offset: 0x113600, size: 0x8, addend: 0x0, symName: '__ZN79_$LT$hashbrown..raw..RawTable$LT$T$C$A$GT$$u20$as$u20$core..ops..drop..Drop$GT$4drop17h536b02269fcc4722E', symObjAddr: 0x370, symBinAddr: 0x10002D830, symSize: 0x110 }
  - { offsetInCU: 0x20AC, offset: 0x113E12, size: 0x8, addend: 0x0, symName: '__ZN79_$LT$hashbrown..raw..RawTable$LT$T$C$A$GT$$u20$as$u20$core..ops..drop..Drop$GT$4drop17h64403faf50740a27E', symObjAddr: 0x480, symBinAddr: 0x10002D940, symSize: 0x100 }
  - { offsetInCU: 0x20DA, offset: 0x113E40, size: 0x8, addend: 0x0, symName: '__ZN79_$LT$hashbrown..raw..RawTable$LT$T$C$A$GT$$u20$as$u20$core..ops..drop..Drop$GT$4drop17h64403faf50740a27E', symObjAddr: 0x480, symBinAddr: 0x10002D940, symSize: 0x100 }
  - { offsetInCU: 0x2101, offset: 0x113E67, size: 0x8, addend: 0x0, symName: '__ZN79_$LT$hashbrown..raw..RawTable$LT$T$C$A$GT$$u20$as$u20$core..ops..drop..Drop$GT$4drop17h64403faf50740a27E', symObjAddr: 0x480, symBinAddr: 0x10002D940, symSize: 0x100 }
  - { offsetInCU: 0x2112, offset: 0x113E78, size: 0x8, addend: 0x0, symName: '__ZN79_$LT$hashbrown..raw..RawTable$LT$T$C$A$GT$$u20$as$u20$core..ops..drop..Drop$GT$4drop17h64403faf50740a27E', symObjAddr: 0x480, symBinAddr: 0x10002D940, symSize: 0x100 }
  - { offsetInCU: 0x298B, offset: 0x1146F1, size: 0x8, addend: 0x0, symName: '__ZN79_$LT$hashbrown..raw..RawTable$LT$T$C$A$GT$$u20$as$u20$core..ops..drop..Drop$GT$4drop17h84a13f5d615b8746E', symObjAddr: 0x580, symBinAddr: 0x10002DA40, symSize: 0x120 }
  - { offsetInCU: 0x29B9, offset: 0x11471F, size: 0x8, addend: 0x0, symName: '__ZN79_$LT$hashbrown..raw..RawTable$LT$T$C$A$GT$$u20$as$u20$core..ops..drop..Drop$GT$4drop17h84a13f5d615b8746E', symObjAddr: 0x580, symBinAddr: 0x10002DA40, symSize: 0x120 }
  - { offsetInCU: 0x29E0, offset: 0x114746, size: 0x8, addend: 0x0, symName: '__ZN79_$LT$hashbrown..raw..RawTable$LT$T$C$A$GT$$u20$as$u20$core..ops..drop..Drop$GT$4drop17h84a13f5d615b8746E', symObjAddr: 0x580, symBinAddr: 0x10002DA40, symSize: 0x120 }
  - { offsetInCU: 0x29F1, offset: 0x114757, size: 0x8, addend: 0x0, symName: '__ZN79_$LT$hashbrown..raw..RawTable$LT$T$C$A$GT$$u20$as$u20$core..ops..drop..Drop$GT$4drop17h84a13f5d615b8746E', symObjAddr: 0x580, symBinAddr: 0x10002DA40, symSize: 0x120 }
  - { offsetInCU: 0x32A0, offset: 0x115006, size: 0x8, addend: 0x0, symName: '__ZN79_$LT$hashbrown..raw..RawTable$LT$T$C$A$GT$$u20$as$u20$core..ops..drop..Drop$GT$4drop17ha4d1e59ab0fd1754E', symObjAddr: 0x6A0, symBinAddr: 0x10002DB60, symSize: 0x110 }
  - { offsetInCU: 0x32CE, offset: 0x115034, size: 0x8, addend: 0x0, symName: '__ZN79_$LT$hashbrown..raw..RawTable$LT$T$C$A$GT$$u20$as$u20$core..ops..drop..Drop$GT$4drop17ha4d1e59ab0fd1754E', symObjAddr: 0x6A0, symBinAddr: 0x10002DB60, symSize: 0x110 }
  - { offsetInCU: 0x32F5, offset: 0x11505B, size: 0x8, addend: 0x0, symName: '__ZN79_$LT$hashbrown..raw..RawTable$LT$T$C$A$GT$$u20$as$u20$core..ops..drop..Drop$GT$4drop17ha4d1e59ab0fd1754E', symObjAddr: 0x6A0, symBinAddr: 0x10002DB60, symSize: 0x110 }
  - { offsetInCU: 0x3306, offset: 0x11506C, size: 0x8, addend: 0x0, symName: '__ZN79_$LT$hashbrown..raw..RawTable$LT$T$C$A$GT$$u20$as$u20$core..ops..drop..Drop$GT$4drop17ha4d1e59ab0fd1754E', symObjAddr: 0x6A0, symBinAddr: 0x10002DB60, symSize: 0x110 }
  - { offsetInCU: 0x5201, offset: 0x116F67, size: 0x8, addend: 0x0, symName: '__ZN4core3ptr107drop_in_place$LT$$LP$alloc..boxed..Box$LT$str$GT$$C$alloc..sync..Arc$LT$std..ffi..os_str..OsStr$GT$$RP$$GT$17h6ca427f99e85df67E', symObjAddr: 0x0, symBinAddr: 0x10002D4C0, symSize: 0x50 }
  - { offsetInCU: 0x5397, offset: 0x1170FD, size: 0x8, addend: 0x0, symName: '__ZN4core3ptr135drop_in_place$LT$$LP$alloc..boxed..Box$LT$str$GT$$C$core..option..Option$LT$alloc..sync..Arc$LT$std..ffi..os_str..OsStr$GT$$GT$$RP$$GT$17h4250cfc7c3d9d91cE', symObjAddr: 0x50, symBinAddr: 0x10002D510, symSize: 0x50 }
  - { offsetInCU: 0x54FA, offset: 0x117260, size: 0x8, addend: 0x0, symName: '__ZN4core3ptr181drop_in_place$LT$hashbrown..scopeguard..ScopeGuard$LT$$RF$mut$u20$hashbrown..raw..RawTableInner$C$hashbrown..raw..RawTableInner..rehash_in_place..$u7b$$u7b$closure$u7d$$u7d$$GT$$GT$17ha9c41b8ad33bcc75E', symObjAddr: 0xA0, symBinAddr: 0x10002D560, symSize: 0xC0 }
  - { offsetInCU: 0x6292, offset: 0x117FF8, size: 0x8, addend: 0x0, symName: '__ZN4core3ptr196drop_in_place$LT$hashbrown..scopeguard..ScopeGuard$LT$hashbrown..raw..RawTableInner$C$hashbrown..raw..RawTableInner..prepare_resize$LT$alloc..alloc..Global$GT$..$u7b$$u7b$closure$u7d$$u7d$$GT$$GT$17hf1a49d1fa6750d7cE', symObjAddr: 0x160, symBinAddr: 0x10002D620, symSize: 0x40 }
  - { offsetInCU: 0x6532, offset: 0x118298, size: 0x8, addend: 0x0, symName: '__ZN4core3ptr52drop_in_place$LT$$LP$cc..CompilerFlag$C$bool$RP$$GT$17h373c948b09447816E', symObjAddr: 0x1A0, symBinAddr: 0x10002D660, symSize: 0x50 }
  - { offsetInCU: 0x66B3, offset: 0x118419, size: 0x8, addend: 0x0, symName: '__ZN4core3ptr87drop_in_place$LT$$LP$alloc..boxed..Box$LT$str$GT$$C$alloc..sync..Arc$LT$str$GT$$RP$$GT$17he61614e9fe751d9fE', symObjAddr: 0x1F0, symBinAddr: 0x10002D6B0, symSize: 0x50 }
  - { offsetInCU: 0x682A, offset: 0x118590, size: 0x8, addend: 0x0, symName: '__ZN4core3ptr92drop_in_place$LT$$LP$alloc..boxed..Box$LT$std..path..Path$GT$$C$cc..tool..ToolFamily$RP$$GT$17haa19cefa798e6019E', symObjAddr: 0x240, symBinAddr: 0x10002D700, symSize: 0x20 }
  - { offsetInCU: 0xB7FD, offset: 0x11D563, size: 0x8, addend: 0x0, symName: '__ZN9hashbrown3raw21RawTable$LT$T$C$A$GT$14reserve_rehash17h006a4dc90c47d011E.llvm.15189219888061885015', symObjAddr: 0x7B0, symBinAddr: 0x100091700, symSize: 0x870 }
  - { offsetInCU: 0xDBDD, offset: 0x11F943, size: 0x8, addend: 0x0, symName: '__ZN9hashbrown3raw21RawTable$LT$T$C$A$GT$14reserve_rehash17h5f0215f03df5752cE.llvm.15189219888061885015', symObjAddr: 0x1020, symBinAddr: 0x100091F70, symSize: 0x870 }
  - { offsetInCU: 0xFFBD, offset: 0x121D23, size: 0x8, addend: 0x0, symName: '__ZN9hashbrown3raw21RawTable$LT$T$C$A$GT$14reserve_rehash17h95e80bf11bf5a675E.llvm.15189219888061885015', symObjAddr: 0x1890, symBinAddr: 0x1000927E0, symSize: 0x870 }
  - { offsetInCU: 0x123AA, offset: 0x124110, size: 0x8, addend: 0x0, symName: '__ZN9hashbrown3raw21RawTable$LT$T$C$A$GT$14reserve_rehash17h9db14935f0ddf20cE.llvm.15189219888061885015', symObjAddr: 0x2100, symBinAddr: 0x100093050, symSize: 0x8F0 }
  - { offsetInCU: 0x14864, offset: 0x1265CA, size: 0x8, addend: 0x0, symName: '__ZN9hashbrown3raw21RawTable$LT$T$C$A$GT$14reserve_rehash17hca09944b2cc5493eE.llvm.15189219888061885015', symObjAddr: 0x29F0, symBinAddr: 0x100093940, symSize: 0x7D0 }
  - { offsetInCU: 0x1E, offset: 0x12899F, size: 0x8, addend: 0x0, symName: '__ZN3std4sync4mpmc4list16Channel$LT$T$GT$18disconnect_senders17hdc0bae1f02ce0636E', symObjAddr: 0x0, symBinAddr: 0x10002DC70, symSize: 0x230 }
  - { offsetInCU: 0x1227, offset: 0x129BA8, size: 0x8, addend: 0x0, symName: _anon.48b285dcad7d8327364c737090e392dd.10.llvm.3053842935020281002, symObjAddr: 0x1658, symBinAddr: 0x1000B1CE0, symSize: 0x0 }
  - { offsetInCU: 0x2F41, offset: 0x12B8C2, size: 0x8, addend: 0x0, symName: '__ZN4core3ptr124drop_in_place$LT$std..sync..poison..PoisonError$LT$std..sync..mutex..MutexGuard$LT$std..sync..mpmc..waker..Waker$GT$$GT$$GT$17h22fe7b6deac3904dE.llvm.3053842935020281002', symObjAddr: 0x11D0, symBinAddr: 0x10002EE40, symSize: 0x70 }
  - { offsetInCU: 0x3238, offset: 0x12BBB9, size: 0x8, addend: 0x0, symName: '__ZN4core3ptr86drop_in_place$LT$std..sync..mutex..MutexGuard$LT$std..sync..mpmc..waker..Waker$GT$$GT$17hfbbd2cfc9874e38fE.llvm.3053842935020281002', symObjAddr: 0x1240, symBinAddr: 0x10002EEB0, symSize: 0x70 }
  - { offsetInCU: 0x35FA, offset: 0x12BF7B, size: 0x8, addend: 0x0, symName: '__ZN4core3ptr92drop_in_place$LT$core..result..Result$LT$jobserver..Acquired$C$std..io..error..Error$GT$$GT$17h96ccb4b5b30196c9E.llvm.3053842935020281002', symObjAddr: 0x12B0, symBinAddr: 0x10002EF20, symSize: 0xF0 }
  - { offsetInCU: 0x5A88, offset: 0x12E409, size: 0x8, addend: 0x0, symName: '__ZN3std4sync4mpmc4list16Channel$LT$T$GT$18disconnect_senders17hdc0bae1f02ce0636E', symObjAddr: 0x0, symBinAddr: 0x10002DC70, symSize: 0x230 }
  - { offsetInCU: 0x68D0, offset: 0x12F251, size: 0x8, addend: 0x0, symName: '__ZN3std4sync4mpmc4list16Channel$LT$T$GT$20disconnect_receivers17h6f5027ddac8bd71eE', symObjAddr: 0x230, symBinAddr: 0x10002DEA0, symSize: 0x320 }
  - { offsetInCU: 0x68F7, offset: 0x12F278, size: 0x8, addend: 0x0, symName: '__ZN3std4sync4mpmc4list16Channel$LT$T$GT$20disconnect_receivers17h6f5027ddac8bd71eE', symObjAddr: 0x230, symBinAddr: 0x10002DEA0, symSize: 0x320 }
  - { offsetInCU: 0x6908, offset: 0x12F289, size: 0x8, addend: 0x0, symName: '__ZN3std4sync4mpmc4list16Channel$LT$T$GT$20disconnect_receivers17h6f5027ddac8bd71eE', symObjAddr: 0x230, symBinAddr: 0x10002DEA0, symSize: 0x320 }
  - { offsetInCU: 0x692F, offset: 0x12F2B0, size: 0x8, addend: 0x0, symName: '__ZN3std4sync4mpmc4list16Channel$LT$T$GT$20disconnect_receivers17h6f5027ddac8bd71eE', symObjAddr: 0x230, symBinAddr: 0x10002DEA0, symSize: 0x320 }
  - { offsetInCU: 0x6940, offset: 0x12F2C1, size: 0x8, addend: 0x0, symName: '__ZN3std4sync4mpmc4list16Channel$LT$T$GT$20disconnect_receivers17h6f5027ddac8bd71eE', symObjAddr: 0x230, symBinAddr: 0x10002DEA0, symSize: 0x320 }
  - { offsetInCU: 0x7DEA, offset: 0x13076B, size: 0x8, addend: 0x0, symName: '__ZN3std4sync4mpmc4list16Channel$LT$T$GT$4send17h8274e39bd59de573E', symObjAddr: 0x550, symBinAddr: 0x10002E1C0, symSize: 0x710 }
  - { offsetInCU: 0x9EE8, offset: 0x132869, size: 0x8, addend: 0x0, symName: '__ZN3std4sync4mpmc4list16Channel$LT$T$GT$8try_recv17h7186eeb9413ddf3cE', symObjAddr: 0xC60, symBinAddr: 0x10002E8D0, symSize: 0x470 }
  - { offsetInCU: 0xAE4B, offset: 0x1337CC, size: 0x8, addend: 0x0, symName: __ZN3std4sync4mpmc5waker5Waker6notify17h71f62e7937ffaec6E.llvm.3053842935020281002, symObjAddr: 0x10D0, symBinAddr: 0x10002ED40, symSize: 0x100 }
  - { offsetInCU: 0xD86, offset: 0x13582A, size: 0x8, addend: 0x0, symName: '__ZN3std4sync4mpmc5array16Channel$LT$T$GT$4send28_$u7b$$u7b$closure$u7d$$u7d$17h1338c96e41d06830E', symObjAddr: 0x6D0, symBinAddr: 0x10002F680, symSize: 0x5D0 }
  - { offsetInCU: 0x4C12, offset: 0x1396B6, size: 0x8, addend: 0x0, symName: '__ZN4core3ptr124drop_in_place$LT$std..sync..poison..PoisonError$LT$std..sync..mutex..MutexGuard$LT$std..sync..mpmc..waker..Waker$GT$$GT$$GT$17h22fe7b6deac3904dE', symObjAddr: 0x14C0, symBinAddr: 0x100030470, symSize: 0x70 }
  - { offsetInCU: 0x4F09, offset: 0x1399AD, size: 0x8, addend: 0x0, symName: '__ZN4core3ptr86drop_in_place$LT$std..sync..mutex..MutexGuard$LT$std..sync..mpmc..waker..Waker$GT$$GT$17hfbbd2cfc9874e38fE', symObjAddr: 0x1530, symBinAddr: 0x1000304E0, symSize: 0x70 }
  - { offsetInCU: 0x52CB, offset: 0x139D6F, size: 0x8, addend: 0x0, symName: '__ZN4core3ptr92drop_in_place$LT$core..result..Result$LT$jobserver..Acquired$C$std..io..error..Error$GT$$GT$17h96ccb4b5b30196c9E.llvm.14528774028876780333', symObjAddr: 0x15A0, symBinAddr: 0x100030550, symSize: 0xEB }
  - { offsetInCU: 0x78E7, offset: 0x13C38B, size: 0x8, addend: 0x0, symName: '__ZN3std4sync4mpmc5array16Channel$LT$T$GT$20disconnect_receivers17h3ee446caeb4394b0E', symObjAddr: 0x60, symBinAddr: 0x10002F010, symSize: 0x180 }
  - { offsetInCU: 0x8435, offset: 0x13CED9, size: 0x8, addend: 0x0, symName: '__ZN3std4sync4mpmc5array16Channel$LT$T$GT$4send17hbcc2354e2a7e1350E', symObjAddr: 0x1E0, symBinAddr: 0x10002F190, symSize: 0x4F0 }
  - { offsetInCU: 0xA297, offset: 0x13ED3B, size: 0x8, addend: 0x0, symName: '__ZN3std4sync4mpmc5array16Channel$LT$T$GT$8try_recv17h638e12bce785dd56E', symObjAddr: 0xCA0, symBinAddr: 0x10002FC50, symSize: 0x2A0 }
  - { offsetInCU: 0xABD5, offset: 0x13F679, size: 0x8, addend: 0x0, symName: __ZN3std4sync4mpmc5waker5Waker6notify17h71f62e7937ffaec6E, symObjAddr: 0xF40, symBinAddr: 0x10002FEF0, symSize: 0x100 }
  - { offsetInCU: 0xB6DA, offset: 0x14017E, size: 0x8, addend: 0x0, symName: __ZN3std4sync4mpmc5waker9SyncWaker10disconnect17h27024485da6afd74E.llvm.14528774028876780333, symObjAddr: 0x1040, symBinAddr: 0x10002FFF0, symSize: 0x1D0 }
  - { offsetInCU: 0xC607, offset: 0x1410AB, size: 0x8, addend: 0x0, symName: __ZN3std4sync4mpmc5waker9SyncWaker6notify17h3fc044d1ac825594E, symObjAddr: 0x1210, symBinAddr: 0x1000301C0, symSize: 0x2B0 }
  - { offsetInCU: 0x1520, offset: 0x1440F4, size: 0x8, addend: 0x0, symName: '__ZN4core3str7pattern13simd_contains28_$u7b$$u7b$closure$u7d$$u7d$17h84c98b00237902ceE', symObjAddr: 0x1F0, symBinAddr: 0x100094110, symSize: 0x100 }
  - { offsetInCU: 0x1B49, offset: 0x14471D, size: 0x8, addend: 0x0, symName: '__ZN55_$LT$$RF$str$u20$as$u20$core..str..pattern..Pattern$GT$15is_contained_in17h3b44ad7441fe57baE', symObjAddr: 0x2F0, symBinAddr: 0x100030640, symSize: 0x8B0 }
  - { offsetInCU: 0x49BC, offset: 0x147590, size: 0x8, addend: 0x0, symName: __ZN2cc7windows10find_tools15find_tool_inner17h50aba3443cbce32eE, symObjAddr: 0xD40, symBinAddr: 0x100030EF0, symSize: 0x190 }
  - { offsetInCU: 0x1E, offset: 0x149054, size: 0x8, addend: 0x0, symName: __ZN5alloc7raw_vec11finish_grow17h5394705e39c351d3E.llvm.7048680087158778374, symObjAddr: 0x0, symBinAddr: 0x100031080, symSize: 0xA0 }
  - { offsetInCU: 0x253C, offset: 0x14B572, size: 0x8, addend: 0x0, symName: __ZN5alloc7raw_vec11finish_grow17h5394705e39c351d3E.llvm.7048680087158778374, symObjAddr: 0x0, symBinAddr: 0x100031080, symSize: 0xA0 }
  - { offsetInCU: 0x2BE5, offset: 0x14BC1B, size: 0x8, addend: 0x0, symName: '__ZN5alloc7raw_vec19RawVec$LT$T$C$A$GT$7reserve21do_reserve_and_handle17h1fc0d3e9fd1b8c37E', symObjAddr: 0x450, symBinAddr: 0x100094210, symSize: 0x0 }
  - { offsetInCU: 0x2F12, offset: 0x14BF48, size: 0x8, addend: 0x0, symName: '__ZN5alloc7raw_vec19RawVec$LT$T$C$A$GT$7reserve21do_reserve_and_handle17h38577f18568dab6eE', symObjAddr: 0x510, symBinAddr: 0x1000942D0, symSize: 0xA0 }
  - { offsetInCU: 0x320A, offset: 0x14C240, size: 0x8, addend: 0x0, symName: '__ZN5alloc7raw_vec19RawVec$LT$T$C$A$GT$7reserve21do_reserve_and_handle17h3e21aae1c08ddaeaE', symObjAddr: 0x5B0, symBinAddr: 0x100094370, symSize: 0xB0 }
  - { offsetInCU: 0x3535, offset: 0x14C56B, size: 0x8, addend: 0x0, symName: '__ZN5alloc7raw_vec19RawVec$LT$T$C$A$GT$7reserve21do_reserve_and_handle17ha0ec26baf34c8a37E', symObjAddr: 0x660, symBinAddr: 0x100094420, symSize: 0x0 }
  - { offsetInCU: 0x4DD3, offset: 0x14DE09, size: 0x8, addend: 0x0, symName: '__ZN5alloc7raw_vec19RawVec$LT$T$C$A$GT$8grow_one17h32786e9bcc09b0b8E', symObjAddr: 0x710, symBinAddr: 0x100031120, symSize: 0xC0 }
  - { offsetInCU: 0x52A1, offset: 0x14E2D7, size: 0x8, addend: 0x0, symName: '__ZN5alloc7raw_vec19RawVec$LT$T$C$A$GT$8grow_one17h6770e4f46f216bdaE', symObjAddr: 0x7D0, symBinAddr: 0x1000311E0, symSize: 0x0 }
  - { offsetInCU: 0x577C, offset: 0x14E7B2, size: 0x8, addend: 0x0, symName: '__ZN5alloc7raw_vec19RawVec$LT$T$C$A$GT$8grow_one17h9a24bb57272c7820E', symObjAddr: 0x890, symBinAddr: 0x1000312A0, symSize: 0x0 }
  - { offsetInCU: 0x5ABD, offset: 0x14EAF3, size: 0x8, addend: 0x0, symName: '__ZN5alloc7raw_vec19RawVec$LT$T$C$A$GT$8grow_one17hb1521fdfb725899dE', symObjAddr: 0x950, symBinAddr: 0x100031360, symSize: 0xB0 }
  - { offsetInCU: 0x5DFC, offset: 0x14EE32, size: 0x8, addend: 0x0, symName: '__ZN5alloc7raw_vec19RawVec$LT$T$C$A$GT$8grow_one17he78ae340864605eeE', symObjAddr: 0xA00, symBinAddr: 0x100031410, symSize: 0xA0 }
  - { offsetInCU: 0x1E, offset: 0x14F193, size: 0x8, addend: 0x0, symName: '__ZN3std4sync4mpmc4zero16Channel$LT$T$GT$10disconnect17hda21395a2baf2833E', symObjAddr: 0x0, symBinAddr: 0x1000314B0, symSize: 0x230 }
  - { offsetInCU: 0x659, offset: 0x14F7CE, size: 0x8, addend: 0x0, symName: '__ZN3std4sync4mpmc4zero16Channel$LT$T$GT$4send28_$u7b$$u7b$closure$u7d$$u7d$17h59d5b34c0ac848e8E', symObjAddr: 0x9E0, symBinAddr: 0x100031E90, symSize: 0x7C0 }
  - { offsetInCU: 0x55DD, offset: 0x154752, size: 0x8, addend: 0x0, symName: '__ZN4core3ptr123drop_in_place$LT$std..sync..poison..PoisonError$LT$std..sync..mutex..MutexGuard$LT$std..sync..mpmc..zero..Inner$GT$$GT$$GT$17ha297ae6020ab968eE', symObjAddr: 0x1750, symBinAddr: 0x100032C00, symSize: 0x70 }
  - { offsetInCU: 0x58F3, offset: 0x154A68, size: 0x8, addend: 0x0, symName: '__ZN4core3ptr193drop_in_place$LT$core..option..Option$LT$std..sync..mpmc..zero..Channel$LT$core..result..Result$LT$jobserver..Acquired$C$std..io..error..Error$GT$$GT$..send..$u7b$$u7b$closure$u7d$$u7d$$GT$$GT$17h1644ea39c110a629E', symObjAddr: 0x17C0, symBinAddr: 0x100032C70, symSize: 0xA0 }
  - { offsetInCU: 0x5C07, offset: 0x154D7C, size: 0x8, addend: 0x0, symName: '__ZN4core3ptr85drop_in_place$LT$std..sync..mutex..MutexGuard$LT$std..sync..mpmc..zero..Inner$GT$$GT$17h393cfab1a610ae2cE', symObjAddr: 0x1860, symBinAddr: 0x100032D10, symSize: 0x70 }
  - { offsetInCU: 0x5FC9, offset: 0x15513E, size: 0x8, addend: 0x0, symName: '__ZN4core3ptr92drop_in_place$LT$core..result..Result$LT$jobserver..Acquired$C$std..io..error..Error$GT$$GT$17h96ccb4b5b30196c9E', symObjAddr: 0x18D0, symBinAddr: 0x100032D80, symSize: 0xEB }
  - { offsetInCU: 0x8810, offset: 0x157985, size: 0x8, addend: 0x0, symName: '__ZN3std4sync4mpmc4zero16Channel$LT$T$GT$10disconnect17hda21395a2baf2833E', symObjAddr: 0x0, symBinAddr: 0x1000314B0, symSize: 0x230 }
  - { offsetInCU: 0x9F59, offset: 0x1590CE, size: 0x8, addend: 0x0, symName: '__ZN3std4sync4mpmc4zero16Channel$LT$T$GT$4send17h9bbb69ac1a8899dbE', symObjAddr: 0x230, symBinAddr: 0x1000316E0, symSize: 0x7B0 }
  - { offsetInCU: 0xC9C6, offset: 0x15BB3B, size: 0x8, addend: 0x0, symName: '__ZN3std4sync4mpmc4zero16Channel$LT$T$GT$8try_recv17h65eb284a01dd0882E', symObjAddr: 0x11A0, symBinAddr: 0x100032650, symSize: 0x4B0 }
  - { offsetInCU: 0xE79D, offset: 0x15D912, size: 0x8, addend: 0x0, symName: __ZN3std4sync4mpmc5waker5Waker6notify17h71f62e7937ffaec6E, symObjAddr: 0x1650, symBinAddr: 0x100032B00, symSize: 0x100 }
  - { offsetInCU: 0x1E, offset: 0x15EDAE, size: 0x8, addend: 0x0, symName: '__ZN4core3ptr120drop_in_place$LT$cc..parallel..job_token..inherited_jobserver..ActiveJobServer..acquire..$u7b$$u7b$closure$u7d$$u7d$$GT$17hd12c1bb557008eb2E', symObjAddr: 0x0, symBinAddr: 0x100032E70, symSize: 0xD0 }
  - { offsetInCU: 0x84F, offset: 0x15F5DF, size: 0x8, addend: 0x0, symName: __ZN2cc8parallel14async_executor8block_on17hde8b8ff830d37988E, symObjAddr: 0x730, symBinAddr: 0x1000335A0, symSize: 0x1658 }
  - { offsetInCU: 0x6FE2, offset: 0x165D72, size: 0x8, addend: 0x0, symName: '__ZN4core3ptr120drop_in_place$LT$cc..parallel..job_token..inherited_jobserver..ActiveJobServer..acquire..$u7b$$u7b$closure$u7d$$u7d$$GT$17hd12c1bb557008eb2E', symObjAddr: 0x0, symBinAddr: 0x100032E70, symSize: 0xD0 }
  - { offsetInCU: 0x7496, offset: 0x166226, size: 0x8, addend: 0x0, symName: '__ZN4core3ptr251drop_in_place$LT$alloc..vec..Vec$LT$alloc..boxed..Box$LT$dyn$u20$core..ops..function..FnMut$LT$$LP$$RP$$GT$$u2b$Output$u20$$u3d$$u20$core..result..Result$LT$$LP$$RP$$C$std..io..error..Error$GT$$u2b$core..marker..Sync$u2b$core..marker..Send$GT$$GT$$GT$17h114d73b5d355f64bE', symObjAddr: 0xD0, symBinAddr: 0x100032F40, symSize: 0x60 }
  - { offsetInCU: 0x77DA, offset: 0x16656A, size: 0x8, addend: 0x0, symName: '__ZN4core3ptr40drop_in_place$LT$std..process..Child$GT$17h61b10f9c65d7084aE', symObjAddr: 0x130, symBinAddr: 0x100032FA0, symSize: 0x40 }
  - { offsetInCU: 0x7959, offset: 0x1666E9, size: 0x8, addend: 0x0, symName: '__ZN4core3ptr42drop_in_place$LT$std..io..error..Error$GT$17h1b20bc390b06fba6E', symObjAddr: 0x170, symBinAddr: 0x100032FE0, symSize: 0xA0 }
  - { offsetInCU: 0x7F91, offset: 0x166D21, size: 0x8, addend: 0x0, symName: '__ZN4core3ptr42drop_in_place$LT$std..process..Command$GT$17h705bee0d97bf5103E', symObjAddr: 0x210, symBinAddr: 0x100033080, symSize: 0x250 }
  - { offsetInCU: 0x8DC4, offset: 0x167B54, size: 0x8, addend: 0x0, symName: '__ZN4core3ptr57drop_in_place$LT$cc..command_helpers..StderrForwarder$GT$17hd71c9a617131a245E', symObjAddr: 0x460, symBinAddr: 0x1000332D0, symSize: 0x40 }
  - { offsetInCU: 0x908E, offset: 0x167E1E, size: 0x8, addend: 0x0, symName: '__ZN4core3ptr71drop_in_place$LT$core..option..Option$LT$jobserver..imp..Helper$GT$$GT$17h68e9aced30df9e16E', symObjAddr: 0x4A0, symBinAddr: 0x100033310, symSize: 0xC0 }
  - { offsetInCU: 0x97B8, offset: 0x168548, size: 0x8, addend: 0x0, symName: '__ZN4core3ptr76drop_in_place$LT$cc..Build..compile_objects..$u7b$$u7b$closure$u7d$$u7d$$GT$17h4ded2c88ae07de9aE', symObjAddr: 0x560, symBinAddr: 0x1000333D0, symSize: 0xC0 }
  - { offsetInCU: 0x9BB6, offset: 0x168946, size: 0x8, addend: 0x0, symName: '__ZN4core3ptr76drop_in_place$LT$cc..Build..compile_objects..$u7b$$u7b$closure$u7d$$u7d$$GT$17h8d7c563b0082ad5aE', symObjAddr: 0x620, symBinAddr: 0x100033490, symSize: 0xC0 }
  - { offsetInCU: 0xA02C, offset: 0x168DBC, size: 0x8, addend: 0x0, symName: '__ZN4core3ptr90drop_in_place$LT$std..io..buffered..bufwriter..BufWriter$LT$std..io..stdio..Stdout$GT$$GT$17h4246f813160bf21eE', symObjAddr: 0x6E0, symBinAddr: 0x100033550, symSize: 0x50 }
  - { offsetInCU: 0x1E, offset: 0x16FE00, size: 0x8, addend: 0x0, symName: '__ZN44_$LT$$RF$T$u20$as$u20$core..fmt..Display$GT$3fmt17h614689011580e42dE', symObjAddr: 0x0, symBinAddr: 0x100034C00, symSize: 0x20 }
  - { offsetInCU: 0x35, offset: 0x16FE17, size: 0x8, addend: 0x0, symName: _anon.a96bec457bc394dafd990a30aaa1a688.0.llvm.7311836570573880323, symObjAddr: 0x790, symBinAddr: 0x1000B2070, symSize: 0x0 }
  - { offsetInCU: 0x17A, offset: 0x16FF5C, size: 0x8, addend: 0x0, symName: '__ZN69_$LT$core..alloc..layout..LayoutError$u20$as$u20$core..fmt..Debug$GT$3fmt17h954ec1b18e5120d2E.llvm.7311836570573880323', symObjAddr: 0x710, symBinAddr: 0x100035310, symSize: 0x19 }
  - { offsetInCU: 0x28E, offset: 0x170070, size: 0x8, addend: 0x0, symName: '__ZN44_$LT$$RF$T$u20$as$u20$core..fmt..Display$GT$3fmt17h614689011580e42dE', symObjAddr: 0x0, symBinAddr: 0x100034C00, symSize: 0x20 }
  - { offsetInCU: 0x98F, offset: 0x170771, size: 0x8, addend: 0x0, symName: '__ZN4core3ptr188drop_in_place$LT$core..cell..UnsafeCell$LT$core..option..Option$LT$core..result..Result$LT$$LP$$RP$$C$alloc..boxed..Box$LT$dyn$u20$core..any..Any$u2b$core..marker..Send$GT$$GT$$GT$$GT$$GT$17h5d76f5b63726f890E', symObjAddr: 0x20, symBinAddr: 0x100034C20, symSize: 0x80 }
  - { offsetInCU: 0x27C4, offset: 0x1725A6, size: 0x8, addend: 0x0, symName: '__ZN68_$LT$alloc..sync..Arc$LT$T$C$A$GT$$u20$as$u20$core..fmt..Display$GT$3fmt17he4582f758f677d0bE', symObjAddr: 0x600, symBinAddr: 0x100035200, symSize: 0x20 }
  - { offsetInCU: 0x3CC7, offset: 0x173AA9, size: 0x8, addend: 0x0, symName: '__ZN68_$LT$alloc..sync..Arc$LT$T$GT$$u20$as$u20$core..default..Default$GT$7default17hc1defaf4b22fe555E', symObjAddr: 0x620, symBinAddr: 0x100035220, symSize: 0xF0 }
  - { offsetInCU: 0x5116, offset: 0x174EF8, size: 0x8, addend: 0x0, symName: '__ZN5alloc4sync16Arc$LT$T$C$A$GT$9drop_slow17h1f694487c624a30dE', symObjAddr: 0xA0, symBinAddr: 0x100034CA0, symSize: 0x80 }
  - { offsetInCU: 0x5A40, offset: 0x175822, size: 0x8, addend: 0x0, symName: '__ZN5alloc4sync16Arc$LT$T$C$A$GT$9drop_slow17h207358e3f1c5f164E', symObjAddr: 0x120, symBinAddr: 0x100034D20, symSize: 0x40 }
  - { offsetInCU: 0x5E9F, offset: 0x175C81, size: 0x8, addend: 0x0, symName: '__ZN5alloc4sync16Arc$LT$T$C$A$GT$9drop_slow17h341813ea4b933debE', symObjAddr: 0x160, symBinAddr: 0x100034D60, symSize: 0x100 }
  - { offsetInCU: 0x65C9, offset: 0x1763AB, size: 0x8, addend: 0x0, symName: '__ZN5alloc4sync16Arc$LT$T$C$A$GT$9drop_slow17h36985111e1bb3fffE', symObjAddr: 0x260, symBinAddr: 0x100034E60, symSize: 0x40 }
  - { offsetInCU: 0x692C, offset: 0x17670E, size: 0x8, addend: 0x0, symName: '__ZN5alloc4sync16Arc$LT$T$C$A$GT$9drop_slow17h3ad87f9166b8b955E', symObjAddr: 0x2A0, symBinAddr: 0x100034EA0, symSize: 0x30 }
  - { offsetInCU: 0x6C06, offset: 0x1769E8, size: 0x8, addend: 0x0, symName: '__ZN5alloc4sync16Arc$LT$T$C$A$GT$9drop_slow17h43163a8f861221daE', symObjAddr: 0x2D0, symBinAddr: 0x100034ED0, symSize: 0x0 }
  - { offsetInCU: 0x6F75, offset: 0x176D57, size: 0x8, addend: 0x0, symName: '__ZN5alloc4sync16Arc$LT$T$C$A$GT$9drop_slow17h4a8702b2abf2e3a2E', symObjAddr: 0x310, symBinAddr: 0x100034F10, symSize: 0x40 }
  - { offsetInCU: 0x7458, offset: 0x17723A, size: 0x8, addend: 0x0, symName: '__ZN5alloc4sync16Arc$LT$T$C$A$GT$9drop_slow17h88fe27304dc81516E', symObjAddr: 0x350, symBinAddr: 0x100034F50, symSize: 0x40 }
  - { offsetInCU: 0x78CA, offset: 0x1776AC, size: 0x8, addend: 0x0, symName: '__ZN5alloc4sync16Arc$LT$T$C$A$GT$9drop_slow17h9edf6a81ecfbd3acE', symObjAddr: 0x390, symBinAddr: 0x100034F90, symSize: 0x50 }
  - { offsetInCU: 0x7D46, offset: 0x177B28, size: 0x8, addend: 0x0, symName: '__ZN5alloc4sync16Arc$LT$T$C$A$GT$9drop_slow17haa0bcda9e9632f33E', symObjAddr: 0x3E0, symBinAddr: 0x100034FE0, symSize: 0x60 }
  - { offsetInCU: 0x81F8, offset: 0x177FDA, size: 0x8, addend: 0x0, symName: '__ZN5alloc4sync16Arc$LT$T$C$A$GT$9drop_slow17hbb0b682a52411a44E', symObjAddr: 0x440, symBinAddr: 0x100035040, symSize: 0x40 }
  - { offsetInCU: 0x8582, offset: 0x178364, size: 0x8, addend: 0x0, symName: '__ZN5alloc4sync16Arc$LT$T$C$A$GT$9drop_slow17hcc233a15a9a0362eE', symObjAddr: 0x480, symBinAddr: 0x100035080, symSize: 0x50 }
  - { offsetInCU: 0x8A25, offset: 0x178807, size: 0x8, addend: 0x0, symName: '__ZN5alloc4sync16Arc$LT$T$C$A$GT$9drop_slow17he5aa2845063e8c1bE', symObjAddr: 0x4D0, symBinAddr: 0x1000350D0, symSize: 0x70 }
  - { offsetInCU: 0x90BC, offset: 0x178E9E, size: 0x8, addend: 0x0, symName: '__ZN5alloc4sync22Arc$LT$$u5b$T$u5d$$GT$15copy_from_slice17h664f11c3c4facceeE', symObjAddr: 0x540, symBinAddr: 0x100035140, symSize: 0xC0 }
  - { offsetInCU: 0x1E, offset: 0x179A55, size: 0x8, addend: 0x0, symName: '__ZN4core3ptr37drop_in_place$LT$cc..CompilerFlag$GT$17hd8d429f0bacc95c7E', symObjAddr: 0x0, symBinAddr: 0x100035330, symSize: 0x50 }
  - { offsetInCU: 0x1D16, offset: 0x17B74D, size: 0x8, addend: 0x0, symName: '__ZN4core3ptr37drop_in_place$LT$cc..CompilerFlag$GT$17hd8d429f0bacc95c7E', symObjAddr: 0x0, symBinAddr: 0x100035330, symSize: 0x50 }
  - { offsetInCU: 0x4372, offset: 0x17DDA9, size: 0x8, addend: 0x0, symName: '__ZN9hashbrown3map28HashMap$LT$K$C$V$C$S$C$A$GT$6insert17h258d9d5318caaff1E', symObjAddr: 0x50, symBinAddr: 0x100035380, symSize: 0x240 }
  - { offsetInCU: 0x541B, offset: 0x17EE52, size: 0x8, addend: 0x0, symName: '__ZN9hashbrown3map28HashMap$LT$K$C$V$C$S$C$A$GT$6insert17h33e966b9bb9b60c0E', symObjAddr: 0x290, symBinAddr: 0x1000355C0, symSize: 0x270 }
  - { offsetInCU: 0x6688, offset: 0x1800BF, size: 0x8, addend: 0x0, symName: '__ZN9hashbrown3map28HashMap$LT$K$C$V$C$S$C$A$GT$6insert17h34214fd23b85cce0E', symObjAddr: 0x500, symBinAddr: 0x100035830, symSize: 0x220 }
  - { offsetInCU: 0x7722, offset: 0x181159, size: 0x8, addend: 0x0, symName: '__ZN9hashbrown3map28HashMap$LT$K$C$V$C$S$C$A$GT$6insert17h419818782ef8724bE', symObjAddr: 0x720, symBinAddr: 0x100035A50, symSize: 0x270 }
  - { offsetInCU: 0x8902, offset: 0x182339, size: 0x8, addend: 0x0, symName: '__ZN9hashbrown3map28HashMap$LT$K$C$V$C$S$C$A$GT$6insert17hec8808851b3a0b4dE', symObjAddr: 0x990, symBinAddr: 0x100035CC0, symSize: 0x2A1 }
  - { offsetInCU: 0x1E, offset: 0x1835B6, size: 0x8, addend: 0x0, symName: __ZN3std2io5Write18write_all_vectored17hedd347ab69598ebcE, symObjAddr: 0x0, symBinAddr: 0x100035F70, symSize: 0x2C0 }
  - { offsetInCU: 0x35, offset: 0x1835CD, size: 0x8, addend: 0x0, symName: _anon.03f3b281fd8221ec75d7cfed1ee4f56c.4.llvm.7928401561732135198, symObjAddr: 0xD70, symBinAddr: 0x1000B20D0, symSize: 0x0 }
  - { offsetInCU: 0xE6, offset: 0x18367E, size: 0x8, addend: 0x0, symName: __ZN3std2io5Write18write_all_vectored17hedd347ab69598ebcE, symObjAddr: 0x0, symBinAddr: 0x100035F70, symSize: 0x2C0 }
  - { offsetInCU: 0xBCE, offset: 0x184166, size: 0x8, addend: 0x0, symName: __ZN3std2io5Write9write_fmt17hedbd4f74897d7408E, symObjAddr: 0x2C0, symBinAddr: 0x100036230, symSize: 0x130 }
  - { offsetInCU: 0x131C, offset: 0x1848B4, size: 0x8, addend: 0x0, symName: '__ZN83_$LT$std..io..buffered..bufwriter..BufWriter$LT$W$GT$$u20$as$u20$std..io..Write$GT$14write_vectored17h846de5d294221792E', symObjAddr: 0x860, symBinAddr: 0x100036640, symSize: 0x1A0 }
  - { offsetInCU: 0x1B9C, offset: 0x185134, size: 0x8, addend: 0x0, symName: '__ZN83_$LT$std..io..buffered..bufwriter..BufWriter$LT$W$GT$$u20$as$u20$std..io..Write$GT$5flush17hf398e37b00ed35a4E', symObjAddr: 0xA00, symBinAddr: 0x1000367E0, symSize: 0x30 }
  - { offsetInCU: 0x1C41, offset: 0x1851D9, size: 0x8, addend: 0x0, symName: '__ZN90_$LT$std..io..buffered..bufwriter..BufWriter$LT$W$GT$$u20$as$u20$core..ops..drop..Drop$GT$4drop17h12a7119b61519a7eE', symObjAddr: 0xA30, symBinAddr: 0x100036810, symSize: 0xAB }
  - { offsetInCU: 0x370D, offset: 0x186CA5, size: 0x8, addend: 0x0, symName: '__ZN4core3ptr132drop_in_place$LT$std..io..Write..write_fmt..Adapter$LT$std..io..buffered..bufwriter..BufWriter$LT$std..io..stdio..Stdout$GT$$GT$$GT$17h573d307de579b922E.llvm.7928401561732135198', symObjAddr: 0x750, symBinAddr: 0x100036530, symSize: 0xB0 }
  - { offsetInCU: 0x3BA7, offset: 0x18713F, size: 0x8, addend: 0x0, symName: '__ZN4core3ptr47drop_in_place$LT$std..io..stdio..StdoutLock$GT$17h7335c03b08622cd8E', symObjAddr: 0x800, symBinAddr: 0x1000365E0, symSize: 0x60 }
  - { offsetInCU: 0x59CC, offset: 0x188F64, size: 0x8, addend: 0x0, symName: '__ZN3std2io8buffered9bufwriter18BufWriter$LT$W$GT$10write_cold17h40f83bb92d254296E', symObjAddr: 0x3F0, symBinAddr: 0x1000944D0, symSize: 0x90 }
  - { offsetInCU: 0x5CF5, offset: 0x18928D, size: 0x8, addend: 0x0, symName: '__ZN3std2io8buffered9bufwriter18BufWriter$LT$W$GT$14write_all_cold17h941597e2fef2e6f2E', symObjAddr: 0x500, symBinAddr: 0x100094560, symSize: 0x80 }
  - { offsetInCU: 0x6045, offset: 0x1895DD, size: 0x8, addend: 0x0, symName: '__ZN3std2io8buffered9bufwriter18BufWriter$LT$W$GT$9flush_buf17h878ddbc8bebc90d8E.llvm.7928401561732135198', symObjAddr: 0x580, symBinAddr: 0x100036360, symSize: 0x1D0 }
  - { offsetInCU: 0x1E, offset: 0x18A367, size: 0x8, addend: 0x0, symName: __ZN2cc8tempfile13NamedTempfile3new17h1c4e6bbe6850bd65E, symObjAddr: 0x0, symBinAddr: 0x1000368C0, symSize: 0x570 }
  - { offsetInCU: 0x2A51, offset: 0x18CD9A, size: 0x8, addend: 0x0, symName: '__ZN69_$LT$cc..tempfile..NamedTempfile$u20$as$u20$core..ops..drop..Drop$GT$4drop17he896df710506fbe2E', symObjAddr: 0x570, symBinAddr: 0x100036E30, symSize: 0xC4 }
  - { offsetInCU: 0x3A0C, offset: 0x18DD55, size: 0x8, addend: 0x0, symName: __ZN2cc8tempfile13NamedTempfile3new17h1c4e6bbe6850bd65E, symObjAddr: 0x0, symBinAddr: 0x1000368C0, symSize: 0x570 }
  - { offsetInCU: 0x2A1, offset: 0x18FE9A, size: 0x8, addend: 0x0, symName: '__ZN4core3str21_$LT$impl$u20$str$GT$12trim_matches17he46726b9808534a7E', symObjAddr: 0x20, symBinAddr: 0x100036F00, symSize: 0x2A0 }
  - { offsetInCU: 0x68A, offset: 0x191D13, size: 0x8, addend: 0x0, symName: '__ZN42_$LT$$RF$T$u20$as$u20$core..fmt..Debug$GT$3fmt17h0278713c49c5d055E', symObjAddr: 0x590, symBinAddr: 0x100037390, symSize: 0x0 }
  - { offsetInCU: 0x1BB6, offset: 0x19323F, size: 0x8, addend: 0x0, symName: __ZN3std7process7Command3new17h40abe119e2b90327E, symObjAddr: 0x1B0, symBinAddr: 0x1000371A0, symSize: 0x90 }
  - { offsetInCU: 0x1FCD, offset: 0x193656, size: 0x8, addend: 0x0, symName: __ZN3std7process7Command4args17he19ddc87c75e3a49E, symObjAddr: 0x390, symBinAddr: 0x100037230, symSize: 0x160 }
  - { offsetInCU: 0x1E, offset: 0x194682, size: 0x8, addend: 0x0, symName: __ZN4core3fmt5Write10write_char17h083cdba64d62fe36E, symObjAddr: 0x0, symBinAddr: 0x1000373A0, symSize: 0xE0 }
  - { offsetInCU: 0xDD, offset: 0x194741, size: 0x8, addend: 0x0, symName: '__ZN80_$LT$std..io..Write..write_fmt..Adapter$LT$T$GT$$u20$as$u20$core..fmt..Write$GT$9write_str17h0d0da0e8308ca014E', symObjAddr: 0x3B0, symBinAddr: 0x100037750, symSize: 0xD0 }
  - { offsetInCU: 0x581, offset: 0x194BE5, size: 0x8, addend: 0x0, symName: '__ZN80_$LT$std..io..Write..write_fmt..Adapter$LT$T$GT$$u20$as$u20$core..fmt..Write$GT$9write_str17h36357b84a6898bcfE', symObjAddr: 0x480, symBinAddr: 0x100037820, symSize: 0xF0 }
  - { offsetInCU: 0xBEF, offset: 0x195253, size: 0x8, addend: 0x0, symName: '__ZN80_$LT$std..io..Write..write_fmt..Adapter$LT$T$GT$$u20$as$u20$core..fmt..Write$GT$9write_str17h3792c029e3a75286E', symObjAddr: 0x570, symBinAddr: 0x100037910, symSize: 0xC1 }
  - { offsetInCU: 0x1CE5, offset: 0x196349, size: 0x8, addend: 0x0, symName: '__ZN4core3ptr132drop_in_place$LT$std..io..Write..write_fmt..Adapter$LT$std..io..buffered..bufwriter..BufWriter$LT$std..io..stdio..Stdout$GT$$GT$$GT$17h573d307de579b922E', symObjAddr: 0x300, symBinAddr: 0x1000376A0, symSize: 0xB0 }
  - { offsetInCU: 0x2496, offset: 0x196AFA, size: 0x8, addend: 0x0, symName: __ZN4core3fmt5Write10write_char17h083cdba64d62fe36E, symObjAddr: 0x0, symBinAddr: 0x1000373A0, symSize: 0xE0 }
  - { offsetInCU: 0x2595, offset: 0x196BF9, size: 0x8, addend: 0x0, symName: __ZN4core3fmt5Write10write_char17h103b97afaa36bf92E, symObjAddr: 0xE0, symBinAddr: 0x100037480, symSize: 0xE0 }
  - { offsetInCU: 0x2694, offset: 0x196CF8, size: 0x8, addend: 0x0, symName: __ZN4core3fmt5Write10write_char17h2834e889ffd40428E, symObjAddr: 0x1C0, symBinAddr: 0x100037560, symSize: 0xE0 }
  - { offsetInCU: 0x2859, offset: 0x196EBD, size: 0x8, addend: 0x0, symName: __ZN4core3fmt5Write9write_fmt17h60d4d6922c84c5b8E, symObjAddr: 0x2A0, symBinAddr: 0x100037640, symSize: 0x20 }
  - { offsetInCU: 0x28C1, offset: 0x196F25, size: 0x8, addend: 0x0, symName: __ZN4core3fmt5Write9write_fmt17h9ed7e396189737f3E, symObjAddr: 0x2C0, symBinAddr: 0x100037660, symSize: 0x20 }
  - { offsetInCU: 0x2929, offset: 0x196F8D, size: 0x8, addend: 0x0, symName: __ZN4core3fmt5Write9write_fmt17ha210e365c1515e1dE, symObjAddr: 0x2E0, symBinAddr: 0x100037680, symSize: 0x20 }
  - { offsetInCU: 0x146A, offset: 0x198F6F, size: 0x8, addend: 0x0, symName: '__ZN52_$LT$std..path..Path$u20$as$u20$core..hash..Hash$GT$4hash17hf873727c61c07778E', symObjAddr: 0x400, symBinAddr: 0x100037D00, symSize: 0xE0 }
  - { offsetInCU: 0x1A93, offset: 0x199598, size: 0x8, addend: 0x0, symName: '__ZN71_$LT$std..hash..random..DefaultHasher$u20$as$u20$core..hash..Hasher$GT$5write17ha463be1efb594bcbE.llvm.1890927090987337611', symObjAddr: 0x4E0, symBinAddr: 0x100037DE0, symSize: 0x1E0 }
  - { offsetInCU: 0x23B4, offset: 0x199EB9, size: 0x8, addend: 0x0, symName: __ZN3std4path4Path14with_file_name17h8b5cef1cd4def56eE, symObjAddr: 0x20, symBinAddr: 0x1000379E0, symSize: 0x70 }
  - { offsetInCU: 0x25F5, offset: 0x19A0FA, size: 0x8, addend: 0x0, symName: __ZN3std4path4Path4join17h6e2a1e2fd945c517E, symObjAddr: 0xA0, symBinAddr: 0x100037A50, symSize: 0x70 }
  - { offsetInCU: 0x2A4A, offset: 0x19A54F, size: 0x8, addend: 0x0, symName: '__ZN52_$LT$Q$u20$as$u20$hashbrown..Equivalent$LT$K$GT$$GT$10equivalent17hd2cea8483934a68fE', symObjAddr: 0x1C0, symBinAddr: 0x100037AC0, symSize: 0x240 }
  - { offsetInCU: 0x5A4, offset: 0x19B33D, size: 0x8, addend: 0x0, symName: '__ZN86_$LT$alloc..vec..into_iter..IntoIter$LT$T$C$A$GT$$u20$as$u20$core..ops..drop..Drop$GT$4drop17hf65b933901c92b1fE', symObjAddr: 0x4E0, symBinAddr: 0x100037FC0, symSize: 0x94 }
  - { offsetInCU: 0x1E, offset: 0x19BCA0, size: 0x8, addend: 0x0, symName: __ZN3std3sys3pal4unix2os11split_paths12is_separator17hf91dafa8854fe971E, symObjAddr: 0x0, symBinAddr: 0x100038060, symSize: 0x10 }
  - { offsetInCU: 0x208, offset: 0x19BE8A, size: 0x8, addend: 0x0, symName: __ZN3std3sys3pal4unix2os11split_paths12is_separator17hf91dafa8854fe971E, symObjAddr: 0x0, symBinAddr: 0x100038060, symSize: 0x10 }
  - { offsetInCU: 0x6EE, offset: 0x19C370, size: 0x8, addend: 0x0, symName: '__ZN4core3ptr49drop_in_place$LT$cc..windows..find_tools..Env$GT$17hdcbcab42d1472f7aE', symObjAddr: 0x10, symBinAddr: 0x100038070, symSize: 0x40 }
  - { offsetInCU: 0xA82, offset: 0x19C704, size: 0x8, addend: 0x0, symName: '__ZN4core3ptr63drop_in_place$LT$core..option..Option$LT$cc..tool..Tool$GT$$GT$17h4a518da32226b8f7E', symObjAddr: 0x50, symBinAddr: 0x1000380B0, symSize: 0x200 }
  - { offsetInCU: 0x18FD, offset: 0x19D57F, size: 0x8, addend: 0x0, symName: '__ZN4core3ptr77drop_in_place$LT$core..option..Option$LT$cc..windows..find_tools..Env$GT$$GT$17h73e6692bf9eeaba2E', symObjAddr: 0x250, symBinAddr: 0x1000382B0, symSize: 0x50 }
  - { offsetInCU: 0x3069, offset: 0x19ECEB, size: 0x8, addend: 0x0, symName: '__ZN2cc7windows10find_tools5impl_21find_msvc_environment28_$u7b$$u7b$closure$u7d$$u7d$17h67353bdcb909c6b1E', symObjAddr: 0x590, symBinAddr: 0x1000385F0, symSize: 0x288 }
  - { offsetInCU: 0x3922, offset: 0x19F5A4, size: 0x8, addend: 0x0, symName: __ZN2cc7windows10find_tools5impl_21find_msvc_environment17h9b652f821aef858eE, symObjAddr: 0x2A0, symBinAddr: 0x100038300, symSize: 0x2F0 }
  - { offsetInCU: 0x1E, offset: 0x1A10C2, size: 0x8, addend: 0x0, symName: '__ZN4core3ptr42drop_in_place$LT$std..io..error..Error$GT$17h1b20bc390b06fba6E', symObjAddr: 0x0, symBinAddr: 0x100038880, symSize: 0xA0 }
  - { offsetInCU: 0x6F, offset: 0x1A1113, size: 0x8, addend: 0x0, symName: '__ZN70_$LT$core..num..error..TryFromIntError$u20$as$u20$core..fmt..Debug$GT$3fmt17h1128a7e265c9ce9aE', symObjAddr: 0xA0, symBinAddr: 0x100038920, symSize: 0x40 }
  - { offsetInCU: 0x7E1, offset: 0x1A1885, size: 0x8, addend: 0x0, symName: '__ZN4core3ptr42drop_in_place$LT$std..io..error..Error$GT$17h1b20bc390b06fba6E', symObjAddr: 0x0, symBinAddr: 0x100038880, symSize: 0xA0 }
  - { offsetInCU: 0x199C, offset: 0x1A2A40, size: 0x8, addend: 0x0, symName: __ZN2cc8parallel6stderr16set_non_blocking17h19a11628947e91f6E, symObjAddr: 0xE0, symBinAddr: 0x100038960, symSize: 0x340 }
  - { offsetInCU: 0x25C5, offset: 0x1A3669, size: 0x8, addend: 0x0, symName: __ZN2cc8parallel6stderr15bytes_available17ha04f43bf958c3056E, symObjAddr: 0x420, symBinAddr: 0x100038CA0, symSize: 0x1B7 }
  - { offsetInCU: 0x1E, offset: 0x1A488D, size: 0x8, addend: 0x0, symName: '__ZN4core3ops8function6FnOnce40call_once$u7b$$u7b$vtable.shim$u7d$$u7d$17h70f210409a4231f6E', symObjAddr: 0x0, symBinAddr: 0x100038E60, symSize: 0x50 }
  - { offsetInCU: 0x77, offset: 0x1A48E6, size: 0x8, addend: 0x0, symName: '__ZN2cc8parallel9job_token19inherited_jobserver12HelperThread3new28_$u7b$$u7b$closure$u7d$$u7d$17h93ebbd98b34e7ad6E', symObjAddr: 0x310, symBinAddr: 0x100039170, symSize: 0x110 }
  - { offsetInCU: 0x23DC, offset: 0x1A6C4B, size: 0x8, addend: 0x0, symName: '__ZN4core3ptr113drop_in_place$LT$cc..parallel..job_token..inherited_jobserver..HelperThread..new..$u7b$$u7b$closure$u7d$$u7d$$GT$17hd6d43d8e852859faE', symObjAddr: 0x50, symBinAddr: 0x100038EB0, symSize: 0x10 }
  - { offsetInCU: 0x250A, offset: 0x1A6D79, size: 0x8, addend: 0x0, symName: '__ZN4core3ptr72drop_in_place$LT$alloc..sync..ArcInner$LT$jobserver..HelperState$GT$$GT$17h1ad400a979736b16E', symObjAddr: 0x60, symBinAddr: 0x100038EC0, symSize: 0x60 }
  - { offsetInCU: 0x2C8C, offset: 0x1A74FB, size: 0x8, addend: 0x0, symName: '__ZN4core3ops8function6FnOnce40call_once$u7b$$u7b$vtable.shim$u7d$$u7d$17h70f210409a4231f6E', symObjAddr: 0x0, symBinAddr: 0x100038E60, symSize: 0x50 }
  - { offsetInCU: 0x3D40, offset: 0x1A85AF, size: 0x8, addend: 0x0, symName: __ZN9jobserver6Client18into_helper_thread17h80f709d5dbf0f476E, symObjAddr: 0xC0, symBinAddr: 0x100038F20, symSize: 0x250 }
  - { offsetInCU: 0x10BE, offset: 0x1AA4BD, size: 0x8, addend: 0x0, symName: '__ZN4core3ptr171drop_in_place$LT$std..sync..mpmc..counter..Counter$LT$std..sync..mpmc..list..Channel$LT$core..result..Result$LT$jobserver..Acquired$C$std..io..error..Error$GT$$GT$$GT$$GT$17h00ade05a5ccc394aE.llvm.8117855363164132675', symObjAddr: 0x280, symBinAddr: 0x100039280, symSize: 0x100 }
  - { offsetInCU: 0x16A0, offset: 0x1AAA9F, size: 0x8, addend: 0x0, symName: '__ZN4core3ptr196drop_in_place$LT$alloc..boxed..Box$LT$std..sync..mpmc..counter..Counter$LT$std..sync..mpmc..list..Channel$LT$core..result..Result$LT$jobserver..Acquired$C$std..io..error..Error$GT$$GT$$GT$$GT$$GT$17h1cc3fb2a8f199f49E.llvm.8117855363164132675', symObjAddr: 0x380, symBinAddr: 0x100039380, symSize: 0x110 }
  - { offsetInCU: 0x1E58, offset: 0x1AB257, size: 0x8, addend: 0x0, symName: '__ZN4core3ptr196drop_in_place$LT$alloc..boxed..Box$LT$std..sync..mpmc..counter..Counter$LT$std..sync..mpmc..zero..Channel$LT$core..result..Result$LT$jobserver..Acquired$C$std..io..error..Error$GT$$GT$$GT$$GT$$GT$17h358b417fe07e177eE.llvm.8117855363164132675', symObjAddr: 0x490, symBinAddr: 0x100039490, symSize: 0x90 }
  - { offsetInCU: 0x2102, offset: 0x1AB501, size: 0x8, addend: 0x0, symName: '__ZN4core3ptr197drop_in_place$LT$alloc..boxed..Box$LT$std..sync..mpmc..counter..Counter$LT$std..sync..mpmc..array..Channel$LT$core..result..Result$LT$jobserver..Acquired$C$std..io..error..Error$GT$$GT$$GT$$GT$$GT$17he997995a4f1ced51E.llvm.8117855363164132675', symObjAddr: 0x520, symBinAddr: 0x100039520, symSize: 0xE0 }
  - { offsetInCU: 0x2580, offset: 0x1AB97F, size: 0x8, addend: 0x0, symName: '__ZN4core3ptr50drop_in_place$LT$std..sync..mpmc..waker..Waker$GT$17h09ad6ec210761cd0E.llvm.8117855363164132675', symObjAddr: 0x600, symBinAddr: 0x100039600, symSize: 0x1F0 }
  - { offsetInCU: 0x2F80, offset: 0x1AC37F, size: 0x8, addend: 0x0, symName: '__ZN4core3ptr54drop_in_place$LT$std..sync..mpmc..waker..SyncWaker$GT$17h4449558d6dca949dE.llvm.8117855363164132675', symObjAddr: 0x7F0, symBinAddr: 0x1000397F0, symSize: 0x50 }
  - { offsetInCU: 0x306A, offset: 0x1AC469, size: 0x8, addend: 0x0, symName: '__ZN4core3ptr73drop_in_place$LT$alloc..vec..Vec$LT$std..sync..mpmc..waker..Entry$GT$$GT$17h1d7fff152eef504dE.llvm.8117855363164132675', symObjAddr: 0x840, symBinAddr: 0x100039840, symSize: 0x110 }
  - { offsetInCU: 0x3559, offset: 0x1AC958, size: 0x8, addend: 0x0, symName: '__ZN4core3ptr79drop_in_place$LT$core..cell..UnsafeCell$LT$std..sync..mpmc..zero..Inner$GT$$GT$17h49fc15a2b4518fe0E.llvm.8117855363164132675', symObjAddr: 0x950, symBinAddr: 0x100039950, symSize: 0x3B }
  - { offsetInCU: 0x91F, offset: 0x1AEA60, size: 0x8, addend: 0x0, symName: '__ZN4core3ptr168drop_in_place$LT$std..sys..thread_local..native..lazy..State$LT$core..cell..Cell$LT$core..option..Option$LT$std..sync..mpmc..context..Context$GT$$GT$$C$$LP$$RP$$GT$$GT$17hbfe984396433d50fE.llvm.14470045345432228386', symObjAddr: 0x180, symBinAddr: 0x1000399E0, symSize: 0x30 }
  - { offsetInCU: 0xB48, offset: 0x1AEC89, size: 0x8, addend: 0x0, symName: '__ZN4core3ptr81drop_in_place$LT$core..result..Result$LT$$LP$$RP$$C$std..io..error..Error$GT$$GT$17h9fef34e4aa051f5cE', symObjAddr: 0x1B0, symBinAddr: 0x100039A10, symSize: 0xA0 }
  - { offsetInCU: 0xFB1, offset: 0x1AF0F2, size: 0x8, addend: 0x0, symName: '__ZN4core3ptr82drop_in_place$LT$std..sys..thread_local..abort_on_dtor_unwind..DtorUnwindGuard$GT$17h58085b21ff0eb6f2E', symObjAddr: 0x250, symBinAddr: 0x100039AB0, symSize: 0x49 }
  - { offsetInCU: 0x1CFA, offset: 0x1AFE3B, size: 0x8, addend: 0x0, symName: __ZN3std3sys12thread_local6native4lazy7destroy17h7c5d9fb90c23809dE.llvm.14470045345432228386, symObjAddr: 0x130, symBinAddr: 0x100039990, symSize: 0x50 }
  - { offsetInCU: 0x269D, offset: 0x1B07DE, size: 0x8, addend: 0x0, symName: '__ZN3std3sys12thread_local6native4lazy20Storage$LT$T$C$D$GT$10initialize17hc57d6fc0e75caed2E', symObjAddr: 0x80, symBinAddr: 0x1000945E0, symSize: 0xB0 }
  - { offsetInCU: 0x35, offset: 0x1B0F3C, size: 0x8, addend: 0x0, symName: _anon.128eaca6479aee21ce9f61bf52e1c9dc.6.llvm.9074016077679699018, symObjAddr: 0x670, symBinAddr: 0x1000B2390, symSize: 0x0 }
  - { offsetInCU: 0xE6, offset: 0x1B0FED, size: 0x8, addend: 0x0, symName: __ZN3std2io5Write9write_all17h83a6ffbaaceac115E, symObjAddr: 0x1A0, symBinAddr: 0x100039B00, symSize: 0x1B0 }
  - { offsetInCU: 0x732, offset: 0x1B1639, size: 0x8, addend: 0x0, symName: __ZN3std2io5Write9write_fmt17h0637d572f4aa5c6bE, symObjAddr: 0x350, symBinAddr: 0x100039CB0, symSize: 0x130 }
  - { offsetInCU: 0x1E38, offset: 0x1B2D3F, size: 0x8, addend: 0x0, symName: '__ZN4core3ptr76drop_in_place$LT$std..io..Write..write_fmt..Adapter$LT$std..fs..File$GT$$GT$17hc73a2424cb904d8bE.llvm.9074016077679699018', symObjAddr: 0x480, symBinAddr: 0x100039DE0, symSize: 0xA1 }
  - { offsetInCU: 0x1E, offset: 0x1B3DD4, size: 0x8, addend: 0x0, symName: __ZN4core4hash11BuildHasher8hash_one17h0ccc0956e508ffbcE, symObjAddr: 0x0, symBinAddr: 0x100039E90, symSize: 0x180 }
  - { offsetInCU: 0x311, offset: 0x1B40C7, size: 0x8, addend: 0x0, symName: '__ZN71_$LT$core..hash..sip..Hasher$LT$S$GT$$u20$as$u20$core..hash..Hasher$GT$5write17h33c76d3121546182E.llvm.14435458629194056187', symObjAddr: 0x6F0, symBinAddr: 0x10003A580, symSize: 0x1D8 }
  - { offsetInCU: 0xDD7, offset: 0x1B4B8D, size: 0x8, addend: 0x0, symName: __ZN4core4hash11BuildHasher8hash_one17h0ccc0956e508ffbcE, symObjAddr: 0x0, symBinAddr: 0x100039E90, symSize: 0x180 }
  - { offsetInCU: 0x1745, offset: 0x1B54FB, size: 0x8, addend: 0x0, symName: __ZN4core4hash11BuildHasher8hash_one17hb22dbcee3ce645c2E, symObjAddr: 0x180, symBinAddr: 0x10003A010, symSize: 0x150 }
  - { offsetInCU: 0x1E08, offset: 0x1B5BBE, size: 0x8, addend: 0x0, symName: __ZN4core4hash11BuildHasher8hash_one17hfc1da4c9733195c5E, symObjAddr: 0x2D0, symBinAddr: 0x10003A160, symSize: 0x170 }
  - { offsetInCU: 0x2602, offset: 0x1B63B8, size: 0x8, addend: 0x0, symName: __ZN4core4hash11BuildHasher8hash_one17hfcb8b40b5006f8c6E, symObjAddr: 0x440, symBinAddr: 0x10003A2D0, symSize: 0x160 }
  - { offsetInCU: 0x2DB3, offset: 0x1B6B69, size: 0x8, addend: 0x0, symName: __ZN4core4hash11BuildHasher8hash_one17hfefd131a3fc42126E, symObjAddr: 0x5A0, symBinAddr: 0x10003A430, symSize: 0x150 }
  - { offsetInCU: 0x1E, offset: 0x1B7F39, size: 0x8, addend: 0x0, symName: '__ZN4core3ptr61drop_in_place$LT$std..sync..mutex..MutexGuard$LT$bool$GT$$GT$17h82df6e14a5bcbd18E.llvm.9253127916862642163', symObjAddr: 0x0, symBinAddr: 0x10003A760, symSize: 0x70 }
  - { offsetInCU: 0xE29, offset: 0x1B8D44, size: 0x8, addend: 0x0, symName: '__ZN4core3ptr61drop_in_place$LT$std..sync..mutex..MutexGuard$LT$bool$GT$$GT$17h82df6e14a5bcbd18E.llvm.9253127916862642163', symObjAddr: 0x0, symBinAddr: 0x10003A760, symSize: 0x70 }
  - { offsetInCU: 0x291B, offset: 0x1BA836, size: 0x8, addend: 0x0, symName: __ZN2cc8parallel9job_token19inherited_jobserver9JobServer17release_token_raw17hf1953a627df6d37dE, symObjAddr: 0x120, symBinAddr: 0x10003A7D0, symSize: 0x1A0 }
  - { offsetInCU: 0x351C, offset: 0x1BB437, size: 0x8, addend: 0x0, symName: __ZN2cc8parallel9job_token19inherited_jobserver12HelperThread3new17hff1d0bfe0aa39370E, symObjAddr: 0x2C0, symBinAddr: 0x10003A970, symSize: 0x1FC }
  - { offsetInCU: 0x5F1, offset: 0x1BD279, size: 0x8, addend: 0x0, symName: __ZN4core3ops8function6FnOnce9call_once17hf8b06a1a48e69234E.llvm.8757566515148786228, symObjAddr: 0x30, symBinAddr: 0x10003AB70, symSize: 0x60 }
  - { offsetInCU: 0x9AB, offset: 0x1BD633, size: 0x8, addend: 0x0, symName: '__ZN85_$LT$std..sync..rwlock..RwLockReadGuard$LT$T$GT$$u20$as$u20$core..ops..drop..Drop$GT$4drop17h15cea24f45309baeE', symObjAddr: 0x130, symBinAddr: 0x10003ABD0, symSize: 0x0 }
  - { offsetInCU: 0xB5B, offset: 0x1BD7E3, size: 0x8, addend: 0x0, symName: '__ZN86_$LT$std..sync..rwlock..RwLockWriteGuard$LT$T$GT$$u20$as$u20$core..ops..drop..Drop$GT$4drop17h488788de03ee09a5E', symObjAddr: 0x170, symBinAddr: 0x10003AC10, symSize: 0x0 }
  - { offsetInCU: 0x1E, offset: 0x1BE991, size: 0x8, addend: 0x0, symName: __ZN4core5error5Error5cause17h50ace003af603829E, symObjAddr: 0x0, symBinAddr: 0x10003AC70, symSize: 0x10 }
  - { offsetInCU: 0x19E, offset: 0x1BEB11, size: 0x8, addend: 0x0, symName: __ZN4core5error5Error5cause17h50ace003af603829E, symObjAddr: 0x0, symBinAddr: 0x10003AC70, symSize: 0x10 }
  - { offsetInCU: 0x1D2, offset: 0x1BEB45, size: 0x8, addend: 0x0, symName: __ZN4core5error5Error7type_id17h4ff55ba2252140faE, symObjAddr: 0x10, symBinAddr: 0x10003AC80, symSize: 0x20 }
  - { offsetInCU: 0x5CB, offset: 0x1BEF3E, size: 0x8, addend: 0x0, symName: '__ZN71_$LT$core..hash..sip..Hasher$LT$S$GT$$u20$as$u20$core..hash..Hasher$GT$5write17h33c76d3121546182E.llvm.5318892200246837398', symObjAddr: 0x300, symBinAddr: 0x10003AEE0, symSize: 0x1D8 }
  - { offsetInCU: 0x18D8, offset: 0x1C024B, size: 0x8, addend: 0x0, symName: '__ZN52_$LT$Q$u20$as$u20$hashbrown..Equivalent$LT$K$GT$$GT$10equivalent17h34fa65ed690c63cfE', symObjAddr: 0x30, symBinAddr: 0x10003ACA0, symSize: 0x240 }
  - { offsetInCU: 0x1E, offset: 0x1C096F, size: 0x8, addend: 0x0, symName: __ZN3std2io5Write9write_all17h2f9871d00d8ab8b6E, symObjAddr: 0x0, symBinAddr: 0x10003B0C0, symSize: 0x1B0 }
  - { offsetInCU: 0x35, offset: 0x1C0986, size: 0x8, addend: 0x0, symName: _anon.d52b650561138e0d66047ffa0f909a12.6.llvm.5725246587659255897, symObjAddr: 0x4D0, symBinAddr: 0x1000B2438, symSize: 0x0 }
  - { offsetInCU: 0xE6, offset: 0x1C0A37, size: 0x8, addend: 0x0, symName: __ZN3std2io5Write9write_all17h2f9871d00d8ab8b6E, symObjAddr: 0x0, symBinAddr: 0x10003B0C0, symSize: 0x1B0 }
  - { offsetInCU: 0x732, offset: 0x1C1083, size: 0x8, addend: 0x0, symName: __ZN3std2io5Write9write_fmt17hfb41c0b9acaba6c0E, symObjAddr: 0x1B0, symBinAddr: 0x10003B270, symSize: 0x130 }
  - { offsetInCU: 0x1CAE, offset: 0x1C25FF, size: 0x8, addend: 0x0, symName: '__ZN4core3ptr97drop_in_place$LT$std..io..Write..write_fmt..Adapter$LT$std..sys..pal..unix..stdio..Stderr$GT$$GT$17h903ba3474ed171bcE.llvm.5725246587659255897', symObjAddr: 0x2E0, symBinAddr: 0x10003B3A0, symSize: 0xA1 }
  - { offsetInCU: 0x1E, offset: 0x1C35DB, size: 0x8, addend: 0x0, symName: __ZN4core3fmt5Write9write_fmt17h698cb25fbcafe11fE, symObjAddr: 0x0, symBinAddr: 0x10003B450, symSize: 0x20 }
  - { offsetInCU: 0xAE, offset: 0x1C366B, size: 0x8, addend: 0x0, symName: '__ZN58_$LT$alloc..string..String$u20$as$u20$core..fmt..Write$GT$10write_char17h04bc467bd68a934bE', symObjAddr: 0xD0, symBinAddr: 0x10003B490, symSize: 0x140 }
  - { offsetInCU: 0x4B3, offset: 0x1C3A70, size: 0x8, addend: 0x0, symName: '__ZN58_$LT$alloc..string..String$u20$as$u20$core..fmt..Write$GT$9write_str17h46a93205c3443fbaE', symObjAddr: 0x210, symBinAddr: 0x10003B5D0, symSize: 0x5B }
  - { offsetInCU: 0xE30, offset: 0x1C43ED, size: 0x8, addend: 0x0, symName: '__ZN4core3ptr42drop_in_place$LT$alloc..string..String$GT$17he65bbe603b37b51dE', symObjAddr: 0xB0, symBinAddr: 0x10003B470, symSize: 0x20 }
  - { offsetInCU: 0x11C3, offset: 0x1C4780, size: 0x8, addend: 0x0, symName: __ZN4core3fmt5Write9write_fmt17h698cb25fbcafe11fE, symObjAddr: 0x0, symBinAddr: 0x10003B450, symSize: 0x20 }
  - { offsetInCU: 0x1E, offset: 0x1C5283, size: 0x8, addend: 0x0, symName: '__ZN3std4sync4mpmc15Sender$LT$T$GT$4send17hd79bc1e518921958E', symObjAddr: 0x0, symBinAddr: 0x10003B630, symSize: 0x120 }
  - { offsetInCU: 0xC9C, offset: 0x1C5F01, size: 0x8, addend: 0x0, symName: '__ZN74_$LT$std..sync..mpmc..Sender$LT$T$GT$$u20$as$u20$core..ops..drop..Drop$GT$4drop17h7be3baba4d7f72fcE', symObjAddr: 0x390, symBinAddr: 0x10003B840, symSize: 0x100 }
  - { offsetInCU: 0x11FD, offset: 0x1C6462, size: 0x8, addend: 0x0, symName: '__ZN76_$LT$std..sync..mpmc..Receiver$LT$T$GT$$u20$as$u20$core..ops..drop..Drop$GT$4drop17hdff66b26de2a95e2E', symObjAddr: 0x490, symBinAddr: 0x10003B940, symSize: 0xAC }
  - { offsetInCU: 0x1FF3, offset: 0x1C7258, size: 0x8, addend: 0x0, symName: '__ZN4core3ptr92drop_in_place$LT$core..result..Result$LT$jobserver..Acquired$C$std..io..error..Error$GT$$GT$17h96ccb4b5b30196c9E.llvm.15514191203410988771', symObjAddr: 0x2A0, symBinAddr: 0x10003B750, symSize: 0xF0 }
  - { offsetInCU: 0x349E, offset: 0x1C8703, size: 0x8, addend: 0x0, symName: '__ZN3std4sync4mpmc15Sender$LT$T$GT$4send17hd79bc1e518921958E', symObjAddr: 0x0, symBinAddr: 0x10003B630, symSize: 0x120 }
  - { offsetInCU: 0x1E, offset: 0x1C9620, size: 0x8, addend: 0x0, symName: '__ZN4core3ptr176drop_in_place$LT$$LT$alloc..vec..drain..Drain$LT$T$C$A$GT$$u20$as$u20$core..ops..drop..Drop$GT$..drop..DropGuard$LT$std..sync..mpmc..waker..Entry$C$alloc..alloc..Global$GT$$GT$17hacfc0cfe2d677d14E.llvm.11099839830301869956', symObjAddr: 0x0, symBinAddr: 0x10003B9F0, symSize: 0x70 }
  - { offsetInCU: 0x3D2, offset: 0x1C99D4, size: 0x8, addend: 0x0, symName: '__ZN4core3ptr176drop_in_place$LT$$LT$alloc..vec..drain..Drain$LT$T$C$A$GT$$u20$as$u20$core..ops..drop..Drop$GT$..drop..DropGuard$LT$std..sync..mpmc..waker..Entry$C$alloc..alloc..Global$GT$$GT$17hacfc0cfe2d677d14E.llvm.11099839830301869956', symObjAddr: 0x0, symBinAddr: 0x10003B9F0, symSize: 0x70 }
  - { offsetInCU: 0x3EE, offset: 0x1C99F0, size: 0x8, addend: 0x0, symName: '__ZN4core3ptr176drop_in_place$LT$$LT$alloc..vec..drain..Drain$LT$T$C$A$GT$$u20$as$u20$core..ops..drop..Drop$GT$..drop..DropGuard$LT$std..sync..mpmc..waker..Entry$C$alloc..alloc..Global$GT$$GT$17hacfc0cfe2d677d14E.llvm.11099839830301869956', symObjAddr: 0x0, symBinAddr: 0x10003B9F0, symSize: 0x70 }
  - { offsetInCU: 0x922, offset: 0x1C9F24, size: 0x8, addend: 0x0, symName: '__ZN79_$LT$alloc..vec..drain..Drain$LT$T$C$A$GT$$u20$as$u20$core..ops..drop..Drop$GT$4drop17hb515439b7c09bfa5E', symObjAddr: 0x70, symBinAddr: 0x10003BA60, symSize: 0x170 }
  - { offsetInCU: 0x1E, offset: 0x1CAF1B, size: 0x8, addend: 0x0, symName: '__ZN4core3ptr130drop_in_place$LT$core..result..Result$LT$$LP$$RP$$C$alloc..boxed..Box$LT$dyn$u20$core..any..Any$u2b$core..marker..Send$GT$$GT$$GT$17h7116a6012d6e0588E.llvm.17773017243809279043', symObjAddr: 0x0, symBinAddr: 0x10003BBD0, symSize: 0x70 }
  - { offsetInCU: 0x374, offset: 0x1CB271, size: 0x8, addend: 0x0, symName: '__ZN70_$LT$std..thread..Packet$LT$T$GT$$u20$as$u20$core..ops..drop..Drop$GT$4drop17h58118d14ba6350bbE', symObjAddr: 0x110, symBinAddr: 0x10003BCE0, symSize: 0x128 }
  - { offsetInCU: 0x108D, offset: 0x1CBF8A, size: 0x8, addend: 0x0, symName: '__ZN4core3ptr130drop_in_place$LT$core..result..Result$LT$$LP$$RP$$C$alloc..boxed..Box$LT$dyn$u20$core..any..Any$u2b$core..marker..Send$GT$$GT$$GT$17h7116a6012d6e0588E.llvm.17773017243809279043', symObjAddr: 0x0, symBinAddr: 0x10003BBD0, symSize: 0x70 }
  - { offsetInCU: 0x13FC, offset: 0x1CC2F9, size: 0x8, addend: 0x0, symName: '__ZN4core3ptr81drop_in_place$LT$core..result..Result$LT$$LP$$RP$$C$std..io..error..Error$GT$$GT$17h9fef34e4aa051f5cE.llvm.17773017243809279043', symObjAddr: 0x70, symBinAddr: 0x10003BC40, symSize: 0xA0 }
  - { offsetInCU: 0x271, offset: 0x1CD86F, size: 0x8, addend: 0x0, symName: '__ZN76_$LT$std..sync..poison..PoisonError$LT$T$GT$$u20$as$u20$core..fmt..Debug$GT$3fmt17h168794a9a32efcd4E', symObjAddr: 0x40, symBinAddr: 0x10003BE10, symSize: 0x0 }
  - { offsetInCU: 0x1E, offset: 0x1CDC5A, size: 0x8, addend: 0x0, symName: __ZN4core4iter6traits8iterator8Iterator5eq_by17hda5e16afd1b81edeE, symObjAddr: 0x0, symBinAddr: 0x10003BE40, symSize: 0x240 }
  - { offsetInCU: 0x48F, offset: 0x1CE0CB, size: 0x8, addend: 0x0, symName: __ZN4core4iter6traits8iterator8Iterator5eq_by17hda5e16afd1b81edeE, symObjAddr: 0x0, symBinAddr: 0x10003BE40, symSize: 0x240 }
  - { offsetInCU: 0x1E, offset: 0x1CEE80, size: 0x8, addend: 0x0, symName: '__ZN73_$LT$cc..utilities..JoinOsStrs$LT$T$GT$$u20$as$u20$core..fmt..Display$GT$3fmt17hab7932263e82f261E', symObjAddr: 0x0, symBinAddr: 0x10003C080, symSize: 0x100 }
  - { offsetInCU: 0xE9C, offset: 0x1CFCFE, size: 0x8, addend: 0x0, symName: '__ZN73_$LT$cc..utilities..JoinOsStrs$LT$T$GT$$u20$as$u20$core..fmt..Display$GT$3fmt17hab7932263e82f261E', symObjAddr: 0x0, symBinAddr: 0x10003C080, symSize: 0x100 }
  - { offsetInCU: 0x10A8, offset: 0x1CFF0A, size: 0x8, addend: 0x0, symName: '__ZN81_$LT$cc..utilities..OptionOsStrDisplay$LT$T$GT$$u20$as$u20$core..fmt..Display$GT$3fmt17h7e0c5789966c1504E', symObjAddr: 0x100, symBinAddr: 0x10003C180, symSize: 0x88 }
  - { offsetInCU: 0x10E3, offset: 0x1CFF45, size: 0x8, addend: 0x0, symName: '__ZN81_$LT$cc..utilities..OptionOsStrDisplay$LT$T$GT$$u20$as$u20$core..fmt..Display$GT$3fmt17h7e0c5789966c1504E', symObjAddr: 0x100, symBinAddr: 0x10003C180, symSize: 0x88 }
  - { offsetInCU: 0x1104, offset: 0x1CFF66, size: 0x8, addend: 0x0, symName: '__ZN81_$LT$cc..utilities..OptionOsStrDisplay$LT$T$GT$$u20$as$u20$core..fmt..Display$GT$3fmt17h7e0c5789966c1504E', symObjAddr: 0x100, symBinAddr: 0x10003C180, symSize: 0x88 }
  - { offsetInCU: 0x1114, offset: 0x1CFF76, size: 0x8, addend: 0x0, symName: '__ZN81_$LT$cc..utilities..OptionOsStrDisplay$LT$T$GT$$u20$as$u20$core..fmt..Display$GT$3fmt17h7e0c5789966c1504E', symObjAddr: 0x100, symBinAddr: 0x10003C180, symSize: 0x88 }
  - { offsetInCU: 0x1E, offset: 0x1D0198, size: 0x8, addend: 0x0, symName: '__ZN42_$LT$$RF$T$u20$as$u20$core..fmt..Debug$GT$3fmt17h9956c40a0a541ff5E', symObjAddr: 0x0, symBinAddr: 0x10003C210, symSize: 0x10 }
  - { offsetInCU: 0x64, offset: 0x1D01DE, size: 0x8, addend: 0x0, symName: '__ZN42_$LT$$RF$T$u20$as$u20$core..fmt..Debug$GT$3fmt17h9956c40a0a541ff5E', symObjAddr: 0x0, symBinAddr: 0x10003C210, symSize: 0x10 }
  - { offsetInCU: 0x1E, offset: 0x1D05A8, size: 0x8, addend: 0x0, symName: __ZN3std9panicking11begin_panic17heab9469973ae2eadE, symObjAddr: 0x0, symBinAddr: 0x100094690, symSize: 0x20 }
  - { offsetInCU: 0x7A7, offset: 0x1D0D31, size: 0x8, addend: 0x0, symName: __ZN3std9panicking11begin_panic17heab9469973ae2eadE, symObjAddr: 0x0, symBinAddr: 0x100094690, symSize: 0x20 }
  - { offsetInCU: 0x803, offset: 0x1D0D8D, size: 0x8, addend: 0x0, symName: '__ZN84_$LT$std..panicking..begin_panic..Payload$LT$A$GT$$u20$as$u20$core..fmt..Display$GT$3fmt17h6036c01dd0b6501aE', symObjAddr: 0x20, symBinAddr: 0x10003C220, symSize: 0x40 }
  - { offsetInCU: 0x870, offset: 0x1D0DFA, size: 0x8, addend: 0x0, symName: '__ZN91_$LT$std..panicking..begin_panic..Payload$LT$A$GT$$u20$as$u20$core..panic..PanicPayload$GT$3get17h056c5dd33d84c7f0E', symObjAddr: 0x60, symBinAddr: 0x10003C260, symSize: 0x20 }
  - { offsetInCU: 0x8A8, offset: 0x1D0E32, size: 0x8, addend: 0x0, symName: '__ZN91_$LT$std..panicking..begin_panic..Payload$LT$A$GT$$u20$as$u20$core..panic..PanicPayload$GT$8take_box17h13b1322b27b4abe0E', symObjAddr: 0x80, symBinAddr: 0x10003C280, symSize: 0x5F }
  - { offsetInCU: 0x20C, offset: 0x1D1571, size: 0x8, addend: 0x0, symName: '__ZN99_$LT$alloc..collections..btree..map..BTreeMap$LT$K$C$V$C$A$GT$$u20$as$u20$core..ops..drop..Drop$GT$4drop17h9a0c82ae08902f12E', symObjAddr: 0x480, symBinAddr: 0x10003C6C0, symSize: 0xF0 }
  - { offsetInCU: 0x1B39, offset: 0x1D2E9E, size: 0x8, addend: 0x0, symName: '__ZN5alloc11collections5btree3map25IntoIter$LT$K$C$V$C$A$GT$10dying_next17h6eb389fd1c03674dE.llvm.13798620757166398306', symObjAddr: 0xA0, symBinAddr: 0x10003C2E0, symSize: 0x3E0 }
  - { offsetInCU: 0x1E, offset: 0x1D4407, size: 0x8, addend: 0x0, symName: __ZN3std2io5error5Error3new17hd98382facd4b0a7bE, symObjAddr: 0x0, symBinAddr: 0x10003C7B0, symSize: 0xA0 }
  - { offsetInCU: 0x647, offset: 0x1D4A30, size: 0x8, addend: 0x0, symName: '__ZN4core3ptr205drop_in_place$LT$$LT$alloc..boxed..Box$LT$dyn$u20$core..error..Error$u2b$core..marker..Sync$u2b$core..marker..Send$GT$$u20$as$u20$core..convert..From$LT$alloc..string..String$GT$$GT$..from..StringError$GT$17h286692b05f92ac3dE', symObjAddr: 0xA0, symBinAddr: 0x10003C850, symSize: 0x20 }
  - { offsetInCU: 0x984, offset: 0x1D4D6D, size: 0x8, addend: 0x0, symName: __ZN4core5error5Error6source17h69a789eaf4ff8452E, symObjAddr: 0xC0, symBinAddr: 0x10003C870, symSize: 0x10 }
  - { offsetInCU: 0x9B6, offset: 0x1D4D9F, size: 0x8, addend: 0x0, symName: __ZN4core5error5Error7provide17hbf323e3fc1d85649E, symObjAddr: 0xD0, symBinAddr: 0x10003C880, symSize: 0x6 }
  - { offsetInCU: 0xE6D, offset: 0x1D5256, size: 0x8, addend: 0x0, symName: __ZN3std2io5error5Error3new17hd98382facd4b0a7bE, symObjAddr: 0x0, symBinAddr: 0x10003C7B0, symSize: 0xA0 }
  - { offsetInCU: 0x18E, offset: 0x1D5820, size: 0x8, addend: 0x0, symName: '__ZN82_$LT$core..array..iter..IntoIter$LT$T$C$_$GT$$u20$as$u20$core..ops..drop..Drop$GT$4drop17h353031971906d9aaE', symObjAddr: 0x20, symBinAddr: 0x10003C890, symSize: 0x60 }
  - { offsetInCU: 0xB2, offset: 0x1D5EC2, size: 0x8, addend: 0x0, symName: '__ZN85_$LT$std..sys_common..lazy_box..LazyBox$LT$T$GT$$u20$as$u20$core..ops..drop..Drop$GT$4drop17hceaa7ae0dc77f19bE', symObjAddr: 0x50, symBinAddr: 0x10003C8F0, symSize: 0x35 }
  - { offsetInCU: 0x1E, offset: 0x1D63A7, size: 0x8, addend: 0x0, symName: '__ZN3std4sync4once4Once9call_once28_$u7b$$u7b$closure$u7d$$u7d$17hcd76a8b049030321E.llvm.11800233064342141539', symObjAddr: 0x0, symBinAddr: 0x10003C930, symSize: 0x60 }
  - { offsetInCU: 0x35, offset: 0x1D63BE, size: 0x8, addend: 0x0, symName: _anon.3a7d5b8bb861220a41acc7aec9a2ef01.0.llvm.11800233064342141539, symObjAddr: 0x110, symBinAddr: 0x1000B25C0, symSize: 0x0 }
  - { offsetInCU: 0xC8, offset: 0x1D6451, size: 0x8, addend: 0x0, symName: '__ZN3std4sync4once4Once9call_once28_$u7b$$u7b$closure$u7d$$u7d$17hcd76a8b049030321E.llvm.11800233064342141539', symObjAddr: 0x0, symBinAddr: 0x10003C930, symSize: 0x60 }
  - { offsetInCU: 0xBA5, offset: 0x1D6F2E, size: 0x8, addend: 0x0, symName: '__ZN4core3ops8function6FnOnce40call_once$u7b$$u7b$vtable.shim$u7d$$u7d$17h157d21fc4e73ca9cE.llvm.11800233064342141539', symObjAddr: 0x60, symBinAddr: 0x10003C990, symSize: 0x60 }
  - { offsetInCU: 0x1E, offset: 0x1D786B, size: 0x8, addend: 0x0, symName: '__ZN75_$LT$cc..parallel..job_token..JobToken$u20$as$u20$core..ops..drop..Drop$GT$4drop17h9e691f5fe827d742E', symObjAddr: 0x0, symBinAddr: 0x10003C9F0, symSize: 0x80 }
  - { offsetInCU: 0x51, offset: 0x1D789E, size: 0x8, addend: 0x0, symName: __ZN2cc8parallel9job_token14JobTokenServer3new9JOBSERVER17h7cb7e5b48ddec8c6E.llvm.15055820297969376367, symObjAddr: 0x8BF0, symBinAddr: 0x1000B8208, symSize: 0x0 }
  - { offsetInCU: 0x12B, offset: 0x1D7978, size: 0x8, addend: 0x0, symName: '__ZN75_$LT$cc..parallel..job_token..JobToken$u20$as$u20$core..ops..drop..Drop$GT$4drop17h9e691f5fe827d742E', symObjAddr: 0x0, symBinAddr: 0x10003C9F0, symSize: 0x80 }
  - { offsetInCU: 0x1E, offset: 0x1D860C, size: 0x8, addend: 0x0, symName: '__ZN66_$LT$alloc..borrow..Cow$LT$B$GT$$u20$as$u20$core..fmt..Display$GT$3fmt17hd6d7c2ac63608a26E', symObjAddr: 0x0, symBinAddr: 0x10003CA70, symSize: 0x20 }
  - { offsetInCU: 0x230, offset: 0x1D881E, size: 0x8, addend: 0x0, symName: '__ZN66_$LT$alloc..borrow..Cow$LT$B$GT$$u20$as$u20$core..fmt..Display$GT$3fmt17hd6d7c2ac63608a26E', symObjAddr: 0x0, symBinAddr: 0x10003CA70, symSize: 0x20 }
  - { offsetInCU: 0x29, offset: 0x1D8A82, size: 0x8, addend: 0x0, symName: _anon.70c6ce8a4afd1ce3a91431991b42cd20.3.llvm.2154334345188542301, symObjAddr: 0x100, symBinAddr: 0x1000B2630, symSize: 0x0 }
  - { offsetInCU: 0x318, offset: 0x1D8E25, size: 0x8, addend: 0x0, symName: __ZN2cc8parallel9job_token19inprocess_jobserver9JobServer3new17h2e2319e0b910ee93E, symObjAddr: 0x50, symBinAddr: 0x10003CA90, symSize: 0xF0 }
  - { offsetInCU: 0x1E, offset: 0x1D96A4, size: 0x8, addend: 0x0, symName: '__ZN42_$LT$$RF$T$u20$as$u20$core..fmt..Debug$GT$3fmt17h0a9313016b4cdc1dE', symObjAddr: 0x0, symBinAddr: 0x10003CB80, symSize: 0x20 }
  - { offsetInCU: 0xED, offset: 0x1D9773, size: 0x8, addend: 0x0, symName: '__ZN42_$LT$$RF$T$u20$as$u20$core..fmt..Debug$GT$3fmt17h0a9313016b4cdc1dE', symObjAddr: 0x0, symBinAddr: 0x10003CB80, symSize: 0x20 }
  - { offsetInCU: 0x154, offset: 0x1D97DA, size: 0x8, addend: 0x0, symName: '__ZN42_$LT$$RF$T$u20$as$u20$core..fmt..Debug$GT$3fmt17h134b80f57c31bfd5E', symObjAddr: 0x20, symBinAddr: 0x10003CBA0, symSize: 0x10 }
  - { offsetInCU: 0x1F5, offset: 0x1D987B, size: 0x8, addend: 0x0, symName: '__ZN44_$LT$$RF$T$u20$as$u20$core..fmt..Display$GT$3fmt17h2b6e86b845d4977eE', symObjAddr: 0x30, symBinAddr: 0x10003CBB0, symSize: 0x20 }
  - { offsetInCU: 0x26F, offset: 0x1D98F5, size: 0x8, addend: 0x0, symName: '__ZN44_$LT$$RF$T$u20$as$u20$core..fmt..Display$GT$3fmt17hca07c5d801182c69E', symObjAddr: 0x50, symBinAddr: 0x10003CBD0, symSize: 0x20 }
  - { offsetInCU: 0x2DD, offset: 0x1D9963, size: 0x8, addend: 0x0, symName: '__ZN44_$LT$$RF$T$u20$as$u20$core..fmt..Display$GT$3fmt17heb6f30fa81ea0460E', symObjAddr: 0x70, symBinAddr: 0x10003CBF0, symSize: 0x17 }
  - { offsetInCU: 0x1E, offset: 0x1D9BEF, size: 0x8, addend: 0x0, symName: __ZN3std3sys9backtrace26__rust_end_short_backtrace17h706d085ae5541fb0E, symObjAddr: 0x0, symBinAddr: 0x10003CC10, symSize: 0x10 }
  - { offsetInCU: 0x66, offset: 0x1D9C37, size: 0x8, addend: 0x0, symName: '__ZN3std9panicking11begin_panic28_$u7b$$u7b$closure$u7d$$u7d$17h347394fbcb565dd7E', symObjAddr: 0x10, symBinAddr: 0x10003CC20, symSize: 0x40 }
  - { offsetInCU: 0xD7, offset: 0x1D9CA8, size: 0x8, addend: 0x0, symName: __ZN3std3sys9backtrace26__rust_end_short_backtrace17h706d085ae5541fb0E, symObjAddr: 0x0, symBinAddr: 0x10003CC10, symSize: 0x10 }
  - { offsetInCU: 0x1BA, offset: 0x1D9D8B, size: 0x8, addend: 0x0, symName: __ZN4core5panic12PanicPayload6as_str17h72de93982bee32f0E, symObjAddr: 0x50, symBinAddr: 0x10003CC60, symSize: 0x8 }
  - { offsetInCU: 0x1E, offset: 0x1D9E40, size: 0x8, addend: 0x0, symName: '__ZN42_$LT$$RF$T$u20$as$u20$core..fmt..Debug$GT$3fmt17hbce84641433935abE', symObjAddr: 0x0, symBinAddr: 0x10003CC70, symSize: 0x2F }
  - { offsetInCU: 0x120, offset: 0x1D9F42, size: 0x8, addend: 0x0, symName: '__ZN42_$LT$$RF$T$u20$as$u20$core..fmt..Debug$GT$3fmt17hbce84641433935abE', symObjAddr: 0x0, symBinAddr: 0x10003CC70, symSize: 0x2F }
  - { offsetInCU: 0x1E, offset: 0x1DA158, size: 0x8, addend: 0x0, symName: '__ZN36_$LT$T$u20$as$u20$core..any..Any$GT$7type_id17h85947c1d03a11484E', symObjAddr: 0x0, symBinAddr: 0x10003CCA0, symSize: 0x1A }
  - { offsetInCU: 0x3A, offset: 0x1DA174, size: 0x8, addend: 0x0, symName: '__ZN36_$LT$T$u20$as$u20$core..any..Any$GT$7type_id17h85947c1d03a11484E', symObjAddr: 0x0, symBinAddr: 0x10003CCA0, symSize: 0x1A }
  - { offsetInCU: 0x1E, offset: 0x1DA245, size: 0x8, addend: 0x0, symName: __ZN3std2io5error5Error4kind17h476d3690a46ae4c1E, symObjAddr: 0x0, symBinAddr: 0x10003CCC0, symSize: 0x60 }
  - { offsetInCU: 0x72, offset: 0x1DA299, size: 0x8, addend: 0x0, symName: '__ZN3std4sync4once4Once9call_once28_$u7b$$u7b$closure$u7d$$u7d$17he10eeddc398d36dcE', symObjAddr: 0x60, symBinAddr: 0x10003CD20, symSize: 0x110 }
  - { offsetInCU: 0x2686, offset: 0x1DC8AD, size: 0x8, addend: 0x0, symName: '__ZN4core3ptr227drop_in_place$LT$alloc..boxed..Box$LT$dyn$u20$core..ops..function..FnMut$LT$$LP$core..result..Result$LT$jobserver..Acquired$C$std..io..error..Error$GT$$C$$RP$$GT$$u2b$Output$u20$$u3d$$u20$$LP$$RP$$u2b$core..marker..Send$GT$$GT$17h0a8577f513a18722E', symObjAddr: 0x190, symBinAddr: 0x10003CE50, symSize: 0x70 }
  - { offsetInCU: 0x287F, offset: 0x1DCAA6, size: 0x8, addend: 0x0, symName: '__ZN4core3ptr42drop_in_place$LT$std..io..error..Error$GT$17hbd142f9619fa39dbE', symObjAddr: 0x200, symBinAddr: 0x10003CEC0, symSize: 0xA0 }
  - { offsetInCU: 0x2DFD, offset: 0x1DD024, size: 0x8, addend: 0x0, symName: '__ZN4core3ptr60drop_in_place$LT$std..thread..JoinHandle$LT$$LP$$RP$$GT$$GT$17he02bbca1636f5f6aE', symObjAddr: 0x2F0, symBinAddr: 0x10003CF60, symSize: 0x80 }
  - { offsetInCU: 0x325F, offset: 0x1DD486, size: 0x8, addend: 0x0, symName: '__ZN4core3ptr70drop_in_place$LT$core..option..Option$LT$std..io..error..Error$GT$$GT$17h38525eb49a072c43E', symObjAddr: 0x370, symBinAddr: 0x10003CFE0, symSize: 0xA0 }
  - { offsetInCU: 0x36B5, offset: 0x1DD8DC, size: 0x8, addend: 0x0, symName: '__ZN4core3ptr79drop_in_place$LT$std..sync..mutex..MutexGuard$LT$jobserver..HelperInner$GT$$GT$17hcc14ac0a844fd14bE', symObjAddr: 0x410, symBinAddr: 0x10003D080, symSize: 0x70 }
  - { offsetInCU: 0x39FB, offset: 0x1DDC22, size: 0x8, addend: 0x0, symName: '__ZN4core3ptr95drop_in_place$LT$core..result..Result$LT$$LP$$RP$$C$jobserver..error..FromEnvErrorInner$GT$$GT$17haa7fcffe6e442ce3E', symObjAddr: 0x480, symBinAddr: 0x10003D0F0, symSize: 0x190 }
  - { offsetInCU: 0x526F, offset: 0x1DF496, size: 0x8, addend: 0x0, symName: '__ZN4core3ops8function6FnOnce40call_once$u7b$$u7b$vtable.shim$u7d$$u7d$17hdd0110db4fca4006E', symObjAddr: 0x170, symBinAddr: 0x10003CE30, symSize: 0x20 }
  - { offsetInCU: 0x6D9E, offset: 0x1E0FC5, size: 0x8, addend: 0x0, symName: __ZN9jobserver3imp12spawn_helper9USR1_INIT17heb29149ac91c44f1E, symObjAddr: 0x3CE50, symBinAddr: 0x1000B8278, symSize: 0x0 }
  - { offsetInCU: 0x71CB, offset: 0x1E13F2, size: 0x8, addend: 0x0, symName: __ZN9jobserver3imp12spawn_helper17hd0127021a05a53c5E, symObjAddr: 0x1C10, symBinAddr: 0x10003E280, symSize: 0x320 }
  - { offsetInCU: 0x8424, offset: 0x1E264B, size: 0x8, addend: 0x0, symName: __ZN9jobserver3imp8fd_check17h0f0f341001ea2008E, symObjAddr: 0x2200, symBinAddr: 0x10003E870, symSize: 0x140 }
  - { offsetInCU: 0x8715, offset: 0x1E293C, size: 0x8, addend: 0x0, symName: __ZN9jobserver3imp15sigusr1_handler17hac05babe44bc453dE, symObjAddr: 0x23A0, symBinAddr: 0x10003E9B0, symSize: 0x6 }
  - { offsetInCU: 0x8A58, offset: 0x1E2C7F, size: 0x8, addend: 0x0, symName: __ZN3std2io5error5Error4kind17h476d3690a46ae4c1E, symObjAddr: 0x0, symBinAddr: 0x10003CCC0, symSize: 0x60 }
  - { offsetInCU: 0xA0CF, offset: 0x1E42F6, size: 0x8, addend: 0x0, symName: '__ZN4core3str4iter22SplitInternal$LT$P$GT$4next17h7fa833cfea7e6cd8E', symObjAddr: 0x610, symBinAddr: 0x10003D280, symSize: 0x210 }
  - { offsetInCU: 0xAEE9, offset: 0x1E5110, size: 0x8, addend: 0x0, symName: __ZN9jobserver3imp6Client4open17h67a469c469c7f050E, symObjAddr: 0xBC0, symBinAddr: 0x10003D490, symSize: 0x990 }
  - { offsetInCU: 0xC462, offset: 0x1E6689, size: 0x8, addend: 0x0, symName: __ZN9jobserver3imp6Client24acquire_allow_interrupts17h5743f42bb53d6d56E, symObjAddr: 0x15B0, symBinAddr: 0x10003DE20, symSize: 0x230 }
  - { offsetInCU: 0xCF1D, offset: 0x1E7144, size: 0x8, addend: 0x0, symName: __ZN9jobserver3imp6Client11try_acquire17h57b40214954afa5bE, symObjAddr: 0x17E0, symBinAddr: 0x10003E050, symSize: 0x230 }
  - { offsetInCU: 0xDF99, offset: 0x1E81C0, size: 0x8, addend: 0x0, symName: __ZN9jobserver3imp6Helper4join17hffee9cac48eaadd5E, symObjAddr: 0x1F30, symBinAddr: 0x10003E5A0, symSize: 0x2D0 }
  - { offsetInCU: 0x1E, offset: 0x1EA9BB, size: 0x8, addend: 0x0, symName: '__ZN4core3ptr72drop_in_place$LT$alloc..sync..ArcInner$LT$jobserver..imp..Client$GT$$GT$17h3c6e8acaa3a100efE', symObjAddr: 0x0, symBinAddr: 0x10003E9C0, symSize: 0x50 }
  - { offsetInCU: 0xB29, offset: 0x1EB4C6, size: 0x8, addend: 0x0, symName: '__ZN4core3ptr72drop_in_place$LT$alloc..sync..ArcInner$LT$jobserver..imp..Client$GT$$GT$17h3c6e8acaa3a100efE', symObjAddr: 0x0, symBinAddr: 0x10003E9C0, symSize: 0x50 }
  - { offsetInCU: 0xD0B, offset: 0x1EB6A8, size: 0x8, addend: 0x0, symName: '__ZN4core3ptr79drop_in_place$LT$std..sync..mutex..MutexGuard$LT$jobserver..HelperInner$GT$$GT$17hcc14ac0a844fd14bE', symObjAddr: 0x50, symBinAddr: 0x10003EA10, symSize: 0x70 }
  - { offsetInCU: 0x4C42, offset: 0x1EF5DF, size: 0x8, addend: 0x0, symName: '__ZN61_$LT$jobserver..Acquired$u20$as$u20$core..ops..drop..Drop$GT$4drop17ha6fa54a0a1a0167cE', symObjAddr: 0x1350, symBinAddr: 0x10003F6F0, symSize: 0x110 }
  - { offsetInCU: 0x52C5, offset: 0x1EFC62, size: 0x8, addend: 0x0, symName: '__ZN65_$LT$jobserver..HelperThread$u20$as$u20$core..ops..drop..Drop$GT$4drop17h3e5326c8d06ebc0fE', symObjAddr: 0x1550, symBinAddr: 0x10003F8F0, symSize: 0x160 }
  - { offsetInCU: 0x68F2, offset: 0x1F128F, size: 0x8, addend: 0x0, symName: __ZN4core3str7pattern14TwoWaySearcher9next_back17hf5179375bae5c063E, symObjAddr: 0xC0, symBinAddr: 0x10003EA80, symSize: 0x230 }
  - { offsetInCU: 0x6CA1, offset: 0x1F163E, size: 0x8, addend: 0x0, symName: __ZN9jobserver8Acquired22drop_without_releasing17h8d8c71316f236c05E, symObjAddr: 0x310, symBinAddr: 0x10003ECB0, symSize: 0x50 }
  - { offsetInCU: 0x740E, offset: 0x1F1DAB, size: 0x8, addend: 0x0, symName: __ZN9jobserver6Client12from_env_ext17h4c4ceb49768f07e8E, symObjAddr: 0x440, symBinAddr: 0x10003ED00, symSize: 0x710 }
  - { offsetInCU: 0x845B, offset: 0x1F2DF8, size: 0x8, addend: 0x0, symName: __ZN9jobserver6Client8from_env17h84ea00d990aa2cb5E, symObjAddr: 0xB50, symBinAddr: 0x10003F410, symSize: 0x210 }
  - { offsetInCU: 0x8E21, offset: 0x1F37BE, size: 0x8, addend: 0x0, symName: __ZN9jobserver6Client11try_acquire17h25a2f2c1b1f8a6baE, symObjAddr: 0xDD0, symBinAddr: 0x10003F620, symSize: 0x60 }
  - { offsetInCU: 0x9093, offset: 0x1F3A30, size: 0x8, addend: 0x0, symName: __ZN9jobserver6Client11release_raw17hf07285e871ddf1c6E, symObjAddr: 0x12E0, symBinAddr: 0x10003F680, symSize: 0x70 }
  - { offsetInCU: 0x93D4, offset: 0x1F3D71, size: 0x8, addend: 0x0, symName: __ZN9jobserver12HelperThread13request_token17h9fede3f303030eaeE, symObjAddr: 0x1460, symBinAddr: 0x10003F800, symSize: 0xF0 }
  - { offsetInCU: 0x9BDA, offset: 0x1F4577, size: 0x8, addend: 0x0, symName: __ZN9jobserver11HelperState16for_each_request17hf9fd0a0248a43927E, symObjAddr: 0x1720, symBinAddr: 0x10003FA50, symSize: 0x3E8 }
  - { offsetInCU: 0x1E, offset: 0x1F7892, size: 0x8, addend: 0x0, symName: '__ZN3std6thread18JoinInner$LT$T$GT$4join17h89a8021d76bf47e2E', symObjAddr: 0x0, symBinAddr: 0x10003FE40, symSize: 0x100 }
  - { offsetInCU: 0x559, offset: 0x1F7DCD, size: 0x8, addend: 0x0, symName: '__ZN70_$LT$std..thread..Packet$LT$T$GT$$u20$as$u20$core..ops..drop..Drop$GT$4drop17h71698fcfed5ead07E', symObjAddr: 0xC60, symBinAddr: 0x100040AA0, symSize: 0x128 }
  - { offsetInCU: 0x2061, offset: 0x1F98D5, size: 0x8, addend: 0x0, symName: '__ZN4core3ptr130drop_in_place$LT$core..result..Result$LT$$LP$$RP$$C$alloc..boxed..Box$LT$dyn$u20$core..any..Any$u2b$core..marker..Send$GT$$GT$$GT$17h46f7227c4759a92dE.llvm.2508102960929162117', symObjAddr: 0x810, symBinAddr: 0x100040650, symSize: 0x70 }
  - { offsetInCU: 0x2268, offset: 0x1F9ADC, size: 0x8, addend: 0x0, symName: '__ZN4core3ptr164drop_in_place$LT$std..thread..Builder..spawn_unchecked_$LT$jobserver..imp..spawn_helper..$u7b$$u7b$closure$u7d$$u7d$$C$$LP$$RP$$GT$..$u7b$$u7b$closure$u7d$$u7d$$GT$17h219c7af610811b76E', symObjAddr: 0x880, symBinAddr: 0x1000406C0, symSize: 0xB0 }
  - { offsetInCU: 0x2794, offset: 0x1FA008, size: 0x8, addend: 0x0, symName: '__ZN4core3ptr188drop_in_place$LT$core..cell..UnsafeCell$LT$core..option..Option$LT$core..result..Result$LT$$LP$$RP$$C$alloc..boxed..Box$LT$dyn$u20$core..any..Any$u2b$core..marker..Send$GT$$GT$$GT$$GT$$GT$17hd98cc9efc868719dE', symObjAddr: 0x930, symBinAddr: 0x100040770, symSize: 0x80 }
  - { offsetInCU: 0x29C4, offset: 0x1FA238, size: 0x8, addend: 0x0, symName: '__ZN4core3ptr227drop_in_place$LT$alloc..boxed..Box$LT$dyn$u20$core..ops..function..FnMut$LT$$LP$core..result..Result$LT$jobserver..Acquired$C$std..io..error..Error$GT$$C$$RP$$GT$$u2b$Output$u20$$u3d$$u20$$LP$$RP$$u2b$core..marker..Send$GT$$GT$17h0a8577f513a18722E', symObjAddr: 0x9B0, symBinAddr: 0x1000407F0, symSize: 0x70 }
  - { offsetInCU: 0x2C1A, offset: 0x1FA48E, size: 0x8, addend: 0x0, symName: '__ZN4core3ptr78drop_in_place$LT$jobserver..imp..spawn_helper..$u7b$$u7b$closure$u7d$$u7d$$GT$17h736774384d27e3ccE', symObjAddr: 0xA20, symBinAddr: 0x100040860, symSize: 0xC0 }
  - { offsetInCU: 0x322C, offset: 0x1FAAA0, size: 0x8, addend: 0x0, symName: '__ZN4core3ptr81drop_in_place$LT$core..result..Result$LT$$LP$$RP$$C$std..io..error..Error$GT$$GT$17h4cd258d7323cb6a1E.llvm.2508102960929162117', symObjAddr: 0xAE0, symBinAddr: 0x100040920, symSize: 0xA0 }
  - { offsetInCU: 0x3711, offset: 0x1FAF85, size: 0x8, addend: 0x0, symName: '__ZN4core3ptr85drop_in_place$LT$alloc..sync..ArcInner$LT$std..thread..Packet$LT$$LP$$RP$$GT$$GT$$GT$17h814e19b26ab7b923E', symObjAddr: 0xB80, symBinAddr: 0x1000409C0, symSize: 0xE0 }
  - { offsetInCU: 0x4D12, offset: 0x1FC586, size: 0x8, addend: 0x0, symName: '__ZN4core3ops8function6FnOnce40call_once$u7b$$u7b$vtable.shim$u7d$$u7d$17h8dc77577e59b7a4cE', symObjAddr: 0x620, symBinAddr: 0x100040460, symSize: 0x1F0 }
  - { offsetInCU: 0x675A, offset: 0x1FDFCE, size: 0x8, addend: 0x0, symName: '__ZN3std6thread18JoinInner$LT$T$GT$4join17h89a8021d76bf47e2E', symObjAddr: 0x0, symBinAddr: 0x10003FE40, symSize: 0x100 }
  - { offsetInCU: 0x76B5, offset: 0x1FEF29, size: 0x8, addend: 0x0, symName: __ZN3std6thread7Builder15spawn_unchecked17h8dbe0ed2399e21b1E, symObjAddr: 0x100, symBinAddr: 0x10003FF40, symSize: 0x520 }
  - { offsetInCU: 0x1E, offset: 0x201253, size: 0x8, addend: 0x0, symName: '__ZN4core3ptr188drop_in_place$LT$core..cell..UnsafeCell$LT$core..option..Option$LT$core..result..Result$LT$$LP$$RP$$C$alloc..boxed..Box$LT$dyn$u20$core..any..Any$u2b$core..marker..Send$GT$$GT$$GT$$GT$$GT$17hd98cc9efc868719dE', symObjAddr: 0x0, symBinAddr: 0x100040BD0, symSize: 0x80 }
  - { offsetInCU: 0x55C, offset: 0x201791, size: 0x8, addend: 0x0, symName: '__ZN4core3ptr188drop_in_place$LT$core..cell..UnsafeCell$LT$core..option..Option$LT$core..result..Result$LT$$LP$$RP$$C$alloc..boxed..Box$LT$dyn$u20$core..any..Any$u2b$core..marker..Send$GT$$GT$$GT$$GT$$GT$17hd98cc9efc868719dE', symObjAddr: 0x0, symBinAddr: 0x100040BD0, symSize: 0x80 }
  - { offsetInCU: 0x2BB3, offset: 0x203DE8, size: 0x8, addend: 0x0, symName: '__ZN5alloc4sync16Arc$LT$T$C$A$GT$9drop_slow17h059df10fd4bd89b3E', symObjAddr: 0x80, symBinAddr: 0x100040C50, symSize: 0x70 }
  - { offsetInCU: 0x314A, offset: 0x20437F, size: 0x8, addend: 0x0, symName: '__ZN5alloc4sync16Arc$LT$T$C$A$GT$9drop_slow17h25085d46a331621cE', symObjAddr: 0xF0, symBinAddr: 0x100040CC0, symSize: 0x100 }
  - { offsetInCU: 0x38EB, offset: 0x204B20, size: 0x8, addend: 0x0, symName: '__ZN5alloc4sync16Arc$LT$T$C$A$GT$9drop_slow17h2fb79e2b26c88c0cE', symObjAddr: 0x1F0, symBinAddr: 0x100040DC0, symSize: 0x80 }
  - { offsetInCU: 0x3EB9, offset: 0x2050EE, size: 0x8, addend: 0x0, symName: '__ZN5alloc4sync16Arc$LT$T$C$A$GT$9drop_slow17h340ce781eb005ac4E', symObjAddr: 0x270, symBinAddr: 0x100040E40, symSize: 0x60 }
  - { offsetInCU: 0x4374, offset: 0x2055A9, size: 0x8, addend: 0x0, symName: '__ZN5alloc4sync16Arc$LT$T$C$A$GT$9drop_slow17h7c53723b23b9ff76E', symObjAddr: 0x2D0, symBinAddr: 0x100040EA0, symSize: 0x80 }
  - { offsetInCU: 0x49C2, offset: 0x205BF7, size: 0x8, addend: 0x0, symName: '__ZN5alloc4sync16Arc$LT$T$C$A$GT$9drop_slow17hc161b1c1e24c733aE', symObjAddr: 0x350, symBinAddr: 0x100040F20, symSize: 0x50 }
  - { offsetInCU: 0x1E, offset: 0x20638E, size: 0x8, addend: 0x0, symName: __ZN4core3fmt5Write10write_char17h18a6bfb6949819c2E, symObjAddr: 0x0, symBinAddr: 0x100040F70, symSize: 0xE0 }
  - { offsetInCU: 0x89, offset: 0x2063F9, size: 0x8, addend: 0x0, symName: '__ZN80_$LT$std..io..Write..write_fmt..Adapter$LT$T$GT$$u20$as$u20$core..fmt..Write$GT$9write_str17hd4fc1b043d5271bbE', symObjAddr: 0x1B0, symBinAddr: 0x100041120, symSize: 0xC1 }
  - { offsetInCU: 0xE7D, offset: 0x2071ED, size: 0x8, addend: 0x0, symName: '__ZN4core3ptr97drop_in_place$LT$std..io..Write..write_fmt..Adapter$LT$std..sys..pal..unix..stdio..Stderr$GT$$GT$17h79c7fd5599db6af3E', symObjAddr: 0x100, symBinAddr: 0x100041070, symSize: 0xB0 }
  - { offsetInCU: 0x14C6, offset: 0x207836, size: 0x8, addend: 0x0, symName: __ZN4core3fmt5Write10write_char17h18a6bfb6949819c2E, symObjAddr: 0x0, symBinAddr: 0x100040F70, symSize: 0xE0 }
  - { offsetInCU: 0x160F, offset: 0x20797F, size: 0x8, addend: 0x0, symName: __ZN4core3fmt5Write9write_fmt17hd0a67d5895d2b8c5E, symObjAddr: 0xE0, symBinAddr: 0x100041050, symSize: 0x20 }
  - { offsetInCU: 0x1E, offset: 0x208128, size: 0x8, addend: 0x0, symName: __ZN3std2io5Write9write_all17h43d2a4c5f2f71746E, symObjAddr: 0x0, symBinAddr: 0x1000411F0, symSize: 0x1B0 }
  - { offsetInCU: 0x35, offset: 0x20813F, size: 0x8, addend: 0x0, symName: _anon.48fddb364566016fa5b7596db9ee9bff.6.llvm.17349978833486944981, symObjAddr: 0x4D0, symBinAddr: 0x1000B28C8, symSize: 0x0 }
  - { offsetInCU: 0xE6, offset: 0x2081F0, size: 0x8, addend: 0x0, symName: __ZN3std2io5Write9write_all17h43d2a4c5f2f71746E, symObjAddr: 0x0, symBinAddr: 0x1000411F0, symSize: 0x1B0 }
  - { offsetInCU: 0x732, offset: 0x20883C, size: 0x8, addend: 0x0, symName: __ZN3std2io5Write9write_fmt17hfa9d4739954d74eaE, symObjAddr: 0x1B0, symBinAddr: 0x1000413A0, symSize: 0x130 }
  - { offsetInCU: 0x1CAE, offset: 0x209DB8, size: 0x8, addend: 0x0, symName: '__ZN4core3ptr97drop_in_place$LT$std..io..Write..write_fmt..Adapter$LT$std..sys..pal..unix..stdio..Stderr$GT$$GT$17h79c7fd5599db6af3E.llvm.17349978833486944981', symObjAddr: 0x2E0, symBinAddr: 0x1000414D0, symSize: 0xA1 }
  - { offsetInCU: 0xA04, offset: 0x20B77A, size: 0x8, addend: 0x0, symName: '__ZN4core3ptr79drop_in_place$LT$std..sync..mutex..MutexGuard$LT$jobserver..HelperInner$GT$$GT$17hcc14ac0a844fd14bE.llvm.17030605480188425221', symObjAddr: 0x170, symBinAddr: 0x100041680, symSize: 0x6A }
  - { offsetInCU: 0x1638, offset: 0x20C3AE, size: 0x8, addend: 0x0, symName: __ZN3std4sync7condvar7Condvar4wait17h6c5f5a544fe9db67E, symObjAddr: 0x70, symBinAddr: 0x100041580, symSize: 0x100 }
  - { offsetInCU: 0x1E, offset: 0x20CA50, size: 0x8, addend: 0x0, symName: __ZN3std2io5error5Error3new17h0f07cd93593934fcE, symObjAddr: 0x0, symBinAddr: 0x1000416F0, symSize: 0xF0 }
  - { offsetInCU: 0x8A5, offset: 0x20D2D7, size: 0x8, addend: 0x0, symName: '__ZN4core3ptr205drop_in_place$LT$$LT$alloc..boxed..Box$LT$dyn$u20$core..error..Error$u2b$core..marker..Sync$u2b$core..marker..Send$GT$$u20$as$u20$core..convert..From$LT$alloc..string..String$GT$$GT$..from..StringError$GT$17hefa9b65f9aeee978E', symObjAddr: 0x100, symBinAddr: 0x1000417E0, symSize: 0x20 }
  - { offsetInCU: 0xAFB, offset: 0x20D52D, size: 0x8, addend: 0x0, symName: __ZN4core5error5Error6source17h120782d67a0581edE, symObjAddr: 0x120, symBinAddr: 0x100041800, symSize: 0x10 }
  - { offsetInCU: 0xB2D, offset: 0x20D55F, size: 0x8, addend: 0x0, symName: __ZN4core5error5Error7provide17h372ab453ab7f125dE, symObjAddr: 0x130, symBinAddr: 0x100041810, symSize: 0x6 }
  - { offsetInCU: 0x104E, offset: 0x20DA80, size: 0x8, addend: 0x0, symName: __ZN3std2io5error5Error3new17h0f07cd93593934fcE, symObjAddr: 0x0, symBinAddr: 0x1000416F0, symSize: 0xF0 }
  - { offsetInCU: 0x29A, offset: 0x20E7A5, size: 0x8, addend: 0x0, symName: '__ZN85_$LT$std..sys_common..lazy_box..LazyBox$LT$T$GT$$u20$as$u20$core..ops..drop..Drop$GT$4drop17he06a73a6d8ec790bE', symObjAddr: 0xA0, symBinAddr: 0x100041820, symSize: 0x35 }
  - { offsetInCU: 0x4E1, offset: 0x20E9EC, size: 0x8, addend: 0x0, symName: '__ZN3std10sys_common8lazy_box16LazyBox$LT$T$GT$10initialize17hdee3b8877daac196E', symObjAddr: 0x30, symBinAddr: 0x1000946B0, symSize: 0x50 }
  - { offsetInCU: 0x1E, offset: 0x20EEB4, size: 0x8, addend: 0x0, symName: __ZN3std3sys9backtrace28__rust_begin_short_backtrace17hcb0225702ceb6a21E, symObjAddr: 0x0, symBinAddr: 0x100041860, symSize: 0x50 }
  - { offsetInCU: 0x3CD, offset: 0x20F263, size: 0x8, addend: 0x0, symName: '__ZN4core3ptr227drop_in_place$LT$alloc..boxed..Box$LT$dyn$u20$core..ops..function..FnMut$LT$$LP$core..result..Result$LT$jobserver..Acquired$C$std..io..error..Error$GT$$C$$RP$$GT$$u2b$Output$u20$$u3d$$u20$$LP$$RP$$u2b$core..marker..Send$GT$$GT$17h0a8577f513a18722E', symObjAddr: 0x50, symBinAddr: 0x1000418B0, symSize: 0x70 }
  - { offsetInCU: 0x623, offset: 0x20F4B9, size: 0x8, addend: 0x0, symName: '__ZN4core3ptr78drop_in_place$LT$jobserver..imp..spawn_helper..$u7b$$u7b$closure$u7d$$u7d$$GT$17h736774384d27e3ccE', symObjAddr: 0xC0, symBinAddr: 0x100041920, symSize: 0xBF }
  - { offsetInCU: 0x13FD, offset: 0x210293, size: 0x8, addend: 0x0, symName: __ZN3std3sys9backtrace28__rust_begin_short_backtrace17hcb0225702ceb6a21E, symObjAddr: 0x0, symBinAddr: 0x100041860, symSize: 0x50 }
  - { offsetInCU: 0xD3, offset: 0x21091F, size: 0x8, addend: 0x0, symName: '__ZN44_$LT$$RF$T$u20$as$u20$core..fmt..Display$GT$3fmt17hfcbba4ca5efb4ed2E', symObjAddr: 0x40, symBinAddr: 0x1000419E0, symSize: 0x17 }
  - { offsetInCU: 0x1E, offset: 0x210B4B, size: 0x8, addend: 0x0, symName: __ZN4core5error5Error5cause17hec94a1f5d21636d2E, symObjAddr: 0x0, symBinAddr: 0x100041A00, symSize: 0x10 }
  - { offsetInCU: 0x41, offset: 0x210B6E, size: 0x8, addend: 0x0, symName: __ZN4core5error5Error5cause17hec94a1f5d21636d2E, symObjAddr: 0x0, symBinAddr: 0x100041A00, symSize: 0x10 }
  - { offsetInCU: 0x75, offset: 0x210BA2, size: 0x8, addend: 0x0, symName: __ZN4core5error5Error7type_id17h291eab642b873a44E, symObjAddr: 0x10, symBinAddr: 0x100041A10, symSize: 0x20 }
  - { offsetInCU: 0x1E, offset: 0x210E93, size: 0x8, addend: 0x0, symName: '__ZN108_$LT$alloc..collections..btree..map..Iter$LT$K$C$V$GT$$u20$as$u20$core..iter..traits..iterator..Iterator$GT$4next17h04aa8e72a2b84807E', symObjAddr: 0x0, symBinAddr: 0x100041A30, symSize: 0x230 }
  - { offsetInCU: 0x4CE, offset: 0x211343, size: 0x8, addend: 0x0, symName: '__ZN5alloc11collections5btree4node208Handle$LT$alloc..collections..btree..node..NodeRef$LT$alloc..collections..btree..node..marker..Mut$C$K$C$V$C$alloc..collections..btree..node..marker..Leaf$GT$$C$alloc..collections..btree..node..marker..KV$GT$5split17h1f12005f03d13861E', symObjAddr: 0x12190, symBinAddr: 0x100052860, symSize: 0x210 }
  - { offsetInCU: 0x9AC, offset: 0x211821, size: 0x8, addend: 0x0, symName: '__ZN5alloc11collections5btree4node208Handle$LT$alloc..collections..btree..node..NodeRef$LT$alloc..collections..btree..node..marker..Mut$C$K$C$V$C$alloc..collections..btree..node..marker..Leaf$GT$$C$alloc..collections..btree..node..marker..KV$GT$5split17h7f1df435a3965626E', symObjAddr: 0x123A0, symBinAddr: 0x100052A70, symSize: 0x220 }
  - { offsetInCU: 0xE8B, offset: 0x211D00, size: 0x8, addend: 0x0, symName: '__ZN5alloc11collections5btree4node212Handle$LT$alloc..collections..btree..node..NodeRef$LT$alloc..collections..btree..node..marker..Mut$C$K$C$V$C$alloc..collections..btree..node..marker..Internal$GT$$C$alloc..collections..btree..node..marker..KV$GT$5split17h57eb0cdd3198a0cdE', symObjAddr: 0x125C0, symBinAddr: 0x100052C90, symSize: 0x330 }
  - { offsetInCU: 0x155B, offset: 0x2123D0, size: 0x8, addend: 0x0, symName: '__ZN5alloc11collections5btree4node212Handle$LT$alloc..collections..btree..node..NodeRef$LT$alloc..collections..btree..node..marker..Mut$C$K$C$V$C$alloc..collections..btree..node..marker..Internal$GT$$C$alloc..collections..btree..node..marker..KV$GT$5split17hd8569dabd778bed9E', symObjAddr: 0x128F0, symBinAddr: 0x100052FC0, symSize: 0x320 }
  - { offsetInCU: 0x1C62, offset: 0x212AD7, size: 0x8, addend: 0x0, symName: '__ZN5alloc11collections5btree6remove259_$LT$impl$u20$alloc..collections..btree..node..Handle$LT$alloc..collections..btree..node..NodeRef$LT$alloc..collections..btree..node..marker..Mut$C$K$C$V$C$alloc..collections..btree..node..marker..Leaf$GT$$C$alloc..collections..btree..node..marker..KV$GT$$GT$14remove_leaf_kv17ha2df21f3330f0df9E', symObjAddr: 0x138F0, symBinAddr: 0x100053FC0, symSize: 0x9A0 }
  - { offsetInCU: 0x2888, offset: 0x2136FD, size: 0x8, addend: 0x0, symName: '__ZN5alloc11collections5btree6remove259_$LT$impl$u20$alloc..collections..btree..node..Handle$LT$alloc..collections..btree..node..NodeRef$LT$alloc..collections..btree..node..marker..Mut$C$K$C$V$C$alloc..collections..btree..node..marker..Leaf$GT$$C$alloc..collections..btree..node..marker..KV$GT$$GT$14remove_leaf_kv17hac43b13384fad35aE', symObjAddr: 0x14290, symBinAddr: 0x100054960, symSize: 0x9A0 }
  - { offsetInCU: 0x41AC, offset: 0x215021, size: 0x8, addend: 0x0, symName: '__ZN5alloc11collections5btree4node29BalancingContext$LT$K$C$V$GT$15bulk_steal_left17h52125f0a084890d6E', symObjAddr: 0x12C10, symBinAddr: 0x1000532E0, symSize: 0x400 }
  - { offsetInCU: 0x4723, offset: 0x215598, size: 0x8, addend: 0x0, symName: '__ZN5alloc11collections5btree4node29BalancingContext$LT$K$C$V$GT$16bulk_steal_right17h02bc79a16ac599cfE', symObjAddr: 0x13010, symBinAddr: 0x1000536E0, symSize: 0x4F0 }
  - { offsetInCU: 0x4D7D, offset: 0x215BF2, size: 0x8, addend: 0x0, symName: '__ZN5alloc11collections5btree4node29BalancingContext$LT$K$C$V$GT$8do_merge17h6a15c76d9e623ed0E', symObjAddr: 0x13500, symBinAddr: 0x100053BD0, symSize: 0x3F0 }
  - { offsetInCU: 0x545B, offset: 0x2162D0, size: 0x8, addend: 0x0, symName: '__ZN108_$LT$alloc..collections..btree..map..Iter$LT$K$C$V$GT$$u20$as$u20$core..iter..traits..iterator..Iterator$GT$4next17h04aa8e72a2b84807E', symObjAddr: 0x0, symBinAddr: 0x100041A30, symSize: 0x230 }
  - { offsetInCU: 0x57EF, offset: 0x216664, size: 0x8, addend: 0x0, symName: '__ZN5alloc11collections5btree3map25BTreeMap$LT$K$C$V$C$A$GT$6insert17h72bbdeeb7fae4170E', symObjAddr: 0xF830, symBinAddr: 0x10004FF00, symSize: 0xEA0 }
  - { offsetInCU: 0x6B9E, offset: 0x217A13, size: 0x8, addend: 0x0, symName: '__ZN5alloc11collections5btree3map25BTreeMap$LT$K$C$V$C$A$GT$6insert17h8e99f28badce7080E', symObjAddr: 0x106D0, symBinAddr: 0x100050DA0, symSize: 0xEC0 }
  - { offsetInCU: 0x80C2, offset: 0x218F37, size: 0x8, addend: 0x0, symName: '__ZN5alloc11collections5btree3map25IntoIter$LT$K$C$V$C$A$GT$10dying_next17h18a81d86214d4c3fE', symObjAddr: 0x11590, symBinAddr: 0x100051C60, symSize: 0x400 }
  - { offsetInCU: 0x8452, offset: 0x2192C7, size: 0x8, addend: 0x0, symName: '__ZN5alloc11collections5btree3map25IntoIter$LT$K$C$V$C$A$GT$10dying_next17h46269187b1d1f0d5E', symObjAddr: 0x11990, symBinAddr: 0x100052060, symSize: 0x400 }
  - { offsetInCU: 0x87E2, offset: 0x219657, size: 0x8, addend: 0x0, symName: '__ZN5alloc11collections5btree3map25IntoIter$LT$K$C$V$C$A$GT$10dying_next17hd102cd7efdb59261E', symObjAddr: 0x11D90, symBinAddr: 0x100052460, symSize: 0x400 }
  - { offsetInCU: 0x8B78, offset: 0x2199ED, size: 0x8, addend: 0x0, symName: '__ZN94_$LT$alloc..collections..btree..map..BTreeMap$LT$K$C$V$C$A$GT$$u20$as$u20$core..fmt..Debug$GT$3fmt17h8117d65eb8f4b08bE', symObjAddr: 0x1FD60, symBinAddr: 0x10005FDF0, symSize: 0xF0 }
  - { offsetInCU: 0x9289, offset: 0x21A0FE, size: 0x8, addend: 0x0, symName: '__ZN5alloc7raw_vec19RawVec$LT$T$C$A$GT$8grow_one17h1b2de17ded80b0efE', symObjAddr: 0x15320, symBinAddr: 0x100055680, symSize: 0xC0 }
  - { offsetInCU: 0x93D6, offset: 0x21A24B, size: 0x8, addend: 0x0, symName: '__ZN5alloc7raw_vec19RawVec$LT$T$C$A$GT$8grow_one17h1ed5ddb334986877E', symObjAddr: 0x153E0, symBinAddr: 0x100055740, symSize: 0xB0 }
  - { offsetInCU: 0x9523, offset: 0x21A398, size: 0x8, addend: 0x0, symName: '__ZN5alloc7raw_vec19RawVec$LT$T$C$A$GT$8grow_one17h1f2ce5cd493bf47dE', symObjAddr: 0x15490, symBinAddr: 0x1000557F0, symSize: 0xC0 }
  - { offsetInCU: 0x9670, offset: 0x21A4E5, size: 0x8, addend: 0x0, symName: '__ZN5alloc7raw_vec19RawVec$LT$T$C$A$GT$8grow_one17h1f82d5665bc3baa6E', symObjAddr: 0x15550, symBinAddr: 0x1000558B0, symSize: 0xB0 }
  - { offsetInCU: 0x97BD, offset: 0x21A632, size: 0x8, addend: 0x0, symName: '__ZN5alloc7raw_vec19RawVec$LT$T$C$A$GT$8grow_one17h23f2ece7dc7f8ac4E', symObjAddr: 0x15600, symBinAddr: 0x100055960, symSize: 0xC0 }
  - { offsetInCU: 0x990A, offset: 0x21A77F, size: 0x8, addend: 0x0, symName: '__ZN5alloc7raw_vec19RawVec$LT$T$C$A$GT$8grow_one17h2d7cf4f58f17dc0bE', symObjAddr: 0x156C0, symBinAddr: 0x100055A20, symSize: 0xB0 }
  - { offsetInCU: 0x9A57, offset: 0x21A8CC, size: 0x8, addend: 0x0, symName: '__ZN5alloc7raw_vec19RawVec$LT$T$C$A$GT$8grow_one17h2ebad2aca9269935E', symObjAddr: 0x15770, symBinAddr: 0x100055AD0, symSize: 0xB0 }
  - { offsetInCU: 0x9BA4, offset: 0x21AA19, size: 0x8, addend: 0x0, symName: '__ZN5alloc7raw_vec19RawVec$LT$T$C$A$GT$8grow_one17h6d578489e6325525E', symObjAddr: 0x15820, symBinAddr: 0x100055B80, symSize: 0xC0 }
  - { offsetInCU: 0x9CFF, offset: 0x21AB74, size: 0x8, addend: 0x0, symName: '__ZN5alloc7raw_vec19RawVec$LT$T$C$A$GT$8grow_one17h76cd5bb8e3249a81E', symObjAddr: 0x158E0, symBinAddr: 0x100055C40, symSize: 0xB0 }
  - { offsetInCU: 0x9E4C, offset: 0x21ACC1, size: 0x8, addend: 0x0, symName: '__ZN5alloc7raw_vec19RawVec$LT$T$C$A$GT$8grow_one17h8d39e6a3bd3ed510E', symObjAddr: 0x15A40, symBinAddr: 0x100055CF0, symSize: 0xC0 }
  - { offsetInCU: 0x9F99, offset: 0x21AE0E, size: 0x8, addend: 0x0, symName: '__ZN5alloc7raw_vec19RawVec$LT$T$C$A$GT$8grow_one17h9202c252dcd4a0d8E', symObjAddr: 0x15B00, symBinAddr: 0x100055DB0, symSize: 0xC0 }
  - { offsetInCU: 0xA0E6, offset: 0x21AF5B, size: 0x8, addend: 0x0, symName: '__ZN5alloc7raw_vec19RawVec$LT$T$C$A$GT$8grow_one17hb4b7b3f2aea33bb4E', symObjAddr: 0x15BC0, symBinAddr: 0x100055E70, symSize: 0xC0 }
  - { offsetInCU: 0xA217, offset: 0x21B08C, size: 0x8, addend: 0x0, symName: '__ZN5alloc7raw_vec19RawVec$LT$T$C$A$GT$8grow_one17hd91c9d4c6a9bca00E', symObjAddr: 0x15C80, symBinAddr: 0x100055F30, symSize: 0xA0 }
  - { offsetInCU: 0xAC8A, offset: 0x21BAFF, size: 0x8, addend: 0x0, symName: __ZN5alloc7raw_vec11finish_grow17hcddad2319b47952dE, symObjAddr: 0x14F10, symBinAddr: 0x1000555E0, symSize: 0xA0 }
  - { offsetInCU: 0xAD17, offset: 0x21BB8C, size: 0x8, addend: 0x0, symName: '__ZN5alloc7raw_vec19RawVec$LT$T$C$A$GT$7reserve21do_reserve_and_handle17h196a69aba8c2d956E', symObjAddr: 0x14FB0, symBinAddr: 0x100094A80, symSize: 0xC0 }
  - { offsetInCU: 0xAE48, offset: 0x21BCBD, size: 0x8, addend: 0x0, symName: '__ZN5alloc7raw_vec19RawVec$LT$T$C$A$GT$7reserve21do_reserve_and_handle17h402fc453247f963fE', symObjAddr: 0x15070, symBinAddr: 0x100094B40, symSize: 0xB0 }
  - { offsetInCU: 0xAF79, offset: 0x21BDEE, size: 0x8, addend: 0x0, symName: '__ZN5alloc7raw_vec19RawVec$LT$T$C$A$GT$7reserve21do_reserve_and_handle17h83fb1e8109159aa3E', symObjAddr: 0x151C0, symBinAddr: 0x100094BF0, symSize: 0xA0 }
  - { offsetInCU: 0xB095, offset: 0x21BF0A, size: 0x8, addend: 0x0, symName: '__ZN5alloc7raw_vec19RawVec$LT$T$C$A$GT$7reserve21do_reserve_and_handle17h86549d0267a347f8E', symObjAddr: 0x15260, symBinAddr: 0x100094C90, symSize: 0xC0 }
  - { offsetInCU: 0xBF6F, offset: 0x21CDE4, size: 0x8, addend: 0x0, symName: '__ZN65_$LT$alloc..vec..Vec$LT$T$C$A$GT$$u20$as$u20$core..fmt..Debug$GT$3fmt17h78f151891666d23cE', symObjAddr: 0x1EE50, symBinAddr: 0x10005F080, symSize: 0x80 }
  - { offsetInCU: 0xC553, offset: 0x21D3C8, size: 0x8, addend: 0x0, symName: '__ZN64_$LT$alloc..ffi..c_str..NulError$u20$as$u20$core..fmt..Debug$GT$3fmt17h75cdff7a4e3710ebE', symObjAddr: 0x1ED80, symBinAddr: 0x10005F030, symSize: 0x50 }
  - { offsetInCU: 0xC6FE, offset: 0x21D573, size: 0x8, addend: 0x0, symName: '__ZN5alloc4sync16Arc$LT$T$C$A$GT$9drop_slow17h271286c795991e6eE', symObjAddr: 0x14C30, symBinAddr: 0x100055300, symSize: 0x90 }
  - { offsetInCU: 0xC877, offset: 0x21D6EC, size: 0x8, addend: 0x0, symName: '__ZN5alloc4sync16Arc$LT$T$C$A$GT$9drop_slow17h4eee9a7bc87850e1E', symObjAddr: 0x14CC0, symBinAddr: 0x100055390, symSize: 0x80 }
  - { offsetInCU: 0xCAF6, offset: 0x21D96B, size: 0x8, addend: 0x0, symName: '__ZN5alloc4sync16Arc$LT$T$C$A$GT$9drop_slow17h5baac5b2e7af83faE', symObjAddr: 0x14D40, symBinAddr: 0x100055410, symSize: 0x60 }
  - { offsetInCU: 0xCCEC, offset: 0x21DB61, size: 0x8, addend: 0x0, symName: '__ZN5alloc4sync16Arc$LT$T$C$A$GT$9drop_slow17h9ffcc698eacdf57eE', symObjAddr: 0x14DA0, symBinAddr: 0x100055470, symSize: 0x30 }
  - { offsetInCU: 0xCDED, offset: 0x21DC62, size: 0x8, addend: 0x0, symName: '__ZN5alloc4sync16Arc$LT$T$C$A$GT$9drop_slow17hbd808d258d0d1d92E', symObjAddr: 0x14DD0, symBinAddr: 0x1000554A0, symSize: 0xC0 }
  - { offsetInCU: 0xD06F, offset: 0x21DEE4, size: 0x8, addend: 0x0, symName: '__ZN5alloc4sync16Arc$LT$T$C$A$GT$9drop_slow17he929e03fbfc85295E', symObjAddr: 0x14E90, symBinAddr: 0x100055560, symSize: 0x80 }
  - { offsetInCU: 0xD9C3, offset: 0x21E838, size: 0x8, addend: 0x0, symName: '__ZN58_$LT$alloc..string..String$u20$as$u20$core..fmt..Debug$GT$3fmt17h46296bde07017096E', symObjAddr: 0xF670, symBinAddr: 0x10004FD40, symSize: 0x20 }
  - { offsetInCU: 0xDAB1, offset: 0x21E926, size: 0x8, addend: 0x0, symName: '__ZN58_$LT$alloc..string..String$u20$as$u20$core..fmt..Write$GT$10write_char17h04bc467bd68a934bE', symObjAddr: 0xF690, symBinAddr: 0x10004FD60, symSize: 0x140 }
  - { offsetInCU: 0xDC51, offset: 0x21EAC6, size: 0x8, addend: 0x0, symName: '__ZN58_$LT$alloc..string..String$u20$as$u20$core..fmt..Write$GT$9write_str17h46a93205c3443fbaE', symObjAddr: 0xF7D0, symBinAddr: 0x10004FEA0, symSize: 0x60 }
  - { offsetInCU: 0xDD3C, offset: 0x21EBB1, size: 0x8, addend: 0x0, symName: '__ZN60_$LT$alloc..string..String$u20$as$u20$core..fmt..Display$GT$3fmt17h0d0eb46f3054e2dfE', symObjAddr: 0x1ED60, symBinAddr: 0x10005F010, symSize: 0x20 }
  - { offsetInCU: 0xDE28, offset: 0x21EC9D, size: 0x8, addend: 0x0, symName: '__ZN66_$LT$alloc..borrow..Cow$LT$B$GT$$u20$as$u20$core..fmt..Display$GT$3fmt17h32ca36ea3f63de72E', symObjAddr: 0x1EED0, symBinAddr: 0x10005F100, symSize: 0x20 }
  - { offsetInCU: 0xE95B, offset: 0x21F7D0, size: 0x8, addend: 0x0, symName: '__ZN66_$LT$core..option..Option$LT$T$GT$$u20$as$u20$core..fmt..Debug$GT$3fmt17h3df6fea195ee9427E', symObjAddr: 0x1EF90, symBinAddr: 0x10005F120, symSize: 0x50 }
  - { offsetInCU: 0xE976, offset: 0x21F7EB, size: 0x8, addend: 0x0, symName: '__ZN66_$LT$core..option..Option$LT$T$GT$$u20$as$u20$core..fmt..Debug$GT$3fmt17h757920354d054747E', symObjAddr: 0x1F030, symBinAddr: 0x10005F170, symSize: 0x60 }
  - { offsetInCU: 0xE991, offset: 0x21F806, size: 0x8, addend: 0x0, symName: '__ZN66_$LT$core..option..Option$LT$T$GT$$u20$as$u20$core..fmt..Debug$GT$3fmt17h8518fb850a5a3ac2E', symObjAddr: 0x1F0E0, symBinAddr: 0x10005F1D0, symSize: 0x50 }
  - { offsetInCU: 0xE9AC, offset: 0x21F821, size: 0x8, addend: 0x0, symName: '__ZN66_$LT$core..option..Option$LT$T$GT$$u20$as$u20$core..fmt..Debug$GT$3fmt17h8e67ae2d97ad92c3E', symObjAddr: 0x1F130, symBinAddr: 0x10005F220, symSize: 0x50 }
  - { offsetInCU: 0xE9C7, offset: 0x21F83C, size: 0x8, addend: 0x0, symName: '__ZN66_$LT$core..option..Option$LT$T$GT$$u20$as$u20$core..fmt..Debug$GT$3fmt17haf28644d0c6aae96E', symObjAddr: 0x1F180, symBinAddr: 0x10005F270, symSize: 0x60 }
  - { offsetInCU: 0xFECB, offset: 0x220D40, size: 0x8, addend: 0x0, symName: '__ZN4core3ptr100drop_in_place$LT$core..option..Option$LT$std..sys..pal..unix..process..process_common..Stdio$GT$$GT$17h132f4a2082b20a39E', symObjAddr: 0x18E0, symBinAddr: 0x100042A80, symSize: 0x20 }
  - { offsetInCU: 0xFF60, offset: 0x220DD5, size: 0x8, addend: 0x0, symName: '__ZN4core3ptr104drop_in_place$LT$alloc..vec..Vec$LT$$LP$usize$C$std..backtrace_rs..symbolize..gimli..Mapping$RP$$GT$$GT$17hd64c3526ec62e9d1E', symObjAddr: 0x1900, symBinAddr: 0x100042AA0, symSize: 0xD0 }
  - { offsetInCU: 0x100ED, offset: 0x220F62, size: 0x8, addend: 0x0, symName: '__ZN4core3ptr107drop_in_place$LT$alloc..vec..Vec$LT$$LP$std..ffi..os_str..OsString$C$std..ffi..os_str..OsString$RP$$GT$$GT$17h78469e633eb2ac26E', symObjAddr: 0x19D0, symBinAddr: 0x100042B70, symSize: 0xA0 }
  - { offsetInCU: 0x1033E, offset: 0x2211B3, size: 0x8, addend: 0x0, symName: '__ZN4core3ptr107drop_in_place$LT$core..option..Option$LT$std..sys..pal..unix..process..process_common..CStringArray$GT$$GT$17hc1b13d19064d6ceaE', symObjAddr: 0x1A70, symBinAddr: 0x100042C10, symSize: 0xB0 }
  - { offsetInCU: 0x1055F, offset: 0x2213D4, size: 0x8, addend: 0x0, symName: '__ZN4core3ptr108drop_in_place$LT$alloc..collections..btree..map..BTreeMap$LT$u64$C$gimli..read..abbrev..Abbreviation$GT$$GT$17h896b5b8e1cdcf80bE', symObjAddr: 0x1B20, symBinAddr: 0x100042CC0, symSize: 0xD0 }
  - { offsetInCU: 0x106E8, offset: 0x22155D, size: 0x8, addend: 0x0, symName: '__ZN4core3ptr112drop_in_place$LT$$LP$std..ffi..os_str..OsString$C$core..option..Option$LT$std..ffi..os_str..OsString$GT$$RP$$GT$17h0e5b4663c94b0031E', symObjAddr: 0x1BF0, symBinAddr: 0x100042D90, symSize: 0x50 }
  - { offsetInCU: 0x1086E, offset: 0x2216E3, size: 0x8, addend: 0x0, symName: '__ZN4core3ptr123drop_in_place$LT$addr2line..Context$LT$gimli..read..endian_slice..EndianSlice$LT$gimli..endianity..LittleEndian$GT$$GT$$GT$17h2ef49b54e261394dE', symObjAddr: 0x1C70, symBinAddr: 0x100042DE0, symSize: 0x130 }
  - { offsetInCU: 0x10B75, offset: 0x2219EA, size: 0x8, addend: 0x0, symName: '__ZN4core3ptr123drop_in_place$LT$addr2line..ResUnit$LT$gimli..read..endian_slice..EndianSlice$LT$gimli..endianity..LittleEndian$GT$$GT$$GT$17hdeaa58f877242283E', symObjAddr: 0x1DA0, symBinAddr: 0x100042F10, symSize: 0x100 }
  - { offsetInCU: 0x10D3A, offset: 0x221BAF, size: 0x8, addend: 0x0, symName: '__ZN4core3ptr123drop_in_place$LT$addr2line..SupUnit$LT$gimli..read..endian_slice..EndianSlice$LT$gimli..endianity..LittleEndian$GT$$GT$$GT$17h8208c1c32df374e8E', symObjAddr: 0x1EA0, symBinAddr: 0x100043010, symSize: 0x50 }
  - { offsetInCU: 0x10DF2, offset: 0x221C67, size: 0x8, addend: 0x0, symName: '__ZN4core3ptr124drop_in_place$LT$alloc..collections..btree..map..BTreeMap$LT$std..ffi..os_str..OsString$C$std..ffi..os_str..OsString$GT$$GT$17h77764d00b2baf504E', symObjAddr: 0x1EF0, symBinAddr: 0x100043060, symSize: 0xF0 }
  - { offsetInCU: 0x10FF9, offset: 0x221E6E, size: 0x8, addend: 0x0, symName: '__ZN4core3ptr124drop_in_place$LT$alloc..collections..btree..map..IntoIter$LT$std..ffi..os_str..OsString$C$std..ffi..os_str..OsString$GT$$GT$17h2b9add41309c8a16E', symObjAddr: 0x1FE0, symBinAddr: 0x100043150, symSize: 0xA0 }
  - { offsetInCU: 0x111AE, offset: 0x222023, size: 0x8, addend: 0x0, symName: '__ZN4core3ptr130drop_in_place$LT$gimli..read..dwarf..Dwarf$LT$gimli..read..endian_slice..EndianSlice$LT$gimli..endianity..LittleEndian$GT$$GT$$GT$17he2c802b894b6a339E', symObjAddr: 0x20E0, symBinAddr: 0x1000431F0, symSize: 0x60 }
  - { offsetInCU: 0x11217, offset: 0x22208C, size: 0x8, addend: 0x0, symName: '__ZN4core3ptr131drop_in_place$LT$alloc..boxed..Box$LT$dyn$u20$core..ops..function..FnOnce$LT$$LP$$RP$$GT$$u2b$Output$u20$$u3d$$u20$$LP$$RP$$GT$$GT$17h7715eebd5e8ef4d6E', symObjAddr: 0x2140, symBinAddr: 0x100043250, symSize: 0x70 }
  - { offsetInCU: 0x112FF, offset: 0x222174, size: 0x8, addend: 0x0, symName: '__ZN4core3ptr137drop_in_place$LT$gimli..read..dwarf..Unit$LT$gimli..read..endian_slice..EndianSlice$LT$gimli..endianity..LittleEndian$GT$$C$usize$GT$$GT$17hecb88828dcfed016E', symObjAddr: 0x21B0, symBinAddr: 0x1000432C0, symSize: 0x50 }
  - { offsetInCU: 0x113BD, offset: 0x222232, size: 0x8, addend: 0x0, symName: '__ZN4core3ptr144drop_in_place$LT$alloc..vec..Vec$LT$core..option..Option$LT$core..option..Option$LT$std..backtrace_rs..symbolize..gimli..Mapping$GT$$GT$$GT$$GT$17hc9f7f19bdef76e20E', symObjAddr: 0x2200, symBinAddr: 0x100043310, symSize: 0x130 }
  - { offsetInCU: 0x11552, offset: 0x2223C7, size: 0x8, addend: 0x0, symName: '__ZN4core3ptr146drop_in_place$LT$alloc..vec..Vec$LT$addr2line..ResUnit$LT$gimli..read..endian_slice..EndianSlice$LT$gimli..endianity..LittleEndian$GT$$GT$$GT$$GT$17hd3feb0dd7b6341c0E', symObjAddr: 0x2330, symBinAddr: 0x100043440, symSize: 0xD0 }
  - { offsetInCU: 0x116AE, offset: 0x222523, size: 0x8, addend: 0x0, symName: '__ZN4core3ptr146drop_in_place$LT$alloc..vec..Vec$LT$addr2line..SupUnit$LT$gimli..read..endian_slice..EndianSlice$LT$gimli..endianity..LittleEndian$GT$$GT$$GT$$GT$17hd3b520dc1ec8b244E', symObjAddr: 0x2400, symBinAddr: 0x100043510, symSize: 0x100 }
  - { offsetInCU: 0x11891, offset: 0x222706, size: 0x8, addend: 0x0, symName: '__ZN4core3ptr152drop_in_place$LT$alloc..collections..btree..map..BTreeMap$LT$std..ffi..os_str..OsString$C$core..option..Option$LT$std..ffi..os_str..OsString$GT$$GT$$GT$17h3aba1bca091e2b78E', symObjAddr: 0x2500, symBinAddr: 0x100043610, symSize: 0x100 }
  - { offsetInCU: 0x11AB9, offset: 0x22292E, size: 0x8, addend: 0x0, symName: '__ZN4core3ptr158drop_in_place$LT$alloc..boxed..Box$LT$$u5b$addr2line..ResUnit$LT$gimli..read..endian_slice..EndianSlice$LT$gimli..endianity..LittleEndian$GT$$GT$$u5d$$GT$$GT$17ha6be907e1e9cc0b3E', symObjAddr: 0x2600, symBinAddr: 0x100043710, symSize: 0xC0 }
  - { offsetInCU: 0x11BAF, offset: 0x222A24, size: 0x8, addend: 0x0, symName: '__ZN4core3ptr158drop_in_place$LT$alloc..boxed..Box$LT$$u5b$addr2line..SupUnit$LT$gimli..read..endian_slice..EndianSlice$LT$gimli..endianity..LittleEndian$GT$$GT$$u5d$$GT$$GT$17hf844b2c47a76cbe5E', symObjAddr: 0x26C0, symBinAddr: 0x1000437D0, symSize: 0xE0 }
  - { offsetInCU: 0x11D48, offset: 0x222BBD, size: 0x8, addend: 0x0, symName: '__ZN4core3ptr159drop_in_place$LT$alloc..sync..ArcInner$LT$gimli..read..dwarf..Dwarf$LT$gimli..read..endian_slice..EndianSlice$LT$gimli..endianity..LittleEndian$GT$$GT$$GT$$GT$17hd21332c93e9cd0a3E', symObjAddr: 0x27A0, symBinAddr: 0x1000438B0, symSize: 0x60 }
  - { offsetInCU: 0x11E30, offset: 0x222CA5, size: 0x8, addend: 0x0, symName: '__ZN4core3ptr174drop_in_place$LT$core..result..Result$LT$addr2line..FrameIter$LT$gimli..read..endian_slice..EndianSlice$LT$gimli..endianity..LittleEndian$GT$$GT$$C$gimli..read..Error$GT$$GT$17h37a4d09a5bab7734E', symObjAddr: 0x2800, symBinAddr: 0x100043910, symSize: 0x40 }
  - { offsetInCU: 0x11F34, offset: 0x222DA9, size: 0x8, addend: 0x0, symName: '__ZN4core3ptr175drop_in_place$LT$std..sync..reentrant_lock..ReentrantLockGuard$LT$core..cell..RefCell$LT$std..io..buffered..linewriter..LineWriter$LT$std..io..stdio..StdoutRaw$GT$$GT$$GT$$GT$17hd928a7e05015ad8eE', symObjAddr: 0x2840, symBinAddr: 0x100043950, symSize: 0x30 }
  - { offsetInCU: 0x1206D, offset: 0x222EE2, size: 0x8, addend: 0x0, symName: '__ZN4core3ptr181drop_in_place$LT$core..option..Option$LT$gimli..read..line..IncompleteLineProgram$LT$gimli..read..endian_slice..EndianSlice$LT$gimli..endianity..LittleEndian$GT$$C$usize$GT$$GT$$GT$17ha4c6928a2cf5b75aE', symObjAddr: 0x2870, symBinAddr: 0x100043980, symSize: 0xA0 }
  - { offsetInCU: 0x12331, offset: 0x2231A6, size: 0x8, addend: 0x0, symName: '__ZN4core3ptr184drop_in_place$LT$core..result..Result$LT$addr2line..function..Functions$LT$gimli..read..endian_slice..EndianSlice$LT$gimli..endianity..LittleEndian$GT$$GT$$C$gimli..read..Error$GT$$GT$17h559cfbb2de29274eE', symObjAddr: 0x2910, symBinAddr: 0x100043A20, symSize: 0xE0 }
  - { offsetInCU: 0x12602, offset: 0x223477, size: 0x8, addend: 0x0, symName: '__ZN4core3ptr215drop_in_place$LT$std..sys..thread_local..native..lazy..State$LT$core..cell..Cell$LT$core..option..Option$LT$alloc..sync..Arc$LT$std..sync..mutex..Mutex$LT$alloc..vec..Vec$LT$u8$GT$$GT$$GT$$GT$$GT$$C$$LP$$RP$$GT$$GT$17ha69e16112f70cc34E', symObjAddr: 0x2A10, symBinAddr: 0x100043B00, symSize: 0x30 }
  - { offsetInCU: 0x12687, offset: 0x2234FC, size: 0x8, addend: 0x0, symName: '__ZN4core3ptr250drop_in_place$LT$$LP$gimli..read..UnitOffset$C$addr2line..lazy..LazyCell$LT$core..result..Result$LT$addr2line..function..Function$LT$gimli..read..endian_slice..EndianSlice$LT$gimli..endianity..LittleEndian$GT$$GT$$C$gimli..read..Error$GT$$GT$$RP$$GT$17hf5dc2e31b3559957E', symObjAddr: 0x2A40, symBinAddr: 0x100043B30, symSize: 0x60 }
  - { offsetInCU: 0x1269E, offset: 0x223513, size: 0x8, addend: 0x0, symName: '__ZN4core3ptr250drop_in_place$LT$$LP$gimli..read..UnitOffset$C$addr2line..lazy..LazyCell$LT$core..result..Result$LT$addr2line..function..Function$LT$gimli..read..endian_slice..EndianSlice$LT$gimli..endianity..LittleEndian$GT$$GT$$C$gimli..read..Error$GT$$GT$$RP$$GT$17hf5dc2e31b3559957E', symObjAddr: 0x2A40, symBinAddr: 0x100043B30, symSize: 0x60 }
  - { offsetInCU: 0x126B3, offset: 0x223528, size: 0x8, addend: 0x0, symName: '__ZN4core3ptr250drop_in_place$LT$$LP$gimli..read..UnitOffset$C$addr2line..lazy..LazyCell$LT$core..result..Result$LT$addr2line..function..Function$LT$gimli..read..endian_slice..EndianSlice$LT$gimli..endianity..LittleEndian$GT$$GT$$C$gimli..read..Error$GT$$GT$$RP$$GT$17hf5dc2e31b3559957E', symObjAddr: 0x2A40, symBinAddr: 0x100043B30, symSize: 0x60 }
  - { offsetInCU: 0x126C8, offset: 0x22353D, size: 0x8, addend: 0x0, symName: '__ZN4core3ptr250drop_in_place$LT$$LP$gimli..read..UnitOffset$C$addr2line..lazy..LazyCell$LT$core..result..Result$LT$addr2line..function..Function$LT$gimli..read..endian_slice..EndianSlice$LT$gimli..endianity..LittleEndian$GT$$GT$$C$gimli..read..Error$GT$$GT$$RP$$GT$17hf5dc2e31b3559957E', symObjAddr: 0x2A40, symBinAddr: 0x100043B30, symSize: 0x60 }
  - { offsetInCU: 0x12807, offset: 0x22367C, size: 0x8, addend: 0x0, symName: '__ZN4core3ptr273drop_in_place$LT$alloc..vec..Vec$LT$$LP$gimli..read..UnitOffset$C$addr2line..lazy..LazyCell$LT$core..result..Result$LT$addr2line..function..Function$LT$gimli..read..endian_slice..EndianSlice$LT$gimli..endianity..LittleEndian$GT$$GT$$C$gimli..read..Error$GT$$GT$$RP$$GT$$GT$17heb6aa6615a37ff1aE', symObjAddr: 0x2AA0, symBinAddr: 0x100043B90, symSize: 0xC0 }
  - { offsetInCU: 0x12A1C, offset: 0x223891, size: 0x8, addend: 0x0, symName: '__ZN4core3ptr275drop_in_place$LT$gimli..read..line..LineRows$LT$gimli..read..endian_slice..EndianSlice$LT$gimli..endianity..LittleEndian$GT$$C$gimli..read..line..IncompleteLineProgram$LT$gimli..read..endian_slice..EndianSlice$LT$gimli..endianity..LittleEndian$GT$$C$usize$GT$$C$usize$GT$$GT$17hc6e119e385b7ab77E', symObjAddr: 0x2B60, symBinAddr: 0x100043C50, symSize: 0x90 }
  - { offsetInCU: 0x12C46, offset: 0x223ABB, size: 0x8, addend: 0x0, symName: '__ZN4core3ptr280drop_in_place$LT$$LT$alloc..collections..btree..map..IntoIter$LT$K$C$V$C$A$GT$$u20$as$u20$core..ops..drop..Drop$GT$..drop..DropGuard$LT$u64$C$core..result..Result$LT$alloc..sync..Arc$LT$gimli..read..abbrev..Abbreviations$GT$$C$gimli..read..Error$GT$$C$alloc..alloc..Global$GT$$GT$17haa387ba74ff7800eE', symObjAddr: 0x2BF0, symBinAddr: 0x100043CE0, symSize: 0x80 }
  - { offsetInCU: 0x12D5C, offset: 0x223BD1, size: 0x8, addend: 0x0, symName: '__ZN4core3ptr285drop_in_place$LT$alloc..boxed..Box$LT$$u5b$$LP$gimli..read..UnitOffset$C$addr2line..lazy..LazyCell$LT$core..result..Result$LT$addr2line..function..Function$LT$gimli..read..endian_slice..EndianSlice$LT$gimli..endianity..LittleEndian$GT$$GT$$C$gimli..read..Error$GT$$GT$$RP$$u5d$$GT$$GT$17ha9d866c795750427E', symObjAddr: 0x2C70, symBinAddr: 0x100043D60, symSize: 0xA0 }
  - { offsetInCU: 0x12D73, offset: 0x223BE8, size: 0x8, addend: 0x0, symName: '__ZN4core3ptr285drop_in_place$LT$alloc..boxed..Box$LT$$u5b$$LP$gimli..read..UnitOffset$C$addr2line..lazy..LazyCell$LT$core..result..Result$LT$addr2line..function..Function$LT$gimli..read..endian_slice..EndianSlice$LT$gimli..endianity..LittleEndian$GT$$GT$$C$gimli..read..Error$GT$$GT$$RP$$u5d$$GT$$GT$17ha9d866c795750427E', symObjAddr: 0x2C70, symBinAddr: 0x100043D60, symSize: 0xA0 }
  - { offsetInCU: 0x1382A, offset: 0x22469F, size: 0x8, addend: 0x0, symName: '__ZN4core3ptr37drop_in_place$LT$std..env..VarsOs$GT$17h11114906b43ef652E', symObjAddr: 0x2D10, symBinAddr: 0x100043E00, symSize: 0xB0 }
  - { offsetInCU: 0x13AD5, offset: 0x22494A, size: 0x8, addend: 0x0, symName: '__ZN4core3ptr383drop_in_place$LT$core..result..Result$LT$core..option..Option$LT$alloc..boxed..Box$LT$$LP$alloc..sync..Arc$LT$gimli..read..dwarf..Dwarf$LT$gimli..read..endian_slice..EndianSlice$LT$gimli..endianity..LittleEndian$GT$$GT$$GT$$C$gimli..read..dwarf..Unit$LT$gimli..read..endian_slice..EndianSlice$LT$gimli..endianity..LittleEndian$GT$$C$usize$GT$$RP$$GT$$GT$$C$gimli..read..Error$GT$$GT$17h5734f377dfec8591E', symObjAddr: 0x2DC0, symBinAddr: 0x100043EB0, symSize: 0xB0 }
  - { offsetInCU: 0x13D2A, offset: 0x224B9F, size: 0x8, addend: 0x0, symName: '__ZN4core3ptr42drop_in_place$LT$alloc..string..String$GT$17h59db15f85295d131E', symObjAddr: 0x2F60, symBinAddr: 0x100043F60, symSize: 0x20 }
  - { offsetInCU: 0x13DF5, offset: 0x224C6A, size: 0x8, addend: 0x0, symName: '__ZN4core3ptr42drop_in_place$LT$std..io..error..Error$GT$17h4537743dc9fddae3E', symObjAddr: 0x2F80, symBinAddr: 0x100043F80, symSize: 0xA0 }
  - { offsetInCU: 0x1404C, offset: 0x224EC1, size: 0x8, addend: 0x0, symName: '__ZN4core3ptr44drop_in_place$LT$object..read..ObjectMap$GT$17hb75450a95801e694E', symObjAddr: 0x3020, symBinAddr: 0x100044020, symSize: 0x50 }
  - { offsetInCU: 0x1415C, offset: 0x224FD1, size: 0x8, addend: 0x0, symName: '__ZN4core3ptr44drop_in_place$LT$std..thread..PanicGuard$GT$17h49c674bf97cb17c2E', symObjAddr: 0x30D0, symBinAddr: 0x100044070, symSize: 0x50 }
  - { offsetInCU: 0x141AF, offset: 0x225024, size: 0x8, addend: 0x0, symName: '__ZN4core3ptr44drop_in_place$LT$std..thread..ThreadName$GT$17h9ea89f3b915aba6cE', symObjAddr: 0x3120, symBinAddr: 0x1000440C0, symSize: 0x30 }
  - { offsetInCU: 0x1425A, offset: 0x2250CF, size: 0x8, addend: 0x0, symName: '__ZN4core3ptr46drop_in_place$LT$alloc..vec..Vec$LT$u8$GT$$GT$17h9a5e643e9b7c3ef8E', symObjAddr: 0x3150, symBinAddr: 0x1000440F0, symSize: 0x20 }
  - { offsetInCU: 0x142D7, offset: 0x22514C, size: 0x8, addend: 0x0, symName: '__ZN4core3ptr46drop_in_place$LT$std..io..stdio..StdinLock$GT$17h1000111f529ce114E', symObjAddr: 0x3170, symBinAddr: 0x100044110, symSize: 0x50 }
  - { offsetInCU: 0x1440A, offset: 0x22527F, size: 0x8, addend: 0x0, symName: '__ZN4core3ptr47drop_in_place$LT$alloc..ffi..c_str..CString$GT$17hf54773864a0e79a6E', symObjAddr: 0x31C0, symBinAddr: 0x100044160, symSize: 0x30 }
  - { offsetInCU: 0x14489, offset: 0x2252FE, size: 0x8, addend: 0x0, symName: '__ZN4core3ptr48drop_in_place$LT$alloc..ffi..c_str..NulError$GT$17hd0083903c682d5d8E', symObjAddr: 0x3210, symBinAddr: 0x100044190, symSize: 0x20 }
  - { offsetInCU: 0x14538, offset: 0x2253AD, size: 0x8, addend: 0x0, symName: '__ZN4core3ptr55drop_in_place$LT$gimli..read..abbrev..Abbreviations$GT$17ha5b955a9654883aaE', symObjAddr: 0x34F0, symBinAddr: 0x1000441B0, symSize: 0x90 }
  - { offsetInCU: 0x146A2, offset: 0x225517, size: 0x8, addend: 0x0, symName: '__ZN4core3ptr57drop_in_place$LT$std..sys_common..process..CommandEnv$GT$17hf900ee08bb4c2851E', symObjAddr: 0x3580, symBinAddr: 0x100044240, symSize: 0x10 }
  - { offsetInCU: 0x146E7, offset: 0x22555C, size: 0x8, addend: 0x0, symName: '__ZN4core3ptr60drop_in_place$LT$gimli..read..abbrev..AbbreviationsCache$GT$17h1b2b5f77a55605caE', symObjAddr: 0x3590, symBinAddr: 0x100044250, symSize: 0xE0 }
  - { offsetInCU: 0x14844, offset: 0x2256B9, size: 0x8, addend: 0x0, symName: '__ZN4core3ptr62drop_in_place$LT$std..sys..sync..rwlock..queue..PanicGuard$GT$17h771b0fc3a251803cE', symObjAddr: 0x3670, symBinAddr: 0x100044330, symSize: 0x50 }
  - { offsetInCU: 0x148A5, offset: 0x22571A, size: 0x8, addend: 0x0, symName: '__ZN4core3ptr65drop_in_place$LT$alloc..vec..Vec$LT$alloc..string..String$GT$$GT$17hcd9f36ca87523893E', symObjAddr: 0x36C0, symBinAddr: 0x100044380, symSize: 0x90 }
  - { offsetInCU: 0x149F2, offset: 0x225867, size: 0x8, addend: 0x0, symName: '__ZN4core3ptr65drop_in_place$LT$std..backtrace_rs..symbolize..gimli..Mapping$GT$17ha8f2d80facd881efE', symObjAddr: 0x3750, symBinAddr: 0x100044410, symSize: 0x90 }
  - { offsetInCU: 0x14AA9, offset: 0x22591E, size: 0x8, addend: 0x0, symName: '__ZN4core3ptr67drop_in_place$LT$alloc..vec..Vec$LT$addr2line..LineSequence$GT$$GT$17h3097d000094deec4E', symObjAddr: 0x37E0, symBinAddr: 0x1000444A0, symSize: 0x90 }
  - { offsetInCU: 0x14BE8, offset: 0x225A5D, size: 0x8, addend: 0x0, symName: '__ZN4core3ptr70drop_in_place$LT$alloc..vec..Vec$LT$alloc..ffi..c_str..CString$GT$$GT$17h021c146b17c82913E', symObjAddr: 0x3870, symBinAddr: 0x100044530, symSize: 0x80 }
  - { offsetInCU: 0x14D82, offset: 0x225BF7, size: 0x8, addend: 0x0, symName: '__ZN4core3ptr70drop_in_place$LT$std..backtrace_rs..symbolize..gimli..stash..Stash$GT$17h90e0b0985b8e22d0E', symObjAddr: 0x3980, symBinAddr: 0x1000445B0, symSize: 0xE0 }
  - { offsetInCU: 0x15022, offset: 0x225E97, size: 0x8, addend: 0x0, symName: '__ZN4core3ptr71drop_in_place$LT$std..backtrace_rs..symbolize..gimli..macho..Object$GT$17h2fff3db3a7544d43E', symObjAddr: 0x3A60, symBinAddr: 0x100044690, symSize: 0x160 }
  - { offsetInCU: 0x15328, offset: 0x22619D, size: 0x8, addend: 0x0, symName: '__ZN4core3ptr71drop_in_place$LT$std..sync..rwlock..RwLockReadGuard$LT$$LP$$RP$$GT$$GT$17h1d840147d479c1dbE', symObjAddr: 0x3C30, symBinAddr: 0x1000447F0, symSize: 0x40 }
  - { offsetInCU: 0x153D9, offset: 0x22624E, size: 0x8, addend: 0x0, symName: '__ZN4core3ptr72drop_in_place$LT$core..option..Option$LT$object..read..ObjectMap$GT$$GT$17h4ff1d16f78bfc967E', symObjAddr: 0x3C70, symBinAddr: 0x100044830, symSize: 0x60 }
  - { offsetInCU: 0x154FF, offset: 0x226374, size: 0x8, addend: 0x0, symName: '__ZN4core3ptr75drop_in_place$LT$core..option..Option$LT$alloc..ffi..c_str..CString$GT$$GT$17h63fd087ba8f467d8E', symObjAddr: 0x3CF0, symBinAddr: 0x100044890, symSize: 0x30 }
  - { offsetInCU: 0x15594, offset: 0x226409, size: 0x8, addend: 0x0, symName: '__ZN4core3ptr77drop_in_place$LT$alloc..boxed..Box$LT$$u5b$alloc..string..String$u5d$$GT$$GT$17h5a079cec55cc326eE', symObjAddr: 0x3D20, symBinAddr: 0x1000448C0, symSize: 0x60 }
  - { offsetInCU: 0x155AB, offset: 0x226420, size: 0x8, addend: 0x0, symName: '__ZN4core3ptr77drop_in_place$LT$alloc..boxed..Box$LT$$u5b$alloc..string..String$u5d$$GT$$GT$17h5a079cec55cc326eE', symObjAddr: 0x3D20, symBinAddr: 0x1000448C0, symSize: 0x60 }
  - { offsetInCU: 0x156A6, offset: 0x22651B, size: 0x8, addend: 0x0, symName: '__ZN4core3ptr77drop_in_place$LT$std..panicking..begin_panic_handler..FormatStringPayload$GT$17hda64c1aa4eb7db50E', symObjAddr: 0x3D80, symBinAddr: 0x100044920, symSize: 0x30 }
  - { offsetInCU: 0x15758, offset: 0x2265CD, size: 0x8, addend: 0x0, symName: '__ZN4core3ptr77drop_in_place$LT$std..sys..pal..unix..process..process_common..ChildPipes$GT$17hc5abfb62920ab5a8E', symObjAddr: 0x3DB0, symBinAddr: 0x100044950, symSize: 0x50 }
  - { offsetInCU: 0x15867, offset: 0x2266DC, size: 0x8, addend: 0x0, symName: '__ZN4core3ptr77drop_in_place$LT$std..sys..pal..unix..process..process_common..StdioPipes$GT$17h1282f5eddca9c8b1E', symObjAddr: 0x3E00, symBinAddr: 0x1000449A0, symSize: 0x40 }
  - { offsetInCU: 0x159A3, offset: 0x226818, size: 0x8, addend: 0x0, symName: '__ZN4core3ptr78drop_in_place$LT$core..result..Result$LT$usize$C$std..io..error..Error$GT$$GT$17h3fff780f81e24e8bE', symObjAddr: 0x3E40, symBinAddr: 0x1000449E0, symSize: 0x20 }
  - { offsetInCU: 0x159B7, offset: 0x22682C, size: 0x8, addend: 0x0, symName: '__ZN4core3ptr79drop_in_place$LT$std..sys..pal..unix..process..process_common..CStringArray$GT$17ha3df882ee42ef0fdE', symObjAddr: 0x3E60, symBinAddr: 0x100044A00, symSize: 0xA0 }
  - { offsetInCU: 0x15B6E, offset: 0x2269E3, size: 0x8, addend: 0x0, symName: '__ZN4core3ptr81drop_in_place$LT$core..result..Result$LT$$LP$$RP$$C$std..io..error..Error$GT$$GT$17h7d4aca425c3ff71eE', symObjAddr: 0x3F00, symBinAddr: 0x100044AA0, symSize: 0x20 }
  - { offsetInCU: 0x15B82, offset: 0x2269F7, size: 0x8, addend: 0x0, symName: '__ZN4core3ptr84drop_in_place$LT$$LP$std..ffi..os_str..OsString$C$std..ffi..os_str..OsString$RP$$GT$17hda43f59417df7d79E', symObjAddr: 0x3F20, symBinAddr: 0x100044AC0, symSize: 0x50 }
  - { offsetInCU: 0x15CBE, offset: 0x226B33, size: 0x8, addend: 0x0, symName: '__ZN4core3ptr84drop_in_place$LT$alloc..sync..ArcInner$LT$gimli..read..abbrev..Abbreviations$GT$$GT$17ha88d315bc6ee2a6bE', symObjAddr: 0x3F70, symBinAddr: 0x100044B10, symSize: 0x90 }
  - { offsetInCU: 0x15E6F, offset: 0x226CE4, size: 0x8, addend: 0x0, symName: '__ZN4core3ptr86drop_in_place$LT$core..result..Result$LT$addr2line..Lines$C$gimli..read..Error$GT$$GT$17h5bcb985cd394798dE', symObjAddr: 0x4000, symBinAddr: 0x100044BA0, symSize: 0xE0 }
  - { offsetInCU: 0x160BE, offset: 0x226F33, size: 0x8, addend: 0x0, symName: '__ZN4core3ptr87drop_in_place$LT$alloc..sync..ArcInner$LT$std..sys..pal..unix..fs..InnerReadDir$GT$$GT$17h27f97e30407649b5E', symObjAddr: 0x40E0, symBinAddr: 0x100044C80, symSize: 0x60 }
  - { offsetInCU: 0x16250, offset: 0x2270C5, size: 0x8, addend: 0x0, symName: '__ZN4core3ptr87drop_in_place$LT$core..option..Option$LT$alloc..boxed..Box$LT$$u5b$u32$u5d$$GT$$GT$$GT$17h9556752a22e65269E', symObjAddr: 0x4140, symBinAddr: 0x100044CE0, symSize: 0x30 }
  - { offsetInCU: 0x1632A, offset: 0x22719F, size: 0x8, addend: 0x0, symName: '__ZN4core3ptr88drop_in_place$LT$alloc..vec..Vec$LT$std..backtrace_rs..symbolize..gimli..Library$GT$$GT$17h5a2d70ef2c57636eE', symObjAddr: 0x4170, symBinAddr: 0x100044D10, symSize: 0xA0 }
  - { offsetInCU: 0x164EE, offset: 0x227363, size: 0x8, addend: 0x0, symName: '__ZN4core3ptr88drop_in_place$LT$std..io..Write..write_fmt..Adapter$LT$alloc..vec..Vec$LT$u8$GT$$GT$$GT$17hb79e3e627b3b4cadE', symObjAddr: 0x4210, symBinAddr: 0x100044DB0, symSize: 0x20 }
  - { offsetInCU: 0x1652C, offset: 0x2273A1, size: 0x8, addend: 0x0, symName: '__ZN4core3ptr90drop_in_place$LT$std..io..buffered..bufwriter..BufWriter$LT$W$GT$..flush_buf..BufGuard$GT$17h473e0dbc3acd3280E', symObjAddr: 0x4230, symBinAddr: 0x100044DD0, symSize: 0x60 }
  - { offsetInCU: 0x166A4, offset: 0x227519, size: 0x8, addend: 0x0, symName: '__ZN4core3ptr92drop_in_place$LT$alloc..boxed..Box$LT$std..sys..sync..mutex..pthread..AllocatedMutex$GT$$GT$17h0d8fca55e8e556b5E', symObjAddr: 0x42F0, symBinAddr: 0x100044E30, symSize: 0x30 }
  - { offsetInCU: 0x1673F, offset: 0x2275B4, size: 0x8, addend: 0x0, symName: '__ZN4core3ptr95drop_in_place$LT$core..option..IntoIter$LT$std..backtrace_rs..symbolize..gimli..Library$GT$$GT$17h7258725f4014309aE', symObjAddr: 0x4320, symBinAddr: 0x100044E60, symSize: 0x50 }
  - { offsetInCU: 0x1675D, offset: 0x2275D2, size: 0x8, addend: 0x0, symName: '__ZN4core3ptr95drop_in_place$LT$core..option..IntoIter$LT$std..backtrace_rs..symbolize..gimli..Library$GT$$GT$17h7258725f4014309aE', symObjAddr: 0x4320, symBinAddr: 0x100044E60, symSize: 0x50 }
  - { offsetInCU: 0x16772, offset: 0x2275E7, size: 0x8, addend: 0x0, symName: '__ZN4core3ptr95drop_in_place$LT$core..option..IntoIter$LT$std..backtrace_rs..symbolize..gimli..Library$GT$$GT$17h7258725f4014309aE', symObjAddr: 0x4320, symBinAddr: 0x100044E60, symSize: 0x50 }
  - { offsetInCU: 0x168BC, offset: 0x227731, size: 0x8, addend: 0x0, symName: '__ZN4core3ptr95drop_in_place$LT$std..io..buffered..linewriter..LineWriter$LT$std..io..stdio..StdoutRaw$GT$$GT$17h9c9d8a01642b58edE', symObjAddr: 0x4370, symBinAddr: 0x100044EB0, symSize: 0xF0 }
  - { offsetInCU: 0x19C0D, offset: 0x22AA82, size: 0x8, addend: 0x0, symName: __ZN4core5slice4sort6shared5pivot11median3_rec17h10ec5dd456f10a23E, symObjAddr: 0x48A0, symBinAddr: 0x1000450A0, symSize: 0xC0 }
  - { offsetInCU: 0x19D14, offset: 0x22AB89, size: 0x8, addend: 0x0, symName: __ZN4core5slice4sort6shared5pivot11median3_rec17h5d7401d54a70e545E, symObjAddr: 0x4960, symBinAddr: 0x100045160, symSize: 0xC0 }
  - { offsetInCU: 0x19E1B, offset: 0x22AC90, size: 0x8, addend: 0x0, symName: __ZN4core5slice4sort6shared5pivot11median3_rec17h678771bdd9989bc4E, symObjAddr: 0x4A20, symBinAddr: 0x100045220, symSize: 0xB0 }
  - { offsetInCU: 0x19F78, offset: 0x22ADED, size: 0x8, addend: 0x0, symName: __ZN4core5slice4sort6shared5pivot11median3_rec17ha6d876ea0e6caac1E, symObjAddr: 0x4AD0, symBinAddr: 0x1000452D0, symSize: 0x140 }
  - { offsetInCU: 0x1A1AB, offset: 0x22B020, size: 0x8, addend: 0x0, symName: __ZN4core5slice4sort6shared5pivot11median3_rec17hb596338b09cc9a1dE, symObjAddr: 0x4C10, symBinAddr: 0x100045410, symSize: 0xC0 }
  - { offsetInCU: 0x1A2B2, offset: 0x22B127, size: 0x8, addend: 0x0, symName: __ZN4core5slice4sort6shared5pivot11median3_rec17hd8b0c8642d516098E, symObjAddr: 0x4CD0, symBinAddr: 0x1000454D0, symSize: 0x110 }
  - { offsetInCU: 0x1A3C5, offset: 0x22B23A, size: 0x8, addend: 0x0, symName: __ZN4core5slice4sort6shared5pivot11median3_rec17hf1ffff1af254135dE, symObjAddr: 0x4DE0, symBinAddr: 0x1000455E0, symSize: 0xB0 }
  - { offsetInCU: 0x1A4CC, offset: 0x22B341, size: 0x8, addend: 0x0, symName: __ZN4core5slice4sort6shared5pivot11median3_rec17hfa40af6741a5ea49E, symObjAddr: 0x4E90, symBinAddr: 0x100045690, symSize: 0xC0 }
  - { offsetInCU: 0x1A6A3, offset: 0x22B518, size: 0x8, addend: 0x0, symName: __ZN4core5slice4sort6shared9smallsort12sort4_stable17h5c9a4fc1faf1c3f0E, symObjAddr: 0x4F50, symBinAddr: 0x100045750, symSize: 0x1F0 }
  - { offsetInCU: 0x1AA79, offset: 0x22B8EE, size: 0x8, addend: 0x0, symName: __ZN4core5slice4sort6shared9smallsort12sort4_stable17hebd3516948f59830E, symObjAddr: 0x5140, symBinAddr: 0x100045940, symSize: 0x1B0 }
  - { offsetInCU: 0x1AC7E, offset: 0x22BAF3, size: 0x8, addend: 0x0, symName: __ZN4core5slice4sort6shared9smallsort12sort8_stable17h73fc3d1f23e89cd0E, symObjAddr: 0x52F0, symBinAddr: 0x100045AF0, symSize: 0x3E0 }
  - { offsetInCU: 0x1B47F, offset: 0x22C2F4, size: 0x8, addend: 0x0, symName: __ZN4core5slice4sort6shared9smallsort18small_sort_general17h8580350dc89e0b16E, symObjAddr: 0x56D0, symBinAddr: 0x100045ED0, symSize: 0x4F0 }
  - { offsetInCU: 0x1BA15, offset: 0x22C88A, size: 0x8, addend: 0x0, symName: __ZN4core5slice4sort6shared9smallsort18small_sort_general17hb8ddaadc775fa7bbE, symObjAddr: 0x5BC0, symBinAddr: 0x1000463C0, symSize: 0x630 }
  - { offsetInCU: 0x1C507, offset: 0x22D37C, size: 0x8, addend: 0x0, symName: __ZN4core5slice4sort6stable14driftsort_main17h0a12b591811d8d96E, symObjAddr: 0x61F0, symBinAddr: 0x1000469F0, symSize: 0x130 }
  - { offsetInCU: 0x1C782, offset: 0x22D5F7, size: 0x8, addend: 0x0, symName: __ZN4core5slice4sort6stable14driftsort_main17h2603d9940a6b7425E, symObjAddr: 0x6320, symBinAddr: 0x100046B20, symSize: 0x130 }
  - { offsetInCU: 0x1C9FD, offset: 0x22D872, size: 0x8, addend: 0x0, symName: __ZN4core5slice4sort6stable14driftsort_main17h89a899ff82e24bb0E, symObjAddr: 0x6450, symBinAddr: 0x100046C50, symSize: 0x130 }
  - { offsetInCU: 0x1CC78, offset: 0x22DAED, size: 0x8, addend: 0x0, symName: __ZN4core5slice4sort6stable14driftsort_main17haf200431324837b0E, symObjAddr: 0x6580, symBinAddr: 0x100046D80, symSize: 0x140 }
  - { offsetInCU: 0x1CEF3, offset: 0x22DD68, size: 0x8, addend: 0x0, symName: __ZN4core5slice4sort6stable14driftsort_main17hb8200fd42e629335E, symObjAddr: 0x66C0, symBinAddr: 0x100046EC0, symSize: 0x150 }
  - { offsetInCU: 0x1D103, offset: 0x22DF78, size: 0x8, addend: 0x0, symName: __ZN4core5slice4sort6stable14driftsort_main17heb01477367bce3a7E, symObjAddr: 0x6810, symBinAddr: 0x100047010, symSize: 0x140 }
  - { offsetInCU: 0x1D56B, offset: 0x22E3E0, size: 0x8, addend: 0x0, symName: __ZN4core5slice4sort6stable5drift4sort17h04c31658064cd2b3E, symObjAddr: 0x6950, symBinAddr: 0x100047150, symSize: 0x690 }
  - { offsetInCU: 0x1DD62, offset: 0x22EBD7, size: 0x8, addend: 0x0, symName: __ZN4core5slice4sort6stable5drift4sort17h0e577c903e03f750E, symObjAddr: 0x6FE0, symBinAddr: 0x1000477E0, symSize: 0x6C0 }
  - { offsetInCU: 0x1E559, offset: 0x22F3CE, size: 0x8, addend: 0x0, symName: __ZN4core5slice4sort6stable5drift4sort17h178a996c19cdced7E, symObjAddr: 0x76A0, symBinAddr: 0x100047EA0, symSize: 0x6C0 }
  - { offsetInCU: 0x1ED5F, offset: 0x22FBD4, size: 0x8, addend: 0x0, symName: __ZN4core5slice4sort6stable5drift4sort17h3bc04abf75ca8a28E, symObjAddr: 0x7D60, symBinAddr: 0x100048560, symSize: 0x700 }
  - { offsetInCU: 0x1F5B1, offset: 0x230426, size: 0x8, addend: 0x0, symName: __ZN4core5slice4sort6stable5drift4sort17h4d0d7298f6ebbf91E, symObjAddr: 0x8460, symBinAddr: 0x100048C60, symSize: 0x6B0 }
  - { offsetInCU: 0x1FDB7, offset: 0x230C2C, size: 0x8, addend: 0x0, symName: __ZN4core5slice4sort6stable5drift4sort17h9eb579a7e11a429dE, symObjAddr: 0x8B10, symBinAddr: 0x100049310, symSize: 0x6F0 }
  - { offsetInCU: 0x207AB, offset: 0x231620, size: 0x8, addend: 0x0, symName: __ZN4core5slice4sort6stable9quicksort9quicksort17h17dfc7d88980d1d4E, symObjAddr: 0x9200, symBinAddr: 0x100049A00, symSize: 0xBB0 }
  - { offsetInCU: 0x21F06, offset: 0x232D7B, size: 0x8, addend: 0x0, symName: __ZN4core5slice4sort6stable9quicksort9quicksort17h38f12e856567aa96E, symObjAddr: 0x9DB0, symBinAddr: 0x10004A5B0, symSize: 0xB20 }
  - { offsetInCU: 0x22891, offset: 0x233706, size: 0x8, addend: 0x0, symName: __ZN4core5slice4sort6stable9quicksort9quicksort17h39128ce8a0799e8bE, symObjAddr: 0xA8D0, symBinAddr: 0x10004B0D0, symSize: 0xD40 }
  - { offsetInCU: 0x236AD, offset: 0x234522, size: 0x8, addend: 0x0, symName: __ZN4core5slice4sort6stable9quicksort9quicksort17h3a28d19f02358dcaE, symObjAddr: 0xB610, symBinAddr: 0x10004BE10, symSize: 0xBF0 }
  - { offsetInCU: 0x244E4, offset: 0x235359, size: 0x8, addend: 0x0, symName: __ZN4core5slice4sort6stable9quicksort9quicksort17h8c087a1b45054228E, symObjAddr: 0xC200, symBinAddr: 0x10004CA00, symSize: 0xC40 }
  - { offsetInCU: 0x2530B, offset: 0x236180, size: 0x8, addend: 0x0, symName: __ZN4core5slice4sort6stable9quicksort9quicksort17hc014ef5dc52f58bfE, symObjAddr: 0xCE40, symBinAddr: 0x10004D640, symSize: 0xB20 }
  - { offsetInCU: 0x261A9, offset: 0x23701E, size: 0x8, addend: 0x0, symName: __ZN4core5slice4sort8unstable7ipnsort17h8289eeaf98734eb7E, symObjAddr: 0xD960, symBinAddr: 0x10004E160, symSize: 0x1A0 }
  - { offsetInCU: 0x26462, offset: 0x2372D7, size: 0x8, addend: 0x0, symName: __ZN4core5slice4sort8unstable7ipnsort17h8eb614293eee64e8E, symObjAddr: 0xDB00, symBinAddr: 0x10004E300, symSize: 0xF0 }
  - { offsetInCU: 0x26608, offset: 0x23747D, size: 0x8, addend: 0x0, symName: __ZN4core5slice4sort8unstable8heapsort8heapsort17h521fb1d1e30789c6E, symObjAddr: 0xDBF0, symBinAddr: 0x10004E3F0, symSize: 0xE0 }
  - { offsetInCU: 0x26721, offset: 0x237596, size: 0x8, addend: 0x0, symName: __ZN4core5slice4sort8unstable8heapsort8heapsort17h98b8ce9a74c50809E, symObjAddr: 0xDCD0, symBinAddr: 0x10004E4D0, symSize: 0xE0 }
  - { offsetInCU: 0x2683A, offset: 0x2376AF, size: 0x8, addend: 0x0, symName: __ZN4core5slice4sort8unstable8heapsort9sift_down17h4191d8eebb1da157E, symObjAddr: 0xDDB0, symBinAddr: 0x10004E5B0, symSize: 0x130 }
  - { offsetInCU: 0x26A0D, offset: 0x237882, size: 0x8, addend: 0x0, symName: __ZN4core5slice4sort8unstable8heapsort9sift_down17h78e5b96021857d96E, symObjAddr: 0xDEE0, symBinAddr: 0x10004E6E0, symSize: 0xC0 }
  - { offsetInCU: 0x26B89, offset: 0x2379FE, size: 0x8, addend: 0x0, symName: __ZN4core5slice4sort8unstable9quicksort9quicksort17hbb237c64d8c9a3ddE, symObjAddr: 0xDFA0, symBinAddr: 0x10004E7A0, symSize: 0x770 }
  - { offsetInCU: 0x277B8, offset: 0x23862D, size: 0x8, addend: 0x0, symName: __ZN4core5slice4sort8unstable9quicksort9quicksort17hfdd67d94a1025140E, symObjAddr: 0xE710, symBinAddr: 0x10004EF10, symSize: 0x530 }
  - { offsetInCU: 0x28127, offset: 0x238F9C, size: 0x8, addend: 0x0, symName: '__ZN36_$LT$T$u20$as$u20$core..any..Any$GT$7type_id17h184ba471db4c54d0E', symObjAddr: 0x230, symBinAddr: 0x100041C60, symSize: 0x20 }
  - { offsetInCU: 0x28141, offset: 0x238FB6, size: 0x8, addend: 0x0, symName: '__ZN36_$LT$T$u20$as$u20$core..any..Any$GT$7type_id17hea58b14a7d4f43b6E', symObjAddr: 0x270, symBinAddr: 0x100041C80, symSize: 0x20 }
  - { offsetInCU: 0x281BF, offset: 0x239034, size: 0x8, addend: 0x0, symName: '__ZN41_$LT$bool$u20$as$u20$core..fmt..Debug$GT$3fmt17h79621e001e4f1310E', symObjAddr: 0x290, symBinAddr: 0x100041CA0, symSize: 0x10 }
  - { offsetInCU: 0x281E0, offset: 0x239055, size: 0x8, addend: 0x0, symName: '__ZN42_$LT$$RF$T$u20$as$u20$core..fmt..Debug$GT$3fmt17h00ca7100f553597dE', symObjAddr: 0x2D0, symBinAddr: 0x100041CB0, symSize: 0x30 }
  - { offsetInCU: 0x28225, offset: 0x23909A, size: 0x8, addend: 0x0, symName: '__ZN42_$LT$$RF$T$u20$as$u20$core..fmt..Debug$GT$3fmt17h03f4c065bbdb143aE', symObjAddr: 0x300, symBinAddr: 0x100041CE0, symSize: 0xD0 }
  - { offsetInCU: 0x2824E, offset: 0x2390C3, size: 0x8, addend: 0x0, symName: '__ZN42_$LT$$RF$T$u20$as$u20$core..fmt..Debug$GT$3fmt17h047f9c6be51c5e85E', symObjAddr: 0x3D0, symBinAddr: 0x100041DB0, symSize: 0x20 }
  - { offsetInCU: 0x2828C, offset: 0x239101, size: 0x8, addend: 0x0, symName: '__ZN42_$LT$$RF$T$u20$as$u20$core..fmt..Debug$GT$3fmt17h08dfd7a6fdead5d8E', symObjAddr: 0x3F0, symBinAddr: 0x100041DD0, symSize: 0xA0 }
  - { offsetInCU: 0x28342, offset: 0x2391B7, size: 0x8, addend: 0x0, symName: '__ZN42_$LT$$RF$T$u20$as$u20$core..fmt..Debug$GT$3fmt17h204c81024ee5e89aE', symObjAddr: 0x530, symBinAddr: 0x100041E70, symSize: 0x60 }
  - { offsetInCU: 0x28372, offset: 0x2391E7, size: 0x8, addend: 0x0, symName: '__ZN42_$LT$$RF$T$u20$as$u20$core..fmt..Debug$GT$3fmt17h2a5fbfcbcacc3cd4E', symObjAddr: 0x5C0, symBinAddr: 0x100041ED0, symSize: 0x30 }
  - { offsetInCU: 0x283B7, offset: 0x23922C, size: 0x8, addend: 0x0, symName: '__ZN42_$LT$$RF$T$u20$as$u20$core..fmt..Debug$GT$3fmt17h313665a3a2873b42E', symObjAddr: 0x5F0, symBinAddr: 0x100041F00, symSize: 0x20 }
  - { offsetInCU: 0x283CB, offset: 0x239240, size: 0x8, addend: 0x0, symName: '__ZN42_$LT$$RF$T$u20$as$u20$core..fmt..Debug$GT$3fmt17h50916a993cd76693E', symObjAddr: 0x6B0, symBinAddr: 0x100041F20, symSize: 0x10 }
  - { offsetInCU: 0x283E6, offset: 0x23925B, size: 0x8, addend: 0x0, symName: '__ZN42_$LT$$RF$T$u20$as$u20$core..fmt..Debug$GT$3fmt17h524921de63bb9d47E', symObjAddr: 0x6C0, symBinAddr: 0x100041F30, symSize: 0x60 }
  - { offsetInCU: 0x28416, offset: 0x23928B, size: 0x8, addend: 0x0, symName: '__ZN42_$LT$$RF$T$u20$as$u20$core..fmt..Debug$GT$3fmt17h58218febdcd89e8fE', symObjAddr: 0x720, symBinAddr: 0x100041F90, symSize: 0x30 }
  - { offsetInCU: 0x28509, offset: 0x23937E, size: 0x8, addend: 0x0, symName: '__ZN42_$LT$$RF$T$u20$as$u20$core..fmt..Debug$GT$3fmt17h67769a3d3d96a922E', symObjAddr: 0x750, symBinAddr: 0x100041FC0, symSize: 0x60 }
  - { offsetInCU: 0x28539, offset: 0x2393AE, size: 0x8, addend: 0x0, symName: '__ZN42_$LT$$RF$T$u20$as$u20$core..fmt..Debug$GT$3fmt17h8357e08665e3252eE', symObjAddr: 0x7B0, symBinAddr: 0x100042020, symSize: 0x20 }
  - { offsetInCU: 0x28569, offset: 0x2393DE, size: 0x8, addend: 0x0, symName: '__ZN42_$LT$$RF$T$u20$as$u20$core..fmt..Debug$GT$3fmt17h8f2fa358bc7ded07E', symObjAddr: 0x7D0, symBinAddr: 0x100042040, symSize: 0x30 }
  - { offsetInCU: 0x285AE, offset: 0x239423, size: 0x8, addend: 0x0, symName: '__ZN42_$LT$$RF$T$u20$as$u20$core..fmt..Debug$GT$3fmt17ha41cce5cd0eb155fE', symObjAddr: 0x850, symBinAddr: 0x100042070, symSize: 0x80 }
  - { offsetInCU: 0x286A5, offset: 0x23951A, size: 0x8, addend: 0x0, symName: '__ZN42_$LT$$RF$T$u20$as$u20$core..fmt..Debug$GT$3fmt17hab2182042cc000bdE', symObjAddr: 0x8D0, symBinAddr: 0x1000420F0, symSize: 0x40 }
  - { offsetInCU: 0x286D5, offset: 0x23954A, size: 0x8, addend: 0x0, symName: '__ZN42_$LT$$RF$T$u20$as$u20$core..fmt..Debug$GT$3fmt17hb9d62067f147b04aE', symObjAddr: 0x910, symBinAddr: 0x100042130, symSize: 0x30 }
  - { offsetInCU: 0x2871A, offset: 0x23958F, size: 0x8, addend: 0x0, symName: '__ZN42_$LT$$RF$T$u20$as$u20$core..fmt..Debug$GT$3fmt17hb9f2c34fb48d45e8E', symObjAddr: 0x940, symBinAddr: 0x100042160, symSize: 0x80 }
  - { offsetInCU: 0x287DE, offset: 0x239653, size: 0x8, addend: 0x0, symName: '__ZN42_$LT$$RF$T$u20$as$u20$core..fmt..Debug$GT$3fmt17hff314e08602682f1E', symObjAddr: 0xC00, symBinAddr: 0x1000421E0, symSize: 0x80 }
  - { offsetInCU: 0x28933, offset: 0x2397A8, size: 0x8, addend: 0x0, symName: '__ZN4core3fmt3num50_$LT$impl$u20$core..fmt..Debug$u20$for$u20$i32$GT$3fmt17heb82f64e9c17302eE', symObjAddr: 0xD00, symBinAddr: 0x100042290, symSize: 0x30 }
  - { offsetInCU: 0x2896D, offset: 0x2397E2, size: 0x8, addend: 0x0, symName: '__ZN4core3fmt3num52_$LT$impl$u20$core..fmt..Debug$u20$for$u20$usize$GT$3fmt17h9e5c63f85393f427E', symObjAddr: 0xDC0, symBinAddr: 0x1000422C0, symSize: 0x30 }
  - { offsetInCU: 0x28A3C, offset: 0x2398B1, size: 0x8, addend: 0x0, symName: '__ZN44_$LT$$RF$T$u20$as$u20$core..fmt..Display$GT$3fmt17h2561f68ab83c0377E', symObjAddr: 0xC80, symBinAddr: 0x100042260, symSize: 0x20 }
  - { offsetInCU: 0x28A57, offset: 0x2398CC, size: 0x8, addend: 0x0, symName: '__ZN44_$LT$$RF$T$u20$as$u20$core..fmt..Display$GT$3fmt17ha96dd7b9b4ed7d15E', symObjAddr: 0xCA0, symBinAddr: 0x100042280, symSize: 0x10 }
  - { offsetInCU: 0x28A94, offset: 0x239909, size: 0x8, addend: 0x0, symName: __ZN4core3fmt5Write10write_char17h0e9f9482d9ccc128E, symObjAddr: 0xDF0, symBinAddr: 0x1000422F0, symSize: 0x110 }
  - { offsetInCU: 0x28B09, offset: 0x23997E, size: 0x8, addend: 0x0, symName: __ZN4core3fmt5Write10write_char17h14597a5308b119e7E, symObjAddr: 0xF00, symBinAddr: 0x100042400, symSize: 0x110 }
  - { offsetInCU: 0x28B7E, offset: 0x2399F3, size: 0x8, addend: 0x0, symName: __ZN4core3fmt5Write10write_char17hc62b739fc03a608eE, symObjAddr: 0x11A0, symBinAddr: 0x100042510, symSize: 0x190 }
  - { offsetInCU: 0x28D00, offset: 0x239B75, size: 0x8, addend: 0x0, symName: __ZN4core3fmt5Write10write_char17heee569dec9bacd55E, symObjAddr: 0x1330, symBinAddr: 0x1000426A0, symSize: 0x120 }
  - { offsetInCU: 0x28E72, offset: 0x239CE7, size: 0x8, addend: 0x0, symName: __ZN4core3fmt5Write9write_fmt17h2bea56f24fec7a4bE, symObjAddr: 0x1450, symBinAddr: 0x1000427C0, symSize: 0x20 }
  - { offsetInCU: 0x28EA0, offset: 0x239D15, size: 0x8, addend: 0x0, symName: __ZN4core3fmt5Write9write_fmt17h2f893eeae09b9852E, symObjAddr: 0x1470, symBinAddr: 0x1000427E0, symSize: 0x20 }
  - { offsetInCU: 0x28ECE, offset: 0x239D43, size: 0x8, addend: 0x0, symName: __ZN4core3fmt5Write9write_fmt17h9365712ad13af8e8E, symObjAddr: 0x1490, symBinAddr: 0x100042800, symSize: 0x20 }
  - { offsetInCU: 0x28EFC, offset: 0x239D71, size: 0x8, addend: 0x0, symName: __ZN4core3fmt5Write9write_fmt17h943e432088f4fc09E, symObjAddr: 0x14B0, symBinAddr: 0x100042820, symSize: 0x20 }
  - { offsetInCU: 0x28F2A, offset: 0x239D9F, size: 0x8, addend: 0x0, symName: __ZN4core3fmt5Write9write_fmt17hc3897efe53883b4fE, symObjAddr: 0x14F0, symBinAddr: 0x100042840, symSize: 0x20 }
  - { offsetInCU: 0x29352, offset: 0x23A1C7, size: 0x8, addend: 0x0, symName: '__ZN50_$LT$$BP$mut$u20$T$u20$as$u20$core..fmt..Debug$GT$3fmt17h5e955294fdbade78E', symObjAddr: 0xED00, symBinAddr: 0x10004F440, symSize: 0x10 }
  - { offsetInCU: 0x2939E, offset: 0x23A213, size: 0x8, addend: 0x0, symName: '__ZN52_$LT$$RF$mut$u20$T$u20$as$u20$core..fmt..Display$GT$3fmt17h247ac5682e66b671E', symObjAddr: 0xED80, symBinAddr: 0x10004F450, symSize: 0x20 }
  - { offsetInCU: 0x29414, offset: 0x23A289, size: 0x8, addend: 0x0, symName: '__ZN4core3str7pattern13simd_contains28_$u7b$$u7b$closure$u7d$$u7d$17h8c02b44b24d93ed4E', symObjAddr: 0x4460, symBinAddr: 0x100094700, symSize: 0x100 }
  - { offsetInCU: 0x2958D, offset: 0x23A402, size: 0x8, addend: 0x0, symName: '__ZN55_$LT$$RF$str$u20$as$u20$core..str..pattern..Pattern$GT$15is_contained_in17h3b44ad7441fe57baE', symObjAddr: 0xEDA0, symBinAddr: 0x10004F470, symSize: 0x8D0 }
  - { offsetInCU: 0x29E32, offset: 0x23ACA7, size: 0x8, addend: 0x0, symName: '__ZN4core5array69_$LT$impl$u20$core..fmt..Debug$u20$for$u20$$u5b$T$u3b$$u20$N$u5d$$GT$3fmt17h3f2c0345ca57a36bE', symObjAddr: 0x4720, symBinAddr: 0x100044FA0, symSize: 0xF0 }
  - { offsetInCU: 0x2AC03, offset: 0x23BA78, size: 0x8, addend: 0x0, symName: '__ZN70_$LT$core..num..error..TryFromIntError$u20$as$u20$core..fmt..Debug$GT$3fmt17h1128a7e265c9ce9aE', symObjAddr: 0x1F5E0, symBinAddr: 0x10005F6D0, symSize: 0x40 }
  - { offsetInCU: 0x2C447, offset: 0x23D2BC, size: 0x8, addend: 0x0, symName: '__ZN4core3ops8function6FnOnce40call_once$u7b$$u7b$vtable.shim$u7d$$u7d$17h0992b814c9d54e1bE', symObjAddr: 0x1530, symBinAddr: 0x100042860, symSize: 0x90 }
  - { offsetInCU: 0x2C553, offset: 0x23D3C8, size: 0x8, addend: 0x0, symName: '__ZN4core3ops8function6FnOnce40call_once$u7b$$u7b$vtable.shim$u7d$$u7d$17h15b016765ff1cfc5E', symObjAddr: 0x1660, symBinAddr: 0x1000428F0, symSize: 0x90 }
  - { offsetInCU: 0x2C680, offset: 0x23D4F5, size: 0x8, addend: 0x0, symName: '__ZN4core3ops8function6FnOnce40call_once$u7b$$u7b$vtable.shim$u7d$$u7d$17h447d49c1da186faeE', symObjAddr: 0x1700, symBinAddr: 0x100042980, symSize: 0x10 }
  - { offsetInCU: 0x2C6BA, offset: 0x23D52F, size: 0x8, addend: 0x0, symName: '__ZN4core3ops8function6FnOnce40call_once$u7b$$u7b$vtable.shim$u7d$$u7d$17h4ac0425e41115653E', symObjAddr: 0x1710, symBinAddr: 0x100042990, symSize: 0x10 }
  - { offsetInCU: 0x2C709, offset: 0x23D57E, size: 0x8, addend: 0x0, symName: '__ZN4core3ops8function6FnOnce40call_once$u7b$$u7b$vtable.shim$u7d$$u7d$17h4ae3820b72915fbeE', symObjAddr: 0x1720, symBinAddr: 0x1000429A0, symSize: 0x10 }
  - { offsetInCU: 0x2C758, offset: 0x23D5CD, size: 0x8, addend: 0x0, symName: '__ZN4core3ops8function6FnOnce40call_once$u7b$$u7b$vtable.shim$u7d$$u7d$17h99aa774ca126b930E', symObjAddr: 0x17F0, symBinAddr: 0x1000429B0, symSize: 0x20 }
  - { offsetInCU: 0x2C792, offset: 0x23D607, size: 0x8, addend: 0x0, symName: '__ZN4core3ops8function6FnOnce40call_once$u7b$$u7b$vtable.shim$u7d$$u7d$17hbe02a881ca7e7e6fE', symObjAddr: 0x1810, symBinAddr: 0x1000429D0, symSize: 0x90 }
  - { offsetInCU: 0x2C92A, offset: 0x23D79F, size: 0x8, addend: 0x0, symName: '__ZN4core3ops8function6FnOnce40call_once$u7b$$u7b$vtable.shim$u7d$$u7d$17hec53fca43a280050E', symObjAddr: 0x18C0, symBinAddr: 0x100042A60, symSize: 0x10 }
  - { offsetInCU: 0x2C958, offset: 0x23D7CD, size: 0x8, addend: 0x0, symName: __ZN4core3ops8function6FnOnce9call_once17h677fa02123b9a929E, symObjAddr: 0x18D0, symBinAddr: 0x100042A70, symSize: 0x10 }
  - { offsetInCU: 0x2F980, offset: 0x2407F5, size: 0x8, addend: 0x0, symName: '__ZN4core4cell4once17OnceCell$LT$T$GT$8try_init17h536a8ddd55b2cae3E', symObjAddr: 0x4560, symBinAddr: 0x100094800, symSize: 0xB0 }
  - { offsetInCU: 0x2FBCC, offset: 0x240A41, size: 0x8, addend: 0x0, symName: '__ZN4core4cell4once17OnceCell$LT$T$GT$8try_init17hb10021f4e62dce0fE', symObjAddr: 0x4610, symBinAddr: 0x1000948B0, symSize: 0x110 }
  - { offsetInCU: 0x30317, offset: 0x24118C, size: 0x8, addend: 0x0, symName: __ZN4core5panic12PanicPayload6as_str17hbfaccbb001700041E, symObjAddr: 0x4890, symBinAddr: 0x100045090, symSize: 0x10 }
  - { offsetInCU: 0x30398, offset: 0x24120D, size: 0x8, addend: 0x0, symName: __ZN4core9panicking13assert_failed17h7dbd494cd6164ed1E, symObjAddr: 0xEC40, symBinAddr: 0x1000949C0, symSize: 0x30 }
  - { offsetInCU: 0x303B3, offset: 0x241228, size: 0x8, addend: 0x0, symName: __ZN4core9panicking13assert_failed17h9a214487d1bb4058E, symObjAddr: 0xEC70, symBinAddr: 0x1000949F0, symSize: 0x50 }
  - { offsetInCU: 0x303CF, offset: 0x241244, size: 0x8, addend: 0x0, symName: __ZN4core9panicking13assert_failed17hdcf7e423a44907d6E, symObjAddr: 0xECC0, symBinAddr: 0x100094A40, symSize: 0x40 }
  - { offsetInCU: 0x30A11, offset: 0x241886, size: 0x8, addend: 0x0, symName: __ZN3std3sys6os_str5bytes3Buf10push_slice17h9df691bf1a62bbb6E, symObjAddr: 0x4E030, symBinAddr: 0x100078180, symSize: 0x60 }
  - { offsetInCU: 0x30B36, offset: 0x2419AB, size: 0x8, addend: 0x0, symName: __ZN3std3sys6os_str5bytes5Slice15to_string_lossy17h81796dc8662d423aE, symObjAddr: 0x4E1F0, symBinAddr: 0x1000781E0, symSize: 0x20 }
  - { offsetInCU: 0x30B4A, offset: 0x2419BF, size: 0x8, addend: 0x0, symName: __ZN3std3sys6os_str5bytes5Slice8to_owned17h31d89e871fc4b57eE, symObjAddr: 0x4E210, symBinAddr: 0x100078200, symSize: 0x90 }
  - { offsetInCU: 0x30C5A, offset: 0x241ACF, size: 0x8, addend: 0x0, symName: '__ZN69_$LT$std..sys..os_str..bytes..Slice$u20$as$u20$core..fmt..Display$GT$3fmt17h93400a492944888cE', symObjAddr: 0x4DEB0, symBinAddr: 0x1000780C0, symSize: 0xC0 }
  - { offsetInCU: 0x30CD7, offset: 0x241B4C, size: 0x8, addend: 0x0, symName: __ZN3std3sys3pal4unix7process14process_common7Command3new17hafe51dbbe121cc24E, symObjAddr: 0x49160, symBinAddr: 0x100073B40, symSize: 0x290 }
  - { offsetInCU: 0x310A9, offset: 0x241F1E, size: 0x8, addend: 0x0, symName: __ZN3std3sys3pal4unix7process14process_common7Command3arg17hc75195c756877dbfE, symObjAddr: 0x494B0, symBinAddr: 0x100073DD0, symSize: 0xE0 }
  - { offsetInCU: 0x311E7, offset: 0x24205C, size: 0x8, addend: 0x0, symName: __ZN3std3sys3pal4unix7process14process_common7Command6stdout17h7f5d4e498516cfcaE, symObjAddr: 0x496B0, symBinAddr: 0x100073EB0, symSize: 0x40 }
  - { offsetInCU: 0x31270, offset: 0x2420E5, size: 0x8, addend: 0x0, symName: __ZN3std3sys3pal4unix7process14process_common7Command6stderr17h884a71c75b2844b3E, symObjAddr: 0x496F0, symBinAddr: 0x100073EF0, symSize: 0x40 }
  - { offsetInCU: 0x312F9, offset: 0x24216E, size: 0x8, addend: 0x0, symName: __ZN3std3sys3pal4unix7process14process_common7Command11capture_env17h5ecc4926b0510b4cE, symObjAddr: 0x49730, symBinAddr: 0x100073F30, symSize: 0xFD0 }
  - { offsetInCU: 0x32CC6, offset: 0x243B3B, size: 0x8, addend: 0x0, symName: __ZN3std3sys3pal4unix7process14process_common7Command8setup_io17h46082d8c863d7f66E, symObjAddr: 0x4A700, symBinAddr: 0x100074F00, symSize: 0x2C0 }
  - { offsetInCU: 0x3315E, offset: 0x243FD3, size: 0x8, addend: 0x0, symName: '__ZN3std3sys3pal4unix7process13process_inner71_$LT$impl$u20$std..sys..pal..unix..process..process_common..Command$GT$5spawn17h3ab74ef46d73eef8E', symObjAddr: 0x4C4D0, symBinAddr: 0x100076830, symSize: 0xB70 }
  - { offsetInCU: 0x343D0, offset: 0x245245, size: 0x8, addend: 0x0, symName: '__ZN3std3sys3pal4unix7process13process_inner71_$LT$impl$u20$std..sys..pal..unix..process..process_common..Command$GT$7do_exec17hbe5657fb1b8f18f4E', symObjAddr: 0x4D040, symBinAddr: 0x1000773A0, symSize: 0x360 }
  - { offsetInCU: 0x34D9F, offset: 0x245C14, size: 0x8, addend: 0x0, symName: __ZN3std3sys3pal4unix7process14process_common4os2c17hfa6225a2c7c10c16E, symObjAddr: 0x4A9C0, symBinAddr: 0x1000751C0, symSize: 0x120 }
  - { offsetInCU: 0x34FC8, offset: 0x245E3D, size: 0x8, addend: 0x0, symName: __ZN3std3sys3pal4unix7process14process_common5Stdio14to_child_stdio17h24134a6a804af4d7E, symObjAddr: 0x4AAE0, symBinAddr: 0x1000752E0, symSize: 0x150 }
  - { offsetInCU: 0x3510D, offset: 0x245F82, size: 0x8, addend: 0x0, symName: '__ZN90_$LT$std..sys..pal..unix..process..process_common..Command$u20$as$u20$core..fmt..Debug$GT$3fmt17h79c33e37af686bfcE', symObjAddr: 0x4AC30, symBinAddr: 0x100075430, symSize: 0x8A0 }
  - { offsetInCU: 0x35788, offset: 0x2465FD, size: 0x8, addend: 0x0, symName: __ZN3std3sys3pal4unix7process13process_inner7Process4wait17h8e91288f36c7c4bbE, symObjAddr: 0x4D3E0, symBinAddr: 0x100077700, symSize: 0x90 }
  - { offsetInCU: 0x35994, offset: 0x246809, size: 0x8, addend: 0x0, symName: '__ZN94_$LT$std..sys..pal..unix..process..process_inner..ExitStatus$u20$as$u20$core..fmt..Display$GT$3fmt17h9e7154ec07c86474E', symObjAddr: 0x4D4C0, symBinAddr: 0x100077790, symSize: 0x200 }
  - { offsetInCU: 0x35B7B, offset: 0x2469F0, size: 0x8, addend: 0x0, symName: __ZN3std3sys3pal4unix2fd8FileDesc11read_to_end17h86e52ced6e1d320dE, symObjAddr: 0x44800, symBinAddr: 0x100072120, symSize: 0x270 }
  - { offsetInCU: 0x36088, offset: 0x246EFD, size: 0x8, addend: 0x0, symName: __ZN3std3sys3pal4unix2fs4File6open_c17h680a1c4b6c97ec3aE, symObjAddr: 0x45470, symBinAddr: 0x1000725C0, symSize: 0x140 }
  - { offsetInCU: 0x3619B, offset: 0x247010, size: 0x8, addend: 0x0, symName: __ZN3std3sys3pal4unix2fs4File4read17hc01cd4d0ce56fee4E, symObjAddr: 0x455B0, symBinAddr: 0x100072700, symSize: 0x0 }
  - { offsetInCU: 0x36390, offset: 0x247205, size: 0x8, addend: 0x0, symName: '__ZN3std3sys3pal4unix2fs10DirBuilder5mkdir28_$u7b$$u7b$closure$u7d$$u7d$17had6dac6c3e323d7eE', symObjAddr: 0x456A0, symBinAddr: 0x100072740, symSize: 0x30 }
  - { offsetInCU: 0x36440, offset: 0x2472B5, size: 0x8, addend: 0x0, symName: '__ZN3std3sys3pal4unix2fs4stat28_$u7b$$u7b$closure$u7d$$u7d$17h2be2f738b03deb4cE', symObjAddr: 0x46B20, symBinAddr: 0x100072D90, symSize: 0xA0 }
  - { offsetInCU: 0x36553, offset: 0x2473C8, size: 0x8, addend: 0x0, symName: '__ZN91_$LT$std..sys..pal..unix..fs..ReadDir$u20$as$u20$core..iter..traits..iterator..Iterator$GT$4next17h7ffa4b4a612b0f58E', symObjAddr: 0x44F60, symBinAddr: 0x100072390, symSize: 0x160 }
  - { offsetInCU: 0x36780, offset: 0x2475F5, size: 0x8, addend: 0x0, symName: '__ZN70_$LT$std..sys..pal..unix..fs..Dir$u20$as$u20$core..ops..drop..Drop$GT$4drop17h3aeec0393da0e077E', symObjAddr: 0x450C0, symBinAddr: 0x1000724F0, symSize: 0xD0 }
  - { offsetInCU: 0x368BE, offset: 0x247733, size: 0x8, addend: 0x0, symName: __ZN3std3sys3pal4unix2fs7readdir17h779363e783ca7cbfE, symObjAddr: 0x45CA0, symBinAddr: 0x100072770, symSize: 0x210 }
  - { offsetInCU: 0x36B65, offset: 0x2479DA, size: 0x8, addend: 0x0, symName: '__ZN3std3sys3pal4unix2fs6unlink28_$u7b$$u7b$closure$u7d$$u7d$17h9023e87c1046a774E', symObjAddr: 0x45F60, symBinAddr: 0x100072A30, symSize: 0x30 }
  - { offsetInCU: 0x36BF3, offset: 0x247A68, size: 0x8, addend: 0x0, symName: __ZN3std3sys3pal4unix2fs6unlink17hd634a90513d2bf7cE, symObjAddr: 0x45EB0, symBinAddr: 0x100072980, symSize: 0xB0 }
  - { offsetInCU: 0x36D31, offset: 0x247BA6, size: 0x8, addend: 0x0, symName: '__ZN3std3sys3pal4unix2fs4link28_$u7b$$u7b$closure$u7d$$u7d$28_$u7b$$u7b$closure$u7d$$u7d$17h13b73f9893ce2c58E', symObjAddr: 0x469E0, symBinAddr: 0x100072C50, symSize: 0x40 }
  - { offsetInCU: 0x36DC7, offset: 0x247C3C, size: 0x8, addend: 0x0, symName: '__ZN3std3sys3pal4unix2fs4link28_$u7b$$u7b$closure$u7d$$u7d$17hb2b602b1c2393ee0E', symObjAddr: 0x46920, symBinAddr: 0x100072B90, symSize: 0xC0 }
  - { offsetInCU: 0x36EF0, offset: 0x247D65, size: 0x8, addend: 0x0, symName: __ZN3std3sys3pal4unix2fs4link17h686019273d855760E, symObjAddr: 0x467F0, symBinAddr: 0x100072A60, symSize: 0x130 }
  - { offsetInCU: 0x3707B, offset: 0x247EF0, size: 0x8, addend: 0x0, symName: __ZN3std3sys3pal4unix2fs4stat17h6d97597a0421c831E, symObjAddr: 0x46A20, symBinAddr: 0x100072C90, symSize: 0x100 }
  - { offsetInCU: 0x37217, offset: 0x24808C, size: 0x8, addend: 0x0, symName: '__ZN3std3sys3pal4unix2fs4copy28_$u7b$$u7b$closure$u7d$$u7d$17h67bf9b59be030e9fE', symObjAddr: 0x472C0, symBinAddr: 0x100073230, symSize: 0x50 }
  - { offsetInCU: 0x37311, offset: 0x248186, size: 0x8, addend: 0x0, symName: __ZN3std3sys3pal4unix2fs4copy17h88b89568fdddb124E, symObjAddr: 0x46EB0, symBinAddr: 0x100072E30, symSize: 0x400 }
  - { offsetInCU: 0x37D2C, offset: 0x248BA1, size: 0x8, addend: 0x0, symName: __ZN3std3sys3pal4unix2os5errno17h95227fe38e3f6c9aE, symObjAddr: 0x48000, symBinAddr: 0x100073280, symSize: 0x10 }
  - { offsetInCU: 0x37D45, offset: 0x248BBA, size: 0x8, addend: 0x0, symName: __ZN3std3sys3pal4unix2os11split_paths13bytes_to_path17h6d023308454d02fcE, symObjAddr: 0x48110, symBinAddr: 0x100073290, symSize: 0x0 }
  - { offsetInCU: 0x37E83, offset: 0x248CF8, size: 0x8, addend: 0x0, symName: __ZN3std3sys3pal4unix2os13env_read_lock17h21742e63e7e1308cE, symObjAddr: 0x484B0, symBinAddr: 0x100073320, symSize: 0x300 }
  - { offsetInCU: 0x38560, offset: 0x2493D5, size: 0x8, addend: 0x0, symName: '__ZN3std3sys3pal4unix2os6getenv28_$u7b$$u7b$closure$u7d$$u7d$17hb68080675aebde0eE', symObjAddr: 0x487B0, symBinAddr: 0x100073620, symSize: 0x120 }
  - { offsetInCU: 0x3874C, offset: 0x2495C1, size: 0x8, addend: 0x0, symName: __ZN3std3sys3pal4unix2os4exit17h0c78215ece014d50E, symObjAddr: 0x48D60, symBinAddr: 0x100073740, symSize: 0x10 }
  - { offsetInCU: 0x387BA, offset: 0x24962F, size: 0x8, addend: 0x0, symName: '__ZN69_$LT$std..sys..pal..unix..stdio..Stderr$u20$as$u20$std..io..Write$GT$5write17hd79d0a718695b2fcE', symObjAddr: 0x4BC30, symBinAddr: 0x1000760D0, symSize: 0x50 }
  - { offsetInCU: 0x38895, offset: 0x24970A, size: 0x8, addend: 0x0, symName: '__ZN69_$LT$std..sys..pal..unix..stdio..Stderr$u20$as$u20$std..io..Write$GT$14write_vectored17h0e573d7857415587E', symObjAddr: 0x4BC80, symBinAddr: 0x100076120, symSize: 0x50 }
  - { offsetInCU: 0x38970, offset: 0x2497E5, size: 0x8, addend: 0x0, symName: '__ZN69_$LT$std..sys..pal..unix..stdio..Stderr$u20$as$u20$std..io..Write$GT$17is_write_vectored17h7ade31aa359392fdE', symObjAddr: 0x4BCD0, symBinAddr: 0x100076170, symSize: 0x10 }
  - { offsetInCU: 0x3898A, offset: 0x2497FF, size: 0x8, addend: 0x0, symName: '__ZN69_$LT$std..sys..pal..unix..stdio..Stderr$u20$as$u20$std..io..Write$GT$5flush17h4944c9debd66ac59E', symObjAddr: 0x4BCE0, symBinAddr: 0x100076180, symSize: 0x10 }
  - { offsetInCU: 0x38A56, offset: 0x2498CB, size: 0x8, addend: 0x0, symName: __ZN3std3sys3pal4unix14stack_overflow3imp14signal_handler17h63a20838b43a8d18E, symObjAddr: 0x4B730, symBinAddr: 0x100075D80, symSize: 0x160 }
  - { offsetInCU: 0x38CDD, offset: 0x249B52, size: 0x8, addend: 0x0, symName: __ZN3std3sys3pal4unix14stack_overflow3imp12make_handler17h23443197290aea5aE, symObjAddr: 0x4B890, symBinAddr: 0x100075EE0, symSize: 0x1F0 }
  - { offsetInCU: 0x3904F, offset: 0x249EC4, size: 0x8, addend: 0x0, symName: __ZN3std3sys3pal4unix6thread6Thread3new17h91101cd154fe0aa3E, symObjAddr: 0x4BCF0, symBinAddr: 0x100076190, symSize: 0x270 }
  - { offsetInCU: 0x3936A, offset: 0x24A1DF, size: 0x8, addend: 0x0, symName: __ZN3std3sys3pal4unix6thread6Thread8set_name17h4cf6be027ef426d4E, symObjAddr: 0x4C040, symBinAddr: 0x1000764E0, symSize: 0x80 }
  - { offsetInCU: 0x3946F, offset: 0x24A2E4, size: 0x8, addend: 0x0, symName: __ZN3std3sys3pal4unix6thread6Thread4join17h4fc6ffe1a14789f3E, symObjAddr: 0x4C0C0, symBinAddr: 0x100076560, symSize: 0x90 }
  - { offsetInCU: 0x394D5, offset: 0x24A34A, size: 0x8, addend: 0x0, symName: __ZN3std3sys3pal4unix6thread6Thread3new12thread_start17hcea1d4245650f9aaE, symObjAddr: 0x4BF60, symBinAddr: 0x100076400, symSize: 0xE0 }
  - { offsetInCU: 0x3970E, offset: 0x24A583, size: 0x8, addend: 0x0, symName: '__ZN77_$LT$std..sys..pal..unix..thread..Thread$u20$as$u20$core..ops..drop..Drop$GT$4drop17h3da402e08b65a3a3E', symObjAddr: 0x4C150, symBinAddr: 0x1000765F0, symSize: 0x10 }
  - { offsetInCU: 0x3976F, offset: 0x24A5E4, size: 0x8, addend: 0x0, symName: __ZN3std3sys3pal4unix4time8Timespec3now17h9f45a544838c5dd0E, symObjAddr: 0x4C1E0, symBinAddr: 0x100076600, symSize: 0x100 }
  - { offsetInCU: 0x39825, offset: 0x24A69A, size: 0x8, addend: 0x0, symName: __ZN3std3sys3pal4unix4time8Timespec12sub_timespec17h3f44d844faeb23e8E, symObjAddr: 0x4C2E0, symBinAddr: 0x100076700, symSize: 0x100 }
  - { offsetInCU: 0x39A00, offset: 0x24A875, size: 0x8, addend: 0x0, symName: '__ZN3std3sys3pal4unix4weak18DlsymWeak$LT$F$GT$10initialize17h6cb3b6b89cd14614E', symObjAddr: 0x44570, symBinAddr: 0x100095800, symSize: 0x50 }
  - { offsetInCU: 0x39A7D, offset: 0x24A8F2, size: 0x8, addend: 0x0, symName: __ZN3std3sys3pal4unix4pipe8AnonPipe5write17h3271846cab2ce8dbE, symObjAddr: 0x48EB0, symBinAddr: 0x100073890, symSize: 0x40 }
  - { offsetInCU: 0x39B5F, offset: 0x24A9D4, size: 0x8, addend: 0x0, symName: __ZN3std3sys3pal4unix4pipe9anon_pipe17head02bf6701a0417E, symObjAddr: 0x48D70, symBinAddr: 0x100073750, symSize: 0x140 }
  - { offsetInCU: 0x39E40, offset: 0x24ACB5, size: 0x8, addend: 0x0, symName: __ZN3std3sys3pal4unix4pipe5read217h82a0f751865b9855E, symObjAddr: 0x48EF0, symBinAddr: 0x1000738D0, symSize: 0x270 }
  - { offsetInCU: 0x3A525, offset: 0x24B39A, size: 0x8, addend: 0x0, symName: __ZN3std3sys3pal4unix4rand19hashmap_random_keys17h3c5998314b441896E, symObjAddr: 0x4B620, symBinAddr: 0x100075CD0, symSize: 0xB0 }
  - { offsetInCU: 0x3A6AF, offset: 0x24B524, size: 0x8, addend: 0x0, symName: __ZN3std3sys3pal4unix17decode_error_kind17hca6dfe301ffbd472E, symObjAddr: 0x4C460, symBinAddr: 0x100076800, symSize: 0x20 }
  - { offsetInCU: 0x3A6C9, offset: 0x24B53E, size: 0x8, addend: 0x0, symName: __ZN3std3sys3pal4unix14abort_internal17h9ba9b9d4ccbedc59E, symObjAddr: 0x4C480, symBinAddr: 0x100076820, symSize: 0x10 }
  - { offsetInCU: 0x3A7DB, offset: 0x24B650, size: 0x8, addend: 0x0, symName: __ZN3std3sys3pal6common14small_c_string24run_with_cstr_allocating17h7417d52c0a2156f4E, symObjAddr: 0x3F1F0, symBinAddr: 0x100095250, symSize: 0xC0 }
  - { offsetInCU: 0x3A9A5, offset: 0x24B81A, size: 0x8, addend: 0x0, symName: __ZN3std3sys3pal6common14small_c_string24run_with_cstr_allocating17ha6a88a73d3a351a6E, symObjAddr: 0x3F360, symBinAddr: 0x100095310, symSize: 0x90 }
  - { offsetInCU: 0x3AB03, offset: 0x24B978, size: 0x8, addend: 0x0, symName: __ZN3std3sys3pal6common14small_c_string24run_with_cstr_allocating17hb54c3f813841d045E, symObjAddr: 0x3F4B0, symBinAddr: 0x1000953A0, symSize: 0xC0 }
  - { offsetInCU: 0x3ACCD, offset: 0x24BB42, size: 0x8, addend: 0x0, symName: __ZN3std3sys3pal6common14small_c_string24run_with_cstr_allocating17hc35cbf531ea21c30E, symObjAddr: 0x3F610, symBinAddr: 0x100095460, symSize: 0xB0 }
  - { offsetInCU: 0x3AE97, offset: 0x24BD0C, size: 0x8, addend: 0x0, symName: __ZN3std3sys3pal6common14small_c_string24run_with_cstr_allocating17hd9c6d897b7a36494E, symObjAddr: 0x3F6C0, symBinAddr: 0x100095510, symSize: 0xC0 }
  - { offsetInCU: 0x3B061, offset: 0x24BED6, size: 0x8, addend: 0x0, symName: __ZN3std3sys3pal6common14small_c_string24run_with_cstr_allocating17hfa63a9da6940b7b3E, symObjAddr: 0x3F780, symBinAddr: 0x1000955D0, symSize: 0x90 }
  - { offsetInCU: 0x3B27B, offset: 0x24C0F0, size: 0x8, addend: 0x0, symName: '__ZN3std3sys9backtrace10_print_fmt28_$u7b$$u7b$closure$u7d$$u7d$17h5af150375511fa5eE', symObjAddr: 0x3FB20, symBinAddr: 0x10006EE40, symSize: 0x20 }
  - { offsetInCU: 0x3B2A3, offset: 0x24C118, size: 0x8, addend: 0x0, symName: '__ZN3std3sys9backtrace10_print_fmt28_$u7b$$u7b$closure$u7d$$u7d$17h7848036c8a3af0afE', symObjAddr: 0x3FB40, symBinAddr: 0x10006EE60, symSize: 0x140 }
  - { offsetInCU: 0x3B3A1, offset: 0x24C216, size: 0x8, addend: 0x0, symName: '__ZN3std3sys9backtrace10_print_fmt28_$u7b$$u7b$closure$u7d$$u7d$28_$u7b$$u7b$closure$u7d$$u7d$17h36c78f4df4cd5998E', symObjAddr: 0x3FC80, symBinAddr: 0x10006EFA0, symSize: 0x2A0 }
  - { offsetInCU: 0x3B5BC, offset: 0x24C431, size: 0x8, addend: 0x0, symName: '__ZN98_$LT$std..sys..backtrace..BacktraceLock..print..DisplayBacktrace$u20$as$u20$core..fmt..Display$GT$3fmt17hc3f376aae1e435b9E', symObjAddr: 0x3F890, symBinAddr: 0x10006EBB0, symSize: 0x290 }
  - { offsetInCU: 0x3BB3C, offset: 0x24C9B1, size: 0x8, addend: 0x0, symName: __ZN3std3sys9backtrace26__rust_end_short_backtrace17hc94f023d9f9c8404E, symObjAddr: 0x3FF20, symBinAddr: 0x10006F240, symSize: 0x10 }
  - { offsetInCU: 0x3BB56, offset: 0x24C9CB, size: 0x8, addend: 0x0, symName: __ZN3std3sys9backtrace15output_filename17hba316d0cc1ea74d3E, symObjAddr: 0x3FF30, symBinAddr: 0x10006F250, symSize: 0x110 }
  - { offsetInCU: 0x3BCEA, offset: 0x24CB5F, size: 0x8, addend: 0x0, symName: '__ZN3std3sys11personality3gcc14find_eh_action28_$u7b$$u7b$closure$u7d$$u7d$17hf8fd2767c69281caE', symObjAddr: 0x4D710, symBinAddr: 0x100077990, symSize: 0x10 }
  - { offsetInCU: 0x3BCFE, offset: 0x24CB73, size: 0x8, addend: 0x0, symName: '__ZN3std3sys11personality3gcc14find_eh_action28_$u7b$$u7b$closure$u7d$$u7d$17h0744ab787f9436b8E', symObjAddr: 0x4D720, symBinAddr: 0x1000779A0, symSize: 0x10 }
  - { offsetInCU: 0x3BD2D, offset: 0x24CBA2, size: 0x8, addend: 0x0, symName: _rust_eh_personality, symObjAddr: 0x4D730, symBinAddr: 0x1000779B0, symSize: 0x710 }
  - { offsetInCU: 0x3C9BC, offset: 0x24D831, size: 0x8, addend: 0x0, symName: '__ZN102_$LT$std..sys..sync..mutex..pthread..AllocatedMutex$u20$as$u20$std..sys_common..lazy_box..LazyInit$GT$4init17hfba07cb481996d20E', symObjAddr: 0x4E9A0, symBinAddr: 0x100078510, symSize: 0x210 }
  - { offsetInCU: 0x3CB0D, offset: 0x24D982, size: 0x8, addend: 0x0, symName: '__ZN102_$LT$std..sys..sync..mutex..pthread..AllocatedMutex$u20$as$u20$std..sys_common..lazy_box..LazyInit$GT$7destroy17h3a11275a1532e388E', symObjAddr: 0x4EBB0, symBinAddr: 0x100078720, symSize: 0x50 }
  - { offsetInCU: 0x3CBB7, offset: 0x24DA2C, size: 0x8, addend: 0x0, symName: '__ZN102_$LT$std..sys..sync..mutex..pthread..AllocatedMutex$u20$as$u20$std..sys_common..lazy_box..LazyInit$GT$11cancel_init17hca3c91e782148221E', symObjAddr: 0x4EC00, symBinAddr: 0x100078770, symSize: 0x30 }
  - { offsetInCU: 0x3CC69, offset: 0x24DADE, size: 0x8, addend: 0x0, symName: __ZN3std3sys4sync5mutex7pthread5Mutex4lock4fail17h7ac4622fd4e8cb04E, symObjAddr: 0x4EC30, symBinAddr: 0x100095850, symSize: 0x100 }
  - { offsetInCU: 0x3CF8A, offset: 0x24DDFF, size: 0x8, addend: 0x0, symName: __ZN3std3sys4sync6rwlock5queue6RwLock14lock_contended17h6e7e19501ff48332E, symObjAddr: 0x4F6A0, symBinAddr: 0x100095AC0, symSize: 0x260 }
  - { offsetInCU: 0x3D4C9, offset: 0x24E33E, size: 0x8, addend: 0x0, symName: __ZN3std3sys4sync6rwlock5queue6RwLock21read_unlock_contended17h59e53ad66695c6b5E, symObjAddr: 0x4F900, symBinAddr: 0x100095D20, symSize: 0x70 }
  - { offsetInCU: 0x3D6CE, offset: 0x24E543, size: 0x8, addend: 0x0, symName: __ZN3std3sys4sync6rwlock5queue6RwLock16unlock_contended17he0b0418f472783a8E, symObjAddr: 0x4F970, symBinAddr: 0x100095D90, symSize: 0x40 }
  - { offsetInCU: 0x3D762, offset: 0x24E5D7, size: 0x8, addend: 0x0, symName: __ZN3std3sys4sync6rwlock5queue6RwLock12unlock_queue17hedf3d29f10cd8d44E, symObjAddr: 0x4F9B0, symBinAddr: 0x100078A00, symSize: 0x160 }
  - { offsetInCU: 0x3DE84, offset: 0x24ECF9, size: 0x8, addend: 0x0, symName: __ZN3std3sys4sync6rwlock5queue10write_lock17h88cd5594a1c90a50E, symObjAddr: 0x4F610, symBinAddr: 0x1000789C0, symSize: 0x10 }
  - { offsetInCU: 0x3DED8, offset: 0x24ED4D, size: 0x8, addend: 0x0, symName: __ZN3std3sys4sync6rwlock5queue9read_lock17ha6c283674c0e3982E, symObjAddr: 0x4F620, symBinAddr: 0x1000789D0, symSize: 0x30 }
  - { offsetInCU: 0x3DF2E, offset: 0x24EDA3, size: 0x8, addend: 0x0, symName: '__ZN88_$LT$std..sys..sync..thread_parking..darwin..Parker$u20$as$u20$core..ops..drop..Drop$GT$4drop17h0df355d67529f928E', symObjAddr: 0x4FB30, symBinAddr: 0x100078B80, symSize: 0x10 }
  - { offsetInCU: 0x3DF79, offset: 0x24EDEE, size: 0x8, addend: 0x0, symName: __ZN3std3sys4sync14thread_parking6darwin6Parker6unpark17hf696b9ee054134c3E, symObjAddr: 0x4FB10, symBinAddr: 0x100078B60, symSize: 0x20 }
  - { offsetInCU: 0x3DFF9, offset: 0x24EE6E, size: 0x8, addend: 0x0, symName: __ZN3std3sys4sync4once5queue4Once4call17he538198c92e6ccb1E, symObjAddr: 0x4F280, symBinAddr: 0x100095950, symSize: 0x170 }
  - { offsetInCU: 0x3E11B, offset: 0x24EF90, size: 0x8, addend: 0x0, symName: __ZN3std3sys4sync4once5queue4wait17hbd39365221adcd4dE, symObjAddr: 0x4F3F0, symBinAddr: 0x1000787A0, symSize: 0x160 }
  - { offsetInCU: 0x3E612, offset: 0x24F487, size: 0x8, addend: 0x0, symName: '__ZN82_$LT$std..sys..sync..once..queue..WaiterQueue$u20$as$u20$core..ops..drop..Drop$GT$4drop17h478a37d085131f6bE', symObjAddr: 0x4F550, symBinAddr: 0x100078900, symSize: 0xC0 }
  - { offsetInCU: 0x3E7FF, offset: 0x24F674, size: 0x8, addend: 0x0, symName: __ZN3std3sys4sync7condvar7pthread7Condvar12wait_timeout17hc699287f6ac97acaE, symObjAddr: 0x4E7E0, symBinAddr: 0x100078350, symSize: 0x1C0 }
  - { offsetInCU: 0x3EBC6, offset: 0x24FA3B, size: 0x8, addend: 0x0, symName: '__ZN106_$LT$std..sys..sync..condvar..pthread..AllocatedCondvar$u20$as$u20$std..sys_common..lazy_box..LazyInit$GT$4init17hb26367c5b32fd51cE', symObjAddr: 0x4E720, symBinAddr: 0x100078290, symSize: 0xC0 }
  - { offsetInCU: 0x3ECE1, offset: 0x24FB56, size: 0x8, addend: 0x0, symName: __ZN3std3sys12thread_local6native5eager7destroy17h485d936b499b4e17E, symObjAddr: 0x4FB40, symBinAddr: 0x100078B90, symSize: 0x20 }
  - { offsetInCU: 0x3EE70, offset: 0x24FCE5, size: 0x8, addend: 0x0, symName: '__ZN3std3sys12thread_local6native4lazy20Storage$LT$T$C$D$GT$10initialize17h14698013dabe1c01E', symObjAddr: 0x4FB60, symBinAddr: 0x100095DD0, symSize: 0xB0 }
  - { offsetInCU: 0x3F050, offset: 0x24FEC5, size: 0x8, addend: 0x0, symName: __ZN3std3sys12thread_local6native4lazy7destroy17h6190230ba13c2901E, symObjAddr: 0x4FC10, symBinAddr: 0x100078BB0, symSize: 0x50 }
  - { offsetInCU: 0x3F1A7, offset: 0x25001C, size: 0x8, addend: 0x0, symName: __ZN3std3sys12thread_local11destructors4list8register17h63ec4e86be6715bfE, symObjAddr: 0x4FC60, symBinAddr: 0x100078C00, symSize: 0x110 }
  - { offsetInCU: 0x3F4A8, offset: 0x25031D, size: 0x8, addend: 0x0, symName: __ZN3std3sys12thread_local5guard5apple6enable9run_dtors17hd397a92a14fe0143E, symObjAddr: 0x4FD70, symBinAddr: 0x100078D10, symSize: 0xF0 }
  - { offsetInCU: 0x3FA83, offset: 0x2508F8, size: 0x8, addend: 0x0, symName: '__ZN3std3ffi6os_str95_$LT$impl$u20$core..convert..TryFrom$LT$$RF$std..ffi..os_str..OsStr$GT$$u20$for$u20$$RF$str$GT$8try_from17h6591310f80a69c39E', symObjAddr: 0x2AB90, symBinAddr: 0x100068070, symSize: 0x0 }
  - { offsetInCU: 0x3FABA, offset: 0x25092F, size: 0x8, addend: 0x0, symName: '__ZN62_$LT$std..ffi..os_str..Display$u20$as$u20$core..fmt..Debug$GT$3fmt17h19132e2367c8bb87E', symObjAddr: 0x2ABB0, symBinAddr: 0x100068090, symSize: 0x30 }
  - { offsetInCU: 0x3FCC0, offset: 0x250B35, size: 0x8, addend: 0x0, symName: __ZN3std2os2fd5owned10BorrowedFd18try_clone_to_owned17h9c397af87bcb0733E, symObjAddr: 0x38A70, symBinAddr: 0x10006B940, symSize: 0x50 }
  - { offsetInCU: 0x3FE20, offset: 0x250C95, size: 0x8, addend: 0x0, symName: '__ZN59_$LT$std..process..ChildStderr$u20$as$u20$std..io..Read$GT$4read17hab2d5621de4d5df6E', symObjAddr: 0x3C7E0, symBinAddr: 0x10006E030, symSize: 0x0 }
  - { offsetInCU: 0x3FF15, offset: 0x250D8A, size: 0x8, addend: 0x0, symName: __ZN3std7process7Command5spawn17hea5e726cb4120831E, symObjAddr: 0x3C910, symBinAddr: 0x10006E070, symSize: 0x60 }
  - { offsetInCU: 0x3FF46, offset: 0x250DBB, size: 0x8, addend: 0x0, symName: __ZN3std7process7Command6output17h58fa7d0108e36fa1E, symObjAddr: 0x3C970, symBinAddr: 0x10006E0D0, symSize: 0x360 }
  - { offsetInCU: 0x4051D, offset: 0x251392, size: 0x8, addend: 0x0, symName: __ZN3std7process7Command6status17he3e37781e5b954a8E, symObjAddr: 0x3CCD0, symBinAddr: 0x10006E430, symSize: 0x100 }
  - { offsetInCU: 0x40825, offset: 0x25169A, size: 0x8, addend: 0x0, symName: __ZN3std7process5Child4kill17h145e8580b2abbcffE, symObjAddr: 0x3D140, symBinAddr: 0x10006E550, symSize: 0x40 }
  - { offsetInCU: 0x40851, offset: 0x2516C6, size: 0x8, addend: 0x0, symName: __ZN3std7process5Child4kill17h145e8580b2abbcffE, symObjAddr: 0x3D140, symBinAddr: 0x10006E550, symSize: 0x40 }
  - { offsetInCU: 0x408DD, offset: 0x251752, size: 0x8, addend: 0x0, symName: __ZN3std7process5Child4wait17hd0f53661009b1d8eE, symObjAddr: 0x3D180, symBinAddr: 0x10006E590, symSize: 0xB0 }
  - { offsetInCU: 0x40AD3, offset: 0x251948, size: 0x8, addend: 0x0, symName: __ZN3std7process5Child8try_wait17h10f49fa9cd3641f5E, symObjAddr: 0x3D230, symBinAddr: 0x10006E640, symSize: 0xB0 }
  - { offsetInCU: 0x40BB3, offset: 0x251A28, size: 0x8, addend: 0x0, symName: '__ZN58_$LT$std..process..Command$u20$as$u20$core..fmt..Debug$GT$3fmt17h269bac7314b1a031E', symObjAddr: 0x3CE40, symBinAddr: 0x10006E530, symSize: 0x10 }
  - { offsetInCU: 0x40BD4, offset: 0x251A49, size: 0x8, addend: 0x0, symName: '__ZN63_$LT$std..process..ExitStatus$u20$as$u20$core..fmt..Display$GT$3fmt17h3eb0df8762e1beadE', symObjAddr: 0x3D010, symBinAddr: 0x10006E540, symSize: 0x10 }
  - { offsetInCU: 0x40BF0, offset: 0x251A65, size: 0x8, addend: 0x0, symName: __ZN3std7process4exit17h6adf8d78240aff9cE, symObjAddr: 0x3D620, symBinAddr: 0x10006E6F0, symSize: 0x20 }
  - { offsetInCU: 0x40C0B, offset: 0x251A80, size: 0x8, addend: 0x0, symName: __ZN3std7process5abort17hc2693c6b767a9c9dE, symObjAddr: 0x3D640, symBinAddr: 0x100095000, symSize: 0x10 }
  - { offsetInCU: 0x40D2B, offset: 0x251BA0, size: 0x8, addend: 0x0, symName: __ZN3std4path4Path11is_absolute17h8354098f6175f83bE, symObjAddr: 0x3ACA0, symBinAddr: 0x10006D0B0, symSize: 0x20 }
  - { offsetInCU: 0x40DAB, offset: 0x251C20, size: 0x8, addend: 0x0, symName: __ZN3std4path4Path6parent17ha6ff518183228e59E, symObjAddr: 0x3ACC0, symBinAddr: 0x10006D0D0, symSize: 0x80 }
  - { offsetInCU: 0x40DC2, offset: 0x251C37, size: 0x8, addend: 0x0, symName: __ZN3std4path4Path6parent17ha6ff518183228e59E, symObjAddr: 0x3ACC0, symBinAddr: 0x10006D0D0, symSize: 0x80 }
  - { offsetInCU: 0x40DD7, offset: 0x251C4C, size: 0x8, addend: 0x0, symName: __ZN3std4path4Path6parent17ha6ff518183228e59E, symObjAddr: 0x3ACC0, symBinAddr: 0x10006D0D0, symSize: 0x80 }
  - { offsetInCU: 0x40E2B, offset: 0x251CA0, size: 0x8, addend: 0x0, symName: __ZN3std4path4Path9file_name17hb6aae9dfa6f1150fE, symObjAddr: 0x3AD40, symBinAddr: 0x10006D150, symSize: 0x60 }
  - { offsetInCU: 0x40E42, offset: 0x251CB7, size: 0x8, addend: 0x0, symName: __ZN3std4path4Path9file_name17hb6aae9dfa6f1150fE, symObjAddr: 0x3AD40, symBinAddr: 0x10006D150, symSize: 0x60 }
  - { offsetInCU: 0x40E57, offset: 0x251CCC, size: 0x8, addend: 0x0, symName: __ZN3std4path4Path9file_name17hb6aae9dfa6f1150fE, symObjAddr: 0x3AD40, symBinAddr: 0x10006D150, symSize: 0x60 }
  - { offsetInCU: 0x40E95, offset: 0x251D0A, size: 0x8, addend: 0x0, symName: __ZN3std4path4Path13_strip_prefix17h2cdcd3c56da06425E, symObjAddr: 0x3ADA0, symBinAddr: 0x10006D1B0, symSize: 0x3A0 }
  - { offsetInCU: 0x40FC7, offset: 0x251E3C, size: 0x8, addend: 0x0, symName: __ZN3std4path4Path10_ends_with17h02e058572307efe6E, symObjAddr: 0x3B3B0, symBinAddr: 0x10006D550, symSize: 0x270 }
  - { offsetInCU: 0x41138, offset: 0x251FAD, size: 0x8, addend: 0x0, symName: __ZN3std4path4Path9file_stem17h3bb37c3af24e883fE, symObjAddr: 0x3B620, symBinAddr: 0x10006D7C0, symSize: 0xD0 }
  - { offsetInCU: 0x4114F, offset: 0x251FC4, size: 0x8, addend: 0x0, symName: __ZN3std4path4Path9file_stem17h3bb37c3af24e883fE, symObjAddr: 0x3B620, symBinAddr: 0x10006D7C0, symSize: 0xD0 }
  - { offsetInCU: 0x41164, offset: 0x251FD9, size: 0x8, addend: 0x0, symName: __ZN3std4path4Path9file_stem17h3bb37c3af24e883fE, symObjAddr: 0x3B620, symBinAddr: 0x10006D7C0, symSize: 0xD0 }
  - { offsetInCU: 0x41179, offset: 0x251FEE, size: 0x8, addend: 0x0, symName: __ZN3std4path4Path9file_stem17h3bb37c3af24e883fE, symObjAddr: 0x3B620, symBinAddr: 0x10006D7C0, symSize: 0xD0 }
  - { offsetInCU: 0x4137A, offset: 0x2521EF, size: 0x8, addend: 0x0, symName: __ZN3std4path4Path9extension17h9ae98e2f3dd988b9E, symObjAddr: 0x3B800, symBinAddr: 0x10006D890, symSize: 0xC0 }
  - { offsetInCU: 0x41391, offset: 0x252206, size: 0x8, addend: 0x0, symName: __ZN3std4path4Path9extension17h9ae98e2f3dd988b9E, symObjAddr: 0x3B800, symBinAddr: 0x10006D890, symSize: 0xC0 }
  - { offsetInCU: 0x413A6, offset: 0x25221B, size: 0x8, addend: 0x0, symName: __ZN3std4path4Path9extension17h9ae98e2f3dd988b9E, symObjAddr: 0x3B800, symBinAddr: 0x10006D890, symSize: 0xC0 }
  - { offsetInCU: 0x413BB, offset: 0x252230, size: 0x8, addend: 0x0, symName: __ZN3std4path4Path9extension17h9ae98e2f3dd988b9E, symObjAddr: 0x3B800, symBinAddr: 0x10006D890, symSize: 0xC0 }
  - { offsetInCU: 0x41635, offset: 0x2524AA, size: 0x8, addend: 0x0, symName: __ZN3std4path4Path5_join17h637193701031f95bE, symObjAddr: 0x3B8C0, symBinAddr: 0x10006D950, symSize: 0x190 }
  - { offsetInCU: 0x41AB6, offset: 0x25292B, size: 0x8, addend: 0x0, symName: __ZN3std4path4Path15_with_file_name17h1aeb5c64dba9dd32E, symObjAddr: 0x3BA50, symBinAddr: 0x10006DAE0, symSize: 0xF0 }
  - { offsetInCU: 0x41CBB, offset: 0x252B30, size: 0x8, addend: 0x0, symName: __ZN3std4path4Path15_with_extension17h5f79de904aa2347bE, symObjAddr: 0x3BB40, symBinAddr: 0x10006DBD0, symSize: 0x1F0 }
  - { offsetInCU: 0x421D5, offset: 0x25304A, size: 0x8, addend: 0x0, symName: __ZN3std4path4Path10components17h8ba6771e20bebb3dE, symObjAddr: 0x3BD30, symBinAddr: 0x10006DDC0, symSize: 0x30 }
  - { offsetInCU: 0x42214, offset: 0x253089, size: 0x8, addend: 0x0, symName: __ZN3std4path4Path6is_dir17hc0791053606b488fE, symObjAddr: 0x3BF40, symBinAddr: 0x10006DDF0, symSize: 0x1E0 }
  - { offsetInCU: 0x4280B, offset: 0x253680, size: 0x8, addend: 0x0, symName: __ZN3std4path10Components15len_before_body17h7a6b4ae86b058316E, symObjAddr: 0x38F30, symBinAddr: 0x10006BA80, symSize: 0x170 }
  - { offsetInCU: 0x42A4B, offset: 0x2538C0, size: 0x8, addend: 0x0, symName: __ZN3std4path10Components7as_path17h9e4b2fea02661f8aE, symObjAddr: 0x390A0, symBinAddr: 0x10006BBF0, symSize: 0x5C0 }
  - { offsetInCU: 0x42FDE, offset: 0x253E53, size: 0x8, addend: 0x0, symName: __ZN3std4path10Components25parse_next_component_back17h34a9ec6b1e426824E, symObjAddr: 0x39660, symBinAddr: 0x10006C1B0, symSize: 0xE0 }
  - { offsetInCU: 0x43210, offset: 0x254085, size: 0x8, addend: 0x0, symName: '__ZN80_$LT$std..path..Components$u20$as$u20$core..iter..traits..iterator..Iterator$GT$4next17h1a34bd8be3084bcbE', symObjAddr: 0x398F0, symBinAddr: 0x10006C290, symSize: 0x3D0 }
  - { offsetInCU: 0x43625, offset: 0x25449A, size: 0x8, addend: 0x0, symName: '__ZN95_$LT$std..path..Components$u20$as$u20$core..iter..traits..double_ended..DoubleEndedIterator$GT$9next_back17hd191a237154dece0E', symObjAddr: 0x39CC0, symBinAddr: 0x10006C660, symSize: 0x400 }
  - { offsetInCU: 0x437E8, offset: 0x25465D, size: 0x8, addend: 0x0, symName: __ZN3std4path7PathBuf5_push17hc13d7e70ead80d37E, symObjAddr: 0x3A490, symBinAddr: 0x10006CA60, symSize: 0xC0 }
  - { offsetInCU: 0x43AC4, offset: 0x254939, size: 0x8, addend: 0x0, symName: __ZN3std4path7PathBuf3pop17hfac3ab31c7b3fd76E, symObjAddr: 0x3A550, symBinAddr: 0x10006CB20, symSize: 0xA0 }
  - { offsetInCU: 0x43C9D, offset: 0x254B12, size: 0x8, addend: 0x0, symName: __ZN3std4path7PathBuf14_set_file_name17h730195a941ffc401E, symObjAddr: 0x3A5F0, symBinAddr: 0x10006CBC0, symSize: 0x180 }
  - { offsetInCU: 0x4418C, offset: 0x255001, size: 0x8, addend: 0x0, symName: __ZN3std4path7PathBuf14_set_extension17h6ccb86695e60fed7E, symObjAddr: 0x3A770, symBinAddr: 0x10006CD40, symSize: 0x2D0 }
  - { offsetInCU: 0x448D2, offset: 0x255747, size: 0x8, addend: 0x0, symName: '__ZN3std4path117_$LT$impl$u20$core..convert..From$LT$$RF$std..path..Path$GT$$u20$for$u20$alloc..boxed..Box$LT$std..path..Path$GT$$GT$4from17h9addc295e3d395a0E', symObjAddr: 0x3AC00, symBinAddr: 0x10006D010, symSize: 0x70 }
  - { offsetInCU: 0x449E1, offset: 0x255856, size: 0x8, addend: 0x0, symName: '__ZN52_$LT$std..path..Path$u20$as$u20$core..fmt..Debug$GT$3fmt17hb0c97be6fa8c37b0E', symObjAddr: 0x3C300, symBinAddr: 0x10006DFD0, symSize: 0x0 }
  - { offsetInCU: 0x44A3B, offset: 0x2558B0, size: 0x8, addend: 0x0, symName: '__ZN55_$LT$std..path..PathBuf$u20$as$u20$core..fmt..Debug$GT$3fmt17h359d8330daf61ccbE', symObjAddr: 0x3AC70, symBinAddr: 0x10006D080, symSize: 0x0 }
  - { offsetInCU: 0x44B93, offset: 0x255A08, size: 0x8, addend: 0x0, symName: '__ZN57_$LT$std..path..Display$u20$as$u20$core..fmt..Display$GT$3fmt17hfc72c1151254d10dE', symObjAddr: 0x3C360, symBinAddr: 0x10006E000, symSize: 0x20 }
  - { offsetInCU: 0x44BF6, offset: 0x255A6B, size: 0x8, addend: 0x0, symName: '__ZN61_$LT$std..path..Component$u20$as$u20$core..cmp..PartialEq$GT$2eq17h27e8d4086dd3d1bcE', symObjAddr: 0x44380, symBinAddr: 0x100072040, symSize: 0xE0 }
  - { offsetInCU: 0x44CF5, offset: 0x255B6A, size: 0x8, addend: 0x0, symName: '__ZN80_$LT$std..io..Write..write_fmt..Adapter$LT$T$GT$$u20$as$u20$core..fmt..Write$GT$9write_str17h2edc6ecfbde6812eE', symObjAddr: 0x344C0, symBinAddr: 0x10006B770, symSize: 0xD0 }
  - { offsetInCU: 0x44E2B, offset: 0x255CA0, size: 0x8, addend: 0x0, symName: '__ZN80_$LT$std..io..Write..write_fmt..Adapter$LT$T$GT$$u20$as$u20$core..fmt..Write$GT$9write_str17h32443bac29e76a69E', symObjAddr: 0x34590, symBinAddr: 0x10006B840, symSize: 0x50 }
  - { offsetInCU: 0x44E54, offset: 0x255CC9, size: 0x8, addend: 0x0, symName: '__ZN80_$LT$std..io..Write..write_fmt..Adapter$LT$T$GT$$u20$as$u20$core..fmt..Write$GT$9write_str17h58072d2916356e77E', symObjAddr: 0x345E0, symBinAddr: 0x10006B890, symSize: 0x60 }
  - { offsetInCU: 0x44F32, offset: 0x255DA7, size: 0x8, addend: 0x0, symName: '__ZN80_$LT$std..io..Write..write_fmt..Adapter$LT$T$GT$$u20$as$u20$core..fmt..Write$GT$9write_str17h9e24940c188270c0E', symObjAddr: 0x34710, symBinAddr: 0x10006B8F0, symSize: 0x50 }
  - { offsetInCU: 0x44F95, offset: 0x255E0A, size: 0x8, addend: 0x0, symName: __ZN3std2io5Write9write_all17h99e16d9455f1e85aE, symObjAddr: 0x33CD0, symBinAddr: 0x10006AF80, symSize: 0xA0 }
  - { offsetInCU: 0x450AF, offset: 0x255F24, size: 0x8, addend: 0x0, symName: __ZN3std2io5Write18write_all_vectored17h2e073031db3e7590E, symObjAddr: 0x33D70, symBinAddr: 0x10006B020, symSize: 0x2F0 }
  - { offsetInCU: 0x454CA, offset: 0x25633F, size: 0x8, addend: 0x0, symName: __ZN3std2io5Write18write_all_vectored17h4e8162142fc9794dE, symObjAddr: 0x34060, symBinAddr: 0x10006B310, symSize: 0x1E0 }
  - { offsetInCU: 0x45793, offset: 0x256608, size: 0x8, addend: 0x0, symName: __ZN3std2io5Write9write_fmt17h8b96bffba1d3be2fE, symObjAddr: 0x34240, symBinAddr: 0x10006B4F0, symSize: 0x140 }
  - { offsetInCU: 0x45A31, offset: 0x2568A6, size: 0x8, addend: 0x0, symName: __ZN3std2io5Write9write_fmt17hd7eb5710a004e76bE, symObjAddr: 0x34380, symBinAddr: 0x10006B630, symSize: 0x140 }
  - { offsetInCU: 0x45D9E, offset: 0x256C13, size: 0x8, addend: 0x0, symName: __ZN3std2io5error5Error4_new17h823e16b7f5d8ec9eE, symObjAddr: 0x2DE90, symBinAddr: 0x1000692F0, symSize: 0x80 }
  - { offsetInCU: 0x46122, offset: 0x256F97, size: 0x8, addend: 0x0, symName: __ZN3std2io5error14repr_bitpacked11decode_repr17had2e5b6e0d8991fcE, symObjAddr: 0x2DC00, symBinAddr: 0x100069280, symSize: 0x60 }
  - { offsetInCU: 0x4618F, offset: 0x257004, size: 0x8, addend: 0x0, symName: '__ZN58_$LT$std..io..error..Error$u20$as$u20$core..fmt..Debug$GT$3fmt17he1d6dfe91335ec19E', symObjAddr: 0x2DC60, symBinAddr: 0x1000692E0, symSize: 0x10 }
  - { offsetInCU: 0x461D5, offset: 0x25704A, size: 0x8, addend: 0x0, symName: '__ZN3std2io5error83_$LT$impl$u20$core..fmt..Debug$u20$for$u20$std..io..error..repr_bitpacked..Repr$GT$3fmt17h4788b333410ed3b2E', symObjAddr: 0x2DF10, symBinAddr: 0x100069370, symSize: 0x300 }
  - { offsetInCU: 0x46402, offset: 0x257277, size: 0x8, addend: 0x0, symName: '__ZN60_$LT$std..io..error..Error$u20$as$u20$core..fmt..Display$GT$3fmt17h4ac84df70a7b82f8E', symObjAddr: 0x2E210, symBinAddr: 0x100069670, symSize: 0x290 }
  - { offsetInCU: 0x46641, offset: 0x2574B6, size: 0x8, addend: 0x0, symName: '__ZN60_$LT$std..io..error..Error$u20$as$u20$core..error..Error$GT$11description17h536873bc094e848aE', symObjAddr: 0x2E4A0, symBinAddr: 0x100069900, symSize: 0x90 }
  - { offsetInCU: 0x466DA, offset: 0x25754F, size: 0x8, addend: 0x0, symName: '__ZN60_$LT$std..io..error..Error$u20$as$u20$core..error..Error$GT$5cause17h4d91e50b4cf56f81E', symObjAddr: 0x2E530, symBinAddr: 0x100069990, symSize: 0x30 }
  - { offsetInCU: 0x466F9, offset: 0x25756E, size: 0x8, addend: 0x0, symName: '__ZN60_$LT$std..io..error..Error$u20$as$u20$core..error..Error$GT$5cause17h4d91e50b4cf56f81E', symObjAddr: 0x2E530, symBinAddr: 0x100069990, symSize: 0x30 }
  - { offsetInCU: 0x46720, offset: 0x257595, size: 0x8, addend: 0x0, symName: '__ZN60_$LT$std..io..error..Error$u20$as$u20$core..error..Error$GT$6source17hde66639dcd84d7f2E', symObjAddr: 0x2E560, symBinAddr: 0x1000699C0, symSize: 0x30 }
  - { offsetInCU: 0x4673F, offset: 0x2575B4, size: 0x8, addend: 0x0, symName: '__ZN60_$LT$std..io..error..Error$u20$as$u20$core..error..Error$GT$6source17hde66639dcd84d7f2E', symObjAddr: 0x2E560, symBinAddr: 0x1000699C0, symSize: 0x30 }
  - { offsetInCU: 0x4676C, offset: 0x2575E1, size: 0x8, addend: 0x0, symName: '__ZN62_$LT$std..io..error..ErrorKind$u20$as$u20$core..fmt..Debug$GT$3fmt17hc67082adc7abff3dE', symObjAddr: 0x44350, symBinAddr: 0x100072010, symSize: 0x30 }
  - { offsetInCU: 0x467A0, offset: 0x257615, size: 0x8, addend: 0x0, symName: '__ZN3std2io5impls74_$LT$impl$u20$std..io..Write$u20$for$u20$alloc..vec..Vec$LT$u8$C$A$GT$$GT$5write17h94a30090f7919c02E', symObjAddr: 0x2E590, symBinAddr: 0x1000699F0, symSize: 0x60 }
  - { offsetInCU: 0x46877, offset: 0x2576EC, size: 0x8, addend: 0x0, symName: '__ZN3std2io5impls74_$LT$impl$u20$std..io..Write$u20$for$u20$alloc..vec..Vec$LT$u8$C$A$GT$$GT$14write_vectored17h38b57fd2e05e304aE', symObjAddr: 0x2E5F0, symBinAddr: 0x100069A50, symSize: 0x160 }
  - { offsetInCU: 0x468C0, offset: 0x257735, size: 0x8, addend: 0x0, symName: '__ZN3std2io5impls74_$LT$impl$u20$std..io..Write$u20$for$u20$alloc..vec..Vec$LT$u8$C$A$GT$$GT$14write_vectored17h38b57fd2e05e304aE', symObjAddr: 0x2E5F0, symBinAddr: 0x100069A50, symSize: 0x160 }
  - { offsetInCU: 0x46A73, offset: 0x2578E8, size: 0x8, addend: 0x0, symName: '__ZN3std2io5impls74_$LT$impl$u20$std..io..Write$u20$for$u20$alloc..vec..Vec$LT$u8$C$A$GT$$GT$17is_write_vectored17hbe3a42e190f0f94dE', symObjAddr: 0x2E750, symBinAddr: 0x100069BB0, symSize: 0x10 }
  - { offsetInCU: 0x46A8E, offset: 0x257903, size: 0x8, addend: 0x0, symName: '__ZN3std2io5impls74_$LT$impl$u20$std..io..Write$u20$for$u20$alloc..vec..Vec$LT$u8$C$A$GT$$GT$9write_all17hbabe835b5d4809f7E', symObjAddr: 0x2E760, symBinAddr: 0x100069BC0, symSize: 0x60 }
  - { offsetInCU: 0x46B5E, offset: 0x2579D3, size: 0x8, addend: 0x0, symName: '__ZN3std2io5impls74_$LT$impl$u20$std..io..Write$u20$for$u20$alloc..vec..Vec$LT$u8$C$A$GT$$GT$5flush17h17fee1c2e23db30aE', symObjAddr: 0x2E7C0, symBinAddr: 0x100069C20, symSize: 0x10 }
  - { offsetInCU: 0x46C2C, offset: 0x257AA1, size: 0x8, addend: 0x0, symName: __ZN3std2io5stdio6stdout17he0f2e32aeaa04b3bE, symObjAddr: 0x30DD0, symBinAddr: 0x100069C30, symSize: 0x30 }
  - { offsetInCU: 0x46C5D, offset: 0x257AD2, size: 0x8, addend: 0x0, symName: __ZN3std2io5stdio6stdout17he0f2e32aeaa04b3bE, symObjAddr: 0x30DD0, symBinAddr: 0x100069C30, symSize: 0x30 }
  - { offsetInCU: 0x46C72, offset: 0x257AE7, size: 0x8, addend: 0x0, symName: __ZN3std2io5stdio6stdout17he0f2e32aeaa04b3bE, symObjAddr: 0x30DD0, symBinAddr: 0x100069C30, symSize: 0x30 }
  - { offsetInCU: 0x46C86, offset: 0x257AFB, size: 0x8, addend: 0x0, symName: __ZN3std2io5stdio6stdout17he0f2e32aeaa04b3bE, symObjAddr: 0x30DD0, symBinAddr: 0x100069C30, symSize: 0x30 }
  - { offsetInCU: 0x46C9B, offset: 0x257B10, size: 0x8, addend: 0x0, symName: __ZN3std2io5stdio6stdout17he0f2e32aeaa04b3bE, symObjAddr: 0x30DD0, symBinAddr: 0x100069C30, symSize: 0x30 }
  - { offsetInCU: 0x46CB0, offset: 0x257B25, size: 0x8, addend: 0x0, symName: __ZN3std2io5stdio6stdout17he0f2e32aeaa04b3bE, symObjAddr: 0x30DD0, symBinAddr: 0x100069C30, symSize: 0x30 }
  - { offsetInCU: 0x46CC4, offset: 0x257B39, size: 0x8, addend: 0x0, symName: __ZN3std2io5stdio6stdout17he0f2e32aeaa04b3bE, symObjAddr: 0x30DD0, symBinAddr: 0x100069C30, symSize: 0x30 }
  - { offsetInCU: 0x46CFE, offset: 0x257B73, size: 0x8, addend: 0x0, symName: '__ZN61_$LT$$RF$std..io..stdio..Stdout$u20$as$u20$std..io..Write$GT$14write_vectored17hafa0eb949102ce03E', symObjAddr: 0x310B0, symBinAddr: 0x100069DB0, symSize: 0xB0 }
  - { offsetInCU: 0x46FDE, offset: 0x257E53, size: 0x8, addend: 0x0, symName: '__ZN61_$LT$$RF$std..io..stdio..Stdout$u20$as$u20$std..io..Write$GT$5flush17h44ad967c13ad19fbE', symObjAddr: 0x31160, symBinAddr: 0x100069E60, symSize: 0xA0 }
  - { offsetInCU: 0x472D3, offset: 0x258148, size: 0x8, addend: 0x0, symName: '__ZN61_$LT$$RF$std..io..stdio..Stdout$u20$as$u20$std..io..Write$GT$9write_fmt17h7ec60dfe0ea46b1fE', symObjAddr: 0x31300, symBinAddr: 0x100069F00, symSize: 0x190 }
  - { offsetInCU: 0x4764F, offset: 0x2584C4, size: 0x8, addend: 0x0, symName: '__ZN57_$LT$std..io..stdio..Stdout$u20$as$u20$std..io..Write$GT$5write17h7437a6552b81e082E', symObjAddr: 0x30E30, symBinAddr: 0x100069C60, symSize: 0x90 }
  - { offsetInCU: 0x47742, offset: 0x2585B7, size: 0x8, addend: 0x0, symName: '__ZN57_$LT$std..io..stdio..Stdout$u20$as$u20$std..io..Write$GT$14write_vectored17h1e446458381839a3E', symObjAddr: 0x30EC0, symBinAddr: 0x100069CF0, symSize: 0x20 }
  - { offsetInCU: 0x4775D, offset: 0x2585D2, size: 0x8, addend: 0x0, symName: '__ZN57_$LT$std..io..stdio..Stdout$u20$as$u20$std..io..Write$GT$5flush17h589c0c9e98ecc91bE', symObjAddr: 0x30EE0, symBinAddr: 0x100069D10, symSize: 0x20 }
  - { offsetInCU: 0x47778, offset: 0x2585ED, size: 0x8, addend: 0x0, symName: '__ZN57_$LT$std..io..stdio..Stdout$u20$as$u20$std..io..Write$GT$9write_all17hf6a99c7b25f8e07eE', symObjAddr: 0x30F00, symBinAddr: 0x100069D30, symSize: 0x80 }
  - { offsetInCU: 0x4789B, offset: 0x258710, size: 0x8, addend: 0x0, symName: '__ZN61_$LT$std..io..stdio..StdoutLock$u20$as$u20$std..io..Write$GT$5write17hfa0f58d12a565386E', symObjAddr: 0x31490, symBinAddr: 0x10006A090, symSize: 0x230 }
  - { offsetInCU: 0x47F92, offset: 0x258E07, size: 0x8, addend: 0x0, symName: '__ZN61_$LT$std..io..stdio..StdoutLock$u20$as$u20$std..io..Write$GT$9write_all17h859708ba98f86e1fE', symObjAddr: 0x31760, symBinAddr: 0x10006A2C0, symSize: 0x280 }
  - { offsetInCU: 0x485EA, offset: 0x25945F, size: 0x8, addend: 0x0, symName: __ZN3std2io5stdio6Stderr4lock17h1c509cc3aff5b30fE, symObjAddr: 0x31D10, symBinAddr: 0x10006A540, symSize: 0x0 }
  - { offsetInCU: 0x48A1F, offset: 0x259894, size: 0x8, addend: 0x0, symName: '__ZN61_$LT$$RF$std..io..stdio..Stderr$u20$as$u20$std..io..Write$GT$9write_fmt17h6f302edd5e67dbd5E', symObjAddr: 0x32470, symBinAddr: 0x10006A690, symSize: 0x190 }
  - { offsetInCU: 0x48D9B, offset: 0x259C10, size: 0x8, addend: 0x0, symName: '__ZN61_$LT$std..io..stdio..StderrLock$u20$as$u20$std..io..Write$GT$9write_all17h317491cf23ac35ceE', symObjAddr: 0x327F0, symBinAddr: 0x10006A820, symSize: 0x100 }
  - { offsetInCU: 0x490FF, offset: 0x259F74, size: 0x8, addend: 0x0, symName: __ZN3std2io5stdio18set_output_capture17hf90c144f1205c85cE, symObjAddr: 0x32990, symBinAddr: 0x10006A920, symSize: 0xC0 }
  - { offsetInCU: 0x49378, offset: 0x25A1ED, size: 0x8, addend: 0x0, symName: __ZN3std2io5stdio31print_to_buffer_if_capture_used17ha63af7ba63fd2069E, symObjAddr: 0x32B00, symBinAddr: 0x10006A9E0, symSize: 0x210 }
  - { offsetInCU: 0x49ABE, offset: 0x25A933, size: 0x8, addend: 0x0, symName: __ZN3std2io5stdio23attempt_print_to_stderr17h133163019d87f073E, symObjAddr: 0x32D10, symBinAddr: 0x10006ABF0, symSize: 0xD0 }
  - { offsetInCU: 0x49D39, offset: 0x25ABAE, size: 0x8, addend: 0x0, symName: __ZN3std2io5stdio6_print17h72b43a6446f0d302E, symObjAddr: 0x32DE0, symBinAddr: 0x10006ACC0, symSize: 0xF0 }
  - { offsetInCU: 0x49E45, offset: 0x25ACBA, size: 0x8, addend: 0x0, symName: __ZN3std2io5stdio7_eprint17ha5d8104c0c196f35E, symObjAddr: 0x32ED0, symBinAddr: 0x10006ADB0, symSize: 0xE0 }
  - { offsetInCU: 0x49EC2, offset: 0x25AD37, size: 0x8, addend: 0x0, symName: '__ZN3std2io8buffered9bufwriter18BufWriter$LT$W$GT$9flush_buf17h0bb639a092aebc64E', symObjAddr: 0x2D090, symBinAddr: 0x100068AB0, symSize: 0x270 }
  - { offsetInCU: 0x4A535, offset: 0x25B3AA, size: 0x8, addend: 0x0, symName: '__ZN3std2io8buffered9bufwriter18BufWriter$LT$W$GT$10write_cold17h1e3c95687d68515fE', symObjAddr: 0x2D390, symBinAddr: 0x100094DF0, symSize: 0xF0 }
  - { offsetInCU: 0x4A738, offset: 0x25B5AD, size: 0x8, addend: 0x0, symName: '__ZN3std2io8buffered9bufwriter18BufWriter$LT$W$GT$14write_all_cold17h6fbe0dca3bc9c1fbE', symObjAddr: 0x2D480, symBinAddr: 0x100094EE0, symSize: 0x120 }
  - { offsetInCU: 0x4A9FE, offset: 0x25B873, size: 0x8, addend: 0x0, symName: '__ZN111_$LT$std..io..buffered..bufwriter..BufWriter$LT$W$GT$..flush_buf..BufGuard$u20$as$u20$core..ops..drop..Drop$GT$4drop17h325be6da9e0ed582E', symObjAddr: 0x2D330, symBinAddr: 0x100068D50, symSize: 0x60 }
  - { offsetInCU: 0x4AB85, offset: 0x25B9FA, size: 0x8, addend: 0x0, symName: '__ZN3std2io8buffered9bufwriter18BufWriter$LT$W$GT$9flush_buf8BufGuard9remaining17h7666fe67d84c44d0E', symObjAddr: 0x2D300, symBinAddr: 0x100068D20, symSize: 0x30 }
  - { offsetInCU: 0x4AD3C, offset: 0x25BBB1, size: 0x8, addend: 0x0, symName: '__ZN93_$LT$std..io..buffered..linewritershim..LineWriterShim$LT$W$GT$$u20$as$u20$std..io..Write$GT$14write_vectored17h33e1941b28ea2bfdE', symObjAddr: 0x2D6B0, symBinAddr: 0x100068DB0, symSize: 0x4D0 }
  - { offsetInCU: 0x4B715, offset: 0x25C58A, size: 0x8, addend: 0x0, symName: __ZN3std2io19default_read_to_end16small_probe_read17h628a64f1a38c4cb0E, symObjAddr: 0x33890, symBinAddr: 0x10006AE90, symSize: 0xF0 }
  - { offsetInCU: 0x4B8E4, offset: 0x25C759, size: 0x8, addend: 0x0, symName: '__ZN3std4sync4once4Once15call_once_force28_$u7b$$u7b$closure$u7d$$u7d$17h066b6215fe20f0c0E', symObjAddr: 0x3E1D0, symBinAddr: 0x10006EA40, symSize: 0x90 }
  - { offsetInCU: 0x4BA50, offset: 0x25C8C5, size: 0x8, addend: 0x0, symName: '__ZN3std4sync4once4Once15call_once_force28_$u7b$$u7b$closure$u7d$$u7d$17h5b9e19c1a461e180E', symObjAddr: 0x3E260, symBinAddr: 0x10006EAD0, symSize: 0x90 }
  - { offsetInCU: 0x4BB36, offset: 0x25C9AB, size: 0x8, addend: 0x0, symName: '__ZN3std4sync4once4Once9call_once28_$u7b$$u7b$closure$u7d$$u7d$17h06e38cb17c1bb498E', symObjAddr: 0x3DCE0, symBinAddr: 0x10006E740, symSize: 0x300 }
  - { offsetInCU: 0x4C476, offset: 0x25D2EB, size: 0x8, addend: 0x0, symName: '__ZN3std4sync9once_lock17OnceLock$LT$T$GT$10initialize17h588550981d1e9b1bE', symObjAddr: 0x3E460, symBinAddr: 0x100095190, symSize: 0x60 }
  - { offsetInCU: 0x4C4A1, offset: 0x25D316, size: 0x8, addend: 0x0, symName: '__ZN3std4sync9once_lock17OnceLock$LT$T$GT$10initialize17h588550981d1e9b1bE', symObjAddr: 0x3E460, symBinAddr: 0x100095190, symSize: 0x60 }
  - { offsetInCU: 0x4C4B5, offset: 0x25D32A, size: 0x8, addend: 0x0, symName: '__ZN3std4sync9once_lock17OnceLock$LT$T$GT$10initialize17h588550981d1e9b1bE', symObjAddr: 0x3E460, symBinAddr: 0x100095190, symSize: 0x60 }
  - { offsetInCU: 0x4C4C9, offset: 0x25D33E, size: 0x8, addend: 0x0, symName: '__ZN3std4sync9once_lock17OnceLock$LT$T$GT$10initialize17h588550981d1e9b1bE', symObjAddr: 0x3E460, symBinAddr: 0x100095190, symSize: 0x60 }
  - { offsetInCU: 0x4C4DE, offset: 0x25D353, size: 0x8, addend: 0x0, symName: '__ZN3std4sync9once_lock17OnceLock$LT$T$GT$10initialize17hf37e12245f3595a8E', symObjAddr: 0x3E520, symBinAddr: 0x1000951F0, symSize: 0x60 }
  - { offsetInCU: 0x4C509, offset: 0x25D37E, size: 0x8, addend: 0x0, symName: '__ZN3std4sync9once_lock17OnceLock$LT$T$GT$10initialize17hf37e12245f3595a8E', symObjAddr: 0x3E520, symBinAddr: 0x1000951F0, symSize: 0x60 }
  - { offsetInCU: 0x4C51D, offset: 0x25D392, size: 0x8, addend: 0x0, symName: '__ZN3std4sync9once_lock17OnceLock$LT$T$GT$10initialize17hf37e12245f3595a8E', symObjAddr: 0x3E520, symBinAddr: 0x1000951F0, symSize: 0x60 }
  - { offsetInCU: 0x4C531, offset: 0x25D3A6, size: 0x8, addend: 0x0, symName: '__ZN3std4sync9once_lock17OnceLock$LT$T$GT$10initialize17hf37e12245f3595a8E', symObjAddr: 0x3E520, symBinAddr: 0x1000951F0, symSize: 0x60 }
  - { offsetInCU: 0x4C7AA, offset: 0x25D61F, size: 0x8, addend: 0x0, symName: __ZN3std4sync7condvar7Condvar10notify_one17h0f476e367cb1d400E, symObjAddr: 0x3DA90, symBinAddr: 0x10006E710, symSize: 0x30 }
  - { offsetInCU: 0x4C886, offset: 0x25D6FB, size: 0x8, addend: 0x0, symName: __ZN3std4sync4mpmc7context7Context3new17h30f620796fec312aE, symObjAddr: 0x3DB20, symBinAddr: 0x100095010, symSize: 0x180 }
  - { offsetInCU: 0x4CD31, offset: 0x25DBA6, size: 0x8, addend: 0x0, symName: __ZN3std9panicking11panic_count17is_zero_slow_path17h56102c4de0497dbbE, symObjAddr: 0x426E0, symBinAddr: 0x1000957A0, symSize: 0x20 }
  - { offsetInCU: 0x4CE3C, offset: 0x25DCB1, size: 0x8, addend: 0x0, symName: __ZN3std9panicking3try7cleanup17hc468c0d0bdf2efbfE, symObjAddr: 0x42700, symBinAddr: 0x1000957C0, symSize: 0x40 }
  - { offsetInCU: 0x4CF86, offset: 0x25DDFB, size: 0x8, addend: 0x0, symName: ___rust_drop_panic, symObjAddr: 0x418C0, symBinAddr: 0x10006FE00, symSize: 0xD0 }
  - { offsetInCU: 0x4D1C9, offset: 0x25E03E, size: 0x8, addend: 0x0, symName: ___rust_foreign_exception, symObjAddr: 0x41990, symBinAddr: 0x10006FED0, symSize: 0xD0 }
  - { offsetInCU: 0x4D42B, offset: 0x25E2A0, size: 0x8, addend: 0x0, symName: '__ZN3std9panicking12default_hook28_$u7b$$u7b$closure$u7d$$u7d$17ha1110e62c540acf1E', symObjAddr: 0x42210, symBinAddr: 0x100070450, symSize: 0x410 }
  - { offsetInCU: 0x4DC7F, offset: 0x25EAF4, size: 0x8, addend: 0x0, symName: __ZN3std9panicking12default_hook17h38beedc244b2f33fE, symObjAddr: 0x41D60, symBinAddr: 0x10006FFA0, symSize: 0x4B0 }
  - { offsetInCU: 0x4EA57, offset: 0x25F8CC, size: 0x8, addend: 0x0, symName: _rust_begin_unwind, symObjAddr: 0x42740, symBinAddr: 0x100070860, symSize: 0x50 }
  - { offsetInCU: 0x4EAC0, offset: 0x25F935, size: 0x8, addend: 0x0, symName: '__ZN102_$LT$std..panicking..begin_panic_handler..FormatStringPayload$u20$as$u20$core..panic..PanicPayload$GT$8take_box17h792c18fb9672bc70E', symObjAddr: 0x42790, symBinAddr: 0x1000708B0, symSize: 0x150 }
  - { offsetInCU: 0x4ED54, offset: 0x25FBC9, size: 0x8, addend: 0x0, symName: '__ZN102_$LT$std..panicking..begin_panic_handler..FormatStringPayload$u20$as$u20$core..panic..PanicPayload$GT$3get17hc64129965c6e3f89E', symObjAddr: 0x428E0, symBinAddr: 0x100070A00, symSize: 0xD0 }
  - { offsetInCU: 0x4EE7C, offset: 0x25FCF1, size: 0x8, addend: 0x0, symName: '__ZN95_$LT$std..panicking..begin_panic_handler..FormatStringPayload$u20$as$u20$core..fmt..Display$GT$3fmt17h95ccb363af43619fE', symObjAddr: 0x429B0, symBinAddr: 0x100070AD0, symSize: 0x70 }
  - { offsetInCU: 0x4EF35, offset: 0x25FDAA, size: 0x8, addend: 0x0, symName: '__ZN99_$LT$std..panicking..begin_panic_handler..StaticStrPayload$u20$as$u20$core..panic..PanicPayload$GT$8take_box17h1610e0deea676a22E', symObjAddr: 0x42A20, symBinAddr: 0x100070B40, symSize: 0x50 }
  - { offsetInCU: 0x4EFC1, offset: 0x25FE36, size: 0x8, addend: 0x0, symName: '__ZN99_$LT$std..panicking..begin_panic_handler..StaticStrPayload$u20$as$u20$core..panic..PanicPayload$GT$3get17h2ea46f94062eaaabE', symObjAddr: 0x42A70, symBinAddr: 0x100070B90, symSize: 0x10 }
  - { offsetInCU: 0x4EFDC, offset: 0x25FE51, size: 0x8, addend: 0x0, symName: '__ZN99_$LT$std..panicking..begin_panic_handler..StaticStrPayload$u20$as$u20$core..panic..PanicPayload$GT$6as_str17hf9f0880f33b38064E', symObjAddr: 0x42A80, symBinAddr: 0x100070BA0, symSize: 0x10 }
  - { offsetInCU: 0x4EFFD, offset: 0x25FE72, size: 0x8, addend: 0x0, symName: '__ZN92_$LT$std..panicking..begin_panic_handler..StaticStrPayload$u20$as$u20$core..fmt..Display$GT$3fmt17h238672ad02fd2f21E', symObjAddr: 0x42A90, symBinAddr: 0x100070BB0, symSize: 0x20 }
  - { offsetInCU: 0x4F019, offset: 0x25FE8E, size: 0x8, addend: 0x0, symName: '__ZN3std9panicking19begin_panic_handler28_$u7b$$u7b$closure$u7d$$u7d$17h05caf8582ad47024E', symObjAddr: 0x42AB0, symBinAddr: 0x100070BD0, symSize: 0xD0 }
  - { offsetInCU: 0x4F15A, offset: 0x25FFCF, size: 0x8, addend: 0x0, symName: __ZN3std9panicking14payload_as_str17h26504a0caf9c9887E, symObjAddr: 0x42B80, symBinAddr: 0x100070CA0, symSize: 0x90 }
  - { offsetInCU: 0x4F2AF, offset: 0x260124, size: 0x8, addend: 0x0, symName: __ZN3std9panicking20rust_panic_with_hook17h476dee14babd971bE, symObjAddr: 0x42C10, symBinAddr: 0x100070D30, symSize: 0x9F0 }
  - { offsetInCU: 0x50A46, offset: 0x2618BB, size: 0x8, addend: 0x0, symName: _rust_panic, symObjAddr: 0x43700, symBinAddr: 0x100071720, symSize: 0x70 }
  - { offsetInCU: 0x50AF3, offset: 0x261968, size: 0x8, addend: 0x0, symName: __ZN3std6thread6Thread3new17hf409f07961944a32E, symObjAddr: 0x279E0, symBinAddr: 0x100067630, symSize: 0x30 }
  - { offsetInCU: 0x50B24, offset: 0x261999, size: 0x8, addend: 0x0, symName: __ZN3std6thread6Thread11new_unnamed17hc1485f4afc87e787E, symObjAddr: 0x27A10, symBinAddr: 0x100067660, symSize: 0x20 }
  - { offsetInCU: 0x50B38, offset: 0x2619AD, size: 0x8, addend: 0x0, symName: __ZN3std6thread6Thread9new_inner17hc776e1c7db6dac42E, symObjAddr: 0x27A30, symBinAddr: 0x100067680, symSize: 0x150 }
  - { offsetInCU: 0x51051, offset: 0x261EC6, size: 0x8, addend: 0x0, symName: '__ZN68_$LT$std..thread..local..AccessError$u20$as$u20$core..fmt..Debug$GT$3fmt17hfb051a81097c01deE', symObjAddr: 0x27080, symBinAddr: 0x100067000, symSize: 0x30 }
  - { offsetInCU: 0x510BF, offset: 0x261F34, size: 0x8, addend: 0x0, symName: __ZN3std6thread6scoped9ScopeData29increment_num_running_threads17h041fa78e6dc6dcd9E, symObjAddr: 0x26F20, symBinAddr: 0x100066FB0, symSize: 0x20 }
  - { offsetInCU: 0x510DD, offset: 0x261F52, size: 0x8, addend: 0x0, symName: __ZN3std6thread6scoped9ScopeData29increment_num_running_threads17h041fa78e6dc6dcd9E, symObjAddr: 0x26F20, symBinAddr: 0x100066FB0, symSize: 0x20 }
  - { offsetInCU: 0x510F1, offset: 0x261F66, size: 0x8, addend: 0x0, symName: __ZN3std6thread6scoped9ScopeData29increment_num_running_threads17h041fa78e6dc6dcd9E, symObjAddr: 0x26F20, symBinAddr: 0x100066FB0, symSize: 0x20 }
  - { offsetInCU: 0x51104, offset: 0x261F79, size: 0x8, addend: 0x0, symName: __ZN3std6thread6scoped9ScopeData8overflow17hf519095a3cee2387E, symObjAddr: 0x26F40, symBinAddr: 0x100094D50, symSize: 0x50 }
  - { offsetInCU: 0x51132, offset: 0x261FA7, size: 0x8, addend: 0x0, symName: __ZN3std6thread6scoped9ScopeData29decrement_num_running_threads17hae18b83403f3be68E, symObjAddr: 0x26F90, symBinAddr: 0x100066FD0, symSize: 0x30 }
  - { offsetInCU: 0x51253, offset: 0x2620C8, size: 0x8, addend: 0x0, symName: __ZN3std6thread11set_current17hf89ea0dd9f2b9978E, symObjAddr: 0x27160, symBinAddr: 0x100067030, symSize: 0x140 }
  - { offsetInCU: 0x51656, offset: 0x2624CB, size: 0x8, addend: 0x0, symName: __ZN3std6thread7current17hffe4f7901c482367E, symObjAddr: 0x272A0, symBinAddr: 0x100067170, symSize: 0xA0 }
  - { offsetInCU: 0x51832, offset: 0x2626A7, size: 0x8, addend: 0x0, symName: __ZN3std6thread9yield_now17h42054608be38696eE, symObjAddr: 0x27340, symBinAddr: 0x100067210, symSize: 0x10 }
  - { offsetInCU: 0x51871, offset: 0x2626E6, size: 0x8, addend: 0x0, symName: __ZN3std6thread5sleep17h9866a0109cd6789bE, symObjAddr: 0x27420, symBinAddr: 0x100067220, symSize: 0xC0 }
  - { offsetInCU: 0x518F5, offset: 0x26276A, size: 0x8, addend: 0x0, symName: __ZN3std6thread4park17hac627a69a2c0603dE, symObjAddr: 0x27610, symBinAddr: 0x1000672E0, symSize: 0x100 }
  - { offsetInCU: 0x51C5C, offset: 0x262AD1, size: 0x8, addend: 0x0, symName: __ZN3std6thread12park_timeout17h38eca334bf8eaf07E, symObjAddr: 0x27740, symBinAddr: 0x1000673E0, symSize: 0x150 }
  - { offsetInCU: 0x51FFD, offset: 0x262E72, size: 0x8, addend: 0x0, symName: __ZN3std6thread8ThreadId3new9exhausted17hee7d68b6e81e2237E, symObjAddr: 0x27890, symBinAddr: 0x100094DA0, symSize: 0x50 }
  - { offsetInCU: 0x52039, offset: 0x262EAE, size: 0x8, addend: 0x0, symName: '__ZN118_$LT$std..thread..thread_name_string..ThreadNameString$u20$as$u20$core..convert..From$LT$alloc..string..String$GT$$GT$4from17h7ab1900be853cfb2E', symObjAddr: 0x278E0, symBinAddr: 0x100067530, symSize: 0x100 }
  - { offsetInCU: 0x522BE, offset: 0x263133, size: 0x8, addend: 0x0, symName: '__ZN3std10sys_common8lazy_box16LazyBox$LT$T$GT$10initialize17h353e3b5fb98a996bE', symObjAddr: 0x40270, symBinAddr: 0x100095660, symSize: 0xF0 }
  - { offsetInCU: 0x52453, offset: 0x2632C8, size: 0x8, addend: 0x0, symName: '__ZN3std10sys_common8lazy_box16LazyBox$LT$T$GT$10initialize17h68cb83bd50c56600E', symObjAddr: 0x40360, symBinAddr: 0x100095750, symSize: 0x50 }
  - { offsetInCU: 0x52592, offset: 0x263407, size: 0x8, addend: 0x0, symName: __ZN3std10sys_common7process10CommandEnv3set17h34f4c05e8e22a441E, symObjAddr: 0x40430, symBinAddr: 0x10006F3E0, symSize: 0x1A0 }
  - { offsetInCU: 0x529D2, offset: 0x263847, size: 0x8, addend: 0x0, symName: __ZN3std10sys_common7process10CommandEnv6remove17h86d2405b6a2d35a8E, symObjAddr: 0x405D0, symBinAddr: 0x10006F580, symSize: 0x600 }
  - { offsetInCU: 0x534F2, offset: 0x264367, size: 0x8, addend: 0x0, symName: '__ZN73_$LT$std..sys_common..process..CommandEnv$u20$as$u20$core..fmt..Debug$GT$3fmt17h59eaa3d28b8e6122E', symObjAddr: 0x403B0, symBinAddr: 0x10006F360, symSize: 0x80 }
  - { offsetInCU: 0x535F3, offset: 0x264468, size: 0x8, addend: 0x0, symName: __ZN3std12backtrace_rs9symbolize5gimli7Context3new17ha1962ce590ad2924E, symObjAddr: 0x510B0, symBinAddr: 0x100078E80, symSize: 0x3420 }
  - { offsetInCU: 0x5769C, offset: 0x268511, size: 0x8, addend: 0x0, symName: __ZN3std12backtrace_rs9symbolize5gimli7Context11find_frames17h7658aa0e29db52d5E, symObjAddr: 0x544D0, symBinAddr: 0x10007C2A0, symSize: 0x3F0 }
  - { offsetInCU: 0x57AD0, offset: 0x268945, size: 0x8, addend: 0x0, symName: __ZN3std12backtrace_rs9symbolize5gimli5macho6Object5parse17h78b3cd8af98e2ca0E, symObjAddr: 0x57A70, symBinAddr: 0x10007F810, symSize: 0x1090 }
  - { offsetInCU: 0x597D7, offset: 0x26A64C, size: 0x8, addend: 0x0, symName: __ZN3std12backtrace_rs9symbolize5gimli5macho6Object7section17h2252defa69affb04E, symObjAddr: 0x58B00, symBinAddr: 0x1000808A0, symSize: 0x19A }
  - { offsetInCU: 0x59B40, offset: 0x26A9B5, size: 0x8, addend: 0x0, symName: __ZN3std12backtrace_rs9symbolize5gimli5macho11find_header17hf7d4993c22952055E, symObjAddr: 0x578E0, symBinAddr: 0x10007F680, symSize: 0x190 }
  - { offsetInCU: 0x5A355, offset: 0x26B1CA, size: 0x8, addend: 0x0, symName: __ZN3std12backtrace_rs9symbolize5gimli4mmap17hd480a54e9faf1969E, symObjAddr: 0x548C0, symBinAddr: 0x10007C690, symSize: 0x1A0 }
  - { offsetInCU: 0x5A92B, offset: 0x26B7A0, size: 0x8, addend: 0x0, symName: __ZN3std12backtrace_rs9symbolize5gimli7resolve17h96a5664b21f7a158E, symObjAddr: 0x54A60, symBinAddr: 0x10007C830, symSize: 0x2E50 }
  - { offsetInCU: 0x60527, offset: 0x27139C, size: 0x8, addend: 0x0, symName: __ZN3std12backtrace_rs9symbolize6Symbol4name17haa9b2560df004d25E, symObjAddr: 0x43840, symBinAddr: 0x100071790, symSize: 0x110 }
  - { offsetInCU: 0x605E6, offset: 0x27145B, size: 0x8, addend: 0x0, symName: '__ZN79_$LT$std..backtrace_rs..symbolize..SymbolName$u20$as$u20$core..fmt..Display$GT$3fmt17h00ae6702a7d6284fE', symObjAddr: 0x43A80, symBinAddr: 0x1000718A0, symSize: 0xE0 }
  - { offsetInCU: 0x6070D, offset: 0x271582, size: 0x8, addend: 0x0, symName: __ZN3std12backtrace_rs9backtrace9libunwind5trace8trace_fn17h86c77dfc4cf1f602E, symObjAddr: 0x51070, symBinAddr: 0x100078E40, symSize: 0x40 }
  - { offsetInCU: 0x607E2, offset: 0x271657, size: 0x8, addend: 0x0, symName: __ZN3std12backtrace_rs5print17BacktraceFrameFmt21print_raw_with_column17h9782bac7179e68beE, symObjAddr: 0x43C40, symBinAddr: 0x100071980, symSize: 0x690 }
  - { offsetInCU: 0x609FA, offset: 0x27186F, size: 0x8, addend: 0x0, symName: __ZN3std2rt7cleanup17h89e617c657c11586E, symObjAddr: 0x268A0, symBinAddr: 0x100066930, symSize: 0x50 }
  - { offsetInCU: 0x60A1D, offset: 0x271892, size: 0x8, addend: 0x0, symName: __ZN3std2rt7cleanup17h89e617c657c11586E, symObjAddr: 0x268A0, symBinAddr: 0x100066930, symSize: 0x50 }
  - { offsetInCU: 0x60A31, offset: 0x2718A6, size: 0x8, addend: 0x0, symName: __ZN3std2rt7cleanup17h89e617c657c11586E, symObjAddr: 0x268A0, symBinAddr: 0x100066930, symSize: 0x50 }
  - { offsetInCU: 0x60A45, offset: 0x2718BA, size: 0x8, addend: 0x0, symName: __ZN3std2rt7cleanup17h89e617c657c11586E, symObjAddr: 0x268A0, symBinAddr: 0x100066930, symSize: 0x50 }
  - { offsetInCU: 0x60A90, offset: 0x271905, size: 0x8, addend: 0x0, symName: '__ZN3std2rt19lang_start_internal28_$u7b$$u7b$closure$u7d$$u7d$17hab23b84f28c094acE', symObjAddr: 0x26ED0, symBinAddr: 0x100066F60, symSize: 0x50 }
  - { offsetInCU: 0x60ACC, offset: 0x271941, size: 0x8, addend: 0x0, symName: __ZN3std2rt19lang_start_internal17h44ef96ddb6c2eff9E, symObjAddr: 0x268F0, symBinAddr: 0x100066980, symSize: 0x5E0 }
  - { offsetInCU: 0x614D2, offset: 0x272347, size: 0x8, addend: 0x0, symName: __ZN3std5panic19get_backtrace_style17hb7397f3e46331c67E, symObjAddr: 0x38CB0, symBinAddr: 0x10006B990, symSize: 0xF0 }
  - { offsetInCU: 0x618B6, offset: 0x27272B, size: 0x8, addend: 0x0, symName: __ZN3std4time7Instant3now17h165df4a87ffec6d0E, symObjAddr: 0x3EB10, symBinAddr: 0x10006EB60, symSize: 0x10 }
  - { offsetInCU: 0x618F3, offset: 0x272768, size: 0x8, addend: 0x0, symName: '__ZN60_$LT$std..time..Instant$u20$as$u20$core..ops..arith..Sub$GT$3sub17hcd70bf3c41127ee1E', symObjAddr: 0x3ED60, symBinAddr: 0x10006EB70, symSize: 0x40 }
  - { offsetInCU: 0x6197F, offset: 0x2727F4, size: 0x8, addend: 0x0, symName: __ZN3std3env11current_dir17he251f845082cc5ddE, symObjAddr: 0x29060, symBinAddr: 0x1000677D0, symSize: 0x1F0 }
  - { offsetInCU: 0x61CE9, offset: 0x272B5E, size: 0x8, addend: 0x0, symName: __ZN3std3env7vars_os17h96fbb483b5c52e89E, symObjAddr: 0x29270, symBinAddr: 0x1000679C0, symSize: 0x360 }
  - { offsetInCU: 0x622E4, offset: 0x273159, size: 0x8, addend: 0x0, symName: __ZN3std3env4_var17h14de8fbde719fed4E, symObjAddr: 0x29970, symBinAddr: 0x100067D20, symSize: 0xB0 }
  - { offsetInCU: 0x623C0, offset: 0x273235, size: 0x8, addend: 0x0, symName: __ZN3std3env7_var_os17he4d73c2dfeb06a82E, symObjAddr: 0x29A20, symBinAddr: 0x100067DD0, symSize: 0x160 }
  - { offsetInCU: 0x6267D, offset: 0x2734F2, size: 0x8, addend: 0x0, symName: '__ZN79_$LT$std..env..SplitPaths$u20$as$u20$core..iter..traits..iterator..Iterator$GT$4next17h8edc2a807bcb4c4dE', symObjAddr: 0x29C10, symBinAddr: 0x100067F30, symSize: 0xA0 }
  - { offsetInCU: 0x627E4, offset: 0x273659, size: 0x8, addend: 0x0, symName: __ZN3std3env8temp_dir17h3af955f2fc766b4cE, symObjAddr: 0x29F10, symBinAddr: 0x100067FD0, symSize: 0xA0 }
  - { offsetInCU: 0x629A5, offset: 0x27381A, size: 0x8, addend: 0x0, symName: __ZN3std2fs11OpenOptions5_open17h1d14c781b27b9cd8E, symObjAddr: 0x2BCB0, symBinAddr: 0x1000681A0, symSize: 0x1F0 }
  - { offsetInCU: 0x62BAB, offset: 0x273A20, size: 0x8, addend: 0x0, symName: __ZN3std2fs4File8sync_all17ha8e3a820f80a9ffaE, symObjAddr: 0x2B170, symBinAddr: 0x1000680C0, symSize: 0x0 }
  - { offsetInCU: 0x62CEC, offset: 0x273B61, size: 0x8, addend: 0x0, symName: '__ZN52_$LT$$RF$std..fs..File$u20$as$u20$std..io..Write$GT$5write17h10bd972bcbdd7c1fE', symObjAddr: 0x2B780, symBinAddr: 0x100068110, symSize: 0x0 }
  - { offsetInCU: 0x62DEA, offset: 0x273C5F, size: 0x8, addend: 0x0, symName: '__ZN48_$LT$std..fs..File$u20$as$u20$std..io..Write$GT$5write17hf87a0d5ca1b817b0E', symObjAddr: 0x2B990, symBinAddr: 0x100068160, symSize: 0x0 }
  - { offsetInCU: 0x62F24, offset: 0x273D99, size: 0x8, addend: 0x0, symName: '__ZN75_$LT$std..fs..ReadDir$u20$as$u20$core..iter..traits..iterator..Iterator$GT$4next17h9aa7fa03cd702ab1E', symObjAddr: 0x2C290, symBinAddr: 0x100068390, symSize: 0x90 }
  - { offsetInCU: 0x62F7E, offset: 0x273DF3, size: 0x8, addend: 0x0, symName: __ZN3std2fs8DirEntry4path17h32c5a368e64ab1c3E, symObjAddr: 0x2C320, symBinAddr: 0x100068420, symSize: 0x30 }
  - { offsetInCU: 0x6310F, offset: 0x273F84, size: 0x8, addend: 0x0, symName: __ZN3std2fs10DirBuilder7_create17h266838844e9250feE, symObjAddr: 0x2C560, symBinAddr: 0x100068450, symSize: 0xC0 }
  - { offsetInCU: 0x63255, offset: 0x2740CA, size: 0x8, addend: 0x0, symName: __ZN3std2fs10DirBuilder14create_dir_all17h105370c0b2bdd87aE, symObjAddr: 0x2C620, symBinAddr: 0x100068510, symSize: 0x5A0 }
  - { offsetInCU: 0x63A36, offset: 0x2748AB, size: 0x8, addend: 0x0, symName: '__ZN55_$LT$std..pipe..PipeReader$u20$as$u20$std..io..Read$GT$11read_to_end17h88d33d6c52e7f1eeE', symObjAddr: 0x3C530, symBinAddr: 0x10006E020, symSize: 0x0 }
  - { offsetInCU: 0x63A57, offset: 0x2748CC, size: 0x8, addend: 0x0, symName: __ZN3std5alloc24default_alloc_error_hook17hb7e8942bce464676E, symObjAddr: 0x415B0, symBinAddr: 0x10006FB80, symSize: 0x160 }
  - { offsetInCU: 0x63CE1, offset: 0x274B56, size: 0x8, addend: 0x0, symName: ___rdl_alloc, symObjAddr: 0x41710, symBinAddr: 0x10006FCE0, symSize: 0x70 }
  - { offsetInCU: 0x63D70, offset: 0x274BE5, size: 0x8, addend: 0x0, symName: ___rdl_dealloc, symObjAddr: 0x41780, symBinAddr: 0x10006FD50, symSize: 0x10 }
  - { offsetInCU: 0x63D9D, offset: 0x274C12, size: 0x8, addend: 0x0, symName: ___rdl_realloc, symObjAddr: 0x41790, symBinAddr: 0x10006FD60, symSize: 0xA0 }
  - { offsetInCU: 0x63EAF, offset: 0x274D24, size: 0x8, addend: 0x0, symName: __ZN3std5alloc8rust_oom17hdae996a8007ae43bE, symObjAddr: 0x50F70, symBinAddr: 0x100078E00, symSize: 0x20 }
  - { offsetInCU: 0x63EFB, offset: 0x274D70, size: 0x8, addend: 0x0, symName: ___rg_oom, symObjAddr: 0x50F90, symBinAddr: 0x100078E20, symSize: 0x20 }
  - { offsetInCU: 0x6404D, offset: 0x274EC2, size: 0x8, addend: 0x0, symName: '__ZN5gimli4read4unit32AttributeValue$LT$R$C$Offset$GT$11udata_value17hede2cb0fa7142a81E', symObjAddr: 0x19DD0, symBinAddr: 0x10005A080, symSize: 0x80 }
  - { offsetInCU: 0x640A8, offset: 0x274F1D, size: 0x8, addend: 0x0, symName: __ZN5gimli4read4unit15parse_attribute17hdc95fea432f22995E, symObjAddr: 0x171C0, symBinAddr: 0x100057470, symSize: 0x1960 }
  - { offsetInCU: 0x677A2, offset: 0x278617, size: 0x8, addend: 0x0, symName: __ZN5gimli4read4unit15skip_attributes17hd3629e11f5bef68bE, symObjAddr: 0x18B20, symBinAddr: 0x100058DD0, symSize: 0x750 }
  - { offsetInCU: 0x681FB, offset: 0x279070, size: 0x8, addend: 0x0, symName: '__ZN5gimli4read4unit18Attribute$LT$R$GT$5value17hb3a3a1d0d3843921E', symObjAddr: 0x19270, symBinAddr: 0x100059520, symSize: 0x810 }
  - { offsetInCU: 0x68758, offset: 0x2795CD, size: 0x8, addend: 0x0, symName: '__ZN5gimli4read4unit22EntriesCursor$LT$R$GT$10next_entry17hcb0a839aa63ff658E', symObjAddr: 0x19A80, symBinAddr: 0x100059D30, symSize: 0x350 }
  - { offsetInCU: 0x68CC5, offset: 0x279B3A, size: 0x8, addend: 0x0, symName: '__ZN5gimli4read4unit33DebugInfoUnitHeadersIter$LT$R$GT$4next17h32df442407d963e3E', symObjAddr: 0x19E50, symBinAddr: 0x10005A100, symSize: 0x600 }
  - { offsetInCU: 0x69F02, offset: 0x27AD77, size: 0x8, addend: 0x0, symName: '__ZN90_$LT$gimli..read..unit..AttributeValue$LT$R$C$Offset$GT$$u20$as$u20$core..clone..Clone$GT$5clone17h26b89df82d70d509E', symObjAddr: 0x1F680, symBinAddr: 0x10005F710, symSize: 0x120 }
  - { offsetInCU: 0x6A152, offset: 0x27AFC7, size: 0x8, addend: 0x0, symName: __ZN5gimli4read6reader6Reader11read_offset17h7e80abe32b9662a5E, symObjAddr: 0x1D830, symBinAddr: 0x10005DAE0, symSize: 0xB0 }
  - { offsetInCU: 0x6A3B8, offset: 0x27B22D, size: 0x8, addend: 0x0, symName: __ZN5gimli4read6reader6Reader12read_uleb12817h4ba34c89a0f4e49bE, symObjAddr: 0x1D8E0, symBinAddr: 0x10005DB90, symSize: 0xB0 }
  - { offsetInCU: 0x6A464, offset: 0x27B2D9, size: 0x8, addend: 0x0, symName: __ZN5gimli4read6reader6Reader17read_sized_offset17h2d0659fa8369884cE, symObjAddr: 0x1D990, symBinAddr: 0x10005DC40, symSize: 0x130 }
  - { offsetInCU: 0x6A8DC, offset: 0x27B751, size: 0x8, addend: 0x0, symName: __ZN5gimli4read4line13parse_file_v517h00102d4450b26936E, symObjAddr: 0x15D20, symBinAddr: 0x100055FD0, symSize: 0x2E0 }
  - { offsetInCU: 0x6AA52, offset: 0x27B8C7, size: 0x8, addend: 0x0, symName: __ZN5gimli4read4line15FileEntryFormat5parse17hd09e7e12b3a83a4eE, symObjAddr: 0x16000, symBinAddr: 0x1000562B0, symSize: 0x3A0 }
  - { offsetInCU: 0x6B219, offset: 0x27C08E, size: 0x8, addend: 0x0, symName: __ZN5gimli4read4line15parse_attribute17h13a52bf6f5b6c965E, symObjAddr: 0x163A0, symBinAddr: 0x100056650, symSize: 0xAC0 }
  - { offsetInCU: 0x6CD9E, offset: 0x27DC13, size: 0x8, addend: 0x0, symName: __ZN5gimli4read4line18parse_directory_v517h00bba0525c5798feE, symObjAddr: 0x16E60, symBinAddr: 0x100057110, symSize: 0x110 }
  - { offsetInCU: 0x6CE18, offset: 0x27DC8D, size: 0x8, addend: 0x0, symName: '__ZN5gimli4read4line27FileEntry$LT$R$C$Offset$GT$5parse17hcd4749b4839ce183E', symObjAddr: 0x16F70, symBinAddr: 0x100057220, symSize: 0x250 }
  - { offsetInCU: 0x6D0F1, offset: 0x27DF66, size: 0x8, addend: 0x0, symName: '__ZN93_$LT$gimli..read..line..LineProgramHeader$LT$R$C$Offset$GT$$u20$as$u20$core..clone..Clone$GT$5clone17h1fac362afd052016E', symObjAddr: 0x1F7A0, symBinAddr: 0x10005F830, symSize: 0x5C0 }
  - { offsetInCU: 0x6DB90, offset: 0x27EA05, size: 0x8, addend: 0x0, symName: '__ZN5gimli4read5dwarf14Dwarf$LT$R$GT$11attr_string17haadd54a0e6e81ebbE', symObjAddr: 0x1CC80, symBinAddr: 0x10005CF30, symSize: 0x210 }
  - { offsetInCU: 0x6E41D, offset: 0x27F292, size: 0x8, addend: 0x0, symName: '__ZN5gimli4read5dwarf13Unit$LT$R$GT$3new17h7b5b7e892a6b53baE', symObjAddr: 0x1A450, symBinAddr: 0x10005A700, symSize: 0x2830 }
  - { offsetInCU: 0x71C6C, offset: 0x282AE1, size: 0x8, addend: 0x0, symName: '__ZN5gimli4read5index18UnitIndex$LT$R$GT$5parse17h7e148d1862301c26E', symObjAddr: 0x1CE90, symBinAddr: 0x10005D140, symSize: 0x9A0 }
  - { offsetInCU: 0x71C89, offset: 0x282AFE, size: 0x8, addend: 0x0, symName: '__ZN5gimli4read5index18UnitIndex$LT$R$GT$5parse17h7e148d1862301c26E', symObjAddr: 0x1CE90, symBinAddr: 0x10005D140, symSize: 0x9A0 }
  - { offsetInCU: 0x71C9D, offset: 0x282B12, size: 0x8, addend: 0x0, symName: '__ZN5gimli4read5index18UnitIndex$LT$R$GT$5parse17h7e148d1862301c26E', symObjAddr: 0x1CE90, symBinAddr: 0x10005D140, symSize: 0x9A0 }
  - { offsetInCU: 0x7220A, offset: 0x28307F, size: 0x8, addend: 0x0, symName: '__ZN5gimli4read7aranges30ArangeHeader$LT$R$C$Offset$GT$5parse17hb555810ff3d7c330E', symObjAddr: 0x1DAC0, symBinAddr: 0x10005DD70, symSize: 0x2A0 }
  - { offsetInCU: 0x72AA4, offset: 0x283919, size: 0x8, addend: 0x0, symName: '__ZN5gimli4read8rnglists20RngListIter$LT$R$GT$4next17h289733bca08e128fE', symObjAddr: 0x1DD60, symBinAddr: 0x10005E010, symSize: 0x1000 }
  - { offsetInCU: 0x7565E, offset: 0x2864D3, size: 0x8, addend: 0x0, symName: '__ZN9addr2line8function17Function$LT$R$GT$14parse_children17hbb65783bd45d2861E', symObjAddr: 0x250C0, symBinAddr: 0x100065150, symSize: 0x1630 }
  - { offsetInCU: 0x768B7, offset: 0x28772C, size: 0x8, addend: 0x0, symName: __ZN9addr2line8function10name_entry17hc2b582ece92caa7aE, symObjAddr: 0x24C80, symBinAddr: 0x100064D10, symSize: 0x440 }
  - { offsetInCU: 0x76CE5, offset: 0x287B5A, size: 0x8, addend: 0x0, symName: __ZN9addr2line8function9name_attr17hc96fb7a92795daf9E, symObjAddr: 0x266F0, symBinAddr: 0x100066780, symSize: 0x1B0 }
  - { offsetInCU: 0x76EDD, offset: 0x287D52, size: 0x8, addend: 0x0, symName: __ZN9addr2line11render_file17h5517ef64accc5d43E, symObjAddr: 0x1FE50, symBinAddr: 0x10005FEE0, symSize: 0x6B0 }
  - { offsetInCU: 0x7768D, offset: 0x288502, size: 0x8, addend: 0x0, symName: '__ZN9addr2line16Context$LT$R$GT$9find_unit17hd9fd8439b7d6087eE', symObjAddr: 0x20500, symBinAddr: 0x100060590, symSize: 0x150 }
  - { offsetInCU: 0x77948, offset: 0x2887BD, size: 0x8, addend: 0x0, symName: '__ZN9addr2line16ResUnit$LT$R$GT$25find_function_or_location17h07e609037f3ea598E', symObjAddr: 0x20650, symBinAddr: 0x1000606E0, symSize: 0x560 }
  - { offsetInCU: 0x77D32, offset: 0x288BA7, size: 0x8, addend: 0x0, symName: '__ZN9addr2line16ResUnit$LT$R$GT$25find_function_or_location28_$u7b$$u7b$closure$u7d$$u7d$17hee587d2ae9be3845E', symObjAddr: 0x20BB0, symBinAddr: 0x100060C40, symSize: 0x1CD0 }
  - { offsetInCU: 0x7A67C, offset: 0x28B4F1, size: 0x8, addend: 0x0, symName: '__ZN9addr2line18FrameIter$LT$R$GT$4next17h45f956316232ee2fE', symObjAddr: 0x22880, symBinAddr: 0x100062910, symSize: 0x400 }
  - { offsetInCU: 0x7AB66, offset: 0x28B9DB, size: 0x8, addend: 0x0, symName: '__ZN9addr2line30LoopingLookup$LT$T$C$L$C$F$GT$10new_lookup17h74c847bef191747eE', symObjAddr: 0x22C80, symBinAddr: 0x100062D10, symSize: 0x520 }
  - { offsetInCU: 0x7B00A, offset: 0x28BE7F, size: 0x8, addend: 0x0, symName: __ZN9addr2line5Lines5parse17hba10f936c372d0e0E, symObjAddr: 0x231A0, symBinAddr: 0x100063230, symSize: 0x1AE0 }
  - { offsetInCU: 0x7DA7B, offset: 0x28E8F0, size: 0x8, addend: 0x0, symName: __ZN6object4read7archive13ArchiveMember5parse17h9773f219fabef87fE, symObjAddr: 0x1F1E0, symBinAddr: 0x10005F2D0, symSize: 0x360 }
  - { offsetInCU: 0x7E0B6, offset: 0x28EF2B, size: 0x8, addend: 0x0, symName: __ZN6object4read7archive23parse_bsd_extended_name17hcb481cad095c5149E, symObjAddr: 0x1F540, symBinAddr: 0x10005F630, symSize: 0xA0 }
  - { offsetInCU: 0x1E, offset: 0x28F661, size: 0x8, addend: 0x0, symName: '__ZN4core3ptr49drop_in_place$LT$panic_unwind..imp..Exception$GT$17h7cb1f70ba27daa8aE', symObjAddr: 0x0, symBinAddr: 0x100080A40, symSize: 0x70 }
  - { offsetInCU: 0x43, offset: 0x28F686, size: 0x8, addend: 0x0, symName: '__ZN4core3ptr49drop_in_place$LT$panic_unwind..imp..Exception$GT$17h7cb1f70ba27daa8aE', symObjAddr: 0x0, symBinAddr: 0x100080A40, symSize: 0x70 }
  - { offsetInCU: 0x147, offset: 0x28F78A, size: 0x8, addend: 0x0, symName: '__ZN4core3ptr74drop_in_place$LT$alloc..boxed..Box$LT$panic_unwind..imp..Exception$GT$$GT$17hd08adefcc1143184E', symObjAddr: 0x70, symBinAddr: 0x100080AB0, symSize: 0x90 }
  - { offsetInCU: 0x40B, offset: 0x28FA4E, size: 0x8, addend: 0x0, symName: __ZN12panic_unwind3imp5panic17exception_cleanup17hd6ad6022d0a6ffe7E, symObjAddr: 0x200, symBinAddr: 0x100080C40, symSize: 0x16 }
  - { offsetInCU: 0x427, offset: 0x28FA6A, size: 0x8, addend: 0x0, symName: ___rust_panic_cleanup, symObjAddr: 0x100, symBinAddr: 0x100080B40, symSize: 0x50 }
  - { offsetInCU: 0x49E, offset: 0x28FAE1, size: 0x8, addend: 0x0, symName: ___rust_start_panic, symObjAddr: 0x150, symBinAddr: 0x100080B90, symSize: 0xB0 }
  - { offsetInCU: 0x187, offset: 0x28FD04, size: 0x8, addend: 0x0, symName: __ZN6memchr6memchr3x864sse26memchr17h1c3f8a3b85e5e51bE, symObjAddr: 0x8F0, symBinAddr: 0x100080F60, symSize: 0x1C0 }
  - { offsetInCU: 0x19E, offset: 0x28FD1B, size: 0x8, addend: 0x0, symName: __ZN6memchr6memchr3x864sse26memchr17h1c3f8a3b85e5e51bE, symObjAddr: 0x8F0, symBinAddr: 0x100080F60, symSize: 0x1C0 }
  - { offsetInCU: 0x4AE, offset: 0x29002B, size: 0x8, addend: 0x0, symName: __ZN6memchr6memchr3x864sse27memchr217h2270963e261333a1E, symObjAddr: 0xAB0, symBinAddr: 0x100081120, symSize: 0x1F0 }
  - { offsetInCU: 0x4CC, offset: 0x290049, size: 0x8, addend: 0x0, symName: __ZN6memchr6memchr3x864sse27memchr217h2270963e261333a1E, symObjAddr: 0xAB0, symBinAddr: 0x100081120, symSize: 0x1F0 }
  - { offsetInCU: 0x1E, offset: 0x29039F, size: 0x8, addend: 0x0, symName: __ZN9hashbrown3raw11Fallibility17capacity_overflow17hd4e9ded7f222eebaE, symObjAddr: 0x0, symBinAddr: 0x100089A50, symSize: 0x50 }
  - { offsetInCU: 0x5A, offset: 0x2903DB, size: 0x8, addend: 0x0, symName: __ZN9hashbrown3raw11Fallibility17capacity_overflow17hd4e9ded7f222eebaE, symObjAddr: 0x0, symBinAddr: 0x100089A50, symSize: 0x50 }
  - { offsetInCU: 0x89, offset: 0x29040A, size: 0x8, addend: 0x0, symName: __ZN9hashbrown3raw11Fallibility9alloc_err17h1b85c99cbebac136E, symObjAddr: 0x50, symBinAddr: 0x100089AA0, symSize: 0x20 }
  - { offsetInCU: 0x52, offset: 0x290479, size: 0x8, addend: 0x0, symName: __ZN4core3fmt5Write9write_fmt17h1b2defdef86f2e6bE, symObjAddr: 0x20, symBinAddr: 0x100089AC0, symSize: 0x20 }
  - { offsetInCU: 0x92, offset: 0x2904B9, size: 0x8, addend: 0x0, symName: '__ZN53_$LT$core..fmt..Error$u20$as$u20$core..fmt..Debug$GT$3fmt17h03dc662ab152f3aeE', symObjAddr: 0xC0, symBinAddr: 0x100089B00, symSize: 0x20 }
  - { offsetInCU: 0x10D, offset: 0x290534, size: 0x8, addend: 0x0, symName: '__ZN4core3ptr42drop_in_place$LT$alloc..string..String$GT$17h61f13859bd1ac9a5E', symObjAddr: 0x60, symBinAddr: 0x100089AE0, symSize: 0x20 }
  - { offsetInCU: 0x288, offset: 0x2906AF, size: 0x8, addend: 0x0, symName: '__ZN69_$LT$core..alloc..layout..LayoutError$u20$as$u20$core..fmt..Debug$GT$3fmt17h954ec1b18e5120d2E', symObjAddr: 0xE0, symBinAddr: 0x100089B20, symSize: 0x20 }
  - { offsetInCU: 0x99A, offset: 0x290DC1, size: 0x8, addend: 0x0, symName: '__ZN5alloc7raw_vec19RawVec$LT$T$C$A$GT$8grow_one17he6f4182565c06affE', symObjAddr: 0x1F0, symBinAddr: 0x100089B90, symSize: 0xA0 }
  - { offsetInCU: 0xC01, offset: 0x291028, size: 0x8, addend: 0x0, symName: __ZN5alloc7raw_vec17capacity_overflow17hd5f476d0f4b04237E, symObjAddr: 0x100, symBinAddr: 0x100089B40, symSize: 0x50 }
  - { offsetInCU: 0xC3A, offset: 0x291061, size: 0x8, addend: 0x0, symName: '__ZN5alloc7raw_vec19RawVec$LT$T$C$A$GT$7reserve21do_reserve_and_handle17h8390814197170b81E', symObjAddr: 0x150, symBinAddr: 0x100095F70, symSize: 0xA0 }
  - { offsetInCU: 0xD58, offset: 0x29117F, size: 0x8, addend: 0x0, symName: __ZN5alloc7raw_vec11finish_grow17hac7a643019d04e69E, symObjAddr: 0x290, symBinAddr: 0x100089C30, symSize: 0xA0 }
  - { offsetInCU: 0xDBF, offset: 0x2911E6, size: 0x8, addend: 0x0, symName: __ZN5alloc7raw_vec12handle_error17h19d8d109ef215ad1E, symObjAddr: 0x330, symBinAddr: 0x100096010, symSize: 0x20 }
  - { offsetInCU: 0xE8F, offset: 0x2912B6, size: 0x8, addend: 0x0, symName: __ZN5alloc5alloc18handle_alloc_error17h8a695ff0459568c7E, symObjAddr: 0x350, symBinAddr: 0x100096030, symSize: 0x20 }
  - { offsetInCU: 0xF16, offset: 0x29133D, size: 0x8, addend: 0x0, symName: '__ZN93_$LT$alloc..collections..btree..mem..replace..PanicGuard$u20$as$u20$core..ops..drop..Drop$GT$4drop17h76cb43db49f7bda9E', symObjAddr: 0xD20, symBinAddr: 0x100089D20, symSize: 0x10 }
  - { offsetInCU: 0xF49, offset: 0x291370, size: 0x8, addend: 0x0, symName: '__ZN223_$LT$$LT$alloc..boxed..Box$LT$dyn$u20$core..error..Error$u2b$core..marker..Sync$u2b$core..marker..Send$GT$$u20$as$u20$core..convert..From$LT$alloc..string..String$GT$$GT$..from..StringError$u20$as$u20$core..error..Error$GT$11description17h38ae18cb367ffa3eE', symObjAddr: 0x500, symBinAddr: 0x100089CD0, symSize: 0x10 }
  - { offsetInCU: 0xFC2, offset: 0x2913E9, size: 0x8, addend: 0x0, symName: '__ZN223_$LT$$LT$alloc..boxed..Box$LT$dyn$u20$core..error..Error$u2b$core..marker..Sync$u2b$core..marker..Send$GT$$u20$as$u20$core..convert..From$LT$alloc..string..String$GT$$GT$..from..StringError$u20$as$u20$core..fmt..Display$GT$3fmt17heef959a9ca276fbfE', symObjAddr: 0x510, symBinAddr: 0x100089CE0, symSize: 0x20 }
  - { offsetInCU: 0x1051, offset: 0x291478, size: 0x8, addend: 0x0, symName: '__ZN221_$LT$$LT$alloc..boxed..Box$LT$dyn$u20$core..error..Error$u2b$core..marker..Sync$u2b$core..marker..Send$GT$$u20$as$u20$core..convert..From$LT$alloc..string..String$GT$$GT$..from..StringError$u20$as$u20$core..fmt..Debug$GT$3fmt17h3cce02918b110df9E', symObjAddr: 0x530, symBinAddr: 0x100089D00, symSize: 0x20 }
  - { offsetInCU: 0x12C3, offset: 0x2916EA, size: 0x8, addend: 0x0, symName: '__ZN5alloc3vec16Vec$LT$T$C$A$GT$6remove13assert_failed17h7abfd80728ac5d7cE', symObjAddr: 0x55F0, symBinAddr: 0x100096050, symSize: 0x70 }
  - { offsetInCU: 0x1366, offset: 0x29178D, size: 0x8, addend: 0x0, symName: '__ZN98_$LT$alloc..string..String$u20$as$u20$core..convert..From$LT$alloc..borrow..Cow$LT$str$GT$$GT$$GT$4from17hec4993baf6aa823bE', symObjAddr: 0x5140, symBinAddr: 0x10008B100, symSize: 0xB0 }
  - { offsetInCU: 0x14E7, offset: 0x29190E, size: 0x8, addend: 0x0, symName: __ZN5alloc6string6String15from_utf8_lossy17he3705d0cc87192c3E, symObjAddr: 0x3390, symBinAddr: 0x10008AEB0, symSize: 0x250 }
  - { offsetInCU: 0x1A40, offset: 0x291E67, size: 0x8, addend: 0x0, symName: '__ZN58_$LT$alloc..string..String$u20$as$u20$core..fmt..Write$GT$9write_str17h46a93205c3443fbaE', symObjAddr: 0x51F0, symBinAddr: 0x10008B1B0, symSize: 0x60 }
  - { offsetInCU: 0x1B25, offset: 0x291F4C, size: 0x8, addend: 0x0, symName: '__ZN58_$LT$alloc..string..String$u20$as$u20$core..fmt..Write$GT$10write_char17h04bc467bd68a934bE', symObjAddr: 0x5250, symBinAddr: 0x10008B210, symSize: 0x140 }
  - { offsetInCU: 0x1DA3, offset: 0x2921CA, size: 0x8, addend: 0x0, symName: '__ZN5alloc3str21_$LT$impl$u20$str$GT$12to_lowercase17hf9a2527cab4d1d87E', symObjAddr: 0x1A60, symBinAddr: 0x10008A150, symSize: 0xD60 }
  - { offsetInCU: 0x2F62, offset: 0x293389, size: 0x8, addend: 0x0, symName: '__ZN72_$LT$$RF$str$u20$as$u20$alloc..ffi..c_str..CString..new..SpecNewImpl$GT$13spec_new_impl17h0cf21b87e1c8da06E', symObjAddr: 0xDA0, symBinAddr: 0x100089D30, symSize: 0x0 }
  - { offsetInCU: 0x3166, offset: 0x29358D, size: 0x8, addend: 0x0, symName: __ZN5alloc3ffi5c_str7CString19_from_vec_unchecked17h3b0136e31afee425E, symObjAddr: 0x1030, symBinAddr: 0x100089E60, symSize: 0x120 }
  - { offsetInCU: 0x3443, offset: 0x29386A, size: 0x8, addend: 0x0, symName: '__ZN63_$LT$alloc..ffi..c_str..CString$u20$as$u20$core..fmt..Debug$GT$3fmt17h4ca98348388b7190E', symObjAddr: 0x1470, symBinAddr: 0x100089F80, symSize: 0x20 }
  - { offsetInCU: 0x3497, offset: 0x2938BE, size: 0x8, addend: 0x0, symName: __ZN5alloc3fmt6format12format_inner17hb1e808122341bcd9E, symObjAddr: 0x1840, symBinAddr: 0x100089FA0, symSize: 0x1B0 }
  - { offsetInCU: 0x36BA, offset: 0x293AE1, size: 0x8, addend: 0x0, symName: __ZN5alloc4sync32arcinner_layout_for_value_layout17hbeb03db793229b3bE, symObjAddr: 0x54A0, symBinAddr: 0x10008B350, symSize: 0x70 }
  - { offsetInCU: 0x36D9, offset: 0x293B00, size: 0x8, addend: 0x0, symName: __ZN5alloc4sync32arcinner_layout_for_value_layout17hbeb03db793229b3bE, symObjAddr: 0x54A0, symBinAddr: 0x10008B350, symSize: 0x70 }
  - { offsetInCU: 0x36EE, offset: 0x293B15, size: 0x8, addend: 0x0, symName: __ZN5alloc4sync32arcinner_layout_for_value_layout17hbeb03db793229b3bE, symObjAddr: 0x54A0, symBinAddr: 0x10008B350, symSize: 0x70 }
  - { offsetInCU: 0x3703, offset: 0x293B2A, size: 0x8, addend: 0x0, symName: __ZN5alloc4sync32arcinner_layout_for_value_layout17hbeb03db793229b3bE, symObjAddr: 0x54A0, symBinAddr: 0x10008B350, symSize: 0x70 }
  - { offsetInCU: 0x3718, offset: 0x293B3F, size: 0x8, addend: 0x0, symName: __ZN5alloc4sync32arcinner_layout_for_value_layout17hbeb03db793229b3bE, symObjAddr: 0x54A0, symBinAddr: 0x10008B350, symSize: 0x70 }
  - { offsetInCU: 0x1D6, offset: 0x293E01, size: 0x8, addend: 0x0, symName: '__ZN42_$LT$str$u20$as$u20$core..fmt..Display$GT$3fmt17h0fda321badf74e6aE', symObjAddr: 0xE5A0, symBinAddr: 0x10008D9A0, symSize: 0x20 }
  - { offsetInCU: 0x2A6, offset: 0x293ED1, size: 0x8, addend: 0x0, symName: __ZN4core3fmt9Formatter12pad_integral17h8972ffd3c8b0cfc1E, symObjAddr: 0xC730, symBinAddr: 0x10008C840, symSize: 0x4D0 }
  - { offsetInCU: 0x562, offset: 0x29418D, size: 0x8, addend: 0x0, symName: __ZN4core3fmt9Formatter3pad17h1cd3f01fe2fd2736E, symObjAddr: 0xCC60, symBinAddr: 0x10008CD70, symSize: 0x3F0 }
  - { offsetInCU: 0x9A1, offset: 0x2945CC, size: 0x8, addend: 0x0, symName: __ZN4core3fmt9Formatter9write_str17h0118ad48afc9d895E, symObjAddr: 0xD500, symBinAddr: 0x10008D160, symSize: 0x0 }
  - { offsetInCU: 0x9B5, offset: 0x2945E0, size: 0x8, addend: 0x0, symName: __ZN4core3fmt9Formatter12debug_struct17he2ba4147cf3f70c3E, symObjAddr: 0xD520, symBinAddr: 0x10008D180, symSize: 0x40 }
  - { offsetInCU: 0x9F3, offset: 0x29461E, size: 0x8, addend: 0x0, symName: __ZN4core3fmt9Formatter26debug_struct_field1_finish17hb39d7b9a28168dcfE, symObjAddr: 0xD560, symBinAddr: 0x10008D1C0, symSize: 0xB0 }
  - { offsetInCU: 0xACA, offset: 0x2946F5, size: 0x8, addend: 0x0, symName: __ZN4core3fmt9Formatter26debug_struct_field2_finish17hc06f7d961bd659acE, symObjAddr: 0xD610, symBinAddr: 0x10008D270, symSize: 0xD0 }
  - { offsetInCU: 0xBA1, offset: 0x2947CC, size: 0x8, addend: 0x0, symName: __ZN4core3fmt9Formatter11debug_tuple17hc8eb609d0a1a39baE, symObjAddr: 0xDAE0, symBinAddr: 0x10008D340, symSize: 0x50 }
  - { offsetInCU: 0xBFD, offset: 0x294828, size: 0x8, addend: 0x0, symName: __ZN4core3fmt9Formatter25debug_tuple_field1_finish17ha8c77f5d0334b7adE, symObjAddr: 0xDB30, symBinAddr: 0x10008D390, symSize: 0xD0 }
  - { offsetInCU: 0xCCA, offset: 0x2948F5, size: 0x8, addend: 0x0, symName: __ZN4core3fmt9Formatter25debug_tuple_field2_finish17ha9ef3726479f8c68E, symObjAddr: 0xDC00, symBinAddr: 0x10008D460, symSize: 0xE0 }
  - { offsetInCU: 0xD97, offset: 0x2949C2, size: 0x8, addend: 0x0, symName: __ZN4core3fmt9Formatter10debug_list17h06e79a079c85ca53E, symObjAddr: 0xE0E0, symBinAddr: 0x10008D540, symSize: 0x40 }
  - { offsetInCU: 0xDD6, offset: 0x294A01, size: 0x8, addend: 0x0, symName: __ZN4core3fmt9Formatter9debug_map17h3469674463d7ae0dE, symObjAddr: 0xE160, symBinAddr: 0x10008D580, symSize: 0x40 }
  - { offsetInCU: 0xE8E, offset: 0x294AB9, size: 0x8, addend: 0x0, symName: __ZN4core3fmt8builders11DebugStruct5field17h0ffe8fbe02645e65E, symObjAddr: 0x9620, symBinAddr: 0x10008BC80, symSize: 0x1B0 }
  - { offsetInCU: 0x109A, offset: 0x294CC5, size: 0x8, addend: 0x0, symName: __ZN4core3fmt8builders11DebugStruct21finish_non_exhaustive17hc4af8c553b814bedE, symObjAddr: 0x97D0, symBinAddr: 0x10008BE30, symSize: 0xB0 }
  - { offsetInCU: 0x11A9, offset: 0x294DD4, size: 0x8, addend: 0x0, symName: __ZN4core3fmt8builders11DebugStruct6finish17hee2e7ea1f7b53a47E, symObjAddr: 0x9880, symBinAddr: 0x10008BEE0, symSize: 0x60 }
  - { offsetInCU: 0x12B7, offset: 0x294EE2, size: 0x8, addend: 0x0, symName: '__ZN68_$LT$core..fmt..builders..PadAdapter$u20$as$u20$core..fmt..Write$GT$9write_str17hccc2b902801ed8d2E', symObjAddr: 0x9340, symBinAddr: 0x10008B9A0, symSize: 0x280 }
  - { offsetInCU: 0x14EE, offset: 0x295119, size: 0x8, addend: 0x0, symName: '__ZN68_$LT$core..fmt..builders..PadAdapter$u20$as$u20$core..fmt..Write$GT$10write_char17h0f9dfee2e64bcd77E', symObjAddr: 0x95C0, symBinAddr: 0x10008BC20, symSize: 0x60 }
  - { offsetInCU: 0x1575, offset: 0x2951A0, size: 0x8, addend: 0x0, symName: __ZN4core3fmt8builders10DebugTuple5field17h008439c0ac16da21E, symObjAddr: 0x98E0, symBinAddr: 0x10008BF40, symSize: 0x150 }
  - { offsetInCU: 0x16FE, offset: 0x295329, size: 0x8, addend: 0x0, symName: __ZN4core3fmt8builders10DebugTuple6finish17h09b759d26efe9a66E, symObjAddr: 0x9A30, symBinAddr: 0x10008C090, symSize: 0x90 }
  - { offsetInCU: 0x183E, offset: 0x295469, size: 0x8, addend: 0x0, symName: __ZN4core3fmt8builders8DebugSet5entry17h2d024717e11579e0E, symObjAddr: 0x9AC0, symBinAddr: 0x10008C120, symSize: 0x0 }
  - { offsetInCU: 0x19E9, offset: 0x295614, size: 0x8, addend: 0x0, symName: __ZN4core3fmt8builders9DebugList6finish17ha8368efce69978bfE, symObjAddr: 0x9C40, symBinAddr: 0x10008C260, symSize: 0x40 }
  - { offsetInCU: 0x1A4A, offset: 0x295675, size: 0x8, addend: 0x0, symName: __ZN4core3fmt8builders8DebugMap5entry17h2435c122f7a8c891E, symObjAddr: 0x9C80, symBinAddr: 0x10008C2A0, symSize: 0x30 }
  - { offsetInCU: 0x1A81, offset: 0x2956AC, size: 0x8, addend: 0x0, symName: __ZN4core3fmt8builders8DebugMap3key17hc9a1ee430dc8f9dcE, symObjAddr: 0x9CB0, symBinAddr: 0x10008C2D0, symSize: 0x1A0 }
  - { offsetInCU: 0x1C69, offset: 0x295894, size: 0x8, addend: 0x0, symName: __ZN4core3fmt8builders8DebugMap5value17hb130b1c3d3ab5c6eE, symObjAddr: 0x9E50, symBinAddr: 0x10008C470, symSize: 0x110 }
  - { offsetInCU: 0x1DA3, offset: 0x2959CE, size: 0x8, addend: 0x0, symName: __ZN4core3fmt8builders8DebugMap6finish17h0a03c9adbb3e147bE, symObjAddr: 0x9F60, symBinAddr: 0x10008C580, symSize: 0x80 }
  - { offsetInCU: 0x1EAD, offset: 0x295AD8, size: 0x8, addend: 0x0, symName: '__ZN57_$LT$core..fmt..Formatter$u20$as$u20$core..fmt..Write$GT$10write_char17h707d6fad029c4630E', symObjAddr: 0xE1A0, symBinAddr: 0x10008D5C0, symSize: 0x20 }
  - { offsetInCU: 0x1EDF, offset: 0x295B0A, size: 0x8, addend: 0x0, symName: __ZN4core3fmt5Write9write_fmt17h5d296d7037892cbdE, symObjAddr: 0xC4D0, symBinAddr: 0x10008C600, symSize: 0x20 }
  - { offsetInCU: 0x1F5D, offset: 0x295B88, size: 0x8, addend: 0x0, symName: '__ZN43_$LT$bool$u20$as$u20$core..fmt..Display$GT$3fmt17h31f488741a9d3280E', symObjAddr: 0xE1E0, symBinAddr: 0x10008D5E0, symSize: 0x40 }
  - { offsetInCU: 0x2071, offset: 0x295C9C, size: 0x8, addend: 0x0, symName: '__ZN4core3fmt3num3imp51_$LT$impl$u20$core..fmt..Display$u20$for$u20$u8$GT$3fmt17hd78e8ef4f3cd9c45E', symObjAddr: 0x1B0C0, symBinAddr: 0x100090A90, symSize: 0x90 }
  - { offsetInCU: 0x2116, offset: 0x295D41, size: 0x8, addend: 0x0, symName: '__ZN4core3fmt3num3imp52_$LT$impl$u20$core..fmt..Display$u20$for$u20$i32$GT$3fmt17h489d415102b22552E', symObjAddr: 0x1B340, symBinAddr: 0x100090B20, symSize: 0x130 }
  - { offsetInCU: 0x21BA, offset: 0x295DE5, size: 0x8, addend: 0x0, symName: '__ZN4core3fmt3num3imp52_$LT$impl$u20$core..fmt..Display$u20$for$u20$u32$GT$3fmt17hc40b7317ea9c81d1E', symObjAddr: 0x1B470, symBinAddr: 0x100090C50, symSize: 0x120 }
  - { offsetInCU: 0x225E, offset: 0x295E89, size: 0x8, addend: 0x0, symName: '__ZN4core3fmt3num3imp52_$LT$impl$u20$core..fmt..Display$u20$for$u20$u64$GT$3fmt17h2e9b6424619279b2E', symObjAddr: 0x1B6C0, symBinAddr: 0x100090D70, symSize: 0x0 }
  - { offsetInCU: 0x2316, offset: 0x295F41, size: 0x8, addend: 0x0, symName: '__ZN4core3fmt3num52_$LT$impl$u20$core..fmt..LowerHex$u20$for$u20$i8$GT$3fmt17h03e3df9ac0fd0464E', symObjAddr: 0x19D70, symBinAddr: 0x1000904B0, symSize: 0x0 }
  - { offsetInCU: 0x248B, offset: 0x2960B6, size: 0x8, addend: 0x0, symName: '__ZN4core3fmt3num52_$LT$impl$u20$core..fmt..UpperHex$u20$for$u20$i8$GT$3fmt17h6f0bde4771b4f009E', symObjAddr: 0x19E10, symBinAddr: 0x100090550, symSize: 0x0 }
  - { offsetInCU: 0x2613, offset: 0x29623E, size: 0x8, addend: 0x0, symName: '__ZN4core3fmt3num53_$LT$impl$u20$core..fmt..LowerHex$u20$for$u20$i32$GT$3fmt17hee7d14134452d6d7E', symObjAddr: 0x1A210, symBinAddr: 0x1000905F0, symSize: 0x0 }
  - { offsetInCU: 0x27A2, offset: 0x2963CD, size: 0x8, addend: 0x0, symName: '__ZN4core3fmt3num53_$LT$impl$u20$core..fmt..UpperHex$u20$for$u20$i32$GT$3fmt17hbfc0f68a02be4ca1E', symObjAddr: 0x1A2B0, symBinAddr: 0x100090690, symSize: 0x0 }
  - { offsetInCU: 0x291F, offset: 0x29654A, size: 0x8, addend: 0x0, symName: '__ZN4core3fmt3num53_$LT$impl$u20$core..fmt..LowerHex$u20$for$u20$i64$GT$3fmt17hbd90a137258b6cb9E', symObjAddr: 0x1A470, symBinAddr: 0x100090730, symSize: 0x0 }
  - { offsetInCU: 0x2AAE, offset: 0x2966D9, size: 0x8, addend: 0x0, symName: '__ZN4core3fmt3num53_$LT$impl$u20$core..fmt..UpperHex$u20$for$u20$i64$GT$3fmt17h62eb0ff735ecf1a0E', symObjAddr: 0x1A510, symBinAddr: 0x1000907D0, symSize: 0x0 }
  - { offsetInCU: 0x2C31, offset: 0x29685C, size: 0x8, addend: 0x0, symName: '__ZN4core3fmt3num52_$LT$impl$u20$core..fmt..Debug$u20$for$u20$usize$GT$3fmt17h9e5c63f85393f427E', symObjAddr: 0x1AE00, symBinAddr: 0x100090870, symSize: 0x220 }
  - { offsetInCU: 0x2F8D, offset: 0x296BB8, size: 0x8, addend: 0x0, symName: '__ZN59_$LT$core..fmt..Arguments$u20$as$u20$core..fmt..Display$GT$3fmt17h73b8fbb663c88c51E', symObjAddr: 0xC510, symBinAddr: 0x10008C620, symSize: 0x20 }
  - { offsetInCU: 0x2FBE, offset: 0x296BE9, size: 0x8, addend: 0x0, symName: __ZN4core3fmt5write17hace734add356d1f2E, symObjAddr: 0xC530, symBinAddr: 0x10008C640, symSize: 0x200 }
  - { offsetInCU: 0x31BA, offset: 0x296DE5, size: 0x8, addend: 0x0, symName: __ZN4core3fmt9Formatter12pad_integral12write_prefix17h09b544bef0610067E, symObjAddr: 0xCC00, symBinAddr: 0x10008CD10, symSize: 0x60 }
  - { offsetInCU: 0x3213, offset: 0x296E3E, size: 0x8, addend: 0x0, symName: '__ZN40_$LT$str$u20$as$u20$core..fmt..Debug$GT$3fmt17h59f79d374e7cce1eE', symObjAddr: 0xE220, symBinAddr: 0x10008D620, symSize: 0x380 }
  - { offsetInCU: 0x36CE, offset: 0x2972F9, size: 0x8, addend: 0x0, symName: '__ZN41_$LT$char$u20$as$u20$core..fmt..Debug$GT$3fmt17h183f5a1467d8dfe5E', symObjAddr: 0xE5C0, symBinAddr: 0x10008D9C0, symSize: 0x90 }
  - { offsetInCU: 0x37F5, offset: 0x297420, size: 0x8, addend: 0x0, symName: '__ZN43_$LT$char$u20$as$u20$core..fmt..Display$GT$3fmt17hf66ab4ff3899151dE', symObjAddr: 0xE650, symBinAddr: 0x10008DA50, symSize: 0xF0 }
  - { offsetInCU: 0x3814, offset: 0x29743F, size: 0x8, addend: 0x0, symName: '__ZN43_$LT$char$u20$as$u20$core..fmt..Display$GT$3fmt17hf66ab4ff3899151dE', symObjAddr: 0xE650, symBinAddr: 0x10008DA50, symSize: 0xF0 }
  - { offsetInCU: 0x3829, offset: 0x297454, size: 0x8, addend: 0x0, symName: '__ZN43_$LT$char$u20$as$u20$core..fmt..Display$GT$3fmt17hf66ab4ff3899151dE', symObjAddr: 0xE650, symBinAddr: 0x10008DA50, symSize: 0xF0 }
  - { offsetInCU: 0x38A7, offset: 0x2974D2, size: 0x8, addend: 0x0, symName: __ZN4core3fmt17pointer_fmt_inner17h0d3929dbbd6c7c2aE, symObjAddr: 0xE740, symBinAddr: 0x10008DB40, symSize: 0xE0 }
  - { offsetInCU: 0x3A5D, offset: 0x297688, size: 0x8, addend: 0x0, symName: '__ZN42_$LT$$RF$T$u20$as$u20$core..fmt..Debug$GT$3fmt17h1110e597aeb296f6E', symObjAddr: 0x1C7E0, symBinAddr: 0x100090E90, symSize: 0x20 }
  - { offsetInCU: 0x3A7E, offset: 0x2976A9, size: 0x8, addend: 0x0, symName: '__ZN44_$LT$$RF$T$u20$as$u20$core..fmt..Display$GT$3fmt17h96d8cf3f9cca3c56E', symObjAddr: 0x1C850, symBinAddr: 0x100090EB0, symSize: 0x20 }
  - { offsetInCU: 0x4117, offset: 0x297D42, size: 0x8, addend: 0x0, symName: '__ZN70_$LT$core..num..error..ParseIntError$u20$as$u20$core..fmt..Display$GT$3fmt17h51b21fd75960dddfE', symObjAddr: 0x4EC0, symBinAddr: 0x10008B3C0, symSize: 0x30 }
  - { offsetInCU: 0x415C, offset: 0x297D87, size: 0x8, addend: 0x0, symName: __ZN4core3num23from_str_radix_panic_rt17hb27af51eba7af9c9E, symObjAddr: 0x5170, symBinAddr: 0x10008B3F0, symSize: 0x60 }
  - { offsetInCU: 0x418C, offset: 0x297DB7, size: 0x8, addend: 0x0, symName: __ZN4core3num20from_str_radix_panic17h074f0c73331affbdE, symObjAddr: 0x51D0, symBinAddr: 0x1000960C0, symSize: 0x10 }
  - { offsetInCU: 0x42B2, offset: 0x297EDD, size: 0x8, addend: 0x0, symName: '__ZN4core3num21_$LT$impl$u20$u32$GT$14from_str_radix17h9cea532e04b64059E', symObjAddr: 0x173B0, symBinAddr: 0x1000902D0, symSize: 0x1E0 }
  - { offsetInCU: 0x43D4, offset: 0x297FFF, size: 0x8, addend: 0x0, symName: '__ZN4core3num60_$LT$impl$u20$core..str..traits..FromStr$u20$for$u20$i32$GT$8from_str17h79c481a4e7cd5a47E', symObjAddr: 0x160F0, symBinAddr: 0x10008FDB0, symSize: 0x10 }
  - { offsetInCU: 0x43F5, offset: 0x298020, size: 0x8, addend: 0x0, symName: '__ZN4core3num62_$LT$impl$u20$core..str..traits..FromStr$u20$for$u20$usize$GT$8from_str17h3e135b17ef7e316bE', symObjAddr: 0x16140, symBinAddr: 0x10008FDC0, symSize: 0xE0 }
  - { offsetInCU: 0x44DF, offset: 0x29810A, size: 0x8, addend: 0x0, symName: '__ZN4core3num60_$LT$impl$u20$core..str..traits..FromStr$u20$for$u20$u32$GT$8from_str17h7b5812006e843b29E', symObjAddr: 0x16400, symBinAddr: 0x10008FEA0, symSize: 0x100 }
  - { offsetInCU: 0x45B9, offset: 0x2981E4, size: 0x8, addend: 0x0, symName: '__ZN4core3num21_$LT$impl$u20$i32$GT$14from_str_radix17h10c18912586350acE', symObjAddr: 0x17080, symBinAddr: 0x10008FFA0, symSize: 0x330 }
  - { offsetInCU: 0x4A15, offset: 0x298640, size: 0x8, addend: 0x0, symName: __ZN4core5slice5index26slice_start_index_len_fail17hc2f78d08e3a7cf81E, symObjAddr: 0xF170, symBinAddr: 0x100096640, symSize: 0x70 }
  - { offsetInCU: 0x4A66, offset: 0x298691, size: 0x8, addend: 0x0, symName: __ZN4core5slice5index24slice_end_index_len_fail17h71b1f8e59c3fcdfeE, symObjAddr: 0xF1E0, symBinAddr: 0x1000966B0, symSize: 0x70 }
  - { offsetInCU: 0x4AB7, offset: 0x2986E2, size: 0x8, addend: 0x0, symName: __ZN4core5slice5index22slice_index_order_fail17h0140d9cf40fd68a5E, symObjAddr: 0xF250, symBinAddr: 0x100096720, symSize: 0x70 }
  - { offsetInCU: 0x5000, offset: 0x298C2B, size: 0x8, addend: 0x0, symName: '__ZN70_$LT$core..slice..ascii..EscapeAscii$u20$as$u20$core..fmt..Display$GT$3fmt17h3c3279277faa90edE', symObjAddr: 0xEDD0, symBinAddr: 0x10008DEA0, symSize: 0x350 }
  - { offsetInCU: 0x5537, offset: 0x299162, size: 0x8, addend: 0x0, symName: __ZN4core5slice6memchr14memchr_aligned17h133855cd69f468d3E, symObjAddr: 0xE910, symBinAddr: 0x10008DC20, symSize: 0xF0 }
  - { offsetInCU: 0x55EF, offset: 0x29921A, size: 0x8, addend: 0x0, symName: __ZN4core5slice6memchr7memrchr17hcb1ab2b7d3f88da3E, symObjAddr: 0xEA00, symBinAddr: 0x10008DD10, symSize: 0x110 }
  - { offsetInCU: 0x5797, offset: 0x2993C2, size: 0x8, addend: 0x0, symName: __ZN4core5slice4sort6stable5drift11sqrt_approx17h106640da2bd74303E, symObjAddr: 0xEB10, symBinAddr: 0x10008DE20, symSize: 0x30 }
  - { offsetInCU: 0x5814, offset: 0x29943F, size: 0x8, addend: 0x0, symName: __ZN4core5slice4sort6shared9smallsort22panic_on_ord_violation17h133d7f05205c4f20E, symObjAddr: 0xEB40, symBinAddr: 0x10008DE50, symSize: 0x50 }
  - { offsetInCU: 0x5C43, offset: 0x29986E, size: 0x8, addend: 0x0, symName: __ZN4core6option13unwrap_failed17hf0ce88b8039e6075E, symObjAddr: 0x89E0, symBinAddr: 0x100096130, symSize: 0x20 }
  - { offsetInCU: 0x5C5E, offset: 0x299889, size: 0x8, addend: 0x0, symName: __ZN4core6option13expect_failed17h5435a7ff7a2acd97E, symObjAddr: 0x8A00, symBinAddr: 0x100096150, symSize: 0x60 }
  - { offsetInCU: 0x5CF7, offset: 0x299922, size: 0x8, addend: 0x0, symName: '__ZN71_$LT$core..ops..range..Range$LT$Idx$GT$$u20$as$u20$core..fmt..Debug$GT$3fmt17h08592e28b763072aE', symObjAddr: 0x5330, symBinAddr: 0x10008B450, symSize: 0x50 }
  - { offsetInCU: 0x6078, offset: 0x299CA3, size: 0x8, addend: 0x0, symName: __ZN4core6result13unwrap_failed17had190471c291bd03E, symObjAddr: 0x9240, symBinAddr: 0x1000965C0, symSize: 0x80 }
  - { offsetInCU: 0x61AC, offset: 0x299DD7, size: 0x8, addend: 0x0, symName: '__ZN63_$LT$core..cell..BorrowMutError$u20$as$u20$core..fmt..Debug$GT$3fmt17hf4f968fd2f533c90E', symObjAddr: 0x5830, symBinAddr: 0x10008B4A0, symSize: 0x20 }
  - { offsetInCU: 0x6209, offset: 0x299E34, size: 0x8, addend: 0x0, symName: __ZN4core4cell22panic_already_borrowed17ha9b6b30d2a6c1da3E, symObjAddr: 0x5870, symBinAddr: 0x1000960D0, symSize: 0x60 }
  - { offsetInCU: 0x62B3, offset: 0x299EDE, size: 0x8, addend: 0x0, symName: '__ZN4core4char7methods22_$LT$impl$u20$char$GT$16escape_debug_ext17h45343360e0479290E', symObjAddr: 0x59F0, symBinAddr: 0x10008B4C0, symSize: 0x2C0 }
  - { offsetInCU: 0x6598, offset: 0x29A1C3, size: 0x8, addend: 0x0, symName: __ZN4core7unicode12unicode_data15grapheme_extend11lookup_slow17hcf452ea06c1dd27eE, symObjAddr: 0x1E000, symBinAddr: 0x1000911A0, symSize: 0x160 }
  - { offsetInCU: 0x6821, offset: 0x29A44C, size: 0x8, addend: 0x0, symName: __ZN4core7unicode12unicode_data14case_ignorable6lookup17hdcb87ab1b7068aeaE, symObjAddr: 0x1DD30, symBinAddr: 0x100090ED0, symSize: 0x160 }
  - { offsetInCU: 0x6A5A, offset: 0x29A685, size: 0x8, addend: 0x0, symName: __ZN4core7unicode12unicode_data5cased6lookup17h0dfd6987b861e445E, symObjAddr: 0x1DE90, symBinAddr: 0x100091030, symSize: 0x150 }
  - { offsetInCU: 0x6C7B, offset: 0x29A8A6, size: 0x8, addend: 0x0, symName: __ZN4core7unicode12unicode_data2cc6lookup17ha8c997d3d336cb8fE, symObjAddr: 0x1DFE0, symBinAddr: 0x100091180, symSize: 0x20 }
  - { offsetInCU: 0x6CF8, offset: 0x29A923, size: 0x8, addend: 0x0, symName: __ZN4core7unicode12unicode_data11conversions8to_lower17hc6bff29db46f3ad0E, symObjAddr: 0x1E4A0, symBinAddr: 0x100091300, symSize: 0x140 }
  - { offsetInCU: 0x6D17, offset: 0x29A942, size: 0x8, addend: 0x0, symName: __ZN4core7unicode12unicode_data11conversions8to_lower17hc6bff29db46f3ad0E, symObjAddr: 0x1E4A0, symBinAddr: 0x100091300, symSize: 0x140 }
  - { offsetInCU: 0x6E45, offset: 0x29AA70, size: 0x8, addend: 0x0, symName: __ZN4core7unicode9printable5check17h9aa6e320d7115c02E, symObjAddr: 0x12090, symBinAddr: 0x10008FB60, symSize: 0x120 }
  - { offsetInCU: 0x7083, offset: 0x29ACAE, size: 0x8, addend: 0x0, symName: __ZN4core7unicode9printable12is_printable17h5397384c9e262cd0E, symObjAddr: 0x121B0, symBinAddr: 0x10008FC80, symSize: 0x130 }
  - { offsetInCU: 0x70AE, offset: 0x29ACD9, size: 0x8, addend: 0x0, symName: '__ZN59_$LT$core..ffi..c_str..CStr$u20$as$u20$core..fmt..Debug$GT$3fmt17hb6d8d916dc07a04fE', symObjAddr: 0x5EA0, symBinAddr: 0x10008B780, symSize: 0x80 }
  - { offsetInCU: 0x714D, offset: 0x29AD78, size: 0x8, addend: 0x0, symName: __ZN4core3ffi5c_str4CStr19from_bytes_with_nul17h192dd45a613e8c2dE, symObjAddr: 0x60D0, symBinAddr: 0x10008B800, symSize: 0x120 }
  - { offsetInCU: 0x7210, offset: 0x29AE3B, size: 0x8, addend: 0x0, symName: __ZN4core9panicking9panic_fmt17had5c0183b828cb49E, symObjAddr: 0x8BD0, symBinAddr: 0x1000961B0, symSize: 0x50 }
  - { offsetInCU: 0x7252, offset: 0x29AE7D, size: 0x8, addend: 0x0, symName: __ZN4core9panicking18panic_nounwind_fmt17hb4571fb78fc10a76E, symObjAddr: 0x8C20, symBinAddr: 0x100096200, symSize: 0x60 }
  - { offsetInCU: 0x7296, offset: 0x29AEC1, size: 0x8, addend: 0x0, symName: __ZN4core9panicking5panic17hf0e1cc2ca8e1dc83E, symObjAddr: 0x8C80, symBinAddr: 0x100096260, symSize: 0x50 }
  - { offsetInCU: 0x72C5, offset: 0x29AEF0, size: 0x8, addend: 0x0, symName: __ZN4core9panicking14panic_nounwind17ha12d9e403b05feccE, symObjAddr: 0x8CD0, symBinAddr: 0x1000962B0, symSize: 0x50 }
  - { offsetInCU: 0x72F4, offset: 0x29AF1F, size: 0x8, addend: 0x0, symName: __ZN4core9panicking26panic_nounwind_nobacktrace17h5f1522f9c13eafe4E, symObjAddr: 0x8D20, symBinAddr: 0x100096300, symSize: 0x50 }
  - { offsetInCU: 0x7323, offset: 0x29AF4E, size: 0x8, addend: 0x0, symName: __ZN4core9panicking18panic_bounds_check17h109fe50f98469fc4E, symObjAddr: 0x8DD0, symBinAddr: 0x100096350, symSize: 0x70 }
  - { offsetInCU: 0x7353, offset: 0x29AF7E, size: 0x8, addend: 0x0, symName: __ZN4core9panicking19panic_cannot_unwind17h4b15d87e2e2757a8E, symObjAddr: 0x8F20, symBinAddr: 0x1000963C0, symSize: 0x20 }
  - { offsetInCU: 0x736E, offset: 0x29AF99, size: 0x8, addend: 0x0, symName: __ZN4core9panicking16panic_in_cleanup17hc82a6604fb78741fE, symObjAddr: 0x8F40, symBinAddr: 0x1000963E0, symSize: 0x20 }
  - { offsetInCU: 0x7389, offset: 0x29AFB4, size: 0x8, addend: 0x0, symName: __ZN4core9panicking19assert_failed_inner17he0737abe7f31c06cE, symObjAddr: 0x9080, symBinAddr: 0x100096400, symSize: 0x1C0 }
  - { offsetInCU: 0x73D2, offset: 0x29AFFD, size: 0x8, addend: 0x0, symName: __ZN4core9panicking11panic_const23panic_const_div_by_zero17h1ba33e25180c9760E, symObjAddr: 0x18650, symBinAddr: 0x1000967E0, symSize: 0x40 }
  - { offsetInCU: 0x7401, offset: 0x29B02C, size: 0x8, addend: 0x0, symName: __ZN4core9panicking11panic_const23panic_const_rem_by_zero17hddb47ddab6d21ac2E, symObjAddr: 0x18690, symBinAddr: 0x100096820, symSize: 0x40 }
  - { offsetInCU: 0x7430, offset: 0x29B05B, size: 0x8, addend: 0x0, symName: __ZN4core9panicking11panic_const28panic_const_async_fn_resumed17h113a39c47fe248f9E, symObjAddr: 0x18710, symBinAddr: 0x100096860, symSize: 0x40 }
  - { offsetInCU: 0x745F, offset: 0x29B08A, size: 0x8, addend: 0x0, symName: __ZN4core9panicking11panic_const34panic_const_async_fn_resumed_panic17h0d35ddf841ba6435E, symObjAddr: 0x18810, symBinAddr: 0x1000968A0, symSize: 0x40 }
  - { offsetInCU: 0x749F, offset: 0x29B0CA, size: 0x8, addend: 0x0, symName: '__ZN70_$LT$core..panic..location..Location$u20$as$u20$core..fmt..Display$GT$3fmt17h3b775daa4da0c84fE', symObjAddr: 0x8A60, symBinAddr: 0x10008B920, symSize: 0x80 }
  - { offsetInCU: 0x7630, offset: 0x29B25B, size: 0x8, addend: 0x0, symName: __ZN4core3str7pattern11StrSearcher3new17hc777094db0ba1f96E, symObjAddr: 0x10220, symBinAddr: 0x10008EA80, symSize: 0x640 }
  - { offsetInCU: 0x7A2A, offset: 0x29B655, size: 0x8, addend: 0x0, symName: __ZN4core3str5count14do_count_chars17ha3390eb253e30d2dE, symObjAddr: 0xF8D0, symBinAddr: 0x10008E400, symSize: 0x5C0 }
  - { offsetInCU: 0x7DF6, offset: 0x29BA21, size: 0x8, addend: 0x0, symName: __ZN4core3str5count23char_count_general_case17h70df39afcdec0f69E, symObjAddr: 0xFE90, symBinAddr: 0x10008E9C0, symSize: 0xC0 }
  - { offsetInCU: 0x7E4A, offset: 0x29BA75, size: 0x8, addend: 0x0, symName: __ZN4core3str5count23char_count_general_case17h70df39afcdec0f69E, symObjAddr: 0xFE90, symBinAddr: 0x10008E9C0, symSize: 0xC0 }
  - { offsetInCU: 0x7FCD, offset: 0x29BBF8, size: 0x8, addend: 0x0, symName: __ZN4core3str6traits23str_index_overflow_fail17hca1c64009da7550cE, symObjAddr: 0x101E0, symBinAddr: 0x100096790, symSize: 0x40 }
  - { offsetInCU: 0x8040, offset: 0x29BC6B, size: 0x8, addend: 0x0, symName: __ZN4core3str8converts9from_utf817hbfae1c12ba0f752dE, symObjAddr: 0xF4B0, symBinAddr: 0x10008E1F0, symSize: 0x210 }
  - { offsetInCU: 0x809B, offset: 0x29BCC6, size: 0x8, addend: 0x0, symName: '__ZN60_$LT$core..str..lossy..Debug$u20$as$u20$core..fmt..Debug$GT$3fmt17hf822cb67c4d76da7E', symObjAddr: 0x10860, symBinAddr: 0x10008F0C0, symSize: 0x4C0 }
  - { offsetInCU: 0x84FB, offset: 0x29C126, size: 0x8, addend: 0x0, symName: '__ZN87_$LT$core..str..lossy..Utf8Chunks$u20$as$u20$core..iter..traits..iterator..Iterator$GT$4next17h3143161bfe02572dE', symObjAddr: 0x10D20, symBinAddr: 0x10008F580, symSize: 0x1C0 }
  - { offsetInCU: 0x86F4, offset: 0x29C31F, size: 0x8, addend: 0x0, symName: __ZN4core3str16slice_error_fail17h37538355c87ca0baE, symObjAddr: 0x10FA0, symBinAddr: 0x1000967D0, symSize: 0x10 }
  - { offsetInCU: 0x870E, offset: 0x29C339, size: 0x8, addend: 0x0, symName: __ZN4core3str19slice_error_fail_rt17h799bbeb831541f16E, symObjAddr: 0x10FF0, symBinAddr: 0x10008F740, symSize: 0x420 }
...
