---
triple:          'x86_64-apple-darwin'
binary-path:     "/Users/justinlanouette/Chaos/ChaöS-Token/hello_world/target/release/deps/libborsh_derive-5385cf10fdf43755.dylib"
relocations:
  - { offsetInCU: 0x1E, offset: 0x1E, size: 0x8, addend: 0x0, symName: '__ZN4core3ptr100drop_in_place$LT$core..option..Option$LT$alloc..boxed..Box$LT$syn..path..GenericArgument$GT$$GT$$GT$17h513ef87717aedfddE', symObjAddr: 0x0, symBinAddr: 0x1D50, symSize: 0x50 }
  - { offsetInCU: 0x1D1A, offset: 0x1D1A, size: 0x8, addend: 0x0, symName: '__ZN4core3ptr100drop_in_place$LT$core..option..Option$LT$alloc..boxed..Box$LT$syn..path..GenericArgument$GT$$GT$$GT$17h513ef87717aedfddE', symObjAddr: 0x0, symBinAddr: 0x1D50, symSize: 0x50 }
  - { offsetInCU: 0x20BA, offset: 0x20BA, size: 0x8, addend: 0x0, symName: '__ZN4core3ptr100drop_in_place$LT$syn..punctuated..Punctuated$LT$syn..path..PathSegment$C$syn..token..PathSep$GT$$GT$17hd0d4e322634cba5dE.llvm.16835668965531107609', symObjAddr: 0x50, symBinAddr: 0x1DA0, symSize: 0x280 }
  - { offsetInCU: 0x2B67, offset: 0x2B67, size: 0x8, addend: 0x0, symName: '__ZN4core3ptr103drop_in_place$LT$core..option..Option$LT$alloc..boxed..Box$LT$syn..generics..TypeParamBound$GT$$GT$$GT$17h0d79b9ffb4171f90E', symObjAddr: 0x2D0, symBinAddr: 0x2020, symSize: 0x50 }
  - { offsetInCU: 0x2D74, offset: 0x2D74, size: 0x8, addend: 0x0, symName: '__ZN4core3ptr103drop_in_place$LT$syn..punctuated..Punctuated$LT$syn..generics..GenericParam$C$syn..token..Comma$GT$$GT$17h1d35d7d5913e8beaE', symObjAddr: 0x320, symBinAddr: 0x2070, symSize: 0xF0 }
  - { offsetInCU: 0x3237, offset: 0x3237, size: 0x8, addend: 0x0, symName: '__ZN4core3ptr104drop_in_place$LT$syn..punctuated..Punctuated$LT$syn..generics..TypeParamBound$C$syn..token..Plus$GT$$GT$17h44083f960cd822d7E', symObjAddr: 0x410, symBinAddr: 0x2160, symSize: 0x190 }
  - { offsetInCU: 0x384D, offset: 0x384D, size: 0x8, addend: 0x0, symName: '__ZN4core3ptr135drop_in_place$LT$$LP$borsh_derive..internals..attributes..Symbol$C$borsh_derive..internals..attributes..field..bounds..Variants$RP$$GT$17h4715ad7ad2a9798aE', symObjAddr: 0x5A0, symBinAddr: 0x22F0, symSize: 0x140 }
  - { offsetInCU: 0x3C2A, offset: 0x3C2A, size: 0x8, addend: 0x0, symName: '__ZN4core3ptr34drop_in_place$LT$syn..lit..Lit$GT$17h3e4ef73f9d6504faE', symObjAddr: 0x6E0, symBinAddr: 0x2430, symSize: 0x110 }
  - { offsetInCU: 0x4164, offset: 0x4164, size: 0x8, addend: 0x0, symName: '__ZN4core3ptr34drop_in_place$LT$syn..pat..Pat$GT$17hf99e10cab020967aE', symObjAddr: 0x7F0, symBinAddr: 0x2540, symSize: 0xEB0 }
  - { offsetInCU: 0x7A56, offset: 0x7A56, size: 0x8, addend: 0x0, symName: '__ZN4core3ptr34drop_in_place$LT$syn..ty..Type$GT$17hc9a287e6412cf4a5E.llvm.16835668965531107609', symObjAddr: 0x16A0, symBinAddr: 0x33F0, symSize: 0x510 }
  - { offsetInCU: 0x90B5, offset: 0x90B5, size: 0x8, addend: 0x0, symName: '__ZN4core3ptr36drop_in_place$LT$syn..expr..Expr$GT$17hbea3b059aebc6b0dE', symObjAddr: 0x1BB0, symBinAddr: 0x3900, symSize: 0x2790 }
  - { offsetInCU: 0x128FB, offset: 0x128FB, size: 0x8, addend: 0x0, symName: '__ZN4core3ptr36drop_in_place$LT$syn..mac..Macro$GT$17haa1481cb4fe5d660E', symObjAddr: 0x4340, symBinAddr: 0x6090, symSize: 0x40 }
  - { offsetInCU: 0x12935, offset: 0x12935, size: 0x8, addend: 0x0, symName: '__ZN4core3ptr36drop_in_place$LT$syn..path..Path$GT$17hb26ddc646911d9caE', symObjAddr: 0x4380, symBinAddr: 0x60D0, symSize: 0x240 }
  - { offsetInCU: 0x1337E, offset: 0x1337E, size: 0x8, addend: 0x0, symName: '__ZN4core3ptr37drop_in_place$LT$syn..path..QSelf$GT$17hf59f2cf7f4703e2eE.llvm.16835668965531107609', symObjAddr: 0x45C0, symBinAddr: 0x6310, symSize: 0x50 }
  - { offsetInCU: 0x134F8, offset: 0x134F8, size: 0x8, addend: 0x0, symName: '__ZN4core3ptr37drop_in_place$LT$syn..stmt..Block$GT$17h9bb04bc412e892c1E', symObjAddr: 0x4610, symBinAddr: 0x6360, symSize: 0xD0 }
  - { offsetInCU: 0x1379C, offset: 0x1379C, size: 0x8, addend: 0x0, symName: '__ZN4core3ptr387drop_in_place$LT$alloc..boxed..Box$LT$dyn$u20$core..ops..function..Fn$LT$$LP$borsh_derive..internals..attributes..Symbol$C$borsh_derive..internals..attributes..Symbol$C$$RF$syn..meta..ParseNestedMeta$RP$$GT$$u2b$Output$u20$$u3d$$u20$core..result..Result$LT$borsh_derive..internals..attributes..field..Variants$C$syn..error..Error$GT$$u2b$core..marker..Send$u2b$core..marker..Sync$GT$$GT$17h8c1b69e85669489aE.llvm.16835668965531107609', symObjAddr: 0x46E0, symBinAddr: 0x6430, symSize: 0x0 }
  - { offsetInCU: 0x13997, offset: 0x13997, size: 0x8, addend: 0x0, symName: '__ZN4core3ptr38drop_in_place$LT$syn..expr..Member$GT$17h54f73fbfaef06080E', symObjAddr: 0x4740, symBinAddr: 0x6490, symSize: 0x30 }
  - { offsetInCU: 0x13A94, offset: 0x13A94, size: 0x8, addend: 0x0, symName: '__ZN4core3ptr39drop_in_place$LT$proc_macro2..Ident$GT$17h9d68045e9dec4a40E', symObjAddr: 0x4770, symBinAddr: 0x64C0, symSize: 0x30 }
  - { offsetInCU: 0x13B72, offset: 0x13B72, size: 0x8, addend: 0x0, symName: '__ZN4core3ptr40drop_in_place$LT$syn..expr..ExprPath$GT$17h0115980c8ec091a0E.llvm.16835668965531107609', symObjAddr: 0x47A0, symBinAddr: 0x64F0, symSize: 0x110 }
  - { offsetInCU: 0x14037, offset: 0x14037, size: 0x8, addend: 0x0, symName: '__ZN4core3ptr40drop_in_place$LT$syn..ty..ReturnType$GT$17h4a68005bbc507217E', symObjAddr: 0x48B0, symBinAddr: 0x6600, symSize: 0x50 }
  - { offsetInCU: 0x141A9, offset: 0x141A9, size: 0x8, addend: 0x0, symName: '__ZN4core3ptr41drop_in_place$LT$syn..expr..ExprConst$GT$17h454a2cb9df850c24E', symObjAddr: 0x4900, symBinAddr: 0x6650, symSize: 0x180 }
  - { offsetInCU: 0x14751, offset: 0x14751, size: 0x8, addend: 0x0, symName: '__ZN4core3ptr441drop_in_place$LT$$LP$borsh_derive..internals..attributes..Symbol$C$alloc..boxed..Box$LT$dyn$u20$core..ops..function..Fn$LT$$LP$borsh_derive..internals..attributes..Symbol$C$borsh_derive..internals..attributes..Symbol$C$$RF$syn..meta..ParseNestedMeta$RP$$GT$$u2b$Output$u20$$u3d$$u20$core..result..Result$LT$borsh_derive..internals..attributes..field..Variants$C$syn..error..Error$GT$$u2b$core..marker..Send$u2b$core..marker..Sync$GT$$RP$$GT$17haf0aedd6536284c6E', symObjAddr: 0x4A80, symBinAddr: 0x67D0, symSize: 0x60 }
  - { offsetInCU: 0x1496D, offset: 0x1496D, size: 0x8, addend: 0x0, symName: '__ZN4core3ptr44drop_in_place$LT$syn..lifetime..Lifetime$GT$17h9c301554489a697eE', symObjAddr: 0x4AE0, symBinAddr: 0x6830, symSize: 0x30 }
  - { offsetInCU: 0x14BA0, offset: 0x14BA0, size: 0x8, addend: 0x0, symName: '__ZN4core3ptr45drop_in_place$LT$proc_macro2..TokenStream$GT$17h86cac592f04212eaE', symObjAddr: 0x4B10, symBinAddr: 0x6860, symSize: 0x140 }
  - { offsetInCU: 0x1500F, offset: 0x1500F, size: 0x8, addend: 0x0, symName: '__ZN4core3ptr45drop_in_place$LT$syn..generics..TypeParam$GT$17he645f7cc80b7ae11E', symObjAddr: 0x4C50, symBinAddr: 0x69A0, symSize: 0x230 }
  - { offsetInCU: 0x1583F, offset: 0x1583F, size: 0x8, addend: 0x0, symName: '__ZN4core3ptr46drop_in_place$LT$syn..generics..ConstParam$GT$17hc19d519d6441178aE', symObjAddr: 0x4E80, symBinAddr: 0x6BD0, symSize: 0x150 }
  - { offsetInCU: 0x15C9D, offset: 0x15C9D, size: 0x8, addend: 0x0, symName: '__ZN4core3ptr47drop_in_place$LT$syn..path..GenericArgument$GT$17ha7ad17cb38a1a5afE', symObjAddr: 0x4FD0, symBinAddr: 0x6D20, symSize: 0x4A0 }
  - { offsetInCU: 0x16D44, offset: 0x16D44, size: 0x8, addend: 0x0, symName: '__ZN4core3ptr49drop_in_place$LT$syn..generics..LifetimeParam$GT$17h47d9f9e81b35a3dcE', symObjAddr: 0x5470, symBinAddr: 0x71C0, symSize: 0xF0 }
  - { offsetInCU: 0x17132, offset: 0x17132, size: 0x8, addend: 0x0, symName: '__ZN4core3ptr50drop_in_place$LT$syn..generics..TypeParamBound$GT$17h7c1195cdfd37b73cE', symObjAddr: 0x5560, symBinAddr: 0x72B0, symSize: 0x1A0 }
  - { offsetInCU: 0x17666, offset: 0x17666, size: 0x8, addend: 0x0, symName: '__ZN4core3ptr58drop_in_place$LT$alloc..vec..Vec$LT$syn..expr..Arm$GT$$GT$17ha648d1896dec8b4dE', symObjAddr: 0x5700, symBinAddr: 0x7450, symSize: 0xD0 }
  - { offsetInCU: 0x178F3, offset: 0x178F3, size: 0x8, addend: 0x0, symName: '__ZN4core3ptr59drop_in_place$LT$alloc..boxed..Box$LT$syn..pat..Pat$GT$$GT$17hfa860577679c86cbE', symObjAddr: 0x57D0, symBinAddr: 0x7520, symSize: 0x50 }
  - { offsetInCU: 0x17A4E, offset: 0x17A4E, size: 0x8, addend: 0x0, symName: '__ZN4core3ptr59drop_in_place$LT$alloc..boxed..Box$LT$syn..ty..Type$GT$$GT$17hce35c4b60063cd1fE', symObjAddr: 0x5820, symBinAddr: 0x7570, symSize: 0x50 }
  - { offsetInCU: 0x17BA9, offset: 0x17BA9, size: 0x8, addend: 0x0, symName: '__ZN4core3ptr61drop_in_place$LT$alloc..boxed..Box$LT$syn..expr..Expr$GT$$GT$17h35b8f1409a9ab85bE', symObjAddr: 0x5870, symBinAddr: 0x75C0, symSize: 0x50 }
  - { offsetInCU: 0x17D80, offset: 0x17D80, size: 0x8, addend: 0x0, symName: '__ZN4core3ptr61drop_in_place$LT$syn..path..ParenthesizedGenericArguments$GT$17h6d1a096952b83c04E', symObjAddr: 0x58C0, symBinAddr: 0x7610, symSize: 0x170 }
  - { offsetInCU: 0x18347, offset: 0x18347, size: 0x8, addend: 0x0, symName: '__ZN4core3ptr62drop_in_place$LT$syn..path..AngleBracketedGenericArguments$GT$17h1e2e2310287487b5E', symObjAddr: 0x5A30, symBinAddr: 0x7780, symSize: 0x120 }
  - { offsetInCU: 0x1875D, offset: 0x1875D, size: 0x8, addend: 0x0, symName: '__ZN4core3ptr63drop_in_place$LT$alloc..boxed..Box$LT$syn..lit..LitRepr$GT$$GT$17h4a54b8c5cd42faf5E', symObjAddr: 0x5B50, symBinAddr: 0x78A0, symSize: 0x60 }
  - { offsetInCU: 0x18A52, offset: 0x18A52, size: 0x8, addend: 0x0, symName: '__ZN4core3ptr64drop_in_place$LT$alloc..boxed..Box$LT$syn..pat..FieldPat$GT$$GT$17hf3d389ef82c9f10bE', symObjAddr: 0x5BB0, symBinAddr: 0x7900, symSize: 0x140 }
  - { offsetInCU: 0x19131, offset: 0x19131, size: 0x8, addend: 0x0, symName: '__ZN4core3ptr64drop_in_place$LT$alloc..boxed..Box$LT$syn..ty..BareFnArg$GT$$GT$17hc862ec57eebf1a54E', symObjAddr: 0x5CF0, symBinAddr: 0x7A40, symSize: 0x140 }
  - { offsetInCU: 0x19689, offset: 0x19689, size: 0x8, addend: 0x0, symName: '__ZN4core3ptr65drop_in_place$LT$core..option..Option$LT$syn..expr..Label$GT$$GT$17hfc626d17a1d0054dE', symObjAddr: 0x5E30, symBinAddr: 0x7B80, symSize: 0x30 }
  - { offsetInCU: 0x197C4, offset: 0x197C4, size: 0x8, addend: 0x0, symName: '__ZN4core3ptr65drop_in_place$LT$core..option..Option$LT$syn..path..QSelf$GT$$GT$17h31a3e5c39e677989E', symObjAddr: 0x5E60, symBinAddr: 0x7BB0, symSize: 0x50 }
  - { offsetInCU: 0x1995D, offset: 0x1995D, size: 0x8, addend: 0x0, symName: '__ZN4core3ptr66drop_in_place$LT$core..option..Option$LT$syn..pat..PatRest$GT$$GT$17hba8f4d9198c0dabcE', symObjAddr: 0x5EB0, symBinAddr: 0x7C00, symSize: 0xE0 }
  - { offsetInCU: 0x19C15, offset: 0x19C15, size: 0x8, addend: 0x0, symName: '__ZN4core3ptr67drop_in_place$LT$alloc..boxed..Box$LT$syn..expr..FieldValue$GT$$GT$17h1fe00f656b5bc41eE', symObjAddr: 0x5F90, symBinAddr: 0x7CE0, symSize: 0x140 }
  - { offsetInCU: 0x1A14D, offset: 0x1A14D, size: 0x8, addend: 0x0, symName: '__ZN4core3ptr68drop_in_place$LT$alloc..boxed..Box$LT$syn..path..PathSegment$GT$$GT$17hdf3e53c9442c6d12E', symObjAddr: 0x60D0, symBinAddr: 0x7E20, symSize: 0x190 }
  - { offsetInCU: 0x1A82B, offset: 0x1A82B, size: 0x8, addend: 0x0, symName: '__ZN4core3ptr70drop_in_place$LT$core..option..Option$LT$syn..ty..BareVariadic$GT$$GT$17hf6aaee8d5112d370E', symObjAddr: 0x6260, symBinAddr: 0x7FB0, symSize: 0x120 }
  - { offsetInCU: 0x1AD8C, offset: 0x1AD8C, size: 0x8, addend: 0x0, symName: '__ZN4core3ptr72drop_in_place$LT$alloc..boxed..Box$LT$syn..path..GenericArgument$GT$$GT$17hc3f5a13c594d53a1E', symObjAddr: 0x6380, symBinAddr: 0x80D0, symSize: 0x1D0 }
  - { offsetInCU: 0x1B32F, offset: 0x1B32F, size: 0x8, addend: 0x0, symName: '__ZN4core3ptr72drop_in_place$LT$core..option..Option$LT$syn..lifetime..Lifetime$GT$$GT$17hf02c2376eaf0703fE', symObjAddr: 0x6550, symBinAddr: 0x82A0, symSize: 0x30 }
  - { offsetInCU: 0x1B44B, offset: 0x1B44B, size: 0x8, addend: 0x0, symName: '__ZN4core3ptr73drop_in_place$LT$alloc..boxed..Box$LT$syn..generics..GenericParam$GT$$GT$17hbb1f35d2f323630eE', symObjAddr: 0x6580, symBinAddr: 0x82D0, symSize: 0x80 }
  - { offsetInCU: 0x1B6DA, offset: 0x1B6DA, size: 0x8, addend: 0x0, symName: '__ZN4core3ptr73drop_in_place$LT$borsh_derive..internals..attributes..field..Variants$GT$17ha647a4b68e747d93E.llvm.16835668965531107609', symObjAddr: 0x6600, symBinAddr: 0x8350, symSize: 0x2D0 }
  - { offsetInCU: 0x1BEBC, offset: 0x1BEBC, size: 0x8, addend: 0x0, symName: '__ZN4core3ptr75drop_in_place$LT$alloc..boxed..Box$LT$syn..generics..TypeParamBound$GT$$GT$17h06d020fd356eb6c8E', symObjAddr: 0x68D0, symBinAddr: 0x8620, symSize: 0xB0 }
  - { offsetInCU: 0x1C1BA, offset: 0x1C1BA, size: 0x8, addend: 0x0, symName: '__ZN4core3ptr81drop_in_place$LT$borsh_derive..internals..attributes..field..bounds..Variants$GT$17h2ab852b57316fbb6E.llvm.16835668965531107609', symObjAddr: 0x6980, symBinAddr: 0x86D0, symSize: 0x140 }
  - { offsetInCU: 0x1C477, offset: 0x1C477, size: 0x8, addend: 0x0, symName: '__ZN4core3ptr81drop_in_place$LT$borsh_derive..internals..attributes..field..schema..Variants$GT$17h18e6a1ca34fc24b7E.llvm.16835668965531107609', symObjAddr: 0x6AC0, symBinAddr: 0x8810, symSize: 0xC0 }
  - { offsetInCU: 0x1C755, offset: 0x1C755, size: 0x8, addend: 0x0, symName: '__ZN4core3ptr86drop_in_place$LT$syn..punctuated..Punctuated$LT$syn..pat..Pat$C$syn..token..Or$GT$$GT$17h1c252cd869cc7fe5E', symObjAddr: 0x6B80, symBinAddr: 0x88D0, symSize: 0x120 }
  - { offsetInCU: 0x1CB9B, offset: 0x1CB9B, size: 0x8, addend: 0x0, symName: '__ZN4core3ptr87drop_in_place$LT$core..option..Option$LT$alloc..boxed..Box$LT$syn..pat..Pat$GT$$GT$$GT$17h72bab185bf1bb06eE', symObjAddr: 0x6CA0, symBinAddr: 0x89F0, symSize: 0x50 }
  - { offsetInCU: 0x1CD0D, offset: 0x1CD0D, size: 0x8, addend: 0x0, symName: '__ZN4core3ptr87drop_in_place$LT$core..option..Option$LT$alloc..boxed..Box$LT$syn..ty..Type$GT$$GT$$GT$17hc260fbb8309ec29fE', symObjAddr: 0x6CF0, symBinAddr: 0x8A40, symSize: 0x50 }
  - { offsetInCU: 0x1CE7F, offset: 0x1CE7F, size: 0x8, addend: 0x0, symName: '__ZN4core3ptr89drop_in_place$LT$core..option..Option$LT$alloc..boxed..Box$LT$syn..expr..Expr$GT$$GT$$GT$17h189e15babfcbbcfaE', symObjAddr: 0x6D40, symBinAddr: 0x8A90, symSize: 0x50 }
  - { offsetInCU: 0x1D02F, offset: 0x1D02F, size: 0x8, addend: 0x0, symName: '__ZN4core3ptr89drop_in_place$LT$syn..punctuated..Punctuated$LT$syn..pat..Pat$C$syn..token..Comma$GT$$GT$17ha82f9ca12786bd54E', symObjAddr: 0x6D90, symBinAddr: 0x8AE0, symSize: 0x120 }
  - { offsetInCU: 0x1D48C, offset: 0x1D48C, size: 0x8, addend: 0x0, symName: '__ZN4core3ptr89drop_in_place$LT$syn..punctuated..Punctuated$LT$syn..ty..Type$C$syn..token..Comma$GT$$GT$17h6c76e390e4497862E', symObjAddr: 0x6EB0, symBinAddr: 0x8C00, symSize: 0x120 }
  - { offsetInCU: 0x1D8D6, offset: 0x1D8D6, size: 0x8, addend: 0x0, symName: '__ZN4core3ptr90drop_in_place$LT$core..option..Option$LT$syn..path..AngleBracketedGenericArguments$GT$$GT$17h488f4ff126d02fb4E', symObjAddr: 0x6FD0, symBinAddr: 0x8D20, symSize: 0x130 }
  - { offsetInCU: 0x1DD41, offset: 0x1DD41, size: 0x8, addend: 0x0, symName: '__ZN4core3ptr91drop_in_place$LT$syn..punctuated..Punctuated$LT$syn..expr..Expr$C$syn..token..Comma$GT$$GT$17h5d174cfb4564e731E', symObjAddr: 0x7100, symBinAddr: 0x8E50, symSize: 0x120 }
  - { offsetInCU: 0x1E19E, offset: 0x1E19E, size: 0x8, addend: 0x0, symName: '__ZN4core3ptr94drop_in_place$LT$syn..punctuated..Punctuated$LT$syn..pat..FieldPat$C$syn..token..Comma$GT$$GT$17h57ec84468c025663E', symObjAddr: 0x7220, symBinAddr: 0x8F70, symSize: 0xF0 }
  - { offsetInCU: 0x1E468, offset: 0x1E468, size: 0x8, addend: 0x0, symName: '__ZN4core3ptr94drop_in_place$LT$syn..punctuated..Punctuated$LT$syn..ty..BareFnArg$C$syn..token..Comma$GT$$GT$17h93a6df93f58cf1c2E', symObjAddr: 0x7310, symBinAddr: 0x9060, symSize: 0xF0 }
  - { offsetInCU: 0x1E732, offset: 0x1E732, size: 0x8, addend: 0x0, symName: '__ZN4core3ptr96drop_in_place$LT$core..option..Option$LT$alloc..boxed..Box$LT$syn..path..PathSegment$GT$$GT$$GT$17hfffb4eb6744ee164E', symObjAddr: 0x7400, symBinAddr: 0x9150, symSize: 0x90 }
  - { offsetInCU: 0x1E9B4, offset: 0x1E9B4, size: 0x8, addend: 0x0, symName: '__ZN4core3ptr97drop_in_place$LT$syn..punctuated..Punctuated$LT$syn..expr..FieldValue$C$syn..token..Comma$GT$$GT$17hd35fb722be03e3d1E', symObjAddr: 0x7490, symBinAddr: 0x91E0, symSize: 0xF0 }
  - { offsetInCU: 0x1EC7E, offset: 0x1EC7E, size: 0x8, addend: 0x0, symName: '__ZN4core3ptr98drop_in_place$LT$alloc..vec..Vec$LT$$LP$syn..path..GenericArgument$C$syn..token..Comma$RP$$GT$$GT$17h4fdb1af8625fb77aE', symObjAddr: 0x7580, symBinAddr: 0x92D0, symSize: 0xD0 }
  - { offsetInCU: 0x1EF87, offset: 0x1EF87, size: 0x8, addend: 0x0, symName: '__ZN4core3ptr98drop_in_place$LT$syn..punctuated..Punctuated$LT$syn..lifetime..Lifetime$C$syn..token..Plus$GT$$GT$17h0f92166c8c801efbE', symObjAddr: 0x7650, symBinAddr: 0x93A0, symSize: 0xC0 }
  - { offsetInCU: 0x41995, offset: 0x41995, size: 0x8, addend: 0x0, symName: '__ZN5alloc11collections5btree4node210Handle$LT$alloc..collections..btree..node..NodeRef$LT$alloc..collections..btree..node..marker..Mut$C$K$C$V$C$alloc..collections..btree..node..marker..Leaf$GT$$C$alloc..collections..btree..node..marker..Edge$GT$16insert_recursing17h1f2df792bec941d5E', symObjAddr: 0x7F10, symBinAddr: 0x9460, symSize: 0x10C0 }
  - { offsetInCU: 0x45797, offset: 0x45797, size: 0x8, addend: 0x0, symName: '__ZN5alloc11collections5btree4node210Handle$LT$alloc..collections..btree..node..NodeRef$LT$alloc..collections..btree..node..marker..Mut$C$K$C$V$C$alloc..collections..btree..node..marker..Leaf$GT$$C$alloc..collections..btree..node..marker..Edge$GT$16insert_recursing17h29a79a63b4f10efbE', symObjAddr: 0x8FD0, symBinAddr: 0xA520, symSize: 0x10D0 }
  - { offsetInCU: 0x49754, offset: 0x49754, size: 0x8, addend: 0x0, symName: '__ZN5alloc11collections5btree4node210Handle$LT$alloc..collections..btree..node..NodeRef$LT$alloc..collections..btree..node..marker..Mut$C$K$C$V$C$alloc..collections..btree..node..marker..Leaf$GT$$C$alloc..collections..btree..node..marker..Edge$GT$16insert_recursing17h2a48c0aba27c9331E', symObjAddr: 0xA0A0, symBinAddr: 0xB5F0, symSize: 0x0 }
  - { offsetInCU: 0x4D3DE, offset: 0x4D3DE, size: 0x8, addend: 0x0, symName: '__ZN5alloc11collections5btree4node210Handle$LT$alloc..collections..btree..node..NodeRef$LT$alloc..collections..btree..node..marker..Mut$C$K$C$V$C$alloc..collections..btree..node..marker..Leaf$GT$$C$alloc..collections..btree..node..marker..Edge$GT$16insert_recursing17haa0d8c8fc72f50f9E', symObjAddr: 0xAFB0, symBinAddr: 0xC500, symSize: 0x1310 }
  - { offsetInCU: 0x50E57, offset: 0x50E57, size: 0x8, addend: 0x0, symName: '__ZN5alloc11collections5btree4node210Handle$LT$alloc..collections..btree..node..NodeRef$LT$alloc..collections..btree..node..marker..Mut$C$K$C$V$C$alloc..collections..btree..node..marker..Leaf$GT$$C$alloc..collections..btree..node..marker..Edge$GT$16insert_recursing17hb13c8d2e3a493d35E', symObjAddr: 0xC2C0, symBinAddr: 0xD810, symSize: 0x10C0 }
  - { offsetInCU: 0x5401C, offset: 0x5401C, size: 0x8, addend: 0x0, symName: '__ZN5alloc11collections5btree4node29BalancingContext$LT$K$C$V$GT$15bulk_steal_left17ha9f99e5b4d364257E', symObjAddr: 0xD380, symBinAddr: 0xE8D0, symSize: 0x3F0 }
  - { offsetInCU: 0x55280, offset: 0x55280, size: 0x8, addend: 0x0, symName: '__ZN5alloc11collections5btree4node29BalancingContext$LT$K$C$V$GT$15bulk_steal_left17hc4b28fb23e81e124E', symObjAddr: 0xD770, symBinAddr: 0xECC0, symSize: 0x3F0 }
  - { offsetInCU: 0x5648B, offset: 0x5648B, size: 0x8, addend: 0x0, symName: '__ZN5alloc11collections5btree4node29BalancingContext$LT$K$C$V$GT$15bulk_steal_left17hdd277c9bd5889c64E', symObjAddr: 0xDB60, symBinAddr: 0xF0B0, symSize: 0x440 }
  - { offsetInCU: 0x574DB, offset: 0x574DB, size: 0x8, addend: 0x0, symName: '__ZN5alloc11collections5btree4node29BalancingContext$LT$K$C$V$GT$15bulk_steal_left17he9b911f9b4416bd3E', symObjAddr: 0xDFA0, symBinAddr: 0xF4F0, symSize: 0x3D0 }
  - { offsetInCU: 0x58421, offset: 0x58421, size: 0x8, addend: 0x0, symName: '__ZN5alloc11collections5btree4node29BalancingContext$LT$K$C$V$GT$16bulk_steal_right17h210867c20c059a9bE', symObjAddr: 0xE370, symBinAddr: 0xF8C0, symSize: 0x4E0 }
  - { offsetInCU: 0x59632, offset: 0x59632, size: 0x8, addend: 0x0, symName: '__ZN5alloc11collections5btree4node29BalancingContext$LT$K$C$V$GT$16bulk_steal_right17h7f51cf4ae6287c86E', symObjAddr: 0xE850, symBinAddr: 0xFDA0, symSize: 0x530 }
  - { offsetInCU: 0x5A5C6, offset: 0x5A5C6, size: 0x8, addend: 0x0, symName: '__ZN5alloc11collections5btree4node29BalancingContext$LT$K$C$V$GT$16bulk_steal_right17h937462c12688434aE', symObjAddr: 0xED80, symBinAddr: 0x102D0, symSize: 0x4B0 }
  - { offsetInCU: 0x5B7C5, offset: 0x5B7C5, size: 0x8, addend: 0x0, symName: '__ZN5alloc11collections5btree4node29BalancingContext$LT$K$C$V$GT$16bulk_steal_right17hb4ffc76eb3c5ba91E', symObjAddr: 0xF230, symBinAddr: 0x10780, symSize: 0x4E0 }
  - { offsetInCU: 0x5CB54, offset: 0x5CB54, size: 0x8, addend: 0x0, symName: '__ZN5alloc11collections5btree4node29BalancingContext$LT$K$C$V$GT$25merge_tracking_child_edge17h007cc8c686764c86E', symObjAddr: 0xF710, symBinAddr: 0x10C60, symSize: 0x4A0 }
  - { offsetInCU: 0x5DCBC, offset: 0x5DCBC, size: 0x8, addend: 0x0, symName: '__ZN5alloc11collections5btree4node29BalancingContext$LT$K$C$V$GT$25merge_tracking_child_edge17h8b3166741d57da0fE', symObjAddr: 0xFBB0, symBinAddr: 0x11100, symSize: 0x460 }
  - { offsetInCU: 0x5EEB9, offset: 0x5EEB9, size: 0x8, addend: 0x0, symName: '__ZN5alloc11collections5btree4node29BalancingContext$LT$K$C$V$GT$25merge_tracking_child_edge17h8ef1181d1e5eeffdE', symObjAddr: 0x10010, symBinAddr: 0x11560, symSize: 0x460 }
  - { offsetInCU: 0x600B6, offset: 0x600B6, size: 0x8, addend: 0x0, symName: '__ZN5alloc11collections5btree4node29BalancingContext$LT$K$C$V$GT$25merge_tracking_child_edge17hde285a5f24b9b8cbE', symObjAddr: 0x10470, symBinAddr: 0x119C0, symSize: 0x440 }
  - { offsetInCU: 0x6104C, offset: 0x6104C, size: 0x8, addend: 0x0, symName: '__ZN5alloc11collections5btree4node29BalancingContext$LT$K$C$V$GT$8do_merge17h084016c394325c96E', symObjAddr: 0x108B0, symBinAddr: 0x11E00, symSize: 0x410 }
  - { offsetInCU: 0x61EEE, offset: 0x61EEE, size: 0x8, addend: 0x0, symName: '__ZN5alloc11collections5btree4node29BalancingContext$LT$K$C$V$GT$8do_merge17h235e224b4ce61075E', symObjAddr: 0x10CC0, symBinAddr: 0x12210, symSize: 0x3F0 }
  - { offsetInCU: 0x62D88, offset: 0x62D88, size: 0x8, addend: 0x0, symName: '__ZN5alloc11collections5btree4node29BalancingContext$LT$K$C$V$GT$8do_merge17h3c9c83dc809926bbE', symObjAddr: 0x110B0, symBinAddr: 0x12600, symSize: 0x410 }
  - { offsetInCU: 0x63C2A, offset: 0x63C2A, size: 0x8, addend: 0x0, symName: '__ZN5alloc11collections5btree4node29BalancingContext$LT$K$C$V$GT$8do_merge17hd711a66045d3b295E', symObjAddr: 0x114C0, symBinAddr: 0x12A10, symSize: 0x460 }
  - { offsetInCU: 0x650AA, offset: 0x650AA, size: 0x8, addend: 0x0, symName: '__ZN5alloc11collections5btree6remove259_$LT$impl$u20$alloc..collections..btree..node..Handle$LT$alloc..collections..btree..node..NodeRef$LT$alloc..collections..btree..node..marker..Mut$C$K$C$V$C$alloc..collections..btree..node..marker..Leaf$GT$$C$alloc..collections..btree..node..marker..KV$GT$$GT$14remove_leaf_kv17h6a2d32ccf507f52dE', symObjAddr: 0x11920, symBinAddr: 0x12E70, symSize: 0x4F0 }
  - { offsetInCU: 0x66433, offset: 0x66433, size: 0x8, addend: 0x0, symName: '__ZN5alloc11collections5btree6remove259_$LT$impl$u20$alloc..collections..btree..node..Handle$LT$alloc..collections..btree..node..NodeRef$LT$alloc..collections..btree..node..marker..Mut$C$K$C$V$C$alloc..collections..btree..node..marker..Leaf$GT$$C$alloc..collections..btree..node..marker..KV$GT$$GT$14remove_leaf_kv17h7e24b24d5e2689c0E', symObjAddr: 0x11E10, symBinAddr: 0x13360, symSize: 0x500 }
  - { offsetInCU: 0x6789E, offset: 0x6789E, size: 0x8, addend: 0x0, symName: '__ZN5alloc11collections5btree6remove259_$LT$impl$u20$alloc..collections..btree..node..Handle$LT$alloc..collections..btree..node..NodeRef$LT$alloc..collections..btree..node..marker..Mut$C$K$C$V$C$alloc..collections..btree..node..marker..Leaf$GT$$C$alloc..collections..btree..node..marker..KV$GT$$GT$14remove_leaf_kv17h97e278ed019e9090E', symObjAddr: 0x12310, symBinAddr: 0x13860, symSize: 0x510 }
  - { offsetInCU: 0x68C50, offset: 0x68C50, size: 0x8, addend: 0x0, symName: '__ZN5alloc11collections5btree6remove259_$LT$impl$u20$alloc..collections..btree..node..Handle$LT$alloc..collections..btree..node..NodeRef$LT$alloc..collections..btree..node..marker..Mut$C$K$C$V$C$alloc..collections..btree..node..marker..Leaf$GT$$C$alloc..collections..btree..node..marker..KV$GT$$GT$14remove_leaf_kv17he44188bcbb17994fE', symObjAddr: 0x12820, symBinAddr: 0x13D70, symSize: 0x500 }
  - { offsetInCU: 0x6A066, offset: 0x6A066, size: 0x8, addend: 0x0, symName: '__ZN5alloc11collections5btree6remove269_$LT$impl$u20$alloc..collections..btree..node..Handle$LT$alloc..collections..btree..node..NodeRef$LT$alloc..collections..btree..node..marker..Mut$C$K$C$V$C$alloc..collections..btree..node..marker..LeafOrInternal$GT$$C$alloc..collections..btree..node..marker..KV$GT$$GT$18remove_kv_tracking17h2b4628790adc2e7aE', symObjAddr: 0x12D20, symBinAddr: 0x14270, symSize: 0x320 }
  - { offsetInCU: 0x6B0F9, offset: 0x6B0F9, size: 0x8, addend: 0x0, symName: '__ZN5alloc11collections5btree6remove269_$LT$impl$u20$alloc..collections..btree..node..Handle$LT$alloc..collections..btree..node..NodeRef$LT$alloc..collections..btree..node..marker..Mut$C$K$C$V$C$alloc..collections..btree..node..marker..LeafOrInternal$GT$$C$alloc..collections..btree..node..marker..KV$GT$$GT$18remove_kv_tracking17hbded45dd11ebb9a2E', symObjAddr: 0x13040, symBinAddr: 0x14590, symSize: 0x3B0 }
  - { offsetInCU: 0x6C090, offset: 0x6C090, size: 0x8, addend: 0x0, symName: '__ZN5alloc11collections5btree6remove269_$LT$impl$u20$alloc..collections..btree..node..Handle$LT$alloc..collections..btree..node..NodeRef$LT$alloc..collections..btree..node..marker..Mut$C$K$C$V$C$alloc..collections..btree..node..marker..LeafOrInternal$GT$$C$alloc..collections..btree..node..marker..KV$GT$$GT$18remove_kv_tracking17he850c80587374244E', symObjAddr: 0x133F0, symBinAddr: 0x14940, symSize: 0x330 }
  - { offsetInCU: 0x6D123, offset: 0x6D123, size: 0x8, addend: 0x0, symName: '__ZN5alloc11collections5btree6remove269_$LT$impl$u20$alloc..collections..btree..node..Handle$LT$alloc..collections..btree..node..NodeRef$LT$alloc..collections..btree..node..marker..Mut$C$K$C$V$C$alloc..collections..btree..node..marker..LeafOrInternal$GT$$C$alloc..collections..btree..node..marker..KV$GT$$GT$18remove_kv_tracking17hf765ad55ea9d6f76E', symObjAddr: 0x13720, symBinAddr: 0x14C70, symSize: 0x330 }
  - { offsetInCU: 0x6DD5F, offset: 0x6DD5F, size: 0x8, addend: 0x0, symName: '__ZN5alloc11collections5btree6search142_$LT$impl$u20$alloc..collections..btree..node..NodeRef$LT$BorrowType$C$K$C$V$C$alloc..collections..btree..node..marker..LeafOrInternal$GT$$GT$11search_tree17h26a4f3b6aa9a72a9E', symObjAddr: 0x13A50, symBinAddr: 0x14FA0, symSize: 0x0 }
  - { offsetInCU: 0x6E469, offset: 0x6E469, size: 0x8, addend: 0x0, symName: '__ZN5alloc11collections5btree6search142_$LT$impl$u20$alloc..collections..btree..node..NodeRef$LT$BorrowType$C$K$C$V$C$alloc..collections..btree..node..marker..LeafOrInternal$GT$$GT$11search_tree17h3e4e360a7f7efb99E', symObjAddr: 0x13BF0, symBinAddr: 0x15140, symSize: 0x1A0 }
  - { offsetInCU: 0x6EB73, offset: 0x6EB73, size: 0x8, addend: 0x0, symName: '__ZN5alloc11collections5btree6search142_$LT$impl$u20$alloc..collections..btree..node..NodeRef$LT$BorrowType$C$K$C$V$C$alloc..collections..btree..node..marker..LeafOrInternal$GT$$GT$11search_tree17h78aa95b5dd913866E', symObjAddr: 0x13D90, symBinAddr: 0x152E0, symSize: 0x1A0 }
  - { offsetInCU: 0x6F27D, offset: 0x6F27D, size: 0x8, addend: 0x0, symName: '__ZN5alloc11collections5btree6search142_$LT$impl$u20$alloc..collections..btree..node..NodeRef$LT$BorrowType$C$K$C$V$C$alloc..collections..btree..node..marker..LeafOrInternal$GT$$GT$11search_tree17he30dbc5fc35c2cc2E', symObjAddr: 0x13F30, symBinAddr: 0x15480, symSize: 0x1A0 }
  - { offsetInCU: 0x6F987, offset: 0x6F987, size: 0x8, addend: 0x0, symName: '__ZN5alloc11collections5btree6search142_$LT$impl$u20$alloc..collections..btree..node..NodeRef$LT$BorrowType$C$K$C$V$C$alloc..collections..btree..node..marker..LeafOrInternal$GT$$GT$11search_tree17hf62d00b7c3565edcE', symObjAddr: 0x140D0, symBinAddr: 0x15620, symSize: 0x1A0 }
  - { offsetInCU: 0x1E, offset: 0x72B12, size: 0x8, addend: 0x0, symName: '__ZN100_$LT$syn..punctuated..PrivateIter$LT$T$C$P$GT$$u20$as$u20$core..iter..traits..iterator..Iterator$GT$4next17h36eb87b46c4503e8E.llvm.4304325589401664048', symObjAddr: 0x0, symBinAddr: 0x157C0, symSize: 0x30 }
  - { offsetInCU: 0xBF1, offset: 0x736E5, size: 0x8, addend: 0x0, symName: '__ZN100_$LT$syn..punctuated..PrivateIter$LT$T$C$P$GT$$u20$as$u20$core..iter..traits..iterator..Iterator$GT$4next17h36eb87b46c4503e8E.llvm.4304325589401664048', symObjAddr: 0x0, symBinAddr: 0x157C0, symSize: 0x30 }
  - { offsetInCU: 0xE84, offset: 0x73978, size: 0x8, addend: 0x0, symName: '__ZN100_$LT$syn..punctuated..PrivateIter$LT$T$C$P$GT$$u20$as$u20$core..iter..traits..iterator..Iterator$GT$4next17h3999e3a5c65b85ecE.llvm.4304325589401664048', symObjAddr: 0x30, symBinAddr: 0x157F0, symSize: 0x30 }
  - { offsetInCU: 0x1117, offset: 0x73C0B, size: 0x8, addend: 0x0, symName: '__ZN100_$LT$syn..punctuated..PrivateIter$LT$T$C$P$GT$$u20$as$u20$core..iter..traits..iterator..Iterator$GT$4next17h43b01ea880269fc6E.llvm.4304325589401664048', symObjAddr: 0x60, symBinAddr: 0x15820, symSize: 0x30 }
  - { offsetInCU: 0x13AA, offset: 0x73E9E, size: 0x8, addend: 0x0, symName: '__ZN100_$LT$syn..punctuated..PrivateIter$LT$T$C$P$GT$$u20$as$u20$core..iter..traits..iterator..Iterator$GT$4next17h60b32c420d547ffcE.llvm.4304325589401664048', symObjAddr: 0x90, symBinAddr: 0x15850, symSize: 0x0 }
  - { offsetInCU: 0x1661, offset: 0x74155, size: 0x8, addend: 0x0, symName: '__ZN100_$LT$syn..punctuated..PrivateIter$LT$T$C$P$GT$$u20$as$u20$core..iter..traits..iterator..Iterator$GT$4next17h686d4b154e30f863E.llvm.4304325589401664048', symObjAddr: 0xC0, symBinAddr: 0x15880, symSize: 0x30 }
  - { offsetInCU: 0x18F4, offset: 0x743E8, size: 0x8, addend: 0x0, symName: '__ZN100_$LT$syn..punctuated..PrivateIter$LT$T$C$P$GT$$u20$as$u20$core..iter..traits..iterator..Iterator$GT$4next17h6b235967b19405d6E.llvm.4304325589401664048', symObjAddr: 0xF0, symBinAddr: 0x158B0, symSize: 0x30 }
  - { offsetInCU: 0x1B87, offset: 0x7467B, size: 0x8, addend: 0x0, symName: '__ZN100_$LT$syn..punctuated..PrivateIter$LT$T$C$P$GT$$u20$as$u20$core..iter..traits..iterator..Iterator$GT$4next17hd28aa9ea2d85580bE.llvm.4304325589401664048', symObjAddr: 0x120, symBinAddr: 0x158E0, symSize: 0x30 }
  - { offsetInCU: 0x2036, offset: 0x74B2A, size: 0x8, addend: 0x0, symName: '__ZN102_$LT$syn..punctuated..Punctuated$LT$T$C$P$GT$$u20$as$u20$core..iter..traits..collect..IntoIterator$GT$9into_iter17h9cd8b2befa661131E', symObjAddr: 0x150, symBinAddr: 0x15910, symSize: 0x220 }
  - { offsetInCU: 0x289E, offset: 0x75392, size: 0x8, addend: 0x0, symName: '__ZN102_$LT$syn..punctuated..Punctuated$LT$T$C$P$GT$$u20$as$u20$core..iter..traits..collect..IntoIterator$GT$9into_iter17hc0334ae20962dfa0E', symObjAddr: 0x370, symBinAddr: 0x15B30, symSize: 0x220 }
  - { offsetInCU: 0x3107, offset: 0x75BFB, size: 0x8, addend: 0x0, symName: '__ZN102_$LT$syn..punctuated..Punctuated$LT$T$C$P$GT$$u20$as$u20$core..iter..traits..collect..IntoIterator$GT$9into_iter17hf727ffd9f372ced0E', symObjAddr: 0x590, symBinAddr: 0x15D50, symSize: 0x1A0 }
  - { offsetInCU: 0x37BC, offset: 0x762B0, size: 0x8, addend: 0x0, symName: '__ZN105_$LT$syn..punctuated..Punctuated$LT$T$C$P$GT$$u20$as$u20$core..iter..traits..collect..Extend$LT$T$GT$$GT$6extend17h69a2fd364703775fE', symObjAddr: 0x730, symBinAddr: 0x15EF0, symSize: 0x140 }
  - { offsetInCU: 0x3B41, offset: 0x76635, size: 0x8, addend: 0x0, symName: '__ZN111_$LT$syn..punctuated..PrivateIter$LT$T$C$P$GT$$u20$as$u20$core..iter..traits..exact_size..ExactSizeIterator$GT$3len17h9e4e555fca29170cE.llvm.4304325589401664048', symObjAddr: 0x900, symBinAddr: 0x16030, symSize: 0x0 }
  - { offsetInCU: 0x3C32, offset: 0x76726, size: 0x8, addend: 0x0, symName: '__ZN111_$LT$syn..punctuated..PrivateIter$LT$T$C$P$GT$$u20$as$u20$core..iter..traits..exact_size..ExactSizeIterator$GT$3len17hdefdf716a95f846cE.llvm.4304325589401664048', symObjAddr: 0x960, symBinAddr: 0x16060, symSize: 0x30 }
  - { offsetInCU: 0x3DD5, offset: 0x768C9, size: 0x8, addend: 0x0, symName: '__ZN111_$LT$syn..punctuated..Punctuated$LT$T$C$P$GT$$u20$as$u20$core..iter..traits..collect..FromIterator$LT$T$GT$$GT$9from_iter17h7d3b456388b041f2E', symObjAddr: 0x9B0, symBinAddr: 0x16090, symSize: 0x260 }
  - { offsetInCU: 0x4095, offset: 0x76B89, size: 0x8, addend: 0x0, symName: '__ZN111_$LT$syn..punctuated..Punctuated$LT$T$C$P$GT$$u20$as$u20$core..iter..traits..collect..FromIterator$LT$T$GT$$GT$9from_iter17h7fee824da6bc5abaE', symObjAddr: 0xC10, symBinAddr: 0x162F0, symSize: 0x360 }
  - { offsetInCU: 0x480E, offset: 0x77302, size: 0x8, addend: 0x0, symName: '__ZN111_$LT$syn..punctuated..Punctuated$LT$T$C$P$GT$$u20$as$u20$core..iter..traits..collect..FromIterator$LT$T$GT$$GT$9from_iter17ha51b8526502b5c17E', symObjAddr: 0xF70, symBinAddr: 0x16650, symSize: 0x1B0 }
  - { offsetInCU: 0x4D65, offset: 0x77859, size: 0x8, addend: 0x0, symName: '__ZN115_$LT$syn..punctuated..PrivateIter$LT$T$C$P$GT$$u20$as$u20$core..iter..traits..double_ended..DoubleEndedIterator$GT$9next_back17h003418de12aa797cE.llvm.4304325589401664048', symObjAddr: 0x1120, symBinAddr: 0x16800, symSize: 0x0 }
  - { offsetInCU: 0x4FFE, offset: 0x77AF2, size: 0x8, addend: 0x0, symName: '__ZN115_$LT$syn..punctuated..PrivateIter$LT$T$C$P$GT$$u20$as$u20$core..iter..traits..double_ended..DoubleEndedIterator$GT$9next_back17h28a93a35c6b71126E.llvm.4304325589401664048', symObjAddr: 0x1180, symBinAddr: 0x16830, symSize: 0x30 }
  - { offsetInCU: 0x54D3, offset: 0x77FC7, size: 0x8, addend: 0x0, symName: '__ZN57_$LT$I$u20$as$u20$syn..punctuated..IterTrait$LT$T$GT$$GT$9clone_box17h14371feda7b88d66E.llvm.4304325589401664048', symObjAddr: 0xB880, symBinAddr: 0x1FDE0, symSize: 0x60 }
  - { offsetInCU: 0x56E7, offset: 0x781DB, size: 0x8, addend: 0x0, symName: '__ZN57_$LT$I$u20$as$u20$syn..punctuated..IterTrait$LT$T$GT$$GT$9clone_box17h8726a71d954da5e6E.llvm.4304325589401664048', symObjAddr: 0xBA60, symBinAddr: 0x1FE40, symSize: 0x60 }
  - { offsetInCU: 0x58FB, offset: 0x783EF, size: 0x8, addend: 0x0, symName: '__ZN57_$LT$I$u20$as$u20$syn..punctuated..IterTrait$LT$T$GT$$GT$9clone_box17he56984c379be2580E.llvm.4304325589401664048', symObjAddr: 0xBAC0, symBinAddr: 0x1FEA0, symSize: 0x60 }
  - { offsetInCU: 0x5B15, offset: 0x78609, size: 0x8, addend: 0x0, symName: '__ZN79_$LT$syn..punctuated..Punctuated$LT$T$C$P$GT$$u20$as$u20$core..clone..Clone$GT$5clone17h2358dcaa472b2651E', symObjAddr: 0xBBE0, symBinAddr: 0x1FF00, symSize: 0xE0 }
  - { offsetInCU: 0xA330, offset: 0x7CE24, size: 0x8, addend: 0x0, symName: '__ZN40_$LT$F$u20$as$u20$syn..parse..Parser$GT$14__parse_scoped17h6bc398c0dc2e2123E', symObjAddr: 0x1C80, symBinAddr: 0x16D80, symSize: 0x6D0 }
  - { offsetInCU: 0xB29B, offset: 0x7DD8F, size: 0x8, addend: 0x0, symName: '__ZN40_$LT$F$u20$as$u20$syn..parse..Parser$GT$14__parse_scoped17h9b256de117d2d088E', symObjAddr: 0x2350, symBinAddr: 0x17450, symSize: 0x930 }
  - { offsetInCU: 0xFB00, offset: 0x825F4, size: 0x8, addend: 0x0, symName: '__ZN4core3ptr100drop_in_place$LT$core..option..Option$LT$alloc..boxed..Box$LT$syn..path..GenericArgument$GT$$GT$$GT$17h513ef87717aedfddE.llvm.4304325589401664048', symObjAddr: 0x2C80, symBinAddr: 0x17D80, symSize: 0x50 }
  - { offsetInCU: 0xFE24, offset: 0x82918, size: 0x8, addend: 0x0, symName: '__ZN4core3ptr100drop_in_place$LT$syn..punctuated..Punctuated$LT$syn..path..PathSegment$C$syn..token..PathSep$GT$$GT$17hd0d4e322634cba5dE', symObjAddr: 0x2CD0, symBinAddr: 0x17DD0, symSize: 0x280 }
  - { offsetInCU: 0x108D1, offset: 0x833C5, size: 0x8, addend: 0x0, symName: '__ZN4core3ptr101drop_in_place$LT$alloc..vec..Vec$LT$$LP$syn..generics..WherePredicate$C$syn..token..Comma$RP$$GT$$GT$17h0cced478efc24ad2E.llvm.4304325589401664048', symObjAddr: 0x2F50, symBinAddr: 0x18050, symSize: 0x60 }
  - { offsetInCU: 0x10AE5, offset: 0x835D9, size: 0x8, addend: 0x0, symName: '__ZN4core3ptr101drop_in_place$LT$core..option..Option$LT$alloc..boxed..Box$LT$syn..generics..GenericParam$GT$$GT$$GT$17h70d5c56e8c6bd8f0E.llvm.4304325589401664048', symObjAddr: 0x2FB0, symBinAddr: 0x180B0, symSize: 0x50 }
  - { offsetInCU: 0x10C57, offset: 0x8374B, size: 0x8, addend: 0x0, symName: '__ZN4core3ptr101drop_in_place$LT$syn..punctuated..PrivateIter$LT$syn..path..PathSegment$C$syn..token..PathSep$GT$$GT$17h86507baa0c561371E.llvm.4304325589401664048', symObjAddr: 0x3000, symBinAddr: 0x18100, symSize: 0x0 }
  - { offsetInCU: 0x10D3D, offset: 0x83831, size: 0x8, addend: 0x0, symName: '__ZN4core3ptr103drop_in_place$LT$core..option..Option$LT$alloc..boxed..Box$LT$syn..generics..TypeParamBound$GT$$GT$$GT$17h0d79b9ffb4171f90E', symObjAddr: 0x3010, symBinAddr: 0x18110, symSize: 0xC0 }
  - { offsetInCU: 0x11033, offset: 0x83B27, size: 0x8, addend: 0x0, symName: '__ZN4core3ptr103drop_in_place$LT$core..option..Option$LT$alloc..boxed..Box$LT$syn..generics..WherePredicate$GT$$GT$$GT$17h5eae77184a584f9cE.llvm.4304325589401664048', symObjAddr: 0x30D0, symBinAddr: 0x181D0, symSize: 0x50 }
  - { offsetInCU: 0x111F5, offset: 0x83CE9, size: 0x8, addend: 0x0, symName: '__ZN4core3ptr103drop_in_place$LT$syn..punctuated..Punctuated$LT$syn..generics..GenericParam$C$syn..token..Comma$GT$$GT$17h1d35d7d5913e8beaE.llvm.4304325589401664048', symObjAddr: 0x3120, symBinAddr: 0x18220, symSize: 0xB0 }
  - { offsetInCU: 0x1161A, offset: 0x8410E, size: 0x8, addend: 0x0, symName: '__ZN4core3ptr104drop_in_place$LT$syn..punctuated..Punctuated$LT$syn..generics..TypeParamBound$C$syn..token..Plus$GT$$GT$17h44083f960cd822d7E.llvm.4304325589401664048', symObjAddr: 0x31D0, symBinAddr: 0x182D0, symSize: 0x2E0 }
  - { offsetInCU: 0x122F2, offset: 0x84DE6, size: 0x8, addend: 0x0, symName: '__ZN4core3ptr105drop_in_place$LT$syn..punctuated..Punctuated$LT$syn..generics..WherePredicate$C$syn..token..Comma$GT$$GT$17h9218df911c48293fE.llvm.4304325589401664048', symObjAddr: 0x34B0, symBinAddr: 0x185B0, symSize: 0xB0 }
  - { offsetInCU: 0x12686, offset: 0x8517A, size: 0x8, addend: 0x0, symName: '__ZN4core3ptr113drop_in_place$LT$alloc..vec..Vec$LT$borsh_derive..internals..attributes..field..schema..ParameterOverride$GT$$GT$17hdcffc5db9aae5336E.llvm.4304325589401664048', symObjAddr: 0x3560, symBinAddr: 0x18660, symSize: 0x60 }
  - { offsetInCU: 0x128AD, offset: 0x853A1, size: 0x8, addend: 0x0, symName: '__ZN4core3ptr141drop_in_place$LT$alloc..vec..Vec$LT$$LP$borsh_derive..internals..attributes..field..schema..ParameterOverride$C$syn..token..Comma$RP$$GT$$GT$17h945e005e0414d135E.llvm.4304325589401664048', symObjAddr: 0x35C0, symBinAddr: 0x186C0, symSize: 0x70 }
  - { offsetInCU: 0x12AC1, offset: 0x855B5, size: 0x8, addend: 0x0, symName: '__ZN4core3ptr143drop_in_place$LT$core..option..Option$LT$alloc..boxed..Box$LT$borsh_derive..internals..attributes..field..schema..ParameterOverride$GT$$GT$$GT$17h62e07728a3be3435E.llvm.4304325589401664048', symObjAddr: 0x3630, symBinAddr: 0x18730, symSize: 0x80 }
  - { offsetInCU: 0x12D63, offset: 0x85857, size: 0x8, addend: 0x0, symName: '__ZN4core3ptr145drop_in_place$LT$syn..punctuated..Punctuated$LT$borsh_derive..internals..attributes..field..schema..ParameterOverride$C$syn..token..Comma$GT$$GT$17hdae3dda23dbe50c8E', symObjAddr: 0x36B0, symBinAddr: 0x187B0, symSize: 0xE0 }
  - { offsetInCU: 0x131D7, offset: 0x85CCB, size: 0x8, addend: 0x0, symName: '__ZN4core3ptr198drop_in_place$LT$core..iter..adapters..map..Map$LT$syn..punctuated..Iter$LT$syn..generics..GenericParam$GT$$C$borsh_derive..internals..generics..without_defaults..$u7b$$u7b$closure$u7d$$u7d$$GT$$GT$17h7032bdd82dab3bd8E.llvm.4304325589401664048', symObjAddr: 0x3790, symBinAddr: 0x18890, symSize: 0x30 }
  - { offsetInCU: 0x13313, offset: 0x85E07, size: 0x8, addend: 0x0, symName: '__ZN4core3ptr279drop_in_place$LT$core..iter..adapters..cloned..Cloned$LT$core..iter..adapters..filter..Filter$LT$syn..punctuated..Iter$LT$syn..generics..WherePredicate$GT$$C$borsh_derive..internals..schema..filter_used_params..$u7b$$u7b$closure$u7d$$u7d$..$u7b$$u7b$closure$u7d$$u7d$$GT$$GT$$GT$17h780ef19679117d46E.llvm.4304325589401664048', symObjAddr: 0x37C0, symBinAddr: 0x188C0, symSize: 0x30 }
  - { offsetInCU: 0x1351F, offset: 0x86013, size: 0x8, addend: 0x0, symName: '__ZN4core3ptr34drop_in_place$LT$syn..lit..Lit$GT$17h3e4ef73f9d6504faE', symObjAddr: 0x37F0, symBinAddr: 0x188F0, symSize: 0x110 }
  - { offsetInCU: 0x13A59, offset: 0x8654D, size: 0x8, addend: 0x0, symName: '__ZN4core3ptr34drop_in_place$LT$syn..pat..Pat$GT$17hf99e10cab020967aE', symObjAddr: 0x3900, symBinAddr: 0x18A00, symSize: 0x1070 }
  - { offsetInCU: 0x17BFA, offset: 0x8A6EE, size: 0x8, addend: 0x0, symName: '__ZN4core3ptr34drop_in_place$LT$syn..ty..Type$GT$17hc9a287e6412cf4a5E.llvm.4304325589401664048', symObjAddr: 0x4970, symBinAddr: 0x19A70, symSize: 0x510 }
  - { offsetInCU: 0x19259, offset: 0x8BD4D, size: 0x8, addend: 0x0, symName: '__ZN4core3ptr36drop_in_place$LT$syn..expr..Expr$GT$17hbea3b059aebc6b0dE', symObjAddr: 0x4E80, symBinAddr: 0x19F80, symSize: 0x2920 }
  - { offsetInCU: 0x23097, offset: 0x95B8B, size: 0x8, addend: 0x0, symName: '__ZN4core3ptr36drop_in_place$LT$syn..mac..Macro$GT$17haa1481cb4fe5d660E', symObjAddr: 0x77A0, symBinAddr: 0x1C8A0, symSize: 0x40 }
  - { offsetInCU: 0x230D1, offset: 0x95BC5, size: 0x8, addend: 0x0, symName: '__ZN4core3ptr36drop_in_place$LT$syn..path..Path$GT$17hb26ddc646911d9caE', symObjAddr: 0x77E0, symBinAddr: 0x1C8E0, symSize: 0x130 }
  - { offsetInCU: 0x235FB, offset: 0x960EF, size: 0x8, addend: 0x0, symName: '__ZN4core3ptr37drop_in_place$LT$syn..stmt..Block$GT$17h9bb04bc412e892c1E', symObjAddr: 0x7910, symBinAddr: 0x1CA10, symSize: 0xD0 }
  - { offsetInCU: 0x2389F, offset: 0x96393, size: 0x8, addend: 0x0, symName: '__ZN4core3ptr38drop_in_place$LT$syn..expr..Member$GT$17h54f73fbfaef06080E', symObjAddr: 0x79E0, symBinAddr: 0x1CAE0, symSize: 0x30 }
  - { offsetInCU: 0x2399C, offset: 0x96490, size: 0x8, addend: 0x0, symName: '__ZN4core3ptr39drop_in_place$LT$proc_macro2..Ident$GT$17h9d68045e9dec4a40E', symObjAddr: 0x7A10, symBinAddr: 0x1CB10, symSize: 0x30 }
  - { offsetInCU: 0x23BB0, offset: 0x966A4, size: 0x8, addend: 0x0, symName: '__ZN4core3ptr39drop_in_place$LT$syn..buffer..Entry$GT$17he911fb6fde1a44d3E', symObjAddr: 0x7A40, symBinAddr: 0x1CB40, symSize: 0xC0 }
  - { offsetInCU: 0x23EC4, offset: 0x969B8, size: 0x8, addend: 0x0, symName: '__ZN4core3ptr40drop_in_place$LT$syn..ty..ReturnType$GT$17h4a68005bbc507217E', symObjAddr: 0x7B00, symBinAddr: 0x1CC00, symSize: 0x50 }
  - { offsetInCU: 0x24036, offset: 0x96B2A, size: 0x8, addend: 0x0, symName: '__ZN4core3ptr41drop_in_place$LT$syn..expr..ExprConst$GT$17h454a2cb9df850c24E', symObjAddr: 0x7B50, symBinAddr: 0x1CC50, symSize: 0x180 }
  - { offsetInCU: 0x245BF, offset: 0x970B3, size: 0x8, addend: 0x0, symName: '__ZN4core3ptr43drop_in_place$LT$syn..path..PathSegment$GT$17h4407a812d6da121cE.llvm.4304325589401664048', symObjAddr: 0x7CD0, symBinAddr: 0x1CDD0, symSize: 0x170 }
  - { offsetInCU: 0x24AF1, offset: 0x975E5, size: 0x8, addend: 0x0, symName: '__ZN4core3ptr44drop_in_place$LT$syn..lifetime..Lifetime$GT$17h9c301554489a697eE', symObjAddr: 0x7E40, symBinAddr: 0x1CF40, symSize: 0x30 }
  - { offsetInCU: 0x24BEE, offset: 0x976E2, size: 0x8, addend: 0x0, symName: '__ZN4core3ptr44drop_in_place$LT$syn..parse..ParseBuffer$GT$17h3a1d2b9c57144131E', symObjAddr: 0x7E70, symBinAddr: 0x1CF70, symSize: 0x70 }
  - { offsetInCU: 0x24F88, offset: 0x97A7C, size: 0x8, addend: 0x0, symName: '__ZN4core3ptr45drop_in_place$LT$proc_macro2..TokenStream$GT$17h86cac592f04212eaE', symObjAddr: 0x7EE0, symBinAddr: 0x1CFE0, symSize: 0x140 }
  - { offsetInCU: 0x253B9, offset: 0x97EAD, size: 0x8, addend: 0x0, symName: '__ZN4core3ptr45drop_in_place$LT$syn..buffer..TokenBuffer$GT$17h05a8c26e3d154a12E', symObjAddr: 0x8020, symBinAddr: 0x1D120, symSize: 0xD0 }
  - { offsetInCU: 0x2563E, offset: 0x98132, size: 0x8, addend: 0x0, symName: '__ZN4core3ptr47drop_in_place$LT$syn..path..GenericArgument$GT$17ha7ad17cb38a1a5afE.llvm.4304325589401664048', symObjAddr: 0x80F0, symBinAddr: 0x1D1F0, symSize: 0x4A0 }
  - { offsetInCU: 0x26780, offset: 0x99274, size: 0x8, addend: 0x0, symName: '__ZN4core3ptr48drop_in_place$LT$syn..generics..GenericParam$GT$17hd8a41165cb4f9754E.llvm.4304325589401664048', symObjAddr: 0x8590, symBinAddr: 0x1D690, symSize: 0x380 }
  - { offsetInCU: 0x273A1, offset: 0x99E95, size: 0x8, addend: 0x0, symName: '__ZN4core3ptr50drop_in_place$LT$syn..generics..WherePredicate$GT$17hc8ef92d22a75f583E.llvm.4304325589401664048', symObjAddr: 0x8910, symBinAddr: 0x1DA10, symSize: 0xA0 }
  - { offsetInCU: 0x27542, offset: 0x9A036, size: 0x8, addend: 0x0, symName: '__ZN4core3ptr58drop_in_place$LT$alloc..vec..Vec$LT$syn..expr..Arm$GT$$GT$17ha648d1896dec8b4dE', symObjAddr: 0x89B0, symBinAddr: 0x1DAB0, symSize: 0xD0 }
  - { offsetInCU: 0x277CF, offset: 0x9A2C3, size: 0x8, addend: 0x0, symName: '__ZN4core3ptr59drop_in_place$LT$alloc..boxed..Box$LT$syn..pat..Pat$GT$$GT$17hfa860577679c86cbE', symObjAddr: 0x8A80, symBinAddr: 0x1DB80, symSize: 0x50 }
  - { offsetInCU: 0x2792A, offset: 0x9A41E, size: 0x8, addend: 0x0, symName: '__ZN4core3ptr59drop_in_place$LT$alloc..boxed..Box$LT$syn..ty..Type$GT$$GT$17hce35c4b60063cd1fE.llvm.4304325589401664048', symObjAddr: 0x8AD0, symBinAddr: 0x1DBD0, symSize: 0x50 }
  - { offsetInCU: 0x27A85, offset: 0x9A579, size: 0x8, addend: 0x0, symName: '__ZN4core3ptr61drop_in_place$LT$alloc..boxed..Box$LT$syn..expr..Expr$GT$$GT$17h35b8f1409a9ab85bE', symObjAddr: 0x8B20, symBinAddr: 0x1DC20, symSize: 0x50 }
  - { offsetInCU: 0x27C5C, offset: 0x9A750, size: 0x8, addend: 0x0, symName: '__ZN4core3ptr61drop_in_place$LT$syn..path..ParenthesizedGenericArguments$GT$17h6d1a096952b83c04E.llvm.4304325589401664048', symObjAddr: 0x8B70, symBinAddr: 0x1DC70, symSize: 0x170 }
  - { offsetInCU: 0x28223, offset: 0x9AD17, size: 0x8, addend: 0x0, symName: '__ZN4core3ptr62drop_in_place$LT$syn..path..AngleBracketedGenericArguments$GT$17h1e2e2310287487b5E.llvm.4304325589401664048', symObjAddr: 0x8CE0, symBinAddr: 0x1DDE0, symSize: 0x120 }
  - { offsetInCU: 0x28639, offset: 0x9B12D, size: 0x8, addend: 0x0, symName: '__ZN4core3ptr63drop_in_place$LT$alloc..boxed..Box$LT$syn..lit..LitRepr$GT$$GT$17h4a54b8c5cd42faf5E', symObjAddr: 0x8E00, symBinAddr: 0x1DF00, symSize: 0x60 }
  - { offsetInCU: 0x2892E, offset: 0x9B422, size: 0x8, addend: 0x0, symName: '__ZN4core3ptr64drop_in_place$LT$alloc..boxed..Box$LT$syn..pat..FieldPat$GT$$GT$17hf3d389ef82c9f10bE', symObjAddr: 0x8E60, symBinAddr: 0x1DF60, symSize: 0x140 }
  - { offsetInCU: 0x2900D, offset: 0x9BB01, size: 0x8, addend: 0x0, symName: '__ZN4core3ptr64drop_in_place$LT$alloc..boxed..Box$LT$syn..ty..BareFnArg$GT$$GT$17hc862ec57eebf1a54E', symObjAddr: 0x8FA0, symBinAddr: 0x1E0A0, symSize: 0x140 }
  - { offsetInCU: 0x29565, offset: 0x9C059, size: 0x8, addend: 0x0, symName: '__ZN4core3ptr65drop_in_place$LT$core..option..Option$LT$syn..expr..Label$GT$$GT$17hfc626d17a1d0054dE', symObjAddr: 0x90E0, symBinAddr: 0x1E1E0, symSize: 0x30 }
  - { offsetInCU: 0x296A0, offset: 0x9C194, size: 0x8, addend: 0x0, symName: '__ZN4core3ptr66drop_in_place$LT$core..option..Option$LT$syn..pat..PatRest$GT$$GT$17hba8f4d9198c0dabcE', symObjAddr: 0x9110, symBinAddr: 0x1E210, symSize: 0xE0 }
  - { offsetInCU: 0x29958, offset: 0x9C44C, size: 0x8, addend: 0x0, symName: '__ZN4core3ptr67drop_in_place$LT$alloc..boxed..Box$LT$syn..expr..FieldValue$GT$$GT$17h1fe00f656b5bc41eE', symObjAddr: 0x91F0, symBinAddr: 0x1E2F0, symSize: 0x140 }
  - { offsetInCU: 0x29E90, offset: 0x9C984, size: 0x8, addend: 0x0, symName: '__ZN4core3ptr68drop_in_place$LT$alloc..boxed..Box$LT$syn..path..PathSegment$GT$$GT$17hdf3e53c9442c6d12E', symObjAddr: 0x9330, symBinAddr: 0x1E430, symSize: 0x190 }
  - { offsetInCU: 0x2A56E, offset: 0x9D062, size: 0x8, addend: 0x0, symName: '__ZN4core3ptr70drop_in_place$LT$core..option..Option$LT$syn..ty..BareVariadic$GT$$GT$17hf6aaee8d5112d370E', symObjAddr: 0x94C0, symBinAddr: 0x1E5C0, symSize: 0x120 }
  - { offsetInCU: 0x2AACF, offset: 0x9D5C3, size: 0x8, addend: 0x0, symName: '__ZN4core3ptr71drop_in_place$LT$alloc..vec..Vec$LT$syn..generics..GenericParam$GT$$GT$17hc57a8facd07445abE.llvm.4304325589401664048', symObjAddr: 0x95E0, symBinAddr: 0x1E6E0, symSize: 0xD0 }
  - { offsetInCU: 0x2ADAD, offset: 0x9D8A1, size: 0x8, addend: 0x0, symName: '__ZN4core3ptr72drop_in_place$LT$alloc..boxed..Box$LT$syn..path..GenericArgument$GT$$GT$17hc3f5a13c594d53a1E', symObjAddr: 0x96B0, symBinAddr: 0x1E7B0, symSize: 0x270 }
  - { offsetInCU: 0x2B5D6, offset: 0x9E0CA, size: 0x8, addend: 0x0, symName: '__ZN4core3ptr72drop_in_place$LT$core..option..Option$LT$syn..lifetime..Lifetime$GT$$GT$17hf02c2376eaf0703fE', symObjAddr: 0x9920, symBinAddr: 0x1EA20, symSize: 0x30 }
  - { offsetInCU: 0x2B711, offset: 0x9E205, size: 0x8, addend: 0x0, symName: '__ZN4core3ptr73drop_in_place$LT$alloc..vec..Vec$LT$syn..generics..WherePredicate$GT$$GT$17h7c9081113585d09cE.llvm.4304325589401664048', symObjAddr: 0x9950, symBinAddr: 0x1EA50, symSize: 0xD0 }
  - { offsetInCU: 0x2B9B1, offset: 0x9E4A5, size: 0x8, addend: 0x0, symName: '__ZN4core3ptr75drop_in_place$LT$alloc..boxed..Box$LT$syn..generics..TypeParamBound$GT$$GT$17h06d020fd356eb6c8E', symObjAddr: 0x9A20, symBinAddr: 0x1EB20, symSize: 0x210 }
  - { offsetInCU: 0x2C3ED, offset: 0x9EEE1, size: 0x8, addend: 0x0, symName: '__ZN4core3ptr86drop_in_place$LT$syn..punctuated..Punctuated$LT$syn..pat..Pat$C$syn..token..Or$GT$$GT$17h1c252cd869cc7fe5E', symObjAddr: 0x9C30, symBinAddr: 0x1ED30, symSize: 0x120 }
  - { offsetInCU: 0x2C833, offset: 0x9F327, size: 0x8, addend: 0x0, symName: '__ZN4core3ptr87drop_in_place$LT$core..option..Option$LT$alloc..boxed..Box$LT$syn..pat..Pat$GT$$GT$$GT$17h72bab185bf1bb06eE', symObjAddr: 0x9D50, symBinAddr: 0x1EE50, symSize: 0x50 }
  - { offsetInCU: 0x2C9A5, offset: 0x9F499, size: 0x8, addend: 0x0, symName: '__ZN4core3ptr87drop_in_place$LT$core..option..Option$LT$alloc..boxed..Box$LT$syn..ty..Type$GT$$GT$$GT$17hc260fbb8309ec29fE.llvm.4304325589401664048', symObjAddr: 0x9DA0, symBinAddr: 0x1EEA0, symSize: 0x50 }
  - { offsetInCU: 0x2CB17, offset: 0x9F60B, size: 0x8, addend: 0x0, symName: '__ZN4core3ptr89drop_in_place$LT$core..option..Option$LT$alloc..boxed..Box$LT$syn..expr..Expr$GT$$GT$$GT$17h189e15babfcbbcfaE', symObjAddr: 0x9DF0, symBinAddr: 0x1EEF0, symSize: 0x50 }
  - { offsetInCU: 0x2CCC7, offset: 0x9F7BB, size: 0x8, addend: 0x0, symName: '__ZN4core3ptr89drop_in_place$LT$syn..punctuated..Punctuated$LT$syn..pat..Pat$C$syn..token..Comma$GT$$GT$17ha82f9ca12786bd54E', symObjAddr: 0x9E40, symBinAddr: 0x1EF40, symSize: 0x120 }
  - { offsetInCU: 0x2D124, offset: 0x9FC18, size: 0x8, addend: 0x0, symName: '__ZN4core3ptr89drop_in_place$LT$syn..punctuated..Punctuated$LT$syn..ty..Type$C$syn..token..Comma$GT$$GT$17h6c76e390e4497862E', symObjAddr: 0x9F60, symBinAddr: 0x1F060, symSize: 0x120 }
  - { offsetInCU: 0x2D56E, offset: 0xA0062, size: 0x8, addend: 0x0, symName: '__ZN4core3ptr90drop_in_place$LT$core..option..Option$LT$syn..path..AngleBracketedGenericArguments$GT$$GT$17h488f4ff126d02fb4E', symObjAddr: 0xA080, symBinAddr: 0x1F180, symSize: 0x130 }
  - { offsetInCU: 0x2D9D9, offset: 0xA04CD, size: 0x8, addend: 0x0, symName: '__ZN4core3ptr91drop_in_place$LT$syn..punctuated..Punctuated$LT$syn..expr..Expr$C$syn..token..Comma$GT$$GT$17h5d174cfb4564e731E', symObjAddr: 0xA1B0, symBinAddr: 0x1F2B0, symSize: 0x120 }
  - { offsetInCU: 0x2DE36, offset: 0xA092A, size: 0x8, addend: 0x0, symName: '__ZN4core3ptr94drop_in_place$LT$syn..punctuated..Punctuated$LT$syn..pat..FieldPat$C$syn..token..Comma$GT$$GT$17h57ec84468c025663E', symObjAddr: 0xA2D0, symBinAddr: 0x1F3D0, symSize: 0xF0 }
  - { offsetInCU: 0x2E100, offset: 0xA0BF4, size: 0x8, addend: 0x0, symName: '__ZN4core3ptr94drop_in_place$LT$syn..punctuated..Punctuated$LT$syn..ty..BareFnArg$C$syn..token..Comma$GT$$GT$17h93a6df93f58cf1c2E', symObjAddr: 0xA3C0, symBinAddr: 0x1F4C0, symSize: 0xF0 }
  - { offsetInCU: 0x2E3CA, offset: 0xA0EBE, size: 0x8, addend: 0x0, symName: '__ZN4core3ptr96drop_in_place$LT$core..option..Option$LT$alloc..boxed..Box$LT$syn..path..PathSegment$GT$$GT$$GT$17hfffb4eb6744ee164E.llvm.4304325589401664048', symObjAddr: 0xA4B0, symBinAddr: 0x1F5B0, symSize: 0x90 }
  - { offsetInCU: 0x2E66B, offset: 0xA115F, size: 0x8, addend: 0x0, symName: '__ZN4core3ptr97drop_in_place$LT$syn..punctuated..Punctuated$LT$syn..expr..FieldValue$C$syn..token..Comma$GT$$GT$17hd35fb722be03e3d1E', symObjAddr: 0xA590, symBinAddr: 0x1F640, symSize: 0xF0 }
  - { offsetInCU: 0x2E935, offset: 0xA1429, size: 0x8, addend: 0x0, symName: '__ZN4core3ptr98drop_in_place$LT$alloc..vec..Vec$LT$$LP$syn..path..GenericArgument$C$syn..token..Comma$RP$$GT$$GT$17h4fdb1af8625fb77aE', symObjAddr: 0xA680, symBinAddr: 0x1F730, symSize: 0xD0 }
  - { offsetInCU: 0x2EC1F, offset: 0xA1713, size: 0x8, addend: 0x0, symName: '__ZN4core3ptr98drop_in_place$LT$syn..punctuated..Punctuated$LT$syn..lifetime..Lifetime$C$syn..token..Plus$GT$$GT$17h0f92166c8c801efbE.llvm.4304325589401664048', symObjAddr: 0xA750, symBinAddr: 0x1F800, symSize: 0xC0 }
  - { offsetInCU: 0x2F097, offset: 0xA1B8B, size: 0x8, addend: 0x0, symName: '__ZN4core3ptr99drop_in_place$LT$alloc..vec..Vec$LT$$LP$syn..generics..GenericParam$C$syn..token..Comma$RP$$GT$$GT$17h622a2dccb546382aE.llvm.4304325589401664048', symObjAddr: 0xA810, symBinAddr: 0x1F8C0, symSize: 0x60 }
  - { offsetInCU: 0x34AB6, offset: 0xA75AA, size: 0x8, addend: 0x0, symName: __ZN4core4iter6traits8iterator8Iterator10advance_by17h03804f4ac5f9e579E.llvm.4304325589401664048, symObjAddr: 0xB1E0, symBinAddr: 0x1FBE0, symSize: 0x0 }
  - { offsetInCU: 0x34DCE, offset: 0xA78C2, size: 0x8, addend: 0x0, symName: __ZN4core4iter6traits8iterator8Iterator10advance_by17h93e06539879371e3E.llvm.4304325589401664048, symObjAddr: 0xB320, symBinAddr: 0x1FC50, symSize: 0x70 }
  - { offsetInCU: 0x35137, offset: 0xA7C2B, size: 0x8, addend: 0x0, symName: __ZN4core4iter6traits8iterator8Iterator3nth17h26a8c17080eedd7bE.llvm.4304325589401664048, symObjAddr: 0xB560, symBinAddr: 0x1FCC0, symSize: 0x0 }
  - { offsetInCU: 0x35751, offset: 0xA8245, size: 0x8, addend: 0x0, symName: __ZN4core4iter6traits8iterator8Iterator3nth17h31e13cc04ce5ebc3E.llvm.4304325589401664048, symObjAddr: 0xB5E0, symBinAddr: 0x1FD40, symSize: 0x80 }
  - { offsetInCU: 0x35D1A, offset: 0xA880E, size: 0x8, addend: 0x0, symName: __ZN4core4iter6traits8iterator8Iterator9size_hint17h1cf2e6f9bff5ce69E.llvm.4304325589401664048, symObjAddr: 0xB860, symBinAddr: 0x1FDC0, symSize: 0x0 }
  - { offsetInCU: 0x35DBE, offset: 0xA88B2, size: 0x8, addend: 0x0, symName: __ZN4core4iter6traits10exact_size17ExactSizeIterator8is_empty17h172439ff646f7f29E.llvm.4304325589401664048, symObjAddr: 0xA8A0, symBinAddr: 0x1F920, symSize: 0x0 }
  - { offsetInCU: 0x35F66, offset: 0xA8A5A, size: 0x8, addend: 0x0, symName: __ZN4core4iter6traits10exact_size17ExactSizeIterator8is_empty17hf5b2f6d01f035990E.llvm.4304325589401664048, symObjAddr: 0xA980, symBinAddr: 0x1F950, symSize: 0x30 }
  - { offsetInCU: 0x360B4, offset: 0xA8BA8, size: 0x8, addend: 0x0, symName: __ZN4core4iter6traits12double_ended19DoubleEndedIterator15advance_back_by17h30846f7173e4fb6fE.llvm.4304325589401664048, symObjAddr: 0xA9B0, symBinAddr: 0x1F980, symSize: 0x0 }
  - { offsetInCU: 0x362E5, offset: 0xA8DD9, size: 0x8, addend: 0x0, symName: __ZN4core4iter6traits12double_ended19DoubleEndedIterator15advance_back_by17h8a7cdbf73b578ec6E.llvm.4304325589401664048, symObjAddr: 0xAB30, symBinAddr: 0x1FA00, symSize: 0x80 }
  - { offsetInCU: 0x36535, offset: 0xA9029, size: 0x8, addend: 0x0, symName: __ZN4core4iter6traits12double_ended19DoubleEndedIterator8nth_back17h29ca83e148d02f97E.llvm.4304325589401664048, symObjAddr: 0xAE70, symBinAddr: 0x1FA80, symSize: 0x0 }
  - { offsetInCU: 0x36A2D, offset: 0xA9521, size: 0x8, addend: 0x0, symName: __ZN4core4iter6traits12double_ended19DoubleEndedIterator8nth_back17h58dd6d1ac98adbb8E.llvm.4304325589401664048, symObjAddr: 0xAF20, symBinAddr: 0x1FB30, symSize: 0xB0 }
  - { offsetInCU: 0x3A7D0, offset: 0xAD2C4, size: 0x8, addend: 0x0, symName: _anon.a9b29fd1286b86d97b0ce2455f97831d.16.llvm.4304325589401664048, symObjAddr: 0xD5E8, symBinAddr: 0x3D8578, symSize: 0x0 }
  - { offsetInCU: 0x3A8FC, offset: 0xAD3F0, size: 0x8, addend: 0x0, symName: _anon.a9b29fd1286b86d97b0ce2455f97831d.28.llvm.4304325589401664048, symObjAddr: 0xDA28, symBinAddr: 0x3D8688, symSize: 0x0 }
  - { offsetInCU: 0x3A9F4, offset: 0xAD4E8, size: 0x8, addend: 0x0, symName: _anon.a9b29fd1286b86d97b0ce2455f97831d.34.llvm.4304325589401664048, symObjAddr: 0xDC48, symBinAddr: 0x3D8798, symSize: 0x0 }
  - { offsetInCU: 0x3C3F3, offset: 0xAEEE7, size: 0x8, addend: 0x0, symName: '__ZN3syn10punctuated23Punctuated$LT$T$C$P$GT$10push_punct17h83e424fde8ba7a3aE.llvm.4304325589401664048', symObjAddr: 0x1270, symBinAddr: 0x16860, symSize: 0x120 }
  - { offsetInCU: 0x3C818, offset: 0xAF30C, size: 0x8, addend: 0x0, symName: '__ZN3syn10punctuated23Punctuated$LT$T$C$P$GT$10push_value17h82b30946c99aca23E.llvm.4304325589401664048', symObjAddr: 0x1390, symBinAddr: 0x16980, symSize: 0x110 }
  - { offsetInCU: 0x3CAAD, offset: 0xAF5A1, size: 0x8, addend: 0x0, symName: '__ZN3syn10punctuated23Punctuated$LT$T$C$P$GT$10push_value17hf2af5a3cde1911f6E', symObjAddr: 0x14A0, symBinAddr: 0x16A90, symSize: 0xF0 }
  - { offsetInCU: 0x3D35B, offset: 0xAFE4F, size: 0x8, addend: 0x0, symName: '__ZN3syn10punctuated23Punctuated$LT$T$C$P$GT$4push17h8f49907a6f43479eE.llvm.4304325589401664048', symObjAddr: 0x19C0, symBinAddr: 0x16B80, symSize: 0x200 }
  - { offsetInCU: 0x2726, offset: 0xB950A, size: 0x8, addend: 0x0, symName: '__ZN4core3ptr100drop_in_place$LT$core..option..Option$LT$alloc..boxed..Box$LT$syn..path..GenericArgument$GT$$GT$$GT$17h513ef87717aedfddE', symObjAddr: 0xB0, symBinAddr: 0x1FFE0, symSize: 0x50 }
  - { offsetInCU: 0x28B7, offset: 0xB969B, size: 0x8, addend: 0x0, symName: '__ZN4core3ptr101drop_in_place$LT$core..option..Option$LT$alloc..boxed..Box$LT$syn..generics..GenericParam$GT$$GT$$GT$17h70d5c56e8c6bd8f0E', symObjAddr: 0x100, symBinAddr: 0x20030, symSize: 0x50 }
  - { offsetInCU: 0x2AA5, offset: 0xB9889, size: 0x8, addend: 0x0, symName: '__ZN4core3ptr102drop_in_place$LT$syn..punctuated..Punctuated$LT$syn..path..GenericArgument$C$syn..token..Comma$GT$$GT$17ha5e403e03e446464E.llvm.2668056813968234182', symObjAddr: 0x150, symBinAddr: 0x20080, symSize: 0xF0 }
  - { offsetInCU: 0x2D8E, offset: 0xB9B72, size: 0x8, addend: 0x0, symName: '__ZN4core3ptr103drop_in_place$LT$core..option..Option$LT$alloc..boxed..Box$LT$syn..generics..TypeParamBound$GT$$GT$$GT$17h0d79b9ffb4171f90E.llvm.2668056813968234182', symObjAddr: 0x240, symBinAddr: 0x20170, symSize: 0x50 }
  - { offsetInCU: 0x2F1F, offset: 0xB9D03, size: 0x8, addend: 0x0, symName: '__ZN4core3ptr103drop_in_place$LT$core..option..Option$LT$alloc..boxed..Box$LT$syn..generics..WherePredicate$GT$$GT$$GT$17h5eae77184a584f9cE', symObjAddr: 0x290, symBinAddr: 0x201C0, symSize: 0x50 }
  - { offsetInCU: 0x314B, offset: 0xB9F2F, size: 0x8, addend: 0x0, symName: '__ZN4core3ptr103drop_in_place$LT$syn..punctuated..Punctuated$LT$syn..generics..GenericParam$C$syn..token..Comma$GT$$GT$17h1d35d7d5913e8beaE.llvm.2668056813968234182', symObjAddr: 0x2E0, symBinAddr: 0x20210, symSize: 0x1A0 }
  - { offsetInCU: 0x37F3, offset: 0xBA5D7, size: 0x8, addend: 0x0, symName: '__ZN4core3ptr104drop_in_place$LT$syn..punctuated..Punctuated$LT$syn..generics..TypeParamBound$C$syn..token..Plus$GT$$GT$17h44083f960cd822d7E.llvm.2668056813968234182', symObjAddr: 0x480, symBinAddr: 0x203B0, symSize: 0x230 }
  - { offsetInCU: 0x4124, offset: 0xBAF08, size: 0x8, addend: 0x0, symName: '__ZN4core3ptr105drop_in_place$LT$syn..punctuated..Punctuated$LT$syn..generics..WherePredicate$C$syn..token..Comma$GT$$GT$17h9218df911c48293fE', symObjAddr: 0x6B0, symBinAddr: 0x205E0, symSize: 0x190 }
  - { offsetInCU: 0x47F5, offset: 0xBB5D9, size: 0x8, addend: 0x0, symName: '__ZN4core3ptr116drop_in_place$LT$core..option..Option$LT$$LP$syn..token..Else$C$alloc..boxed..Box$LT$syn..expr..Expr$GT$$RP$$GT$$GT$17h86141fef94a6cb17E', symObjAddr: 0x840, symBinAddr: 0x20770, symSize: 0x50 }
  - { offsetInCU: 0x49B3, offset: 0xBB797, size: 0x8, addend: 0x0, symName: '__ZN4core3ptr126drop_in_place$LT$core..option..Option$LT$$LP$syn..token..And$C$core..option..Option$LT$syn..lifetime..Lifetime$GT$$RP$$GT$$GT$17h181dd7a178815001E', symObjAddr: 0x890, symBinAddr: 0x207C0, symSize: 0x30 }
  - { offsetInCU: 0x4C43, offset: 0xBBA27, size: 0x8, addend: 0x0, symName: '__ZN4core3ptr33drop_in_place$LT$syn..ty..Abi$GT$17h9c73665605711f36E', symObjAddr: 0x8C0, symBinAddr: 0x207F0, symSize: 0x60 }
  - { offsetInCU: 0x4C5F, offset: 0xBBA43, size: 0x8, addend: 0x0, symName: '__ZN4core3ptr33drop_in_place$LT$syn..ty..Abi$GT$17h9c73665605711f36E', symObjAddr: 0x8C0, symBinAddr: 0x207F0, symSize: 0x60 }
  - { offsetInCU: 0x4F59, offset: 0xBBD3D, size: 0x8, addend: 0x0, symName: '__ZN4core3ptr34drop_in_place$LT$syn..lit..Lit$GT$17h3e4ef73f9d6504faE', symObjAddr: 0x920, symBinAddr: 0x20850, symSize: 0x110 }
  - { offsetInCU: 0x54F0, offset: 0xBC2D4, size: 0x8, addend: 0x0, symName: '__ZN4core3ptr34drop_in_place$LT$syn..pat..Pat$GT$17hf99e10cab020967aE.llvm.2668056813968234182', symObjAddr: 0xA30, symBinAddr: 0x20960, symSize: 0xF50 }
  - { offsetInCU: 0x8FAE, offset: 0xBFD92, size: 0x8, addend: 0x0, symName: '__ZN4core3ptr34drop_in_place$LT$syn..ty..Type$GT$17hc9a287e6412cf4a5E.llvm.2668056813968234182', symObjAddr: 0x1980, symBinAddr: 0x218B0, symSize: 0x4E0 }
  - { offsetInCU: 0xA077, offset: 0xC0E5B, size: 0x8, addend: 0x0, symName: '__ZN4core3ptr35drop_in_place$LT$syn..expr..Arm$GT$17hbd33b0e137c3c7a0E.llvm.2668056813968234182', symObjAddr: 0x1E60, symBinAddr: 0x21D90, symSize: 0x190 }
  - { offsetInCU: 0xA6CD, offset: 0xC14B1, size: 0x8, addend: 0x0, symName: '__ZN4core3ptr36drop_in_place$LT$syn..attr..Meta$GT$17h21fc51c8d8d9cd3fE.llvm.2668056813968234182', symObjAddr: 0x1FF0, symBinAddr: 0x21F20, symSize: 0x300 }
  - { offsetInCU: 0xB618, offset: 0xC23FC, size: 0x8, addend: 0x0, symName: '__ZN4core3ptr36drop_in_place$LT$syn..expr..Expr$GT$17hbea3b059aebc6b0dE.llvm.2668056813968234182', symObjAddr: 0x22F0, symBinAddr: 0x22220, symSize: 0x2830 }
  - { offsetInCU: 0x155AA, offset: 0xCC38E, size: 0x8, addend: 0x0, symName: '__ZN4core3ptr36drop_in_place$LT$syn..item..Item$GT$17hfd24af984bc23f2dE', symObjAddr: 0x4B20, symBinAddr: 0x24A50, symSize: 0x17D0 }
  - { offsetInCU: 0x1AAA9, offset: 0xD188D, size: 0x8, addend: 0x0, symName: '__ZN4core3ptr36drop_in_place$LT$syn..mac..Macro$GT$17haa1481cb4fe5d660E', symObjAddr: 0x62F0, symBinAddr: 0x26220, symSize: 0xE0 }
  - { offsetInCU: 0x1ADF1, offset: 0xD1BD5, size: 0x8, addend: 0x0, symName: '__ZN4core3ptr36drop_in_place$LT$syn..path..Path$GT$17hb26ddc646911d9caE.llvm.2668056813968234182', symObjAddr: 0x63D0, symBinAddr: 0x26300, symSize: 0x150 }
  - { offsetInCU: 0x1B37F, offset: 0xD2163, size: 0x8, addend: 0x0, symName: '__ZN4core3ptr36drop_in_place$LT$syn..stmt..Stmt$GT$17hcc1850ba3165a1c2E.llvm.2668056813968234182', symObjAddr: 0x6520, symBinAddr: 0x26450, symSize: 0x380 }
  - { offsetInCU: 0x1BF5E, offset: 0xD2D42, size: 0x8, addend: 0x0, symName: '__ZN4core3ptr37drop_in_place$LT$syn..data..Field$GT$17h897d23acda7e1ebaE.llvm.2668056813968234182', symObjAddr: 0x68A0, symBinAddr: 0x267D0, symSize: 0x180 }
  - { offsetInCU: 0x1C523, offset: 0xD3307, size: 0x8, addend: 0x0, symName: '__ZN4core3ptr37drop_in_place$LT$syn..item..FnArg$GT$17h91fb964fb61f7279E', symObjAddr: 0x6A20, symBinAddr: 0x26950, symSize: 0x230 }
  - { offsetInCU: 0x1CDD5, offset: 0xD3BB9, size: 0x8, addend: 0x0, symName: '__ZN4core3ptr37drop_in_place$LT$syn..stmt..Block$GT$17h9bb04bc412e892c1E', symObjAddr: 0x6C50, symBinAddr: 0x26B80, symSize: 0xD0 }
  - { offsetInCU: 0x1D079, offset: 0xD3E5D, size: 0x8, addend: 0x0, symName: '__ZN4core3ptr38drop_in_place$LT$syn..expr..Member$GT$17h54f73fbfaef06080E.llvm.2668056813968234182', symObjAddr: 0x6D20, symBinAddr: 0x26C50, symSize: 0x30 }
  - { offsetInCU: 0x1D176, offset: 0xD3F5A, size: 0x8, addend: 0x0, symName: '__ZN4core3ptr38drop_in_place$LT$syn..pat..PatType$GT$17h4cf08c8b79208856E', symObjAddr: 0x6D50, symBinAddr: 0x26C80, symSize: 0x140 }
  - { offsetInCU: 0x1D6F2, offset: 0xD44D6, size: 0x8, addend: 0x0, symName: '__ZN4core3ptr39drop_in_place$LT$proc_macro2..Ident$GT$17h9d68045e9dec4a40E.llvm.2668056813968234182', symObjAddr: 0x6E90, symBinAddr: 0x26DC0, symSize: 0x30 }
  - { offsetInCU: 0x1D82D, offset: 0xD4611, size: 0x8, addend: 0x0, symName: '__ZN4core3ptr39drop_in_place$LT$syn..data..Variant$GT$17h04a19029c8ac015aE.llvm.2668056813968234182', symObjAddr: 0x6EC0, symBinAddr: 0x26DF0, symSize: 0x2F0 }
  - { offsetInCU: 0x1E43B, offset: 0xD521F, size: 0x8, addend: 0x0, symName: '__ZN4core3ptr39drop_in_place$LT$syn..item..UseTree$GT$17hfe36414ba1fcc7d4E', symObjAddr: 0x71B0, symBinAddr: 0x270E0, symSize: 0x1D0 }
  - { offsetInCU: 0x1EB5A, offset: 0xD593E, size: 0x8, addend: 0x0, symName: '__ZN4core3ptr40drop_in_place$LT$syn..item..ImplItem$GT$17h9cb15a4f0bea069fE', symObjAddr: 0x7380, symBinAddr: 0x272B0, symSize: 0x240 }
  - { offsetInCU: 0x1F155, offset: 0xD5F39, size: 0x8, addend: 0x0, symName: '__ZN4core3ptr40drop_in_place$LT$syn..item..Receiver$GT$17h7f90d611a224c45dE', symObjAddr: 0x75C0, symBinAddr: 0x274F0, symSize: 0x130 }
  - { offsetInCU: 0x1F728, offset: 0xD650C, size: 0x8, addend: 0x0, symName: '__ZN4core3ptr40drop_in_place$LT$syn..item..Variadic$GT$17h6b11288c9ed7646cE', symObjAddr: 0x76F0, symBinAddr: 0x27620, symSize: 0x120 }
  - { offsetInCU: 0x1FB9F, offset: 0xD6983, size: 0x8, addend: 0x0, symName: '__ZN4core3ptr40drop_in_place$LT$syn..ty..ReturnType$GT$17h4a68005bbc507217E.llvm.2668056813968234182', symObjAddr: 0x7810, symBinAddr: 0x27740, symSize: 0x50 }
  - { offsetInCU: 0x1FE66, offset: 0xD6C4A, size: 0x8, addend: 0x0, symName: '__ZN4core3ptr41drop_in_place$LT$syn..item..Signature$GT$17h32ba793cb0bfd355E', symObjAddr: 0x7860, symBinAddr: 0x27790, symSize: 0x280 }
  - { offsetInCU: 0x20955, offset: 0xD7739, size: 0x8, addend: 0x0, symName: '__ZN4core3ptr41drop_in_place$LT$syn..item..TraitItem$GT$17hadadb12b17a9f09dE', symObjAddr: 0x7AE0, symBinAddr: 0x27A10, symSize: 0x3E0 }
  - { offsetInCU: 0x2147B, offset: 0xD825F, size: 0x8, addend: 0x0, symName: '__ZN4core3ptr42drop_in_place$LT$syn..item..ImplItemFn$GT$17h6d2102e3c8bbcd45E', symObjAddr: 0x7EC0, symBinAddr: 0x27DF0, symSize: 0x230 }
  - { offsetInCU: 0x21BD6, offset: 0xD89BA, size: 0x8, addend: 0x0, symName: '__ZN4core3ptr42drop_in_place$LT$syn..path..Constraint$GT$17h30da34a05e3fc2daE', symObjAddr: 0x80F0, symBinAddr: 0x28020, symSize: 0x160 }
  - { offsetInCU: 0x2226C, offset: 0xD9050, size: 0x8, addend: 0x0, symName: '__ZN4core3ptr43drop_in_place$LT$proc_macro2..TokenTree$GT$17h73e0e97ae44b5507E.llvm.2668056813968234182', symObjAddr: 0x8250, symBinAddr: 0x28180, symSize: 0xB0 }
  - { offsetInCU: 0x22580, offset: 0xD9364, size: 0x8, addend: 0x0, symName: '__ZN4core3ptr43drop_in_place$LT$syn..data..FieldsNamed$GT$17h0c4b056e95bbf129E', symObjAddr: 0x8300, symBinAddr: 0x28230, symSize: 0x120 }
  - { offsetInCU: 0x22A08, offset: 0xD97EC, size: 0x8, addend: 0x0, symName: '__ZN4core3ptr43drop_in_place$LT$syn..item..ForeignItem$GT$17hfa6484f879a188e0E', symObjAddr: 0x8420, symBinAddr: 0x28350, symSize: 0x330 }
  - { offsetInCU: 0x2338F, offset: 0xDA173, size: 0x8, addend: 0x0, symName: '__ZN4core3ptr43drop_in_place$LT$syn..path..PathSegment$GT$17h4407a812d6da121cE', symObjAddr: 0x8750, symBinAddr: 0x28680, symSize: 0x170 }
  - { offsetInCU: 0x23933, offset: 0xDA717, size: 0x8, addend: 0x0, symName: '__ZN4core3ptr44drop_in_place$LT$syn..generics..Generics$GT$17he55a6c2a0d8d138cE', symObjAddr: 0x88C0, symBinAddr: 0x287F0, symSize: 0x220 }
  - { offsetInCU: 0x241B0, offset: 0xDAF94, size: 0x8, addend: 0x0, symName: '__ZN4core3ptr44drop_in_place$LT$syn..item..ImplItemType$GT$17h633ba71f63ac7228E', symObjAddr: 0x8AE0, symBinAddr: 0x28A10, symSize: 0x1D0 }
  - { offsetInCU: 0x24798, offset: 0xDB57C, size: 0x8, addend: 0x0, symName: '__ZN4core3ptr44drop_in_place$LT$syn..lifetime..Lifetime$GT$17h9c301554489a697eE.llvm.2668056813968234182', symObjAddr: 0x8CB0, symBinAddr: 0x28BE0, symSize: 0x30 }
  - { offsetInCU: 0x248F2, offset: 0xDB6D6, size: 0x8, addend: 0x0, symName: '__ZN4core3ptr45drop_in_place$LT$proc_macro2..TokenStream$GT$17h86cac592f04212eaE.llvm.2668056813968234182', symObjAddr: 0x8CE0, symBinAddr: 0x28C10, symSize: 0x70 }
  - { offsetInCU: 0x24A59, offset: 0xDB83D, size: 0x8, addend: 0x0, symName: '__ZN4core3ptr45drop_in_place$LT$syn..generics..TypeParam$GT$17he645f7cc80b7ae11E.llvm.2668056813968234182', symObjAddr: 0x8D50, symBinAddr: 0x28C80, symSize: 0x230 }
  - { offsetInCU: 0x2529E, offset: 0xDC082, size: 0x8, addend: 0x0, symName: '__ZN4core3ptr45drop_in_place$LT$syn..item..ImplItemConst$GT$17hb4f517727446a478E', symObjAddr: 0x8F80, symBinAddr: 0x28EB0, symSize: 0x200 }
  - { offsetInCU: 0x258C4, offset: 0xDC6A8, size: 0x8, addend: 0x0, symName: '__ZN4core3ptr45drop_in_place$LT$syn..item..TraitItemType$GT$17hb6250fba615180c8E', symObjAddr: 0x9180, symBinAddr: 0x290B0, symSize: 0x290 }
  - { offsetInCU: 0x261D5, offset: 0xDCFB9, size: 0x8, addend: 0x0, symName: '__ZN4core3ptr45drop_in_place$LT$syn..path..PathArguments$GT$17h4375974ee667a550E.llvm.2668056813968234182', symObjAddr: 0x9410, symBinAddr: 0x29340, symSize: 0xA0 }
  - { offsetInCU: 0x263AA, offset: 0xDD18E, size: 0x8, addend: 0x0, symName: '__ZN4core3ptr46drop_in_place$LT$syn..generics..ConstParam$GT$17hc19d519d6441178aE.llvm.2668056813968234182', symObjAddr: 0x94B0, symBinAddr: 0x293E0, symSize: 0x150 }
  - { offsetInCU: 0x267AB, offset: 0xDD58F, size: 0x8, addend: 0x0, symName: '__ZN4core3ptr46drop_in_place$LT$syn..item..TraitItemConst$GT$17h2d10989e79cb0250E', symObjAddr: 0x9600, symBinAddr: 0x29530, symSize: 0x1A0 }
  - { offsetInCU: 0x26C5F, offset: 0xDDA43, size: 0x8, addend: 0x0, symName: '__ZN4core3ptr47drop_in_place$LT$syn..generics..WhereClause$GT$17h973d7091013f7af5E', symObjAddr: 0x97A0, symBinAddr: 0x296D0, symSize: 0x120 }
  - { offsetInCU: 0x270A9, offset: 0xDDE8D, size: 0x8, addend: 0x0, symName: '__ZN4core3ptr47drop_in_place$LT$syn..item..ForeignItemType$GT$17ha69570f809455b1cE', symObjAddr: 0x98C0, symBinAddr: 0x297F0, symSize: 0x1A0 }
  - { offsetInCU: 0x276EE, offset: 0xDE4D2, size: 0x8, addend: 0x0, symName: '__ZN4core3ptr47drop_in_place$LT$syn..path..GenericArgument$GT$17ha7ad17cb38a1a5afE', symObjAddr: 0x9A60, symBinAddr: 0x29990, symSize: 0x1C0 }
  - { offsetInCU: 0x27BA1, offset: 0xDE985, size: 0x8, addend: 0x0, symName: '__ZN4core3ptr48drop_in_place$LT$syn..generics..GenericParam$GT$17hd8a41165cb4f9754E.llvm.2668056813968234182', symObjAddr: 0x9C20, symBinAddr: 0x29B50, symSize: 0x150 }
  - { offsetInCU: 0x27F93, offset: 0xDED77, size: 0x8, addend: 0x0, symName: '__ZN4core3ptr49drop_in_place$LT$syn..generics..LifetimeParam$GT$17h47d9f9e81b35a3dcE.llvm.2668056813968234182', symObjAddr: 0x9D70, symBinAddr: 0x29CA0, symSize: 0xF0 }
  - { offsetInCU: 0x2836E, offset: 0xDF152, size: 0x8, addend: 0x0, symName: '__ZN4core3ptr49drop_in_place$LT$syn..generics..PredicateType$GT$17hebf6c4a8520a1994E.llvm.2668056813968234182', symObjAddr: 0x9E60, symBinAddr: 0x29D90, symSize: 0x170 }
  - { offsetInCU: 0x287EA, offset: 0xDF5CE, size: 0x8, addend: 0x0, symName: '__ZN4core3ptr49drop_in_place$LT$syn..item..ForeignItemStatic$GT$17hb33cef4e7117b01bE', symObjAddr: 0x9FD0, symBinAddr: 0x29F00, symSize: 0x180 }
  - { offsetInCU: 0x28EC3, offset: 0xDFCA7, size: 0x8, addend: 0x0, symName: '__ZN4core3ptr50drop_in_place$LT$$u5b$syn..item..ImplItem$u5d$$GT$17h2be9a99ce36681c4E', symObjAddr: 0xA150, symBinAddr: 0x2A080, symSize: 0x230 }
  - { offsetInCU: 0x291EB, offset: 0xDFFCF, size: 0x8, addend: 0x0, symName: '__ZN4core3ptr50drop_in_place$LT$syn..generics..TypeParamBound$GT$17h7c1195cdfd37b73cE.llvm.2668056813968234182', symObjAddr: 0xA380, symBinAddr: 0x2A2B0, symSize: 0xA0 }
  - { offsetInCU: 0x29371, offset: 0xE0155, size: 0x8, addend: 0x0, symName: '__ZN4core3ptr50drop_in_place$LT$syn..generics..WherePredicate$GT$17hc8ef92d22a75f583E.llvm.2668056813968234182', symObjAddr: 0xA420, symBinAddr: 0x2A350, symSize: 0xA0 }
  - { offsetInCU: 0x2951E, offset: 0xE0302, size: 0x8, addend: 0x0, symName: '__ZN4core3ptr51drop_in_place$LT$$u5b$syn..item..TraitItem$u5d$$GT$17hc1fc44e03d930aabE', symObjAddr: 0xA4C0, symBinAddr: 0x2A3F0, symSize: 0x3F0 }
  - { offsetInCU: 0x29D76, offset: 0xE0B5A, size: 0x8, addend: 0x0, symName: '__ZN4core3ptr52drop_in_place$LT$syn..restriction..VisRestricted$GT$17h26e6c21cc44a024cE', symObjAddr: 0xA8B0, symBinAddr: 0x2A7E0, symSize: 0x50 }
  - { offsetInCU: 0x29F0F, offset: 0xE0CF3, size: 0x8, addend: 0x0, symName: '__ZN4core3ptr53drop_in_place$LT$$u5b$syn..item..ForeignItem$u5d$$GT$17he8e8b04681a28aefE', symObjAddr: 0xA900, symBinAddr: 0x2A830, symSize: 0x360 }
  - { offsetInCU: 0x2A68D, offset: 0xE1471, size: 0x8, addend: 0x0, symName: '__ZN4core3ptr58drop_in_place$LT$alloc..vec..Vec$LT$syn..expr..Arm$GT$$GT$17ha648d1896dec8b4dE', symObjAddr: 0xAC60, symBinAddr: 0x2AB90, symSize: 0xD0 }
  - { offsetInCU: 0x2A91A, offset: 0xE16FE, size: 0x8, addend: 0x0, symName: '__ZN4core3ptr59drop_in_place$LT$alloc..boxed..Box$LT$syn..pat..Pat$GT$$GT$17hfa860577679c86cbE.llvm.2668056813968234182', symObjAddr: 0xAD30, symBinAddr: 0x2AC60, symSize: 0x50 }
  - { offsetInCU: 0x2AA75, offset: 0xE1859, size: 0x8, addend: 0x0, symName: '__ZN4core3ptr59drop_in_place$LT$alloc..boxed..Box$LT$syn..ty..Type$GT$$GT$17hce35c4b60063cd1fE', symObjAddr: 0xAD80, symBinAddr: 0x2ACB0, symSize: 0x50 }
  - { offsetInCU: 0x2ABD0, offset: 0xE19B4, size: 0x8, addend: 0x0, symName: '__ZN4core3ptr59drop_in_place$LT$alloc..vec..Vec$LT$syn..item..Item$GT$$GT$17h9803a830a0fc72fbE', symObjAddr: 0xADD0, symBinAddr: 0x2AD00, symSize: 0xD0 }
  - { offsetInCU: 0x2AE5D, offset: 0xE1C41, size: 0x8, addend: 0x0, symName: '__ZN4core3ptr61drop_in_place$LT$alloc..boxed..Box$LT$syn..expr..Expr$GT$$GT$17h35b8f1409a9ab85bE', symObjAddr: 0xAEA0, symBinAddr: 0x2ADD0, symSize: 0x50 }
  - { offsetInCU: 0x2AFB8, offset: 0xE1D9C, size: 0x8, addend: 0x0, symName: '__ZN4core3ptr61drop_in_place$LT$alloc..boxed..Box$LT$syn..path..Path$GT$$GT$17hb095c80330976fafE', symObjAddr: 0xAEF0, symBinAddr: 0x2AE20, symSize: 0xF0 }
  - { offsetInCU: 0x2B49E, offset: 0xE2282, size: 0x8, addend: 0x0, symName: '__ZN4core3ptr61drop_in_place$LT$syn..path..ParenthesizedGenericArguments$GT$17h6d1a096952b83c04E', symObjAddr: 0xAFE0, symBinAddr: 0x2AF10, symSize: 0x170 }
  - { offsetInCU: 0x2BA65, offset: 0xE2849, size: 0x8, addend: 0x0, symName: '__ZN4core3ptr62drop_in_place$LT$alloc..boxed..Box$LT$syn..data..Field$GT$$GT$17ha18c96252ffd4368E', symObjAddr: 0xB150, symBinAddr: 0x2B080, symSize: 0x50 }
  - { offsetInCU: 0x2BBDF, offset: 0xE29C3, size: 0x8, addend: 0x0, symName: '__ZN4core3ptr62drop_in_place$LT$alloc..boxed..Box$LT$syn..item..FnArg$GT$$GT$17h5dcce5d4546de051E', symObjAddr: 0xB1A0, symBinAddr: 0x2B0D0, symSize: 0x60 }
  - { offsetInCU: 0x2BD57, offset: 0xE2B3B, size: 0x8, addend: 0x0, symName: '__ZN4core3ptr62drop_in_place$LT$alloc..boxed..Box$LT$syn..stmt..Block$GT$$GT$17h1e03aa4ea85785e4E', symObjAddr: 0xB200, symBinAddr: 0x2B130, symSize: 0xE0 }
  - { offsetInCU: 0x2C138, offset: 0xE2F1C, size: 0x8, addend: 0x0, symName: '__ZN4core3ptr62drop_in_place$LT$syn..path..AngleBracketedGenericArguments$GT$17h1e2e2310287487b5E', symObjAddr: 0xB2E0, symBinAddr: 0x2B210, symSize: 0x120 }
  - { offsetInCU: 0x2C582, offset: 0xE3366, size: 0x8, addend: 0x0, symName: '__ZN4core3ptr63drop_in_place$LT$alloc..vec..Vec$LT$syn..item..ImplItem$GT$$GT$17heaf180aeb859120aE', symObjAddr: 0xB400, symBinAddr: 0x2B330, symSize: 0x80 }
  - { offsetInCU: 0x2C800, offset: 0xE35E4, size: 0x8, addend: 0x0, symName: '__ZN4core3ptr64drop_in_place$LT$alloc..boxed..Box$LT$syn..data..Variant$GT$$GT$17h653e471407a7804eE', symObjAddr: 0xB480, symBinAddr: 0x2B3B0, symSize: 0x50 }
  - { offsetInCU: 0x2C95B, offset: 0xE373F, size: 0x8, addend: 0x0, symName: '__ZN4core3ptr64drop_in_place$LT$alloc..boxed..Box$LT$syn..item..UseTree$GT$$GT$17h677b8d6e136a03aeE', symObjAddr: 0xB4D0, symBinAddr: 0x2B400, symSize: 0x50 }
  - { offsetInCU: 0x2CAD5, offset: 0xE38B9, size: 0x8, addend: 0x0, symName: '__ZN4core3ptr64drop_in_place$LT$alloc..boxed..Box$LT$syn..pat..FieldPat$GT$$GT$17hf3d389ef82c9f10bE', symObjAddr: 0xB520, symBinAddr: 0x2B450, symSize: 0x140 }
  - { offsetInCU: 0x2D176, offset: 0xE3F5A, size: 0x8, addend: 0x0, symName: '__ZN4core3ptr64drop_in_place$LT$alloc..boxed..Box$LT$syn..ty..BareFnArg$GT$$GT$17hc862ec57eebf1a54E', symObjAddr: 0xB660, symBinAddr: 0x2B590, symSize: 0x140 }
  - { offsetInCU: 0x2D6CE, offset: 0xE44B2, size: 0x8, addend: 0x0, symName: '__ZN4core3ptr64drop_in_place$LT$alloc..vec..Vec$LT$syn..attr..Attribute$GT$$GT$17hab3242b38144ad8cE', symObjAddr: 0xB7A0, symBinAddr: 0x2B6D0, symSize: 0xD0 }
  - { offsetInCU: 0x2D98F, offset: 0xE4773, size: 0x8, addend: 0x0, symName: '__ZN4core3ptr64drop_in_place$LT$alloc..vec..Vec$LT$syn..item..TraitItem$GT$$GT$17h17d808f4663bd8c5E', symObjAddr: 0xB870, symBinAddr: 0x2B7A0, symSize: 0x80 }
  - { offsetInCU: 0x2DC0D, offset: 0xE49F1, size: 0x8, addend: 0x0, symName: '__ZN4core3ptr65drop_in_place$LT$$LP$syn..item..FnArg$C$syn..token..Comma$RP$$GT$17hc8ca6693e9a1052aE', symObjAddr: 0xB8F0, symBinAddr: 0x2B820, symSize: 0x20 }
  - { offsetInCU: 0x2DCA6, offset: 0xE4A8A, size: 0x8, addend: 0x0, symName: '__ZN4core3ptr65drop_in_place$LT$alloc..vec..Vec$LT$proc_macro..TokenTree$GT$$GT$17h1fb972e13fa280d0E.llvm.2668056813968234182', symObjAddr: 0xB910, symBinAddr: 0x2B840, symSize: 0x120 }
  - { offsetInCU: 0x2E018, offset: 0xE4DFC, size: 0x8, addend: 0x0, symName: '__ZN4core3ptr65drop_in_place$LT$core..option..Option$LT$syn..expr..Label$GT$$GT$17hfc626d17a1d0054dE', symObjAddr: 0xBA30, symBinAddr: 0x2B960, symSize: 0x30 }
  - { offsetInCU: 0x2E153, offset: 0xE4F37, size: 0x8, addend: 0x0, symName: '__ZN4core3ptr65drop_in_place$LT$core..option..Option$LT$syn..stmt..Block$GT$$GT$17h8e6de2c4be8b08e0E', symObjAddr: 0xBA60, symBinAddr: 0x2B990, symSize: 0xE0 }
  - { offsetInCU: 0x2E3B8, offset: 0xE519C, size: 0x8, addend: 0x0, symName: '__ZN4core3ptr66drop_in_place$LT$alloc..vec..Vec$LT$syn..item..ForeignItem$GT$$GT$17hc48ea42f17cf8c57E', symObjAddr: 0xBB40, symBinAddr: 0x2BA70, symSize: 0x80 }
  - { offsetInCU: 0x2E636, offset: 0xE541A, size: 0x8, addend: 0x0, symName: '__ZN4core3ptr67drop_in_place$LT$$LP$syn..pat..FieldPat$C$syn..token..Comma$RP$$GT$17h03611b72f06d3061E.llvm.2668056813968234182', symObjAddr: 0xBBC0, symBinAddr: 0x2BAF0, symSize: 0x130 }
  - { offsetInCU: 0x2EBA0, offset: 0xE5984, size: 0x8, addend: 0x0, symName: '__ZN4core3ptr67drop_in_place$LT$$LP$syn..ty..BareFnArg$C$syn..token..Comma$RP$$GT$17hf6862aba0c3e65a0E.llvm.2668056813968234182', symObjAddr: 0xBCF0, symBinAddr: 0x2BC20, symSize: 0x110 }
  - { offsetInCU: 0x2EFF1, offset: 0xE5DD5, size: 0x8, addend: 0x0, symName: '__ZN4core3ptr67drop_in_place$LT$alloc..boxed..Box$LT$syn..expr..FieldValue$GT$$GT$17h1fe00f656b5bc41eE', symObjAddr: 0xBE00, symBinAddr: 0x2BD30, symSize: 0x140 }
  - { offsetInCU: 0x2F529, offset: 0xE630D, size: 0x8, addend: 0x0, symName: '__ZN4core3ptr68drop_in_place$LT$alloc..boxed..Box$LT$syn..path..PathSegment$GT$$GT$17hdf3e53c9442c6d12E', symObjAddr: 0xBF40, symBinAddr: 0x2BE70, symSize: 0xD0 }
  - { offsetInCU: 0x2F927, offset: 0xE670B, size: 0x8, addend: 0x0, symName: '__ZN4core3ptr69drop_in_place$LT$core..option..Option$LT$syn..stmt..LocalInit$GT$$GT$17h4b791037458b3797E', symObjAddr: 0xC010, symBinAddr: 0x2BF40, symSize: 0xC0 }
  - { offsetInCU: 0x2FC4F, offset: 0xE6A33, size: 0x8, addend: 0x0, symName: '__ZN4core3ptr70drop_in_place$LT$$LP$syn..expr..FieldValue$C$syn..token..Comma$RP$$GT$17h530e49963553f725E.llvm.2668056813968234182', symObjAddr: 0xC0D0, symBinAddr: 0x2C000, symSize: 0x110 }
  - { offsetInCU: 0x30061, offset: 0xE6E45, size: 0x8, addend: 0x0, symName: '__ZN4core3ptr70drop_in_place$LT$core..option..Option$LT$syn..ty..BareVariadic$GT$$GT$17hf6aaee8d5112d370E', symObjAddr: 0xC1E0, symBinAddr: 0x2C110, symSize: 0x100 }
  - { offsetInCU: 0x30491, offset: 0xE7275, size: 0x8, addend: 0x0, symName: '__ZN4core3ptr72drop_in_place$LT$alloc..boxed..Box$LT$syn..path..GenericArgument$GT$$GT$17hc3f5a13c594d53a1E.llvm.2668056813968234182', symObjAddr: 0xC2E0, symBinAddr: 0x2C210, symSize: 0x180 }
  - { offsetInCU: 0x30966, offset: 0xE774A, size: 0x8, addend: 0x0, symName: '__ZN4core3ptr73drop_in_place$LT$$LP$syn..path..PathSegment$C$syn..token..PathSep$RP$$GT$17h4b7b967c579066c9E.llvm.2668056813968234182', symObjAddr: 0xC460, symBinAddr: 0x2C390, symSize: 0xC0 }
  - { offsetInCU: 0x30C2C, offset: 0xE7A10, size: 0x8, addend: 0x0, symName: '__ZN4core3ptr73drop_in_place$LT$alloc..boxed..Box$LT$syn..generics..GenericParam$GT$$GT$17hbb1f35d2f323630eE', symObjAddr: 0xC520, symBinAddr: 0x2C450, symSize: 0x80 }
  - { offsetInCU: 0x30DA4, offset: 0xE7B88, size: 0x8, addend: 0x0, symName: '__ZN4core3ptr75drop_in_place$LT$$LP$syn..path..GenericArgument$C$syn..token..Comma$RP$$GT$17h6adacb712e2a167eE.llvm.2668056813968234182', symObjAddr: 0xC5A0, symBinAddr: 0x2C4D0, symSize: 0x180 }
  - { offsetInCU: 0x3112C, offset: 0xE7F10, size: 0x8, addend: 0x0, symName: '__ZN4core3ptr75drop_in_place$LT$alloc..boxed..Box$LT$syn..generics..TypeParamBound$GT$$GT$17h06d020fd356eb6c8E', symObjAddr: 0xC720, symBinAddr: 0x2C650, symSize: 0x160 }
  - { offsetInCU: 0x316C9, offset: 0xE84AD, size: 0x8, addend: 0x0, symName: '__ZN4core3ptr75drop_in_place$LT$alloc..boxed..Box$LT$syn..generics..WherePredicate$GT$$GT$17h20674d08fea2a9afE', symObjAddr: 0xC880, symBinAddr: 0x2C7B0, symSize: 0x80 }
  - { offsetInCU: 0x3195F, offset: 0xE8743, size: 0x8, addend: 0x0, symName: '__ZN4core3ptr76drop_in_place$LT$$LP$syn..generics..GenericParam$C$syn..token..Comma$RP$$GT$17h1eb717d80fed93fdE.llvm.2668056813968234182', symObjAddr: 0xC900, symBinAddr: 0x2C830, symSize: 0x40 }
  - { offsetInCU: 0x3199B, offset: 0xE877F, size: 0x8, addend: 0x0, symName: '__ZN4core3ptr77drop_in_place$LT$$LP$syn..generics..TypeParamBound$C$syn..token..Plus$RP$$GT$17h2fda5c3932531395E.llvm.2668056813968234182', symObjAddr: 0xC940, symBinAddr: 0x2C870, symSize: 0x160 }
  - { offsetInCU: 0x31E06, offset: 0xE8BEA, size: 0x8, addend: 0x0, symName: '__ZN4core3ptr78drop_in_place$LT$$LP$syn..generics..WherePredicate$C$syn..token..Comma$RP$$GT$17ha58490c4d4bc1ec5E.llvm.2668056813968234182', symObjAddr: 0xCAA0, symBinAddr: 0x2C9D0, symSize: 0x50 }
  - { offsetInCU: 0x31F60, offset: 0xE8D44, size: 0x8, addend: 0x0, symName: '__ZN4core3ptr86drop_in_place$LT$$LP$syn..token..If$C$alloc..boxed..Box$LT$syn..expr..Expr$GT$$RP$$GT$17h8f1f101f72178899E', symObjAddr: 0xCAF0, symBinAddr: 0x2CA20, symSize: 0x50 }
  - { offsetInCU: 0x32175, offset: 0xE8F59, size: 0x8, addend: 0x0, symName: '__ZN4core3ptr86drop_in_place$LT$syn..punctuated..Punctuated$LT$syn..pat..Pat$C$syn..token..Or$GT$$GT$17h1c252cd869cc7fe5E', symObjAddr: 0xCB40, symBinAddr: 0x2CA70, symSize: 0x120 }
  - { offsetInCU: 0x325D2, offset: 0xE93B6, size: 0x8, addend: 0x0, symName: '__ZN4core3ptr87drop_in_place$LT$$LP$alloc..boxed..Box$LT$syn..pat..Pat$GT$$C$syn..token..Colon$RP$$GT$17ha8232c2f49de55dbE', symObjAddr: 0xCC60, symBinAddr: 0x2CB90, symSize: 0x50 }
  - { offsetInCU: 0x3274C, offset: 0xE9530, size: 0x8, addend: 0x0, symName: '__ZN4core3ptr87drop_in_place$LT$core..option..Option$LT$alloc..boxed..Box$LT$syn..ty..Type$GT$$GT$$GT$17hc260fbb8309ec29fE', symObjAddr: 0xCCB0, symBinAddr: 0x2CBE0, symSize: 0x50 }
  - { offsetInCU: 0x328BE, offset: 0xE96A2, size: 0x8, addend: 0x0, symName: '__ZN4core3ptr89drop_in_place$LT$core..option..Option$LT$alloc..boxed..Box$LT$syn..expr..Expr$GT$$GT$$GT$17h189e15babfcbbcfaE', symObjAddr: 0xCD00, symBinAddr: 0x2CC30, symSize: 0x50 }
  - { offsetInCU: 0x32A30, offset: 0xE9814, size: 0x8, addend: 0x0, symName: '__ZN4core3ptr89drop_in_place$LT$syn..punctuated..Punctuated$LT$syn..ty..Type$C$syn..token..Comma$GT$$GT$17h6c76e390e4497862E.llvm.2668056813968234182', symObjAddr: 0xCD50, symBinAddr: 0x2CC80, symSize: 0x120 }
  - { offsetInCU: 0x32E7A, offset: 0xE9C5E, size: 0x8, addend: 0x0, symName: '__ZN4core3ptr90drop_in_place$LT$core..option..Option$LT$alloc..boxed..Box$LT$syn..data..Field$GT$$GT$$GT$17he746374657137898E', symObjAddr: 0xCE70, symBinAddr: 0x2CDA0, symSize: 0x50 }
  - { offsetInCU: 0x32FEC, offset: 0xE9DD0, size: 0x8, addend: 0x0, symName: '__ZN4core3ptr90drop_in_place$LT$core..option..Option$LT$alloc..boxed..Box$LT$syn..item..FnArg$GT$$GT$$GT$17ha275da8b136d4567E', symObjAddr: 0xCEC0, symBinAddr: 0x2CDF0, symSize: 0x50 }
  - { offsetInCU: 0x331DA, offset: 0xE9FBE, size: 0x8, addend: 0x0, symName: '__ZN4core3ptr91drop_in_place$LT$syn..punctuated..Punctuated$LT$syn..expr..Expr$C$syn..token..Comma$GT$$GT$17h5d174cfb4564e731E', symObjAddr: 0xCF10, symBinAddr: 0x2CE40, symSize: 0x120 }
  - { offsetInCU: 0x33637, offset: 0xEA41B, size: 0x8, addend: 0x0, symName: '__ZN4core3ptr92drop_in_place$LT$core..option..Option$LT$$LP$syn..token..As$C$proc_macro2..Ident$RP$$GT$$GT$17h6745244f9ac3d4ccE', symObjAddr: 0xD030, symBinAddr: 0x2CF60, symSize: 0x30 }
  - { offsetInCU: 0x33753, offset: 0xEA537, size: 0x8, addend: 0x0, symName: '__ZN4core3ptr92drop_in_place$LT$syn..punctuated..Punctuated$LT$syn..data..Field$C$syn..token..Comma$GT$$GT$17he15f6ecd49379bd7E', symObjAddr: 0xD060, symBinAddr: 0x2CF90, symSize: 0x120 }
  - { offsetInCU: 0x33B9D, offset: 0xEA981, size: 0x8, addend: 0x0, symName: '__ZN4core3ptr92drop_in_place$LT$syn..punctuated..Punctuated$LT$syn..item..FnArg$C$syn..token..Comma$GT$$GT$17hf8d6bd01c0b02680E', symObjAddr: 0xD180, symBinAddr: 0x2D0B0, symSize: 0x150 }
  - { offsetInCU: 0x340B2, offset: 0xEAE96, size: 0x8, addend: 0x0, symName: '__ZN4core3ptr94drop_in_place$LT$syn..punctuated..Punctuated$LT$syn..data..Variant$C$syn..token..Comma$GT$$GT$17h40a0aea357aa734bE', symObjAddr: 0xD2D0, symBinAddr: 0x2D200, symSize: 0x120 }
  - { offsetInCU: 0x3458B, offset: 0xEB36F, size: 0x8, addend: 0x0, symName: '__ZN4core3ptr94drop_in_place$LT$syn..punctuated..Punctuated$LT$syn..pat..FieldPat$C$syn..token..Comma$GT$$GT$17h57ec84468c025663E', symObjAddr: 0xD3F0, symBinAddr: 0x2D320, symSize: 0xF0 }
  - { offsetInCU: 0x348E4, offset: 0xEB6C8, size: 0x8, addend: 0x0, symName: '__ZN4core3ptr94drop_in_place$LT$syn..punctuated..Punctuated$LT$syn..ty..BareFnArg$C$syn..token..Comma$GT$$GT$17h93a6df93f58cf1c2E', symObjAddr: 0xD4E0, symBinAddr: 0x2D410, symSize: 0xF0 }
  - { offsetInCU: 0x34BC1, offset: 0xEB9A5, size: 0x8, addend: 0x0, symName: '__ZN4core3ptr95drop_in_place$LT$core..option..Option$LT$$LP$proc_macro2..Ident$C$syn..token..Colon$RP$$GT$$GT$17hef3bc32a399ab00eE.llvm.2668056813968234182', symObjAddr: 0xD5D0, symBinAddr: 0x2D500, symSize: 0x30 }
  - { offsetInCU: 0x34CDD, offset: 0xEBAC1, size: 0x8, addend: 0x0, symName: '__ZN4core3ptr96drop_in_place$LT$core..option..Option$LT$alloc..boxed..Box$LT$syn..path..PathSegment$GT$$GT$$GT$17hfffb4eb6744ee164E', symObjAddr: 0xD600, symBinAddr: 0x2D530, symSize: 0x90 }
  - { offsetInCU: 0x34FFA, offset: 0xEBDDE, size: 0x8, addend: 0x0, symName: '__ZN4core3ptr97drop_in_place$LT$syn..punctuated..Punctuated$LT$syn..expr..FieldValue$C$syn..token..Comma$GT$$GT$17hd35fb722be03e3d1E', symObjAddr: 0xD6E0, symBinAddr: 0x2D5C0, symSize: 0xF0 }
  - { offsetInCU: 0x35372, offset: 0xEC156, size: 0x8, addend: 0x0, symName: '__ZN4core3ptr98drop_in_place$LT$syn..punctuated..Punctuated$LT$syn..lifetime..Lifetime$C$syn..token..Plus$GT$$GT$17h0f92166c8c801efbE.llvm.2668056813968234182', symObjAddr: 0xD7D0, symBinAddr: 0x2D6B0, symSize: 0xC0 }
  - { offsetInCU: 0x3B4C9, offset: 0xF22AD, size: 0x8, addend: 0x0, symName: '__ZN97_$LT$alloc..vec..Vec$LT$T$C$A$GT$$u20$as$u20$alloc..vec..spec_extend..SpecExtend$LT$T$C$I$GT$$GT$11spec_extend17h007259c2f45cbe30E', symObjAddr: 0xF6E0, symBinAddr: 0x2EB30, symSize: 0x150 }
  - { offsetInCU: 0x3B924, offset: 0xF2708, size: 0x8, addend: 0x0, symName: '__ZN97_$LT$alloc..vec..Vec$LT$T$C$A$GT$$u20$as$u20$alloc..vec..spec_extend..SpecExtend$LT$T$C$I$GT$$GT$11spec_extend17h889b7f6201ed2b11E', symObjAddr: 0xF8F0, symBinAddr: 0x2EC80, symSize: 0xF0 }
  - { offsetInCU: 0x3BDBE, offset: 0xF2BA2, size: 0x8, addend: 0x0, symName: '__ZN97_$LT$alloc..vec..Vec$LT$T$C$A$GT$$u20$as$u20$alloc..vec..spec_extend..SpecExtend$LT$T$C$I$GT$$GT$11spec_extend17hbeb9cf242b8909d6E', symObjAddr: 0xFAA0, symBinAddr: 0x2ED70, symSize: 0x150 }
  - { offsetInCU: 0x3C219, offset: 0xF2FFD, size: 0x8, addend: 0x0, symName: '__ZN97_$LT$alloc..vec..Vec$LT$T$C$A$GT$$u20$as$u20$alloc..vec..spec_extend..SpecExtend$LT$T$C$I$GT$$GT$11spec_extend17hee8f25a488778df8E', symObjAddr: 0xFBF0, symBinAddr: 0x2EEC0, symSize: 0x150 }
  - { offsetInCU: 0x3CD7F, offset: 0xF3B63, size: 0x8, addend: 0x0, symName: '__ZN70_$LT$alloc..vec..Vec$LT$T$C$A$GT$$u20$as$u20$core..ops..drop..Drop$GT$4drop17h3435539a6346b885E', symObjAddr: 0xEA40, symBinAddr: 0x2E6A0, symSize: 0x80 }
  - { offsetInCU: 0x3CE09, offset: 0xF3BED, size: 0x8, addend: 0x0, symName: '__ZN70_$LT$alloc..vec..Vec$LT$T$C$A$GT$$u20$as$u20$core..ops..drop..Drop$GT$4drop17h5aaf463d912e0524E', symObjAddr: 0xED10, symBinAddr: 0x2E720, symSize: 0xB0 }
  - { offsetInCU: 0x3CE6B, offset: 0xF3C4F, size: 0x8, addend: 0x0, symName: '__ZN70_$LT$alloc..vec..Vec$LT$T$C$A$GT$$u20$as$u20$core..ops..drop..Drop$GT$4drop17h73b19cefeb948d4cE', symObjAddr: 0xEEC0, symBinAddr: 0x2E7D0, symSize: 0xB0 }
  - { offsetInCU: 0x3CFE7, offset: 0xF3DCB, size: 0x8, addend: 0x0, symName: '__ZN70_$LT$alloc..vec..Vec$LT$T$C$A$GT$$u20$as$u20$core..ops..drop..Drop$GT$4drop17h830cb22abe8137f4E', symObjAddr: 0xF070, symBinAddr: 0x2E880, symSize: 0x90 }
  - { offsetInCU: 0x3D0ED, offset: 0xF3ED1, size: 0x8, addend: 0x0, symName: '__ZN70_$LT$alloc..vec..Vec$LT$T$C$A$GT$$u20$as$u20$core..ops..drop..Drop$GT$4drop17ha5a0389cc58d9882E', symObjAddr: 0xF1D0, symBinAddr: 0x2E910, symSize: 0xD0 }
  - { offsetInCU: 0x3D374, offset: 0xF4158, size: 0x8, addend: 0x0, symName: '__ZN70_$LT$alloc..vec..Vec$LT$T$C$A$GT$$u20$as$u20$core..ops..drop..Drop$GT$4drop17ha8550276d64167e2E', symObjAddr: 0xF2A0, symBinAddr: 0x2E9E0, symSize: 0x80 }
  - { offsetInCU: 0x3D3FE, offset: 0xF41E2, size: 0x8, addend: 0x0, symName: '__ZN70_$LT$alloc..vec..Vec$LT$T$C$A$GT$$u20$as$u20$core..ops..drop..Drop$GT$4drop17hdcfb7e8cfc7c3733E', symObjAddr: 0xF590, symBinAddr: 0x2EA60, symSize: 0xD0 }
  - { offsetInCU: 0x3DC7F, offset: 0xF4A63, size: 0x8, addend: 0x0, symName: '__ZN5alloc3vec16in_place_collect108_$LT$impl$u20$alloc..vec..spec_from_iter..SpecFromIter$LT$T$C$I$GT$$u20$for$u20$alloc..vec..Vec$LT$T$GT$$GT$9from_iter17h45b39a9383217589E', symObjAddr: 0xD930, symBinAddr: 0x2D770, symSize: 0x290 }
  - { offsetInCU: 0x3E419, offset: 0xF51FD, size: 0x8, addend: 0x0, symName: '__ZN67_$LT$alloc..vec..Vec$LT$T$C$A$GT$$u20$as$u20$core..clone..Clone$GT$5clone17h17fc6c40e9087c1aE', symObjAddr: 0xDBC0, symBinAddr: 0x2DA00, symSize: 0x390 }
  - { offsetInCU: 0x3EFF0, offset: 0xF5DD4, size: 0x8, addend: 0x0, symName: '__ZN67_$LT$alloc..vec..Vec$LT$T$C$A$GT$$u20$as$u20$core..clone..Clone$GT$5clone17h617c9a98702228bbE', symObjAddr: 0xDF50, symBinAddr: 0x2DD90, symSize: 0x1A0 }
  - { offsetInCU: 0x3F522, offset: 0xF6306, size: 0x8, addend: 0x0, symName: '__ZN67_$LT$alloc..vec..Vec$LT$T$C$A$GT$$u20$as$u20$core..clone..Clone$GT$5clone17h81962ffe8fa0f16dE', symObjAddr: 0xE0F0, symBinAddr: 0x2DF30, symSize: 0x2B0 }
  - { offsetInCU: 0x3FBE4, offset: 0xF69C8, size: 0x8, addend: 0x0, symName: '__ZN67_$LT$alloc..vec..Vec$LT$T$C$A$GT$$u20$as$u20$core..clone..Clone$GT$5clone17h82309439178d49a5E', symObjAddr: 0xE3A0, symBinAddr: 0x2E1E0, symSize: 0x180 }
  - { offsetInCU: 0x40203, offset: 0xF6FE7, size: 0x8, addend: 0x0, symName: '__ZN67_$LT$alloc..vec..Vec$LT$T$C$A$GT$$u20$as$u20$core..clone..Clone$GT$5clone17h94d6e6dcccb37f78E', symObjAddr: 0xE520, symBinAddr: 0x2E360, symSize: 0x1A0 }
  - { offsetInCU: 0x40735, offset: 0xF7519, size: 0x8, addend: 0x0, symName: '__ZN67_$LT$alloc..vec..Vec$LT$T$C$A$GT$$u20$as$u20$core..clone..Clone$GT$5clone17he098da55859c2150E', symObjAddr: 0xE6C0, symBinAddr: 0x2E500, symSize: 0x1A0 }
  - { offsetInCU: 0x41220, offset: 0xF8004, size: 0x8, addend: 0x0, symName: '__ZN98_$LT$alloc..vec..Vec$LT$T$GT$$u20$as$u20$alloc..vec..spec_from_iter..SpecFromIter$LT$T$C$I$GT$$GT$9from_iter17h01494320deb2a4a2E', symObjAddr: 0xFD40, symBinAddr: 0x2F010, symSize: 0x4C0 }
  - { offsetInCU: 0x41FAC, offset: 0xF8D90, size: 0x8, addend: 0x0, symName: '__ZN98_$LT$alloc..vec..Vec$LT$T$GT$$u20$as$u20$alloc..vec..spec_from_iter..SpecFromIter$LT$T$C$I$GT$$GT$9from_iter17h1eb3c9a0f4f907d6E', symObjAddr: 0x10200, symBinAddr: 0x2F4D0, symSize: 0x3A0 }
  - { offsetInCU: 0x42EB7, offset: 0xF9C9B, size: 0x8, addend: 0x0, symName: '__ZN98_$LT$alloc..vec..Vec$LT$T$GT$$u20$as$u20$alloc..vec..spec_from_iter..SpecFromIter$LT$T$C$I$GT$$GT$9from_iter17h3bd4eff0ad7fc16cE', symObjAddr: 0x105A0, symBinAddr: 0x2F870, symSize: 0x1B0 }
  - { offsetInCU: 0x435AD, offset: 0xFA391, size: 0x8, addend: 0x0, symName: '__ZN98_$LT$alloc..vec..Vec$LT$T$GT$$u20$as$u20$alloc..vec..spec_from_iter..SpecFromIter$LT$T$C$I$GT$$GT$9from_iter17h6684248d47c36c19E', symObjAddr: 0x10750, symBinAddr: 0x2FA20, symSize: 0x350 }
  - { offsetInCU: 0x444AB, offset: 0xFB28F, size: 0x8, addend: 0x0, symName: '__ZN98_$LT$alloc..vec..Vec$LT$T$GT$$u20$as$u20$alloc..vec..spec_from_iter..SpecFromIter$LT$T$C$I$GT$$GT$9from_iter17h69c4962cedefbeb7E', symObjAddr: 0x10AA0, symBinAddr: 0x2FD70, symSize: 0x1B0 }
  - { offsetInCU: 0x44BA1, offset: 0xFB985, size: 0x8, addend: 0x0, symName: '__ZN98_$LT$alloc..vec..Vec$LT$T$GT$$u20$as$u20$alloc..vec..spec_from_iter..SpecFromIter$LT$T$C$I$GT$$GT$9from_iter17h6df953d21dfa319cE', symObjAddr: 0x10C50, symBinAddr: 0x2FF20, symSize: 0x380 }
  - { offsetInCU: 0x457F6, offset: 0xFC5DA, size: 0x8, addend: 0x0, symName: '__ZN98_$LT$alloc..vec..Vec$LT$T$GT$$u20$as$u20$alloc..vec..spec_from_iter..SpecFromIter$LT$T$C$I$GT$$GT$9from_iter17hae77c05597768c58E', symObjAddr: 0x10FD0, symBinAddr: 0x302A0, symSize: 0x1B0 }
  - { offsetInCU: 0x45EEC, offset: 0xFCCD0, size: 0x8, addend: 0x0, symName: '__ZN98_$LT$alloc..vec..Vec$LT$T$GT$$u20$as$u20$alloc..vec..spec_from_iter..SpecFromIter$LT$T$C$I$GT$$GT$9from_iter17hdbffad327600a481E', symObjAddr: 0x11180, symBinAddr: 0x30450, symSize: 0x1B0 }
  - { offsetInCU: 0x465E2, offset: 0xFD3C6, size: 0x8, addend: 0x0, symName: '__ZN98_$LT$alloc..vec..Vec$LT$T$GT$$u20$as$u20$alloc..vec..spec_from_iter..SpecFromIter$LT$T$C$I$GT$$GT$9from_iter17hee728ae6bd772b96E', symObjAddr: 0x11330, symBinAddr: 0x30600, symSize: 0x3AB }
  - { offsetInCU: 0x1E, offset: 0x10FCA3, size: 0x8, addend: 0x0, symName: __ZN5alloc7raw_vec11finish_grow17hea0a51614cfbb180E.llvm.1119542890317789351, symObjAddr: 0x0, symBinAddr: 0x309B0, symSize: 0xA0 }
  - { offsetInCU: 0x4DA8, offset: 0x114A2D, size: 0x8, addend: 0x0, symName: __ZN5alloc7raw_vec11finish_grow17hea0a51614cfbb180E.llvm.1119542890317789351, symObjAddr: 0x0, symBinAddr: 0x309B0, symSize: 0xA0 }
  - { offsetInCU: 0x6371, offset: 0x115FF6, size: 0x8, addend: 0x0, symName: '__ZN5alloc7raw_vec19RawVec$LT$T$C$A$GT$7reserve21do_reserve_and_handle17h08530df883ab2310E', symObjAddr: 0xC00, symBinAddr: 0x32A450, symSize: 0xD0 }
  - { offsetInCU: 0x66C4, offset: 0x116349, size: 0x8, addend: 0x0, symName: '__ZN5alloc7raw_vec19RawVec$LT$T$C$A$GT$7reserve21do_reserve_and_handle17h4e148a2ba6cd954fE', symObjAddr: 0xCD0, symBinAddr: 0x32A520, symSize: 0xD0 }
  - { offsetInCU: 0x6A17, offset: 0x11669C, size: 0x8, addend: 0x0, symName: '__ZN5alloc7raw_vec19RawVec$LT$T$C$A$GT$7reserve21do_reserve_and_handle17h7af8978946d896e7E', symObjAddr: 0xDA0, symBinAddr: 0x32A5F0, symSize: 0x0 }
  - { offsetInCU: 0x6D6A, offset: 0x1169EF, size: 0x8, addend: 0x0, symName: '__ZN5alloc7raw_vec19RawVec$LT$T$C$A$GT$7reserve21do_reserve_and_handle17h92249101280b7930E', symObjAddr: 0xE60, symBinAddr: 0x32A6B0, symSize: 0xC0 }
  - { offsetInCU: 0x70BC, offset: 0x116D41, size: 0x8, addend: 0x0, symName: '__ZN5alloc7raw_vec19RawVec$LT$T$C$A$GT$7reserve21do_reserve_and_handle17h9f897840c3f6e9d9E', symObjAddr: 0xF20, symBinAddr: 0x32A770, symSize: 0xB0 }
  - { offsetInCU: 0x73F4, offset: 0x117079, size: 0x8, addend: 0x0, symName: '__ZN5alloc7raw_vec19RawVec$LT$T$C$A$GT$7reserve21do_reserve_and_handle17hf5b69675ba433992E', symObjAddr: 0xFD0, symBinAddr: 0x32A820, symSize: 0xD0 }
  - { offsetInCU: 0x774D, offset: 0x1173D2, size: 0x8, addend: 0x0, symName: '__ZN77_$LT$alloc..raw_vec..RawVec$LT$T$C$A$GT$$u20$as$u20$core..ops..drop..Drop$GT$4drop17h011a7a47394f4eb7E', symObjAddr: 0x10A0, symBinAddr: 0x310A0, symSize: 0x0 }
  - { offsetInCU: 0x784A, offset: 0x1174CF, size: 0x8, addend: 0x0, symName: '__ZN77_$LT$alloc..raw_vec..RawVec$LT$T$C$A$GT$$u20$as$u20$core..ops..drop..Drop$GT$4drop17h02b5d1ad5953846bE', symObjAddr: 0x10D0, symBinAddr: 0x310D0, symSize: 0x30 }
  - { offsetInCU: 0x7947, offset: 0x1175CC, size: 0x8, addend: 0x0, symName: '__ZN77_$LT$alloc..raw_vec..RawVec$LT$T$C$A$GT$$u20$as$u20$core..ops..drop..Drop$GT$4drop17h0498f999c33abb2fE', symObjAddr: 0x1100, symBinAddr: 0x31100, symSize: 0x0 }
  - { offsetInCU: 0x7A44, offset: 0x1176C9, size: 0x8, addend: 0x0, symName: '__ZN77_$LT$alloc..raw_vec..RawVec$LT$T$C$A$GT$$u20$as$u20$core..ops..drop..Drop$GT$4drop17h111ff8bcaaa50dd7E', symObjAddr: 0x1130, symBinAddr: 0x31130, symSize: 0x30 }
  - { offsetInCU: 0x7B41, offset: 0x1177C6, size: 0x8, addend: 0x0, symName: '__ZN77_$LT$alloc..raw_vec..RawVec$LT$T$C$A$GT$$u20$as$u20$core..ops..drop..Drop$GT$4drop17hf2ba6df3512c6117E', symObjAddr: 0x14E0, symBinAddr: 0x31160, symSize: 0x30 }
  - { offsetInCU: 0xD2E0, offset: 0x11CF65, size: 0x8, addend: 0x0, symName: '__ZN5alloc7raw_vec19RawVec$LT$T$C$A$GT$16reserve_for_push17h21997f06d3161079E', symObjAddr: 0x5B0, symBinAddr: 0x30A50, symSize: 0xD0 }
  - { offsetInCU: 0xD7A5, offset: 0x11D42A, size: 0x8, addend: 0x0, symName: '__ZN5alloc7raw_vec19RawVec$LT$T$C$A$GT$16reserve_for_push17h3657ec420187f945E', symObjAddr: 0x680, symBinAddr: 0x30B20, symSize: 0xB0 }
  - { offsetInCU: 0xDC4F, offset: 0x11D8D4, size: 0x8, addend: 0x0, symName: '__ZN5alloc7raw_vec19RawVec$LT$T$C$A$GT$16reserve_for_push17h4bcbfacee9a386baE', symObjAddr: 0x730, symBinAddr: 0x30BD0, symSize: 0xD0 }
  - { offsetInCU: 0xE114, offset: 0x11DD99, size: 0x8, addend: 0x0, symName: '__ZN5alloc7raw_vec19RawVec$LT$T$C$A$GT$16reserve_for_push17h938f9f718bdf6d9dE', symObjAddr: 0x800, symBinAddr: 0x30CA0, symSize: 0xD0 }
  - { offsetInCU: 0xE605, offset: 0x11E28A, size: 0x8, addend: 0x0, symName: '__ZN5alloc7raw_vec19RawVec$LT$T$C$A$GT$16reserve_for_push17ha8fe7a3deedb12b0E', symObjAddr: 0x8D0, symBinAddr: 0x30D70, symSize: 0xD0 }
  - { offsetInCU: 0xEACA, offset: 0x11E74F, size: 0x8, addend: 0x0, symName: '__ZN5alloc7raw_vec19RawVec$LT$T$C$A$GT$16reserve_for_push17hb6d80bde1a83031dE', symObjAddr: 0x9A0, symBinAddr: 0x30E40, symSize: 0xD0 }
  - { offsetInCU: 0xEF9B, offset: 0x11EC20, size: 0x8, addend: 0x0, symName: '__ZN5alloc7raw_vec19RawVec$LT$T$C$A$GT$16reserve_for_push17hf9a1a678252567a8E', symObjAddr: 0xA70, symBinAddr: 0x30F10, symSize: 0xC0 }
  - { offsetInCU: 0xF45F, offset: 0x11F0E4, size: 0x8, addend: 0x0, symName: '__ZN5alloc7raw_vec19RawVec$LT$T$C$A$GT$16reserve_for_push17hfa7f9238de908ae9E', symObjAddr: 0xB30, symBinAddr: 0x30FD0, symSize: 0xD0 }
  - { offsetInCU: 0x1E, offset: 0x11FB8D, size: 0x8, addend: 0x0, symName: '__ZN108_$LT$alloc..collections..btree..map..Iter$LT$K$C$V$GT$$u20$as$u20$core..iter..traits..iterator..Iterator$GT$4next17hd80f450ccd5e9d51E', symObjAddr: 0x0, symBinAddr: 0x31190, symSize: 0x0 }
  - { offsetInCU: 0x1960, offset: 0x1214CF, size: 0x8, addend: 0x0, symName: '__ZN4core3ptr100drop_in_place$LT$core..option..Option$LT$alloc..boxed..Box$LT$syn..path..GenericArgument$GT$$GT$$GT$17h513ef87717aedfddE', symObjAddr: 0x280, symBinAddr: 0x31400, symSize: 0x50 }
  - { offsetInCU: 0x1D00, offset: 0x12186F, size: 0x8, addend: 0x0, symName: '__ZN4core3ptr100drop_in_place$LT$syn..punctuated..Punctuated$LT$syn..path..PathSegment$C$syn..token..PathSep$GT$$GT$17hd0d4e322634cba5dE.llvm.5092526142075473930', symObjAddr: 0x2D0, symBinAddr: 0x31450, symSize: 0x280 }
  - { offsetInCU: 0x27AD, offset: 0x12231C, size: 0x8, addend: 0x0, symName: '__ZN4core3ptr103drop_in_place$LT$core..option..Option$LT$alloc..boxed..Box$LT$syn..generics..TypeParamBound$GT$$GT$$GT$17h0d79b9ffb4171f90E', symObjAddr: 0x550, symBinAddr: 0x316D0, symSize: 0x50 }
  - { offsetInCU: 0x29BA, offset: 0x122529, size: 0x8, addend: 0x0, symName: '__ZN4core3ptr103drop_in_place$LT$syn..punctuated..Punctuated$LT$syn..generics..GenericParam$C$syn..token..Comma$GT$$GT$17h1d35d7d5913e8beaE', symObjAddr: 0x5A0, symBinAddr: 0x31720, symSize: 0xF0 }
  - { offsetInCU: 0x2E7D, offset: 0x1229EC, size: 0x8, addend: 0x0, symName: '__ZN4core3ptr104drop_in_place$LT$syn..punctuated..Punctuated$LT$syn..generics..TypeParamBound$C$syn..token..Plus$GT$$GT$17h44083f960cd822d7E', symObjAddr: 0x690, symBinAddr: 0x31810, symSize: 0x190 }
  - { offsetInCU: 0x34F0, offset: 0x12305F, size: 0x8, addend: 0x0, symName: '__ZN4core3ptr34drop_in_place$LT$syn..lit..Lit$GT$17h3e4ef73f9d6504faE', symObjAddr: 0x820, symBinAddr: 0x319A0, symSize: 0x110 }
  - { offsetInCU: 0x3A2A, offset: 0x123599, size: 0x8, addend: 0x0, symName: '__ZN4core3ptr34drop_in_place$LT$syn..pat..Pat$GT$17hf99e10cab020967aE', symObjAddr: 0x930, symBinAddr: 0x31AB0, symSize: 0xEB0 }
  - { offsetInCU: 0x731C, offset: 0x126E8B, size: 0x8, addend: 0x0, symName: '__ZN4core3ptr34drop_in_place$LT$syn..ty..Type$GT$17hc9a287e6412cf4a5E.llvm.5092526142075473930', symObjAddr: 0x17E0, symBinAddr: 0x32960, symSize: 0x510 }
  - { offsetInCU: 0x897B, offset: 0x1284EA, size: 0x8, addend: 0x0, symName: '__ZN4core3ptr36drop_in_place$LT$syn..expr..Expr$GT$17hbea3b059aebc6b0dE', symObjAddr: 0x1CF0, symBinAddr: 0x32E70, symSize: 0x2790 }
  - { offsetInCU: 0x121C1, offset: 0x131D30, size: 0x8, addend: 0x0, symName: '__ZN4core3ptr36drop_in_place$LT$syn..mac..Macro$GT$17haa1481cb4fe5d660E', symObjAddr: 0x4480, symBinAddr: 0x35600, symSize: 0x40 }
  - { offsetInCU: 0x121FB, offset: 0x131D6A, size: 0x8, addend: 0x0, symName: '__ZN4core3ptr36drop_in_place$LT$syn..path..Path$GT$17hb26ddc646911d9caE', symObjAddr: 0x44C0, symBinAddr: 0x35640, symSize: 0x240 }
  - { offsetInCU: 0x12C44, offset: 0x1327B3, size: 0x8, addend: 0x0, symName: '__ZN4core3ptr37drop_in_place$LT$syn..path..QSelf$GT$17hf59f2cf7f4703e2eE.llvm.5092526142075473930', symObjAddr: 0x4700, symBinAddr: 0x35880, symSize: 0x50 }
  - { offsetInCU: 0x12DBE, offset: 0x13292D, size: 0x8, addend: 0x0, symName: '__ZN4core3ptr37drop_in_place$LT$syn..stmt..Block$GT$17h9bb04bc412e892c1E', symObjAddr: 0x4750, symBinAddr: 0x358D0, symSize: 0xD0 }
  - { offsetInCU: 0x13062, offset: 0x132BD1, size: 0x8, addend: 0x0, symName: '__ZN4core3ptr38drop_in_place$LT$syn..expr..Member$GT$17h54f73fbfaef06080E', symObjAddr: 0x4880, symBinAddr: 0x359A0, symSize: 0x30 }
  - { offsetInCU: 0x1315F, offset: 0x132CCE, size: 0x8, addend: 0x0, symName: '__ZN4core3ptr39drop_in_place$LT$proc_macro2..Ident$GT$17h9d68045e9dec4a40E', symObjAddr: 0x48B0, symBinAddr: 0x359D0, symSize: 0x30 }
  - { offsetInCU: 0x1323D, offset: 0x132DAC, size: 0x8, addend: 0x0, symName: '__ZN4core3ptr40drop_in_place$LT$syn..expr..ExprPath$GT$17h0115980c8ec091a0E.llvm.5092526142075473930', symObjAddr: 0x48E0, symBinAddr: 0x35A00, symSize: 0x110 }
  - { offsetInCU: 0x13702, offset: 0x133271, size: 0x8, addend: 0x0, symName: '__ZN4core3ptr40drop_in_place$LT$syn..ty..ReturnType$GT$17h4a68005bbc507217E', symObjAddr: 0x49F0, symBinAddr: 0x35B10, symSize: 0x50 }
  - { offsetInCU: 0x13874, offset: 0x1333E3, size: 0x8, addend: 0x0, symName: '__ZN4core3ptr41drop_in_place$LT$syn..expr..ExprConst$GT$17h454a2cb9df850c24E', symObjAddr: 0x4A40, symBinAddr: 0x35B60, symSize: 0x180 }
  - { offsetInCU: 0x13DFD, offset: 0x13396C, size: 0x8, addend: 0x0, symName: '__ZN4core3ptr44drop_in_place$LT$syn..lifetime..Lifetime$GT$17h9c301554489a697eE', symObjAddr: 0x4BC0, symBinAddr: 0x35CE0, symSize: 0x30 }
  - { offsetInCU: 0x14030, offset: 0x133B9F, size: 0x8, addend: 0x0, symName: '__ZN4core3ptr45drop_in_place$LT$proc_macro2..TokenStream$GT$17h86cac592f04212eaE', symObjAddr: 0x4BF0, symBinAddr: 0x35D10, symSize: 0x140 }
  - { offsetInCU: 0x1449F, offset: 0x13400E, size: 0x8, addend: 0x0, symName: '__ZN4core3ptr45drop_in_place$LT$syn..generics..TypeParam$GT$17he645f7cc80b7ae11E', symObjAddr: 0x4D30, symBinAddr: 0x35E50, symSize: 0x230 }
  - { offsetInCU: 0x14CCF, offset: 0x13483E, size: 0x8, addend: 0x0, symName: '__ZN4core3ptr46drop_in_place$LT$syn..generics..ConstParam$GT$17hc19d519d6441178aE', symObjAddr: 0x4F60, symBinAddr: 0x36080, symSize: 0x150 }
  - { offsetInCU: 0x1512D, offset: 0x134C9C, size: 0x8, addend: 0x0, symName: '__ZN4core3ptr47drop_in_place$LT$syn..path..GenericArgument$GT$17ha7ad17cb38a1a5afE', symObjAddr: 0x50B0, symBinAddr: 0x361D0, symSize: 0x4A0 }
  - { offsetInCU: 0x161D4, offset: 0x135D43, size: 0x8, addend: 0x0, symName: '__ZN4core3ptr49drop_in_place$LT$syn..generics..LifetimeParam$GT$17h47d9f9e81b35a3dcE', symObjAddr: 0x5550, symBinAddr: 0x36670, symSize: 0xF0 }
  - { offsetInCU: 0x165C2, offset: 0x136131, size: 0x8, addend: 0x0, symName: '__ZN4core3ptr50drop_in_place$LT$syn..generics..TypeParamBound$GT$17h7c1195cdfd37b73cE', symObjAddr: 0x5640, symBinAddr: 0x36760, symSize: 0x1A0 }
  - { offsetInCU: 0x16AF6, offset: 0x136665, size: 0x8, addend: 0x0, symName: '__ZN4core3ptr58drop_in_place$LT$alloc..vec..Vec$LT$syn..expr..Arm$GT$$GT$17ha648d1896dec8b4dE', symObjAddr: 0x57E0, symBinAddr: 0x36900, symSize: 0xD0 }
  - { offsetInCU: 0x16D83, offset: 0x1368F2, size: 0x8, addend: 0x0, symName: '__ZN4core3ptr59drop_in_place$LT$alloc..boxed..Box$LT$syn..pat..Pat$GT$$GT$17hfa860577679c86cbE', symObjAddr: 0x58B0, symBinAddr: 0x369D0, symSize: 0x50 }
  - { offsetInCU: 0x16EDE, offset: 0x136A4D, size: 0x8, addend: 0x0, symName: '__ZN4core3ptr59drop_in_place$LT$alloc..boxed..Box$LT$syn..ty..Type$GT$$GT$17hce35c4b60063cd1fE', symObjAddr: 0x5900, symBinAddr: 0x36A20, symSize: 0x50 }
  - { offsetInCU: 0x17039, offset: 0x136BA8, size: 0x8, addend: 0x0, symName: '__ZN4core3ptr61drop_in_place$LT$alloc..boxed..Box$LT$syn..expr..Expr$GT$$GT$17h35b8f1409a9ab85bE', symObjAddr: 0x5950, symBinAddr: 0x36A70, symSize: 0x50 }
  - { offsetInCU: 0x17210, offset: 0x136D7F, size: 0x8, addend: 0x0, symName: '__ZN4core3ptr61drop_in_place$LT$syn..path..ParenthesizedGenericArguments$GT$17h6d1a096952b83c04E', symObjAddr: 0x59A0, symBinAddr: 0x36AC0, symSize: 0x170 }
  - { offsetInCU: 0x177D7, offset: 0x137346, size: 0x8, addend: 0x0, symName: '__ZN4core3ptr62drop_in_place$LT$syn..path..AngleBracketedGenericArguments$GT$17h1e2e2310287487b5E', symObjAddr: 0x5B10, symBinAddr: 0x36C30, symSize: 0x120 }
  - { offsetInCU: 0x17BED, offset: 0x13775C, size: 0x8, addend: 0x0, symName: '__ZN4core3ptr63drop_in_place$LT$alloc..boxed..Box$LT$syn..lit..LitRepr$GT$$GT$17h4a54b8c5cd42faf5E', symObjAddr: 0x5C30, symBinAddr: 0x36D50, symSize: 0x60 }
  - { offsetInCU: 0x17EE2, offset: 0x137A51, size: 0x8, addend: 0x0, symName: '__ZN4core3ptr64drop_in_place$LT$alloc..boxed..Box$LT$syn..pat..FieldPat$GT$$GT$17hf3d389ef82c9f10bE', symObjAddr: 0x5C90, symBinAddr: 0x36DB0, symSize: 0x140 }
  - { offsetInCU: 0x185C1, offset: 0x138130, size: 0x8, addend: 0x0, symName: '__ZN4core3ptr64drop_in_place$LT$alloc..boxed..Box$LT$syn..ty..BareFnArg$GT$$GT$17hc862ec57eebf1a54E', symObjAddr: 0x5DD0, symBinAddr: 0x36EF0, symSize: 0x140 }
  - { offsetInCU: 0x18B19, offset: 0x138688, size: 0x8, addend: 0x0, symName: '__ZN4core3ptr65drop_in_place$LT$core..option..Option$LT$syn..expr..Label$GT$$GT$17hfc626d17a1d0054dE', symObjAddr: 0x5F10, symBinAddr: 0x37030, symSize: 0x30 }
  - { offsetInCU: 0x18C54, offset: 0x1387C3, size: 0x8, addend: 0x0, symName: '__ZN4core3ptr65drop_in_place$LT$core..option..Option$LT$syn..path..QSelf$GT$$GT$17h31a3e5c39e677989E', symObjAddr: 0x5F40, symBinAddr: 0x37060, symSize: 0x50 }
  - { offsetInCU: 0x18DED, offset: 0x13895C, size: 0x8, addend: 0x0, symName: '__ZN4core3ptr66drop_in_place$LT$core..option..Option$LT$syn..pat..PatRest$GT$$GT$17hba8f4d9198c0dabcE', symObjAddr: 0x5F90, symBinAddr: 0x370B0, symSize: 0xE0 }
  - { offsetInCU: 0x190A5, offset: 0x138C14, size: 0x8, addend: 0x0, symName: '__ZN4core3ptr67drop_in_place$LT$alloc..boxed..Box$LT$syn..expr..FieldValue$GT$$GT$17h1fe00f656b5bc41eE', symObjAddr: 0x6070, symBinAddr: 0x37190, symSize: 0x140 }
  - { offsetInCU: 0x195DD, offset: 0x13914C, size: 0x8, addend: 0x0, symName: '__ZN4core3ptr68drop_in_place$LT$alloc..boxed..Box$LT$syn..path..PathSegment$GT$$GT$17hdf3e53c9442c6d12E', symObjAddr: 0x61B0, symBinAddr: 0x372D0, symSize: 0x190 }
  - { offsetInCU: 0x19CBB, offset: 0x13982A, size: 0x8, addend: 0x0, symName: '__ZN4core3ptr70drop_in_place$LT$core..option..Option$LT$syn..ty..BareVariadic$GT$$GT$17hf6aaee8d5112d370E', symObjAddr: 0x6340, symBinAddr: 0x37460, symSize: 0x120 }
  - { offsetInCU: 0x1A21C, offset: 0x139D8B, size: 0x8, addend: 0x0, symName: '__ZN4core3ptr72drop_in_place$LT$alloc..boxed..Box$LT$syn..path..GenericArgument$GT$$GT$17hc3f5a13c594d53a1E', symObjAddr: 0x6460, symBinAddr: 0x37580, symSize: 0x1D0 }
  - { offsetInCU: 0x1A7BF, offset: 0x13A32E, size: 0x8, addend: 0x0, symName: '__ZN4core3ptr72drop_in_place$LT$core..option..Option$LT$syn..lifetime..Lifetime$GT$$GT$17hf02c2376eaf0703fE', symObjAddr: 0x6630, symBinAddr: 0x37750, symSize: 0x30 }
  - { offsetInCU: 0x1A8DB, offset: 0x13A44A, size: 0x8, addend: 0x0, symName: '__ZN4core3ptr73drop_in_place$LT$alloc..boxed..Box$LT$syn..generics..GenericParam$GT$$GT$17hbb1f35d2f323630eE', symObjAddr: 0x6660, symBinAddr: 0x37780, symSize: 0x80 }
  - { offsetInCU: 0x1ABA8, offset: 0x13A717, size: 0x8, addend: 0x0, symName: '__ZN4core3ptr73drop_in_place$LT$borsh_derive..internals..attributes..field..Variants$GT$17ha647a4b68e747d93E.llvm.5092526142075473930', symObjAddr: 0x66E0, symBinAddr: 0x37800, symSize: 0x2D0 }
  - { offsetInCU: 0x1B38A, offset: 0x13AEF9, size: 0x8, addend: 0x0, symName: '__ZN4core3ptr75drop_in_place$LT$alloc..boxed..Box$LT$syn..generics..TypeParamBound$GT$$GT$17h06d020fd356eb6c8E', symObjAddr: 0x69B0, symBinAddr: 0x37AD0, symSize: 0xB0 }
  - { offsetInCU: 0x1B688, offset: 0x13B1F7, size: 0x8, addend: 0x0, symName: '__ZN4core3ptr81drop_in_place$LT$borsh_derive..internals..attributes..field..schema..Variants$GT$17h18e6a1ca34fc24b7E.llvm.5092526142075473930', symObjAddr: 0x6BA0, symBinAddr: 0x37B80, symSize: 0xC0 }
  - { offsetInCU: 0x1B966, offset: 0x13B4D5, size: 0x8, addend: 0x0, symName: '__ZN4core3ptr86drop_in_place$LT$syn..punctuated..Punctuated$LT$syn..pat..Pat$C$syn..token..Or$GT$$GT$17h1c252cd869cc7fe5E', symObjAddr: 0x6C60, symBinAddr: 0x37C40, symSize: 0x120 }
  - { offsetInCU: 0x1BDAC, offset: 0x13B91B, size: 0x8, addend: 0x0, symName: '__ZN4core3ptr87drop_in_place$LT$core..option..Option$LT$alloc..boxed..Box$LT$syn..pat..Pat$GT$$GT$$GT$17h72bab185bf1bb06eE', symObjAddr: 0x6D80, symBinAddr: 0x37D60, symSize: 0x50 }
  - { offsetInCU: 0x1BF1E, offset: 0x13BA8D, size: 0x8, addend: 0x0, symName: '__ZN4core3ptr87drop_in_place$LT$core..option..Option$LT$alloc..boxed..Box$LT$syn..ty..Type$GT$$GT$$GT$17hc260fbb8309ec29fE', symObjAddr: 0x6DD0, symBinAddr: 0x37DB0, symSize: 0x50 }
  - { offsetInCU: 0x1C090, offset: 0x13BBFF, size: 0x8, addend: 0x0, symName: '__ZN4core3ptr89drop_in_place$LT$core..option..Option$LT$alloc..boxed..Box$LT$syn..expr..Expr$GT$$GT$$GT$17h189e15babfcbbcfaE', symObjAddr: 0x6E20, symBinAddr: 0x37E00, symSize: 0x50 }
  - { offsetInCU: 0x1C240, offset: 0x13BDAF, size: 0x8, addend: 0x0, symName: '__ZN4core3ptr89drop_in_place$LT$syn..punctuated..Punctuated$LT$syn..pat..Pat$C$syn..token..Comma$GT$$GT$17ha82f9ca12786bd54E', symObjAddr: 0x6E70, symBinAddr: 0x37E50, symSize: 0x120 }
  - { offsetInCU: 0x1C69D, offset: 0x13C20C, size: 0x8, addend: 0x0, symName: '__ZN4core3ptr89drop_in_place$LT$syn..punctuated..Punctuated$LT$syn..ty..Type$C$syn..token..Comma$GT$$GT$17h6c76e390e4497862E', symObjAddr: 0x6F90, symBinAddr: 0x37F70, symSize: 0x120 }
  - { offsetInCU: 0x1CAE7, offset: 0x13C656, size: 0x8, addend: 0x0, symName: '__ZN4core3ptr90drop_in_place$LT$core..option..Option$LT$syn..path..AngleBracketedGenericArguments$GT$$GT$17h488f4ff126d02fb4E', symObjAddr: 0x70B0, symBinAddr: 0x38090, symSize: 0x130 }
  - { offsetInCU: 0x1CF52, offset: 0x13CAC1, size: 0x8, addend: 0x0, symName: '__ZN4core3ptr91drop_in_place$LT$syn..punctuated..Punctuated$LT$syn..expr..Expr$C$syn..token..Comma$GT$$GT$17h5d174cfb4564e731E', symObjAddr: 0x71E0, symBinAddr: 0x381C0, symSize: 0x120 }
  - { offsetInCU: 0x1D3AF, offset: 0x13CF1E, size: 0x8, addend: 0x0, symName: '__ZN4core3ptr94drop_in_place$LT$syn..punctuated..Punctuated$LT$syn..pat..FieldPat$C$syn..token..Comma$GT$$GT$17h57ec84468c025663E', symObjAddr: 0x7300, symBinAddr: 0x382E0, symSize: 0xF0 }
  - { offsetInCU: 0x1D679, offset: 0x13D1E8, size: 0x8, addend: 0x0, symName: '__ZN4core3ptr94drop_in_place$LT$syn..punctuated..Punctuated$LT$syn..ty..BareFnArg$C$syn..token..Comma$GT$$GT$17h93a6df93f58cf1c2E', symObjAddr: 0x73F0, symBinAddr: 0x383D0, symSize: 0xF0 }
  - { offsetInCU: 0x1D943, offset: 0x13D4B2, size: 0x8, addend: 0x0, symName: '__ZN4core3ptr96drop_in_place$LT$core..option..Option$LT$alloc..boxed..Box$LT$syn..path..PathSegment$GT$$GT$$GT$17hfffb4eb6744ee164E', symObjAddr: 0x74E0, symBinAddr: 0x384C0, symSize: 0x90 }
  - { offsetInCU: 0x1DBC5, offset: 0x13D734, size: 0x8, addend: 0x0, symName: '__ZN4core3ptr97drop_in_place$LT$syn..punctuated..Punctuated$LT$syn..expr..FieldValue$C$syn..token..Comma$GT$$GT$17hd35fb722be03e3d1E', symObjAddr: 0x7570, symBinAddr: 0x38550, symSize: 0xF0 }
  - { offsetInCU: 0x1DE8F, offset: 0x13D9FE, size: 0x8, addend: 0x0, symName: '__ZN4core3ptr98drop_in_place$LT$alloc..vec..Vec$LT$$LP$syn..path..GenericArgument$C$syn..token..Comma$RP$$GT$$GT$17h4fdb1af8625fb77aE', symObjAddr: 0x7660, symBinAddr: 0x38640, symSize: 0xD0 }
  - { offsetInCU: 0x1E198, offset: 0x13DD07, size: 0x8, addend: 0x0, symName: '__ZN4core3ptr98drop_in_place$LT$syn..punctuated..Punctuated$LT$syn..lifetime..Lifetime$C$syn..token..Plus$GT$$GT$17h0f92166c8c801efbE', symObjAddr: 0x7730, symBinAddr: 0x38710, symSize: 0xC0 }
  - { offsetInCU: 0x23FE8, offset: 0x143B57, size: 0x8, addend: 0x0, symName: '__ZN108_$LT$alloc..collections..btree..map..Iter$LT$K$C$V$GT$$u20$as$u20$core..iter..traits..iterator..Iterator$GT$4next17hd80f450ccd5e9d51E', symObjAddr: 0x0, symBinAddr: 0x31190, symSize: 0x0 }
  - { offsetInCU: 0x2654C, offset: 0x1460BB, size: 0x8, addend: 0x0, symName: '__ZN99_$LT$alloc..collections..btree..map..BTreeMap$LT$K$C$V$C$A$GT$$u20$as$u20$core..ops..drop..Drop$GT$4drop17h22b17aa5bd78ecb2E', symObjAddr: 0x98C0, symBinAddr: 0x3A4F0, symSize: 0x0 }
  - { offsetInCU: 0x26C3D, offset: 0x1467AC, size: 0x8, addend: 0x0, symName: '__ZN99_$LT$alloc..collections..btree..map..BTreeMap$LT$K$C$V$C$A$GT$$u20$as$u20$core..ops..drop..Drop$GT$4drop17h26d9dc4671b98fafE', symObjAddr: 0x9A60, symBinAddr: 0x3A690, symSize: 0x110 }
  - { offsetInCU: 0x26F27, offset: 0x146A96, size: 0x8, addend: 0x0, symName: '__ZN99_$LT$alloc..collections..btree..map..BTreeMap$LT$K$C$V$C$A$GT$$u20$as$u20$core..ops..drop..Drop$GT$4drop17hcadd46a1c2762ecfE', symObjAddr: 0x9B70, symBinAddr: 0x3A7A0, symSize: 0x110 }
  - { offsetInCU: 0x27211, offset: 0x146D80, size: 0x8, addend: 0x0, symName: '__ZN99_$LT$alloc..collections..btree..map..BTreeMap$LT$K$C$V$C$A$GT$$u20$as$u20$core..ops..drop..Drop$GT$4drop17hcfa761daf589a47aE', symObjAddr: 0x9C80, symBinAddr: 0x3A8B0, symSize: 0x100 }
  - { offsetInCU: 0x2741D, offset: 0x146F8C, size: 0x8, addend: 0x0, symName: '__ZN99_$LT$alloc..collections..btree..map..BTreeMap$LT$K$C$V$C$A$GT$$u20$as$u20$core..ops..drop..Drop$GT$4drop17hf6827530e4983df2E', symObjAddr: 0x9D80, symBinAddr: 0x3A9B0, symSize: 0x3D0 }
  - { offsetInCU: 0x2F614, offset: 0x14F183, size: 0x8, addend: 0x0, symName: '__ZN5alloc11collections5btree3map25BTreeMap$LT$K$C$V$C$A$GT$6insert17h0ca62ad7c29dfbfcE', symObjAddr: 0x77F0, symBinAddr: 0x387D0, symSize: 0x140 }
  - { offsetInCU: 0x2FA0A, offset: 0x14F579, size: 0x8, addend: 0x0, symName: '__ZN5alloc11collections5btree3map25BTreeMap$LT$K$C$V$C$A$GT$6insert17h217d5081058c16a9E', symObjAddr: 0x7930, symBinAddr: 0x38910, symSize: 0x100 }
  - { offsetInCU: 0x2FDE0, offset: 0x14F94F, size: 0x8, addend: 0x0, symName: '__ZN5alloc11collections5btree3map25BTreeMap$LT$K$C$V$C$A$GT$6insert17h262124f2db8344fbE', symObjAddr: 0x7A30, symBinAddr: 0x38A10, symSize: 0x130 }
  - { offsetInCU: 0x301D6, offset: 0x14FD45, size: 0x8, addend: 0x0, symName: '__ZN5alloc11collections5btree3map25BTreeMap$LT$K$C$V$C$A$GT$6insert17h27f5207775de33deE', symObjAddr: 0x7B60, symBinAddr: 0x38B40, symSize: 0x100 }
  - { offsetInCU: 0x305DA, offset: 0x150149, size: 0x8, addend: 0x0, symName: '__ZN5alloc11collections5btree3map25BTreeMap$LT$K$C$V$C$A$GT$6insert17h312e59ad212ce20fE', symObjAddr: 0x7C60, symBinAddr: 0x38C40, symSize: 0x100 }
  - { offsetInCU: 0x309B0, offset: 0x15051F, size: 0x8, addend: 0x0, symName: '__ZN5alloc11collections5btree3map25BTreeMap$LT$K$C$V$C$A$GT$6insert17hbb4b32f509b1f8b8E', symObjAddr: 0x7D60, symBinAddr: 0x38D40, symSize: 0x170 }
  - { offsetInCU: 0x30D37, offset: 0x1508A6, size: 0x8, addend: 0x0, symName: '__ZN5alloc11collections5btree3map25BTreeMap$LT$K$C$V$C$A$GT$6insert17hd83742283a61e8daE', symObjAddr: 0x7ED0, symBinAddr: 0x38EB0, symSize: 0x140 }
  - { offsetInCU: 0x310BE, offset: 0x150C2D, size: 0x8, addend: 0x0, symName: '__ZN5alloc11collections5btree3map25BTreeMap$LT$K$C$V$C$A$GT$6insert17hd9cfa537485574bcE', symObjAddr: 0x8010, symBinAddr: 0x38FF0, symSize: 0x100 }
  - { offsetInCU: 0x3149E, offset: 0x15100D, size: 0x8, addend: 0x0, symName: '__ZN5alloc11collections5btree3map25IntoIter$LT$K$C$V$C$A$GT$10dying_next17h279479532c8ab0ceE', symObjAddr: 0x84C0, symBinAddr: 0x390F0, symSize: 0x400 }
  - { offsetInCU: 0x31EC1, offset: 0x151A30, size: 0x8, addend: 0x0, symName: '__ZN5alloc11collections5btree3map25IntoIter$LT$K$C$V$C$A$GT$10dying_next17hbe48b342e8a9ba78E', symObjAddr: 0x88C0, symBinAddr: 0x394F0, symSize: 0x400 }
  - { offsetInCU: 0x328E4, offset: 0x152453, size: 0x8, addend: 0x0, symName: '__ZN5alloc11collections5btree3map25IntoIter$LT$K$C$V$C$A$GT$10dying_next17hc7192d2dbad1e4b7E.llvm.5092526142075473930', symObjAddr: 0x8CC0, symBinAddr: 0x398F0, symSize: 0x400 }
  - { offsetInCU: 0x33307, offset: 0x152E76, size: 0x8, addend: 0x0, symName: '__ZN5alloc11collections5btree3map25IntoIter$LT$K$C$V$C$A$GT$10dying_next17hc8964fb7e4a327b0E.llvm.5092526142075473930', symObjAddr: 0x90C0, symBinAddr: 0x39CF0, symSize: 0x400 }
  - { offsetInCU: 0x33D2A, offset: 0x153899, size: 0x8, addend: 0x0, symName: '__ZN5alloc11collections5btree3map25IntoIter$LT$K$C$V$C$A$GT$10dying_next17hf7f4024dd963b63aE.llvm.5092526142075473930', symObjAddr: 0x94C0, symBinAddr: 0x3A0F0, symSize: 0x400 }
  - { offsetInCU: 0x99, offset: 0x15E6EB, size: 0x8, addend: 0x0, symName: '__ZN58_$LT$alloc..string..String$u20$as$u20$core..fmt..Write$GT$10write_char17hd329c0cb943f081aE', symObjAddr: 0x7580, symBinAddr: 0x421A0, symSize: 0x130 }
  - { offsetInCU: 0x440, offset: 0x15EA92, size: 0x8, addend: 0x0, symName: '__ZN58_$LT$alloc..string..String$u20$as$u20$core..fmt..Write$GT$9write_str17h1ff5aa96ca91c6d5E', symObjAddr: 0x76B0, symBinAddr: 0x422D0, symSize: 0x60 }
  - { offsetInCU: 0x3730, offset: 0x161D82, size: 0x8, addend: 0x0, symName: '__ZN4core3ptr100drop_in_place$LT$core..option..Option$LT$alloc..boxed..Box$LT$syn..path..GenericArgument$GT$$GT$$GT$17h513ef87717aedfddE', symObjAddr: 0x160, symBinAddr: 0x3AD80, symSize: 0x50 }
  - { offsetInCU: 0x3AD0, offset: 0x162122, size: 0x8, addend: 0x0, symName: '__ZN4core3ptr100drop_in_place$LT$syn..punctuated..Punctuated$LT$syn..path..PathSegment$C$syn..token..PathSep$GT$$GT$17hd0d4e322634cba5dE', symObjAddr: 0x1B0, symBinAddr: 0x3ADD0, symSize: 0x280 }
  - { offsetInCU: 0x457D, offset: 0x162BCF, size: 0x8, addend: 0x0, symName: '__ZN4core3ptr103drop_in_place$LT$core..option..Option$LT$alloc..boxed..Box$LT$syn..generics..TypeParamBound$GT$$GT$$GT$17h0d79b9ffb4171f90E', symObjAddr: 0x430, symBinAddr: 0x3B050, symSize: 0x50 }
  - { offsetInCU: 0x478A, offset: 0x162DDC, size: 0x8, addend: 0x0, symName: '__ZN4core3ptr103drop_in_place$LT$syn..punctuated..Punctuated$LT$syn..generics..GenericParam$C$syn..token..Comma$GT$$GT$17h1d35d7d5913e8beaE.llvm.6643333649892299351', symObjAddr: 0x480, symBinAddr: 0x3B0A0, symSize: 0xF0 }
  - { offsetInCU: 0x4C4D, offset: 0x16329F, size: 0x8, addend: 0x0, symName: '__ZN4core3ptr104drop_in_place$LT$syn..punctuated..Punctuated$LT$syn..generics..TypeParamBound$C$syn..token..Plus$GT$$GT$17h44083f960cd822d7E', symObjAddr: 0x570, symBinAddr: 0x3B190, symSize: 0x190 }
  - { offsetInCU: 0x52C0, offset: 0x163912, size: 0x8, addend: 0x0, symName: '__ZN4core3ptr34drop_in_place$LT$syn..lit..Lit$GT$17h3e4ef73f9d6504faE', symObjAddr: 0x700, symBinAddr: 0x3B320, symSize: 0x110 }
  - { offsetInCU: 0x5819, offset: 0x163E6B, size: 0x8, addend: 0x0, symName: '__ZN4core3ptr34drop_in_place$LT$syn..pat..Pat$GT$17hf99e10cab020967aE', symObjAddr: 0x810, symBinAddr: 0x3B430, symSize: 0x1070 }
  - { offsetInCU: 0x99BA, offset: 0x16800C, size: 0x8, addend: 0x0, symName: '__ZN4core3ptr34drop_in_place$LT$syn..ty..Type$GT$17hc9a287e6412cf4a5E.llvm.6643333649892299351', symObjAddr: 0x1880, symBinAddr: 0x3C4A0, symSize: 0x510 }
  - { offsetInCU: 0xB019, offset: 0x16966B, size: 0x8, addend: 0x0, symName: '__ZN4core3ptr36drop_in_place$LT$syn..expr..Expr$GT$17hbea3b059aebc6b0dE.llvm.6643333649892299351', symObjAddr: 0x1D90, symBinAddr: 0x3C9B0, symSize: 0x2920 }
  - { offsetInCU: 0x14E57, offset: 0x1734A9, size: 0x8, addend: 0x0, symName: '__ZN4core3ptr36drop_in_place$LT$syn..mac..Macro$GT$17haa1481cb4fe5d660E', symObjAddr: 0x46B0, symBinAddr: 0x3F2D0, symSize: 0x40 }
  - { offsetInCU: 0x14E91, offset: 0x1734E3, size: 0x8, addend: 0x0, symName: '__ZN4core3ptr36drop_in_place$LT$syn..path..Path$GT$17hb26ddc646911d9caE', symObjAddr: 0x46F0, symBinAddr: 0x3F310, symSize: 0x240 }
  - { offsetInCU: 0x158DA, offset: 0x173F2C, size: 0x8, addend: 0x0, symName: '__ZN4core3ptr37drop_in_place$LT$core..fmt..Error$GT$17h5293029f071f5c04E', symObjAddr: 0x4930, symBinAddr: 0x3F550, symSize: 0x10 }
  - { offsetInCU: 0x15906, offset: 0x173F58, size: 0x8, addend: 0x0, symName: '__ZN4core3ptr37drop_in_place$LT$syn..stmt..Block$GT$17h9bb04bc412e892c1E', symObjAddr: 0x4940, symBinAddr: 0x3F560, symSize: 0xD0 }
  - { offsetInCU: 0x15BAA, offset: 0x1741FC, size: 0x8, addend: 0x0, symName: '__ZN4core3ptr38drop_in_place$LT$syn..expr..Member$GT$17h54f73fbfaef06080E', symObjAddr: 0x4A10, symBinAddr: 0x3F630, symSize: 0x30 }
  - { offsetInCU: 0x15CA7, offset: 0x1742F9, size: 0x8, addend: 0x0, symName: '__ZN4core3ptr39drop_in_place$LT$proc_macro2..Ident$GT$17h9d68045e9dec4a40E.llvm.6643333649892299351', symObjAddr: 0x4A40, symBinAddr: 0x3F660, symSize: 0x30 }
  - { offsetInCU: 0x15D85, offset: 0x1743D7, size: 0x8, addend: 0x0, symName: '__ZN4core3ptr40drop_in_place$LT$syn..ty..ReturnType$GT$17h4a68005bbc507217E', symObjAddr: 0x4A70, symBinAddr: 0x3F690, symSize: 0x50 }
  - { offsetInCU: 0x15EF7, offset: 0x174549, size: 0x8, addend: 0x0, symName: '__ZN4core3ptr41drop_in_place$LT$syn..expr..ExprConst$GT$17h454a2cb9df850c24E', symObjAddr: 0x4AC0, symBinAddr: 0x3F6E0, symSize: 0x180 }
  - { offsetInCU: 0x16480, offset: 0x174AD2, size: 0x8, addend: 0x0, symName: '__ZN4core3ptr42drop_in_place$LT$alloc..string..String$GT$17hbf5e13799688ea34E', symObjAddr: 0x4C40, symBinAddr: 0x3F860, symSize: 0x20 }
  - { offsetInCU: 0x16589, offset: 0x174BDB, size: 0x8, addend: 0x0, symName: '__ZN4core3ptr44drop_in_place$LT$syn..lifetime..Lifetime$GT$17h9c301554489a697eE.llvm.6643333649892299351', symObjAddr: 0x4C60, symBinAddr: 0x3F880, symSize: 0x30 }
  - { offsetInCU: 0x167BC, offset: 0x174E0E, size: 0x8, addend: 0x0, symName: '__ZN4core3ptr45drop_in_place$LT$proc_macro2..TokenStream$GT$17h86cac592f04212eaE', symObjAddr: 0x4C90, symBinAddr: 0x3F8B0, symSize: 0x140 }
  - { offsetInCU: 0x16BF9, offset: 0x17524B, size: 0x8, addend: 0x0, symName: '__ZN4core3ptr45drop_in_place$LT$syn..generics..TypeParam$GT$17he645f7cc80b7ae11E.llvm.6643333649892299351', symObjAddr: 0x4DD0, symBinAddr: 0x3F9F0, symSize: 0x230 }
  - { offsetInCU: 0x17429, offset: 0x175A7B, size: 0x8, addend: 0x0, symName: '__ZN4core3ptr46drop_in_place$LT$syn..generics..ConstParam$GT$17hc19d519d6441178aE.llvm.6643333649892299351', symObjAddr: 0x5000, symBinAddr: 0x3FC20, symSize: 0x150 }
  - { offsetInCU: 0x17887, offset: 0x175ED9, size: 0x8, addend: 0x0, symName: '__ZN4core3ptr47drop_in_place$LT$syn..path..GenericArgument$GT$17ha7ad17cb38a1a5afE', symObjAddr: 0x5150, symBinAddr: 0x3FD70, symSize: 0x4A0 }
  - { offsetInCU: 0x1892E, offset: 0x176F80, size: 0x8, addend: 0x0, symName: '__ZN4core3ptr49drop_in_place$LT$syn..generics..LifetimeParam$GT$17h47d9f9e81b35a3dcE.llvm.6643333649892299351', symObjAddr: 0x55F0, symBinAddr: 0x40210, symSize: 0xF0 }
  - { offsetInCU: 0x18D1C, offset: 0x17736E, size: 0x8, addend: 0x0, symName: '__ZN4core3ptr50drop_in_place$LT$syn..generics..TypeParamBound$GT$17h7c1195cdfd37b73cE', symObjAddr: 0x56E0, symBinAddr: 0x40300, symSize: 0x1A0 }
  - { offsetInCU: 0x1926F, offset: 0x1778C1, size: 0x8, addend: 0x0, symName: '__ZN4core3ptr57drop_in_place$LT$alloc..vec..Vec$LT$syn..ty..Type$GT$$GT$17h69848ab11a3422e4E', symObjAddr: 0x5880, symBinAddr: 0x404A0, symSize: 0xD0 }
  - { offsetInCU: 0x194FC, offset: 0x177B4E, size: 0x8, addend: 0x0, symName: '__ZN4core3ptr58drop_in_place$LT$alloc..vec..Vec$LT$syn..expr..Arm$GT$$GT$17ha648d1896dec8b4dE', symObjAddr: 0x5950, symBinAddr: 0x40570, symSize: 0xD0 }
  - { offsetInCU: 0x19789, offset: 0x177DDB, size: 0x8, addend: 0x0, symName: '__ZN4core3ptr59drop_in_place$LT$alloc..boxed..Box$LT$syn..pat..Pat$GT$$GT$17hfa860577679c86cbE', symObjAddr: 0x5A20, symBinAddr: 0x40640, symSize: 0x50 }
  - { offsetInCU: 0x198E4, offset: 0x177F36, size: 0x8, addend: 0x0, symName: '__ZN4core3ptr59drop_in_place$LT$alloc..boxed..Box$LT$syn..ty..Type$GT$$GT$17hce35c4b60063cd1fE', symObjAddr: 0x5A70, symBinAddr: 0x40690, symSize: 0x50 }
  - { offsetInCU: 0x19A3F, offset: 0x178091, size: 0x8, addend: 0x0, symName: '__ZN4core3ptr61drop_in_place$LT$alloc..boxed..Box$LT$syn..expr..Expr$GT$$GT$17h35b8f1409a9ab85bE', symObjAddr: 0x5AC0, symBinAddr: 0x406E0, symSize: 0x50 }
  - { offsetInCU: 0x19C16, offset: 0x178268, size: 0x8, addend: 0x0, symName: '__ZN4core3ptr61drop_in_place$LT$syn..path..ParenthesizedGenericArguments$GT$17h6d1a096952b83c04E', symObjAddr: 0x5B10, symBinAddr: 0x40730, symSize: 0x170 }
  - { offsetInCU: 0x1A1FC, offset: 0x17884E, size: 0x8, addend: 0x0, symName: '__ZN4core3ptr62drop_in_place$LT$alloc..vec..Vec$LT$proc_macro2..Ident$GT$$GT$17ha73e327f55587d31E', symObjAddr: 0x5C80, symBinAddr: 0x408A0, symSize: 0x80 }
  - { offsetInCU: 0x1A467, offset: 0x178AB9, size: 0x8, addend: 0x0, symName: '__ZN4core3ptr62drop_in_place$LT$syn..path..AngleBracketedGenericArguments$GT$17h1e2e2310287487b5E', symObjAddr: 0x5D00, symBinAddr: 0x40920, symSize: 0x120 }
  - { offsetInCU: 0x1A87D, offset: 0x178ECF, size: 0x8, addend: 0x0, symName: '__ZN4core3ptr63drop_in_place$LT$alloc..boxed..Box$LT$syn..lit..LitRepr$GT$$GT$17h4a54b8c5cd42faf5E', symObjAddr: 0x5E20, symBinAddr: 0x40A40, symSize: 0x60 }
  - { offsetInCU: 0x1AB72, offset: 0x1791C4, size: 0x8, addend: 0x0, symName: '__ZN4core3ptr64drop_in_place$LT$alloc..boxed..Box$LT$syn..pat..FieldPat$GT$$GT$17hf3d389ef82c9f10bE', symObjAddr: 0x5E80, symBinAddr: 0x40AA0, symSize: 0x140 }
  - { offsetInCU: 0x1B251, offset: 0x1798A3, size: 0x8, addend: 0x0, symName: '__ZN4core3ptr64drop_in_place$LT$alloc..boxed..Box$LT$syn..ty..BareFnArg$GT$$GT$17hc862ec57eebf1a54E', symObjAddr: 0x5FC0, symBinAddr: 0x40BE0, symSize: 0x140 }
  - { offsetInCU: 0x1B7A9, offset: 0x179DFB, size: 0x8, addend: 0x0, symName: '__ZN4core3ptr65drop_in_place$LT$core..option..Option$LT$syn..expr..Label$GT$$GT$17hfc626d17a1d0054dE', symObjAddr: 0x6100, symBinAddr: 0x40D20, symSize: 0x30 }
  - { offsetInCU: 0x1B8E4, offset: 0x179F36, size: 0x8, addend: 0x0, symName: '__ZN4core3ptr66drop_in_place$LT$core..option..Option$LT$syn..pat..PatRest$GT$$GT$17hba8f4d9198c0dabcE', symObjAddr: 0x6130, symBinAddr: 0x40D50, symSize: 0xE0 }
  - { offsetInCU: 0x1BB9C, offset: 0x17A1EE, size: 0x8, addend: 0x0, symName: '__ZN4core3ptr67drop_in_place$LT$alloc..boxed..Box$LT$syn..expr..FieldValue$GT$$GT$17h1fe00f656b5bc41eE', symObjAddr: 0x6210, symBinAddr: 0x40E30, symSize: 0x140 }
  - { offsetInCU: 0x1C0D4, offset: 0x17A726, size: 0x8, addend: 0x0, symName: '__ZN4core3ptr68drop_in_place$LT$alloc..boxed..Box$LT$syn..path..PathSegment$GT$$GT$17hdf3e53c9442c6d12E', symObjAddr: 0x6350, symBinAddr: 0x40F70, symSize: 0x190 }
  - { offsetInCU: 0x1C88B, offset: 0x17AEDD, size: 0x8, addend: 0x0, symName: '__ZN4core3ptr68drop_in_place$LT$borsh_derive..internals..generics..FindTyParams$GT$17h9dff03c3f81b2b80E', symObjAddr: 0x64E0, symBinAddr: 0x41100, symSize: 0xA0 }
  - { offsetInCU: 0x1CC8E, offset: 0x17B2E0, size: 0x8, addend: 0x0, symName: '__ZN4core3ptr70drop_in_place$LT$core..option..Option$LT$syn..ty..BareVariadic$GT$$GT$17hf6aaee8d5112d370E', symObjAddr: 0x6580, symBinAddr: 0x411A0, symSize: 0x120 }
  - { offsetInCU: 0x1D1EF, offset: 0x17B841, size: 0x8, addend: 0x0, symName: '__ZN4core3ptr72drop_in_place$LT$alloc..boxed..Box$LT$syn..path..GenericArgument$GT$$GT$17hc3f5a13c594d53a1E', symObjAddr: 0x66A0, symBinAddr: 0x412C0, symSize: 0x1D0 }
  - { offsetInCU: 0x1D792, offset: 0x17BDE4, size: 0x8, addend: 0x0, symName: '__ZN4core3ptr72drop_in_place$LT$core..option..Option$LT$syn..lifetime..Lifetime$GT$$GT$17hf02c2376eaf0703fE', symObjAddr: 0x6870, symBinAddr: 0x41490, symSize: 0x30 }
  - { offsetInCU: 0x1D8AE, offset: 0x17BF00, size: 0x8, addend: 0x0, symName: '__ZN4core3ptr73drop_in_place$LT$alloc..boxed..Box$LT$syn..generics..GenericParam$GT$$GT$17hbb1f35d2f323630eE.llvm.6643333649892299351', symObjAddr: 0x68A0, symBinAddr: 0x414C0, symSize: 0x80 }
  - { offsetInCU: 0x1DA26, offset: 0x17C078, size: 0x8, addend: 0x0, symName: '__ZN4core3ptr75drop_in_place$LT$alloc..boxed..Box$LT$syn..generics..TypeParamBound$GT$$GT$17h06d020fd356eb6c8E', symObjAddr: 0x6920, symBinAddr: 0x41540, symSize: 0xB0 }
  - { offsetInCU: 0x1DD81, offset: 0x17C3D3, size: 0x8, addend: 0x0, symName: '__ZN4core3ptr86drop_in_place$LT$syn..punctuated..Punctuated$LT$syn..pat..Pat$C$syn..token..Or$GT$$GT$17h1c252cd869cc7fe5E', symObjAddr: 0x69D0, symBinAddr: 0x415F0, symSize: 0x120 }
  - { offsetInCU: 0x1E1C7, offset: 0x17C819, size: 0x8, addend: 0x0, symName: '__ZN4core3ptr87drop_in_place$LT$core..option..Option$LT$alloc..boxed..Box$LT$syn..pat..Pat$GT$$GT$$GT$17h72bab185bf1bb06eE', symObjAddr: 0x6AF0, symBinAddr: 0x41710, symSize: 0x50 }
  - { offsetInCU: 0x1E339, offset: 0x17C98B, size: 0x8, addend: 0x0, symName: '__ZN4core3ptr87drop_in_place$LT$core..option..Option$LT$alloc..boxed..Box$LT$syn..ty..Type$GT$$GT$$GT$17hc260fbb8309ec29fE', symObjAddr: 0x6B40, symBinAddr: 0x41760, symSize: 0x50 }
  - { offsetInCU: 0x1E4AB, offset: 0x17CAFD, size: 0x8, addend: 0x0, symName: '__ZN4core3ptr89drop_in_place$LT$core..option..Option$LT$alloc..boxed..Box$LT$syn..expr..Expr$GT$$GT$$GT$17h189e15babfcbbcfaE', symObjAddr: 0x6B90, symBinAddr: 0x417B0, symSize: 0x50 }
  - { offsetInCU: 0x1E65B, offset: 0x17CCAD, size: 0x8, addend: 0x0, symName: '__ZN4core3ptr89drop_in_place$LT$syn..punctuated..Punctuated$LT$syn..pat..Pat$C$syn..token..Comma$GT$$GT$17ha82f9ca12786bd54E', symObjAddr: 0x6BE0, symBinAddr: 0x41800, symSize: 0x120 }
  - { offsetInCU: 0x1EAB8, offset: 0x17D10A, size: 0x8, addend: 0x0, symName: '__ZN4core3ptr89drop_in_place$LT$syn..punctuated..Punctuated$LT$syn..ty..Type$C$syn..token..Comma$GT$$GT$17h6c76e390e4497862E', symObjAddr: 0x6D00, symBinAddr: 0x41920, symSize: 0x120 }
  - { offsetInCU: 0x1EF02, offset: 0x17D554, size: 0x8, addend: 0x0, symName: '__ZN4core3ptr90drop_in_place$LT$core..option..Option$LT$syn..path..AngleBracketedGenericArguments$GT$$GT$17h488f4ff126d02fb4E', symObjAddr: 0x6E20, symBinAddr: 0x41A40, symSize: 0x130 }
  - { offsetInCU: 0x1F36D, offset: 0x17D9BF, size: 0x8, addend: 0x0, symName: '__ZN4core3ptr91drop_in_place$LT$syn..punctuated..Punctuated$LT$syn..expr..Expr$C$syn..token..Comma$GT$$GT$17h5d174cfb4564e731E', symObjAddr: 0x6F50, symBinAddr: 0x41B70, symSize: 0x120 }
  - { offsetInCU: 0x1F7CA, offset: 0x17DE1C, size: 0x8, addend: 0x0, symName: '__ZN4core3ptr94drop_in_place$LT$syn..punctuated..Punctuated$LT$syn..pat..FieldPat$C$syn..token..Comma$GT$$GT$17h57ec84468c025663E', symObjAddr: 0x7070, symBinAddr: 0x41C90, symSize: 0xF0 }
  - { offsetInCU: 0x1FA94, offset: 0x17E0E6, size: 0x8, addend: 0x0, symName: '__ZN4core3ptr94drop_in_place$LT$syn..punctuated..Punctuated$LT$syn..ty..BareFnArg$C$syn..token..Comma$GT$$GT$17h93a6df93f58cf1c2E', symObjAddr: 0x7160, symBinAddr: 0x41D80, symSize: 0xF0 }
  - { offsetInCU: 0x1FD5E, offset: 0x17E3B0, size: 0x8, addend: 0x0, symName: '__ZN4core3ptr96drop_in_place$LT$core..option..Option$LT$alloc..boxed..Box$LT$syn..path..PathSegment$GT$$GT$$GT$17hfffb4eb6744ee164E', symObjAddr: 0x7250, symBinAddr: 0x41E70, symSize: 0x90 }
  - { offsetInCU: 0x1FFE0, offset: 0x17E632, size: 0x8, addend: 0x0, symName: '__ZN4core3ptr97drop_in_place$LT$syn..punctuated..Punctuated$LT$syn..expr..FieldValue$C$syn..token..Comma$GT$$GT$17hd35fb722be03e3d1E', symObjAddr: 0x72E0, symBinAddr: 0x41F00, symSize: 0xF0 }
  - { offsetInCU: 0x202AA, offset: 0x17E8FC, size: 0x8, addend: 0x0, symName: '__ZN4core3ptr98drop_in_place$LT$alloc..vec..Vec$LT$$LP$syn..path..GenericArgument$C$syn..token..Comma$RP$$GT$$GT$17h4fdb1af8625fb77aE', symObjAddr: 0x73D0, symBinAddr: 0x41FF0, symSize: 0xD0 }
  - { offsetInCU: 0x205B3, offset: 0x17EC05, size: 0x8, addend: 0x0, symName: '__ZN4core3ptr98drop_in_place$LT$syn..punctuated..Punctuated$LT$syn..lifetime..Lifetime$C$syn..token..Plus$GT$$GT$17h0f92166c8c801efbE.llvm.6643333649892299351', symObjAddr: 0x74A0, symBinAddr: 0x420C0, symSize: 0xC0 }
  - { offsetInCU: 0x21298, offset: 0x17F8EA, size: 0x8, addend: 0x0, symName: '__ZN53_$LT$core..fmt..Error$u20$as$u20$core..fmt..Debug$GT$3fmt17h43ae5cec9623af13E', symObjAddr: 0x7560, symBinAddr: 0x42180, symSize: 0x20 }
  - { offsetInCU: 0x2AD5E, offset: 0x1893B0, size: 0x8, addend: 0x0, symName: __ZN12borsh_derive9internals8generics16without_defaults17h0287a19f22121d33E, symObjAddr: 0x77B0, symBinAddr: 0x42330, symSize: 0x120 }
  - { offsetInCU: 0x2B195, offset: 0x1897E7, size: 0x8, addend: 0x0, symName: __ZN12borsh_derive9internals8generics24type_contains_some_param17h8890f53916a74981E, symObjAddr: 0x78D0, symBinAddr: 0x42450, symSize: 0x3A0 }
  - { offsetInCU: 0x2D615, offset: 0x18BC67, size: 0x8, addend: 0x0, symName: __ZN12borsh_derive9internals8generics12FindTyParams3new17hf657cfa3bbe8c030E, symObjAddr: 0x7C70, symBinAddr: 0x427F0, symSize: 0x2B0 }
  - { offsetInCU: 0x2E85F, offset: 0x18CEB1, size: 0x8, addend: 0x0, symName: __ZN12borsh_derive9internals8generics12FindTyParams18process_for_bounds17haf67b7bef76756f3E, symObjAddr: 0x7F20, symBinAddr: 0x42AA0, symSize: 0x1010 }
  - { offsetInCU: 0x3235B, offset: 0x1909AD, size: 0x8, addend: 0x0, symName: __ZN12borsh_derive9internals8generics12FindTyParams18process_for_params17h33723da6a33f549dE, symObjAddr: 0x8F30, symBinAddr: 0x43AB0, symSize: 0x830 }
  - { offsetInCU: 0x34662, offset: 0x192CB4, size: 0x8, addend: 0x0, symName: __ZN12borsh_derive9internals8generics12FindTyParams20visit_type_top_level17h88b06f145d419d95E.llvm.6643333649892299351, symObjAddr: 0x9770, symBinAddr: 0x442E0, symSize: 0x1F0 }
  - { offsetInCU: 0x34F6A, offset: 0x1935BC, size: 0x8, addend: 0x0, symName: __ZN12borsh_derive9internals8generics12FindTyParams28param_associated_type_insert17hb0eb04cbe7270776E, symObjAddr: 0x9960, symBinAddr: 0x444D0, symSize: 0x340 }
  - { offsetInCU: 0x35E25, offset: 0x194477, size: 0x8, addend: 0x0, symName: __ZN12borsh_derive9internals8generics12FindTyParams10visit_path17hd2176455c03923b4E, symObjAddr: 0x9CA0, symBinAddr: 0x44810, symSize: 0x540 }
  - { offsetInCU: 0x378C1, offset: 0x195F13, size: 0x8, addend: 0x0, symName: __ZN12borsh_derive9internals8generics12FindTyParams10visit_type17h14527bbbe38a5044E, symObjAddr: 0xA1E0, symBinAddr: 0x44D50, symSize: 0x3E8 }
  - { offsetInCU: 0x1E, offset: 0x19D657, size: 0x8, addend: 0x0, symName: __ZN3syn4meta15ParseNestedMeta17parse_nested_meta17h0f2f3295ed04755fE, symObjAddr: 0x0, symBinAddr: 0x45140, symSize: 0x2B0 }
  - { offsetInCU: 0xE4, offset: 0x19D71D, size: 0x8, addend: 0x0, symName: '__ZN58_$LT$alloc..string..String$u20$as$u20$core..fmt..Write$GT$10write_char17hd329c0cb943f081aE', symObjAddr: 0xA140, symBinAddr: 0x4F1F0, symSize: 0x130 }
  - { offsetInCU: 0x48B, offset: 0x19DAC4, size: 0x8, addend: 0x0, symName: '__ZN58_$LT$alloc..string..String$u20$as$u20$core..fmt..Write$GT$9write_str17h1ff5aa96ca91c6d5E', symObjAddr: 0xA270, symBinAddr: 0x4F320, symSize: 0x5B }
  - { offsetInCU: 0x3E12, offset: 0x1A144B, size: 0x8, addend: 0x0, symName: '__ZN4core3ptr100drop_in_place$LT$core..option..Option$LT$alloc..boxed..Box$LT$syn..path..GenericArgument$GT$$GT$$GT$17h513ef87717aedfddE', symObjAddr: 0x32F0, symBinAddr: 0x483A0, symSize: 0x50 }
  - { offsetInCU: 0x3FE1, offset: 0x1A161A, size: 0x8, addend: 0x0, symName: '__ZN4core3ptr102drop_in_place$LT$syn..punctuated..Punctuated$LT$syn..path..GenericArgument$C$syn..token..Comma$GT$$GT$17ha5e403e03e446464E', symObjAddr: 0x3340, symBinAddr: 0x483F0, symSize: 0xF0 }
  - { offsetInCU: 0x42CA, offset: 0x1A1903, size: 0x8, addend: 0x0, symName: '__ZN4core3ptr103drop_in_place$LT$core..option..Option$LT$alloc..boxed..Box$LT$syn..generics..TypeParamBound$GT$$GT$$GT$17h0d79b9ffb4171f90E', symObjAddr: 0x3430, symBinAddr: 0x484E0, symSize: 0x50 }
  - { offsetInCU: 0x44D7, offset: 0x1A1B10, size: 0x8, addend: 0x0, symName: '__ZN4core3ptr103drop_in_place$LT$syn..punctuated..Punctuated$LT$syn..generics..GenericParam$C$syn..token..Comma$GT$$GT$17h1d35d7d5913e8beaE', symObjAddr: 0x3480, symBinAddr: 0x48530, symSize: 0xF0 }
  - { offsetInCU: 0x4A73, offset: 0x1A20AC, size: 0x8, addend: 0x0, symName: '__ZN4core3ptr104drop_in_place$LT$syn..punctuated..Punctuated$LT$syn..generics..TypeParamBound$C$syn..token..Plus$GT$$GT$17h44083f960cd822d7E', symObjAddr: 0x3570, symBinAddr: 0x48620, symSize: 0x260 }
  - { offsetInCU: 0x5408, offset: 0x1A2A41, size: 0x8, addend: 0x0, symName: '__ZN4core3ptr34drop_in_place$LT$syn..lit..Lit$GT$17h3e4ef73f9d6504faE', symObjAddr: 0x37D0, symBinAddr: 0x48880, symSize: 0x110 }
  - { offsetInCU: 0x5961, offset: 0x1A2F9A, size: 0x8, addend: 0x0, symName: '__ZN4core3ptr34drop_in_place$LT$syn..pat..Pat$GT$17hf99e10cab020967aE', symObjAddr: 0x38E0, symBinAddr: 0x48990, symSize: 0xF00 }
  - { offsetInCU: 0x9404, offset: 0x1A6A3D, size: 0x8, addend: 0x0, symName: '__ZN4core3ptr34drop_in_place$LT$syn..ty..Type$GT$17hc9a287e6412cf4a5E', symObjAddr: 0x47E0, symBinAddr: 0x49890, symSize: 0x5E0 }
  - { offsetInCU: 0xAD4E, offset: 0x1A8387, size: 0x8, addend: 0x0, symName: '__ZN4core3ptr36drop_in_place$LT$syn..expr..Expr$GT$17hbea3b059aebc6b0dE', symObjAddr: 0x4DC0, symBinAddr: 0x49E70, symSize: 0x2830 }
  - { offsetInCU: 0x147C3, offset: 0x1B1DFC, size: 0x8, addend: 0x0, symName: '__ZN4core3ptr36drop_in_place$LT$syn..mac..Macro$GT$17haa1481cb4fe5d660E', symObjAddr: 0x75F0, symBinAddr: 0x4C6A0, symSize: 0x110 }
  - { offsetInCU: 0x14C48, offset: 0x1B2281, size: 0x8, addend: 0x0, symName: '__ZN4core3ptr36drop_in_place$LT$syn..path..Path$GT$17hb26ddc646911d9caE', symObjAddr: 0x7700, symBinAddr: 0x4C7B0, symSize: 0x240 }
  - { offsetInCU: 0x15691, offset: 0x1B2CCA, size: 0x8, addend: 0x0, symName: '__ZN4core3ptr37drop_in_place$LT$core..fmt..Error$GT$17h5293029f071f5c04E', symObjAddr: 0x7940, symBinAddr: 0x4C9F0, symSize: 0x10 }
  - { offsetInCU: 0x156BD, offset: 0x1B2CF6, size: 0x8, addend: 0x0, symName: '__ZN4core3ptr37drop_in_place$LT$syn..stmt..Block$GT$17h9bb04bc412e892c1E', symObjAddr: 0x7950, symBinAddr: 0x4CA00, symSize: 0xD0 }
  - { offsetInCU: 0x15961, offset: 0x1B2F9A, size: 0x8, addend: 0x0, symName: '__ZN4core3ptr38drop_in_place$LT$syn..expr..Member$GT$17h54f73fbfaef06080E', symObjAddr: 0x7A20, symBinAddr: 0x4CAD0, symSize: 0x30 }
  - { offsetInCU: 0x15A5E, offset: 0x1B3097, size: 0x8, addend: 0x0, symName: '__ZN4core3ptr39drop_in_place$LT$proc_macro2..Ident$GT$17h9d68045e9dec4a40E', symObjAddr: 0x7A50, symBinAddr: 0x4CB00, symSize: 0x30 }
  - { offsetInCU: 0x15C72, offset: 0x1B32AB, size: 0x8, addend: 0x0, symName: '__ZN4core3ptr39drop_in_place$LT$syn..buffer..Entry$GT$17he911fb6fde1a44d3E', symObjAddr: 0x7A80, symBinAddr: 0x4CB30, symSize: 0xC0 }
  - { offsetInCU: 0x15F86, offset: 0x1B35BF, size: 0x8, addend: 0x0, symName: '__ZN4core3ptr40drop_in_place$LT$syn..ty..ReturnType$GT$17h4a68005bbc507217E', symObjAddr: 0x7B40, symBinAddr: 0x4CBF0, symSize: 0x50 }
  - { offsetInCU: 0x160F8, offset: 0x1B3731, size: 0x8, addend: 0x0, symName: '__ZN4core3ptr41drop_in_place$LT$syn..expr..ExprConst$GT$17h454a2cb9df850c24E', symObjAddr: 0x7B90, symBinAddr: 0x4CC40, symSize: 0x180 }
  - { offsetInCU: 0x16681, offset: 0x1B3CBA, size: 0x8, addend: 0x0, symName: '__ZN4core3ptr42drop_in_place$LT$alloc..string..String$GT$17hbf5e13799688ea34E', symObjAddr: 0x7D10, symBinAddr: 0x4CDC0, symSize: 0x20 }
  - { offsetInCU: 0x1678A, offset: 0x1B3DC3, size: 0x8, addend: 0x0, symName: '__ZN4core3ptr44drop_in_place$LT$syn..lifetime..Lifetime$GT$17h9c301554489a697eE', symObjAddr: 0x7D30, symBinAddr: 0x4CDE0, symSize: 0x30 }
  - { offsetInCU: 0x16887, offset: 0x1B3EC0, size: 0x8, addend: 0x0, symName: '__ZN4core3ptr44drop_in_place$LT$syn..parse..ParseBuffer$GT$17h3a1d2b9c57144131E', symObjAddr: 0x7D60, symBinAddr: 0x4CE10, symSize: 0x70 }
  - { offsetInCU: 0x16C21, offset: 0x1B425A, size: 0x8, addend: 0x0, symName: '__ZN4core3ptr45drop_in_place$LT$proc_macro2..TokenStream$GT$17h86cac592f04212eaE', symObjAddr: 0x7DD0, symBinAddr: 0x4CE80, symSize: 0x140 }
  - { offsetInCU: 0x17052, offset: 0x1B468B, size: 0x8, addend: 0x0, symName: '__ZN4core3ptr45drop_in_place$LT$syn..buffer..TokenBuffer$GT$17h05a8c26e3d154a12E', symObjAddr: 0x7F10, symBinAddr: 0x4CFC0, symSize: 0xD0 }
  - { offsetInCU: 0x172B8, offset: 0x1B48F1, size: 0x8, addend: 0x0, symName: '__ZN4core3ptr45drop_in_place$LT$syn..generics..TypeParam$GT$17he645f7cc80b7ae11E', symObjAddr: 0x7FE0, symBinAddr: 0x4D090, symSize: 0x230 }
  - { offsetInCU: 0x17AE8, offset: 0x1B5121, size: 0x8, addend: 0x0, symName: '__ZN4core3ptr46drop_in_place$LT$syn..generics..ConstParam$GT$17hc19d519d6441178aE', symObjAddr: 0x8210, symBinAddr: 0x4D2C0, symSize: 0x150 }
  - { offsetInCU: 0x17F46, offset: 0x1B557F, size: 0x8, addend: 0x0, symName: '__ZN4core3ptr47drop_in_place$LT$syn..path..GenericArgument$GT$17ha7ad17cb38a1a5afE', symObjAddr: 0x8360, symBinAddr: 0x4D410, symSize: 0x460 }
  - { offsetInCU: 0x18C4F, offset: 0x1B6288, size: 0x8, addend: 0x0, symName: '__ZN4core3ptr49drop_in_place$LT$syn..generics..LifetimeParam$GT$17h47d9f9e81b35a3dcE', symObjAddr: 0x87C0, symBinAddr: 0x4D870, symSize: 0xF0 }
  - { offsetInCU: 0x1903D, offset: 0x1B6676, size: 0x8, addend: 0x0, symName: '__ZN4core3ptr50drop_in_place$LT$syn..generics..TypeParamBound$GT$17h7c1195cdfd37b73cE', symObjAddr: 0x88B0, symBinAddr: 0x4D960, symSize: 0xA0 }
  - { offsetInCU: 0x191A4, offset: 0x1B67DD, size: 0x8, addend: 0x0, symName: '__ZN4core3ptr58drop_in_place$LT$alloc..vec..Vec$LT$syn..expr..Arm$GT$$GT$17ha648d1896dec8b4dE', symObjAddr: 0x8950, symBinAddr: 0x4DA00, symSize: 0xD0 }
  - { offsetInCU: 0x19431, offset: 0x1B6A6A, size: 0x8, addend: 0x0, symName: '__ZN4core3ptr59drop_in_place$LT$alloc..boxed..Box$LT$syn..pat..Pat$GT$$GT$17hfa860577679c86cbE', symObjAddr: 0x8A20, symBinAddr: 0x4DAD0, symSize: 0x50 }
  - { offsetInCU: 0x1958C, offset: 0x1B6BC5, size: 0x8, addend: 0x0, symName: '__ZN4core3ptr59drop_in_place$LT$alloc..boxed..Box$LT$syn..ty..Type$GT$$GT$17hce35c4b60063cd1fE', symObjAddr: 0x8A70, symBinAddr: 0x4DB20, symSize: 0x50 }
  - { offsetInCU: 0x196E7, offset: 0x1B6D20, size: 0x8, addend: 0x0, symName: '__ZN4core3ptr61drop_in_place$LT$alloc..boxed..Box$LT$syn..expr..Expr$GT$$GT$17h35b8f1409a9ab85bE', symObjAddr: 0x8AC0, symBinAddr: 0x4DB70, symSize: 0x50 }
  - { offsetInCU: 0x19842, offset: 0x1B6E7B, size: 0x8, addend: 0x0, symName: '__ZN4core3ptr61drop_in_place$LT$syn..path..ParenthesizedGenericArguments$GT$17h6d1a096952b83c04E', symObjAddr: 0x8B10, symBinAddr: 0x4DBC0, symSize: 0x170 }
  - { offsetInCU: 0x19E1C, offset: 0x1B7455, size: 0x8, addend: 0x0, symName: '__ZN4core3ptr63drop_in_place$LT$alloc..boxed..Box$LT$syn..lit..LitRepr$GT$$GT$17h4a54b8c5cd42faf5E', symObjAddr: 0x8C80, symBinAddr: 0x4DD30, symSize: 0x60 }
  - { offsetInCU: 0x1A111, offset: 0x1B774A, size: 0x8, addend: 0x0, symName: '__ZN4core3ptr64drop_in_place$LT$alloc..boxed..Box$LT$syn..pat..FieldPat$GT$$GT$17hf3d389ef82c9f10bE', symObjAddr: 0x8CE0, symBinAddr: 0x4DD90, symSize: 0x140 }
  - { offsetInCU: 0x1A7F0, offset: 0x1B7E29, size: 0x8, addend: 0x0, symName: '__ZN4core3ptr64drop_in_place$LT$alloc..boxed..Box$LT$syn..ty..BareFnArg$GT$$GT$17hc862ec57eebf1a54E', symObjAddr: 0x8E20, symBinAddr: 0x4DED0, symSize: 0x140 }
  - { offsetInCU: 0x1AD48, offset: 0x1B8381, size: 0x8, addend: 0x0, symName: '__ZN4core3ptr65drop_in_place$LT$core..option..Option$LT$syn..expr..Label$GT$$GT$17hfc626d17a1d0054dE', symObjAddr: 0x8F60, symBinAddr: 0x4E010, symSize: 0x30 }
  - { offsetInCU: 0x1AE83, offset: 0x1B84BC, size: 0x8, addend: 0x0, symName: '__ZN4core3ptr66drop_in_place$LT$core..option..Option$LT$syn..pat..PatRest$GT$$GT$17hba8f4d9198c0dabcE', symObjAddr: 0x8F90, symBinAddr: 0x4E040, symSize: 0xE0 }
  - { offsetInCU: 0x1B13B, offset: 0x1B8774, size: 0x8, addend: 0x0, symName: '__ZN4core3ptr67drop_in_place$LT$alloc..boxed..Box$LT$syn..expr..FieldValue$GT$$GT$17h1fe00f656b5bc41eE', symObjAddr: 0x9070, symBinAddr: 0x4E120, symSize: 0x140 }
  - { offsetInCU: 0x1B692, offset: 0x1B8CCB, size: 0x8, addend: 0x0, symName: '__ZN4core3ptr70drop_in_place$LT$core..option..Option$LT$syn..ty..BareVariadic$GT$$GT$17hf6aaee8d5112d370E', symObjAddr: 0x91B0, symBinAddr: 0x4E260, symSize: 0x120 }
  - { offsetInCU: 0x1BBF3, offset: 0x1B922C, size: 0x8, addend: 0x0, symName: '__ZN4core3ptr72drop_in_place$LT$alloc..boxed..Box$LT$syn..path..GenericArgument$GT$$GT$17hc3f5a13c594d53a1E', symObjAddr: 0x92D0, symBinAddr: 0x4E380, symSize: 0x2B0 }
  - { offsetInCU: 0x1C5DE, offset: 0x1B9C17, size: 0x8, addend: 0x0, symName: '__ZN4core3ptr72drop_in_place$LT$core..option..Option$LT$syn..lifetime..Lifetime$GT$$GT$17hf02c2376eaf0703fE', symObjAddr: 0x9580, symBinAddr: 0x4E630, symSize: 0x30 }
  - { offsetInCU: 0x1C6FA, offset: 0x1B9D33, size: 0x8, addend: 0x0, symName: '__ZN4core3ptr73drop_in_place$LT$alloc..boxed..Box$LT$syn..generics..GenericParam$GT$$GT$17hbb1f35d2f323630eE', symObjAddr: 0x95B0, symBinAddr: 0x4E660, symSize: 0x80 }
  - { offsetInCU: 0x1C872, offset: 0x1B9EAB, size: 0x8, addend: 0x0, symName: '__ZN4core3ptr75drop_in_place$LT$alloc..boxed..Box$LT$syn..generics..TypeParamBound$GT$$GT$17h06d020fd356eb6c8E', symObjAddr: 0x9630, symBinAddr: 0x4E6E0, symSize: 0x190 }
  - { offsetInCU: 0x1CF4C, offset: 0x1BA585, size: 0x8, addend: 0x0, symName: '__ZN4core3ptr86drop_in_place$LT$syn..punctuated..Punctuated$LT$syn..pat..Pat$C$syn..token..Or$GT$$GT$17h1c252cd869cc7fe5E', symObjAddr: 0x97C0, symBinAddr: 0x4E870, symSize: 0x120 }
  - { offsetInCU: 0x1D392, offset: 0x1BA9CB, size: 0x8, addend: 0x0, symName: '__ZN4core3ptr87drop_in_place$LT$core..option..Option$LT$alloc..boxed..Box$LT$syn..pat..Pat$GT$$GT$$GT$17h72bab185bf1bb06eE', symObjAddr: 0x98E0, symBinAddr: 0x4E990, symSize: 0x50 }
  - { offsetInCU: 0x1D504, offset: 0x1BAB3D, size: 0x8, addend: 0x0, symName: '__ZN4core3ptr87drop_in_place$LT$core..option..Option$LT$alloc..boxed..Box$LT$syn..ty..Type$GT$$GT$$GT$17hc260fbb8309ec29fE', symObjAddr: 0x9930, symBinAddr: 0x4E9E0, symSize: 0x50 }
  - { offsetInCU: 0x1D676, offset: 0x1BACAF, size: 0x8, addend: 0x0, symName: '__ZN4core3ptr89drop_in_place$LT$core..option..Option$LT$alloc..boxed..Box$LT$syn..expr..Expr$GT$$GT$$GT$17h189e15babfcbbcfaE', symObjAddr: 0x9980, symBinAddr: 0x4EA30, symSize: 0x50 }
  - { offsetInCU: 0x1D826, offset: 0x1BAE5F, size: 0x8, addend: 0x0, symName: '__ZN4core3ptr89drop_in_place$LT$syn..punctuated..Punctuated$LT$syn..pat..Pat$C$syn..token..Comma$GT$$GT$17ha82f9ca12786bd54E', symObjAddr: 0x99D0, symBinAddr: 0x4EA80, symSize: 0x120 }
  - { offsetInCU: 0x1DCC1, offset: 0x1BB2FA, size: 0x8, addend: 0x0, symName: '__ZN4core3ptr91drop_in_place$LT$syn..punctuated..Punctuated$LT$syn..expr..Expr$C$syn..token..Comma$GT$$GT$17h5d174cfb4564e731E', symObjAddr: 0x9AF0, symBinAddr: 0x4EBA0, symSize: 0x120 }
  - { offsetInCU: 0x1E11E, offset: 0x1BB757, size: 0x8, addend: 0x0, symName: '__ZN4core3ptr94drop_in_place$LT$syn..punctuated..Punctuated$LT$syn..pat..FieldPat$C$syn..token..Comma$GT$$GT$17h57ec84468c025663E', symObjAddr: 0x9C10, symBinAddr: 0x4ECC0, symSize: 0xF0 }
  - { offsetInCU: 0x1E3E8, offset: 0x1BBA21, size: 0x8, addend: 0x0, symName: '__ZN4core3ptr94drop_in_place$LT$syn..punctuated..Punctuated$LT$syn..ty..BareFnArg$C$syn..token..Comma$GT$$GT$17h93a6df93f58cf1c2E', symObjAddr: 0x9D00, symBinAddr: 0x4EDB0, symSize: 0xF0 }
  - { offsetInCU: 0x1E6B2, offset: 0x1BBCEB, size: 0x8, addend: 0x0, symName: '__ZN4core3ptr96drop_in_place$LT$core..option..Option$LT$alloc..boxed..Box$LT$syn..path..PathSegment$GT$$GT$$GT$17hfffb4eb6744ee164E', symObjAddr: 0x9DF0, symBinAddr: 0x4EEA0, symSize: 0x180 }
  - { offsetInCU: 0x1ED43, offset: 0x1BC37C, size: 0x8, addend: 0x0, symName: '__ZN4core3ptr97drop_in_place$LT$syn..punctuated..Punctuated$LT$syn..expr..FieldValue$C$syn..token..Comma$GT$$GT$17hd35fb722be03e3d1E', symObjAddr: 0x9F70, symBinAddr: 0x4F020, symSize: 0xF0 }
  - { offsetInCU: 0x1F089, offset: 0x1BC6C2, size: 0x8, addend: 0x0, symName: '__ZN4core3ptr98drop_in_place$LT$syn..punctuated..Punctuated$LT$syn..lifetime..Lifetime$C$syn..token..Plus$GT$$GT$17h0f92166c8c801efbE', symObjAddr: 0xA060, symBinAddr: 0x4F110, symSize: 0xC0 }
  - { offsetInCU: 0x1FADA, offset: 0x1BD113, size: 0x8, addend: 0x0, symName: '__ZN53_$LT$core..fmt..Error$u20$as$u20$core..fmt..Debug$GT$3fmt17h43ae5cec9623af13E', symObjAddr: 0xA120, symBinAddr: 0x4F1D0, symSize: 0x20 }
  - { offsetInCU: 0x24910, offset: 0x1C1F49, size: 0x8, addend: 0x0, symName: '__ZN40_$LT$F$u20$as$u20$syn..parse..Parser$GT$14__parse_scoped17h197e7af57a8f3e51E', symObjAddr: 0x8A0, symBinAddr: 0x45950, symSize: 0x790 }
  - { offsetInCU: 0x25982, offset: 0x1C2FBB, size: 0x8, addend: 0x0, symName: '__ZN40_$LT$F$u20$as$u20$syn..parse..Parser$GT$14__parse_scoped17h2737a9005105063dE', symObjAddr: 0x1030, symBinAddr: 0x460E0, symSize: 0xA50 }
  - { offsetInCU: 0x26F62, offset: 0x1C459B, size: 0x8, addend: 0x0, symName: '__ZN40_$LT$F$u20$as$u20$syn..parse..Parser$GT$14__parse_scoped17h61a29a8e7e945d25E', symObjAddr: 0x1A80, symBinAddr: 0x46B30, symSize: 0xAC0 }
  - { offsetInCU: 0x288A5, offset: 0x1C5EDE, size: 0x8, addend: 0x0, symName: '__ZN40_$LT$F$u20$as$u20$syn..parse..Parser$GT$14__parse_scoped17hbc604d6c9639c997E', symObjAddr: 0x2540, symBinAddr: 0x475F0, symSize: 0x7B0 }
  - { offsetInCU: 0x2994E, offset: 0x1C6F87, size: 0x8, addend: 0x0, symName: '__ZN40_$LT$F$u20$as$u20$syn..parse..Parser$GT$14__parse_scoped17he6e5defeb3056692E', symObjAddr: 0x2CF0, symBinAddr: 0x47DA0, symSize: 0x600 }
  - { offsetInCU: 0x309A7, offset: 0x1CDFE0, size: 0x8, addend: 0x0, symName: __ZN3syn4meta15ParseNestedMeta17parse_nested_meta17h0f2f3295ed04755fE, symObjAddr: 0x0, symBinAddr: 0x45140, symSize: 0x2B0 }
  - { offsetInCU: 0x31244, offset: 0x1CE87D, size: 0x8, addend: 0x0, symName: __ZN3syn4meta15ParseNestedMeta17parse_nested_meta17h10045515114f02c3E, symObjAddr: 0x2B0, symBinAddr: 0x453F0, symSize: 0x2B0 }
  - { offsetInCU: 0x31AE1, offset: 0x1CF11A, size: 0x8, addend: 0x0, symName: __ZN3syn4meta15ParseNestedMeta17parse_nested_meta17h8d46b2191924db6fE, symObjAddr: 0x560, symBinAddr: 0x456A0, symSize: 0x2B0 }
  - { offsetInCU: 0x1E, offset: 0x1D390E, size: 0x8, addend: 0x0, symName: '__ZN4core3ptr181drop_in_place$LT$hashbrown..scopeguard..ScopeGuard$LT$$RF$mut$u20$hashbrown..raw..RawTableInner$C$hashbrown..raw..RawTableInner..rehash_in_place..$u7b$$u7b$closure$u7d$$u7d$$GT$$GT$17h49974936efadf67eE', symObjAddr: 0x0, symBinAddr: 0x4F380, symSize: 0xC0 }
  - { offsetInCU: 0x10AB, offset: 0x1D499B, size: 0x8, addend: 0x0, symName: '__ZN76_$LT$hashbrown..raw..RawTable$LT$T$C$A$GT$$u20$as$u20$core..clone..Clone$GT$5clone17h483b16f8c7b7410cE', symObjAddr: 0x3C0, symBinAddr: 0x4F740, symSize: 0x320 }
  - { offsetInCU: 0x1CE4, offset: 0x1D55D4, size: 0x8, addend: 0x0, symName: '__ZN76_$LT$hashbrown..raw..RawTable$LT$T$C$A$GT$$u20$as$u20$core..clone..Clone$GT$5clone17hd993e8dbb4533562E', symObjAddr: 0x6E0, symBinAddr: 0x4FA60, symSize: 0x3E0 }
  - { offsetInCU: 0x2E33, offset: 0x1D6723, size: 0x8, addend: 0x0, symName: '__ZN79_$LT$hashbrown..raw..RawTable$LT$T$C$A$GT$$u20$as$u20$core..ops..drop..Drop$GT$4drop17h21eb630e13284010E', symObjAddr: 0xAC0, symBinAddr: 0x4FE40, symSize: 0x120 }
  - { offsetInCU: 0x35DA, offset: 0x1D6ECA, size: 0x8, addend: 0x0, symName: '__ZN79_$LT$hashbrown..raw..RawTable$LT$T$C$A$GT$$u20$as$u20$core..ops..drop..Drop$GT$4drop17h3f94c53a03ccabc0E', symObjAddr: 0xBE0, symBinAddr: 0x4FF60, symSize: 0x110 }
  - { offsetInCU: 0x3D52, offset: 0x1D7642, size: 0x8, addend: 0x0, symName: '__ZN79_$LT$hashbrown..raw..RawTable$LT$T$C$A$GT$$u20$as$u20$core..ops..drop..Drop$GT$4drop17hb9100e65e9a02c97E', symObjAddr: 0xCF0, symBinAddr: 0x50070, symSize: 0x1E0 }
  - { offsetInCU: 0x4719, offset: 0x1D8009, size: 0x8, addend: 0x0, symName: '__ZN79_$LT$hashbrown..raw..RawTable$LT$T$C$A$GT$$u20$as$u20$core..ops..drop..Drop$GT$4drop17he1772c2f4a677451E', symObjAddr: 0xED0, symBinAddr: 0x50250, symSize: 0x130 }
  - { offsetInCU: 0x5EB0, offset: 0x1D97A0, size: 0x8, addend: 0x0, symName: '__ZN4core3ptr181drop_in_place$LT$hashbrown..scopeguard..ScopeGuard$LT$$RF$mut$u20$hashbrown..raw..RawTableInner$C$hashbrown..raw..RawTableInner..rehash_in_place..$u7b$$u7b$closure$u7d$$u7d$$GT$$GT$17h49974936efadf67eE', symObjAddr: 0x0, symBinAddr: 0x4F380, symSize: 0xC0 }
  - { offsetInCU: 0x6A4E, offset: 0x1DA33E, size: 0x8, addend: 0x0, symName: '__ZN4core3ptr196drop_in_place$LT$hashbrown..scopeguard..ScopeGuard$LT$hashbrown..raw..RawTableInner$C$hashbrown..raw..RawTableInner..prepare_resize$LT$alloc..alloc..Global$GT$..$u7b$$u7b$closure$u7d$$u7d$$GT$$GT$17he0de8eb4a10d5c94E', symObjAddr: 0xC0, symBinAddr: 0x4F440, symSize: 0x40 }
  - { offsetInCU: 0x6E32, offset: 0x1DA722, size: 0x8, addend: 0x0, symName: '__ZN4core3ptr45drop_in_place$LT$proc_macro2..TokenStream$GT$17h86cac592f04212eaE.llvm.11242685831470229374', symObjAddr: 0x100, symBinAddr: 0x4F480, symSize: 0x140 }
  - { offsetInCU: 0x72DF, offset: 0x1DABCF, size: 0x8, addend: 0x0, symName: '__ZN4core3ptr58drop_in_place$LT$$LP$proc_macro2..Ident$C$$LP$$RP$$RP$$GT$17h2f8a8a1e572431cbE', symObjAddr: 0x240, symBinAddr: 0x4F5C0, symSize: 0x30 }
  - { offsetInCU: 0x7439, offset: 0x1DAD29, size: 0x8, addend: 0x0, symName: '__ZN4core3ptr61drop_in_place$LT$$LP$alloc..string..String$C$$LP$$RP$$RP$$GT$17h9314a1abe2d7e413E', symObjAddr: 0x270, symBinAddr: 0x4F5F0, symSize: 0x20 }
  - { offsetInCU: 0x7561, offset: 0x1DAE51, size: 0x8, addend: 0x0, symName: '__ZN4core3ptr74drop_in_place$LT$$LP$proc_macro2..Ident$C$proc_macro2..TokenStream$RP$$GT$17h7143a3344f11c4ecE', symObjAddr: 0x290, symBinAddr: 0x4F610, symSize: 0x40 }
  - { offsetInCU: 0x7698, offset: 0x1DAF88, size: 0x8, addend: 0x0, symName: '__ZN4core3ptr86drop_in_place$LT$$LP$proc_macro2..Ident$C$alloc..vec..Vec$LT$syn..ty..Type$GT$$RP$$GT$17h53d7150a3cec8855E', symObjAddr: 0x2D0, symBinAddr: 0x4F650, symSize: 0xF0 }
  - { offsetInCU: 0xCDDF, offset: 0x1E06CF, size: 0x8, addend: 0x0, symName: '__ZN9hashbrown3raw21RawTable$LT$T$C$A$GT$14reserve_rehash17h27edc0a1d8ad4716E.llvm.11242685831470229374', symObjAddr: 0x10A0, symBinAddr: 0x32A8F0, symSize: 0x840 }
  - { offsetInCU: 0xEDE5, offset: 0x1E26D5, size: 0x8, addend: 0x0, symName: '__ZN9hashbrown3raw21RawTable$LT$T$C$A$GT$14reserve_rehash17h5196f02e03108d23E.llvm.11242685831470229374', symObjAddr: 0x18E0, symBinAddr: 0x32B130, symSize: 0x8A0 }
  - { offsetInCU: 0x10E6D, offset: 0x1E475D, size: 0x8, addend: 0x0, symName: '__ZN9hashbrown3raw21RawTable$LT$T$C$A$GT$14reserve_rehash17h956891beb047c624E.llvm.11242685831470229374', symObjAddr: 0x2180, symBinAddr: 0x32B9D0, symSize: 0x8A0 }
  - { offsetInCU: 0x12E97, offset: 0x1E6787, size: 0x8, addend: 0x0, symName: '__ZN9hashbrown3raw21RawTable$LT$T$C$A$GT$14reserve_rehash17haf5f77ee94623bdbE.llvm.11242685831470229374', symObjAddr: 0x2A20, symBinAddr: 0x32C270, symSize: 0x850 }
  - { offsetInCU: 0x1E, offset: 0x1F041A, size: 0x8, addend: 0x0, symName: '__ZN4core3ptr100drop_in_place$LT$core..option..Option$LT$alloc..boxed..Box$LT$syn..path..GenericArgument$GT$$GT$$GT$17h513ef87717aedfddE', symObjAddr: 0x0, symBinAddr: 0x50380, symSize: 0x50 }
  - { offsetInCU: 0x99, offset: 0x1F0495, size: 0x8, addend: 0x0, symName: '__ZN58_$LT$alloc..string..String$u20$as$u20$core..fmt..Write$GT$10write_char17hd329c0cb943f081aE', symObjAddr: 0x7630, symBinAddr: 0x579B0, symSize: 0x130 }
  - { offsetInCU: 0x440, offset: 0x1F083C, size: 0x8, addend: 0x0, symName: '__ZN58_$LT$alloc..string..String$u20$as$u20$core..fmt..Write$GT$9write_str17h1ff5aa96ca91c6d5E', symObjAddr: 0x7760, symBinAddr: 0x57AE0, symSize: 0x60 }
  - { offsetInCU: 0x6A4, offset: 0x1F0AA0, size: 0x8, addend: 0x0, symName: '__ZN60_$LT$alloc..string..String$u20$as$u20$core..fmt..Display$GT$3fmt17hc365578c40090489E', symObjAddr: 0x77C0, symBinAddr: 0x57B40, symSize: 0x20 }
  - { offsetInCU: 0x3757, offset: 0x1F3B53, size: 0x8, addend: 0x0, symName: '__ZN4core3ptr100drop_in_place$LT$core..option..Option$LT$alloc..boxed..Box$LT$syn..path..GenericArgument$GT$$GT$$GT$17h513ef87717aedfddE', symObjAddr: 0x0, symBinAddr: 0x50380, symSize: 0x50 }
  - { offsetInCU: 0x3926, offset: 0x1F3D22, size: 0x8, addend: 0x0, symName: '__ZN4core3ptr102drop_in_place$LT$syn..punctuated..Punctuated$LT$syn..path..GenericArgument$C$syn..token..Comma$GT$$GT$17ha5e403e03e446464E', symObjAddr: 0x50, symBinAddr: 0x503D0, symSize: 0xF0 }
  - { offsetInCU: 0x3C0F, offset: 0x1F400B, size: 0x8, addend: 0x0, symName: '__ZN4core3ptr103drop_in_place$LT$core..option..Option$LT$alloc..boxed..Box$LT$syn..generics..TypeParamBound$GT$$GT$$GT$17h0d79b9ffb4171f90E', symObjAddr: 0x140, symBinAddr: 0x504C0, symSize: 0x50 }
  - { offsetInCU: 0x3ED6, offset: 0x1F42D2, size: 0x8, addend: 0x0, symName: '__ZN4core3ptr103drop_in_place$LT$core..option..Option$LT$alloc..boxed..Box$LT$syn..generics..WherePredicate$GT$$GT$$GT$17h5eae77184a584f9cE', symObjAddr: 0x190, symBinAddr: 0x50510, symSize: 0xD0 }
  - { offsetInCU: 0x4269, offset: 0x1F4665, size: 0x8, addend: 0x0, symName: '__ZN4core3ptr103drop_in_place$LT$syn..punctuated..Punctuated$LT$syn..generics..GenericParam$C$syn..token..Comma$GT$$GT$17h1d35d7d5913e8beaE', symObjAddr: 0x260, symBinAddr: 0x505E0, symSize: 0xF0 }
  - { offsetInCU: 0x472C, offset: 0x1F4B28, size: 0x8, addend: 0x0, symName: '__ZN4core3ptr104drop_in_place$LT$syn..punctuated..Punctuated$LT$syn..generics..TypeParamBound$C$syn..token..Plus$GT$$GT$17h44083f960cd822d7E', symObjAddr: 0x350, symBinAddr: 0x506D0, symSize: 0x260 }
  - { offsetInCU: 0x511E, offset: 0x1F551A, size: 0x8, addend: 0x0, symName: '__ZN4core3ptr34drop_in_place$LT$syn..lit..Lit$GT$17h3e4ef73f9d6504faE', symObjAddr: 0x5B0, symBinAddr: 0x50930, symSize: 0x110 }
  - { offsetInCU: 0x5677, offset: 0x1F5A73, size: 0x8, addend: 0x0, symName: '__ZN4core3ptr34drop_in_place$LT$syn..pat..Pat$GT$17hf99e10cab020967aE', symObjAddr: 0x6C0, symBinAddr: 0x50A40, symSize: 0xF00 }
  - { offsetInCU: 0x911A, offset: 0x1F9516, size: 0x8, addend: 0x0, symName: '__ZN4core3ptr34drop_in_place$LT$syn..ty..Type$GT$17hc9a287e6412cf4a5E', symObjAddr: 0x15C0, symBinAddr: 0x51940, symSize: 0x5E0 }
  - { offsetInCU: 0xAA64, offset: 0x1FAE60, size: 0x8, addend: 0x0, symName: '__ZN4core3ptr36drop_in_place$LT$syn..expr..Expr$GT$17hbea3b059aebc6b0dE', symObjAddr: 0x1BA0, symBinAddr: 0x51F20, symSize: 0x2830 }
  - { offsetInCU: 0x144D9, offset: 0x2048D5, size: 0x8, addend: 0x0, symName: '__ZN4core3ptr36drop_in_place$LT$syn..mac..Macro$GT$17haa1481cb4fe5d660E', symObjAddr: 0x43D0, symBinAddr: 0x54750, symSize: 0x110 }
  - { offsetInCU: 0x1495E, offset: 0x204D5A, size: 0x8, addend: 0x0, symName: '__ZN4core3ptr36drop_in_place$LT$syn..path..Path$GT$17hb26ddc646911d9caE', symObjAddr: 0x44E0, symBinAddr: 0x54860, symSize: 0x240 }
  - { offsetInCU: 0x153A7, offset: 0x2057A3, size: 0x8, addend: 0x0, symName: '__ZN4core3ptr37drop_in_place$LT$core..fmt..Error$GT$17h5293029f071f5c04E', symObjAddr: 0x4720, symBinAddr: 0x54AA0, symSize: 0x10 }
  - { offsetInCU: 0x153D3, offset: 0x2057CF, size: 0x8, addend: 0x0, symName: '__ZN4core3ptr37drop_in_place$LT$syn..stmt..Block$GT$17h9bb04bc412e892c1E', symObjAddr: 0x4730, symBinAddr: 0x54AB0, symSize: 0xD0 }
  - { offsetInCU: 0x15712, offset: 0x205B0E, size: 0x8, addend: 0x0, symName: '__ZN4core3ptr38drop_in_place$LT$syn..data..Fields$GT$17ha203e0075168be1bE', symObjAddr: 0x4800, symBinAddr: 0x54B80, symSize: 0x190 }
  - { offsetInCU: 0x15B30, offset: 0x205F2C, size: 0x8, addend: 0x0, symName: '__ZN4core3ptr38drop_in_place$LT$syn..expr..Member$GT$17h54f73fbfaef06080E', symObjAddr: 0x4990, symBinAddr: 0x54D10, symSize: 0x30 }
  - { offsetInCU: 0x15C2D, offset: 0x206029, size: 0x8, addend: 0x0, symName: '__ZN4core3ptr39drop_in_place$LT$proc_macro2..Ident$GT$17h9d68045e9dec4a40E', symObjAddr: 0x49C0, symBinAddr: 0x54D40, symSize: 0x30 }
  - { offsetInCU: 0x15D0B, offset: 0x206107, size: 0x8, addend: 0x0, symName: '__ZN4core3ptr40drop_in_place$LT$syn..ty..ReturnType$GT$17h4a68005bbc507217E', symObjAddr: 0x49F0, symBinAddr: 0x54D70, symSize: 0x50 }
  - { offsetInCU: 0x15E7D, offset: 0x206279, size: 0x8, addend: 0x0, symName: '__ZN4core3ptr41drop_in_place$LT$syn..expr..ExprConst$GT$17h454a2cb9df850c24E', symObjAddr: 0x4A40, symBinAddr: 0x54DC0, symSize: 0x180 }
  - { offsetInCU: 0x16406, offset: 0x206802, size: 0x8, addend: 0x0, symName: '__ZN4core3ptr42drop_in_place$LT$alloc..string..String$GT$17hbf5e13799688ea34E', symObjAddr: 0x4BC0, symBinAddr: 0x54F40, symSize: 0x20 }
  - { offsetInCU: 0x1658B, offset: 0x206987, size: 0x8, addend: 0x0, symName: '__ZN4core3ptr42drop_in_place$LT$syn..item..ItemStruct$GT$17hdec71518d5ea790eE', symObjAddr: 0x4BE0, symBinAddr: 0x54F60, symSize: 0x1A0 }
  - { offsetInCU: 0x16AD7, offset: 0x206ED3, size: 0x8, addend: 0x0, symName: '__ZN4core3ptr44drop_in_place$LT$syn..generics..Generics$GT$17he55a6c2a0d8d138cE', symObjAddr: 0x4D80, symBinAddr: 0x55100, symSize: 0x40 }
  - { offsetInCU: 0x16AF4, offset: 0x206EF0, size: 0x8, addend: 0x0, symName: '__ZN4core3ptr44drop_in_place$LT$syn..lifetime..Lifetime$GT$17h9c301554489a697eE', symObjAddr: 0x4DC0, symBinAddr: 0x55140, symSize: 0x30 }
  - { offsetInCU: 0x16D27, offset: 0x207123, size: 0x8, addend: 0x0, symName: '__ZN4core3ptr45drop_in_place$LT$proc_macro2..TokenStream$GT$17h86cac592f04212eaE', symObjAddr: 0x4DF0, symBinAddr: 0x55170, symSize: 0x140 }
  - { offsetInCU: 0x17196, offset: 0x207592, size: 0x8, addend: 0x0, symName: '__ZN4core3ptr45drop_in_place$LT$syn..generics..TypeParam$GT$17he645f7cc80b7ae11E', symObjAddr: 0x4F30, symBinAddr: 0x552B0, symSize: 0x230 }
  - { offsetInCU: 0x179C6, offset: 0x207DC2, size: 0x8, addend: 0x0, symName: '__ZN4core3ptr46drop_in_place$LT$syn..generics..ConstParam$GT$17hc19d519d6441178aE', symObjAddr: 0x5160, symBinAddr: 0x554E0, symSize: 0x150 }
  - { offsetInCU: 0x17E24, offset: 0x208220, size: 0x8, addend: 0x0, symName: '__ZN4core3ptr47drop_in_place$LT$syn..generics..WhereClause$GT$17h973d7091013f7af5E', symObjAddr: 0x52B0, symBinAddr: 0x55630, symSize: 0x80 }
  - { offsetInCU: 0x180A8, offset: 0x2084A4, size: 0x8, addend: 0x0, symName: '__ZN4core3ptr47drop_in_place$LT$syn..path..GenericArgument$GT$17ha7ad17cb38a1a5afE', symObjAddr: 0x5330, symBinAddr: 0x556B0, symSize: 0x460 }
  - { offsetInCU: 0x18DB1, offset: 0x2091AD, size: 0x8, addend: 0x0, symName: '__ZN4core3ptr49drop_in_place$LT$syn..generics..LifetimeParam$GT$17h47d9f9e81b35a3dcE', symObjAddr: 0x5790, symBinAddr: 0x55B10, symSize: 0xF0 }
  - { offsetInCU: 0x1919F, offset: 0x20959B, size: 0x8, addend: 0x0, symName: '__ZN4core3ptr49drop_in_place$LT$syn..restriction..Visibility$GT$17h3b96b9039c144528E', symObjAddr: 0x5880, symBinAddr: 0x55C00, symSize: 0x60 }
  - { offsetInCU: 0x19322, offset: 0x20971E, size: 0x8, addend: 0x0, symName: '__ZN4core3ptr50drop_in_place$LT$syn..generics..TypeParamBound$GT$17h7c1195cdfd37b73cE', symObjAddr: 0x58E0, symBinAddr: 0x55C60, symSize: 0xA0 }
  - { offsetInCU: 0x19489, offset: 0x209885, size: 0x8, addend: 0x0, symName: '__ZN4core3ptr58drop_in_place$LT$alloc..vec..Vec$LT$syn..expr..Arm$GT$$GT$17ha648d1896dec8b4dE', symObjAddr: 0x5980, symBinAddr: 0x55D00, symSize: 0xD0 }
  - { offsetInCU: 0x19716, offset: 0x209B12, size: 0x8, addend: 0x0, symName: '__ZN4core3ptr59drop_in_place$LT$alloc..boxed..Box$LT$syn..pat..Pat$GT$$GT$17hfa860577679c86cbE', symObjAddr: 0x5A50, symBinAddr: 0x55DD0, symSize: 0x50 }
  - { offsetInCU: 0x19871, offset: 0x209C6D, size: 0x8, addend: 0x0, symName: '__ZN4core3ptr59drop_in_place$LT$alloc..boxed..Box$LT$syn..ty..Type$GT$$GT$17hce35c4b60063cd1fE', symObjAddr: 0x5AA0, symBinAddr: 0x55E20, symSize: 0x50 }
  - { offsetInCU: 0x199CC, offset: 0x209DC8, size: 0x8, addend: 0x0, symName: '__ZN4core3ptr61drop_in_place$LT$alloc..boxed..Box$LT$syn..expr..Expr$GT$$GT$17h35b8f1409a9ab85bE', symObjAddr: 0x5AF0, symBinAddr: 0x55E70, symSize: 0x50 }
  - { offsetInCU: 0x19B27, offset: 0x209F23, size: 0x8, addend: 0x0, symName: '__ZN4core3ptr61drop_in_place$LT$syn..path..ParenthesizedGenericArguments$GT$17h6d1a096952b83c04E', symObjAddr: 0x5B40, symBinAddr: 0x55EC0, symSize: 0x170 }
  - { offsetInCU: 0x1A101, offset: 0x20A4FD, size: 0x8, addend: 0x0, symName: '__ZN4core3ptr63drop_in_place$LT$alloc..boxed..Box$LT$syn..lit..LitRepr$GT$$GT$17h4a54b8c5cd42faf5E', symObjAddr: 0x5CB0, symBinAddr: 0x56030, symSize: 0x60 }
  - { offsetInCU: 0x1A3F6, offset: 0x20A7F2, size: 0x8, addend: 0x0, symName: '__ZN4core3ptr64drop_in_place$LT$alloc..boxed..Box$LT$syn..pat..FieldPat$GT$$GT$17hf3d389ef82c9f10bE', symObjAddr: 0x5D10, symBinAddr: 0x56090, symSize: 0x140 }
  - { offsetInCU: 0x1AAD5, offset: 0x20AED1, size: 0x8, addend: 0x0, symName: '__ZN4core3ptr64drop_in_place$LT$alloc..boxed..Box$LT$syn..ty..BareFnArg$GT$$GT$17hc862ec57eebf1a54E', symObjAddr: 0x5E50, symBinAddr: 0x561D0, symSize: 0x140 }
  - { offsetInCU: 0x1B02D, offset: 0x20B429, size: 0x8, addend: 0x0, symName: '__ZN4core3ptr64drop_in_place$LT$alloc..vec..Vec$LT$syn..attr..Attribute$GT$$GT$17hab3242b38144ad8cE', symObjAddr: 0x5F90, symBinAddr: 0x56310, symSize: 0xD0 }
  - { offsetInCU: 0x1B2EE, offset: 0x20B6EA, size: 0x8, addend: 0x0, symName: '__ZN4core3ptr65drop_in_place$LT$core..option..Option$LT$syn..expr..Label$GT$$GT$17hfc626d17a1d0054dE', symObjAddr: 0x6060, symBinAddr: 0x563E0, symSize: 0x30 }
  - { offsetInCU: 0x1B429, offset: 0x20B825, size: 0x8, addend: 0x0, symName: '__ZN4core3ptr66drop_in_place$LT$core..option..Option$LT$syn..pat..PatRest$GT$$GT$17hba8f4d9198c0dabcE', symObjAddr: 0x6090, symBinAddr: 0x56410, symSize: 0xE0 }
  - { offsetInCU: 0x1B6E1, offset: 0x20BADD, size: 0x8, addend: 0x0, symName: '__ZN4core3ptr67drop_in_place$LT$alloc..boxed..Box$LT$syn..expr..FieldValue$GT$$GT$17h1fe00f656b5bc41eE', symObjAddr: 0x6170, symBinAddr: 0x564F0, symSize: 0x140 }
  - { offsetInCU: 0x1BC38, offset: 0x20C034, size: 0x8, addend: 0x0, symName: '__ZN4core3ptr68drop_in_place$LT$alloc..vec..Vec$LT$proc_macro2..TokenStream$GT$$GT$17h2d99ab5e666e0edfE', symObjAddr: 0x62B0, symBinAddr: 0x56630, symSize: 0xC0 }
  - { offsetInCU: 0x1BFDC, offset: 0x20C3D8, size: 0x8, addend: 0x0, symName: '__ZN4core3ptr68drop_in_place$LT$borsh_derive..internals..generics..FindTyParams$GT$17h9dff03c3f81b2b80E', symObjAddr: 0x6370, symBinAddr: 0x566F0, symSize: 0xA0 }
  - { offsetInCU: 0x1C3DF, offset: 0x20C7DB, size: 0x8, addend: 0x0, symName: '__ZN4core3ptr70drop_in_place$LT$core..option..Option$LT$syn..ty..BareVariadic$GT$$GT$17hf6aaee8d5112d370E', symObjAddr: 0x6410, symBinAddr: 0x56790, symSize: 0x120 }
  - { offsetInCU: 0x1C940, offset: 0x20CD3C, size: 0x8, addend: 0x0, symName: '__ZN4core3ptr72drop_in_place$LT$alloc..boxed..Box$LT$syn..path..GenericArgument$GT$$GT$17hc3f5a13c594d53a1E', symObjAddr: 0x6530, symBinAddr: 0x568B0, symSize: 0x2B0 }
  - { offsetInCU: 0x1D32B, offset: 0x20D727, size: 0x8, addend: 0x0, symName: '__ZN4core3ptr72drop_in_place$LT$core..option..Option$LT$syn..lifetime..Lifetime$GT$$GT$17hf02c2376eaf0703fE', symObjAddr: 0x67E0, symBinAddr: 0x56B60, symSize: 0x30 }
  - { offsetInCU: 0x1D447, offset: 0x20D843, size: 0x8, addend: 0x0, symName: '__ZN4core3ptr73drop_in_place$LT$alloc..boxed..Box$LT$syn..generics..GenericParam$GT$$GT$17hbb1f35d2f323630eE', symObjAddr: 0x6810, symBinAddr: 0x56B90, symSize: 0x80 }
  - { offsetInCU: 0x1D5BF, offset: 0x20D9BB, size: 0x8, addend: 0x0, symName: '__ZN4core3ptr75drop_in_place$LT$alloc..boxed..Box$LT$syn..generics..TypeParamBound$GT$$GT$17h06d020fd356eb6c8E', symObjAddr: 0x6890, symBinAddr: 0x56C10, symSize: 0x190 }
  - { offsetInCU: 0x1DC5B, offset: 0x20E057, size: 0x8, addend: 0x0, symName: '__ZN4core3ptr75drop_in_place$LT$core..option..Option$LT$syn..generics..WhereClause$GT$$GT$17h8a92b83e49c22b8cE', symObjAddr: 0x6A20, symBinAddr: 0x56DA0, symSize: 0x90 }
  - { offsetInCU: 0x1DF11, offset: 0x20E30D, size: 0x8, addend: 0x0, symName: '__ZN4core3ptr86drop_in_place$LT$syn..punctuated..Punctuated$LT$syn..pat..Pat$C$syn..token..Or$GT$$GT$17h1c252cd869cc7fe5E', symObjAddr: 0x6AB0, symBinAddr: 0x56E30, symSize: 0x120 }
  - { offsetInCU: 0x1E357, offset: 0x20E753, size: 0x8, addend: 0x0, symName: '__ZN4core3ptr87drop_in_place$LT$core..option..Option$LT$alloc..boxed..Box$LT$syn..pat..Pat$GT$$GT$$GT$17h72bab185bf1bb06eE', symObjAddr: 0x6BD0, symBinAddr: 0x56F50, symSize: 0x50 }
  - { offsetInCU: 0x1E4C9, offset: 0x20E8C5, size: 0x8, addend: 0x0, symName: '__ZN4core3ptr87drop_in_place$LT$core..option..Option$LT$alloc..boxed..Box$LT$syn..ty..Type$GT$$GT$$GT$17hc260fbb8309ec29fE', symObjAddr: 0x6C20, symBinAddr: 0x56FA0, symSize: 0x50 }
  - { offsetInCU: 0x1E63B, offset: 0x20EA37, size: 0x8, addend: 0x0, symName: '__ZN4core3ptr89drop_in_place$LT$core..option..Option$LT$alloc..boxed..Box$LT$syn..expr..Expr$GT$$GT$$GT$17h189e15babfcbbcfaE', symObjAddr: 0x6C70, symBinAddr: 0x56FF0, symSize: 0x50 }
  - { offsetInCU: 0x1E7EB, offset: 0x20EBE7, size: 0x8, addend: 0x0, symName: '__ZN4core3ptr89drop_in_place$LT$syn..punctuated..Punctuated$LT$syn..pat..Pat$C$syn..token..Comma$GT$$GT$17ha82f9ca12786bd54E', symObjAddr: 0x6CC0, symBinAddr: 0x57040, symSize: 0x120 }
  - { offsetInCU: 0x1ECA5, offset: 0x20F0A1, size: 0x8, addend: 0x0, symName: '__ZN4core3ptr90drop_in_place$LT$core..option..Option$LT$alloc..boxed..Box$LT$syn..data..Field$GT$$GT$$GT$17he746374657137898E', symObjAddr: 0x6DE0, symBinAddr: 0x57160, symSize: 0x200 }
  - { offsetInCU: 0x1F54E, offset: 0x20F94A, size: 0x8, addend: 0x0, symName: '__ZN4core3ptr91drop_in_place$LT$syn..punctuated..Punctuated$LT$syn..expr..Expr$C$syn..token..Comma$GT$$GT$17h5d174cfb4564e731E', symObjAddr: 0x6FE0, symBinAddr: 0x57360, symSize: 0x120 }
  - { offsetInCU: 0x1F9AB, offset: 0x20FDA7, size: 0x8, addend: 0x0, symName: '__ZN4core3ptr94drop_in_place$LT$syn..punctuated..Punctuated$LT$syn..pat..FieldPat$C$syn..token..Comma$GT$$GT$17h57ec84468c025663E', symObjAddr: 0x7100, symBinAddr: 0x57480, symSize: 0xF0 }
  - { offsetInCU: 0x1FC75, offset: 0x210071, size: 0x8, addend: 0x0, symName: '__ZN4core3ptr94drop_in_place$LT$syn..punctuated..Punctuated$LT$syn..ty..BareFnArg$C$syn..token..Comma$GT$$GT$17h93a6df93f58cf1c2E', symObjAddr: 0x71F0, symBinAddr: 0x57570, symSize: 0xF0 }
  - { offsetInCU: 0x1FF3F, offset: 0x21033B, size: 0x8, addend: 0x0, symName: '__ZN4core3ptr96drop_in_place$LT$core..option..Option$LT$alloc..boxed..Box$LT$syn..path..PathSegment$GT$$GT$$GT$17hfffb4eb6744ee164E', symObjAddr: 0x72E0, symBinAddr: 0x57660, symSize: 0x180 }
  - { offsetInCU: 0x205D0, offset: 0x2109CC, size: 0x8, addend: 0x0, symName: '__ZN4core3ptr97drop_in_place$LT$syn..punctuated..Punctuated$LT$syn..expr..FieldValue$C$syn..token..Comma$GT$$GT$17hd35fb722be03e3d1E', symObjAddr: 0x7460, symBinAddr: 0x577E0, symSize: 0xF0 }
  - { offsetInCU: 0x20916, offset: 0x210D12, size: 0x8, addend: 0x0, symName: '__ZN4core3ptr98drop_in_place$LT$syn..punctuated..Punctuated$LT$syn..lifetime..Lifetime$C$syn..token..Plus$GT$$GT$17h0f92166c8c801efbE', symObjAddr: 0x7550, symBinAddr: 0x578D0, symSize: 0xC0 }
  - { offsetInCU: 0x21517, offset: 0x211913, size: 0x8, addend: 0x0, symName: '__ZN53_$LT$core..fmt..Error$u20$as$u20$core..fmt..Debug$GT$3fmt17h43ae5cec9623af13E', symObjAddr: 0x7610, symBinAddr: 0x57990, symSize: 0x20 }
  - { offsetInCU: 0x2B2B2, offset: 0x21B6AE, size: 0x8, addend: 0x0, symName: __ZN12borsh_derive9internals6schema5enums7process17h3bc7bf331fd097a7E, symObjAddr: 0x77E0, symBinAddr: 0x57B60, symSize: 0x2EDF }
  - { offsetInCU: 0x1E, offset: 0x2239FF, size: 0x8, addend: 0x0, symName: '__ZN4core3ptr100drop_in_place$LT$core..option..Option$LT$alloc..boxed..Box$LT$syn..path..GenericArgument$GT$$GT$$GT$17h513ef87717aedfddE', symObjAddr: 0x0, symBinAddr: 0x5AA40, symSize: 0x50 }
  - { offsetInCU: 0x99, offset: 0x223A7A, size: 0x8, addend: 0x0, symName: '__ZN58_$LT$alloc..string..String$u20$as$u20$core..fmt..Write$GT$10write_char17hd329c0cb943f081aE', symObjAddr: 0x74D0, symBinAddr: 0x61F10, symSize: 0x130 }
  - { offsetInCU: 0x440, offset: 0x223E21, size: 0x8, addend: 0x0, symName: '__ZN58_$LT$alloc..string..String$u20$as$u20$core..fmt..Write$GT$9write_str17h1ff5aa96ca91c6d5E', symObjAddr: 0x7600, symBinAddr: 0x62040, symSize: 0x60 }
  - { offsetInCU: 0x3404, offset: 0x226DE5, size: 0x8, addend: 0x0, symName: '__ZN4core3ptr100drop_in_place$LT$core..option..Option$LT$alloc..boxed..Box$LT$syn..path..GenericArgument$GT$$GT$$GT$17h513ef87717aedfddE', symObjAddr: 0x0, symBinAddr: 0x5AA40, symSize: 0x50 }
  - { offsetInCU: 0x35D3, offset: 0x226FB4, size: 0x8, addend: 0x0, symName: '__ZN4core3ptr102drop_in_place$LT$syn..punctuated..Punctuated$LT$syn..path..GenericArgument$C$syn..token..Comma$GT$$GT$17ha5e403e03e446464E', symObjAddr: 0x50, symBinAddr: 0x5AA90, symSize: 0xF0 }
  - { offsetInCU: 0x38BC, offset: 0x22729D, size: 0x8, addend: 0x0, symName: '__ZN4core3ptr103drop_in_place$LT$core..option..Option$LT$alloc..boxed..Box$LT$syn..generics..TypeParamBound$GT$$GT$$GT$17h0d79b9ffb4171f90E', symObjAddr: 0x140, symBinAddr: 0x5AB80, symSize: 0x50 }
  - { offsetInCU: 0x3B83, offset: 0x227564, size: 0x8, addend: 0x0, symName: '__ZN4core3ptr103drop_in_place$LT$core..option..Option$LT$alloc..boxed..Box$LT$syn..generics..WherePredicate$GT$$GT$$GT$17h5eae77184a584f9cE', symObjAddr: 0x190, symBinAddr: 0x5ABD0, symSize: 0xD0 }
  - { offsetInCU: 0x3F16, offset: 0x2278F7, size: 0x8, addend: 0x0, symName: '__ZN4core3ptr103drop_in_place$LT$syn..punctuated..Punctuated$LT$syn..generics..GenericParam$C$syn..token..Comma$GT$$GT$17h1d35d7d5913e8beaE', symObjAddr: 0x260, symBinAddr: 0x5ACA0, symSize: 0xF0 }
  - { offsetInCU: 0x43D9, offset: 0x227DBA, size: 0x8, addend: 0x0, symName: '__ZN4core3ptr104drop_in_place$LT$syn..punctuated..Punctuated$LT$syn..generics..TypeParamBound$C$syn..token..Plus$GT$$GT$17h44083f960cd822d7E', symObjAddr: 0x350, symBinAddr: 0x5AD90, symSize: 0x260 }
  - { offsetInCU: 0x4DEA, offset: 0x2287CB, size: 0x8, addend: 0x0, symName: '__ZN4core3ptr111drop_in_place$LT$core..option..Option$LT$borsh_derive..internals..attributes..field..schema..Attributes$GT$$GT$17h080e13e0ea21ca67E', symObjAddr: 0x5B0, symBinAddr: 0x5AFF0, symSize: 0x110 }
  - { offsetInCU: 0x51E3, offset: 0x228BC4, size: 0x8, addend: 0x0, symName: '__ZN4core3ptr34drop_in_place$LT$syn..lit..Lit$GT$17h3e4ef73f9d6504faE', symObjAddr: 0x6C0, symBinAddr: 0x5B100, symSize: 0x110 }
  - { offsetInCU: 0x573C, offset: 0x22911D, size: 0x8, addend: 0x0, symName: '__ZN4core3ptr34drop_in_place$LT$syn..pat..Pat$GT$17hf99e10cab020967aE', symObjAddr: 0x7D0, symBinAddr: 0x5B210, symSize: 0xF00 }
  - { offsetInCU: 0x91DF, offset: 0x22CBC0, size: 0x8, addend: 0x0, symName: '__ZN4core3ptr34drop_in_place$LT$syn..ty..Type$GT$17hc9a287e6412cf4a5E', symObjAddr: 0x16D0, symBinAddr: 0x5C110, symSize: 0x5E0 }
  - { offsetInCU: 0xAB29, offset: 0x22E50A, size: 0x8, addend: 0x0, symName: '__ZN4core3ptr36drop_in_place$LT$syn..expr..Expr$GT$17hbea3b059aebc6b0dE', symObjAddr: 0x1CB0, symBinAddr: 0x5C6F0, symSize: 0x2830 }
  - { offsetInCU: 0x1459E, offset: 0x237F7F, size: 0x8, addend: 0x0, symName: '__ZN4core3ptr36drop_in_place$LT$syn..mac..Macro$GT$17haa1481cb4fe5d660E', symObjAddr: 0x44E0, symBinAddr: 0x5EF20, symSize: 0x110 }
  - { offsetInCU: 0x14A23, offset: 0x238404, size: 0x8, addend: 0x0, symName: '__ZN4core3ptr36drop_in_place$LT$syn..path..Path$GT$17hb26ddc646911d9caE', symObjAddr: 0x45F0, symBinAddr: 0x5F030, symSize: 0x240 }
  - { offsetInCU: 0x1546C, offset: 0x238E4D, size: 0x8, addend: 0x0, symName: '__ZN4core3ptr37drop_in_place$LT$core..fmt..Error$GT$17h5293029f071f5c04E', symObjAddr: 0x4830, symBinAddr: 0x5F270, symSize: 0x10 }
  - { offsetInCU: 0x15498, offset: 0x238E79, size: 0x8, addend: 0x0, symName: '__ZN4core3ptr37drop_in_place$LT$syn..stmt..Block$GT$17h9bb04bc412e892c1E', symObjAddr: 0x4840, symBinAddr: 0x5F280, symSize: 0xD0 }
  - { offsetInCU: 0x1577A, offset: 0x23915B, size: 0x8, addend: 0x0, symName: '__ZN4core3ptr38drop_in_place$LT$syn..error..Error$GT$17h6faeff159aa80c91E', symObjAddr: 0x4910, symBinAddr: 0x5F350, symSize: 0x80 }
  - { offsetInCU: 0x15A4C, offset: 0x23942D, size: 0x8, addend: 0x0, symName: '__ZN4core3ptr38drop_in_place$LT$syn..expr..Member$GT$17h54f73fbfaef06080E', symObjAddr: 0x4990, symBinAddr: 0x5F3D0, symSize: 0x30 }
  - { offsetInCU: 0x15B49, offset: 0x23952A, size: 0x8, addend: 0x0, symName: '__ZN4core3ptr39drop_in_place$LT$proc_macro2..Ident$GT$17h9d68045e9dec4a40E', symObjAddr: 0x49C0, symBinAddr: 0x5F400, symSize: 0x30 }
  - { offsetInCU: 0x15C27, offset: 0x239608, size: 0x8, addend: 0x0, symName: '__ZN4core3ptr40drop_in_place$LT$syn..expr..ExprPath$GT$17h0115980c8ec091a0E', symObjAddr: 0x49F0, symBinAddr: 0x5F430, symSize: 0x110 }
  - { offsetInCU: 0x16065, offset: 0x239A46, size: 0x8, addend: 0x0, symName: '__ZN4core3ptr40drop_in_place$LT$syn..ty..ReturnType$GT$17h4a68005bbc507217E', symObjAddr: 0x4B00, symBinAddr: 0x5F540, symSize: 0x50 }
  - { offsetInCU: 0x161D7, offset: 0x239BB8, size: 0x8, addend: 0x0, symName: '__ZN4core3ptr41drop_in_place$LT$syn..expr..ExprConst$GT$17h454a2cb9df850c24E', symObjAddr: 0x4B50, symBinAddr: 0x5F590, symSize: 0x180 }
  - { offsetInCU: 0x16760, offset: 0x23A141, size: 0x8, addend: 0x0, symName: '__ZN4core3ptr42drop_in_place$LT$alloc..string..String$GT$17hbf5e13799688ea34E', symObjAddr: 0x4CD0, symBinAddr: 0x5F710, symSize: 0x20 }
  - { offsetInCU: 0x16869, offset: 0x23A24A, size: 0x8, addend: 0x0, symName: '__ZN4core3ptr44drop_in_place$LT$syn..generics..Generics$GT$17he55a6c2a0d8d138cE', symObjAddr: 0x4CF0, symBinAddr: 0x5F730, symSize: 0x40 }
  - { offsetInCU: 0x16886, offset: 0x23A267, size: 0x8, addend: 0x0, symName: '__ZN4core3ptr44drop_in_place$LT$syn..lifetime..Lifetime$GT$17h9c301554489a697eE', symObjAddr: 0x4D30, symBinAddr: 0x5F770, symSize: 0x30 }
  - { offsetInCU: 0x16AB9, offset: 0x23A49A, size: 0x8, addend: 0x0, symName: '__ZN4core3ptr45drop_in_place$LT$proc_macro2..TokenStream$GT$17h86cac592f04212eaE', symObjAddr: 0x4D60, symBinAddr: 0x5F7A0, symSize: 0x140 }
  - { offsetInCU: 0x16F28, offset: 0x23A909, size: 0x8, addend: 0x0, symName: '__ZN4core3ptr45drop_in_place$LT$syn..generics..TypeParam$GT$17he645f7cc80b7ae11E', symObjAddr: 0x4EA0, symBinAddr: 0x5F8E0, symSize: 0x230 }
  - { offsetInCU: 0x17758, offset: 0x23B139, size: 0x8, addend: 0x0, symName: '__ZN4core3ptr46drop_in_place$LT$syn..generics..ConstParam$GT$17hc19d519d6441178aE', symObjAddr: 0x50D0, symBinAddr: 0x5FB10, symSize: 0x150 }
  - { offsetInCU: 0x17BB6, offset: 0x23B597, size: 0x8, addend: 0x0, symName: '__ZN4core3ptr47drop_in_place$LT$syn..generics..WhereClause$GT$17h973d7091013f7af5E', symObjAddr: 0x5220, symBinAddr: 0x5FC60, symSize: 0x80 }
  - { offsetInCU: 0x17E3A, offset: 0x23B81B, size: 0x8, addend: 0x0, symName: '__ZN4core3ptr47drop_in_place$LT$syn..path..GenericArgument$GT$17ha7ad17cb38a1a5afE', symObjAddr: 0x52A0, symBinAddr: 0x5FCE0, symSize: 0x460 }
  - { offsetInCU: 0x18B43, offset: 0x23C524, size: 0x8, addend: 0x0, symName: '__ZN4core3ptr49drop_in_place$LT$syn..generics..LifetimeParam$GT$17h47d9f9e81b35a3dcE', symObjAddr: 0x5700, symBinAddr: 0x60140, symSize: 0xF0 }
  - { offsetInCU: 0x18F31, offset: 0x23C912, size: 0x8, addend: 0x0, symName: '__ZN4core3ptr50drop_in_place$LT$syn..generics..TypeParamBound$GT$17h7c1195cdfd37b73cE', symObjAddr: 0x57F0, symBinAddr: 0x60230, symSize: 0xA0 }
  - { offsetInCU: 0x19098, offset: 0x23CA79, size: 0x8, addend: 0x0, symName: '__ZN4core3ptr58drop_in_place$LT$alloc..vec..Vec$LT$syn..expr..Arm$GT$$GT$17ha648d1896dec8b4dE', symObjAddr: 0x5890, symBinAddr: 0x602D0, symSize: 0xD0 }
  - { offsetInCU: 0x19325, offset: 0x23CD06, size: 0x8, addend: 0x0, symName: '__ZN4core3ptr59drop_in_place$LT$alloc..boxed..Box$LT$syn..pat..Pat$GT$$GT$17hfa860577679c86cbE', symObjAddr: 0x5960, symBinAddr: 0x603A0, symSize: 0x50 }
  - { offsetInCU: 0x19480, offset: 0x23CE61, size: 0x8, addend: 0x0, symName: '__ZN4core3ptr59drop_in_place$LT$alloc..boxed..Box$LT$syn..ty..Type$GT$$GT$17hce35c4b60063cd1fE', symObjAddr: 0x59B0, symBinAddr: 0x603F0, symSize: 0x50 }
  - { offsetInCU: 0x195DB, offset: 0x23CFBC, size: 0x8, addend: 0x0, symName: '__ZN4core3ptr61drop_in_place$LT$alloc..boxed..Box$LT$syn..expr..Expr$GT$$GT$17h35b8f1409a9ab85bE', symObjAddr: 0x5A00, symBinAddr: 0x60440, symSize: 0x50 }
  - { offsetInCU: 0x19736, offset: 0x23D117, size: 0x8, addend: 0x0, symName: '__ZN4core3ptr61drop_in_place$LT$syn..path..ParenthesizedGenericArguments$GT$17h6d1a096952b83c04E', symObjAddr: 0x5A50, symBinAddr: 0x60490, symSize: 0x170 }
  - { offsetInCU: 0x19D10, offset: 0x23D6F1, size: 0x8, addend: 0x0, symName: '__ZN4core3ptr63drop_in_place$LT$alloc..boxed..Box$LT$syn..lit..LitRepr$GT$$GT$17h4a54b8c5cd42faf5E', symObjAddr: 0x5BC0, symBinAddr: 0x60600, symSize: 0x60 }
  - { offsetInCU: 0x1A005, offset: 0x23D9E6, size: 0x8, addend: 0x0, symName: '__ZN4core3ptr64drop_in_place$LT$alloc..boxed..Box$LT$syn..pat..FieldPat$GT$$GT$17hf3d389ef82c9f10bE', symObjAddr: 0x5C20, symBinAddr: 0x60660, symSize: 0x140 }
  - { offsetInCU: 0x1A6E4, offset: 0x23E0C5, size: 0x8, addend: 0x0, symName: '__ZN4core3ptr64drop_in_place$LT$alloc..boxed..Box$LT$syn..ty..BareFnArg$GT$$GT$17hc862ec57eebf1a54E', symObjAddr: 0x5D60, symBinAddr: 0x607A0, symSize: 0x140 }
  - { offsetInCU: 0x1AC3C, offset: 0x23E61D, size: 0x8, addend: 0x0, symName: '__ZN4core3ptr65drop_in_place$LT$core..option..Option$LT$syn..expr..Label$GT$$GT$17hfc626d17a1d0054dE', symObjAddr: 0x5EA0, symBinAddr: 0x608E0, symSize: 0x30 }
  - { offsetInCU: 0x1AD77, offset: 0x23E758, size: 0x8, addend: 0x0, symName: '__ZN4core3ptr65drop_in_place$LT$core..option..Option$LT$syn..path..QSelf$GT$$GT$17h31a3e5c39e677989E', symObjAddr: 0x5ED0, symBinAddr: 0x60910, symSize: 0x50 }
  - { offsetInCU: 0x1AEFA, offset: 0x23E8DB, size: 0x8, addend: 0x0, symName: '__ZN4core3ptr66drop_in_place$LT$core..option..Option$LT$syn..pat..PatRest$GT$$GT$17hba8f4d9198c0dabcE', symObjAddr: 0x5F20, symBinAddr: 0x60960, symSize: 0xE0 }
  - { offsetInCU: 0x1B1B2, offset: 0x23EB93, size: 0x8, addend: 0x0, symName: '__ZN4core3ptr67drop_in_place$LT$alloc..boxed..Box$LT$syn..expr..FieldValue$GT$$GT$17h1fe00f656b5bc41eE', symObjAddr: 0x6000, symBinAddr: 0x60A40, symSize: 0x140 }
  - { offsetInCU: 0x1B709, offset: 0x23F0EA, size: 0x8, addend: 0x0, symName: '__ZN4core3ptr68drop_in_place$LT$alloc..vec..Vec$LT$proc_macro2..TokenStream$GT$$GT$17h2d99ab5e666e0edfE', symObjAddr: 0x6140, symBinAddr: 0x60B80, symSize: 0xC0 }
  - { offsetInCU: 0x1BACC, offset: 0x23F4AD, size: 0x8, addend: 0x0, symName: '__ZN4core3ptr68drop_in_place$LT$borsh_derive..internals..schema..GenericsOutput$GT$17h41356cc5128b9d27E', symObjAddr: 0x6200, symBinAddr: 0x60C40, symSize: 0xA0 }
  - { offsetInCU: 0x1BEEE, offset: 0x23F8CF, size: 0x8, addend: 0x0, symName: '__ZN4core3ptr70drop_in_place$LT$core..option..Option$LT$syn..ty..BareVariadic$GT$$GT$17hf6aaee8d5112d370E', symObjAddr: 0x62A0, symBinAddr: 0x60CE0, symSize: 0x120 }
  - { offsetInCU: 0x1C44F, offset: 0x23FE30, size: 0x8, addend: 0x0, symName: '__ZN4core3ptr72drop_in_place$LT$alloc..boxed..Box$LT$syn..path..GenericArgument$GT$$GT$17hc3f5a13c594d53a1E', symObjAddr: 0x63C0, symBinAddr: 0x60E00, symSize: 0x2B0 }
  - { offsetInCU: 0x1CE3A, offset: 0x24081B, size: 0x8, addend: 0x0, symName: '__ZN4core3ptr72drop_in_place$LT$core..option..Option$LT$syn..lifetime..Lifetime$GT$$GT$17hf02c2376eaf0703fE', symObjAddr: 0x6670, symBinAddr: 0x610B0, symSize: 0x30 }
  - { offsetInCU: 0x1CF56, offset: 0x240937, size: 0x8, addend: 0x0, symName: '__ZN4core3ptr73drop_in_place$LT$alloc..boxed..Box$LT$syn..generics..GenericParam$GT$$GT$17hbb1f35d2f323630eE', symObjAddr: 0x66A0, symBinAddr: 0x610E0, symSize: 0x80 }
  - { offsetInCU: 0x1D0CE, offset: 0x240AAF, size: 0x8, addend: 0x0, symName: '__ZN4core3ptr75drop_in_place$LT$alloc..boxed..Box$LT$syn..generics..TypeParamBound$GT$$GT$17h06d020fd356eb6c8E', symObjAddr: 0x6720, symBinAddr: 0x61160, symSize: 0x190 }
  - { offsetInCU: 0x1D7E6, offset: 0x2411C7, size: 0x8, addend: 0x0, symName: '__ZN4core3ptr75drop_in_place$LT$borsh_derive..internals..attributes..field..Attributes$GT$17hd6350ecb602e321aE', symObjAddr: 0x68B0, symBinAddr: 0x612F0, symSize: 0x210 }
  - { offsetInCU: 0x1DD51, offset: 0x241732, size: 0x8, addend: 0x0, symName: '__ZN4core3ptr75drop_in_place$LT$core..option..Option$LT$syn..generics..WhereClause$GT$$GT$17h8a92b83e49c22b8cE', symObjAddr: 0x6AC0, symBinAddr: 0x61500, symSize: 0x90 }
  - { offsetInCU: 0x1E007, offset: 0x2419E8, size: 0x8, addend: 0x0, symName: '__ZN4core3ptr86drop_in_place$LT$syn..punctuated..Punctuated$LT$syn..pat..Pat$C$syn..token..Or$GT$$GT$17h1c252cd869cc7fe5E', symObjAddr: 0x6B50, symBinAddr: 0x61590, symSize: 0x120 }
  - { offsetInCU: 0x1E44D, offset: 0x241E2E, size: 0x8, addend: 0x0, symName: '__ZN4core3ptr87drop_in_place$LT$core..option..Option$LT$alloc..boxed..Box$LT$syn..pat..Pat$GT$$GT$$GT$17h72bab185bf1bb06eE', symObjAddr: 0x6C70, symBinAddr: 0x616B0, symSize: 0x50 }
  - { offsetInCU: 0x1E5BF, offset: 0x241FA0, size: 0x8, addend: 0x0, symName: '__ZN4core3ptr87drop_in_place$LT$core..option..Option$LT$alloc..boxed..Box$LT$syn..ty..Type$GT$$GT$$GT$17hc260fbb8309ec29fE', symObjAddr: 0x6CC0, symBinAddr: 0x61700, symSize: 0x50 }
  - { offsetInCU: 0x1E731, offset: 0x242112, size: 0x8, addend: 0x0, symName: '__ZN4core3ptr89drop_in_place$LT$core..option..Option$LT$alloc..boxed..Box$LT$syn..expr..Expr$GT$$GT$$GT$17h189e15babfcbbcfaE', symObjAddr: 0x6D10, symBinAddr: 0x61750, symSize: 0x50 }
  - { offsetInCU: 0x1E8E1, offset: 0x2422C2, size: 0x8, addend: 0x0, symName: '__ZN4core3ptr89drop_in_place$LT$syn..punctuated..Punctuated$LT$syn..pat..Pat$C$syn..token..Comma$GT$$GT$17ha82f9ca12786bd54E', symObjAddr: 0x6D60, symBinAddr: 0x617A0, symSize: 0x120 }
  - { offsetInCU: 0x1ED7C, offset: 0x24275D, size: 0x8, addend: 0x0, symName: '__ZN4core3ptr91drop_in_place$LT$syn..punctuated..Punctuated$LT$syn..expr..Expr$C$syn..token..Comma$GT$$GT$17h5d174cfb4564e731E', symObjAddr: 0x6E80, symBinAddr: 0x618C0, symSize: 0x120 }
  - { offsetInCU: 0x1F1D9, offset: 0x242BBA, size: 0x8, addend: 0x0, symName: '__ZN4core3ptr94drop_in_place$LT$syn..punctuated..Punctuated$LT$syn..pat..FieldPat$C$syn..token..Comma$GT$$GT$17h57ec84468c025663E', symObjAddr: 0x6FA0, symBinAddr: 0x619E0, symSize: 0xF0 }
  - { offsetInCU: 0x1F4A3, offset: 0x242E84, size: 0x8, addend: 0x0, symName: '__ZN4core3ptr94drop_in_place$LT$syn..punctuated..Punctuated$LT$syn..ty..BareFnArg$C$syn..token..Comma$GT$$GT$17h93a6df93f58cf1c2E', symObjAddr: 0x7090, symBinAddr: 0x61AD0, symSize: 0xF0 }
  - { offsetInCU: 0x1F76D, offset: 0x24314E, size: 0x8, addend: 0x0, symName: '__ZN4core3ptr96drop_in_place$LT$core..option..Option$LT$alloc..boxed..Box$LT$syn..path..PathSegment$GT$$GT$$GT$17hfffb4eb6744ee164E', symObjAddr: 0x7180, symBinAddr: 0x61BC0, symSize: 0x180 }
  - { offsetInCU: 0x1FDFE, offset: 0x2437DF, size: 0x8, addend: 0x0, symName: '__ZN4core3ptr97drop_in_place$LT$syn..punctuated..Punctuated$LT$syn..expr..FieldValue$C$syn..token..Comma$GT$$GT$17hd35fb722be03e3d1E', symObjAddr: 0x7300, symBinAddr: 0x61D40, symSize: 0xF0 }
  - { offsetInCU: 0x20144, offset: 0x243B25, size: 0x8, addend: 0x0, symName: '__ZN4core3ptr98drop_in_place$LT$syn..punctuated..Punctuated$LT$syn..lifetime..Lifetime$C$syn..token..Plus$GT$$GT$17h0f92166c8c801efbE', symObjAddr: 0x73F0, symBinAddr: 0x61E30, symSize: 0xC0 }
  - { offsetInCU: 0x20AD3, offset: 0x2444B4, size: 0x8, addend: 0x0, symName: '__ZN53_$LT$core..fmt..Error$u20$as$u20$core..fmt..Debug$GT$3fmt17h43ae5cec9623af13E', symObjAddr: 0x74B0, symBinAddr: 0x61EF0, symSize: 0x20 }
  - { offsetInCU: 0x290D3, offset: 0x24CAB4, size: 0x8, addend: 0x0, symName: __ZN12borsh_derive9internals6schema7structs7process17h971b3244044b784bE, symObjAddr: 0x7660, symBinAddr: 0x620A0, symSize: 0x1D60 }
  - { offsetInCU: 0x2AF20, offset: 0x24E901, size: 0x8, addend: 0x0, symName: __ZN12borsh_derive9internals6schema7structs13process_field17h5a19eff74e2d19e2E, symObjAddr: 0x93C0, symBinAddr: 0x63E00, symSize: 0xA89 }
  - { offsetInCU: 0x123D, offset: 0x25501B, size: 0x8, addend: 0x0, symName: '__ZN4core3ptr100drop_in_place$LT$core..option..Option$LT$alloc..boxed..Box$LT$syn..path..GenericArgument$GT$$GT$$GT$17h513ef87717aedfddE', symObjAddr: 0x10, symBinAddr: 0x64890, symSize: 0x50 }
  - { offsetInCU: 0x15DD, offset: 0x2553BB, size: 0x8, addend: 0x0, symName: '__ZN4core3ptr100drop_in_place$LT$syn..punctuated..Punctuated$LT$syn..path..PathSegment$C$syn..token..PathSep$GT$$GT$17hd0d4e322634cba5dE', symObjAddr: 0x60, symBinAddr: 0x648E0, symSize: 0x280 }
  - { offsetInCU: 0x208A, offset: 0x255E68, size: 0x8, addend: 0x0, symName: '__ZN4core3ptr103drop_in_place$LT$core..option..Option$LT$alloc..boxed..Box$LT$syn..generics..TypeParamBound$GT$$GT$$GT$17h0d79b9ffb4171f90E', symObjAddr: 0x2E0, symBinAddr: 0x64B60, symSize: 0x50 }
  - { offsetInCU: 0x2297, offset: 0x256075, size: 0x8, addend: 0x0, symName: '__ZN4core3ptr103drop_in_place$LT$syn..punctuated..Punctuated$LT$syn..generics..GenericParam$C$syn..token..Comma$GT$$GT$17h1d35d7d5913e8beaE', symObjAddr: 0x330, symBinAddr: 0x64BB0, symSize: 0xF0 }
  - { offsetInCU: 0x275A, offset: 0x256538, size: 0x8, addend: 0x0, symName: '__ZN4core3ptr104drop_in_place$LT$syn..punctuated..Punctuated$LT$syn..generics..TypeParamBound$C$syn..token..Plus$GT$$GT$17h44083f960cd822d7E', symObjAddr: 0x420, symBinAddr: 0x64CA0, symSize: 0x190 }
  - { offsetInCU: 0x2DCD, offset: 0x256BAB, size: 0x8, addend: 0x0, symName: '__ZN4core3ptr34drop_in_place$LT$syn..lit..Lit$GT$17h3e4ef73f9d6504faE', symObjAddr: 0x5B0, symBinAddr: 0x64E30, symSize: 0x110 }
  - { offsetInCU: 0x3326, offset: 0x257104, size: 0x8, addend: 0x0, symName: '__ZN4core3ptr34drop_in_place$LT$syn..pat..Pat$GT$17hf99e10cab020967aE', symObjAddr: 0x6C0, symBinAddr: 0x64F40, symSize: 0x1070 }
  - { offsetInCU: 0x74C7, offset: 0x25B2A5, size: 0x8, addend: 0x0, symName: '__ZN4core3ptr34drop_in_place$LT$syn..ty..Type$GT$17hc9a287e6412cf4a5E', symObjAddr: 0x1730, symBinAddr: 0x65FB0, symSize: 0x510 }
  - { offsetInCU: 0x8B26, offset: 0x25C904, size: 0x8, addend: 0x0, symName: '__ZN4core3ptr36drop_in_place$LT$syn..expr..Expr$GT$17hbea3b059aebc6b0dE', symObjAddr: 0x1C40, symBinAddr: 0x664C0, symSize: 0x2920 }
  - { offsetInCU: 0x12964, offset: 0x266742, size: 0x8, addend: 0x0, symName: '__ZN4core3ptr36drop_in_place$LT$syn..mac..Macro$GT$17haa1481cb4fe5d660E', symObjAddr: 0x4560, symBinAddr: 0x68DE0, symSize: 0x40 }
  - { offsetInCU: 0x1299E, offset: 0x26677C, size: 0x8, addend: 0x0, symName: '__ZN4core3ptr36drop_in_place$LT$syn..path..Path$GT$17hb26ddc646911d9caE', symObjAddr: 0x45A0, symBinAddr: 0x68E20, symSize: 0x240 }
  - { offsetInCU: 0x133E7, offset: 0x2671C5, size: 0x8, addend: 0x0, symName: '__ZN4core3ptr37drop_in_place$LT$syn..stmt..Block$GT$17h9bb04bc412e892c1E', symObjAddr: 0x47E0, symBinAddr: 0x69060, symSize: 0xD0 }
  - { offsetInCU: 0x1368B, offset: 0x267469, size: 0x8, addend: 0x0, symName: '__ZN4core3ptr38drop_in_place$LT$syn..expr..Member$GT$17h54f73fbfaef06080E', symObjAddr: 0x48B0, symBinAddr: 0x69130, symSize: 0x30 }
  - { offsetInCU: 0x13788, offset: 0x267566, size: 0x8, addend: 0x0, symName: '__ZN4core3ptr39drop_in_place$LT$proc_macro2..Ident$GT$17h9d68045e9dec4a40E', symObjAddr: 0x48E0, symBinAddr: 0x69160, symSize: 0x30 }
  - { offsetInCU: 0x13866, offset: 0x267644, size: 0x8, addend: 0x0, symName: '__ZN4core3ptr40drop_in_place$LT$syn..expr..ExprPath$GT$17h0115980c8ec091a0E', symObjAddr: 0x4910, symBinAddr: 0x69190, symSize: 0x110 }
  - { offsetInCU: 0x13CA4, offset: 0x267A82, size: 0x8, addend: 0x0, symName: '__ZN4core3ptr40drop_in_place$LT$syn..ty..ReturnType$GT$17h4a68005bbc507217E', symObjAddr: 0x4A20, symBinAddr: 0x692A0, symSize: 0x50 }
  - { offsetInCU: 0x13E16, offset: 0x267BF4, size: 0x8, addend: 0x0, symName: '__ZN4core3ptr41drop_in_place$LT$syn..expr..ExprConst$GT$17h454a2cb9df850c24E', symObjAddr: 0x4A70, symBinAddr: 0x692F0, symSize: 0x180 }
  - { offsetInCU: 0x1439F, offset: 0x26817D, size: 0x8, addend: 0x0, symName: '__ZN4core3ptr44drop_in_place$LT$syn..lifetime..Lifetime$GT$17h9c301554489a697eE', symObjAddr: 0x4BF0, symBinAddr: 0x69470, symSize: 0x30 }
  - { offsetInCU: 0x145D2, offset: 0x2683B0, size: 0x8, addend: 0x0, symName: '__ZN4core3ptr45drop_in_place$LT$proc_macro2..TokenStream$GT$17h86cac592f04212eaE', symObjAddr: 0x4C20, symBinAddr: 0x694A0, symSize: 0x140 }
  - { offsetInCU: 0x14A41, offset: 0x26881F, size: 0x8, addend: 0x0, symName: '__ZN4core3ptr45drop_in_place$LT$syn..generics..TypeParam$GT$17he645f7cc80b7ae11E', symObjAddr: 0x4D60, symBinAddr: 0x695E0, symSize: 0x230 }
  - { offsetInCU: 0x15271, offset: 0x26904F, size: 0x8, addend: 0x0, symName: '__ZN4core3ptr46drop_in_place$LT$syn..generics..ConstParam$GT$17hc19d519d6441178aE', symObjAddr: 0x4F90, symBinAddr: 0x69810, symSize: 0x150 }
  - { offsetInCU: 0x1574B, offset: 0x269529, size: 0x8, addend: 0x0, symName: '__ZN4core3ptr47drop_in_place$LT$syn..path..GenericArgument$GT$17ha7ad17cb38a1a5afE', symObjAddr: 0x5110, symBinAddr: 0x69960, symSize: 0x4A0 }
  - { offsetInCU: 0x167F2, offset: 0x26A5D0, size: 0x8, addend: 0x0, symName: '__ZN4core3ptr49drop_in_place$LT$syn..generics..LifetimeParam$GT$17h47d9f9e81b35a3dcE', symObjAddr: 0x55B0, symBinAddr: 0x69E00, symSize: 0xF0 }
  - { offsetInCU: 0x16BE0, offset: 0x26A9BE, size: 0x8, addend: 0x0, symName: '__ZN4core3ptr50drop_in_place$LT$syn..generics..TypeParamBound$GT$17h7c1195cdfd37b73cE', symObjAddr: 0x56A0, symBinAddr: 0x69EF0, symSize: 0x1A0 }
  - { offsetInCU: 0x17114, offset: 0x26AEF2, size: 0x8, addend: 0x0, symName: '__ZN4core3ptr58drop_in_place$LT$alloc..vec..Vec$LT$syn..expr..Arm$GT$$GT$17ha648d1896dec8b4dE', symObjAddr: 0x5840, symBinAddr: 0x6A090, symSize: 0xD0 }
  - { offsetInCU: 0x173A1, offset: 0x26B17F, size: 0x8, addend: 0x0, symName: '__ZN4core3ptr59drop_in_place$LT$alloc..boxed..Box$LT$syn..pat..Pat$GT$$GT$17hfa860577679c86cbE', symObjAddr: 0x5910, symBinAddr: 0x6A160, symSize: 0x50 }
  - { offsetInCU: 0x174FC, offset: 0x26B2DA, size: 0x8, addend: 0x0, symName: '__ZN4core3ptr59drop_in_place$LT$alloc..boxed..Box$LT$syn..ty..Type$GT$$GT$17hce35c4b60063cd1fE', symObjAddr: 0x5960, symBinAddr: 0x6A1B0, symSize: 0x50 }
  - { offsetInCU: 0x17657, offset: 0x26B435, size: 0x8, addend: 0x0, symName: '__ZN4core3ptr61drop_in_place$LT$alloc..boxed..Box$LT$syn..expr..Expr$GT$$GT$17h35b8f1409a9ab85bE', symObjAddr: 0x59B0, symBinAddr: 0x6A200, symSize: 0x50 }
  - { offsetInCU: 0x1782E, offset: 0x26B60C, size: 0x8, addend: 0x0, symName: '__ZN4core3ptr61drop_in_place$LT$syn..path..ParenthesizedGenericArguments$GT$17h6d1a096952b83c04E', symObjAddr: 0x5A00, symBinAddr: 0x6A250, symSize: 0x170 }
  - { offsetInCU: 0x17DF5, offset: 0x26BBD3, size: 0x8, addend: 0x0, symName: '__ZN4core3ptr62drop_in_place$LT$syn..path..AngleBracketedGenericArguments$GT$17h1e2e2310287487b5E', symObjAddr: 0x5B70, symBinAddr: 0x6A3C0, symSize: 0x120 }
  - { offsetInCU: 0x1820B, offset: 0x26BFE9, size: 0x8, addend: 0x0, symName: '__ZN4core3ptr63drop_in_place$LT$alloc..boxed..Box$LT$syn..lit..LitRepr$GT$$GT$17h4a54b8c5cd42faf5E.llvm.3511462927488717917', symObjAddr: 0x5C90, symBinAddr: 0x6A4E0, symSize: 0x60 }
  - { offsetInCU: 0x18500, offset: 0x26C2DE, size: 0x8, addend: 0x0, symName: '__ZN4core3ptr64drop_in_place$LT$alloc..boxed..Box$LT$syn..pat..FieldPat$GT$$GT$17hf3d389ef82c9f10bE', symObjAddr: 0x5CF0, symBinAddr: 0x6A540, symSize: 0x140 }
  - { offsetInCU: 0x18BDF, offset: 0x26C9BD, size: 0x8, addend: 0x0, symName: '__ZN4core3ptr64drop_in_place$LT$alloc..boxed..Box$LT$syn..ty..BareFnArg$GT$$GT$17hc862ec57eebf1a54E', symObjAddr: 0x5E30, symBinAddr: 0x6A680, symSize: 0x140 }
  - { offsetInCU: 0x19137, offset: 0x26CF15, size: 0x8, addend: 0x0, symName: '__ZN4core3ptr65drop_in_place$LT$core..option..Option$LT$syn..expr..Label$GT$$GT$17hfc626d17a1d0054dE', symObjAddr: 0x5F70, symBinAddr: 0x6A7C0, symSize: 0x30 }
  - { offsetInCU: 0x19272, offset: 0x26D050, size: 0x8, addend: 0x0, symName: '__ZN4core3ptr65drop_in_place$LT$core..option..Option$LT$syn..path..QSelf$GT$$GT$17h31a3e5c39e677989E', symObjAddr: 0x5FA0, symBinAddr: 0x6A7F0, symSize: 0x50 }
  - { offsetInCU: 0x193F5, offset: 0x26D1D3, size: 0x8, addend: 0x0, symName: '__ZN4core3ptr66drop_in_place$LT$core..option..Option$LT$syn..pat..PatRest$GT$$GT$17hba8f4d9198c0dabcE', symObjAddr: 0x5FF0, symBinAddr: 0x6A840, symSize: 0xE0 }
  - { offsetInCU: 0x196AD, offset: 0x26D48B, size: 0x8, addend: 0x0, symName: '__ZN4core3ptr67drop_in_place$LT$alloc..boxed..Box$LT$syn..expr..FieldValue$GT$$GT$17h1fe00f656b5bc41eE', symObjAddr: 0x60D0, symBinAddr: 0x6A920, symSize: 0x140 }
  - { offsetInCU: 0x19BE5, offset: 0x26D9C3, size: 0x8, addend: 0x0, symName: '__ZN4core3ptr68drop_in_place$LT$alloc..boxed..Box$LT$syn..path..PathSegment$GT$$GT$17hdf3e53c9442c6d12E', symObjAddr: 0x6210, symBinAddr: 0x6AA60, symSize: 0x190 }
  - { offsetInCU: 0x1A2C3, offset: 0x26E0A1, size: 0x8, addend: 0x0, symName: '__ZN4core3ptr70drop_in_place$LT$core..option..Option$LT$syn..ty..BareVariadic$GT$$GT$17hf6aaee8d5112d370E', symObjAddr: 0x63A0, symBinAddr: 0x6ABF0, symSize: 0x120 }
  - { offsetInCU: 0x1A824, offset: 0x26E602, size: 0x8, addend: 0x0, symName: '__ZN4core3ptr72drop_in_place$LT$alloc..boxed..Box$LT$syn..path..GenericArgument$GT$$GT$17hc3f5a13c594d53a1E', symObjAddr: 0x64C0, symBinAddr: 0x6AD10, symSize: 0x1D0 }
  - { offsetInCU: 0x1ADC7, offset: 0x26EBA5, size: 0x8, addend: 0x0, symName: '__ZN4core3ptr72drop_in_place$LT$core..option..Option$LT$syn..lifetime..Lifetime$GT$$GT$17hf02c2376eaf0703fE', symObjAddr: 0x6690, symBinAddr: 0x6AEE0, symSize: 0x30 }
  - { offsetInCU: 0x1AEE3, offset: 0x26ECC1, size: 0x8, addend: 0x0, symName: '__ZN4core3ptr73drop_in_place$LT$alloc..boxed..Box$LT$syn..generics..GenericParam$GT$$GT$17hbb1f35d2f323630eE', symObjAddr: 0x66C0, symBinAddr: 0x6AF10, symSize: 0x80 }
  - { offsetInCU: 0x1B05B, offset: 0x26EE39, size: 0x8, addend: 0x0, symName: '__ZN4core3ptr75drop_in_place$LT$alloc..boxed..Box$LT$syn..generics..TypeParamBound$GT$$GT$17h06d020fd356eb6c8E', symObjAddr: 0x6740, symBinAddr: 0x6AF90, symSize: 0xB0 }
  - { offsetInCU: 0x1B3B6, offset: 0x26F194, size: 0x8, addend: 0x0, symName: '__ZN4core3ptr86drop_in_place$LT$syn..punctuated..Punctuated$LT$syn..pat..Pat$C$syn..token..Or$GT$$GT$17h1c252cd869cc7fe5E', symObjAddr: 0x67F0, symBinAddr: 0x6B040, symSize: 0x120 }
  - { offsetInCU: 0x1B7FC, offset: 0x26F5DA, size: 0x8, addend: 0x0, symName: '__ZN4core3ptr87drop_in_place$LT$core..option..Option$LT$alloc..boxed..Box$LT$syn..pat..Pat$GT$$GT$$GT$17h72bab185bf1bb06eE', symObjAddr: 0x6910, symBinAddr: 0x6B160, symSize: 0x50 }
  - { offsetInCU: 0x1B96E, offset: 0x26F74C, size: 0x8, addend: 0x0, symName: '__ZN4core3ptr87drop_in_place$LT$core..option..Option$LT$alloc..boxed..Box$LT$syn..ty..Type$GT$$GT$$GT$17hc260fbb8309ec29fE', symObjAddr: 0x6960, symBinAddr: 0x6B1B0, symSize: 0x50 }
  - { offsetInCU: 0x1BAE0, offset: 0x26F8BE, size: 0x8, addend: 0x0, symName: '__ZN4core3ptr89drop_in_place$LT$core..option..Option$LT$alloc..boxed..Box$LT$syn..expr..Expr$GT$$GT$$GT$17h189e15babfcbbcfaE', symObjAddr: 0x69B0, symBinAddr: 0x6B200, symSize: 0x50 }
  - { offsetInCU: 0x1BC90, offset: 0x26FA6E, size: 0x8, addend: 0x0, symName: '__ZN4core3ptr89drop_in_place$LT$syn..punctuated..Punctuated$LT$syn..pat..Pat$C$syn..token..Comma$GT$$GT$17ha82f9ca12786bd54E', symObjAddr: 0x6A00, symBinAddr: 0x6B250, symSize: 0x120 }
  - { offsetInCU: 0x1C0ED, offset: 0x26FECB, size: 0x8, addend: 0x0, symName: '__ZN4core3ptr89drop_in_place$LT$syn..punctuated..Punctuated$LT$syn..ty..Type$C$syn..token..Comma$GT$$GT$17h6c76e390e4497862E', symObjAddr: 0x6B20, symBinAddr: 0x6B370, symSize: 0x120 }
  - { offsetInCU: 0x1C537, offset: 0x270315, size: 0x8, addend: 0x0, symName: '__ZN4core3ptr90drop_in_place$LT$core..option..Option$LT$syn..path..AngleBracketedGenericArguments$GT$$GT$17h488f4ff126d02fb4E', symObjAddr: 0x6C40, symBinAddr: 0x6B490, symSize: 0x130 }
  - { offsetInCU: 0x1C9A2, offset: 0x270780, size: 0x8, addend: 0x0, symName: '__ZN4core3ptr91drop_in_place$LT$syn..punctuated..Punctuated$LT$syn..expr..Expr$C$syn..token..Comma$GT$$GT$17h5d174cfb4564e731E', symObjAddr: 0x6D70, symBinAddr: 0x6B5C0, symSize: 0x120 }
  - { offsetInCU: 0x1CDFF, offset: 0x270BDD, size: 0x8, addend: 0x0, symName: '__ZN4core3ptr94drop_in_place$LT$syn..punctuated..Punctuated$LT$syn..pat..FieldPat$C$syn..token..Comma$GT$$GT$17h57ec84468c025663E', symObjAddr: 0x6E90, symBinAddr: 0x6B6E0, symSize: 0xF0 }
  - { offsetInCU: 0x1D0C9, offset: 0x270EA7, size: 0x8, addend: 0x0, symName: '__ZN4core3ptr94drop_in_place$LT$syn..punctuated..Punctuated$LT$syn..ty..BareFnArg$C$syn..token..Comma$GT$$GT$17h93a6df93f58cf1c2E', symObjAddr: 0x6F80, symBinAddr: 0x6B7D0, symSize: 0xF0 }
  - { offsetInCU: 0x1D393, offset: 0x271171, size: 0x8, addend: 0x0, symName: '__ZN4core3ptr96drop_in_place$LT$core..option..Option$LT$alloc..boxed..Box$LT$syn..path..PathSegment$GT$$GT$$GT$17hfffb4eb6744ee164E', symObjAddr: 0x7070, symBinAddr: 0x6B8C0, symSize: 0x90 }
  - { offsetInCU: 0x1D615, offset: 0x2713F3, size: 0x8, addend: 0x0, symName: '__ZN4core3ptr97drop_in_place$LT$syn..punctuated..Punctuated$LT$syn..expr..FieldValue$C$syn..token..Comma$GT$$GT$17hd35fb722be03e3d1E', symObjAddr: 0x7100, symBinAddr: 0x6B950, symSize: 0xF0 }
  - { offsetInCU: 0x1D8DF, offset: 0x2716BD, size: 0x8, addend: 0x0, symName: '__ZN4core3ptr98drop_in_place$LT$alloc..vec..Vec$LT$$LP$syn..path..GenericArgument$C$syn..token..Comma$RP$$GT$$GT$17h4fdb1af8625fb77aE', symObjAddr: 0x71F0, symBinAddr: 0x6BA40, symSize: 0xD0 }
  - { offsetInCU: 0x1DBE8, offset: 0x2719C6, size: 0x8, addend: 0x0, symName: '__ZN4core3ptr98drop_in_place$LT$syn..punctuated..Punctuated$LT$syn..lifetime..Lifetime$C$syn..token..Plus$GT$$GT$17h0f92166c8c801efbE', symObjAddr: 0x72C0, symBinAddr: 0x6BB10, symSize: 0xC0 }
  - { offsetInCU: 0x23DA3, offset: 0x277B81, size: 0x8, addend: 0x0, symName: '__ZN55_$LT$syn..token..Paren$u20$as$u20$syn..token..Token$GT$7display17h9688fb4fe1a07c3eE.llvm.3511462927488717917', symObjAddr: 0x7380, symBinAddr: 0x6BBD0, symSize: 0x20 }
  - { offsetInCU: 0x29193, offset: 0x27CF71, size: 0x8, addend: 0x0, symName: '__ZN60_$LT$alloc..string..String$u20$as$u20$core..fmt..Display$GT$3fmt17hc365578c40090489E', symObjAddr: 0x73A0, symBinAddr: 0x6BBF0, symSize: 0x20 }
  - { offsetInCU: 0x2C0CC, offset: 0x27FEAA, size: 0x8, addend: 0x0, symName: __ZN12borsh_derive9internals10attributes7parsing12get_lit_str217h6659119e698a47b4E.llvm.3511462927488717917, symObjAddr: 0x73C0, symBinAddr: 0x6BC10, symSize: 0x220 }
  - { offsetInCU: 0x2C2D8, offset: 0x2800B6, size: 0x8, addend: 0x0, symName: __ZN12borsh_derive9internals10attributes7parsing14parse_lit_into17h1e792766bdda009aE, symObjAddr: 0x75E0, symBinAddr: 0x6BE30, symSize: 0x140 }
  - { offsetInCU: 0x2C730, offset: 0x28050E, size: 0x8, addend: 0x0, symName: __ZN12borsh_derive9internals10attributes7parsing14parse_lit_into17hc9bd74e8494ee984E, symObjAddr: 0x7720, symBinAddr: 0x6BF70, symSize: 0x140 }
  - { offsetInCU: 0x2CB87, offset: 0x280965, size: 0x8, addend: 0x0, symName: __ZN12borsh_derive9internals10attributes7parsing18parse_lit_into_vec17hc61fa7028534eec9E, symObjAddr: 0x7860, symBinAddr: 0x6C0B0, symSize: 0x180 }
  - { offsetInCU: 0x2CFF4, offset: 0x280DD2, size: 0x8, addend: 0x0, symName: __ZN12borsh_derive9internals10attributes7parsing18parse_lit_into_vec17hfdb4804395e71c60E, symObjAddr: 0x79E0, symBinAddr: 0x6C230, symSize: 0x180 }
  - { offsetInCU: 0x2D483, offset: 0x281261, size: 0x8, addend: 0x0, symName: __ZN12borsh_derive9internals10attributes7parsing21get_nested_meta_logic17h0d2f98733cd60c39E, symObjAddr: 0x7B60, symBinAddr: 0x6C3B0, symSize: 0x5C0 }
  - { offsetInCU: 0x2DDDB, offset: 0x281BB9, size: 0x8, addend: 0x0, symName: __ZN12borsh_derive9internals10attributes7parsing21get_nested_meta_logic17h54c8d92764724b08E, symObjAddr: 0x8120, symBinAddr: 0x6C970, symSize: 0x8B0 }
  - { offsetInCU: 0x2EFFA, offset: 0x282DD8, size: 0x8, addend: 0x0, symName: __ZN12borsh_derive9internals10attributes7parsing21get_nested_meta_logic17h56baaf5b12fdf540E, symObjAddr: 0x89D0, symBinAddr: 0x6D220, symSize: 0x660 }
  - { offsetInCU: 0x2FC93, offset: 0x283A71, size: 0x8, addend: 0x0, symName: __ZN12borsh_derive9internals10attributes7parsing21get_nested_meta_logic17hf12fec4d9d74dd13E, symObjAddr: 0x9030, symBinAddr: 0x6D880, symSize: 0x7F0 }
  - { offsetInCU: 0x30C53, offset: 0x284A31, size: 0x8, addend: 0x0, symName: __ZN12borsh_derive9internals10attributes7parsing23meta_get_by_symbol_keys17h4d407330ddda225aE, symObjAddr: 0x9820, symBinAddr: 0x6E070, symSize: 0x210 }
  - { offsetInCU: 0x312D9, offset: 0x2850B7, size: 0x8, addend: 0x0, symName: __ZN12borsh_derive9internals10attributes7parsing23meta_get_by_symbol_keys17h59665930f6ab78c8E, symObjAddr: 0x9A30, symBinAddr: 0x6E280, symSize: 0x210 }
  - { offsetInCU: 0x3195F, offset: 0x28573D, size: 0x8, addend: 0x0, symName: __ZN12borsh_derive9internals10attributes7parsing23meta_get_by_symbol_keys17h5cf714e57daf1523E, symObjAddr: 0x9C40, symBinAddr: 0x6E490, symSize: 0x210 }
  - { offsetInCU: 0x1E, offset: 0x2897F6, size: 0x8, addend: 0x0, symName: '__ZN4core3ptr100drop_in_place$LT$core..option..Option$LT$alloc..boxed..Box$LT$syn..path..GenericArgument$GT$$GT$$GT$17h513ef87717aedfddE', symObjAddr: 0x0, symBinAddr: 0x6E6A0, symSize: 0x50 }
  - { offsetInCU: 0x1928, offset: 0x28B100, size: 0x8, addend: 0x0, symName: '__ZN4core3ptr100drop_in_place$LT$core..option..Option$LT$alloc..boxed..Box$LT$syn..path..GenericArgument$GT$$GT$$GT$17h513ef87717aedfddE', symObjAddr: 0x0, symBinAddr: 0x6E6A0, symSize: 0x50 }
  - { offsetInCU: 0x1AF7, offset: 0x28B2CF, size: 0x8, addend: 0x0, symName: '__ZN4core3ptr102drop_in_place$LT$syn..punctuated..Punctuated$LT$syn..path..GenericArgument$C$syn..token..Comma$GT$$GT$17ha5e403e03e446464E', symObjAddr: 0x50, symBinAddr: 0x6E6F0, symSize: 0xF0 }
  - { offsetInCU: 0x1DE0, offset: 0x28B5B8, size: 0x8, addend: 0x0, symName: '__ZN4core3ptr103drop_in_place$LT$core..option..Option$LT$alloc..boxed..Box$LT$syn..generics..TypeParamBound$GT$$GT$$GT$17h0d79b9ffb4171f90E', symObjAddr: 0x140, symBinAddr: 0x6E7E0, symSize: 0x50 }
  - { offsetInCU: 0x20A7, offset: 0x28B87F, size: 0x8, addend: 0x0, symName: '__ZN4core3ptr103drop_in_place$LT$core..option..Option$LT$alloc..boxed..Box$LT$syn..generics..WherePredicate$GT$$GT$$GT$17h5eae77184a584f9cE', symObjAddr: 0x190, symBinAddr: 0x6E830, symSize: 0xD0 }
  - { offsetInCU: 0x243A, offset: 0x28BC12, size: 0x8, addend: 0x0, symName: '__ZN4core3ptr103drop_in_place$LT$syn..punctuated..Punctuated$LT$syn..generics..GenericParam$C$syn..token..Comma$GT$$GT$17h1d35d7d5913e8beaE', symObjAddr: 0x260, symBinAddr: 0x6E900, symSize: 0xF0 }
  - { offsetInCU: 0x28FD, offset: 0x28C0D5, size: 0x8, addend: 0x0, symName: '__ZN4core3ptr104drop_in_place$LT$syn..punctuated..Punctuated$LT$syn..generics..TypeParamBound$C$syn..token..Plus$GT$$GT$17h44083f960cd822d7E', symObjAddr: 0x350, symBinAddr: 0x6E9F0, symSize: 0x260 }
  - { offsetInCU: 0x32B1, offset: 0x28CA89, size: 0x8, addend: 0x0, symName: '__ZN4core3ptr107drop_in_place$LT$core..option..Option$LT$borsh_derive..internals..attributes..field..bounds..Bounds$GT$$GT$17h2d5529b9a1156344E', symObjAddr: 0x5B0, symBinAddr: 0x6EC50, symSize: 0x1A0 }
  - { offsetInCU: 0x3848, offset: 0x28D020, size: 0x8, addend: 0x0, symName: '__ZN4core3ptr111drop_in_place$LT$core..option..Option$LT$borsh_derive..internals..attributes..field..schema..Attributes$GT$$GT$17h080e13e0ea21ca67E', symObjAddr: 0x750, symBinAddr: 0x6EDF0, symSize: 0xF0 }
  - { offsetInCU: 0x3BBF, offset: 0x28D397, size: 0x8, addend: 0x0, symName: '__ZN4core3ptr34drop_in_place$LT$syn..lit..Lit$GT$17h3e4ef73f9d6504faE', symObjAddr: 0x840, symBinAddr: 0x6EEE0, symSize: 0x110 }
  - { offsetInCU: 0x4118, offset: 0x28D8F0, size: 0x8, addend: 0x0, symName: '__ZN4core3ptr34drop_in_place$LT$syn..pat..Pat$GT$17hf99e10cab020967aE', symObjAddr: 0x950, symBinAddr: 0x6EFF0, symSize: 0xF00 }
  - { offsetInCU: 0x7BBB, offset: 0x291393, size: 0x8, addend: 0x0, symName: '__ZN4core3ptr34drop_in_place$LT$syn..ty..Type$GT$17hc9a287e6412cf4a5E', symObjAddr: 0x1850, symBinAddr: 0x6FEF0, symSize: 0x5E0 }
  - { offsetInCU: 0x9505, offset: 0x292CDD, size: 0x8, addend: 0x0, symName: '__ZN4core3ptr36drop_in_place$LT$syn..expr..Expr$GT$17hbea3b059aebc6b0dE', symObjAddr: 0x1E30, symBinAddr: 0x704D0, symSize: 0x2830 }
  - { offsetInCU: 0x12F7A, offset: 0x29C752, size: 0x8, addend: 0x0, symName: '__ZN4core3ptr36drop_in_place$LT$syn..mac..Macro$GT$17haa1481cb4fe5d660E', symObjAddr: 0x4660, symBinAddr: 0x72D00, symSize: 0x110 }
  - { offsetInCU: 0x133FF, offset: 0x29CBD7, size: 0x8, addend: 0x0, symName: '__ZN4core3ptr36drop_in_place$LT$syn..path..Path$GT$17hb26ddc646911d9caE', symObjAddr: 0x4770, symBinAddr: 0x72E10, symSize: 0x240 }
  - { offsetInCU: 0x13E48, offset: 0x29D620, size: 0x8, addend: 0x0, symName: '__ZN4core3ptr37drop_in_place$LT$syn..stmt..Block$GT$17h9bb04bc412e892c1E', symObjAddr: 0x49B0, symBinAddr: 0x73050, symSize: 0xD0 }
  - { offsetInCU: 0x140EC, offset: 0x29D8C4, size: 0x8, addend: 0x0, symName: '__ZN4core3ptr38drop_in_place$LT$syn..expr..Member$GT$17h54f73fbfaef06080E', symObjAddr: 0x4A80, symBinAddr: 0x73120, symSize: 0x30 }
  - { offsetInCU: 0x141E9, offset: 0x29D9C1, size: 0x8, addend: 0x0, symName: '__ZN4core3ptr39drop_in_place$LT$proc_macro2..Ident$GT$17h9d68045e9dec4a40E', symObjAddr: 0x4AB0, symBinAddr: 0x73150, symSize: 0x30 }
  - { offsetInCU: 0x142C7, offset: 0x29DA9F, size: 0x8, addend: 0x0, symName: '__ZN4core3ptr40drop_in_place$LT$syn..ty..ReturnType$GT$17h4a68005bbc507217E', symObjAddr: 0x4AE0, symBinAddr: 0x73180, symSize: 0x50 }
  - { offsetInCU: 0x14439, offset: 0x29DC11, size: 0x8, addend: 0x0, symName: '__ZN4core3ptr41drop_in_place$LT$syn..expr..ExprConst$GT$17h454a2cb9df850c24E', symObjAddr: 0x4B30, symBinAddr: 0x731D0, symSize: 0x180 }
  - { offsetInCU: 0x149C2, offset: 0x29E19A, size: 0x8, addend: 0x0, symName: '__ZN4core3ptr44drop_in_place$LT$syn..generics..Generics$GT$17he55a6c2a0d8d138cE', symObjAddr: 0x4CB0, symBinAddr: 0x73350, symSize: 0x40 }
  - { offsetInCU: 0x149DF, offset: 0x29E1B7, size: 0x8, addend: 0x0, symName: '__ZN4core3ptr44drop_in_place$LT$syn..lifetime..Lifetime$GT$17h9c301554489a697eE', symObjAddr: 0x4CF0, symBinAddr: 0x73390, symSize: 0x30 }
  - { offsetInCU: 0x14C12, offset: 0x29E3EA, size: 0x8, addend: 0x0, symName: '__ZN4core3ptr45drop_in_place$LT$proc_macro2..TokenStream$GT$17h86cac592f04212eaE', symObjAddr: 0x4D20, symBinAddr: 0x733C0, symSize: 0x140 }
  - { offsetInCU: 0x15081, offset: 0x29E859, size: 0x8, addend: 0x0, symName: '__ZN4core3ptr45drop_in_place$LT$syn..generics..TypeParam$GT$17he645f7cc80b7ae11E', symObjAddr: 0x4E60, symBinAddr: 0x73500, symSize: 0x230 }
  - { offsetInCU: 0x158B1, offset: 0x29F089, size: 0x8, addend: 0x0, symName: '__ZN4core3ptr46drop_in_place$LT$syn..generics..ConstParam$GT$17hc19d519d6441178aE', symObjAddr: 0x5090, symBinAddr: 0x73730, symSize: 0x150 }
  - { offsetInCU: 0x15D0F, offset: 0x29F4E7, size: 0x8, addend: 0x0, symName: '__ZN4core3ptr47drop_in_place$LT$syn..generics..WhereClause$GT$17h973d7091013f7af5E', symObjAddr: 0x51E0, symBinAddr: 0x73880, symSize: 0x80 }
  - { offsetInCU: 0x15F93, offset: 0x29F76B, size: 0x8, addend: 0x0, symName: '__ZN4core3ptr47drop_in_place$LT$syn..path..GenericArgument$GT$17ha7ad17cb38a1a5afE', symObjAddr: 0x5260, symBinAddr: 0x73900, symSize: 0x460 }
  - { offsetInCU: 0x16C9C, offset: 0x2A0474, size: 0x8, addend: 0x0, symName: '__ZN4core3ptr49drop_in_place$LT$syn..generics..LifetimeParam$GT$17h47d9f9e81b35a3dcE', symObjAddr: 0x56C0, symBinAddr: 0x73D60, symSize: 0xF0 }
  - { offsetInCU: 0x1708A, offset: 0x2A0862, size: 0x8, addend: 0x0, symName: '__ZN4core3ptr50drop_in_place$LT$syn..generics..TypeParamBound$GT$17h7c1195cdfd37b73cE', symObjAddr: 0x57B0, symBinAddr: 0x73E50, symSize: 0xA0 }
  - { offsetInCU: 0x171F1, offset: 0x2A09C9, size: 0x8, addend: 0x0, symName: '__ZN4core3ptr58drop_in_place$LT$alloc..vec..Vec$LT$syn..expr..Arm$GT$$GT$17ha648d1896dec8b4dE', symObjAddr: 0x5850, symBinAddr: 0x73EF0, symSize: 0xD0 }
  - { offsetInCU: 0x1747E, offset: 0x2A0C56, size: 0x8, addend: 0x0, symName: '__ZN4core3ptr59drop_in_place$LT$alloc..boxed..Box$LT$syn..pat..Pat$GT$$GT$17hfa860577679c86cbE', symObjAddr: 0x5920, symBinAddr: 0x73FC0, symSize: 0x50 }
  - { offsetInCU: 0x175D9, offset: 0x2A0DB1, size: 0x8, addend: 0x0, symName: '__ZN4core3ptr59drop_in_place$LT$alloc..boxed..Box$LT$syn..ty..Type$GT$$GT$17hce35c4b60063cd1fE', symObjAddr: 0x5970, symBinAddr: 0x74010, symSize: 0x50 }
  - { offsetInCU: 0x17734, offset: 0x2A0F0C, size: 0x8, addend: 0x0, symName: '__ZN4core3ptr61drop_in_place$LT$alloc..boxed..Box$LT$syn..expr..Expr$GT$$GT$17h35b8f1409a9ab85bE', symObjAddr: 0x59C0, symBinAddr: 0x74060, symSize: 0x50 }
  - { offsetInCU: 0x1788F, offset: 0x2A1067, size: 0x8, addend: 0x0, symName: '__ZN4core3ptr61drop_in_place$LT$syn..path..ParenthesizedGenericArguments$GT$17h6d1a096952b83c04E', symObjAddr: 0x5A10, symBinAddr: 0x740B0, symSize: 0x170 }
  - { offsetInCU: 0x17E69, offset: 0x2A1641, size: 0x8, addend: 0x0, symName: '__ZN4core3ptr63drop_in_place$LT$alloc..boxed..Box$LT$syn..lit..LitRepr$GT$$GT$17h4a54b8c5cd42faf5E', symObjAddr: 0x5B80, symBinAddr: 0x74220, symSize: 0x60 }
  - { offsetInCU: 0x1815E, offset: 0x2A1936, size: 0x8, addend: 0x0, symName: '__ZN4core3ptr64drop_in_place$LT$alloc..boxed..Box$LT$syn..pat..FieldPat$GT$$GT$17hf3d389ef82c9f10bE', symObjAddr: 0x5BE0, symBinAddr: 0x74280, symSize: 0x140 }
  - { offsetInCU: 0x1883D, offset: 0x2A2015, size: 0x8, addend: 0x0, symName: '__ZN4core3ptr64drop_in_place$LT$alloc..boxed..Box$LT$syn..ty..BareFnArg$GT$$GT$17hc862ec57eebf1a54E', symObjAddr: 0x5D20, symBinAddr: 0x743C0, symSize: 0x140 }
  - { offsetInCU: 0x18D95, offset: 0x2A256D, size: 0x8, addend: 0x0, symName: '__ZN4core3ptr64drop_in_place$LT$borsh_derive..internals..serialize..FieldId$GT$17h7ac09606a37b829eE', symObjAddr: 0x5E60, symBinAddr: 0x74500, symSize: 0x30 }
  - { offsetInCU: 0x18E4B, offset: 0x2A2623, size: 0x8, addend: 0x0, symName: '__ZN4core3ptr65drop_in_place$LT$core..option..Option$LT$syn..expr..Label$GT$$GT$17hfc626d17a1d0054dE', symObjAddr: 0x5E90, symBinAddr: 0x74530, symSize: 0x30 }
  - { offsetInCU: 0x18F86, offset: 0x2A275E, size: 0x8, addend: 0x0, symName: '__ZN4core3ptr66drop_in_place$LT$core..option..Option$LT$syn..pat..PatRest$GT$$GT$17hba8f4d9198c0dabcE', symObjAddr: 0x5EC0, symBinAddr: 0x74560, symSize: 0xE0 }
  - { offsetInCU: 0x1923E, offset: 0x2A2A16, size: 0x8, addend: 0x0, symName: '__ZN4core3ptr67drop_in_place$LT$alloc..boxed..Box$LT$syn..expr..FieldValue$GT$$GT$17h1fe00f656b5bc41eE', symObjAddr: 0x5FA0, symBinAddr: 0x74640, symSize: 0x140 }
  - { offsetInCU: 0x1988D, offset: 0x2A3065, size: 0x8, addend: 0x0, symName: '__ZN4core3ptr68drop_in_place$LT$borsh_derive..internals..generics..FindTyParams$GT$17h9dff03c3f81b2b80E', symObjAddr: 0x60E0, symBinAddr: 0x74780, symSize: 0xA0 }
  - { offsetInCU: 0x19C71, offset: 0x2A3449, size: 0x8, addend: 0x0, symName: '__ZN4core3ptr68drop_in_place$LT$core..option..Option$LT$syn..expr..ExprPath$GT$$GT$17h195f3880952da452E', symObjAddr: 0x6180, symBinAddr: 0x74820, symSize: 0x150 }
  - { offsetInCU: 0x1A1BD, offset: 0x2A3995, size: 0x8, addend: 0x0, symName: '__ZN4core3ptr70drop_in_place$LT$core..option..Option$LT$syn..ty..BareVariadic$GT$$GT$17hf6aaee8d5112d370E', symObjAddr: 0x62D0, symBinAddr: 0x74970, symSize: 0x120 }
  - { offsetInCU: 0x1A6FF, offset: 0x2A3ED7, size: 0x8, addend: 0x0, symName: '__ZN4core3ptr71drop_in_place$LT$borsh_derive..internals..serialize..GenericsOutput$GT$17h38b6167b2a05cde6E', symObjAddr: 0x63F0, symBinAddr: 0x74A90, symSize: 0xE0 }
  - { offsetInCU: 0x1A9BA, offset: 0x2A4192, size: 0x8, addend: 0x0, symName: '__ZN4core3ptr72drop_in_place$LT$alloc..boxed..Box$LT$syn..path..GenericArgument$GT$$GT$17hc3f5a13c594d53a1E', symObjAddr: 0x64D0, symBinAddr: 0x74B70, symSize: 0x2B0 }
  - { offsetInCU: 0x1B3A5, offset: 0x2A4B7D, size: 0x8, addend: 0x0, symName: '__ZN4core3ptr72drop_in_place$LT$core..option..Option$LT$syn..lifetime..Lifetime$GT$$GT$17hf02c2376eaf0703fE', symObjAddr: 0x6780, symBinAddr: 0x74E20, symSize: 0x30 }
  - { offsetInCU: 0x1B4C1, offset: 0x2A4C99, size: 0x8, addend: 0x0, symName: '__ZN4core3ptr73drop_in_place$LT$alloc..boxed..Box$LT$syn..generics..GenericParam$GT$$GT$17hbb1f35d2f323630eE', symObjAddr: 0x67B0, symBinAddr: 0x74E50, symSize: 0x80 }
  - { offsetInCU: 0x1B639, offset: 0x2A4E11, size: 0x8, addend: 0x0, symName: '__ZN4core3ptr75drop_in_place$LT$alloc..boxed..Box$LT$syn..generics..TypeParamBound$GT$$GT$17h06d020fd356eb6c8E', symObjAddr: 0x6830, symBinAddr: 0x74ED0, symSize: 0x190 }
  - { offsetInCU: 0x1BCD5, offset: 0x2A54AD, size: 0x8, addend: 0x0, symName: '__ZN4core3ptr75drop_in_place$LT$borsh_derive..internals..serialize..enums..VariantBody$GT$17hfb849ec64e76fbc1E', symObjAddr: 0x69C0, symBinAddr: 0x75060, symSize: 0x50 }
  - { offsetInCU: 0x1BD3B, offset: 0x2A5513, size: 0x8, addend: 0x0, symName: '__ZN4core3ptr75drop_in_place$LT$core..option..Option$LT$syn..generics..WhereClause$GT$$GT$17h8a92b83e49c22b8cE', symObjAddr: 0x6A10, symBinAddr: 0x750B0, symSize: 0x90 }
  - { offsetInCU: 0x1BF94, offset: 0x2A576C, size: 0x8, addend: 0x0, symName: '__ZN4core3ptr77drop_in_place$LT$borsh_derive..internals..serialize..enums..VariantFields$GT$17hf6902d1622d83fdaE', symObjAddr: 0x6AA0, symBinAddr: 0x75140, symSize: 0x40 }
  - { offsetInCU: 0x1C00E, offset: 0x2A57E6, size: 0x8, addend: 0x0, symName: '__ZN4core3ptr86drop_in_place$LT$syn..punctuated..Punctuated$LT$syn..pat..Pat$C$syn..token..Or$GT$$GT$17h1c252cd869cc7fe5E', symObjAddr: 0x6AE0, symBinAddr: 0x75180, symSize: 0x120 }
  - { offsetInCU: 0x1C454, offset: 0x2A5C2C, size: 0x8, addend: 0x0, symName: '__ZN4core3ptr87drop_in_place$LT$core..option..Option$LT$alloc..boxed..Box$LT$syn..pat..Pat$GT$$GT$$GT$17h72bab185bf1bb06eE', symObjAddr: 0x6C00, symBinAddr: 0x752A0, symSize: 0x50 }
  - { offsetInCU: 0x1C5C6, offset: 0x2A5D9E, size: 0x8, addend: 0x0, symName: '__ZN4core3ptr87drop_in_place$LT$core..option..Option$LT$alloc..boxed..Box$LT$syn..ty..Type$GT$$GT$$GT$17hc260fbb8309ec29fE', symObjAddr: 0x6C50, symBinAddr: 0x752F0, symSize: 0x50 }
  - { offsetInCU: 0x1C738, offset: 0x2A5F10, size: 0x8, addend: 0x0, symName: '__ZN4core3ptr89drop_in_place$LT$core..option..Option$LT$alloc..boxed..Box$LT$syn..expr..Expr$GT$$GT$$GT$17h189e15babfcbbcfaE', symObjAddr: 0x6CA0, symBinAddr: 0x75340, symSize: 0x50 }
  - { offsetInCU: 0x1C8E8, offset: 0x2A60C0, size: 0x8, addend: 0x0, symName: '__ZN4core3ptr89drop_in_place$LT$syn..punctuated..Punctuated$LT$syn..pat..Pat$C$syn..token..Comma$GT$$GT$17ha82f9ca12786bd54E', symObjAddr: 0x6CF0, symBinAddr: 0x75390, symSize: 0x120 }
  - { offsetInCU: 0x1CD83, offset: 0x2A655B, size: 0x8, addend: 0x0, symName: '__ZN4core3ptr91drop_in_place$LT$syn..punctuated..Punctuated$LT$syn..expr..Expr$C$syn..token..Comma$GT$$GT$17h5d174cfb4564e731E', symObjAddr: 0x6E10, symBinAddr: 0x754B0, symSize: 0x120 }
  - { offsetInCU: 0x1D1E0, offset: 0x2A69B8, size: 0x8, addend: 0x0, symName: '__ZN4core3ptr94drop_in_place$LT$syn..punctuated..Punctuated$LT$syn..pat..FieldPat$C$syn..token..Comma$GT$$GT$17h57ec84468c025663E', symObjAddr: 0x6F30, symBinAddr: 0x755D0, symSize: 0xF0 }
  - { offsetInCU: 0x1D4AA, offset: 0x2A6C82, size: 0x8, addend: 0x0, symName: '__ZN4core3ptr94drop_in_place$LT$syn..punctuated..Punctuated$LT$syn..ty..BareFnArg$C$syn..token..Comma$GT$$GT$17h93a6df93f58cf1c2E', symObjAddr: 0x7020, symBinAddr: 0x756C0, symSize: 0xF0 }
  - { offsetInCU: 0x1D774, offset: 0x2A6F4C, size: 0x8, addend: 0x0, symName: '__ZN4core3ptr96drop_in_place$LT$core..option..Option$LT$alloc..boxed..Box$LT$syn..path..PathSegment$GT$$GT$$GT$17hfffb4eb6744ee164E', symObjAddr: 0x7110, symBinAddr: 0x757B0, symSize: 0x180 }
  - { offsetInCU: 0x1DE05, offset: 0x2A75DD, size: 0x8, addend: 0x0, symName: '__ZN4core3ptr97drop_in_place$LT$syn..punctuated..Punctuated$LT$syn..expr..FieldValue$C$syn..token..Comma$GT$$GT$17hd35fb722be03e3d1E', symObjAddr: 0x7290, symBinAddr: 0x75930, symSize: 0xF0 }
  - { offsetInCU: 0x1E14B, offset: 0x2A7923, size: 0x8, addend: 0x0, symName: '__ZN4core3ptr98drop_in_place$LT$syn..punctuated..Punctuated$LT$syn..lifetime..Lifetime$C$syn..token..Plus$GT$$GT$17h0f92166c8c801efbE', symObjAddr: 0x7380, symBinAddr: 0x75A20, symSize: 0xC0 }
  - { offsetInCU: 0x28892, offset: 0x2B206A, size: 0x8, addend: 0x0, symName: __ZN12borsh_derive9internals9serialize5enums7process17h6a78ffc61b455dffE, symObjAddr: 0x7440, symBinAddr: 0x75AE0, symSize: 0x2170 }
  - { offsetInCU: 0x2AB9D, offset: 0x2B4375, size: 0x8, addend: 0x0, symName: __ZN12borsh_derive9internals9serialize5enums13process_field17h9a0ba303fc6e517cE, symObjAddr: 0x95B0, symBinAddr: 0x77C50, symSize: 0x3F9 }
  - { offsetInCU: 0x1E, offset: 0x2B915C, size: 0x8, addend: 0x0, symName: '__ZN4core3ptr100drop_in_place$LT$core..option..Option$LT$alloc..boxed..Box$LT$syn..path..GenericArgument$GT$$GT$$GT$17h513ef87717aedfddE', symObjAddr: 0x0, symBinAddr: 0x78050, symSize: 0x50 }
  - { offsetInCU: 0x17C4, offset: 0x2BA902, size: 0x8, addend: 0x0, symName: '__ZN4core3ptr100drop_in_place$LT$core..option..Option$LT$alloc..boxed..Box$LT$syn..path..GenericArgument$GT$$GT$$GT$17h513ef87717aedfddE', symObjAddr: 0x0, symBinAddr: 0x78050, symSize: 0x50 }
  - { offsetInCU: 0x1B64, offset: 0x2BACA2, size: 0x8, addend: 0x0, symName: '__ZN4core3ptr100drop_in_place$LT$syn..punctuated..Punctuated$LT$syn..path..PathSegment$C$syn..token..PathSep$GT$$GT$17hd0d4e322634cba5dE', symObjAddr: 0x50, symBinAddr: 0x780A0, symSize: 0x280 }
  - { offsetInCU: 0x2611, offset: 0x2BB74F, size: 0x8, addend: 0x0, symName: '__ZN4core3ptr103drop_in_place$LT$core..option..Option$LT$alloc..boxed..Box$LT$syn..generics..TypeParamBound$GT$$GT$$GT$17h0d79b9ffb4171f90E', symObjAddr: 0x2D0, symBinAddr: 0x78320, symSize: 0x50 }
  - { offsetInCU: 0x281E, offset: 0x2BB95C, size: 0x8, addend: 0x0, symName: '__ZN4core3ptr103drop_in_place$LT$syn..punctuated..Punctuated$LT$syn..generics..GenericParam$C$syn..token..Comma$GT$$GT$17h1d35d7d5913e8beaE.llvm.6126073264313777022', symObjAddr: 0x320, symBinAddr: 0x78370, symSize: 0xF0 }
  - { offsetInCU: 0x2CE1, offset: 0x2BBE1F, size: 0x8, addend: 0x0, symName: '__ZN4core3ptr104drop_in_place$LT$syn..punctuated..Punctuated$LT$syn..generics..TypeParamBound$C$syn..token..Plus$GT$$GT$17h44083f960cd822d7E.llvm.6126073264313777022', symObjAddr: 0x410, symBinAddr: 0x78460, symSize: 0x190 }
  - { offsetInCU: 0x32B9, offset: 0x2BC3F7, size: 0x8, addend: 0x0, symName: '__ZN4core3ptr118drop_in_place$LT$$LP$borsh_derive..internals..attributes..field..schema..ParameterOverride$C$syn..token..Comma$RP$$GT$17h0c4dd25e73428290E.llvm.6126073264313777022', symObjAddr: 0x5A0, symBinAddr: 0x785F0, symSize: 0x40 }
  - { offsetInCU: 0x3491, offset: 0x2BC5CF, size: 0x8, addend: 0x0, symName: '__ZN4core3ptr34drop_in_place$LT$syn..lit..Lit$GT$17h3e4ef73f9d6504faE', symObjAddr: 0x5E0, symBinAddr: 0x78630, symSize: 0x110 }
  - { offsetInCU: 0x39EA, offset: 0x2BCB28, size: 0x8, addend: 0x0, symName: '__ZN4core3ptr34drop_in_place$LT$syn..pat..Pat$GT$17hf99e10cab020967aE', symObjAddr: 0x6F0, symBinAddr: 0x78740, symSize: 0x1070 }
  - { offsetInCU: 0x7B8B, offset: 0x2C0CC9, size: 0x8, addend: 0x0, symName: '__ZN4core3ptr34drop_in_place$LT$syn..ty..Type$GT$17hc9a287e6412cf4a5E.llvm.6126073264313777022', symObjAddr: 0x1760, symBinAddr: 0x797B0, symSize: 0x510 }
  - { offsetInCU: 0x91EA, offset: 0x2C2328, size: 0x8, addend: 0x0, symName: '__ZN4core3ptr36drop_in_place$LT$syn..expr..Expr$GT$17hbea3b059aebc6b0dE.llvm.6126073264313777022', symObjAddr: 0x1C70, symBinAddr: 0x79CC0, symSize: 0x2920 }
  - { offsetInCU: 0x13028, offset: 0x2CC166, size: 0x8, addend: 0x0, symName: '__ZN4core3ptr36drop_in_place$LT$syn..mac..Macro$GT$17haa1481cb4fe5d660E', symObjAddr: 0x4590, symBinAddr: 0x7C5E0, symSize: 0x40 }
  - { offsetInCU: 0x13062, offset: 0x2CC1A0, size: 0x8, addend: 0x0, symName: '__ZN4core3ptr36drop_in_place$LT$syn..path..Path$GT$17hb26ddc646911d9caE', symObjAddr: 0x45D0, symBinAddr: 0x7C620, symSize: 0x240 }
  - { offsetInCU: 0x13AAB, offset: 0x2CCBE9, size: 0x8, addend: 0x0, symName: '__ZN4core3ptr37drop_in_place$LT$syn..stmt..Block$GT$17h9bb04bc412e892c1E', symObjAddr: 0x4810, symBinAddr: 0x7C860, symSize: 0xD0 }
  - { offsetInCU: 0x13D4F, offset: 0x2CCE8D, size: 0x8, addend: 0x0, symName: '__ZN4core3ptr38drop_in_place$LT$syn..expr..Member$GT$17h54f73fbfaef06080E', symObjAddr: 0x48E0, symBinAddr: 0x7C930, symSize: 0x30 }
  - { offsetInCU: 0x13E4C, offset: 0x2CCF8A, size: 0x8, addend: 0x0, symName: '__ZN4core3ptr39drop_in_place$LT$proc_macro2..Ident$GT$17h9d68045e9dec4a40E.llvm.6126073264313777022', symObjAddr: 0x4910, symBinAddr: 0x7C960, symSize: 0x30 }
  - { offsetInCU: 0x13F2A, offset: 0x2CD068, size: 0x8, addend: 0x0, symName: '__ZN4core3ptr40drop_in_place$LT$syn..ty..ReturnType$GT$17h4a68005bbc507217E', symObjAddr: 0x4940, symBinAddr: 0x7C990, symSize: 0x50 }
  - { offsetInCU: 0x1409C, offset: 0x2CD1DA, size: 0x8, addend: 0x0, symName: '__ZN4core3ptr41drop_in_place$LT$syn..expr..ExprConst$GT$17h454a2cb9df850c24E', symObjAddr: 0x4990, symBinAddr: 0x7C9E0, symSize: 0x180 }
  - { offsetInCU: 0x1475B, offset: 0x2CD899, size: 0x8, addend: 0x0, symName: '__ZN4core3ptr43drop_in_place$LT$proc_macro2..TokenTree$GT$17h73e0e97ae44b5507E.llvm.6126073264313777022', symObjAddr: 0x4B10, symBinAddr: 0x7CB60, symSize: 0xB0 }
  - { offsetInCU: 0x14A6F, offset: 0x2CDBAD, size: 0x8, addend: 0x0, symName: '__ZN4core3ptr44drop_in_place$LT$syn..lifetime..Lifetime$GT$17h9c301554489a697eE.llvm.6126073264313777022', symObjAddr: 0x4BC0, symBinAddr: 0x7CC10, symSize: 0x30 }
  - { offsetInCU: 0x14C07, offset: 0x2CDD45, size: 0x8, addend: 0x0, symName: '__ZN4core3ptr45drop_in_place$LT$proc_macro2..TokenStream$GT$17h86cac592f04212eaE', symObjAddr: 0x4BF0, symBinAddr: 0x7CC40, symSize: 0x140 }
  - { offsetInCU: 0x15076, offset: 0x2CE1B4, size: 0x8, addend: 0x0, symName: '__ZN4core3ptr45drop_in_place$LT$syn..generics..TypeParam$GT$17he645f7cc80b7ae11E.llvm.6126073264313777022', symObjAddr: 0x4D30, symBinAddr: 0x7CD80, symSize: 0x230 }
  - { offsetInCU: 0x158A6, offset: 0x2CE9E4, size: 0x8, addend: 0x0, symName: '__ZN4core3ptr46drop_in_place$LT$syn..generics..ConstParam$GT$17hc19d519d6441178aE.llvm.6126073264313777022', symObjAddr: 0x4F60, symBinAddr: 0x7CFB0, symSize: 0x150 }
  - { offsetInCU: 0x15D04, offset: 0x2CEE42, size: 0x8, addend: 0x0, symName: '__ZN4core3ptr47drop_in_place$LT$syn..path..GenericArgument$GT$17ha7ad17cb38a1a5afE', symObjAddr: 0x50B0, symBinAddr: 0x7D100, symSize: 0x4A0 }
  - { offsetInCU: 0x16DAB, offset: 0x2CFEE9, size: 0x8, addend: 0x0, symName: '__ZN4core3ptr48drop_in_place$LT$syn..generics..GenericParam$GT$17hd8a41165cb4f9754E.llvm.6126073264313777022', symObjAddr: 0x5550, symBinAddr: 0x7D5A0, symSize: 0x40 }
  - { offsetInCU: 0x16DC8, offset: 0x2CFF06, size: 0x8, addend: 0x0, symName: '__ZN4core3ptr49drop_in_place$LT$syn..generics..LifetimeParam$GT$17h47d9f9e81b35a3dcE.llvm.6126073264313777022', symObjAddr: 0x5590, symBinAddr: 0x7D5E0, symSize: 0xF0 }
  - { offsetInCU: 0x171B6, offset: 0x2D02F4, size: 0x8, addend: 0x0, symName: '__ZN4core3ptr50drop_in_place$LT$syn..generics..TypeParamBound$GT$17h7c1195cdfd37b73cE', symObjAddr: 0x5680, symBinAddr: 0x7D6D0, symSize: 0x1A0 }
  - { offsetInCU: 0x17728, offset: 0x2D0866, size: 0x8, addend: 0x0, symName: '__ZN4core3ptr50drop_in_place$LT$syn..generics..WherePredicate$GT$17hc8ef92d22a75f583E.llvm.6126073264313777022', symObjAddr: 0x5820, symBinAddr: 0x7D870, symSize: 0xA0 }
  - { offsetInCU: 0x178C9, offset: 0x2D0A07, size: 0x8, addend: 0x0, symName: '__ZN4core3ptr58drop_in_place$LT$alloc..vec..Vec$LT$syn..expr..Arm$GT$$GT$17ha648d1896dec8b4dE', symObjAddr: 0x58C0, symBinAddr: 0x7D910, symSize: 0xD0 }
  - { offsetInCU: 0x17B56, offset: 0x2D0C94, size: 0x8, addend: 0x0, symName: '__ZN4core3ptr59drop_in_place$LT$alloc..boxed..Box$LT$syn..pat..Pat$GT$$GT$17hfa860577679c86cbE', symObjAddr: 0x5990, symBinAddr: 0x7D9E0, symSize: 0x50 }
  - { offsetInCU: 0x17CB1, offset: 0x2D0DEF, size: 0x8, addend: 0x0, symName: '__ZN4core3ptr59drop_in_place$LT$alloc..boxed..Box$LT$syn..ty..Type$GT$$GT$17hce35c4b60063cd1fE', symObjAddr: 0x59E0, symBinAddr: 0x7DA30, symSize: 0x50 }
  - { offsetInCU: 0x17E0C, offset: 0x2D0F4A, size: 0x8, addend: 0x0, symName: '__ZN4core3ptr61drop_in_place$LT$alloc..boxed..Box$LT$syn..expr..Expr$GT$$GT$17h35b8f1409a9ab85bE', symObjAddr: 0x5A30, symBinAddr: 0x7DA80, symSize: 0x50 }
  - { offsetInCU: 0x17FE3, offset: 0x2D1121, size: 0x8, addend: 0x0, symName: '__ZN4core3ptr61drop_in_place$LT$syn..path..ParenthesizedGenericArguments$GT$17h6d1a096952b83c04E', symObjAddr: 0x5A80, symBinAddr: 0x7DAD0, symSize: 0x170 }
  - { offsetInCU: 0x185AA, offset: 0x2D16E8, size: 0x8, addend: 0x0, symName: '__ZN4core3ptr62drop_in_place$LT$syn..path..AngleBracketedGenericArguments$GT$17h1e2e2310287487b5E', symObjAddr: 0x5BF0, symBinAddr: 0x7DC40, symSize: 0x120 }
  - { offsetInCU: 0x189C0, offset: 0x2D1AFE, size: 0x8, addend: 0x0, symName: '__ZN4core3ptr63drop_in_place$LT$alloc..boxed..Box$LT$syn..lit..LitRepr$GT$$GT$17h4a54b8c5cd42faf5E', symObjAddr: 0x5D10, symBinAddr: 0x7DD60, symSize: 0x60 }
  - { offsetInCU: 0x18CB5, offset: 0x2D1DF3, size: 0x8, addend: 0x0, symName: '__ZN4core3ptr64drop_in_place$LT$alloc..boxed..Box$LT$syn..pat..FieldPat$GT$$GT$17hf3d389ef82c9f10bE', symObjAddr: 0x5D70, symBinAddr: 0x7DDC0, symSize: 0x140 }
  - { offsetInCU: 0x19394, offset: 0x2D24D2, size: 0x8, addend: 0x0, symName: '__ZN4core3ptr64drop_in_place$LT$alloc..boxed..Box$LT$syn..ty..BareFnArg$GT$$GT$17hc862ec57eebf1a54E', symObjAddr: 0x5EB0, symBinAddr: 0x7DF00, symSize: 0x140 }
  - { offsetInCU: 0x198EC, offset: 0x2D2A2A, size: 0x8, addend: 0x0, symName: '__ZN4core3ptr65drop_in_place$LT$core..option..Option$LT$syn..expr..Label$GT$$GT$17hfc626d17a1d0054dE', symObjAddr: 0x5FF0, symBinAddr: 0x7E040, symSize: 0x30 }
  - { offsetInCU: 0x19A27, offset: 0x2D2B65, size: 0x8, addend: 0x0, symName: '__ZN4core3ptr66drop_in_place$LT$core..option..Option$LT$syn..pat..PatRest$GT$$GT$17hba8f4d9198c0dabcE', symObjAddr: 0x6020, symBinAddr: 0x7E070, symSize: 0xE0 }
  - { offsetInCU: 0x19CDF, offset: 0x2D2E1D, size: 0x8, addend: 0x0, symName: '__ZN4core3ptr67drop_in_place$LT$alloc..boxed..Box$LT$syn..expr..FieldValue$GT$$GT$17h1fe00f656b5bc41eE', symObjAddr: 0x6100, symBinAddr: 0x7E150, symSize: 0x140 }
  - { offsetInCU: 0x1A217, offset: 0x2D3355, size: 0x8, addend: 0x0, symName: '__ZN4core3ptr68drop_in_place$LT$alloc..boxed..Box$LT$syn..path..PathSegment$GT$$GT$17hdf3e53c9442c6d12E', symObjAddr: 0x6240, symBinAddr: 0x7E290, symSize: 0x190 }
  - { offsetInCU: 0x1A8F5, offset: 0x2D3A33, size: 0x8, addend: 0x0, symName: '__ZN4core3ptr70drop_in_place$LT$core..option..Option$LT$syn..ty..BareVariadic$GT$$GT$17hf6aaee8d5112d370E', symObjAddr: 0x63D0, symBinAddr: 0x7E420, symSize: 0x120 }
  - { offsetInCU: 0x1AE56, offset: 0x2D3F94, size: 0x8, addend: 0x0, symName: '__ZN4core3ptr72drop_in_place$LT$alloc..boxed..Box$LT$syn..path..GenericArgument$GT$$GT$17hc3f5a13c594d53a1E', symObjAddr: 0x64F0, symBinAddr: 0x7E540, symSize: 0x1D0 }
  - { offsetInCU: 0x1B3F9, offset: 0x2D4537, size: 0x8, addend: 0x0, symName: '__ZN4core3ptr72drop_in_place$LT$core..option..Option$LT$syn..lifetime..Lifetime$GT$$GT$17hf02c2376eaf0703fE', symObjAddr: 0x66C0, symBinAddr: 0x7E710, symSize: 0x30 }
  - { offsetInCU: 0x1B515, offset: 0x2D4653, size: 0x8, addend: 0x0, symName: '__ZN4core3ptr73drop_in_place$LT$alloc..boxed..Box$LT$syn..generics..GenericParam$GT$$GT$17hbb1f35d2f323630eE.llvm.6126073264313777022', symObjAddr: 0x66F0, symBinAddr: 0x7E740, symSize: 0x80 }
  - { offsetInCU: 0x1B68D, offset: 0x2D47CB, size: 0x8, addend: 0x0, symName: '__ZN4core3ptr75drop_in_place$LT$alloc..boxed..Box$LT$syn..generics..TypeParamBound$GT$$GT$17h06d020fd356eb6c8E', symObjAddr: 0x6770, symBinAddr: 0x7E7C0, symSize: 0xB0 }
  - { offsetInCU: 0x1B98B, offset: 0x2D4AC9, size: 0x8, addend: 0x0, symName: '__ZN4core3ptr76drop_in_place$LT$$LP$syn..generics..GenericParam$C$syn..token..Comma$RP$$GT$17h1eb717d80fed93fdE.llvm.6126073264313777022', symObjAddr: 0x6820, symBinAddr: 0x7E870, symSize: 0x40 }
  - { offsetInCU: 0x1BA24, offset: 0x2D4B62, size: 0x8, addend: 0x0, symName: '__ZN4core3ptr86drop_in_place$LT$syn..punctuated..Punctuated$LT$syn..pat..Pat$C$syn..token..Or$GT$$GT$17h1c252cd869cc7fe5E', symObjAddr: 0x6860, symBinAddr: 0x7E8B0, symSize: 0x120 }
  - { offsetInCU: 0x1BE6A, offset: 0x2D4FA8, size: 0x8, addend: 0x0, symName: '__ZN4core3ptr87drop_in_place$LT$core..option..Option$LT$alloc..boxed..Box$LT$syn..pat..Pat$GT$$GT$$GT$17h72bab185bf1bb06eE', symObjAddr: 0x6980, symBinAddr: 0x7E9D0, symSize: 0x50 }
  - { offsetInCU: 0x1BFDC, offset: 0x2D511A, size: 0x8, addend: 0x0, symName: '__ZN4core3ptr87drop_in_place$LT$core..option..Option$LT$alloc..boxed..Box$LT$syn..ty..Type$GT$$GT$$GT$17hc260fbb8309ec29fE', symObjAddr: 0x69D0, symBinAddr: 0x7EA20, symSize: 0x50 }
  - { offsetInCU: 0x1C14E, offset: 0x2D528C, size: 0x8, addend: 0x0, symName: '__ZN4core3ptr89drop_in_place$LT$core..option..Option$LT$alloc..boxed..Box$LT$syn..expr..Expr$GT$$GT$$GT$17h189e15babfcbbcfaE', symObjAddr: 0x6A20, symBinAddr: 0x7EA70, symSize: 0x50 }
  - { offsetInCU: 0x1C2FE, offset: 0x2D543C, size: 0x8, addend: 0x0, symName: '__ZN4core3ptr89drop_in_place$LT$syn..punctuated..Punctuated$LT$syn..pat..Pat$C$syn..token..Comma$GT$$GT$17ha82f9ca12786bd54E', symObjAddr: 0x6A70, symBinAddr: 0x7EAC0, symSize: 0x120 }
  - { offsetInCU: 0x1C75B, offset: 0x2D5899, size: 0x8, addend: 0x0, symName: '__ZN4core3ptr89drop_in_place$LT$syn..punctuated..Punctuated$LT$syn..ty..Type$C$syn..token..Comma$GT$$GT$17h6c76e390e4497862E', symObjAddr: 0x6B90, symBinAddr: 0x7EBE0, symSize: 0x120 }
  - { offsetInCU: 0x1CBA5, offset: 0x2D5CE3, size: 0x8, addend: 0x0, symName: '__ZN4core3ptr90drop_in_place$LT$borsh_derive..internals..attributes..field..schema..ParameterOverride$GT$17h1087b9b39275cf5aE.llvm.6126073264313777022', symObjAddr: 0x6CB0, symBinAddr: 0x7ED00, symSize: 0x40 }
  - { offsetInCU: 0x1CCA4, offset: 0x2D5DE2, size: 0x8, addend: 0x0, symName: '__ZN4core3ptr90drop_in_place$LT$core..option..Option$LT$syn..path..AngleBracketedGenericArguments$GT$$GT$17h488f4ff126d02fb4E', symObjAddr: 0x6CF0, symBinAddr: 0x7ED40, symSize: 0x130 }
  - { offsetInCU: 0x1D10F, offset: 0x2D624D, size: 0x8, addend: 0x0, symName: '__ZN4core3ptr91drop_in_place$LT$syn..punctuated..Punctuated$LT$syn..expr..Expr$C$syn..token..Comma$GT$$GT$17h5d174cfb4564e731E', symObjAddr: 0x6E20, symBinAddr: 0x7EE70, symSize: 0x120 }
  - { offsetInCU: 0x1D56C, offset: 0x2D66AA, size: 0x8, addend: 0x0, symName: '__ZN4core3ptr94drop_in_place$LT$syn..punctuated..Punctuated$LT$syn..pat..FieldPat$C$syn..token..Comma$GT$$GT$17h57ec84468c025663E', symObjAddr: 0x6F40, symBinAddr: 0x7EF90, symSize: 0xF0 }
  - { offsetInCU: 0x1D836, offset: 0x2D6974, size: 0x8, addend: 0x0, symName: '__ZN4core3ptr94drop_in_place$LT$syn..punctuated..Punctuated$LT$syn..ty..BareFnArg$C$syn..token..Comma$GT$$GT$17h93a6df93f58cf1c2E', symObjAddr: 0x7030, symBinAddr: 0x7F080, symSize: 0xF0 }
  - { offsetInCU: 0x1DB00, offset: 0x2D6C3E, size: 0x8, addend: 0x0, symName: '__ZN4core3ptr96drop_in_place$LT$core..option..Option$LT$alloc..boxed..Box$LT$syn..path..PathSegment$GT$$GT$$GT$17hfffb4eb6744ee164E', symObjAddr: 0x7120, symBinAddr: 0x7F170, symSize: 0x90 }
  - { offsetInCU: 0x1DDA1, offset: 0x2D6EDF, size: 0x8, addend: 0x0, symName: '__ZN4core3ptr97drop_in_place$LT$syn..punctuated..Punctuated$LT$syn..expr..FieldValue$C$syn..token..Comma$GT$$GT$17hd35fb722be03e3d1E', symObjAddr: 0x7200, symBinAddr: 0x7F200, symSize: 0xF0 }
  - { offsetInCU: 0x1E06B, offset: 0x2D71A9, size: 0x8, addend: 0x0, symName: '__ZN4core3ptr98drop_in_place$LT$alloc..vec..Vec$LT$$LP$syn..path..GenericArgument$C$syn..token..Comma$RP$$GT$$GT$17h4fdb1af8625fb77aE', symObjAddr: 0x72F0, symBinAddr: 0x7F2F0, symSize: 0xD0 }
  - { offsetInCU: 0x1E355, offset: 0x2D7493, size: 0x8, addend: 0x0, symName: '__ZN4core3ptr98drop_in_place$LT$syn..punctuated..Punctuated$LT$syn..lifetime..Lifetime$C$syn..token..Plus$GT$$GT$17h0f92166c8c801efbE.llvm.6126073264313777022', symObjAddr: 0x73C0, symBinAddr: 0x7F3C0, symSize: 0xC0 }
  - { offsetInCU: 0x265D8, offset: 0x2DF716, size: 0x8, addend: 0x0, symName: '__ZN86_$LT$alloc..vec..into_iter..IntoIter$LT$T$C$A$GT$$u20$as$u20$core..ops..drop..Drop$GT$4drop17h15ec558e7c497963E', symObjAddr: 0x7480, symBinAddr: 0x7F480, symSize: 0x120 }
  - { offsetInCU: 0x269BD, offset: 0x2DFAFB, size: 0x8, addend: 0x0, symName: '__ZN86_$LT$alloc..vec..into_iter..IntoIter$LT$T$C$A$GT$$u20$as$u20$core..ops..drop..Drop$GT$4drop17h24923f4feeb9c2e8E', symObjAddr: 0x75A0, symBinAddr: 0x7F5A0, symSize: 0xA0 }
  - { offsetInCU: 0x26C7A, offset: 0x2DFDB8, size: 0x8, addend: 0x0, symName: '__ZN86_$LT$alloc..vec..into_iter..IntoIter$LT$T$C$A$GT$$u20$as$u20$core..ops..drop..Drop$GT$4drop17h36e6efb6266803b6E', symObjAddr: 0x7640, symBinAddr: 0x7F640, symSize: 0x120 }
  - { offsetInCU: 0x26F5E, offset: 0x2E009C, size: 0x8, addend: 0x0, symName: '__ZN86_$LT$alloc..vec..into_iter..IntoIter$LT$T$C$A$GT$$u20$as$u20$core..ops..drop..Drop$GT$4drop17h480b266ddb47f8b6E', symObjAddr: 0x7760, symBinAddr: 0x7F760, symSize: 0xF0 }
  - { offsetInCU: 0x2722F, offset: 0x2E036D, size: 0x8, addend: 0x0, symName: '__ZN86_$LT$alloc..vec..into_iter..IntoIter$LT$T$C$A$GT$$u20$as$u20$core..ops..drop..Drop$GT$4drop17h5b7f706b9ef0e6fcE', symObjAddr: 0x7850, symBinAddr: 0x7F850, symSize: 0xF0 }
  - { offsetInCU: 0x27500, offset: 0x2E063E, size: 0x8, addend: 0x0, symName: '__ZN86_$LT$alloc..vec..into_iter..IntoIter$LT$T$C$A$GT$$u20$as$u20$core..ops..drop..Drop$GT$4drop17h74a2c09cc83814aaE', symObjAddr: 0x7940, symBinAddr: 0x7F940, symSize: 0xF0 }
  - { offsetInCU: 0x27872, offset: 0x2E09B0, size: 0x8, addend: 0x0, symName: '__ZN86_$LT$alloc..vec..into_iter..IntoIter$LT$T$C$A$GT$$u20$as$u20$core..ops..drop..Drop$GT$4drop17hafd24fbe107ff9c6E', symObjAddr: 0x7A30, symBinAddr: 0x7FA30, symSize: 0xF0 }
  - { offsetInCU: 0x27B77, offset: 0x2E0CB5, size: 0x8, addend: 0x0, symName: '__ZN86_$LT$alloc..vec..into_iter..IntoIter$LT$T$C$A$GT$$u20$as$u20$core..ops..drop..Drop$GT$4drop17hb1c74aa7e3494075E', symObjAddr: 0x7B20, symBinAddr: 0x7FB20, symSize: 0xD0 }
  - { offsetInCU: 0x27E47, offset: 0x2E0F85, size: 0x8, addend: 0x0, symName: '__ZN86_$LT$alloc..vec..into_iter..IntoIter$LT$T$C$A$GT$$u20$as$u20$core..ops..drop..Drop$GT$4drop17hbe92a34efc4f1496E', symObjAddr: 0x7BF0, symBinAddr: 0x7FBF0, symSize: 0x120 }
  - { offsetInCU: 0x28142, offset: 0x2E1280, size: 0x8, addend: 0x0, symName: '__ZN86_$LT$alloc..vec..into_iter..IntoIter$LT$T$C$A$GT$$u20$as$u20$core..ops..drop..Drop$GT$4drop17hed74c423a676a921E', symObjAddr: 0x7D10, symBinAddr: 0x7FD10, symSize: 0xF0 }
  - { offsetInCU: 0x1E, offset: 0x2E6C33, size: 0x8, addend: 0x0, symName: __ZN3syn5parse6Parser5parse17h84d328ecbb3a7a1cE, symObjAddr: 0x0, symBinAddr: 0x7FE00, symSize: 0x540 }
  - { offsetInCU: 0x19DD, offset: 0x2E85F2, size: 0x8, addend: 0x0, symName: '__ZN4core3ptr100drop_in_place$LT$core..option..Option$LT$alloc..boxed..Box$LT$syn..path..GenericArgument$GT$$GT$$GT$17h513ef87717aedfddE', symObjAddr: 0x31A0, symBinAddr: 0x82FA0, symSize: 0x50 }
  - { offsetInCU: 0x1BAC, offset: 0x2E87C1, size: 0x8, addend: 0x0, symName: '__ZN4core3ptr102drop_in_place$LT$syn..punctuated..Punctuated$LT$syn..path..GenericArgument$C$syn..token..Comma$GT$$GT$17ha5e403e03e446464E', symObjAddr: 0x31F0, symBinAddr: 0x82FF0, symSize: 0xF0 }
  - { offsetInCU: 0x1E95, offset: 0x2E8AAA, size: 0x8, addend: 0x0, symName: '__ZN4core3ptr103drop_in_place$LT$core..option..Option$LT$alloc..boxed..Box$LT$syn..generics..TypeParamBound$GT$$GT$$GT$17h0d79b9ffb4171f90E', symObjAddr: 0x32E0, symBinAddr: 0x830E0, symSize: 0x50 }
  - { offsetInCU: 0x20A2, offset: 0x2E8CB7, size: 0x8, addend: 0x0, symName: '__ZN4core3ptr103drop_in_place$LT$syn..punctuated..Punctuated$LT$syn..generics..GenericParam$C$syn..token..Comma$GT$$GT$17h1d35d7d5913e8beaE', symObjAddr: 0x3330, symBinAddr: 0x83130, symSize: 0xF0 }
  - { offsetInCU: 0x263E, offset: 0x2E9253, size: 0x8, addend: 0x0, symName: '__ZN4core3ptr104drop_in_place$LT$syn..punctuated..Punctuated$LT$syn..generics..TypeParamBound$C$syn..token..Plus$GT$$GT$17h44083f960cd822d7E', symObjAddr: 0x3420, symBinAddr: 0x83220, symSize: 0x260 }
  - { offsetInCU: 0x3030, offset: 0x2E9C45, size: 0x8, addend: 0x0, symName: '__ZN4core3ptr34drop_in_place$LT$syn..lit..Lit$GT$17h3e4ef73f9d6504faE', symObjAddr: 0x3680, symBinAddr: 0x83480, symSize: 0x110 }
  - { offsetInCU: 0x3589, offset: 0x2EA19E, size: 0x8, addend: 0x0, symName: '__ZN4core3ptr34drop_in_place$LT$syn..pat..Pat$GT$17hf99e10cab020967aE', symObjAddr: 0x3790, symBinAddr: 0x83590, symSize: 0xF00 }
  - { offsetInCU: 0x702C, offset: 0x2EDC41, size: 0x8, addend: 0x0, symName: '__ZN4core3ptr34drop_in_place$LT$syn..ty..Type$GT$17hc9a287e6412cf4a5E', symObjAddr: 0x4690, symBinAddr: 0x84490, symSize: 0x5E0 }
  - { offsetInCU: 0x8976, offset: 0x2EF58B, size: 0x8, addend: 0x0, symName: '__ZN4core3ptr36drop_in_place$LT$syn..expr..Expr$GT$17hbea3b059aebc6b0dE', symObjAddr: 0x4C70, symBinAddr: 0x84A70, symSize: 0x2830 }
  - { offsetInCU: 0x123EB, offset: 0x2F9000, size: 0x8, addend: 0x0, symName: '__ZN4core3ptr36drop_in_place$LT$syn..mac..Macro$GT$17haa1481cb4fe5d660E', symObjAddr: 0x74A0, symBinAddr: 0x872A0, symSize: 0x110 }
  - { offsetInCU: 0x12870, offset: 0x2F9485, size: 0x8, addend: 0x0, symName: '__ZN4core3ptr36drop_in_place$LT$syn..path..Path$GT$17hb26ddc646911d9caE', symObjAddr: 0x75B0, symBinAddr: 0x873B0, symSize: 0x240 }
  - { offsetInCU: 0x132B9, offset: 0x2F9ECE, size: 0x8, addend: 0x0, symName: '__ZN4core3ptr37drop_in_place$LT$syn..stmt..Block$GT$17h9bb04bc412e892c1E', symObjAddr: 0x77F0, symBinAddr: 0x875F0, symSize: 0xD0 }
  - { offsetInCU: 0x135F8, offset: 0x2FA20D, size: 0x8, addend: 0x0, symName: '__ZN4core3ptr38drop_in_place$LT$syn..data..Fields$GT$17ha203e0075168be1bE', symObjAddr: 0x78C0, symBinAddr: 0x876C0, symSize: 0x190 }
  - { offsetInCU: 0x13AD0, offset: 0x2FA6E5, size: 0x8, addend: 0x0, symName: '__ZN4core3ptr38drop_in_place$LT$syn..derive..Data$GT$17h4c349a2560773fceE', symObjAddr: 0x7A50, symBinAddr: 0x87850, symSize: 0x1D0 }
  - { offsetInCU: 0x14110, offset: 0x2FAD25, size: 0x8, addend: 0x0, symName: '__ZN4core3ptr38drop_in_place$LT$syn..expr..Member$GT$17h54f73fbfaef06080E', symObjAddr: 0x7C20, symBinAddr: 0x87A20, symSize: 0x30 }
  - { offsetInCU: 0x1420D, offset: 0x2FAE22, size: 0x8, addend: 0x0, symName: '__ZN4core3ptr39drop_in_place$LT$proc_macro2..Ident$GT$17h9d68045e9dec4a40E', symObjAddr: 0x7C50, symBinAddr: 0x87A50, symSize: 0x30 }
  - { offsetInCU: 0x14421, offset: 0x2FB036, size: 0x8, addend: 0x0, symName: '__ZN4core3ptr39drop_in_place$LT$syn..buffer..Entry$GT$17he911fb6fde1a44d3E', symObjAddr: 0x7C80, symBinAddr: 0x87A80, symSize: 0xC0 }
  - { offsetInCU: 0x14735, offset: 0x2FB34A, size: 0x8, addend: 0x0, symName: '__ZN4core3ptr40drop_in_place$LT$syn..expr..ExprPath$GT$17h0115980c8ec091a0E', symObjAddr: 0x7D40, symBinAddr: 0x87B40, symSize: 0x110 }
  - { offsetInCU: 0x14BEF, offset: 0x2FB804, size: 0x8, addend: 0x0, symName: '__ZN4core3ptr40drop_in_place$LT$syn..item..ItemEnum$GT$17ha628009d8bc829f8E', symObjAddr: 0x7E50, symBinAddr: 0x87C50, symSize: 0x250 }
  - { offsetInCU: 0x15413, offset: 0x2FC028, size: 0x8, addend: 0x0, symName: '__ZN4core3ptr40drop_in_place$LT$syn..ty..ReturnType$GT$17h4a68005bbc507217E', symObjAddr: 0x80A0, symBinAddr: 0x87EA0, symSize: 0x50 }
  - { offsetInCU: 0x15585, offset: 0x2FC19A, size: 0x8, addend: 0x0, symName: '__ZN4core3ptr41drop_in_place$LT$syn..expr..ExprConst$GT$17h454a2cb9df850c24E', symObjAddr: 0x80F0, symBinAddr: 0x87EF0, symSize: 0x180 }
  - { offsetInCU: 0x15B0E, offset: 0x2FC723, size: 0x8, addend: 0x0, symName: '__ZN4core3ptr41drop_in_place$LT$syn..item..ItemUnion$GT$17hf601c36ec79af964E', symObjAddr: 0x8270, symBinAddr: 0x88070, symSize: 0x250 }
  - { offsetInCU: 0x16349, offset: 0x2FCF5E, size: 0x8, addend: 0x0, symName: '__ZN4core3ptr42drop_in_place$LT$syn..item..ItemStruct$GT$17hdec71518d5ea790eE', symObjAddr: 0x84C0, symBinAddr: 0x882C0, symSize: 0x1A0 }
  - { offsetInCU: 0x16895, offset: 0x2FD4AA, size: 0x8, addend: 0x0, symName: '__ZN4core3ptr43drop_in_place$LT$syn..data..FieldsNamed$GT$17h0c4b056e95bbf129E', symObjAddr: 0x8660, symBinAddr: 0x88460, symSize: 0xE0 }
  - { offsetInCU: 0x16B84, offset: 0x2FD799, size: 0x8, addend: 0x0, symName: '__ZN4core3ptr44drop_in_place$LT$syn..generics..Generics$GT$17he55a6c2a0d8d138cE', symObjAddr: 0x8740, symBinAddr: 0x88540, symSize: 0x40 }
  - { offsetInCU: 0x16BA1, offset: 0x2FD7B6, size: 0x8, addend: 0x0, symName: '__ZN4core3ptr44drop_in_place$LT$syn..lifetime..Lifetime$GT$17h9c301554489a697eE', symObjAddr: 0x8780, symBinAddr: 0x88580, symSize: 0x30 }
  - { offsetInCU: 0x16C9E, offset: 0x2FD8B3, size: 0x8, addend: 0x0, symName: '__ZN4core3ptr44drop_in_place$LT$syn..parse..ParseBuffer$GT$17h3a1d2b9c57144131E', symObjAddr: 0x87B0, symBinAddr: 0x885B0, symSize: 0x70 }
  - { offsetInCU: 0x17038, offset: 0x2FDC4D, size: 0x8, addend: 0x0, symName: '__ZN4core3ptr45drop_in_place$LT$proc_macro2..TokenStream$GT$17h86cac592f04212eaE', symObjAddr: 0x8820, symBinAddr: 0x88620, symSize: 0x140 }
  - { offsetInCU: 0x17469, offset: 0x2FE07E, size: 0x8, addend: 0x0, symName: '__ZN4core3ptr45drop_in_place$LT$syn..buffer..TokenBuffer$GT$17h05a8c26e3d154a12E', symObjAddr: 0x8960, symBinAddr: 0x88760, symSize: 0xD0 }
  - { offsetInCU: 0x17691, offset: 0x2FE2A6, size: 0x8, addend: 0x0, symName: '__ZN4core3ptr45drop_in_place$LT$syn..derive..DeriveInput$GT$17h4b845eedc8aebf3dE', symObjAddr: 0x8A30, symBinAddr: 0x88830, symSize: 0x1A0 }
  - { offsetInCU: 0x17C1B, offset: 0x2FE830, size: 0x8, addend: 0x0, symName: '__ZN4core3ptr45drop_in_place$LT$syn..generics..TypeParam$GT$17he645f7cc80b7ae11E', symObjAddr: 0x8BD0, symBinAddr: 0x889D0, symSize: 0x230 }
  - { offsetInCU: 0x1844B, offset: 0x2FF060, size: 0x8, addend: 0x0, symName: '__ZN4core3ptr46drop_in_place$LT$syn..generics..ConstParam$GT$17hc19d519d6441178aE', symObjAddr: 0x8E00, symBinAddr: 0x88C00, symSize: 0x150 }
  - { offsetInCU: 0x188A9, offset: 0x2FF4BE, size: 0x8, addend: 0x0, symName: '__ZN4core3ptr47drop_in_place$LT$syn..path..GenericArgument$GT$17ha7ad17cb38a1a5afE', symObjAddr: 0x8F50, symBinAddr: 0x88D50, symSize: 0x460 }
  - { offsetInCU: 0x195B2, offset: 0x3001C7, size: 0x8, addend: 0x0, symName: '__ZN4core3ptr49drop_in_place$LT$syn..generics..LifetimeParam$GT$17h47d9f9e81b35a3dcE', symObjAddr: 0x93B0, symBinAddr: 0x891B0, symSize: 0xF0 }
  - { offsetInCU: 0x199A0, offset: 0x3005B5, size: 0x8, addend: 0x0, symName: '__ZN4core3ptr49drop_in_place$LT$syn..restriction..Visibility$GT$17h3b96b9039c144528E', symObjAddr: 0x94A0, symBinAddr: 0x892A0, symSize: 0x60 }
  - { offsetInCU: 0x19B23, offset: 0x300738, size: 0x8, addend: 0x0, symName: '__ZN4core3ptr50drop_in_place$LT$syn..generics..TypeParamBound$GT$17h7c1195cdfd37b73cE', symObjAddr: 0x9500, symBinAddr: 0x89300, symSize: 0xA0 }
  - { offsetInCU: 0x19CC8, offset: 0x3008DD, size: 0x8, addend: 0x0, symName: '__ZN4core3ptr50drop_in_place$LT$syn..generics..WherePredicate$GT$17hc8ef92d22a75f583E', symObjAddr: 0x95A0, symBinAddr: 0x893A0, symSize: 0xA0 }
  - { offsetInCU: 0x19E69, offset: 0x300A7E, size: 0x8, addend: 0x0, symName: '__ZN4core3ptr58drop_in_place$LT$alloc..vec..Vec$LT$syn..expr..Arm$GT$$GT$17ha648d1896dec8b4dE', symObjAddr: 0x9640, symBinAddr: 0x89440, symSize: 0xD0 }
  - { offsetInCU: 0x1A0F6, offset: 0x300D0B, size: 0x8, addend: 0x0, symName: '__ZN4core3ptr59drop_in_place$LT$alloc..boxed..Box$LT$syn..pat..Pat$GT$$GT$17hfa860577679c86cbE', symObjAddr: 0x9710, symBinAddr: 0x89510, symSize: 0x50 }
  - { offsetInCU: 0x1A251, offset: 0x300E66, size: 0x8, addend: 0x0, symName: '__ZN4core3ptr59drop_in_place$LT$alloc..boxed..Box$LT$syn..ty..Type$GT$$GT$17hce35c4b60063cd1fE', symObjAddr: 0x9760, symBinAddr: 0x89560, symSize: 0x50 }
  - { offsetInCU: 0x1A3AC, offset: 0x300FC1, size: 0x8, addend: 0x0, symName: '__ZN4core3ptr61drop_in_place$LT$alloc..boxed..Box$LT$syn..expr..Expr$GT$$GT$17h35b8f1409a9ab85bE', symObjAddr: 0x97B0, symBinAddr: 0x895B0, symSize: 0x50 }
  - { offsetInCU: 0x1A507, offset: 0x30111C, size: 0x8, addend: 0x0, symName: '__ZN4core3ptr61drop_in_place$LT$syn..path..ParenthesizedGenericArguments$GT$17h6d1a096952b83c04E', symObjAddr: 0x9800, symBinAddr: 0x89600, symSize: 0x170 }
  - { offsetInCU: 0x1AAE1, offset: 0x3016F6, size: 0x8, addend: 0x0, symName: '__ZN4core3ptr63drop_in_place$LT$alloc..boxed..Box$LT$syn..lit..LitRepr$GT$$GT$17h4a54b8c5cd42faf5E', symObjAddr: 0x9970, symBinAddr: 0x89770, symSize: 0x60 }
  - { offsetInCU: 0x1ADD6, offset: 0x3019EB, size: 0x8, addend: 0x0, symName: '__ZN4core3ptr64drop_in_place$LT$alloc..boxed..Box$LT$syn..pat..FieldPat$GT$$GT$17hf3d389ef82c9f10bE', symObjAddr: 0x99D0, symBinAddr: 0x897D0, symSize: 0x140 }
  - { offsetInCU: 0x1B4B5, offset: 0x3020CA, size: 0x8, addend: 0x0, symName: '__ZN4core3ptr64drop_in_place$LT$alloc..boxed..Box$LT$syn..ty..BareFnArg$GT$$GT$17hc862ec57eebf1a54E', symObjAddr: 0x9B10, symBinAddr: 0x89910, symSize: 0x140 }
  - { offsetInCU: 0x1BA0D, offset: 0x302622, size: 0x8, addend: 0x0, symName: '__ZN4core3ptr65drop_in_place$LT$core..option..Option$LT$syn..expr..Label$GT$$GT$17hfc626d17a1d0054dE', symObjAddr: 0x9C50, symBinAddr: 0x89A50, symSize: 0x30 }
  - { offsetInCU: 0x1BB48, offset: 0x30275D, size: 0x8, addend: 0x0, symName: '__ZN4core3ptr65drop_in_place$LT$core..option..Option$LT$syn..path..QSelf$GT$$GT$17h31a3e5c39e677989E', symObjAddr: 0x9C80, symBinAddr: 0x89A80, symSize: 0x50 }
  - { offsetInCU: 0x1BCCB, offset: 0x3028E0, size: 0x8, addend: 0x0, symName: '__ZN4core3ptr66drop_in_place$LT$core..option..Option$LT$syn..pat..PatRest$GT$$GT$17hba8f4d9198c0dabcE', symObjAddr: 0x9CD0, symBinAddr: 0x89AD0, symSize: 0xE0 }
  - { offsetInCU: 0x1BF83, offset: 0x302B98, size: 0x8, addend: 0x0, symName: '__ZN4core3ptr67drop_in_place$LT$alloc..boxed..Box$LT$syn..expr..FieldValue$GT$$GT$17h1fe00f656b5bc41eE', symObjAddr: 0x9DB0, symBinAddr: 0x89BB0, symSize: 0x140 }
  - { offsetInCU: 0x1C4DA, offset: 0x3030EF, size: 0x8, addend: 0x0, symName: '__ZN4core3ptr70drop_in_place$LT$core..option..Option$LT$syn..ty..BareVariadic$GT$$GT$17hf6aaee8d5112d370E', symObjAddr: 0x9EF0, symBinAddr: 0x89CF0, symSize: 0x120 }
  - { offsetInCU: 0x1CA3B, offset: 0x303650, size: 0x8, addend: 0x0, symName: '__ZN4core3ptr72drop_in_place$LT$alloc..boxed..Box$LT$syn..path..GenericArgument$GT$$GT$17hc3f5a13c594d53a1E', symObjAddr: 0xA010, symBinAddr: 0x89E10, symSize: 0x2B0 }
  - { offsetInCU: 0x1D426, offset: 0x30403B, size: 0x8, addend: 0x0, symName: '__ZN4core3ptr72drop_in_place$LT$core..option..Option$LT$syn..lifetime..Lifetime$GT$$GT$17hf02c2376eaf0703fE', symObjAddr: 0xA2C0, symBinAddr: 0x8A0C0, symSize: 0x30 }
  - { offsetInCU: 0x1D542, offset: 0x304157, size: 0x8, addend: 0x0, symName: '__ZN4core3ptr73drop_in_place$LT$alloc..boxed..Box$LT$syn..generics..GenericParam$GT$$GT$17hbb1f35d2f323630eE', symObjAddr: 0xA2F0, symBinAddr: 0x8A0F0, symSize: 0x80 }
  - { offsetInCU: 0x1D6BA, offset: 0x3042CF, size: 0x8, addend: 0x0, symName: '__ZN4core3ptr75drop_in_place$LT$alloc..boxed..Box$LT$syn..generics..TypeParamBound$GT$$GT$17h06d020fd356eb6c8E', symObjAddr: 0xA370, symBinAddr: 0x8A170, symSize: 0x190 }
  - { offsetInCU: 0x1DDF1, offset: 0x304A06, size: 0x8, addend: 0x0, symName: '__ZN4core3ptr75drop_in_place$LT$core..option..Option$LT$syn..generics..WhereClause$GT$$GT$17h8a92b83e49c22b8cE', symObjAddr: 0xA500, symBinAddr: 0x8A300, symSize: 0xE0 }
  - { offsetInCU: 0x1E29A, offset: 0x304EAF, size: 0x8, addend: 0x0, symName: '__ZN4core3ptr86drop_in_place$LT$syn..punctuated..Punctuated$LT$syn..pat..Pat$C$syn..token..Or$GT$$GT$17h1c252cd869cc7fe5E', symObjAddr: 0xA5E0, symBinAddr: 0x8A3E0, symSize: 0x120 }
  - { offsetInCU: 0x1E6E0, offset: 0x3052F5, size: 0x8, addend: 0x0, symName: '__ZN4core3ptr87drop_in_place$LT$core..option..Option$LT$alloc..boxed..Box$LT$syn..pat..Pat$GT$$GT$$GT$17h72bab185bf1bb06eE', symObjAddr: 0xA700, symBinAddr: 0x8A500, symSize: 0x50 }
  - { offsetInCU: 0x1E852, offset: 0x305467, size: 0x8, addend: 0x0, symName: '__ZN4core3ptr87drop_in_place$LT$core..option..Option$LT$alloc..boxed..Box$LT$syn..ty..Type$GT$$GT$$GT$17hc260fbb8309ec29fE', symObjAddr: 0xA750, symBinAddr: 0x8A550, symSize: 0x50 }
  - { offsetInCU: 0x1E9C4, offset: 0x3055D9, size: 0x8, addend: 0x0, symName: '__ZN4core3ptr89drop_in_place$LT$core..option..Option$LT$alloc..boxed..Box$LT$syn..expr..Expr$GT$$GT$$GT$17h189e15babfcbbcfaE', symObjAddr: 0xA7A0, symBinAddr: 0x8A5A0, symSize: 0x50 }
  - { offsetInCU: 0x1EB74, offset: 0x305789, size: 0x8, addend: 0x0, symName: '__ZN4core3ptr89drop_in_place$LT$syn..punctuated..Punctuated$LT$syn..pat..Pat$C$syn..token..Comma$GT$$GT$17ha82f9ca12786bd54E', symObjAddr: 0xA7F0, symBinAddr: 0x8A5F0, symSize: 0x120 }
  - { offsetInCU: 0x1F02E, offset: 0x305C43, size: 0x8, addend: 0x0, symName: '__ZN4core3ptr90drop_in_place$LT$core..option..Option$LT$alloc..boxed..Box$LT$syn..data..Field$GT$$GT$$GT$17he746374657137898E', symObjAddr: 0xA910, symBinAddr: 0x8A710, symSize: 0x200 }
  - { offsetInCU: 0x1F8D7, offset: 0x3064EC, size: 0x8, addend: 0x0, symName: '__ZN4core3ptr91drop_in_place$LT$syn..punctuated..Punctuated$LT$syn..expr..Expr$C$syn..token..Comma$GT$$GT$17h5d174cfb4564e731E', symObjAddr: 0xAB10, symBinAddr: 0x8A910, symSize: 0x120 }
  - { offsetInCU: 0x1FDB0, offset: 0x3069C5, size: 0x8, addend: 0x0, symName: '__ZN4core3ptr92drop_in_place$LT$core..option..Option$LT$alloc..boxed..Box$LT$syn..data..Variant$GT$$GT$$GT$17h0a7107bf9c428513E', symObjAddr: 0xAC30, symBinAddr: 0x8AA30, symSize: 0x190 }
  - { offsetInCU: 0x20430, offset: 0x307045, size: 0x8, addend: 0x0, symName: '__ZN4core3ptr94drop_in_place$LT$syn..punctuated..Punctuated$LT$syn..data..Variant$C$syn..token..Comma$GT$$GT$17h40a0aea357aa734bE', symObjAddr: 0xADC0, symBinAddr: 0x8ABC0, symSize: 0xE0 }
  - { offsetInCU: 0x20700, offset: 0x307315, size: 0x8, addend: 0x0, symName: '__ZN4core3ptr94drop_in_place$LT$syn..punctuated..Punctuated$LT$syn..pat..FieldPat$C$syn..token..Comma$GT$$GT$17h57ec84468c025663E', symObjAddr: 0xAEA0, symBinAddr: 0x8ACA0, symSize: 0xF0 }
  - { offsetInCU: 0x209CA, offset: 0x3075DF, size: 0x8, addend: 0x0, symName: '__ZN4core3ptr94drop_in_place$LT$syn..punctuated..Punctuated$LT$syn..ty..BareFnArg$C$syn..token..Comma$GT$$GT$17h93a6df93f58cf1c2E', symObjAddr: 0xAF90, symBinAddr: 0x8AD90, symSize: 0xF0 }
  - { offsetInCU: 0x20C94, offset: 0x3078A9, size: 0x8, addend: 0x0, symName: '__ZN4core3ptr96drop_in_place$LT$core..option..Option$LT$alloc..boxed..Box$LT$syn..path..PathSegment$GT$$GT$$GT$17hfffb4eb6744ee164E', symObjAddr: 0xB080, symBinAddr: 0x8AE80, symSize: 0x180 }
  - { offsetInCU: 0x21325, offset: 0x307F3A, size: 0x8, addend: 0x0, symName: '__ZN4core3ptr97drop_in_place$LT$syn..punctuated..Punctuated$LT$syn..expr..FieldValue$C$syn..token..Comma$GT$$GT$17hd35fb722be03e3d1E', symObjAddr: 0xB200, symBinAddr: 0x8B000, symSize: 0xF0 }
  - { offsetInCU: 0x2166B, offset: 0x308280, size: 0x8, addend: 0x0, symName: '__ZN4core3ptr98drop_in_place$LT$syn..punctuated..Punctuated$LT$syn..lifetime..Lifetime$C$syn..token..Plus$GT$$GT$17h0f92166c8c801efbE', symObjAddr: 0xB2F0, symBinAddr: 0x8B0F0, symSize: 0xB1 }
  - { offsetInCU: 0x26DA1, offset: 0x30D9B6, size: 0x8, addend: 0x0, symName: '__ZN40_$LT$F$u20$as$u20$syn..parse..Parser$GT$14__parse_scoped17h188389f4157d9145E', symObjAddr: 0x14E0, symBinAddr: 0x812E0, symSize: 0x560 }
  - { offsetInCU: 0x27ADA, offset: 0x30E6EF, size: 0x8, addend: 0x0, symName: '__ZN40_$LT$F$u20$as$u20$syn..parse..Parser$GT$14__parse_scoped17hf2e5f2fb0a19281eE', symObjAddr: 0x1A40, symBinAddr: 0x81840, symSize: 0x540 }
  - { offsetInCU: 0x287F0, offset: 0x30F405, size: 0x8, addend: 0x0, symName: '__ZN40_$LT$F$u20$as$u20$syn..parse..Parser$GT$6parse217h2401319eb30cd93aE', symObjAddr: 0x1F80, symBinAddr: 0x81D80, symSize: 0x470 }
  - { offsetInCU: 0x29298, offset: 0x30FEAD, size: 0x8, addend: 0x0, symName: '__ZN40_$LT$F$u20$as$u20$syn..parse..Parser$GT$6parse217h65a8c5defcfb0aaeE', symObjAddr: 0x23F0, symBinAddr: 0x821F0, symSize: 0x4B0 }
  - { offsetInCU: 0x29D40, offset: 0x310955, size: 0x8, addend: 0x0, symName: '__ZN40_$LT$F$u20$as$u20$syn..parse..Parser$GT$6parse217h711774e5200c4f17E', symObjAddr: 0x28A0, symBinAddr: 0x826A0, symSize: 0x480 }
  - { offsetInCU: 0x2A7DF, offset: 0x3113F4, size: 0x8, addend: 0x0, symName: '__ZN40_$LT$F$u20$as$u20$syn..parse..Parser$GT$6parse217hdbc760cba955473bE', symObjAddr: 0x2D20, symBinAddr: 0x82B20, symSize: 0x480 }
  - { offsetInCU: 0x2B33A, offset: 0x311F4F, size: 0x8, addend: 0x0, symName: __ZN3syn5parse6Parser5parse17h84d328ecbb3a7a1cE, symObjAddr: 0x0, symBinAddr: 0x7FE00, symSize: 0x540 }
  - { offsetInCU: 0x2BF84, offset: 0x312B99, size: 0x8, addend: 0x0, symName: __ZN3syn5parse6Parser5parse17h9166c33003bb03ddE, symObjAddr: 0x540, symBinAddr: 0x80340, symSize: 0x530 }
  - { offsetInCU: 0x2CBCE, offset: 0x3137E3, size: 0x8, addend: 0x0, symName: __ZN3syn5parse6Parser5parse17hccc6a5b44558c495E, symObjAddr: 0xA70, symBinAddr: 0x80870, symSize: 0x530 }
  - { offsetInCU: 0x2D818, offset: 0x31442D, size: 0x8, addend: 0x0, symName: __ZN3syn5parse6Parser5parse17hfe2afeafddc44036E, symObjAddr: 0xFA0, symBinAddr: 0x80DA0, symSize: 0x540 }
  - { offsetInCU: 0x35, offset: 0x31DA3D, size: 0x8, addend: 0x0, symName: _anon.9bf1a18036c52c2bb8436531466365c7.1.llvm.13190559149093062350, symObjAddr: 0x8A18, symBinAddr: 0x3D8C30, symSize: 0x0 }
  - { offsetInCU: 0x7B43, offset: 0x32554B, size: 0x8, addend: 0x0, symName: '__ZN4core3ptr100drop_in_place$LT$core..option..Option$LT$alloc..boxed..Box$LT$syn..path..GenericArgument$GT$$GT$$GT$17h513ef87717aedfddE', symObjAddr: 0x7A0, symBinAddr: 0x8B410, symSize: 0x50 }
  - { offsetInCU: 0x7EE3, offset: 0x3258EB, size: 0x8, addend: 0x0, symName: '__ZN4core3ptr100drop_in_place$LT$syn..punctuated..Punctuated$LT$syn..path..PathSegment$C$syn..token..PathSep$GT$$GT$17hd0d4e322634cba5dE', symObjAddr: 0x7F0, symBinAddr: 0x8B460, symSize: 0x280 }
  - { offsetInCU: 0x8990, offset: 0x326398, size: 0x8, addend: 0x0, symName: '__ZN4core3ptr103drop_in_place$LT$core..option..Option$LT$alloc..boxed..Box$LT$syn..generics..TypeParamBound$GT$$GT$$GT$17h0d79b9ffb4171f90E', symObjAddr: 0xA70, symBinAddr: 0x8B6E0, symSize: 0x50 }
  - { offsetInCU: 0x8B9D, offset: 0x3265A5, size: 0x8, addend: 0x0, symName: '__ZN4core3ptr103drop_in_place$LT$syn..punctuated..Punctuated$LT$syn..generics..GenericParam$C$syn..token..Comma$GT$$GT$17h1d35d7d5913e8beaE', symObjAddr: 0xAC0, symBinAddr: 0x8B730, symSize: 0xF0 }
  - { offsetInCU: 0x9060, offset: 0x326A68, size: 0x8, addend: 0x0, symName: '__ZN4core3ptr104drop_in_place$LT$syn..punctuated..Punctuated$LT$syn..generics..TypeParamBound$C$syn..token..Plus$GT$$GT$17h44083f960cd822d7E', symObjAddr: 0xBB0, symBinAddr: 0x8B820, symSize: 0x190 }
  - { offsetInCU: 0x96D3, offset: 0x3270DB, size: 0x8, addend: 0x0, symName: '__ZN4core3ptr34drop_in_place$LT$syn..lit..Lit$GT$17h3e4ef73f9d6504faE', symObjAddr: 0xD40, symBinAddr: 0x8B9B0, symSize: 0x110 }
  - { offsetInCU: 0x9C2C, offset: 0x327634, size: 0x8, addend: 0x0, symName: '__ZN4core3ptr34drop_in_place$LT$syn..pat..Pat$GT$17hf99e10cab020967aE', symObjAddr: 0xE50, symBinAddr: 0x8BAC0, symSize: 0x1070 }
  - { offsetInCU: 0xDDCD, offset: 0x32B7D5, size: 0x8, addend: 0x0, symName: '__ZN4core3ptr34drop_in_place$LT$syn..ty..Type$GT$17hc9a287e6412cf4a5E.llvm.13190559149093062350', symObjAddr: 0x1EC0, symBinAddr: 0x8CB30, symSize: 0x510 }
  - { offsetInCU: 0xF42C, offset: 0x32CE34, size: 0x8, addend: 0x0, symName: '__ZN4core3ptr36drop_in_place$LT$syn..expr..Expr$GT$17hbea3b059aebc6b0dE', symObjAddr: 0x23D0, symBinAddr: 0x8D040, symSize: 0x2920 }
  - { offsetInCU: 0x1926A, offset: 0x336C72, size: 0x8, addend: 0x0, symName: '__ZN4core3ptr36drop_in_place$LT$syn..mac..Macro$GT$17haa1481cb4fe5d660E', symObjAddr: 0x4CF0, symBinAddr: 0x8F960, symSize: 0x40 }
  - { offsetInCU: 0x192A4, offset: 0x336CAC, size: 0x8, addend: 0x0, symName: '__ZN4core3ptr36drop_in_place$LT$syn..path..Path$GT$17hb26ddc646911d9caE', symObjAddr: 0x4D30, symBinAddr: 0x8F9A0, symSize: 0x240 }
  - { offsetInCU: 0x19CED, offset: 0x3376F5, size: 0x8, addend: 0x0, symName: '__ZN4core3ptr37drop_in_place$LT$syn..stmt..Block$GT$17h9bb04bc412e892c1E', symObjAddr: 0x4F70, symBinAddr: 0x8FBE0, symSize: 0xD0 }
  - { offsetInCU: 0x19FCF, offset: 0x3379D7, size: 0x8, addend: 0x0, symName: '__ZN4core3ptr38drop_in_place$LT$syn..error..Error$GT$17h6faeff159aa80c91E.llvm.13190559149093062350', symObjAddr: 0x5040, symBinAddr: 0x8FCB0, symSize: 0x80 }
  - { offsetInCU: 0x1A2A1, offset: 0x337CA9, size: 0x8, addend: 0x0, symName: '__ZN4core3ptr38drop_in_place$LT$syn..expr..Member$GT$17h54f73fbfaef06080E', symObjAddr: 0x50C0, symBinAddr: 0x8FD30, symSize: 0x30 }
  - { offsetInCU: 0x1A39E, offset: 0x337DA6, size: 0x8, addend: 0x0, symName: '__ZN4core3ptr39drop_in_place$LT$proc_macro2..Ident$GT$17h9d68045e9dec4a40E', symObjAddr: 0x50F0, symBinAddr: 0x8FD60, symSize: 0x30 }
  - { offsetInCU: 0x1A47C, offset: 0x337E84, size: 0x8, addend: 0x0, symName: '__ZN4core3ptr40drop_in_place$LT$syn..ty..ReturnType$GT$17h4a68005bbc507217E', symObjAddr: 0x5120, symBinAddr: 0x8FD90, symSize: 0x50 }
  - { offsetInCU: 0x1A5EE, offset: 0x337FF6, size: 0x8, addend: 0x0, symName: '__ZN4core3ptr41drop_in_place$LT$syn..expr..ExprConst$GT$17h454a2cb9df850c24E', symObjAddr: 0x5170, symBinAddr: 0x8FDE0, symSize: 0x180 }
  - { offsetInCU: 0x1AB77, offset: 0x33857F, size: 0x8, addend: 0x0, symName: '__ZN4core3ptr44drop_in_place$LT$syn..lifetime..Lifetime$GT$17h9c301554489a697eE', symObjAddr: 0x52F0, symBinAddr: 0x8FF60, symSize: 0x30 }
  - { offsetInCU: 0x1ADAA, offset: 0x3387B2, size: 0x8, addend: 0x0, symName: '__ZN4core3ptr45drop_in_place$LT$proc_macro2..TokenStream$GT$17h86cac592f04212eaE.llvm.13190559149093062350', symObjAddr: 0x5320, symBinAddr: 0x8FF90, symSize: 0x140 }
  - { offsetInCU: 0x1B219, offset: 0x338C21, size: 0x8, addend: 0x0, symName: '__ZN4core3ptr45drop_in_place$LT$syn..generics..TypeParam$GT$17he645f7cc80b7ae11E', symObjAddr: 0x5460, symBinAddr: 0x900D0, symSize: 0x230 }
  - { offsetInCU: 0x1BA49, offset: 0x339451, size: 0x8, addend: 0x0, symName: '__ZN4core3ptr46drop_in_place$LT$syn..generics..ConstParam$GT$17hc19d519d6441178aE', symObjAddr: 0x5690, symBinAddr: 0x90300, symSize: 0x150 }
  - { offsetInCU: 0x1BEA7, offset: 0x3398AF, size: 0x8, addend: 0x0, symName: '__ZN4core3ptr47drop_in_place$LT$syn..path..GenericArgument$GT$17ha7ad17cb38a1a5afE', symObjAddr: 0x57E0, symBinAddr: 0x90450, symSize: 0x4A0 }
  - { offsetInCU: 0x1CF4E, offset: 0x33A956, size: 0x8, addend: 0x0, symName: '__ZN4core3ptr49drop_in_place$LT$syn..generics..LifetimeParam$GT$17h47d9f9e81b35a3dcE', symObjAddr: 0x5C80, symBinAddr: 0x908F0, symSize: 0xF0 }
  - { offsetInCU: 0x1D33C, offset: 0x33AD44, size: 0x8, addend: 0x0, symName: '__ZN4core3ptr50drop_in_place$LT$syn..generics..TypeParamBound$GT$17h7c1195cdfd37b73cE', symObjAddr: 0x5D70, symBinAddr: 0x909E0, symSize: 0x1A0 }
  - { offsetInCU: 0x1D870, offset: 0x33B278, size: 0x8, addend: 0x0, symName: '__ZN4core3ptr58drop_in_place$LT$alloc..vec..Vec$LT$syn..expr..Arm$GT$$GT$17ha648d1896dec8b4dE', symObjAddr: 0x5F10, symBinAddr: 0x90B80, symSize: 0xD0 }
  - { offsetInCU: 0x1DAFD, offset: 0x33B505, size: 0x8, addend: 0x0, symName: '__ZN4core3ptr59drop_in_place$LT$alloc..boxed..Box$LT$syn..pat..Pat$GT$$GT$17hfa860577679c86cbE', symObjAddr: 0x5FE0, symBinAddr: 0x90C50, symSize: 0x50 }
  - { offsetInCU: 0x1DC58, offset: 0x33B660, size: 0x8, addend: 0x0, symName: '__ZN4core3ptr59drop_in_place$LT$alloc..boxed..Box$LT$syn..ty..Type$GT$$GT$17hce35c4b60063cd1fE', symObjAddr: 0x6030, symBinAddr: 0x90CA0, symSize: 0x50 }
  - { offsetInCU: 0x1DDB3, offset: 0x33B7BB, size: 0x8, addend: 0x0, symName: '__ZN4core3ptr61drop_in_place$LT$alloc..boxed..Box$LT$syn..expr..Expr$GT$$GT$17h35b8f1409a9ab85bE', symObjAddr: 0x6080, symBinAddr: 0x90CF0, symSize: 0x50 }
  - { offsetInCU: 0x1DF8A, offset: 0x33B992, size: 0x8, addend: 0x0, symName: '__ZN4core3ptr61drop_in_place$LT$syn..path..ParenthesizedGenericArguments$GT$17h6d1a096952b83c04E', symObjAddr: 0x60D0, symBinAddr: 0x90D40, symSize: 0x170 }
  - { offsetInCU: 0x1E551, offset: 0x33BF59, size: 0x8, addend: 0x0, symName: '__ZN4core3ptr62drop_in_place$LT$syn..path..AngleBracketedGenericArguments$GT$17h1e2e2310287487b5E', symObjAddr: 0x6240, symBinAddr: 0x90EB0, symSize: 0x120 }
  - { offsetInCU: 0x1E967, offset: 0x33C36F, size: 0x8, addend: 0x0, symName: '__ZN4core3ptr63drop_in_place$LT$alloc..boxed..Box$LT$syn..lit..LitRepr$GT$$GT$17h4a54b8c5cd42faf5E', symObjAddr: 0x6360, symBinAddr: 0x90FD0, symSize: 0x60 }
  - { offsetInCU: 0x1EC5C, offset: 0x33C664, size: 0x8, addend: 0x0, symName: '__ZN4core3ptr64drop_in_place$LT$alloc..boxed..Box$LT$syn..pat..FieldPat$GT$$GT$17hf3d389ef82c9f10bE', symObjAddr: 0x63C0, symBinAddr: 0x91030, symSize: 0x140 }
  - { offsetInCU: 0x1F33B, offset: 0x33CD43, size: 0x8, addend: 0x0, symName: '__ZN4core3ptr64drop_in_place$LT$alloc..boxed..Box$LT$syn..ty..BareFnArg$GT$$GT$17hc862ec57eebf1a54E', symObjAddr: 0x6500, symBinAddr: 0x91170, symSize: 0x140 }
  - { offsetInCU: 0x1F893, offset: 0x33D29B, size: 0x8, addend: 0x0, symName: '__ZN4core3ptr65drop_in_place$LT$core..option..Option$LT$syn..expr..Label$GT$$GT$17hfc626d17a1d0054dE', symObjAddr: 0x6640, symBinAddr: 0x912B0, symSize: 0x30 }
  - { offsetInCU: 0x1F9CE, offset: 0x33D3D6, size: 0x8, addend: 0x0, symName: '__ZN4core3ptr66drop_in_place$LT$core..option..Option$LT$syn..pat..PatRest$GT$$GT$17hba8f4d9198c0dabcE', symObjAddr: 0x6670, symBinAddr: 0x912E0, symSize: 0xE0 }
  - { offsetInCU: 0x1FC86, offset: 0x33D68E, size: 0x8, addend: 0x0, symName: '__ZN4core3ptr67drop_in_place$LT$alloc..boxed..Box$LT$syn..expr..FieldValue$GT$$GT$17h1fe00f656b5bc41eE', symObjAddr: 0x6750, symBinAddr: 0x913C0, symSize: 0x140 }
  - { offsetInCU: 0x201BE, offset: 0x33DBC6, size: 0x8, addend: 0x0, symName: '__ZN4core3ptr68drop_in_place$LT$alloc..boxed..Box$LT$syn..path..PathSegment$GT$$GT$17hdf3e53c9442c6d12E', symObjAddr: 0x6890, symBinAddr: 0x91500, symSize: 0x190 }
  - { offsetInCU: 0x2089C, offset: 0x33E2A4, size: 0x8, addend: 0x0, symName: '__ZN4core3ptr70drop_in_place$LT$core..option..Option$LT$syn..ty..BareVariadic$GT$$GT$17hf6aaee8d5112d370E', symObjAddr: 0x6A20, symBinAddr: 0x91690, symSize: 0x120 }
  - { offsetInCU: 0x20DFD, offset: 0x33E805, size: 0x8, addend: 0x0, symName: '__ZN4core3ptr72drop_in_place$LT$alloc..boxed..Box$LT$syn..path..GenericArgument$GT$$GT$17hc3f5a13c594d53a1E', symObjAddr: 0x6B40, symBinAddr: 0x917B0, symSize: 0x1D0 }
  - { offsetInCU: 0x213A0, offset: 0x33EDA8, size: 0x8, addend: 0x0, symName: '__ZN4core3ptr72drop_in_place$LT$core..option..Option$LT$syn..lifetime..Lifetime$GT$$GT$17hf02c2376eaf0703fE', symObjAddr: 0x6D10, symBinAddr: 0x91980, symSize: 0x30 }
  - { offsetInCU: 0x214BC, offset: 0x33EEC4, size: 0x8, addend: 0x0, symName: '__ZN4core3ptr73drop_in_place$LT$alloc..boxed..Box$LT$syn..generics..GenericParam$GT$$GT$17hbb1f35d2f323630eE', symObjAddr: 0x6D40, symBinAddr: 0x919B0, symSize: 0x80 }
  - { offsetInCU: 0x21634, offset: 0x33F03C, size: 0x8, addend: 0x0, symName: '__ZN4core3ptr75drop_in_place$LT$alloc..boxed..Box$LT$syn..generics..TypeParamBound$GT$$GT$17h06d020fd356eb6c8E', symObjAddr: 0x6DC0, symBinAddr: 0x91A30, symSize: 0xB0 }
  - { offsetInCU: 0x2198F, offset: 0x33F397, size: 0x8, addend: 0x0, symName: '__ZN4core3ptr86drop_in_place$LT$syn..punctuated..Punctuated$LT$syn..pat..Pat$C$syn..token..Or$GT$$GT$17h1c252cd869cc7fe5E', symObjAddr: 0x6E70, symBinAddr: 0x91AE0, symSize: 0x120 }
  - { offsetInCU: 0x21DD5, offset: 0x33F7DD, size: 0x8, addend: 0x0, symName: '__ZN4core3ptr87drop_in_place$LT$core..option..Option$LT$alloc..boxed..Box$LT$syn..pat..Pat$GT$$GT$$GT$17h72bab185bf1bb06eE', symObjAddr: 0x6F90, symBinAddr: 0x91C00, symSize: 0x50 }
  - { offsetInCU: 0x21F47, offset: 0x33F94F, size: 0x8, addend: 0x0, symName: '__ZN4core3ptr87drop_in_place$LT$core..option..Option$LT$alloc..boxed..Box$LT$syn..ty..Type$GT$$GT$$GT$17hc260fbb8309ec29fE', symObjAddr: 0x6FE0, symBinAddr: 0x91C50, symSize: 0x50 }
  - { offsetInCU: 0x220B9, offset: 0x33FAC1, size: 0x8, addend: 0x0, symName: '__ZN4core3ptr89drop_in_place$LT$core..option..Option$LT$alloc..boxed..Box$LT$syn..expr..Expr$GT$$GT$$GT$17h189e15babfcbbcfaE', symObjAddr: 0x7030, symBinAddr: 0x91CA0, symSize: 0x50 }
  - { offsetInCU: 0x22269, offset: 0x33FC71, size: 0x8, addend: 0x0, symName: '__ZN4core3ptr89drop_in_place$LT$syn..punctuated..Punctuated$LT$syn..pat..Pat$C$syn..token..Comma$GT$$GT$17ha82f9ca12786bd54E', symObjAddr: 0x7080, symBinAddr: 0x91CF0, symSize: 0x120 }
  - { offsetInCU: 0x226C6, offset: 0x3400CE, size: 0x8, addend: 0x0, symName: '__ZN4core3ptr89drop_in_place$LT$syn..punctuated..Punctuated$LT$syn..ty..Type$C$syn..token..Comma$GT$$GT$17h6c76e390e4497862E', symObjAddr: 0x71A0, symBinAddr: 0x91E10, symSize: 0x120 }
  - { offsetInCU: 0x22B10, offset: 0x340518, size: 0x8, addend: 0x0, symName: '__ZN4core3ptr90drop_in_place$LT$core..option..Option$LT$syn..path..AngleBracketedGenericArguments$GT$$GT$17h488f4ff126d02fb4E', symObjAddr: 0x72C0, symBinAddr: 0x91F30, symSize: 0x130 }
  - { offsetInCU: 0x22F7B, offset: 0x340983, size: 0x8, addend: 0x0, symName: '__ZN4core3ptr91drop_in_place$LT$syn..punctuated..Punctuated$LT$syn..expr..Expr$C$syn..token..Comma$GT$$GT$17h5d174cfb4564e731E', symObjAddr: 0x73F0, symBinAddr: 0x92060, symSize: 0x120 }
  - { offsetInCU: 0x233D8, offset: 0x340DE0, size: 0x8, addend: 0x0, symName: '__ZN4core3ptr94drop_in_place$LT$syn..punctuated..Punctuated$LT$syn..pat..FieldPat$C$syn..token..Comma$GT$$GT$17h57ec84468c025663E', symObjAddr: 0x7510, symBinAddr: 0x92180, symSize: 0xF0 }
  - { offsetInCU: 0x236A2, offset: 0x3410AA, size: 0x8, addend: 0x0, symName: '__ZN4core3ptr94drop_in_place$LT$syn..punctuated..Punctuated$LT$syn..ty..BareFnArg$C$syn..token..Comma$GT$$GT$17h93a6df93f58cf1c2E', symObjAddr: 0x7600, symBinAddr: 0x92270, symSize: 0xF0 }
  - { offsetInCU: 0x2396C, offset: 0x341374, size: 0x8, addend: 0x0, symName: '__ZN4core3ptr96drop_in_place$LT$core..option..Option$LT$alloc..boxed..Box$LT$syn..path..PathSegment$GT$$GT$$GT$17hfffb4eb6744ee164E', symObjAddr: 0x76F0, symBinAddr: 0x92360, symSize: 0x90 }
  - { offsetInCU: 0x23BEE, offset: 0x3415F6, size: 0x8, addend: 0x0, symName: '__ZN4core3ptr97drop_in_place$LT$syn..punctuated..Punctuated$LT$syn..expr..FieldValue$C$syn..token..Comma$GT$$GT$17hd35fb722be03e3d1E', symObjAddr: 0x7780, symBinAddr: 0x923F0, symSize: 0xF0 }
  - { offsetInCU: 0x23EB8, offset: 0x3418C0, size: 0x8, addend: 0x0, symName: '__ZN4core3ptr98drop_in_place$LT$alloc..vec..Vec$LT$$LP$syn..path..GenericArgument$C$syn..token..Comma$RP$$GT$$GT$17h4fdb1af8625fb77aE', symObjAddr: 0x7870, symBinAddr: 0x924E0, symSize: 0xD0 }
  - { offsetInCU: 0x241C1, offset: 0x341BC9, size: 0x8, addend: 0x0, symName: '__ZN4core3ptr98drop_in_place$LT$syn..punctuated..Punctuated$LT$syn..lifetime..Lifetime$C$syn..token..Plus$GT$$GT$17h0f92166c8c801efbE', symObjAddr: 0x7940, symBinAddr: 0x925B0, symSize: 0xC0 }
  - { offsetInCU: 0x2487C, offset: 0x342284, size: 0x8, addend: 0x0, symName: '__ZN102_$LT$core..iter..adapters..map..Map$LT$I$C$F$GT$$u20$as$u20$core..iter..traits..iterator..Iterator$GT$4fold17h203c3ebd538f180cE', symObjAddr: 0x140, symBinAddr: 0x8B1B0, symSize: 0x110 }
  - { offsetInCU: 0x24C94, offset: 0x34269C, size: 0x8, addend: 0x0, symName: '__ZN102_$LT$core..iter..adapters..map..Map$LT$I$C$F$GT$$u20$as$u20$core..iter..traits..iterator..Iterator$GT$4fold17h9f99cf3a40bf3e13E', symObjAddr: 0x410, symBinAddr: 0x8B2C0, symSize: 0x150 }
  - { offsetInCU: 0x27497, offset: 0x344E9F, size: 0x8, addend: 0x0, symName: '__ZN12borsh_derive9internals8generics18compute_predicates28_$u7b$$u7b$closure$u7d$$u7d$17hf39f4752a22f0d18E.llvm.13190559149093062350', symObjAddr: 0x7A00, symBinAddr: 0x92670, symSize: 0x13B }
  - { offsetInCU: 0x4C, offset: 0x34855C, size: 0x8, addend: 0x0, symName: __ZN12borsh_derive9internals10attributes5field21BORSH_FIELD_PARSE_MAP17h2ee783b409003cbbE, symObjAddr: 0xA270, symBinAddr: 0x3E0000, symSize: 0x0 }
  - { offsetInCU: 0x214, offset: 0x348724, size: 0x8, addend: 0x0, symName: '__ZN12borsh_derive9internals10attributes5field21BORSH_FIELD_PARSE_MAP28_$u7b$$u7b$closure$u7d$$u7d$28_$u7b$$u7b$closure$u7d$$u7d$17h89da7fdb3b47b494E', symObjAddr: 0x7C60, symBinAddr: 0x9A3B0, symSize: 0x110 }
  - { offsetInCU: 0x37C, offset: 0x34888C, size: 0x8, addend: 0x0, symName: '__ZN12borsh_derive9internals10attributes5field21BORSH_FIELD_PARSE_MAP28_$u7b$$u7b$closure$u7d$$u7d$28_$u7b$$u7b$closure$u7d$$u7d$17h4a86829d9a62f5beE', symObjAddr: 0x7D70, symBinAddr: 0x9A4C0, symSize: 0x70 }
  - { offsetInCU: 0x3CE, offset: 0x3488DE, size: 0x8, addend: 0x0, symName: '__ZN12borsh_derive9internals10attributes5field21BORSH_FIELD_PARSE_MAP28_$u7b$$u7b$closure$u7d$$u7d$28_$u7b$$u7b$closure$u7d$$u7d$17hb76a73aabeb6f752E', symObjAddr: 0x7DE0, symBinAddr: 0x9A530, symSize: 0x70 }
  - { offsetInCU: 0x420, offset: 0x348930, size: 0x8, addend: 0x0, symName: '__ZN12borsh_derive9internals10attributes5field21BORSH_FIELD_PARSE_MAP28_$u7b$$u7b$closure$u7d$$u7d$28_$u7b$$u7b$closure$u7d$$u7d$17h4b48c486c45339acE', symObjAddr: 0x7E50, symBinAddr: 0x9A5A0, symSize: 0x100 }
  - { offsetInCU: 0x588, offset: 0x348A98, size: 0x8, addend: 0x0, symName: '__ZN12borsh_derive9internals10attributes5field21BORSH_FIELD_PARSE_MAP28_$u7b$$u7b$closure$u7d$$u7d$28_$u7b$$u7b$closure$u7d$$u7d$17heafa29def3f13b66E', symObjAddr: 0x7F50, symBinAddr: 0x9A6A0, symSize: 0x20 }
  - { offsetInCU: 0x91C, offset: 0x348E2C, size: 0x8, addend: 0x0, symName: '__ZN248_$LT$borsh_derive..internals..attributes..field..Attributes$u20$as$u20$core..convert..From$LT$alloc..collections..btree..map..BTreeMap$LT$borsh_derive..internals..attributes..Symbol$C$borsh_derive..internals..attributes..field..Variants$GT$$GT$$GT$4from17hfe8218bbd98ea084E', symObjAddr: 0x7F70, symBinAddr: 0x9A6C0, symSize: 0xC70 }
  - { offsetInCU: 0x6A04, offset: 0x34EF14, size: 0x8, addend: 0x0, symName: '__ZN4core3ptr100drop_in_place$LT$core..option..Option$LT$alloc..boxed..Box$LT$syn..path..GenericArgument$GT$$GT$$GT$17h513ef87717aedfddE', symObjAddr: 0x6D0, symBinAddr: 0x92E20, symSize: 0x50 }
  - { offsetInCU: 0x6DA4, offset: 0x34F2B4, size: 0x8, addend: 0x0, symName: '__ZN4core3ptr100drop_in_place$LT$syn..punctuated..Punctuated$LT$syn..path..PathSegment$C$syn..token..PathSep$GT$$GT$17hd0d4e322634cba5dE', symObjAddr: 0x720, symBinAddr: 0x92E70, symSize: 0x280 }
  - { offsetInCU: 0x7870, offset: 0x34FD80, size: 0x8, addend: 0x0, symName: '__ZN4core3ptr101drop_in_place$LT$core..option..Option$LT$alloc..vec..Vec$LT$syn..generics..WherePredicate$GT$$GT$$GT$17ha5f60e780b27a042E', symObjAddr: 0x9A0, symBinAddr: 0x930F0, symSize: 0xE0 }
  - { offsetInCU: 0x7ADD, offset: 0x34FFED, size: 0x8, addend: 0x0, symName: '__ZN4core3ptr101drop_in_place$LT$core..option..Option$LT$borsh_derive..internals..attributes..field..Variants$GT$$GT$17h4574a320414c53b4E', symObjAddr: 0xA80, symBinAddr: 0x931D0, symSize: 0x60 }
  - { offsetInCU: 0x7B48, offset: 0x350058, size: 0x8, addend: 0x0, symName: '__ZN4core3ptr103drop_in_place$LT$core..option..Option$LT$alloc..boxed..Box$LT$syn..generics..TypeParamBound$GT$$GT$$GT$17h0d79b9ffb4171f90E', symObjAddr: 0xAE0, symBinAddr: 0x93230, symSize: 0x50 }
  - { offsetInCU: 0x7D55, offset: 0x350265, size: 0x8, addend: 0x0, symName: '__ZN4core3ptr103drop_in_place$LT$syn..punctuated..Punctuated$LT$syn..generics..GenericParam$C$syn..token..Comma$GT$$GT$17h1d35d7d5913e8beaE', symObjAddr: 0xB30, symBinAddr: 0x93280, symSize: 0xF0 }
  - { offsetInCU: 0x8218, offset: 0x350728, size: 0x8, addend: 0x0, symName: '__ZN4core3ptr104drop_in_place$LT$syn..punctuated..Punctuated$LT$syn..generics..TypeParamBound$C$syn..token..Plus$GT$$GT$17h44083f960cd822d7E', symObjAddr: 0xC20, symBinAddr: 0x93370, symSize: 0x190 }
  - { offsetInCU: 0x880F, offset: 0x350D1F, size: 0x8, addend: 0x0, symName: '__ZN4core3ptr122drop_in_place$LT$core..option..Option$LT$borsh_derive..internals..attributes..field..schema..with_funcs..WithFuncs$GT$$GT$17h82e7da9bf82a9cb3E', symObjAddr: 0xDB0, symBinAddr: 0x93500, symSize: 0x80 }
  - { offsetInCU: 0x888E, offset: 0x350D9E, size: 0x8, addend: 0x0, symName: '__ZN4core3ptr144drop_in_place$LT$borsh_derive..internals..attributes..field..BORSH_FIELD_PARSE_MAP..$u7b$$u7b$closure$u7d$$u7d$..$u7b$$u7b$closure$u7d$$u7d$$GT$17h2c13036afff7b1a6E', symObjAddr: 0xE30, symBinAddr: 0x93580, symSize: 0x10 }
  - { offsetInCU: 0x8974, offset: 0x350E84, size: 0x8, addend: 0x0, symName: '__ZN4core3ptr34drop_in_place$LT$syn..lit..Lit$GT$17h3e4ef73f9d6504faE', symObjAddr: 0xE40, symBinAddr: 0x93590, symSize: 0x110 }
  - { offsetInCU: 0x8EAE, offset: 0x3513BE, size: 0x8, addend: 0x0, symName: '__ZN4core3ptr34drop_in_place$LT$syn..pat..Pat$GT$17hf99e10cab020967aE', symObjAddr: 0xF50, symBinAddr: 0x936A0, symSize: 0xEB0 }
  - { offsetInCU: 0xC7A0, offset: 0x354CB0, size: 0x8, addend: 0x0, symName: '__ZN4core3ptr34drop_in_place$LT$syn..ty..Type$GT$17hc9a287e6412cf4a5E', symObjAddr: 0x1E00, symBinAddr: 0x94550, symSize: 0x510 }
  - { offsetInCU: 0xDDFF, offset: 0x35630F, size: 0x8, addend: 0x0, symName: '__ZN4core3ptr36drop_in_place$LT$syn..expr..Expr$GT$17hbea3b059aebc6b0dE', symObjAddr: 0x2310, symBinAddr: 0x94A60, symSize: 0x2790 }
  - { offsetInCU: 0x17645, offset: 0x35FB55, size: 0x8, addend: 0x0, symName: '__ZN4core3ptr36drop_in_place$LT$syn..mac..Macro$GT$17haa1481cb4fe5d660E', symObjAddr: 0x4AA0, symBinAddr: 0x971F0, symSize: 0x40 }
  - { offsetInCU: 0x1767F, offset: 0x35FB8F, size: 0x8, addend: 0x0, symName: '__ZN4core3ptr36drop_in_place$LT$syn..path..Path$GT$17hb26ddc646911d9caE', symObjAddr: 0x4AE0, symBinAddr: 0x97230, symSize: 0x240 }
  - { offsetInCU: 0x180C8, offset: 0x3605D8, size: 0x8, addend: 0x0, symName: '__ZN4core3ptr37drop_in_place$LT$syn..path..QSelf$GT$17hf59f2cf7f4703e2eE', symObjAddr: 0x4D20, symBinAddr: 0x97470, symSize: 0x50 }
  - { offsetInCU: 0x18242, offset: 0x360752, size: 0x8, addend: 0x0, symName: '__ZN4core3ptr37drop_in_place$LT$syn..stmt..Block$GT$17h9bb04bc412e892c1E', symObjAddr: 0x4D70, symBinAddr: 0x974C0, symSize: 0xD0 }
  - { offsetInCU: 0x184E6, offset: 0x3609F6, size: 0x8, addend: 0x0, symName: '__ZN4core3ptr38drop_in_place$LT$syn..expr..Member$GT$17h54f73fbfaef06080E', symObjAddr: 0x4E40, symBinAddr: 0x97590, symSize: 0x30 }
  - { offsetInCU: 0x185E3, offset: 0x360AF3, size: 0x8, addend: 0x0, symName: '__ZN4core3ptr39drop_in_place$LT$proc_macro2..Ident$GT$17h9d68045e9dec4a40E', symObjAddr: 0x4E70, symBinAddr: 0x975C0, symSize: 0x30 }
  - { offsetInCU: 0x186C1, offset: 0x360BD1, size: 0x8, addend: 0x0, symName: '__ZN4core3ptr40drop_in_place$LT$syn..expr..ExprPath$GT$17h0115980c8ec091a0E', symObjAddr: 0x4EA0, symBinAddr: 0x975F0, symSize: 0x110 }
  - { offsetInCU: 0x18B86, offset: 0x361096, size: 0x8, addend: 0x0, symName: '__ZN4core3ptr40drop_in_place$LT$syn..ty..ReturnType$GT$17h4a68005bbc507217E', symObjAddr: 0x4FB0, symBinAddr: 0x97700, symSize: 0x50 }
  - { offsetInCU: 0x18CF8, offset: 0x361208, size: 0x8, addend: 0x0, symName: '__ZN4core3ptr41drop_in_place$LT$syn..expr..ExprConst$GT$17h454a2cb9df850c24E', symObjAddr: 0x5000, symBinAddr: 0x97750, symSize: 0x180 }
  - { offsetInCU: 0x19281, offset: 0x361791, size: 0x8, addend: 0x0, symName: '__ZN4core3ptr44drop_in_place$LT$syn..lifetime..Lifetime$GT$17h9c301554489a697eE', symObjAddr: 0x5180, symBinAddr: 0x978D0, symSize: 0x30 }
  - { offsetInCU: 0x194B4, offset: 0x3619C4, size: 0x8, addend: 0x0, symName: '__ZN4core3ptr45drop_in_place$LT$proc_macro2..TokenStream$GT$17h86cac592f04212eaE', symObjAddr: 0x51B0, symBinAddr: 0x97900, symSize: 0x140 }
  - { offsetInCU: 0x19923, offset: 0x361E33, size: 0x8, addend: 0x0, symName: '__ZN4core3ptr45drop_in_place$LT$syn..generics..TypeParam$GT$17he645f7cc80b7ae11E', symObjAddr: 0x52F0, symBinAddr: 0x97A40, symSize: 0x230 }
  - { offsetInCU: 0x1A153, offset: 0x362663, size: 0x8, addend: 0x0, symName: '__ZN4core3ptr46drop_in_place$LT$syn..generics..ConstParam$GT$17hc19d519d6441178aE', symObjAddr: 0x5520, symBinAddr: 0x97C70, symSize: 0x150 }
  - { offsetInCU: 0x1A5B1, offset: 0x362AC1, size: 0x8, addend: 0x0, symName: '__ZN4core3ptr47drop_in_place$LT$syn..path..GenericArgument$GT$17ha7ad17cb38a1a5afE', symObjAddr: 0x5670, symBinAddr: 0x97DC0, symSize: 0x4A0 }
  - { offsetInCU: 0x1B658, offset: 0x363B68, size: 0x8, addend: 0x0, symName: '__ZN4core3ptr49drop_in_place$LT$syn..generics..LifetimeParam$GT$17h47d9f9e81b35a3dcE', symObjAddr: 0x5B10, symBinAddr: 0x98260, symSize: 0xF0 }
  - { offsetInCU: 0x1BA46, offset: 0x363F56, size: 0x8, addend: 0x0, symName: '__ZN4core3ptr50drop_in_place$LT$syn..generics..TypeParamBound$GT$17h7c1195cdfd37b73cE', symObjAddr: 0x5C00, symBinAddr: 0x98350, symSize: 0x1A0 }
  - { offsetInCU: 0x1BF7A, offset: 0x36448A, size: 0x8, addend: 0x0, symName: '__ZN4core3ptr58drop_in_place$LT$alloc..vec..Vec$LT$syn..expr..Arm$GT$$GT$17ha648d1896dec8b4dE', symObjAddr: 0x5DA0, symBinAddr: 0x984F0, symSize: 0xD0 }
  - { offsetInCU: 0x1C207, offset: 0x364717, size: 0x8, addend: 0x0, symName: '__ZN4core3ptr59drop_in_place$LT$alloc..boxed..Box$LT$syn..pat..Pat$GT$$GT$17hfa860577679c86cbE', symObjAddr: 0x5E70, symBinAddr: 0x985C0, symSize: 0x50 }
  - { offsetInCU: 0x1C362, offset: 0x364872, size: 0x8, addend: 0x0, symName: '__ZN4core3ptr59drop_in_place$LT$alloc..boxed..Box$LT$syn..ty..Type$GT$$GT$17hce35c4b60063cd1fE', symObjAddr: 0x5EC0, symBinAddr: 0x98610, symSize: 0x50 }
  - { offsetInCU: 0x1C4BD, offset: 0x3649CD, size: 0x8, addend: 0x0, symName: '__ZN4core3ptr61drop_in_place$LT$alloc..boxed..Box$LT$syn..expr..Expr$GT$$GT$17h35b8f1409a9ab85bE', symObjAddr: 0x5F10, symBinAddr: 0x98660, symSize: 0x50 }
  - { offsetInCU: 0x1C694, offset: 0x364BA4, size: 0x8, addend: 0x0, symName: '__ZN4core3ptr61drop_in_place$LT$syn..path..ParenthesizedGenericArguments$GT$17h6d1a096952b83c04E', symObjAddr: 0x5F60, symBinAddr: 0x986B0, symSize: 0x170 }
  - { offsetInCU: 0x1CC5B, offset: 0x36516B, size: 0x8, addend: 0x0, symName: '__ZN4core3ptr62drop_in_place$LT$syn..path..AngleBracketedGenericArguments$GT$17h1e2e2310287487b5E', symObjAddr: 0x60D0, symBinAddr: 0x98820, symSize: 0x120 }
  - { offsetInCU: 0x1D071, offset: 0x365581, size: 0x8, addend: 0x0, symName: '__ZN4core3ptr63drop_in_place$LT$alloc..boxed..Box$LT$syn..lit..LitRepr$GT$$GT$17h4a54b8c5cd42faf5E', symObjAddr: 0x61F0, symBinAddr: 0x98940, symSize: 0x60 }
  - { offsetInCU: 0x1D366, offset: 0x365876, size: 0x8, addend: 0x0, symName: '__ZN4core3ptr64drop_in_place$LT$alloc..boxed..Box$LT$syn..pat..FieldPat$GT$$GT$17hf3d389ef82c9f10bE', symObjAddr: 0x6250, symBinAddr: 0x989A0, symSize: 0x140 }
  - { offsetInCU: 0x1DA45, offset: 0x365F55, size: 0x8, addend: 0x0, symName: '__ZN4core3ptr64drop_in_place$LT$alloc..boxed..Box$LT$syn..ty..BareFnArg$GT$$GT$17hc862ec57eebf1a54E', symObjAddr: 0x6390, symBinAddr: 0x98AE0, symSize: 0x140 }
  - { offsetInCU: 0x1DF9D, offset: 0x3664AD, size: 0x8, addend: 0x0, symName: '__ZN4core3ptr65drop_in_place$LT$core..option..Option$LT$syn..expr..Label$GT$$GT$17hfc626d17a1d0054dE', symObjAddr: 0x64D0, symBinAddr: 0x98C20, symSize: 0x30 }
  - { offsetInCU: 0x1E0D8, offset: 0x3665E8, size: 0x8, addend: 0x0, symName: '__ZN4core3ptr65drop_in_place$LT$core..option..Option$LT$syn..path..QSelf$GT$$GT$17h31a3e5c39e677989E', symObjAddr: 0x6500, symBinAddr: 0x98C50, symSize: 0x50 }
  - { offsetInCU: 0x1E271, offset: 0x366781, size: 0x8, addend: 0x0, symName: '__ZN4core3ptr66drop_in_place$LT$core..option..Option$LT$syn..pat..PatRest$GT$$GT$17hba8f4d9198c0dabcE', symObjAddr: 0x6550, symBinAddr: 0x98CA0, symSize: 0xE0 }
  - { offsetInCU: 0x1E529, offset: 0x366A39, size: 0x8, addend: 0x0, symName: '__ZN4core3ptr67drop_in_place$LT$alloc..boxed..Box$LT$syn..expr..FieldValue$GT$$GT$17h1fe00f656b5bc41eE', symObjAddr: 0x6630, symBinAddr: 0x98D80, symSize: 0x140 }
  - { offsetInCU: 0x1EA61, offset: 0x366F71, size: 0x8, addend: 0x0, symName: '__ZN4core3ptr68drop_in_place$LT$alloc..boxed..Box$LT$syn..path..PathSegment$GT$$GT$17hdf3e53c9442c6d12E', symObjAddr: 0x6770, symBinAddr: 0x98EC0, symSize: 0x190 }
  - { offsetInCU: 0x1F13F, offset: 0x36764F, size: 0x8, addend: 0x0, symName: '__ZN4core3ptr70drop_in_place$LT$core..option..Option$LT$syn..ty..BareVariadic$GT$$GT$17hf6aaee8d5112d370E', symObjAddr: 0x6900, symBinAddr: 0x99050, symSize: 0x120 }
  - { offsetInCU: 0x1F6A0, offset: 0x367BB0, size: 0x8, addend: 0x0, symName: '__ZN4core3ptr72drop_in_place$LT$alloc..boxed..Box$LT$syn..path..GenericArgument$GT$$GT$17hc3f5a13c594d53a1E', symObjAddr: 0x6A20, symBinAddr: 0x99170, symSize: 0x1D0 }
  - { offsetInCU: 0x1FC43, offset: 0x368153, size: 0x8, addend: 0x0, symName: '__ZN4core3ptr72drop_in_place$LT$core..option..Option$LT$syn..lifetime..Lifetime$GT$$GT$17hf02c2376eaf0703fE', symObjAddr: 0x6BF0, symBinAddr: 0x99340, symSize: 0x30 }
  - { offsetInCU: 0x1FD5F, offset: 0x36826F, size: 0x8, addend: 0x0, symName: '__ZN4core3ptr73drop_in_place$LT$alloc..boxed..Box$LT$syn..generics..GenericParam$GT$$GT$17hbb1f35d2f323630eE', symObjAddr: 0x6C20, symBinAddr: 0x99370, symSize: 0x80 }
  - { offsetInCU: 0x1FED7, offset: 0x3683E7, size: 0x8, addend: 0x0, symName: '__ZN4core3ptr73drop_in_place$LT$borsh_derive..internals..attributes..field..Variants$GT$17ha647a4b68e747d93E', symObjAddr: 0x6CA0, symBinAddr: 0x993F0, symSize: 0x60 }
  - { offsetInCU: 0x1FEF2, offset: 0x368402, size: 0x8, addend: 0x0, symName: '__ZN4core3ptr75drop_in_place$LT$alloc..boxed..Box$LT$syn..generics..TypeParamBound$GT$$GT$17h06d020fd356eb6c8E', symObjAddr: 0x6D00, symBinAddr: 0x99450, symSize: 0xB0 }
  - { offsetInCU: 0x2022E, offset: 0x36873E, size: 0x8, addend: 0x0, symName: '__ZN4core3ptr75drop_in_place$LT$borsh_derive..internals..attributes..field..Attributes$GT$17hd6350ecb602e321aE', symObjAddr: 0x6DB0, symBinAddr: 0x99500, symSize: 0xC0 }
  - { offsetInCU: 0x20326, offset: 0x368836, size: 0x8, addend: 0x0, symName: '__ZN4core3ptr79drop_in_place$LT$borsh_derive..internals..attributes..field..bounds..Bounds$GT$17h5821109bbd90dfc1E', symObjAddr: 0x6E70, symBinAddr: 0x995C0, symSize: 0x190 }
  - { offsetInCU: 0x2085E, offset: 0x368D6E, size: 0x8, addend: 0x0, symName: '__ZN4core3ptr83drop_in_place$LT$borsh_derive..internals..attributes..field..schema..Attributes$GT$17hace6ca767289dfa2E', symObjAddr: 0x7000, symBinAddr: 0x99750, symSize: 0xD0 }
  - { offsetInCU: 0x20B70, offset: 0x369080, size: 0x8, addend: 0x0, symName: '__ZN4core3ptr86drop_in_place$LT$syn..punctuated..Punctuated$LT$syn..pat..Pat$C$syn..token..Or$GT$$GT$17h1c252cd869cc7fe5E', symObjAddr: 0x70D0, symBinAddr: 0x99820, symSize: 0x120 }
  - { offsetInCU: 0x20FB6, offset: 0x3694C6, size: 0x8, addend: 0x0, symName: '__ZN4core3ptr87drop_in_place$LT$core..option..Option$LT$alloc..boxed..Box$LT$syn..pat..Pat$GT$$GT$$GT$17h72bab185bf1bb06eE', symObjAddr: 0x71F0, symBinAddr: 0x99940, symSize: 0x50 }
  - { offsetInCU: 0x21128, offset: 0x369638, size: 0x8, addend: 0x0, symName: '__ZN4core3ptr87drop_in_place$LT$core..option..Option$LT$alloc..boxed..Box$LT$syn..ty..Type$GT$$GT$$GT$17hc260fbb8309ec29fE', symObjAddr: 0x7240, symBinAddr: 0x99990, symSize: 0x50 }
  - { offsetInCU: 0x2129A, offset: 0x3697AA, size: 0x8, addend: 0x0, symName: '__ZN4core3ptr89drop_in_place$LT$core..option..Option$LT$alloc..boxed..Box$LT$syn..expr..Expr$GT$$GT$$GT$17h189e15babfcbbcfaE', symObjAddr: 0x7290, symBinAddr: 0x999E0, symSize: 0x50 }
  - { offsetInCU: 0x2144A, offset: 0x36995A, size: 0x8, addend: 0x0, symName: '__ZN4core3ptr89drop_in_place$LT$syn..punctuated..Punctuated$LT$syn..pat..Pat$C$syn..token..Comma$GT$$GT$17ha82f9ca12786bd54E', symObjAddr: 0x72E0, symBinAddr: 0x99A30, symSize: 0x120 }
  - { offsetInCU: 0x218A7, offset: 0x369DB7, size: 0x8, addend: 0x0, symName: '__ZN4core3ptr89drop_in_place$LT$syn..punctuated..Punctuated$LT$syn..ty..Type$C$syn..token..Comma$GT$$GT$17h6c76e390e4497862E', symObjAddr: 0x7400, symBinAddr: 0x99B50, symSize: 0x120 }
  - { offsetInCU: 0x21CF1, offset: 0x36A201, size: 0x8, addend: 0x0, symName: '__ZN4core3ptr90drop_in_place$LT$core..option..Option$LT$syn..path..AngleBracketedGenericArguments$GT$$GT$17h488f4ff126d02fb4E', symObjAddr: 0x7520, symBinAddr: 0x99C70, symSize: 0x130 }
  - { offsetInCU: 0x2215C, offset: 0x36A66C, size: 0x8, addend: 0x0, symName: '__ZN4core3ptr91drop_in_place$LT$syn..punctuated..Punctuated$LT$syn..expr..Expr$C$syn..token..Comma$GT$$GT$17h5d174cfb4564e731E', symObjAddr: 0x7650, symBinAddr: 0x99DA0, symSize: 0x120 }
  - { offsetInCU: 0x225B9, offset: 0x36AAC9, size: 0x8, addend: 0x0, symName: '__ZN4core3ptr94drop_in_place$LT$syn..punctuated..Punctuated$LT$syn..pat..FieldPat$C$syn..token..Comma$GT$$GT$17h57ec84468c025663E', symObjAddr: 0x7770, symBinAddr: 0x99EC0, symSize: 0xF0 }
  - { offsetInCU: 0x22883, offset: 0x36AD93, size: 0x8, addend: 0x0, symName: '__ZN4core3ptr94drop_in_place$LT$syn..punctuated..Punctuated$LT$syn..ty..BareFnArg$C$syn..token..Comma$GT$$GT$17h93a6df93f58cf1c2E', symObjAddr: 0x7860, symBinAddr: 0x99FB0, symSize: 0xF0 }
  - { offsetInCU: 0x22B4D, offset: 0x36B05D, size: 0x8, addend: 0x0, symName: '__ZN4core3ptr96drop_in_place$LT$core..option..Option$LT$alloc..boxed..Box$LT$syn..path..PathSegment$GT$$GT$$GT$17hfffb4eb6744ee164E', symObjAddr: 0x7950, symBinAddr: 0x9A0A0, symSize: 0x90 }
  - { offsetInCU: 0x22DCF, offset: 0x36B2DF, size: 0x8, addend: 0x0, symName: '__ZN4core3ptr97drop_in_place$LT$syn..punctuated..Punctuated$LT$syn..expr..FieldValue$C$syn..token..Comma$GT$$GT$17hd35fb722be03e3d1E', symObjAddr: 0x79E0, symBinAddr: 0x9A130, symSize: 0xF0 }
  - { offsetInCU: 0x23099, offset: 0x36B5A9, size: 0x8, addend: 0x0, symName: '__ZN4core3ptr98drop_in_place$LT$alloc..vec..Vec$LT$$LP$syn..path..GenericArgument$C$syn..token..Comma$RP$$GT$$GT$17h4fdb1af8625fb77aE', symObjAddr: 0x7AD0, symBinAddr: 0x9A220, symSize: 0xD0 }
  - { offsetInCU: 0x233A2, offset: 0x36B8B2, size: 0x8, addend: 0x0, symName: '__ZN4core3ptr98drop_in_place$LT$syn..punctuated..Punctuated$LT$syn..lifetime..Lifetime$C$syn..token..Plus$GT$$GT$17h0f92166c8c801efbE', symObjAddr: 0x7BA0, symBinAddr: 0x9A2F0, symSize: 0xC0 }
  - { offsetInCU: 0x242F9, offset: 0x36C809, size: 0x8, addend: 0x0, symName: '__ZN4core3ops8function6FnOnce40call_once$u7b$$u7b$vtable.shim$u7d$$u7d$17h35d65893cf6643f3E', symObjAddr: 0x60, symBinAddr: 0x927B0, symSize: 0x110 }
  - { offsetInCU: 0x2448A, offset: 0x36C99A, size: 0x8, addend: 0x0, symName: '__ZN4core3ops8function6FnOnce40call_once$u7b$$u7b$vtable.shim$u7d$$u7d$17h37ac3008507c7ddbE', symObjAddr: 0x170, symBinAddr: 0x928C0, symSize: 0xD0 }
  - { offsetInCU: 0x2456C, offset: 0x36CA7C, size: 0x8, addend: 0x0, symName: '__ZN4core3ops8function6FnOnce40call_once$u7b$$u7b$vtable.shim$u7d$$u7d$17h7357cfafa02898c6E', symObjAddr: 0x240, symBinAddr: 0x92990, symSize: 0x100 }
  - { offsetInCU: 0x246FD, offset: 0x36CC0D, size: 0x8, addend: 0x0, symName: '__ZN4core3ops8function6FnOnce40call_once$u7b$$u7b$vtable.shim$u7d$$u7d$17h96bcfee8ea78aab4E', symObjAddr: 0x340, symBinAddr: 0x92A90, symSize: 0x20 }
  - { offsetInCU: 0x24795, offset: 0x36CCA5, size: 0x8, addend: 0x0, symName: '__ZN4core3ops8function6FnOnce40call_once$u7b$$u7b$vtable.shim$u7d$$u7d$17hc3240b5129abe2edE', symObjAddr: 0x360, symBinAddr: 0x92AB0, symSize: 0xD0 }
  - { offsetInCU: 0x24846, offset: 0x36CD56, size: 0x8, addend: 0x0, symName: __ZN4core3ops8function6FnOnce9call_once17h3dff292d4fce91e3E, symObjAddr: 0x430, symBinAddr: 0x92B80, symSize: 0x2A0 }
  - { offsetInCU: 0x2C786, offset: 0x374C96, size: 0x8, addend: 0x0, symName: __ZN12borsh_derive9internals10attributes5field10Attributes5parse17h6358d409b016278bE, symObjAddr: 0x8BE0, symBinAddr: 0x9B330, symSize: 0x4B0 }
  - { offsetInCU: 0x2CEB4, offset: 0x3753C4, size: 0x8, addend: 0x0, symName: __ZN12borsh_derive9internals10attributes5field10Attributes19needs_bounds_derive17hb9e39f7ccebd0611E, symObjAddr: 0x9090, symBinAddr: 0x9B7E0, symSize: 0x100 }
  - { offsetInCU: 0x8027, offset: 0x381316, size: 0x8, addend: 0x0, symName: '__ZN4core3ptr100drop_in_place$LT$core..option..Option$LT$alloc..boxed..Box$LT$syn..path..GenericArgument$GT$$GT$$GT$17h513ef87717aedfddE', symObjAddr: 0x150, symBinAddr: 0x9B8E0, symSize: 0x50 }
  - { offsetInCU: 0x81F6, offset: 0x3814E5, size: 0x8, addend: 0x0, symName: '__ZN4core3ptr102drop_in_place$LT$syn..punctuated..Punctuated$LT$syn..path..GenericArgument$C$syn..token..Comma$GT$$GT$17ha5e403e03e446464E', symObjAddr: 0x1A0, symBinAddr: 0x9B930, symSize: 0xF0 }
  - { offsetInCU: 0x84DF, offset: 0x3817CE, size: 0x8, addend: 0x0, symName: '__ZN4core3ptr103drop_in_place$LT$core..option..Option$LT$alloc..boxed..Box$LT$syn..generics..TypeParamBound$GT$$GT$$GT$17h0d79b9ffb4171f90E', symObjAddr: 0x290, symBinAddr: 0x9BA20, symSize: 0x50 }
  - { offsetInCU: 0x87A6, offset: 0x381A95, size: 0x8, addend: 0x0, symName: '__ZN4core3ptr103drop_in_place$LT$core..option..Option$LT$alloc..boxed..Box$LT$syn..generics..WherePredicate$GT$$GT$$GT$17h5eae77184a584f9cE', symObjAddr: 0x2E0, symBinAddr: 0x9BA70, symSize: 0xD0 }
  - { offsetInCU: 0x8B39, offset: 0x381E28, size: 0x8, addend: 0x0, symName: '__ZN4core3ptr103drop_in_place$LT$syn..punctuated..Punctuated$LT$syn..generics..GenericParam$C$syn..token..Comma$GT$$GT$17h1d35d7d5913e8beaE', symObjAddr: 0x3B0, symBinAddr: 0x9BB40, symSize: 0xF0 }
  - { offsetInCU: 0x8FFC, offset: 0x3822EB, size: 0x8, addend: 0x0, symName: '__ZN4core3ptr104drop_in_place$LT$syn..punctuated..Punctuated$LT$syn..generics..TypeParamBound$C$syn..token..Plus$GT$$GT$17h44083f960cd822d7E', symObjAddr: 0x4A0, symBinAddr: 0x9BC30, symSize: 0x260 }
  - { offsetInCU: 0x99B0, offset: 0x382C9F, size: 0x8, addend: 0x0, symName: '__ZN4core3ptr107drop_in_place$LT$core..option..Option$LT$borsh_derive..internals..attributes..field..bounds..Bounds$GT$$GT$17h2d5529b9a1156344E', symObjAddr: 0x700, symBinAddr: 0x9BE90, symSize: 0x1A0 }
  - { offsetInCU: 0x9EAC, offset: 0x38319B, size: 0x8, addend: 0x0, symName: '__ZN4core3ptr122drop_in_place$LT$core..option..Option$LT$borsh_derive..internals..attributes..field..schema..with_funcs..WithFuncs$GT$$GT$17h82e7da9bf82a9cb3E', symObjAddr: 0x8A0, symBinAddr: 0x9C030, symSize: 0x50 }
  - { offsetInCU: 0x9FA2, offset: 0x383291, size: 0x8, addend: 0x0, symName: '__ZN4core3ptr34drop_in_place$LT$syn..lit..Lit$GT$17h3e4ef73f9d6504faE', symObjAddr: 0x8F0, symBinAddr: 0x9C080, symSize: 0x110 }
  - { offsetInCU: 0xA4FB, offset: 0x3837EA, size: 0x8, addend: 0x0, symName: '__ZN4core3ptr34drop_in_place$LT$syn..pat..Pat$GT$17hf99e10cab020967aE', symObjAddr: 0xA00, symBinAddr: 0x9C190, symSize: 0xF00 }
  - { offsetInCU: 0xDF9E, offset: 0x38728D, size: 0x8, addend: 0x0, symName: '__ZN4core3ptr34drop_in_place$LT$syn..ty..Type$GT$17hc9a287e6412cf4a5E', symObjAddr: 0x1900, symBinAddr: 0x9D090, symSize: 0x5E0 }
  - { offsetInCU: 0xF8E8, offset: 0x388BD7, size: 0x8, addend: 0x0, symName: '__ZN4core3ptr36drop_in_place$LT$syn..expr..Expr$GT$17hbea3b059aebc6b0dE', symObjAddr: 0x1EE0, symBinAddr: 0x9D670, symSize: 0x2830 }
  - { offsetInCU: 0x1935D, offset: 0x39264C, size: 0x8, addend: 0x0, symName: '__ZN4core3ptr36drop_in_place$LT$syn..mac..Macro$GT$17haa1481cb4fe5d660E', symObjAddr: 0x4710, symBinAddr: 0x9FEA0, symSize: 0x110 }
  - { offsetInCU: 0x197E2, offset: 0x392AD1, size: 0x8, addend: 0x0, symName: '__ZN4core3ptr36drop_in_place$LT$syn..path..Path$GT$17hb26ddc646911d9caE', symObjAddr: 0x4820, symBinAddr: 0x9FFB0, symSize: 0x240 }
  - { offsetInCU: 0x1A22B, offset: 0x39351A, size: 0x8, addend: 0x0, symName: '__ZN4core3ptr37drop_in_place$LT$syn..stmt..Block$GT$17h9bb04bc412e892c1E', symObjAddr: 0x4A60, symBinAddr: 0xA01F0, symSize: 0xD0 }
  - { offsetInCU: 0x1A50D, offset: 0x3937FC, size: 0x8, addend: 0x0, symName: '__ZN4core3ptr38drop_in_place$LT$syn..error..Error$GT$17h6faeff159aa80c91E', symObjAddr: 0x4B30, symBinAddr: 0xA02C0, symSize: 0x80 }
  - { offsetInCU: 0x1A7DF, offset: 0x393ACE, size: 0x8, addend: 0x0, symName: '__ZN4core3ptr38drop_in_place$LT$syn..expr..Member$GT$17h54f73fbfaef06080E', symObjAddr: 0x4BB0, symBinAddr: 0xA0340, symSize: 0x30 }
  - { offsetInCU: 0x1A8DC, offset: 0x393BCB, size: 0x8, addend: 0x0, symName: '__ZN4core3ptr39drop_in_place$LT$proc_macro2..Ident$GT$17h9d68045e9dec4a40E', symObjAddr: 0x4BE0, symBinAddr: 0xA0370, symSize: 0x30 }
  - { offsetInCU: 0x1A9BA, offset: 0x393CA9, size: 0x8, addend: 0x0, symName: '__ZN4core3ptr40drop_in_place$LT$syn..ty..ReturnType$GT$17h4a68005bbc507217E', symObjAddr: 0x4C10, symBinAddr: 0xA03A0, symSize: 0x50 }
  - { offsetInCU: 0x1AB2C, offset: 0x393E1B, size: 0x8, addend: 0x0, symName: '__ZN4core3ptr41drop_in_place$LT$syn..expr..ExprConst$GT$17h454a2cb9df850c24E', symObjAddr: 0x4C60, symBinAddr: 0xA03F0, symSize: 0x180 }
  - { offsetInCU: 0x1B0B5, offset: 0x3943A4, size: 0x8, addend: 0x0, symName: '__ZN4core3ptr44drop_in_place$LT$syn..lifetime..Lifetime$GT$17h9c301554489a697eE', symObjAddr: 0x4DE0, symBinAddr: 0xA0570, symSize: 0x30 }
  - { offsetInCU: 0x1B2E8, offset: 0x3945D7, size: 0x8, addend: 0x0, symName: '__ZN4core3ptr45drop_in_place$LT$proc_macro2..TokenStream$GT$17h86cac592f04212eaE', symObjAddr: 0x4E10, symBinAddr: 0xA05A0, symSize: 0x140 }
  - { offsetInCU: 0x1B757, offset: 0x394A46, size: 0x8, addend: 0x0, symName: '__ZN4core3ptr45drop_in_place$LT$syn..generics..TypeParam$GT$17he645f7cc80b7ae11E', symObjAddr: 0x4F50, symBinAddr: 0xA06E0, symSize: 0x230 }
  - { offsetInCU: 0x1BF87, offset: 0x395276, size: 0x8, addend: 0x0, symName: '__ZN4core3ptr46drop_in_place$LT$syn..generics..ConstParam$GT$17hc19d519d6441178aE', symObjAddr: 0x5180, symBinAddr: 0xA0910, symSize: 0x150 }
  - { offsetInCU: 0x1C3E5, offset: 0x3956D4, size: 0x8, addend: 0x0, symName: '__ZN4core3ptr47drop_in_place$LT$syn..generics..WhereClause$GT$17h973d7091013f7af5E', symObjAddr: 0x52D0, symBinAddr: 0xA0A60, symSize: 0x80 }
  - { offsetInCU: 0x1C669, offset: 0x395958, size: 0x8, addend: 0x0, symName: '__ZN4core3ptr47drop_in_place$LT$syn..path..GenericArgument$GT$17ha7ad17cb38a1a5afE', symObjAddr: 0x5350, symBinAddr: 0xA0AE0, symSize: 0x460 }
  - { offsetInCU: 0x1D372, offset: 0x396661, size: 0x8, addend: 0x0, symName: '__ZN4core3ptr49drop_in_place$LT$syn..generics..LifetimeParam$GT$17h47d9f9e81b35a3dcE', symObjAddr: 0x57B0, symBinAddr: 0xA0F40, symSize: 0xF0 }
  - { offsetInCU: 0x1D760, offset: 0x396A4F, size: 0x8, addend: 0x0, symName: '__ZN4core3ptr50drop_in_place$LT$syn..generics..TypeParamBound$GT$17h7c1195cdfd37b73cE', symObjAddr: 0x58A0, symBinAddr: 0xA1030, symSize: 0xA0 }
  - { offsetInCU: 0x1D8C7, offset: 0x396BB6, size: 0x8, addend: 0x0, symName: '__ZN4core3ptr58drop_in_place$LT$alloc..vec..Vec$LT$syn..expr..Arm$GT$$GT$17ha648d1896dec8b4dE', symObjAddr: 0x5940, symBinAddr: 0xA10D0, symSize: 0xD0 }
  - { offsetInCU: 0x1DB54, offset: 0x396E43, size: 0x8, addend: 0x0, symName: '__ZN4core3ptr59drop_in_place$LT$alloc..boxed..Box$LT$syn..pat..Pat$GT$$GT$17hfa860577679c86cbE', symObjAddr: 0x5A10, symBinAddr: 0xA11A0, symSize: 0x50 }
  - { offsetInCU: 0x1DCAF, offset: 0x396F9E, size: 0x8, addend: 0x0, symName: '__ZN4core3ptr59drop_in_place$LT$alloc..boxed..Box$LT$syn..ty..Type$GT$$GT$17hce35c4b60063cd1fE', symObjAddr: 0x5A60, symBinAddr: 0xA11F0, symSize: 0x50 }
  - { offsetInCU: 0x1DE0A, offset: 0x3970F9, size: 0x8, addend: 0x0, symName: '__ZN4core3ptr61drop_in_place$LT$alloc..boxed..Box$LT$syn..expr..Expr$GT$$GT$17h35b8f1409a9ab85bE', symObjAddr: 0x5AB0, symBinAddr: 0xA1240, symSize: 0x50 }
  - { offsetInCU: 0x1DF65, offset: 0x397254, size: 0x8, addend: 0x0, symName: '__ZN4core3ptr61drop_in_place$LT$syn..path..ParenthesizedGenericArguments$GT$17h6d1a096952b83c04E', symObjAddr: 0x5B00, symBinAddr: 0xA1290, symSize: 0x170 }
  - { offsetInCU: 0x1E55E, offset: 0x39784D, size: 0x8, addend: 0x0, symName: '__ZN4core3ptr62drop_in_place$LT$alloc..vec..Vec$LT$proc_macro2..Ident$GT$$GT$17ha73e327f55587d31E', symObjAddr: 0x5C70, symBinAddr: 0xA1400, symSize: 0x80 }
  - { offsetInCU: 0x1E7C9, offset: 0x397AB8, size: 0x8, addend: 0x0, symName: '__ZN4core3ptr63drop_in_place$LT$alloc..boxed..Box$LT$syn..lit..LitRepr$GT$$GT$17h4a54b8c5cd42faf5E', symObjAddr: 0x5CF0, symBinAddr: 0xA1480, symSize: 0x60 }
  - { offsetInCU: 0x1EABE, offset: 0x397DAD, size: 0x8, addend: 0x0, symName: '__ZN4core3ptr64drop_in_place$LT$alloc..boxed..Box$LT$syn..pat..FieldPat$GT$$GT$17hf3d389ef82c9f10bE', symObjAddr: 0x5D50, symBinAddr: 0xA14E0, symSize: 0x140 }
  - { offsetInCU: 0x1F19D, offset: 0x39848C, size: 0x8, addend: 0x0, symName: '__ZN4core3ptr64drop_in_place$LT$alloc..boxed..Box$LT$syn..ty..BareFnArg$GT$$GT$17hc862ec57eebf1a54E', symObjAddr: 0x5E90, symBinAddr: 0xA1620, symSize: 0x140 }
  - { offsetInCU: 0x1F6F5, offset: 0x3989E4, size: 0x8, addend: 0x0, symName: '__ZN4core3ptr65drop_in_place$LT$core..option..Option$LT$syn..expr..Label$GT$$GT$17hfc626d17a1d0054dE', symObjAddr: 0x5FD0, symBinAddr: 0xA1760, symSize: 0x30 }
  - { offsetInCU: 0x1F830, offset: 0x398B1F, size: 0x8, addend: 0x0, symName: '__ZN4core3ptr66drop_in_place$LT$core..option..Option$LT$syn..pat..PatRest$GT$$GT$17hba8f4d9198c0dabcE', symObjAddr: 0x6000, symBinAddr: 0xA1790, symSize: 0xE0 }
  - { offsetInCU: 0x1FAE8, offset: 0x398DD7, size: 0x8, addend: 0x0, symName: '__ZN4core3ptr66drop_in_place$LT$syn..punctuated..Iter$LT$syn..data..Field$GT$$GT$17h530165c409e43d07E.llvm.11370482459210179533', symObjAddr: 0x60E0, symBinAddr: 0xA1870, symSize: 0x30 }
  - { offsetInCU: 0x1FC2D, offset: 0x398F1C, size: 0x8, addend: 0x0, symName: '__ZN4core3ptr67drop_in_place$LT$alloc..boxed..Box$LT$syn..expr..FieldValue$GT$$GT$17h1fe00f656b5bc41eE', symObjAddr: 0x6110, symBinAddr: 0xA18A0, symSize: 0x140 }
  - { offsetInCU: 0x20184, offset: 0x399473, size: 0x8, addend: 0x0, symName: '__ZN4core3ptr68drop_in_place$LT$alloc..vec..Vec$LT$proc_macro2..TokenStream$GT$$GT$17h2d99ab5e666e0edfE', symObjAddr: 0x6250, symBinAddr: 0xA19E0, symSize: 0xC0 }
  - { offsetInCU: 0x20509, offset: 0x3997F8, size: 0x8, addend: 0x0, symName: '__ZN4core3ptr68drop_in_place$LT$borsh_derive..internals..generics..FindTyParams$GT$17h9dff03c3f81b2b80E', symObjAddr: 0x6310, symBinAddr: 0xA1AA0, symSize: 0xA0 }
  - { offsetInCU: 0x208ED, offset: 0x399BDC, size: 0x8, addend: 0x0, symName: '__ZN4core3ptr68drop_in_place$LT$core..option..Option$LT$syn..expr..ExprPath$GT$$GT$17h195f3880952da452E', symObjAddr: 0x63B0, symBinAddr: 0xA1B40, symSize: 0x150 }
  - { offsetInCU: 0x20E39, offset: 0x39A128, size: 0x8, addend: 0x0, symName: '__ZN4core3ptr70drop_in_place$LT$core..option..Option$LT$syn..ty..BareVariadic$GT$$GT$17hf6aaee8d5112d370E', symObjAddr: 0x6500, symBinAddr: 0xA1C90, symSize: 0x120 }
  - { offsetInCU: 0x2139A, offset: 0x39A689, size: 0x8, addend: 0x0, symName: '__ZN4core3ptr72drop_in_place$LT$alloc..boxed..Box$LT$syn..path..GenericArgument$GT$$GT$17hc3f5a13c594d53a1E', symObjAddr: 0x6620, symBinAddr: 0xA1DB0, symSize: 0x2B0 }
  - { offsetInCU: 0x21D85, offset: 0x39B074, size: 0x8, addend: 0x0, symName: '__ZN4core3ptr72drop_in_place$LT$core..option..Option$LT$syn..lifetime..Lifetime$GT$$GT$17hf02c2376eaf0703fE', symObjAddr: 0x68D0, symBinAddr: 0xA2060, symSize: 0x30 }
  - { offsetInCU: 0x21EA1, offset: 0x39B190, size: 0x8, addend: 0x0, symName: '__ZN4core3ptr73drop_in_place$LT$alloc..boxed..Box$LT$syn..generics..GenericParam$GT$$GT$17hbb1f35d2f323630eE', symObjAddr: 0x6900, symBinAddr: 0xA2090, symSize: 0x80 }
  - { offsetInCU: 0x22019, offset: 0x39B308, size: 0x8, addend: 0x0, symName: '__ZN4core3ptr73drop_in_place$LT$alloc..vec..Vec$LT$syn..generics..WherePredicate$GT$$GT$17h7c9081113585d09cE', symObjAddr: 0x6980, symBinAddr: 0xA2110, symSize: 0xD0 }
  - { offsetInCU: 0x222A6, offset: 0x39B595, size: 0x8, addend: 0x0, symName: '__ZN4core3ptr75drop_in_place$LT$alloc..boxed..Box$LT$syn..generics..TypeParamBound$GT$$GT$17h06d020fd356eb6c8E', symObjAddr: 0x6A50, symBinAddr: 0xA21E0, symSize: 0x190 }
  - { offsetInCU: 0x22942, offset: 0x39BC31, size: 0x8, addend: 0x0, symName: '__ZN4core3ptr75drop_in_place$LT$core..option..Option$LT$syn..generics..WhereClause$GT$$GT$17h8a92b83e49c22b8cE', symObjAddr: 0x6BE0, symBinAddr: 0xA2370, symSize: 0x90 }
  - { offsetInCU: 0x22C17, offset: 0x39BF06, size: 0x8, addend: 0x0, symName: '__ZN4core3ptr83drop_in_place$LT$borsh_derive..internals..attributes..field..schema..Attributes$GT$17hace6ca767289dfa2E', symObjAddr: 0x6C70, symBinAddr: 0xA2400, symSize: 0xC0 }
  - { offsetInCU: 0x22EEC, offset: 0x39C1DB, size: 0x8, addend: 0x0, symName: '__ZN4core3ptr86drop_in_place$LT$syn..punctuated..Punctuated$LT$syn..pat..Pat$C$syn..token..Or$GT$$GT$17h1c252cd869cc7fe5E', symObjAddr: 0x6D30, symBinAddr: 0xA24C0, symSize: 0x120 }
  - { offsetInCU: 0x23332, offset: 0x39C621, size: 0x8, addend: 0x0, symName: '__ZN4core3ptr87drop_in_place$LT$core..option..Option$LT$alloc..boxed..Box$LT$syn..pat..Pat$GT$$GT$$GT$17h72bab185bf1bb06eE', symObjAddr: 0x6E50, symBinAddr: 0xA25E0, symSize: 0x50 }
  - { offsetInCU: 0x234A4, offset: 0x39C793, size: 0x8, addend: 0x0, symName: '__ZN4core3ptr87drop_in_place$LT$core..option..Option$LT$alloc..boxed..Box$LT$syn..ty..Type$GT$$GT$$GT$17hc260fbb8309ec29fE', symObjAddr: 0x6EA0, symBinAddr: 0xA2630, symSize: 0x50 }
  - { offsetInCU: 0x23616, offset: 0x39C905, size: 0x8, addend: 0x0, symName: '__ZN4core3ptr89drop_in_place$LT$core..option..Option$LT$alloc..boxed..Box$LT$syn..expr..Expr$GT$$GT$$GT$17h189e15babfcbbcfaE', symObjAddr: 0x6EF0, symBinAddr: 0xA2680, symSize: 0x50 }
  - { offsetInCU: 0x237C6, offset: 0x39CAB5, size: 0x8, addend: 0x0, symName: '__ZN4core3ptr89drop_in_place$LT$syn..punctuated..Punctuated$LT$syn..pat..Pat$C$syn..token..Comma$GT$$GT$17ha82f9ca12786bd54E', symObjAddr: 0x6F40, symBinAddr: 0xA26D0, symSize: 0x120 }
  - { offsetInCU: 0x23C61, offset: 0x39CF50, size: 0x8, addend: 0x0, symName: '__ZN4core3ptr91drop_in_place$LT$syn..punctuated..Punctuated$LT$syn..expr..Expr$C$syn..token..Comma$GT$$GT$17h5d174cfb4564e731E', symObjAddr: 0x7060, symBinAddr: 0xA27F0, symSize: 0x120 }
  - { offsetInCU: 0x240BE, offset: 0x39D3AD, size: 0x8, addend: 0x0, symName: '__ZN4core3ptr94drop_in_place$LT$syn..punctuated..Punctuated$LT$syn..pat..FieldPat$C$syn..token..Comma$GT$$GT$17h57ec84468c025663E', symObjAddr: 0x7180, symBinAddr: 0xA2910, symSize: 0xF0 }
  - { offsetInCU: 0x24388, offset: 0x39D677, size: 0x8, addend: 0x0, symName: '__ZN4core3ptr94drop_in_place$LT$syn..punctuated..Punctuated$LT$syn..ty..BareFnArg$C$syn..token..Comma$GT$$GT$17h93a6df93f58cf1c2E', symObjAddr: 0x7270, symBinAddr: 0xA2A00, symSize: 0xF0 }
  - { offsetInCU: 0x24652, offset: 0x39D941, size: 0x8, addend: 0x0, symName: '__ZN4core3ptr96drop_in_place$LT$core..option..Option$LT$alloc..boxed..Box$LT$syn..path..PathSegment$GT$$GT$$GT$17hfffb4eb6744ee164E', symObjAddr: 0x7360, symBinAddr: 0xA2AF0, symSize: 0x180 }
  - { offsetInCU: 0x24CE3, offset: 0x39DFD2, size: 0x8, addend: 0x0, symName: '__ZN4core3ptr97drop_in_place$LT$syn..punctuated..Punctuated$LT$syn..expr..FieldValue$C$syn..token..Comma$GT$$GT$17hd35fb722be03e3d1E', symObjAddr: 0x74E0, symBinAddr: 0xA2C70, symSize: 0xF0 }
  - { offsetInCU: 0x25029, offset: 0x39E318, size: 0x8, addend: 0x0, symName: '__ZN4core3ptr98drop_in_place$LT$syn..punctuated..Punctuated$LT$syn..lifetime..Lifetime$C$syn..token..Plus$GT$$GT$17h0f92166c8c801efbE', symObjAddr: 0x75D0, symBinAddr: 0xA2D60, symSize: 0xC0 }
  - { offsetInCU: 0x27F67, offset: 0x3A1256, size: 0x8, addend: 0x0, symName: __ZN12borsh_derive9internals6schema18filter_used_params17h052e258f183a5933E, symObjAddr: 0x8390, symBinAddr: 0xA3AE0, symSize: 0x410 }
  - { offsetInCU: 0x28666, offset: 0x3A1955, size: 0x8, addend: 0x0, symName: __ZN12borsh_derive9internals6schema11visit_field17ha03bd0fcd63e9aeaE, symObjAddr: 0x87A0, symBinAddr: 0xA3EF0, symSize: 0x360 }
  - { offsetInCU: 0x28991, offset: 0x3A1C80, size: 0x8, addend: 0x0, symName: __ZN12borsh_derive9internals6schema19visit_struct_fields17h8298cf33c9f42682E, symObjAddr: 0x8B00, symBinAddr: 0xA4250, symSize: 0x1E0 }
  - { offsetInCU: 0x29104, offset: 0x3A23F3, size: 0x8, addend: 0x0, symName: __ZN12borsh_derive9internals6schema33visit_struct_fields_unconditional17h9032ddb394ec3122E, symObjAddr: 0x8CE0, symBinAddr: 0xA4430, symSize: 0x144 }
  - { offsetInCU: 0x2B716, offset: 0x3A4A05, size: 0x8, addend: 0x0, symName: __ZN12borsh_derive9internals6schema14GenericsOutput6result17he4dd80ce9f4f5a57E, symObjAddr: 0x76D0, symBinAddr: 0xA2E20, symSize: 0xCC0 }
  - { offsetInCU: 0x1E, offset: 0x3A88D0, size: 0x8, addend: 0x0, symName: '__ZN4core3ptr100drop_in_place$LT$core..option..Option$LT$alloc..boxed..Box$LT$syn..path..GenericArgument$GT$$GT$$GT$17h513ef87717aedfddE', symObjAddr: 0x0, symBinAddr: 0xA4580, symSize: 0x50 }
  - { offsetInCU: 0x1796, offset: 0x3AA048, size: 0x8, addend: 0x0, symName: '__ZN4core3ptr100drop_in_place$LT$core..option..Option$LT$alloc..boxed..Box$LT$syn..path..GenericArgument$GT$$GT$$GT$17h513ef87717aedfddE', symObjAddr: 0x0, symBinAddr: 0xA4580, symSize: 0x50 }
  - { offsetInCU: 0x1965, offset: 0x3AA217, size: 0x8, addend: 0x0, symName: '__ZN4core3ptr102drop_in_place$LT$syn..punctuated..Punctuated$LT$syn..path..GenericArgument$C$syn..token..Comma$GT$$GT$17ha5e403e03e446464E', symObjAddr: 0x50, symBinAddr: 0xA45D0, symSize: 0xF0 }
  - { offsetInCU: 0x1C4E, offset: 0x3AA500, size: 0x8, addend: 0x0, symName: '__ZN4core3ptr103drop_in_place$LT$core..option..Option$LT$alloc..boxed..Box$LT$syn..generics..TypeParamBound$GT$$GT$$GT$17h0d79b9ffb4171f90E', symObjAddr: 0x140, symBinAddr: 0xA46C0, symSize: 0x50 }
  - { offsetInCU: 0x1F15, offset: 0x3AA7C7, size: 0x8, addend: 0x0, symName: '__ZN4core3ptr103drop_in_place$LT$core..option..Option$LT$alloc..boxed..Box$LT$syn..generics..WherePredicate$GT$$GT$$GT$17h5eae77184a584f9cE', symObjAddr: 0x190, symBinAddr: 0xA4710, symSize: 0xD0 }
  - { offsetInCU: 0x22A8, offset: 0x3AAB5A, size: 0x8, addend: 0x0, symName: '__ZN4core3ptr103drop_in_place$LT$syn..punctuated..Punctuated$LT$syn..generics..GenericParam$C$syn..token..Comma$GT$$GT$17h1d35d7d5913e8beaE', symObjAddr: 0x260, symBinAddr: 0xA47E0, symSize: 0xF0 }
  - { offsetInCU: 0x276B, offset: 0x3AB01D, size: 0x8, addend: 0x0, symName: '__ZN4core3ptr104drop_in_place$LT$syn..punctuated..Punctuated$LT$syn..generics..TypeParamBound$C$syn..token..Plus$GT$$GT$17h44083f960cd822d7E', symObjAddr: 0x350, symBinAddr: 0xA48D0, symSize: 0x260 }
  - { offsetInCU: 0x315D, offset: 0x3ABA0F, size: 0x8, addend: 0x0, symName: '__ZN4core3ptr34drop_in_place$LT$syn..lit..Lit$GT$17h3e4ef73f9d6504faE', symObjAddr: 0x5B0, symBinAddr: 0xA4B30, symSize: 0x110 }
  - { offsetInCU: 0x36B6, offset: 0x3ABF68, size: 0x8, addend: 0x0, symName: '__ZN4core3ptr34drop_in_place$LT$syn..pat..Pat$GT$17hf99e10cab020967aE', symObjAddr: 0x6C0, symBinAddr: 0xA4C40, symSize: 0xF00 }
  - { offsetInCU: 0x7159, offset: 0x3AFA0B, size: 0x8, addend: 0x0, symName: '__ZN4core3ptr34drop_in_place$LT$syn..ty..Type$GT$17hc9a287e6412cf4a5E', symObjAddr: 0x15C0, symBinAddr: 0xA5B40, symSize: 0x5E0 }
  - { offsetInCU: 0x8AA3, offset: 0x3B1355, size: 0x8, addend: 0x0, symName: '__ZN4core3ptr36drop_in_place$LT$syn..expr..Expr$GT$17hbea3b059aebc6b0dE', symObjAddr: 0x1BA0, symBinAddr: 0xA6120, symSize: 0x2830 }
  - { offsetInCU: 0x12518, offset: 0x3BADCA, size: 0x8, addend: 0x0, symName: '__ZN4core3ptr36drop_in_place$LT$syn..mac..Macro$GT$17haa1481cb4fe5d660E', symObjAddr: 0x43D0, symBinAddr: 0xA8950, symSize: 0x110 }
  - { offsetInCU: 0x1299D, offset: 0x3BB24F, size: 0x8, addend: 0x0, symName: '__ZN4core3ptr36drop_in_place$LT$syn..path..Path$GT$17hb26ddc646911d9caE', symObjAddr: 0x44E0, symBinAddr: 0xA8A60, symSize: 0x240 }
  - { offsetInCU: 0x133E6, offset: 0x3BBC98, size: 0x8, addend: 0x0, symName: '__ZN4core3ptr37drop_in_place$LT$syn..stmt..Block$GT$17h9bb04bc412e892c1E', symObjAddr: 0x4720, symBinAddr: 0xA8CA0, symSize: 0xD0 }
  - { offsetInCU: 0x1368A, offset: 0x3BBF3C, size: 0x8, addend: 0x0, symName: '__ZN4core3ptr38drop_in_place$LT$syn..expr..Member$GT$17h54f73fbfaef06080E', symObjAddr: 0x47F0, symBinAddr: 0xA8D70, symSize: 0x30 }
  - { offsetInCU: 0x13787, offset: 0x3BC039, size: 0x8, addend: 0x0, symName: '__ZN4core3ptr39drop_in_place$LT$proc_macro2..Ident$GT$17h9d68045e9dec4a40E', symObjAddr: 0x4820, symBinAddr: 0xA8DA0, symSize: 0x30 }
  - { offsetInCU: 0x13865, offset: 0x3BC117, size: 0x8, addend: 0x0, symName: '__ZN4core3ptr40drop_in_place$LT$syn..ty..ReturnType$GT$17h4a68005bbc507217E', symObjAddr: 0x4850, symBinAddr: 0xA8DD0, symSize: 0x50 }
  - { offsetInCU: 0x139D7, offset: 0x3BC289, size: 0x8, addend: 0x0, symName: '__ZN4core3ptr41drop_in_place$LT$syn..expr..ExprConst$GT$17h454a2cb9df850c24E', symObjAddr: 0x48A0, symBinAddr: 0xA8E20, symSize: 0x180 }
  - { offsetInCU: 0x13F60, offset: 0x3BC812, size: 0x8, addend: 0x0, symName: '__ZN4core3ptr44drop_in_place$LT$syn..generics..Generics$GT$17he55a6c2a0d8d138cE', symObjAddr: 0x4A20, symBinAddr: 0xA8FA0, symSize: 0x40 }
  - { offsetInCU: 0x13F7D, offset: 0x3BC82F, size: 0x8, addend: 0x0, symName: '__ZN4core3ptr44drop_in_place$LT$syn..lifetime..Lifetime$GT$17h9c301554489a697eE', symObjAddr: 0x4A60, symBinAddr: 0xA8FE0, symSize: 0x30 }
  - { offsetInCU: 0x141B0, offset: 0x3BCA62, size: 0x8, addend: 0x0, symName: '__ZN4core3ptr45drop_in_place$LT$proc_macro2..TokenStream$GT$17h86cac592f04212eaE', symObjAddr: 0x4A90, symBinAddr: 0xA9010, symSize: 0x140 }
  - { offsetInCU: 0x1461F, offset: 0x3BCED1, size: 0x8, addend: 0x0, symName: '__ZN4core3ptr45drop_in_place$LT$syn..generics..TypeParam$GT$17he645f7cc80b7ae11E', symObjAddr: 0x4BD0, symBinAddr: 0xA9150, symSize: 0x230 }
  - { offsetInCU: 0x14E4F, offset: 0x3BD701, size: 0x8, addend: 0x0, symName: '__ZN4core3ptr46drop_in_place$LT$syn..generics..ConstParam$GT$17hc19d519d6441178aE', symObjAddr: 0x4E00, symBinAddr: 0xA9380, symSize: 0x150 }
  - { offsetInCU: 0x152AD, offset: 0x3BDB5F, size: 0x8, addend: 0x0, symName: '__ZN4core3ptr47drop_in_place$LT$syn..generics..WhereClause$GT$17h973d7091013f7af5E', symObjAddr: 0x4F50, symBinAddr: 0xA94D0, symSize: 0x80 }
  - { offsetInCU: 0x15531, offset: 0x3BDDE3, size: 0x8, addend: 0x0, symName: '__ZN4core3ptr47drop_in_place$LT$syn..path..GenericArgument$GT$17ha7ad17cb38a1a5afE', symObjAddr: 0x4FD0, symBinAddr: 0xA9550, symSize: 0x460 }
  - { offsetInCU: 0x1623A, offset: 0x3BEAEC, size: 0x8, addend: 0x0, symName: '__ZN4core3ptr49drop_in_place$LT$syn..generics..LifetimeParam$GT$17h47d9f9e81b35a3dcE', symObjAddr: 0x5430, symBinAddr: 0xA99B0, symSize: 0xF0 }
  - { offsetInCU: 0x16628, offset: 0x3BEEDA, size: 0x8, addend: 0x0, symName: '__ZN4core3ptr50drop_in_place$LT$syn..generics..TypeParamBound$GT$17h7c1195cdfd37b73cE', symObjAddr: 0x5520, symBinAddr: 0xA9AA0, symSize: 0xA0 }
  - { offsetInCU: 0x1678F, offset: 0x3BF041, size: 0x8, addend: 0x0, symName: '__ZN4core3ptr58drop_in_place$LT$alloc..vec..Vec$LT$syn..expr..Arm$GT$$GT$17ha648d1896dec8b4dE', symObjAddr: 0x55C0, symBinAddr: 0xA9B40, symSize: 0xD0 }
  - { offsetInCU: 0x16A1C, offset: 0x3BF2CE, size: 0x8, addend: 0x0, symName: '__ZN4core3ptr59drop_in_place$LT$alloc..boxed..Box$LT$syn..pat..Pat$GT$$GT$17hfa860577679c86cbE', symObjAddr: 0x5690, symBinAddr: 0xA9C10, symSize: 0x50 }
  - { offsetInCU: 0x16B77, offset: 0x3BF429, size: 0x8, addend: 0x0, symName: '__ZN4core3ptr59drop_in_place$LT$alloc..boxed..Box$LT$syn..ty..Type$GT$$GT$17hce35c4b60063cd1fE', symObjAddr: 0x56E0, symBinAddr: 0xA9C60, symSize: 0x50 }
  - { offsetInCU: 0x16CD2, offset: 0x3BF584, size: 0x8, addend: 0x0, symName: '__ZN4core3ptr61drop_in_place$LT$alloc..boxed..Box$LT$syn..expr..Expr$GT$$GT$17h35b8f1409a9ab85bE', symObjAddr: 0x5730, symBinAddr: 0xA9CB0, symSize: 0x50 }
  - { offsetInCU: 0x16E2D, offset: 0x3BF6DF, size: 0x8, addend: 0x0, symName: '__ZN4core3ptr61drop_in_place$LT$syn..path..ParenthesizedGenericArguments$GT$17h6d1a096952b83c04E', symObjAddr: 0x5780, symBinAddr: 0xA9D00, symSize: 0x170 }
  - { offsetInCU: 0x17407, offset: 0x3BFCB9, size: 0x8, addend: 0x0, symName: '__ZN4core3ptr63drop_in_place$LT$alloc..boxed..Box$LT$syn..lit..LitRepr$GT$$GT$17h4a54b8c5cd42faf5E', symObjAddr: 0x58F0, symBinAddr: 0xA9E70, symSize: 0x60 }
  - { offsetInCU: 0x176FC, offset: 0x3BFFAE, size: 0x8, addend: 0x0, symName: '__ZN4core3ptr64drop_in_place$LT$alloc..boxed..Box$LT$syn..pat..FieldPat$GT$$GT$17hf3d389ef82c9f10bE', symObjAddr: 0x5950, symBinAddr: 0xA9ED0, symSize: 0x140 }
  - { offsetInCU: 0x17DDB, offset: 0x3C068D, size: 0x8, addend: 0x0, symName: '__ZN4core3ptr64drop_in_place$LT$alloc..boxed..Box$LT$syn..ty..BareFnArg$GT$$GT$17hc862ec57eebf1a54E', symObjAddr: 0x5A90, symBinAddr: 0xAA010, symSize: 0x140 }
  - { offsetInCU: 0x18333, offset: 0x3C0BE5, size: 0x8, addend: 0x0, symName: '__ZN4core3ptr65drop_in_place$LT$core..option..Option$LT$syn..expr..Label$GT$$GT$17hfc626d17a1d0054dE', symObjAddr: 0x5BD0, symBinAddr: 0xAA150, symSize: 0x30 }
  - { offsetInCU: 0x1846E, offset: 0x3C0D20, size: 0x8, addend: 0x0, symName: '__ZN4core3ptr66drop_in_place$LT$core..option..Option$LT$syn..pat..PatRest$GT$$GT$17hba8f4d9198c0dabcE', symObjAddr: 0x5C00, symBinAddr: 0xAA180, symSize: 0xE0 }
  - { offsetInCU: 0x18726, offset: 0x3C0FD8, size: 0x8, addend: 0x0, symName: '__ZN4core3ptr67drop_in_place$LT$alloc..boxed..Box$LT$syn..expr..FieldValue$GT$$GT$17h1fe00f656b5bc41eE', symObjAddr: 0x5CE0, symBinAddr: 0xAA260, symSize: 0x140 }
  - { offsetInCU: 0x18D75, offset: 0x3C1627, size: 0x8, addend: 0x0, symName: '__ZN4core3ptr68drop_in_place$LT$borsh_derive..internals..generics..FindTyParams$GT$17h9dff03c3f81b2b80E', symObjAddr: 0x5E20, symBinAddr: 0xAA3A0, symSize: 0xA0 }
  - { offsetInCU: 0x19178, offset: 0x3C1A2A, size: 0x8, addend: 0x0, symName: '__ZN4core3ptr70drop_in_place$LT$core..option..Option$LT$syn..ty..BareVariadic$GT$$GT$17hf6aaee8d5112d370E', symObjAddr: 0x5EC0, symBinAddr: 0xAA440, symSize: 0x120 }
  - { offsetInCU: 0x196D9, offset: 0x3C1F8B, size: 0x8, addend: 0x0, symName: '__ZN4core3ptr72drop_in_place$LT$alloc..boxed..Box$LT$syn..path..GenericArgument$GT$$GT$17hc3f5a13c594d53a1E', symObjAddr: 0x5FE0, symBinAddr: 0xAA560, symSize: 0x2B0 }
  - { offsetInCU: 0x1A0C4, offset: 0x3C2976, size: 0x8, addend: 0x0, symName: '__ZN4core3ptr72drop_in_place$LT$core..option..Option$LT$syn..lifetime..Lifetime$GT$$GT$17hf02c2376eaf0703fE', symObjAddr: 0x6290, symBinAddr: 0xAA810, symSize: 0x30 }
  - { offsetInCU: 0x1A1E0, offset: 0x3C2A92, size: 0x8, addend: 0x0, symName: '__ZN4core3ptr73drop_in_place$LT$alloc..boxed..Box$LT$syn..generics..GenericParam$GT$$GT$17hbb1f35d2f323630eE', symObjAddr: 0x62C0, symBinAddr: 0xAA840, symSize: 0x80 }
  - { offsetInCU: 0x1A396, offset: 0x3C2C48, size: 0x8, addend: 0x0, symName: '__ZN4core3ptr73drop_in_place$LT$borsh_derive..internals..deserialize..GenericsOutput$GT$17heeb138808ff6c848E', symObjAddr: 0x6340, symBinAddr: 0xAA8C0, symSize: 0x100 }
  - { offsetInCU: 0x1A645, offset: 0x3C2EF7, size: 0x8, addend: 0x0, symName: '__ZN4core3ptr75drop_in_place$LT$alloc..boxed..Box$LT$syn..generics..TypeParamBound$GT$$GT$17h06d020fd356eb6c8E', symObjAddr: 0x6440, symBinAddr: 0xAA9C0, symSize: 0x190 }
  - { offsetInCU: 0x1ACE1, offset: 0x3C3593, size: 0x8, addend: 0x0, symName: '__ZN4core3ptr75drop_in_place$LT$core..option..Option$LT$syn..generics..WhereClause$GT$$GT$17h8a92b83e49c22b8cE', symObjAddr: 0x65D0, symBinAddr: 0xAAB50, symSize: 0x90 }
  - { offsetInCU: 0x1AF97, offset: 0x3C3849, size: 0x8, addend: 0x0, symName: '__ZN4core3ptr86drop_in_place$LT$syn..punctuated..Punctuated$LT$syn..pat..Pat$C$syn..token..Or$GT$$GT$17h1c252cd869cc7fe5E', symObjAddr: 0x6660, symBinAddr: 0xAABE0, symSize: 0x120 }
  - { offsetInCU: 0x1B3DD, offset: 0x3C3C8F, size: 0x8, addend: 0x0, symName: '__ZN4core3ptr87drop_in_place$LT$core..option..Option$LT$alloc..boxed..Box$LT$syn..pat..Pat$GT$$GT$$GT$17h72bab185bf1bb06eE', symObjAddr: 0x6780, symBinAddr: 0xAAD00, symSize: 0x50 }
  - { offsetInCU: 0x1B54F, offset: 0x3C3E01, size: 0x8, addend: 0x0, symName: '__ZN4core3ptr87drop_in_place$LT$core..option..Option$LT$alloc..boxed..Box$LT$syn..ty..Type$GT$$GT$$GT$17hc260fbb8309ec29fE', symObjAddr: 0x67D0, symBinAddr: 0xAAD50, symSize: 0x50 }
  - { offsetInCU: 0x1B6C1, offset: 0x3C3F73, size: 0x8, addend: 0x0, symName: '__ZN4core3ptr89drop_in_place$LT$core..option..Option$LT$alloc..boxed..Box$LT$syn..expr..Expr$GT$$GT$$GT$17h189e15babfcbbcfaE', symObjAddr: 0x6820, symBinAddr: 0xAADA0, symSize: 0x50 }
  - { offsetInCU: 0x1B871, offset: 0x3C4123, size: 0x8, addend: 0x0, symName: '__ZN4core3ptr89drop_in_place$LT$syn..punctuated..Punctuated$LT$syn..pat..Pat$C$syn..token..Comma$GT$$GT$17ha82f9ca12786bd54E', symObjAddr: 0x6870, symBinAddr: 0xAADF0, symSize: 0x120 }
  - { offsetInCU: 0x1BD0C, offset: 0x3C45BE, size: 0x8, addend: 0x0, symName: '__ZN4core3ptr91drop_in_place$LT$syn..punctuated..Punctuated$LT$syn..expr..Expr$C$syn..token..Comma$GT$$GT$17h5d174cfb4564e731E', symObjAddr: 0x6990, symBinAddr: 0xAAF10, symSize: 0x120 }
  - { offsetInCU: 0x1C169, offset: 0x3C4A1B, size: 0x8, addend: 0x0, symName: '__ZN4core3ptr94drop_in_place$LT$syn..punctuated..Punctuated$LT$syn..pat..FieldPat$C$syn..token..Comma$GT$$GT$17h57ec84468c025663E', symObjAddr: 0x6AB0, symBinAddr: 0xAB030, symSize: 0xF0 }
  - { offsetInCU: 0x1C433, offset: 0x3C4CE5, size: 0x8, addend: 0x0, symName: '__ZN4core3ptr94drop_in_place$LT$syn..punctuated..Punctuated$LT$syn..ty..BareFnArg$C$syn..token..Comma$GT$$GT$17h93a6df93f58cf1c2E', symObjAddr: 0x6BA0, symBinAddr: 0xAB120, symSize: 0xF0 }
  - { offsetInCU: 0x1C6FD, offset: 0x3C4FAF, size: 0x8, addend: 0x0, symName: '__ZN4core3ptr96drop_in_place$LT$core..option..Option$LT$alloc..boxed..Box$LT$syn..path..PathSegment$GT$$GT$$GT$17hfffb4eb6744ee164E', symObjAddr: 0x6C90, symBinAddr: 0xAB210, symSize: 0x180 }
  - { offsetInCU: 0x1CD8E, offset: 0x3C5640, size: 0x8, addend: 0x0, symName: '__ZN4core3ptr97drop_in_place$LT$syn..punctuated..Punctuated$LT$syn..expr..FieldValue$C$syn..token..Comma$GT$$GT$17hd35fb722be03e3d1E', symObjAddr: 0x6E10, symBinAddr: 0xAB390, symSize: 0xF0 }
  - { offsetInCU: 0x1D0D4, offset: 0x3C5986, size: 0x8, addend: 0x0, symName: '__ZN4core3ptr98drop_in_place$LT$syn..punctuated..Punctuated$LT$syn..lifetime..Lifetime$C$syn..token..Plus$GT$$GT$17h0f92166c8c801efbE', symObjAddr: 0x6F00, symBinAddr: 0xAB480, symSize: 0xC0 }
  - { offsetInCU: 0x2785F, offset: 0x3D0111, size: 0x8, addend: 0x0, symName: __ZN12borsh_derive9internals11deserialize5enums7process17h0a07a38b824bb0c9E, symObjAddr: 0x6FC0, symBinAddr: 0xAB540, symSize: 0x1DBF }
  - { offsetInCU: 0x1E, offset: 0x3D498F, size: 0x8, addend: 0x0, symName: '__ZN4core3ptr100drop_in_place$LT$core..option..Option$LT$alloc..boxed..Box$LT$syn..path..GenericArgument$GT$$GT$$GT$17h513ef87717aedfddE', symObjAddr: 0x0, symBinAddr: 0xAD300, symSize: 0x50 }
  - { offsetInCU: 0x17B9, offset: 0x3D612A, size: 0x8, addend: 0x0, symName: '__ZN4core3ptr100drop_in_place$LT$core..option..Option$LT$alloc..boxed..Box$LT$syn..path..GenericArgument$GT$$GT$$GT$17h513ef87717aedfddE', symObjAddr: 0x0, symBinAddr: 0xAD300, symSize: 0x50 }
  - { offsetInCU: 0x1B59, offset: 0x3D64CA, size: 0x8, addend: 0x0, symName: '__ZN4core3ptr100drop_in_place$LT$syn..punctuated..Punctuated$LT$syn..path..PathSegment$C$syn..token..PathSep$GT$$GT$17hd0d4e322634cba5dE.llvm.12274975684993776410', symObjAddr: 0x50, symBinAddr: 0xAD350, symSize: 0x280 }
  - { offsetInCU: 0x2606, offset: 0x3D6F77, size: 0x8, addend: 0x0, symName: '__ZN4core3ptr103drop_in_place$LT$core..option..Option$LT$alloc..boxed..Box$LT$syn..generics..TypeParamBound$GT$$GT$$GT$17h0d79b9ffb4171f90E', symObjAddr: 0x2D0, symBinAddr: 0xAD5D0, symSize: 0x50 }
  - { offsetInCU: 0x2813, offset: 0x3D7184, size: 0x8, addend: 0x0, symName: '__ZN4core3ptr103drop_in_place$LT$syn..punctuated..Punctuated$LT$syn..generics..GenericParam$C$syn..token..Comma$GT$$GT$17h1d35d7d5913e8beaE', symObjAddr: 0x320, symBinAddr: 0xAD620, symSize: 0xF0 }
  - { offsetInCU: 0x2CD6, offset: 0x3D7647, size: 0x8, addend: 0x0, symName: '__ZN4core3ptr104drop_in_place$LT$syn..punctuated..Punctuated$LT$syn..generics..TypeParamBound$C$syn..token..Plus$GT$$GT$17h44083f960cd822d7E', symObjAddr: 0x410, symBinAddr: 0xAD710, symSize: 0x190 }
  - { offsetInCU: 0x32EC, offset: 0x3D7C5D, size: 0x8, addend: 0x0, symName: '__ZN4core3ptr135drop_in_place$LT$$LP$borsh_derive..internals..attributes..Symbol$C$borsh_derive..internals..attributes..field..bounds..Variants$RP$$GT$17h4715ad7ad2a9798aE.llvm.12274975684993776410', symObjAddr: 0x5A0, symBinAddr: 0xAD8A0, symSize: 0x140 }
  - { offsetInCU: 0x36C9, offset: 0x3D803A, size: 0x8, addend: 0x0, symName: '__ZN4core3ptr34drop_in_place$LT$syn..lit..Lit$GT$17h3e4ef73f9d6504faE', symObjAddr: 0x6E0, symBinAddr: 0xAD9E0, symSize: 0x110 }
  - { offsetInCU: 0x3C03, offset: 0x3D8574, size: 0x8, addend: 0x0, symName: '__ZN4core3ptr34drop_in_place$LT$syn..pat..Pat$GT$17hf99e10cab020967aE', symObjAddr: 0x7F0, symBinAddr: 0xADAF0, symSize: 0xEB0 }
  - { offsetInCU: 0x74F5, offset: 0x3DBE66, size: 0x8, addend: 0x0, symName: '__ZN4core3ptr34drop_in_place$LT$syn..ty..Type$GT$17hc9a287e6412cf4a5E.llvm.12274975684993776410', symObjAddr: 0x16A0, symBinAddr: 0xAE9A0, symSize: 0x510 }
  - { offsetInCU: 0x8B54, offset: 0x3DD4C5, size: 0x8, addend: 0x0, symName: '__ZN4core3ptr36drop_in_place$LT$syn..expr..Expr$GT$17hbea3b059aebc6b0dE', symObjAddr: 0x1BB0, symBinAddr: 0xAEEB0, symSize: 0x2790 }
  - { offsetInCU: 0x1239A, offset: 0x3E6D0B, size: 0x8, addend: 0x0, symName: '__ZN4core3ptr36drop_in_place$LT$syn..mac..Macro$GT$17haa1481cb4fe5d660E', symObjAddr: 0x4340, symBinAddr: 0xB1640, symSize: 0x40 }
  - { offsetInCU: 0x123D4, offset: 0x3E6D45, size: 0x8, addend: 0x0, symName: '__ZN4core3ptr36drop_in_place$LT$syn..path..Path$GT$17hb26ddc646911d9caE', symObjAddr: 0x4380, symBinAddr: 0xB1680, symSize: 0x240 }
  - { offsetInCU: 0x12E1D, offset: 0x3E778E, size: 0x8, addend: 0x0, symName: '__ZN4core3ptr37drop_in_place$LT$syn..path..QSelf$GT$17hf59f2cf7f4703e2eE.llvm.12274975684993776410', symObjAddr: 0x45C0, symBinAddr: 0xB18C0, symSize: 0x50 }
  - { offsetInCU: 0x12F97, offset: 0x3E7908, size: 0x8, addend: 0x0, symName: '__ZN4core3ptr37drop_in_place$LT$syn..stmt..Block$GT$17h9bb04bc412e892c1E', symObjAddr: 0x4610, symBinAddr: 0xB1910, symSize: 0xD0 }
  - { offsetInCU: 0x1323B, offset: 0x3E7BAC, size: 0x8, addend: 0x0, symName: '__ZN4core3ptr387drop_in_place$LT$alloc..boxed..Box$LT$dyn$u20$core..ops..function..Fn$LT$$LP$borsh_derive..internals..attributes..Symbol$C$borsh_derive..internals..attributes..Symbol$C$$RF$syn..meta..ParseNestedMeta$RP$$GT$$u2b$Output$u20$$u3d$$u20$core..result..Result$LT$borsh_derive..internals..attributes..field..Variants$C$syn..error..Error$GT$$u2b$core..marker..Send$u2b$core..marker..Sync$GT$$GT$17h8c1b69e85669489aE.llvm.12274975684993776410', symObjAddr: 0x46E0, symBinAddr: 0xB19E0, symSize: 0x0 }
  - { offsetInCU: 0x13449, offset: 0x3E7DBA, size: 0x8, addend: 0x0, symName: '__ZN4core3ptr38drop_in_place$LT$syn..expr..Member$GT$17h54f73fbfaef06080E', symObjAddr: 0x4740, symBinAddr: 0xB1A40, symSize: 0x30 }
  - { offsetInCU: 0x13546, offset: 0x3E7EB7, size: 0x8, addend: 0x0, symName: '__ZN4core3ptr39drop_in_place$LT$proc_macro2..Ident$GT$17h9d68045e9dec4a40E', symObjAddr: 0x4770, symBinAddr: 0xB1A70, symSize: 0x30 }
  - { offsetInCU: 0x13624, offset: 0x3E7F95, size: 0x8, addend: 0x0, symName: '__ZN4core3ptr40drop_in_place$LT$syn..expr..ExprPath$GT$17h0115980c8ec091a0E.llvm.12274975684993776410', symObjAddr: 0x47A0, symBinAddr: 0xB1AA0, symSize: 0x110 }
  - { offsetInCU: 0x13AE9, offset: 0x3E845A, size: 0x8, addend: 0x0, symName: '__ZN4core3ptr40drop_in_place$LT$syn..ty..ReturnType$GT$17h4a68005bbc507217E', symObjAddr: 0x48B0, symBinAddr: 0xB1BB0, symSize: 0x50 }
  - { offsetInCU: 0x13C5B, offset: 0x3E85CC, size: 0x8, addend: 0x0, symName: '__ZN4core3ptr41drop_in_place$LT$syn..expr..ExprConst$GT$17h454a2cb9df850c24E', symObjAddr: 0x4900, symBinAddr: 0xB1C00, symSize: 0x180 }
  - { offsetInCU: 0x141E4, offset: 0x3E8B55, size: 0x8, addend: 0x0, symName: '__ZN4core3ptr44drop_in_place$LT$syn..lifetime..Lifetime$GT$17h9c301554489a697eE', symObjAddr: 0x4A80, symBinAddr: 0xB1D80, symSize: 0x30 }
  - { offsetInCU: 0x14417, offset: 0x3E8D88, size: 0x8, addend: 0x0, symName: '__ZN4core3ptr45drop_in_place$LT$proc_macro2..TokenStream$GT$17h86cac592f04212eaE', symObjAddr: 0x4AB0, symBinAddr: 0xB1DB0, symSize: 0x140 }
  - { offsetInCU: 0x14886, offset: 0x3E91F7, size: 0x8, addend: 0x0, symName: '__ZN4core3ptr45drop_in_place$LT$syn..generics..TypeParam$GT$17he645f7cc80b7ae11E', symObjAddr: 0x4BF0, symBinAddr: 0xB1EF0, symSize: 0x230 }
  - { offsetInCU: 0x150B6, offset: 0x3E9A27, size: 0x8, addend: 0x0, symName: '__ZN4core3ptr46drop_in_place$LT$syn..generics..ConstParam$GT$17hc19d519d6441178aE', symObjAddr: 0x4E20, symBinAddr: 0xB2120, symSize: 0x150 }
  - { offsetInCU: 0x15514, offset: 0x3E9E85, size: 0x8, addend: 0x0, symName: '__ZN4core3ptr47drop_in_place$LT$syn..path..GenericArgument$GT$17ha7ad17cb38a1a5afE', symObjAddr: 0x4F70, symBinAddr: 0xB2270, symSize: 0x4A0 }
  - { offsetInCU: 0x165BB, offset: 0x3EAF2C, size: 0x8, addend: 0x0, symName: '__ZN4core3ptr49drop_in_place$LT$syn..generics..LifetimeParam$GT$17h47d9f9e81b35a3dcE', symObjAddr: 0x5410, symBinAddr: 0xB2710, symSize: 0xF0 }
  - { offsetInCU: 0x169A9, offset: 0x3EB31A, size: 0x8, addend: 0x0, symName: '__ZN4core3ptr50drop_in_place$LT$syn..generics..TypeParamBound$GT$17h7c1195cdfd37b73cE', symObjAddr: 0x5500, symBinAddr: 0xB2800, symSize: 0x1A0 }
  - { offsetInCU: 0x16EDD, offset: 0x3EB84E, size: 0x8, addend: 0x0, symName: '__ZN4core3ptr58drop_in_place$LT$alloc..vec..Vec$LT$syn..expr..Arm$GT$$GT$17ha648d1896dec8b4dE', symObjAddr: 0x56A0, symBinAddr: 0xB29A0, symSize: 0xD0 }
  - { offsetInCU: 0x1716A, offset: 0x3EBADB, size: 0x8, addend: 0x0, symName: '__ZN4core3ptr59drop_in_place$LT$alloc..boxed..Box$LT$syn..pat..Pat$GT$$GT$17hfa860577679c86cbE', symObjAddr: 0x5770, symBinAddr: 0xB2A70, symSize: 0x50 }
  - { offsetInCU: 0x172C5, offset: 0x3EBC36, size: 0x8, addend: 0x0, symName: '__ZN4core3ptr59drop_in_place$LT$alloc..boxed..Box$LT$syn..ty..Type$GT$$GT$17hce35c4b60063cd1fE', symObjAddr: 0x57C0, symBinAddr: 0xB2AC0, symSize: 0x50 }
  - { offsetInCU: 0x17420, offset: 0x3EBD91, size: 0x8, addend: 0x0, symName: '__ZN4core3ptr61drop_in_place$LT$alloc..boxed..Box$LT$syn..expr..Expr$GT$$GT$17h35b8f1409a9ab85bE', symObjAddr: 0x5810, symBinAddr: 0xB2B10, symSize: 0x50 }
  - { offsetInCU: 0x175F7, offset: 0x3EBF68, size: 0x8, addend: 0x0, symName: '__ZN4core3ptr61drop_in_place$LT$syn..path..ParenthesizedGenericArguments$GT$17h6d1a096952b83c04E', symObjAddr: 0x5860, symBinAddr: 0xB2B60, symSize: 0x170 }
  - { offsetInCU: 0x17BBE, offset: 0x3EC52F, size: 0x8, addend: 0x0, symName: '__ZN4core3ptr62drop_in_place$LT$syn..path..AngleBracketedGenericArguments$GT$17h1e2e2310287487b5E', symObjAddr: 0x59D0, symBinAddr: 0xB2CD0, symSize: 0x120 }
  - { offsetInCU: 0x17FD4, offset: 0x3EC945, size: 0x8, addend: 0x0, symName: '__ZN4core3ptr63drop_in_place$LT$alloc..boxed..Box$LT$syn..lit..LitRepr$GT$$GT$17h4a54b8c5cd42faf5E', symObjAddr: 0x5AF0, symBinAddr: 0xB2DF0, symSize: 0x60 }
  - { offsetInCU: 0x182C9, offset: 0x3ECC3A, size: 0x8, addend: 0x0, symName: '__ZN4core3ptr64drop_in_place$LT$alloc..boxed..Box$LT$syn..pat..FieldPat$GT$$GT$17hf3d389ef82c9f10bE', symObjAddr: 0x5B50, symBinAddr: 0xB2E50, symSize: 0x140 }
  - { offsetInCU: 0x189A8, offset: 0x3ED319, size: 0x8, addend: 0x0, symName: '__ZN4core3ptr64drop_in_place$LT$alloc..boxed..Box$LT$syn..ty..BareFnArg$GT$$GT$17hc862ec57eebf1a54E', symObjAddr: 0x5C90, symBinAddr: 0xB2F90, symSize: 0x140 }
  - { offsetInCU: 0x18F00, offset: 0x3ED871, size: 0x8, addend: 0x0, symName: '__ZN4core3ptr65drop_in_place$LT$core..option..Option$LT$syn..expr..Label$GT$$GT$17hfc626d17a1d0054dE', symObjAddr: 0x5DD0, symBinAddr: 0xB30D0, symSize: 0x30 }
  - { offsetInCU: 0x1903B, offset: 0x3ED9AC, size: 0x8, addend: 0x0, symName: '__ZN4core3ptr65drop_in_place$LT$core..option..Option$LT$syn..path..QSelf$GT$$GT$17h31a3e5c39e677989E', symObjAddr: 0x5E00, symBinAddr: 0xB3100, symSize: 0x50 }
  - { offsetInCU: 0x191D4, offset: 0x3EDB45, size: 0x8, addend: 0x0, symName: '__ZN4core3ptr66drop_in_place$LT$core..option..Option$LT$syn..pat..PatRest$GT$$GT$17hba8f4d9198c0dabcE', symObjAddr: 0x5E50, symBinAddr: 0xB3150, symSize: 0xE0 }
  - { offsetInCU: 0x1948C, offset: 0x3EDDFD, size: 0x8, addend: 0x0, symName: '__ZN4core3ptr67drop_in_place$LT$alloc..boxed..Box$LT$syn..expr..FieldValue$GT$$GT$17h1fe00f656b5bc41eE', symObjAddr: 0x5F30, symBinAddr: 0xB3230, symSize: 0x140 }
  - { offsetInCU: 0x199C4, offset: 0x3EE335, size: 0x8, addend: 0x0, symName: '__ZN4core3ptr68drop_in_place$LT$alloc..boxed..Box$LT$syn..path..PathSegment$GT$$GT$17hdf3e53c9442c6d12E', symObjAddr: 0x6070, symBinAddr: 0xB3370, symSize: 0x190 }
  - { offsetInCU: 0x1A0A2, offset: 0x3EEA13, size: 0x8, addend: 0x0, symName: '__ZN4core3ptr70drop_in_place$LT$core..option..Option$LT$syn..ty..BareVariadic$GT$$GT$17hf6aaee8d5112d370E', symObjAddr: 0x6200, symBinAddr: 0xB3500, symSize: 0x120 }
  - { offsetInCU: 0x1A603, offset: 0x3EEF74, size: 0x8, addend: 0x0, symName: '__ZN4core3ptr72drop_in_place$LT$alloc..boxed..Box$LT$syn..path..GenericArgument$GT$$GT$17hc3f5a13c594d53a1E', symObjAddr: 0x6320, symBinAddr: 0xB3620, symSize: 0x1D0 }
  - { offsetInCU: 0x1ABA6, offset: 0x3EF517, size: 0x8, addend: 0x0, symName: '__ZN4core3ptr72drop_in_place$LT$core..option..Option$LT$syn..lifetime..Lifetime$GT$$GT$17hf02c2376eaf0703fE', symObjAddr: 0x64F0, symBinAddr: 0xB37F0, symSize: 0x30 }
  - { offsetInCU: 0x1ACC2, offset: 0x3EF633, size: 0x8, addend: 0x0, symName: '__ZN4core3ptr73drop_in_place$LT$alloc..boxed..Box$LT$syn..generics..GenericParam$GT$$GT$17hbb1f35d2f323630eE', symObjAddr: 0x6520, symBinAddr: 0xB3820, symSize: 0x80 }
  - { offsetInCU: 0x1AF51, offset: 0x3EF8C2, size: 0x8, addend: 0x0, symName: '__ZN4core3ptr73drop_in_place$LT$borsh_derive..internals..attributes..field..Variants$GT$17ha647a4b68e747d93E.llvm.12274975684993776410', symObjAddr: 0x65A0, symBinAddr: 0xB38A0, symSize: 0x2D0 }
  - { offsetInCU: 0x1B733, offset: 0x3F00A4, size: 0x8, addend: 0x0, symName: '__ZN4core3ptr75drop_in_place$LT$alloc..boxed..Box$LT$syn..generics..TypeParamBound$GT$$GT$17h06d020fd356eb6c8E', symObjAddr: 0x6870, symBinAddr: 0xB3B70, symSize: 0xB0 }
  - { offsetInCU: 0x1BA31, offset: 0x3F03A2, size: 0x8, addend: 0x0, symName: '__ZN4core3ptr81drop_in_place$LT$borsh_derive..internals..attributes..field..bounds..Variants$GT$17h2ab852b57316fbb6E.llvm.12274975684993776410', symObjAddr: 0x6920, symBinAddr: 0xB3C20, symSize: 0x140 }
  - { offsetInCU: 0x1BCEE, offset: 0x3F065F, size: 0x8, addend: 0x0, symName: '__ZN4core3ptr81drop_in_place$LT$borsh_derive..internals..attributes..field..schema..Variants$GT$17h18e6a1ca34fc24b7E.llvm.12274975684993776410', symObjAddr: 0x6A60, symBinAddr: 0xB3D60, symSize: 0xC0 }
  - { offsetInCU: 0x1BFCC, offset: 0x3F093D, size: 0x8, addend: 0x0, symName: '__ZN4core3ptr86drop_in_place$LT$syn..punctuated..Punctuated$LT$syn..pat..Pat$C$syn..token..Or$GT$$GT$17h1c252cd869cc7fe5E', symObjAddr: 0x6B20, symBinAddr: 0xB3E20, symSize: 0x120 }
  - { offsetInCU: 0x1C412, offset: 0x3F0D83, size: 0x8, addend: 0x0, symName: '__ZN4core3ptr87drop_in_place$LT$core..option..Option$LT$alloc..boxed..Box$LT$syn..pat..Pat$GT$$GT$$GT$17h72bab185bf1bb06eE', symObjAddr: 0x6C40, symBinAddr: 0xB3F40, symSize: 0x50 }
  - { offsetInCU: 0x1C584, offset: 0x3F0EF5, size: 0x8, addend: 0x0, symName: '__ZN4core3ptr87drop_in_place$LT$core..option..Option$LT$alloc..boxed..Box$LT$syn..ty..Type$GT$$GT$$GT$17hc260fbb8309ec29fE', symObjAddr: 0x6C90, symBinAddr: 0xB3F90, symSize: 0x50 }
  - { offsetInCU: 0x1C6F6, offset: 0x3F1067, size: 0x8, addend: 0x0, symName: '__ZN4core3ptr89drop_in_place$LT$core..option..Option$LT$alloc..boxed..Box$LT$syn..expr..Expr$GT$$GT$$GT$17h189e15babfcbbcfaE', symObjAddr: 0x6CE0, symBinAddr: 0xB3FE0, symSize: 0x50 }
  - { offsetInCU: 0x1C8A6, offset: 0x3F1217, size: 0x8, addend: 0x0, symName: '__ZN4core3ptr89drop_in_place$LT$syn..punctuated..Punctuated$LT$syn..pat..Pat$C$syn..token..Comma$GT$$GT$17ha82f9ca12786bd54E', symObjAddr: 0x6D30, symBinAddr: 0xB4030, symSize: 0x120 }
  - { offsetInCU: 0x1CD03, offset: 0x3F1674, size: 0x8, addend: 0x0, symName: '__ZN4core3ptr89drop_in_place$LT$syn..punctuated..Punctuated$LT$syn..ty..Type$C$syn..token..Comma$GT$$GT$17h6c76e390e4497862E', symObjAddr: 0x6E50, symBinAddr: 0xB4150, symSize: 0x120 }
  - { offsetInCU: 0x1D14D, offset: 0x3F1ABE, size: 0x8, addend: 0x0, symName: '__ZN4core3ptr90drop_in_place$LT$core..option..Option$LT$syn..path..AngleBracketedGenericArguments$GT$$GT$17h488f4ff126d02fb4E', symObjAddr: 0x6F70, symBinAddr: 0xB4270, symSize: 0x130 }
  - { offsetInCU: 0x1D5B8, offset: 0x3F1F29, size: 0x8, addend: 0x0, symName: '__ZN4core3ptr91drop_in_place$LT$syn..punctuated..Punctuated$LT$syn..expr..Expr$C$syn..token..Comma$GT$$GT$17h5d174cfb4564e731E', symObjAddr: 0x70A0, symBinAddr: 0xB43A0, symSize: 0x120 }
  - { offsetInCU: 0x1DA15, offset: 0x3F2386, size: 0x8, addend: 0x0, symName: '__ZN4core3ptr94drop_in_place$LT$syn..punctuated..Punctuated$LT$syn..pat..FieldPat$C$syn..token..Comma$GT$$GT$17h57ec84468c025663E', symObjAddr: 0x71C0, symBinAddr: 0xB44C0, symSize: 0xF0 }
  - { offsetInCU: 0x1DCDF, offset: 0x3F2650, size: 0x8, addend: 0x0, symName: '__ZN4core3ptr94drop_in_place$LT$syn..punctuated..Punctuated$LT$syn..ty..BareFnArg$C$syn..token..Comma$GT$$GT$17h93a6df93f58cf1c2E', symObjAddr: 0x72B0, symBinAddr: 0xB45B0, symSize: 0xF0 }
  - { offsetInCU: 0x1DFA9, offset: 0x3F291A, size: 0x8, addend: 0x0, symName: '__ZN4core3ptr96drop_in_place$LT$core..option..Option$LT$alloc..boxed..Box$LT$syn..path..PathSegment$GT$$GT$$GT$17hfffb4eb6744ee164E', symObjAddr: 0x73A0, symBinAddr: 0xB46A0, symSize: 0x90 }
  - { offsetInCU: 0x1E22B, offset: 0x3F2B9C, size: 0x8, addend: 0x0, symName: '__ZN4core3ptr97drop_in_place$LT$syn..punctuated..Punctuated$LT$syn..expr..FieldValue$C$syn..token..Comma$GT$$GT$17hd35fb722be03e3d1E', symObjAddr: 0x7430, symBinAddr: 0xB4730, symSize: 0xF0 }
  - { offsetInCU: 0x1E4F5, offset: 0x3F2E66, size: 0x8, addend: 0x0, symName: '__ZN4core3ptr98drop_in_place$LT$alloc..vec..Vec$LT$$LP$syn..path..GenericArgument$C$syn..token..Comma$RP$$GT$$GT$17h4fdb1af8625fb77aE', symObjAddr: 0x7520, symBinAddr: 0xB4820, symSize: 0xD0 }
  - { offsetInCU: 0x1E7FE, offset: 0x3F316F, size: 0x8, addend: 0x0, symName: '__ZN4core3ptr98drop_in_place$LT$syn..punctuated..Punctuated$LT$syn..lifetime..Lifetime$C$syn..token..Plus$GT$$GT$17h0f92166c8c801efbE', symObjAddr: 0x75F0, symBinAddr: 0xB48F0, symSize: 0xC0 }
  - { offsetInCU: 0x29B3F, offset: 0x3FE4B0, size: 0x8, addend: 0x0, symName: '__ZN5alloc11collections5btree3map5entry28VacantEntry$LT$K$C$V$C$A$GT$6insert17h1ecba4548f2187e9E', symObjAddr: 0x76B0, symBinAddr: 0xB49B0, symSize: 0x160 }
  - { offsetInCU: 0x29FF5, offset: 0x3FE966, size: 0x8, addend: 0x0, symName: '__ZN5alloc11collections5btree3map5entry28VacantEntry$LT$K$C$V$C$A$GT$6insert17h4cb4db7c5ebafe21E', symObjAddr: 0x7810, symBinAddr: 0xB4B10, symSize: 0x160 }
  - { offsetInCU: 0x2A420, offset: 0x3FED91, size: 0x8, addend: 0x0, symName: '__ZN5alloc11collections5btree3map5entry28VacantEntry$LT$K$C$V$C$A$GT$6insert17h4e4d3a6d98c14159E', symObjAddr: 0x7970, symBinAddr: 0xB4C70, symSize: 0x180 }
  - { offsetInCU: 0x2A82D, offset: 0x3FF19E, size: 0x8, addend: 0x0, symName: '__ZN5alloc11collections5btree3map5entry28VacantEntry$LT$K$C$V$C$A$GT$6insert17h7bf75a4dce3cf78aE', symObjAddr: 0x7AF0, symBinAddr: 0xB4DF0, symSize: 0x160 }
  - { offsetInCU: 0x2ACD6, offset: 0x3FF647, size: 0x8, addend: 0x0, symName: '__ZN5alloc11collections5btree3map5entry28VacantEntry$LT$K$C$V$C$A$GT$6insert17h97e8c3ecc64e152bE', symObjAddr: 0x7C50, symBinAddr: 0xB4F50, symSize: 0x160 }
  - { offsetInCU: 0x2B17F, offset: 0x3FFAF0, size: 0x8, addend: 0x0, symName: '__ZN5alloc11collections5btree3map5entry28VacantEntry$LT$K$C$V$C$A$GT$6insert17hcbcb2dddc9f58d12E', symObjAddr: 0x7DB0, symBinAddr: 0xB50B0, symSize: 0x190 }
  - { offsetInCU: 0x2B5CC, offset: 0x3FFF3D, size: 0x8, addend: 0x0, symName: '__ZN5alloc11collections5btree3map5entry28VacantEntry$LT$K$C$V$C$A$GT$6insert17hd0076fb816cc8cfcE', symObjAddr: 0x7F40, symBinAddr: 0xB5240, symSize: 0x160 }
  - { offsetInCU: 0x2BA76, offset: 0x4003E7, size: 0x8, addend: 0x0, symName: '__ZN5alloc11collections5btree3map5entry28VacantEntry$LT$K$C$V$C$A$GT$6insert17hf9a362ed205a1cffE', symObjAddr: 0x80A0, symBinAddr: 0xB53A0, symSize: 0x180 }
  - { offsetInCU: 0x2BEF3, offset: 0x400864, size: 0x8, addend: 0x0, symName: '__ZN5alloc11collections5btree3map5entry30OccupiedEntry$LT$K$C$V$C$A$GT$9remove_kv17h14d15c1bbd7435e8E', symObjAddr: 0x83C0, symBinAddr: 0xB5520, symSize: 0x130 }
  - { offsetInCU: 0x2C22D, offset: 0x400B9E, size: 0x8, addend: 0x0, symName: '__ZN5alloc11collections5btree3map5entry30OccupiedEntry$LT$K$C$V$C$A$GT$9remove_kv17h456ca166fb1c6394E', symObjAddr: 0x84F0, symBinAddr: 0xB5650, symSize: 0x130 }
  - { offsetInCU: 0x2C545, offset: 0x400EB6, size: 0x8, addend: 0x0, symName: '__ZN5alloc11collections5btree3map5entry30OccupiedEntry$LT$K$C$V$C$A$GT$9remove_kv17h71a45830e3204371E', symObjAddr: 0x8620, symBinAddr: 0xB5780, symSize: 0x130 }
  - { offsetInCU: 0x2C850, offset: 0x4011C1, size: 0x8, addend: 0x0, symName: '__ZN5alloc11collections5btree3map5entry30OccupiedEntry$LT$K$C$V$C$A$GT$9remove_kv17he6b629493344a832E', symObjAddr: 0x8750, symBinAddr: 0xB58B0, symSize: 0x17D }
  - { offsetInCU: 0x1E, offset: 0x40835B, size: 0x8, addend: 0x0, symName: __ZN3syn3lit6LitStr10parse_with17h148c6fa9f2f4b86cE, symObjAddr: 0x0, symBinAddr: 0xB5A30, symSize: 0x360 }
  - { offsetInCU: 0x1A6B, offset: 0x409DA8, size: 0x8, addend: 0x0, symName: '__ZN4core3ptr100drop_in_place$LT$core..option..Option$LT$alloc..boxed..Box$LT$syn..path..GenericArgument$GT$$GT$$GT$17h513ef87717aedfddE', symObjAddr: 0xE80, symBinAddr: 0xB68B0, symSize: 0x50 }
  - { offsetInCU: 0x1E0B, offset: 0x40A148, size: 0x8, addend: 0x0, symName: '__ZN4core3ptr100drop_in_place$LT$syn..punctuated..Punctuated$LT$syn..path..PathSegment$C$syn..token..PathSep$GT$$GT$17hd0d4e322634cba5dE', symObjAddr: 0xED0, symBinAddr: 0xB6900, symSize: 0x280 }
  - { offsetInCU: 0x28B8, offset: 0x40ABF5, size: 0x8, addend: 0x0, symName: '__ZN4core3ptr103drop_in_place$LT$core..option..Option$LT$alloc..boxed..Box$LT$syn..generics..TypeParamBound$GT$$GT$$GT$17h0d79b9ffb4171f90E', symObjAddr: 0x1150, symBinAddr: 0xB6B80, symSize: 0x50 }
  - { offsetInCU: 0x2B03, offset: 0x40AE40, size: 0x8, addend: 0x0, symName: '__ZN4core3ptr103drop_in_place$LT$core..option..Option$LT$alloc..boxed..Box$LT$syn..generics..WherePredicate$GT$$GT$$GT$17h5eae77184a584f9cE', symObjAddr: 0x11A0, symBinAddr: 0xB6BD0, symSize: 0xD0 }
  - { offsetInCU: 0x2E96, offset: 0x40B1D3, size: 0x8, addend: 0x0, symName: '__ZN4core3ptr103drop_in_place$LT$syn..punctuated..Punctuated$LT$syn..generics..GenericParam$C$syn..token..Comma$GT$$GT$17h1d35d7d5913e8beaE', symObjAddr: 0x1270, symBinAddr: 0xB6CA0, symSize: 0xF0 }
  - { offsetInCU: 0x32FC, offset: 0x40B639, size: 0x8, addend: 0x0, symName: '__ZN4core3ptr104drop_in_place$LT$syn..punctuated..Punctuated$LT$syn..generics..TypeParamBound$C$syn..token..Plus$GT$$GT$17h44083f960cd822d7E', symObjAddr: 0x1360, symBinAddr: 0xB6D90, symSize: 0x190 }
  - { offsetInCU: 0x38B5, offset: 0x40BBF2, size: 0x8, addend: 0x0, symName: '__ZN4core3ptr105drop_in_place$LT$syn..punctuated..Punctuated$LT$syn..generics..WherePredicate$C$syn..token..Comma$GT$$GT$17h9218df911c48293fE', symObjAddr: 0x14F0, symBinAddr: 0xB6F20, symSize: 0x80 }
  - { offsetInCU: 0x3AFB, offset: 0x40BE38, size: 0x8, addend: 0x0, symName: '__ZN4core3ptr143drop_in_place$LT$core..option..Option$LT$alloc..boxed..Box$LT$borsh_derive..internals..attributes..field..schema..ParameterOverride$GT$$GT$$GT$17h62e07728a3be3435E', symObjAddr: 0x1570, symBinAddr: 0xB6FA0, symSize: 0x80 }
  - { offsetInCU: 0x3DBC, offset: 0x40C0F9, size: 0x8, addend: 0x0, symName: '__ZN4core3ptr145drop_in_place$LT$syn..punctuated..Punctuated$LT$borsh_derive..internals..attributes..field..schema..ParameterOverride$C$syn..token..Comma$GT$$GT$17hdae3dda23dbe50c8E', symObjAddr: 0x15F0, symBinAddr: 0xB7020, symSize: 0xE0 }
  - { offsetInCU: 0x428D, offset: 0x40C5CA, size: 0x8, addend: 0x0, symName: '__ZN4core3ptr34drop_in_place$LT$syn..lit..Lit$GT$17h3e4ef73f9d6504faE', symObjAddr: 0x16D0, symBinAddr: 0xB7100, symSize: 0x110 }
  - { offsetInCU: 0x47E6, offset: 0x40CB23, size: 0x8, addend: 0x0, symName: '__ZN4core3ptr34drop_in_place$LT$syn..pat..Pat$GT$17hf99e10cab020967aE', symObjAddr: 0x17E0, symBinAddr: 0xB7210, symSize: 0x1070 }
  - { offsetInCU: 0x8987, offset: 0x410CC4, size: 0x8, addend: 0x0, symName: '__ZN4core3ptr34drop_in_place$LT$syn..ty..Type$GT$17hc9a287e6412cf4a5E', symObjAddr: 0x2850, symBinAddr: 0xB8280, symSize: 0x510 }
  - { offsetInCU: 0x9FE6, offset: 0x412323, size: 0x8, addend: 0x0, symName: '__ZN4core3ptr36drop_in_place$LT$syn..expr..Expr$GT$17hbea3b059aebc6b0dE', symObjAddr: 0x2D60, symBinAddr: 0xB8790, symSize: 0x2920 }
  - { offsetInCU: 0x13E24, offset: 0x41C161, size: 0x8, addend: 0x0, symName: '__ZN4core3ptr36drop_in_place$LT$syn..mac..Macro$GT$17haa1481cb4fe5d660E', symObjAddr: 0x5680, symBinAddr: 0xBB0B0, symSize: 0x40 }
  - { offsetInCU: 0x13E5E, offset: 0x41C19B, size: 0x8, addend: 0x0, symName: '__ZN4core3ptr36drop_in_place$LT$syn..path..Path$GT$17hb26ddc646911d9caE', symObjAddr: 0x56C0, symBinAddr: 0xBB0F0, symSize: 0x240 }
  - { offsetInCU: 0x148A7, offset: 0x41CBE4, size: 0x8, addend: 0x0, symName: '__ZN4core3ptr37drop_in_place$LT$syn..stmt..Block$GT$17h9bb04bc412e892c1E', symObjAddr: 0x5900, symBinAddr: 0xBB330, symSize: 0xD0 }
  - { offsetInCU: 0x14B4B, offset: 0x41CE88, size: 0x8, addend: 0x0, symName: '__ZN4core3ptr38drop_in_place$LT$syn..expr..Member$GT$17h54f73fbfaef06080E', symObjAddr: 0x59D0, symBinAddr: 0xBB400, symSize: 0x30 }
  - { offsetInCU: 0x14C48, offset: 0x41CF85, size: 0x8, addend: 0x0, symName: '__ZN4core3ptr39drop_in_place$LT$proc_macro2..Ident$GT$17h9d68045e9dec4a40E', symObjAddr: 0x5A00, symBinAddr: 0xBB430, symSize: 0x30 }
  - { offsetInCU: 0x14D26, offset: 0x41D063, size: 0x8, addend: 0x0, symName: '__ZN4core3ptr40drop_in_place$LT$syn..expr..ExprPath$GT$17h0115980c8ec091a0E', symObjAddr: 0x5A30, symBinAddr: 0xBB460, symSize: 0x110 }
  - { offsetInCU: 0x15164, offset: 0x41D4A1, size: 0x8, addend: 0x0, symName: '__ZN4core3ptr40drop_in_place$LT$syn..ty..ReturnType$GT$17h4a68005bbc507217E', symObjAddr: 0x5B40, symBinAddr: 0xBB570, symSize: 0x50 }
  - { offsetInCU: 0x152D6, offset: 0x41D613, size: 0x8, addend: 0x0, symName: '__ZN4core3ptr41drop_in_place$LT$syn..expr..ExprConst$GT$17h454a2cb9df850c24E', symObjAddr: 0x5B90, symBinAddr: 0xBB5C0, symSize: 0x180 }
  - { offsetInCU: 0x1585F, offset: 0x41DB9C, size: 0x8, addend: 0x0, symName: '__ZN4core3ptr44drop_in_place$LT$syn..lifetime..Lifetime$GT$17h9c301554489a697eE', symObjAddr: 0x5D10, symBinAddr: 0xBB740, symSize: 0x30 }
  - { offsetInCU: 0x15A92, offset: 0x41DDCF, size: 0x8, addend: 0x0, symName: '__ZN4core3ptr45drop_in_place$LT$proc_macro2..TokenStream$GT$17h86cac592f04212eaE.llvm.6986152707035368550', symObjAddr: 0x5D40, symBinAddr: 0xBB770, symSize: 0x140 }
  - { offsetInCU: 0x15F01, offset: 0x41E23E, size: 0x8, addend: 0x0, symName: '__ZN4core3ptr45drop_in_place$LT$syn..generics..TypeParam$GT$17he645f7cc80b7ae11E', symObjAddr: 0x5E80, symBinAddr: 0xBB8B0, symSize: 0x230 }
  - { offsetInCU: 0x16731, offset: 0x41EA6E, size: 0x8, addend: 0x0, symName: '__ZN4core3ptr46drop_in_place$LT$syn..generics..ConstParam$GT$17hc19d519d6441178aE', symObjAddr: 0x60B0, symBinAddr: 0xBBAE0, symSize: 0x150 }
  - { offsetInCU: 0x16B8F, offset: 0x41EECC, size: 0x8, addend: 0x0, symName: '__ZN4core3ptr47drop_in_place$LT$syn..path..GenericArgument$GT$17ha7ad17cb38a1a5afE', symObjAddr: 0x6200, symBinAddr: 0xBBC30, symSize: 0x4A0 }
  - { offsetInCU: 0x17C36, offset: 0x41FF73, size: 0x8, addend: 0x0, symName: '__ZN4core3ptr49drop_in_place$LT$syn..generics..LifetimeParam$GT$17h47d9f9e81b35a3dcE', symObjAddr: 0x66A0, symBinAddr: 0xBC0D0, symSize: 0xF0 }
  - { offsetInCU: 0x18024, offset: 0x420361, size: 0x8, addend: 0x0, symName: '__ZN4core3ptr50drop_in_place$LT$syn..generics..TypeParamBound$GT$17h7c1195cdfd37b73cE', symObjAddr: 0x6790, symBinAddr: 0xBC1C0, symSize: 0x1A0 }
  - { offsetInCU: 0x18558, offset: 0x420895, size: 0x8, addend: 0x0, symName: '__ZN4core3ptr58drop_in_place$LT$alloc..vec..Vec$LT$syn..expr..Arm$GT$$GT$17ha648d1896dec8b4dE', symObjAddr: 0x6930, symBinAddr: 0xBC360, symSize: 0xD0 }
  - { offsetInCU: 0x187E5, offset: 0x420B22, size: 0x8, addend: 0x0, symName: '__ZN4core3ptr59drop_in_place$LT$alloc..boxed..Box$LT$syn..pat..Pat$GT$$GT$17hfa860577679c86cbE', symObjAddr: 0x6A00, symBinAddr: 0xBC430, symSize: 0x50 }
  - { offsetInCU: 0x18940, offset: 0x420C7D, size: 0x8, addend: 0x0, symName: '__ZN4core3ptr59drop_in_place$LT$alloc..boxed..Box$LT$syn..ty..Type$GT$$GT$17hce35c4b60063cd1fE', symObjAddr: 0x6A50, symBinAddr: 0xBC480, symSize: 0x50 }
  - { offsetInCU: 0x18A9B, offset: 0x420DD8, size: 0x8, addend: 0x0, symName: '__ZN4core3ptr61drop_in_place$LT$alloc..boxed..Box$LT$syn..expr..Expr$GT$$GT$17h35b8f1409a9ab85bE', symObjAddr: 0x6AA0, symBinAddr: 0xBC4D0, symSize: 0x50 }
  - { offsetInCU: 0x18C72, offset: 0x420FAF, size: 0x8, addend: 0x0, symName: '__ZN4core3ptr61drop_in_place$LT$syn..path..ParenthesizedGenericArguments$GT$17h6d1a096952b83c04E', symObjAddr: 0x6AF0, symBinAddr: 0xBC520, symSize: 0x170 }
  - { offsetInCU: 0x19239, offset: 0x421576, size: 0x8, addend: 0x0, symName: '__ZN4core3ptr62drop_in_place$LT$syn..path..AngleBracketedGenericArguments$GT$17h1e2e2310287487b5E', symObjAddr: 0x6C60, symBinAddr: 0xBC690, symSize: 0x120 }
  - { offsetInCU: 0x1964F, offset: 0x42198C, size: 0x8, addend: 0x0, symName: '__ZN4core3ptr63drop_in_place$LT$alloc..boxed..Box$LT$syn..lit..LitRepr$GT$$GT$17h4a54b8c5cd42faf5E.llvm.6986152707035368550', symObjAddr: 0x6D80, symBinAddr: 0xBC7B0, symSize: 0x60 }
  - { offsetInCU: 0x19944, offset: 0x421C81, size: 0x8, addend: 0x0, symName: '__ZN4core3ptr64drop_in_place$LT$alloc..boxed..Box$LT$syn..pat..FieldPat$GT$$GT$17hf3d389ef82c9f10bE', symObjAddr: 0x6DE0, symBinAddr: 0xBC810, symSize: 0x140 }
  - { offsetInCU: 0x1A023, offset: 0x422360, size: 0x8, addend: 0x0, symName: '__ZN4core3ptr64drop_in_place$LT$alloc..boxed..Box$LT$syn..ty..BareFnArg$GT$$GT$17hc862ec57eebf1a54E', symObjAddr: 0x6F20, symBinAddr: 0xBC950, symSize: 0x140 }
  - { offsetInCU: 0x1A57B, offset: 0x4228B8, size: 0x8, addend: 0x0, symName: '__ZN4core3ptr65drop_in_place$LT$core..option..Option$LT$syn..expr..Label$GT$$GT$17hfc626d17a1d0054dE', symObjAddr: 0x7060, symBinAddr: 0xBCA90, symSize: 0x30 }
  - { offsetInCU: 0x1A6B6, offset: 0x4229F3, size: 0x8, addend: 0x0, symName: '__ZN4core3ptr65drop_in_place$LT$core..option..Option$LT$syn..path..QSelf$GT$$GT$17h31a3e5c39e677989E', symObjAddr: 0x7090, symBinAddr: 0xBCAC0, symSize: 0x50 }
  - { offsetInCU: 0x1A839, offset: 0x422B76, size: 0x8, addend: 0x0, symName: '__ZN4core3ptr66drop_in_place$LT$core..option..Option$LT$syn..pat..PatRest$GT$$GT$17hba8f4d9198c0dabcE', symObjAddr: 0x70E0, symBinAddr: 0xBCB10, symSize: 0xE0 }
  - { offsetInCU: 0x1AAF1, offset: 0x422E2E, size: 0x8, addend: 0x0, symName: '__ZN4core3ptr67drop_in_place$LT$alloc..boxed..Box$LT$syn..expr..FieldValue$GT$$GT$17h1fe00f656b5bc41eE', symObjAddr: 0x71C0, symBinAddr: 0xBCBF0, symSize: 0x140 }
  - { offsetInCU: 0x1B029, offset: 0x423366, size: 0x8, addend: 0x0, symName: '__ZN4core3ptr68drop_in_place$LT$alloc..boxed..Box$LT$syn..path..PathSegment$GT$$GT$17hdf3e53c9442c6d12E', symObjAddr: 0x7300, symBinAddr: 0xBCD30, symSize: 0x190 }
  - { offsetInCU: 0x1B707, offset: 0x423A44, size: 0x8, addend: 0x0, symName: '__ZN4core3ptr70drop_in_place$LT$core..option..Option$LT$syn..ty..BareVariadic$GT$$GT$17hf6aaee8d5112d370E', symObjAddr: 0x7490, symBinAddr: 0xBCEC0, symSize: 0x120 }
  - { offsetInCU: 0x1BC68, offset: 0x423FA5, size: 0x8, addend: 0x0, symName: '__ZN4core3ptr72drop_in_place$LT$alloc..boxed..Box$LT$syn..path..GenericArgument$GT$$GT$17hc3f5a13c594d53a1E', symObjAddr: 0x75B0, symBinAddr: 0xBCFE0, symSize: 0x1D0 }
  - { offsetInCU: 0x1C20B, offset: 0x424548, size: 0x8, addend: 0x0, symName: '__ZN4core3ptr72drop_in_place$LT$core..option..Option$LT$syn..lifetime..Lifetime$GT$$GT$17hf02c2376eaf0703fE', symObjAddr: 0x7780, symBinAddr: 0xBD1B0, symSize: 0x30 }
  - { offsetInCU: 0x1C327, offset: 0x424664, size: 0x8, addend: 0x0, symName: '__ZN4core3ptr73drop_in_place$LT$alloc..boxed..Box$LT$syn..generics..GenericParam$GT$$GT$17hbb1f35d2f323630eE', symObjAddr: 0x77B0, symBinAddr: 0xBD1E0, symSize: 0x80 }
  - { offsetInCU: 0x1C49F, offset: 0x4247DC, size: 0x8, addend: 0x0, symName: '__ZN4core3ptr75drop_in_place$LT$alloc..boxed..Box$LT$syn..generics..TypeParamBound$GT$$GT$17h06d020fd356eb6c8E', symObjAddr: 0x7830, symBinAddr: 0xBD260, symSize: 0xB0 }
  - { offsetInCU: 0x1C7FA, offset: 0x424B37, size: 0x8, addend: 0x0, symName: '__ZN4core3ptr86drop_in_place$LT$syn..punctuated..Punctuated$LT$syn..pat..Pat$C$syn..token..Or$GT$$GT$17h1c252cd869cc7fe5E', symObjAddr: 0x78E0, symBinAddr: 0xBD310, symSize: 0x120 }
  - { offsetInCU: 0x1CC40, offset: 0x424F7D, size: 0x8, addend: 0x0, symName: '__ZN4core3ptr87drop_in_place$LT$core..option..Option$LT$alloc..boxed..Box$LT$syn..pat..Pat$GT$$GT$$GT$17h72bab185bf1bb06eE', symObjAddr: 0x7A00, symBinAddr: 0xBD430, symSize: 0x50 }
  - { offsetInCU: 0x1CDB2, offset: 0x4250EF, size: 0x8, addend: 0x0, symName: '__ZN4core3ptr87drop_in_place$LT$core..option..Option$LT$alloc..boxed..Box$LT$syn..ty..Type$GT$$GT$$GT$17hc260fbb8309ec29fE', symObjAddr: 0x7A50, symBinAddr: 0xBD480, symSize: 0x50 }
  - { offsetInCU: 0x1CF24, offset: 0x425261, size: 0x8, addend: 0x0, symName: '__ZN4core3ptr89drop_in_place$LT$core..option..Option$LT$alloc..boxed..Box$LT$syn..expr..Expr$GT$$GT$$GT$17h189e15babfcbbcfaE', symObjAddr: 0x7AA0, symBinAddr: 0xBD4D0, symSize: 0x50 }
  - { offsetInCU: 0x1D0D4, offset: 0x425411, size: 0x8, addend: 0x0, symName: '__ZN4core3ptr89drop_in_place$LT$syn..punctuated..Punctuated$LT$syn..pat..Pat$C$syn..token..Comma$GT$$GT$17ha82f9ca12786bd54E', symObjAddr: 0x7AF0, symBinAddr: 0xBD520, symSize: 0x120 }
  - { offsetInCU: 0x1D531, offset: 0x42586E, size: 0x8, addend: 0x0, symName: '__ZN4core3ptr89drop_in_place$LT$syn..punctuated..Punctuated$LT$syn..ty..Type$C$syn..token..Comma$GT$$GT$17h6c76e390e4497862E', symObjAddr: 0x7C10, symBinAddr: 0xBD640, symSize: 0x120 }
  - { offsetInCU: 0x1D97B, offset: 0x425CB8, size: 0x8, addend: 0x0, symName: '__ZN4core3ptr90drop_in_place$LT$core..option..Option$LT$syn..path..AngleBracketedGenericArguments$GT$$GT$17h488f4ff126d02fb4E', symObjAddr: 0x7D30, symBinAddr: 0xBD760, symSize: 0x130 }
  - { offsetInCU: 0x1DDE6, offset: 0x426123, size: 0x8, addend: 0x0, symName: '__ZN4core3ptr91drop_in_place$LT$syn..punctuated..Punctuated$LT$syn..expr..Expr$C$syn..token..Comma$GT$$GT$17h5d174cfb4564e731E', symObjAddr: 0x7E60, symBinAddr: 0xBD890, symSize: 0x120 }
  - { offsetInCU: 0x1E243, offset: 0x426580, size: 0x8, addend: 0x0, symName: '__ZN4core3ptr94drop_in_place$LT$syn..punctuated..Punctuated$LT$syn..pat..FieldPat$C$syn..token..Comma$GT$$GT$17h57ec84468c025663E', symObjAddr: 0x7F80, symBinAddr: 0xBD9B0, symSize: 0xF0 }
  - { offsetInCU: 0x1E50D, offset: 0x42684A, size: 0x8, addend: 0x0, symName: '__ZN4core3ptr94drop_in_place$LT$syn..punctuated..Punctuated$LT$syn..ty..BareFnArg$C$syn..token..Comma$GT$$GT$17h93a6df93f58cf1c2E', symObjAddr: 0x8070, symBinAddr: 0xBDAA0, symSize: 0xF0 }
  - { offsetInCU: 0x1E7D7, offset: 0x426B14, size: 0x8, addend: 0x0, symName: '__ZN4core3ptr96drop_in_place$LT$core..option..Option$LT$alloc..boxed..Box$LT$syn..path..PathSegment$GT$$GT$$GT$17hfffb4eb6744ee164E', symObjAddr: 0x8160, symBinAddr: 0xBDB90, symSize: 0x90 }
  - { offsetInCU: 0x1EA59, offset: 0x426D96, size: 0x8, addend: 0x0, symName: '__ZN4core3ptr97drop_in_place$LT$syn..punctuated..Punctuated$LT$syn..expr..FieldValue$C$syn..token..Comma$GT$$GT$17hd35fb722be03e3d1E', symObjAddr: 0x81F0, symBinAddr: 0xBDC20, symSize: 0xF0 }
  - { offsetInCU: 0x1ED23, offset: 0x427060, size: 0x8, addend: 0x0, symName: '__ZN4core3ptr98drop_in_place$LT$alloc..vec..Vec$LT$$LP$syn..path..GenericArgument$C$syn..token..Comma$RP$$GT$$GT$17h4fdb1af8625fb77aE', symObjAddr: 0x82E0, symBinAddr: 0xBDD10, symSize: 0xD0 }
  - { offsetInCU: 0x1F02C, offset: 0x427369, size: 0x8, addend: 0x0, symName: '__ZN4core3ptr98drop_in_place$LT$syn..punctuated..Punctuated$LT$syn..lifetime..Lifetime$C$syn..token..Plus$GT$$GT$17h0f92166c8c801efbE', symObjAddr: 0x83B0, symBinAddr: 0xBDDE0, symSize: 0xC0 }
  - { offsetInCU: 0x28EAE, offset: 0x4311EB, size: 0x8, addend: 0x0, symName: __ZN3syn3lit6LitStr10parse_with17h148c6fa9f2f4b86cE, symObjAddr: 0x0, symBinAddr: 0xB5A30, symSize: 0x360 }
  - { offsetInCU: 0x299E4, offset: 0x431D21, size: 0x8, addend: 0x0, symName: __ZN3syn3lit6LitStr10parse_with17h8bedccc449bbe97cE, symObjAddr: 0x360, symBinAddr: 0xB5D90, symSize: 0x3C0 }
  - { offsetInCU: 0x2A703, offset: 0x432A40, size: 0x8, addend: 0x0, symName: __ZN3syn3lit6LitStr10parse_with17heb47840cd79d991eE, symObjAddr: 0x720, symBinAddr: 0xB6150, symSize: 0x3C0 }
  - { offsetInCU: 0x2B206, offset: 0x433543, size: 0x8, addend: 0x0, symName: __ZN3syn3lit6LitStr10parse_with17hf83f45955b9c6d47E, symObjAddr: 0xAE0, symBinAddr: 0xB6510, symSize: 0x3A0 }
  - { offsetInCU: 0x2C8FD, offset: 0x434C3A, size: 0x8, addend: 0x0, symName: __ZN5quote9to_tokens8ToTokens17into_token_stream17ha88bd30c15e09ef1E, symObjAddr: 0x8470, symBinAddr: 0xBDEA0, symSize: 0xD6 }
  - { offsetInCU: 0x2BC4, offset: 0x439ADB, size: 0x8, addend: 0x0, symName: '__ZN4core3ptr39drop_in_place$LT$proc_macro2..Ident$GT$17h9d68045e9dec4a40E', symObjAddr: 0x90, symBinAddr: 0xBDF80, symSize: 0x30 }
  - { offsetInCU: 0x2DD8, offset: 0x439CEF, size: 0x8, addend: 0x0, symName: '__ZN4core3ptr45drop_in_place$LT$proc_macro2..TokenStream$GT$17h86cac592f04212eaE', symObjAddr: 0xC0, symBinAddr: 0xBDFB0, symSize: 0x140 }
  - { offsetInCU: 0x3228, offset: 0x43A13F, size: 0x8, addend: 0x0, symName: '__ZN4core3ptr57drop_in_place$LT$alloc..vec..Vec$LT$syn..ty..Type$GT$$GT$17h69848ab11a3422e4E', symObjAddr: 0x240, symBinAddr: 0xBE0F0, symSize: 0xD0 }
  - { offsetInCU: 0xC1B3, offset: 0x4430CA, size: 0x8, addend: 0x0, symName: '__ZN9hashbrown3map28HashMap$LT$K$C$V$C$S$C$A$GT$6insert17h01d1320eade675b2E', symObjAddr: 0x7B0, symBinAddr: 0xBE1C0, symSize: 0x2F0 }
  - { offsetInCU: 0xCF81, offset: 0x443E98, size: 0x8, addend: 0x0, symName: '__ZN9hashbrown3map28HashMap$LT$K$C$V$C$S$C$A$GT$6insert17h350db72ad9beb631E', symObjAddr: 0xAA0, symBinAddr: 0xBE4B0, symSize: 0x1F0 }
  - { offsetInCU: 0xDC4F, offset: 0x444B66, size: 0x8, addend: 0x0, symName: '__ZN9hashbrown3map28HashMap$LT$K$C$V$C$S$C$A$GT$6insert17hcee4b564523f4fbeE', symObjAddr: 0xC90, symBinAddr: 0xBE6A0, symSize: 0x220 }
  - { offsetInCU: 0xEB03, offset: 0x445A1A, size: 0x8, addend: 0x0, symName: '__ZN9hashbrown3map28HashMap$LT$K$C$V$C$S$C$A$GT$6insert17hf0ba2a3695e21a89E', symObjAddr: 0xEB0, symBinAddr: 0xBE8C0, symSize: 0x2D0 }
  - { offsetInCU: 0x1E, offset: 0x447322, size: 0x8, addend: 0x0, symName: '__ZN4core3ptr100drop_in_place$LT$core..option..Option$LT$alloc..boxed..Box$LT$syn..path..GenericArgument$GT$$GT$$GT$17h513ef87717aedfddE', symObjAddr: 0x0, symBinAddr: 0xBEB90, symSize: 0x50 }
  - { offsetInCU: 0x2305, offset: 0x449609, size: 0x8, addend: 0x0, symName: '__ZN4core3ptr100drop_in_place$LT$core..option..Option$LT$alloc..boxed..Box$LT$syn..path..GenericArgument$GT$$GT$$GT$17h513ef87717aedfddE', symObjAddr: 0x0, symBinAddr: 0xBEB90, symSize: 0x50 }
  - { offsetInCU: 0x26A5, offset: 0x4499A9, size: 0x8, addend: 0x0, symName: '__ZN4core3ptr100drop_in_place$LT$syn..punctuated..Punctuated$LT$syn..path..PathSegment$C$syn..token..PathSep$GT$$GT$17hd0d4e322634cba5dE', symObjAddr: 0x50, symBinAddr: 0xBEBE0, symSize: 0x280 }
  - { offsetInCU: 0x3152, offset: 0x44A456, size: 0x8, addend: 0x0, symName: '__ZN4core3ptr103drop_in_place$LT$core..option..Option$LT$alloc..boxed..Box$LT$syn..generics..TypeParamBound$GT$$GT$$GT$17h0d79b9ffb4171f90E', symObjAddr: 0x2D0, symBinAddr: 0xBEE60, symSize: 0x50 }
  - { offsetInCU: 0x335F, offset: 0x44A663, size: 0x8, addend: 0x0, symName: '__ZN4core3ptr103drop_in_place$LT$syn..punctuated..Punctuated$LT$syn..generics..GenericParam$C$syn..token..Comma$GT$$GT$17h1d35d7d5913e8beaE', symObjAddr: 0x320, symBinAddr: 0xBEEB0, symSize: 0xF0 }
  - { offsetInCU: 0x3822, offset: 0x44AB26, size: 0x8, addend: 0x0, symName: '__ZN4core3ptr104drop_in_place$LT$syn..punctuated..Punctuated$LT$syn..generics..TypeParamBound$C$syn..token..Plus$GT$$GT$17h44083f960cd822d7E', symObjAddr: 0x410, symBinAddr: 0xBEFA0, symSize: 0x190 }
  - { offsetInCU: 0x3E95, offset: 0x44B199, size: 0x8, addend: 0x0, symName: '__ZN4core3ptr34drop_in_place$LT$syn..lit..Lit$GT$17h3e4ef73f9d6504faE', symObjAddr: 0x5A0, symBinAddr: 0xBF130, symSize: 0x110 }
  - { offsetInCU: 0x43EE, offset: 0x44B6F2, size: 0x8, addend: 0x0, symName: '__ZN4core3ptr34drop_in_place$LT$syn..pat..Pat$GT$17hf99e10cab020967aE', symObjAddr: 0x6B0, symBinAddr: 0xBF240, symSize: 0x1070 }
  - { offsetInCU: 0x858F, offset: 0x44F893, size: 0x8, addend: 0x0, symName: '__ZN4core3ptr34drop_in_place$LT$syn..ty..Type$GT$17hc9a287e6412cf4a5E', symObjAddr: 0x1720, symBinAddr: 0xC02B0, symSize: 0x510 }
  - { offsetInCU: 0x9BEE, offset: 0x450EF2, size: 0x8, addend: 0x0, symName: '__ZN4core3ptr36drop_in_place$LT$syn..expr..Expr$GT$17hbea3b059aebc6b0dE', symObjAddr: 0x1C30, symBinAddr: 0xC07C0, symSize: 0x2920 }
  - { offsetInCU: 0x13A2C, offset: 0x45AD30, size: 0x8, addend: 0x0, symName: '__ZN4core3ptr36drop_in_place$LT$syn..mac..Macro$GT$17haa1481cb4fe5d660E', symObjAddr: 0x4550, symBinAddr: 0xC30E0, symSize: 0x40 }
  - { offsetInCU: 0x13A66, offset: 0x45AD6A, size: 0x8, addend: 0x0, symName: '__ZN4core3ptr36drop_in_place$LT$syn..path..Path$GT$17hb26ddc646911d9caE', symObjAddr: 0x4590, symBinAddr: 0xC3120, symSize: 0x240 }
  - { offsetInCU: 0x144AF, offset: 0x45B7B3, size: 0x8, addend: 0x0, symName: '__ZN4core3ptr37drop_in_place$LT$syn..stmt..Block$GT$17h9bb04bc412e892c1E', symObjAddr: 0x47D0, symBinAddr: 0xC3360, symSize: 0xD0 }
  - { offsetInCU: 0x14753, offset: 0x45BA57, size: 0x8, addend: 0x0, symName: '__ZN4core3ptr38drop_in_place$LT$syn..expr..Member$GT$17h54f73fbfaef06080E', symObjAddr: 0x48A0, symBinAddr: 0xC3430, symSize: 0x30 }
  - { offsetInCU: 0x14850, offset: 0x45BB54, size: 0x8, addend: 0x0, symName: '__ZN4core3ptr39drop_in_place$LT$proc_macro2..Ident$GT$17h9d68045e9dec4a40E', symObjAddr: 0x48D0, symBinAddr: 0xC3460, symSize: 0x30 }
  - { offsetInCU: 0x1492E, offset: 0x45BC32, size: 0x8, addend: 0x0, symName: '__ZN4core3ptr40drop_in_place$LT$syn..ty..ReturnType$GT$17h4a68005bbc507217E', symObjAddr: 0x4900, symBinAddr: 0xC3490, symSize: 0x50 }
  - { offsetInCU: 0x14AA0, offset: 0x45BDA4, size: 0x8, addend: 0x0, symName: '__ZN4core3ptr41drop_in_place$LT$syn..expr..ExprConst$GT$17h454a2cb9df850c24E', symObjAddr: 0x4950, symBinAddr: 0xC34E0, symSize: 0x180 }
  - { offsetInCU: 0x15029, offset: 0x45C32D, size: 0x8, addend: 0x0, symName: '__ZN4core3ptr44drop_in_place$LT$syn..lifetime..Lifetime$GT$17h9c301554489a697eE', symObjAddr: 0x4AD0, symBinAddr: 0xC3660, symSize: 0x30 }
  - { offsetInCU: 0x1525C, offset: 0x45C560, size: 0x8, addend: 0x0, symName: '__ZN4core3ptr45drop_in_place$LT$proc_macro2..TokenStream$GT$17h86cac592f04212eaE', symObjAddr: 0x4B00, symBinAddr: 0xC3690, symSize: 0x140 }
  - { offsetInCU: 0x156CB, offset: 0x45C9CF, size: 0x8, addend: 0x0, symName: '__ZN4core3ptr45drop_in_place$LT$syn..generics..TypeParam$GT$17he645f7cc80b7ae11E', symObjAddr: 0x4C40, symBinAddr: 0xC37D0, symSize: 0x230 }
  - { offsetInCU: 0x15EFB, offset: 0x45D1FF, size: 0x8, addend: 0x0, symName: '__ZN4core3ptr46drop_in_place$LT$syn..generics..ConstParam$GT$17hc19d519d6441178aE', symObjAddr: 0x4E70, symBinAddr: 0xC3A00, symSize: 0x150 }
  - { offsetInCU: 0x16359, offset: 0x45D65D, size: 0x8, addend: 0x0, symName: '__ZN4core3ptr47drop_in_place$LT$syn..path..GenericArgument$GT$17ha7ad17cb38a1a5afE', symObjAddr: 0x4FC0, symBinAddr: 0xC3B50, symSize: 0x4A0 }
  - { offsetInCU: 0x17400, offset: 0x45E704, size: 0x8, addend: 0x0, symName: '__ZN4core3ptr49drop_in_place$LT$syn..generics..LifetimeParam$GT$17h47d9f9e81b35a3dcE', symObjAddr: 0x5460, symBinAddr: 0xC3FF0, symSize: 0xF0 }
  - { offsetInCU: 0x177EE, offset: 0x45EAF2, size: 0x8, addend: 0x0, symName: '__ZN4core3ptr50drop_in_place$LT$syn..generics..TypeParamBound$GT$17h7c1195cdfd37b73cE', symObjAddr: 0x5550, symBinAddr: 0xC40E0, symSize: 0x1A0 }
  - { offsetInCU: 0x17D22, offset: 0x45F026, size: 0x8, addend: 0x0, symName: '__ZN4core3ptr58drop_in_place$LT$alloc..vec..Vec$LT$syn..expr..Arm$GT$$GT$17ha648d1896dec8b4dE', symObjAddr: 0x56F0, symBinAddr: 0xC4280, symSize: 0xD0 }
  - { offsetInCU: 0x17FAF, offset: 0x45F2B3, size: 0x8, addend: 0x0, symName: '__ZN4core3ptr59drop_in_place$LT$alloc..boxed..Box$LT$syn..pat..Pat$GT$$GT$17hfa860577679c86cbE', symObjAddr: 0x57C0, symBinAddr: 0xC4350, symSize: 0x50 }
  - { offsetInCU: 0x1810A, offset: 0x45F40E, size: 0x8, addend: 0x0, symName: '__ZN4core3ptr59drop_in_place$LT$alloc..boxed..Box$LT$syn..ty..Type$GT$$GT$17hce35c4b60063cd1fE', symObjAddr: 0x5810, symBinAddr: 0xC43A0, symSize: 0x50 }
  - { offsetInCU: 0x18265, offset: 0x45F569, size: 0x8, addend: 0x0, symName: '__ZN4core3ptr61drop_in_place$LT$alloc..boxed..Box$LT$syn..expr..Expr$GT$$GT$17h35b8f1409a9ab85bE', symObjAddr: 0x5860, symBinAddr: 0xC43F0, symSize: 0x50 }
  - { offsetInCU: 0x1843C, offset: 0x45F740, size: 0x8, addend: 0x0, symName: '__ZN4core3ptr61drop_in_place$LT$syn..path..ParenthesizedGenericArguments$GT$17h6d1a096952b83c04E', symObjAddr: 0x58B0, symBinAddr: 0xC4440, symSize: 0x170 }
  - { offsetInCU: 0x18A03, offset: 0x45FD07, size: 0x8, addend: 0x0, symName: '__ZN4core3ptr62drop_in_place$LT$syn..path..AngleBracketedGenericArguments$GT$17h1e2e2310287487b5E', symObjAddr: 0x5A20, symBinAddr: 0xC45B0, symSize: 0x120 }
  - { offsetInCU: 0x18E19, offset: 0x46011D, size: 0x8, addend: 0x0, symName: '__ZN4core3ptr63drop_in_place$LT$alloc..boxed..Box$LT$syn..lit..LitRepr$GT$$GT$17h4a54b8c5cd42faf5E', symObjAddr: 0x5B40, symBinAddr: 0xC46D0, symSize: 0x60 }
  - { offsetInCU: 0x1910E, offset: 0x460412, size: 0x8, addend: 0x0, symName: '__ZN4core3ptr64drop_in_place$LT$alloc..boxed..Box$LT$syn..pat..FieldPat$GT$$GT$17hf3d389ef82c9f10bE', symObjAddr: 0x5BA0, symBinAddr: 0xC4730, symSize: 0x140 }
  - { offsetInCU: 0x197ED, offset: 0x460AF1, size: 0x8, addend: 0x0, symName: '__ZN4core3ptr64drop_in_place$LT$alloc..boxed..Box$LT$syn..ty..BareFnArg$GT$$GT$17hc862ec57eebf1a54E', symObjAddr: 0x5CE0, symBinAddr: 0xC4870, symSize: 0x140 }
  - { offsetInCU: 0x19D45, offset: 0x461049, size: 0x8, addend: 0x0, symName: '__ZN4core3ptr65drop_in_place$LT$core..option..Option$LT$syn..expr..Label$GT$$GT$17hfc626d17a1d0054dE', symObjAddr: 0x5E20, symBinAddr: 0xC49B0, symSize: 0x30 }
  - { offsetInCU: 0x19E80, offset: 0x461184, size: 0x8, addend: 0x0, symName: '__ZN4core3ptr66drop_in_place$LT$core..option..Option$LT$syn..pat..PatRest$GT$$GT$17hba8f4d9198c0dabcE', symObjAddr: 0x5E50, symBinAddr: 0xC49E0, symSize: 0xE0 }
  - { offsetInCU: 0x1A138, offset: 0x46143C, size: 0x8, addend: 0x0, symName: '__ZN4core3ptr67drop_in_place$LT$alloc..boxed..Box$LT$syn..expr..FieldValue$GT$$GT$17h1fe00f656b5bc41eE', symObjAddr: 0x5F30, symBinAddr: 0xC4AC0, symSize: 0x140 }
  - { offsetInCU: 0x1A670, offset: 0x461974, size: 0x8, addend: 0x0, symName: '__ZN4core3ptr68drop_in_place$LT$alloc..boxed..Box$LT$syn..path..PathSegment$GT$$GT$17hdf3e53c9442c6d12E', symObjAddr: 0x6070, symBinAddr: 0xC4C00, symSize: 0x190 }
  - { offsetInCU: 0x1AD4E, offset: 0x462052, size: 0x8, addend: 0x0, symName: '__ZN4core3ptr70drop_in_place$LT$core..option..Option$LT$syn..ty..BareVariadic$GT$$GT$17hf6aaee8d5112d370E', symObjAddr: 0x6200, symBinAddr: 0xC4D90, symSize: 0x120 }
  - { offsetInCU: 0x1B2AF, offset: 0x4625B3, size: 0x8, addend: 0x0, symName: '__ZN4core3ptr72drop_in_place$LT$alloc..boxed..Box$LT$syn..path..GenericArgument$GT$$GT$17hc3f5a13c594d53a1E', symObjAddr: 0x6320, symBinAddr: 0xC4EB0, symSize: 0x1D0 }
  - { offsetInCU: 0x1B852, offset: 0x462B56, size: 0x8, addend: 0x0, symName: '__ZN4core3ptr72drop_in_place$LT$core..option..Option$LT$syn..lifetime..Lifetime$GT$$GT$17hf02c2376eaf0703fE', symObjAddr: 0x64F0, symBinAddr: 0xC5080, symSize: 0x30 }
  - { offsetInCU: 0x1B96E, offset: 0x462C72, size: 0x8, addend: 0x0, symName: '__ZN4core3ptr73drop_in_place$LT$alloc..boxed..Box$LT$syn..generics..GenericParam$GT$$GT$17hbb1f35d2f323630eE', symObjAddr: 0x6520, symBinAddr: 0xC50B0, symSize: 0x80 }
  - { offsetInCU: 0x1BAE6, offset: 0x462DEA, size: 0x8, addend: 0x0, symName: '__ZN4core3ptr75drop_in_place$LT$alloc..boxed..Box$LT$syn..generics..TypeParamBound$GT$$GT$17h06d020fd356eb6c8E', symObjAddr: 0x65A0, symBinAddr: 0xC5130, symSize: 0xB0 }
  - { offsetInCU: 0x1BE41, offset: 0x463145, size: 0x8, addend: 0x0, symName: '__ZN4core3ptr86drop_in_place$LT$syn..punctuated..Punctuated$LT$syn..pat..Pat$C$syn..token..Or$GT$$GT$17h1c252cd869cc7fe5E', symObjAddr: 0x6650, symBinAddr: 0xC51E0, symSize: 0x120 }
  - { offsetInCU: 0x1C287, offset: 0x46358B, size: 0x8, addend: 0x0, symName: '__ZN4core3ptr87drop_in_place$LT$core..option..Option$LT$alloc..boxed..Box$LT$syn..pat..Pat$GT$$GT$$GT$17h72bab185bf1bb06eE', symObjAddr: 0x6770, symBinAddr: 0xC5300, symSize: 0x50 }
  - { offsetInCU: 0x1C3F9, offset: 0x4636FD, size: 0x8, addend: 0x0, symName: '__ZN4core3ptr87drop_in_place$LT$core..option..Option$LT$alloc..boxed..Box$LT$syn..ty..Type$GT$$GT$$GT$17hc260fbb8309ec29fE', symObjAddr: 0x67C0, symBinAddr: 0xC5350, symSize: 0x50 }
  - { offsetInCU: 0x1C56B, offset: 0x46386F, size: 0x8, addend: 0x0, symName: '__ZN4core3ptr89drop_in_place$LT$core..option..Option$LT$alloc..boxed..Box$LT$syn..expr..Expr$GT$$GT$$GT$17h189e15babfcbbcfaE', symObjAddr: 0x6810, symBinAddr: 0xC53A0, symSize: 0x50 }
  - { offsetInCU: 0x1C71B, offset: 0x463A1F, size: 0x8, addend: 0x0, symName: '__ZN4core3ptr89drop_in_place$LT$syn..punctuated..Punctuated$LT$syn..pat..Pat$C$syn..token..Comma$GT$$GT$17ha82f9ca12786bd54E', symObjAddr: 0x6860, symBinAddr: 0xC53F0, symSize: 0x120 }
  - { offsetInCU: 0x1CB78, offset: 0x463E7C, size: 0x8, addend: 0x0, symName: '__ZN4core3ptr89drop_in_place$LT$syn..punctuated..Punctuated$LT$syn..ty..Type$C$syn..token..Comma$GT$$GT$17h6c76e390e4497862E', symObjAddr: 0x6980, symBinAddr: 0xC5510, symSize: 0x120 }
  - { offsetInCU: 0x1CFC2, offset: 0x4642C6, size: 0x8, addend: 0x0, symName: '__ZN4core3ptr90drop_in_place$LT$core..option..Option$LT$syn..path..AngleBracketedGenericArguments$GT$$GT$17h488f4ff126d02fb4E', symObjAddr: 0x6AA0, symBinAddr: 0xC5630, symSize: 0x130 }
  - { offsetInCU: 0x1D42D, offset: 0x464731, size: 0x8, addend: 0x0, symName: '__ZN4core3ptr91drop_in_place$LT$syn..punctuated..Punctuated$LT$syn..expr..Expr$C$syn..token..Comma$GT$$GT$17h5d174cfb4564e731E', symObjAddr: 0x6BD0, symBinAddr: 0xC5760, symSize: 0x120 }
  - { offsetInCU: 0x1D88A, offset: 0x464B8E, size: 0x8, addend: 0x0, symName: '__ZN4core3ptr94drop_in_place$LT$syn..punctuated..Punctuated$LT$syn..pat..FieldPat$C$syn..token..Comma$GT$$GT$17h57ec84468c025663E', symObjAddr: 0x6CF0, symBinAddr: 0xC5880, symSize: 0xF0 }
  - { offsetInCU: 0x1DB54, offset: 0x464E58, size: 0x8, addend: 0x0, symName: '__ZN4core3ptr94drop_in_place$LT$syn..punctuated..Punctuated$LT$syn..ty..BareFnArg$C$syn..token..Comma$GT$$GT$17h93a6df93f58cf1c2E', symObjAddr: 0x6DE0, symBinAddr: 0xC5970, symSize: 0xF0 }
  - { offsetInCU: 0x1DE1E, offset: 0x465122, size: 0x8, addend: 0x0, symName: '__ZN4core3ptr96drop_in_place$LT$core..option..Option$LT$alloc..boxed..Box$LT$syn..path..PathSegment$GT$$GT$$GT$17hfffb4eb6744ee164E', symObjAddr: 0x6ED0, symBinAddr: 0xC5A60, symSize: 0x90 }
  - { offsetInCU: 0x1E0A0, offset: 0x4653A4, size: 0x8, addend: 0x0, symName: '__ZN4core3ptr97drop_in_place$LT$syn..punctuated..Punctuated$LT$syn..expr..FieldValue$C$syn..token..Comma$GT$$GT$17hd35fb722be03e3d1E', symObjAddr: 0x6F60, symBinAddr: 0xC5AF0, symSize: 0xF0 }
  - { offsetInCU: 0x1E36A, offset: 0x46566E, size: 0x8, addend: 0x0, symName: '__ZN4core3ptr98drop_in_place$LT$alloc..vec..Vec$LT$$LP$syn..path..GenericArgument$C$syn..token..Comma$RP$$GT$$GT$17h4fdb1af8625fb77aE', symObjAddr: 0x7050, symBinAddr: 0xC5BE0, symSize: 0xD0 }
  - { offsetInCU: 0x1E673, offset: 0x465977, size: 0x8, addend: 0x0, symName: '__ZN4core3ptr98drop_in_place$LT$syn..punctuated..Punctuated$LT$syn..lifetime..Lifetime$C$syn..token..Plus$GT$$GT$17h0f92166c8c801efbE', symObjAddr: 0x7120, symBinAddr: 0xC5CB0, symSize: 0xC0 }
  - { offsetInCU: 0x28B27, offset: 0x46FE2B, size: 0x8, addend: 0x0, symName: __ZN12borsh_derive9internals17enum_discriminant13Discriminants3new17h1b8e67ff0b61f17fE, symObjAddr: 0x71E0, symBinAddr: 0xC5D70, symSize: 0x520 }
  - { offsetInCU: 0x29C6C, offset: 0x470F70, size: 0x8, addend: 0x0, symName: __ZN12borsh_derive9internals17enum_discriminant13Discriminants3get17h43c6937cafb0b56eE, symObjAddr: 0x7700, symBinAddr: 0xC6290, symSize: 0x36C }
  - { offsetInCU: 0x1E, offset: 0x473E76, size: 0x8, addend: 0x0, symName: __ZN10proc_macro6bridge6client14HandleCounters3get17h02da01958788119eE, symObjAddr: 0x0, symBinAddr: 0xC6600, symSize: 0x10 }
  - { offsetInCU: 0x40, offset: 0x473E98, size: 0x8, addend: 0x0, symName: ___rustc_proc_macro_decls_c83157abcbfb658d__, symObjAddr: 0xA750, symBinAddr: 0x3D9168, symSize: 0x0 }
  - { offsetInCU: 0x6D, offset: 0x473EC5, size: 0x8, addend: 0x0, symName: __ZN12borsh_derive25check_attrs_get_cratename17hd8f37c023e16f698E, symObjAddr: 0x8100, symBinAddr: 0xCE700, symSize: 0x1A0 }
  - { offsetInCU: 0x3F9, offset: 0x474251, size: 0x8, addend: 0x0, symName: __ZN12borsh_derive15borsh_serialize17h004a6c253704f36eE, symObjAddr: 0x82A0, symBinAddr: 0xCE8A0, symSize: 0x560 }
  - { offsetInCU: 0xE3A, offset: 0x474C92, size: 0x8, addend: 0x0, symName: __ZN12borsh_derive17borsh_deserialize17hf28b8a788a38efe3E, symObjAddr: 0x8800, symBinAddr: 0xCEE00, symSize: 0x560 }
  - { offsetInCU: 0x187B, offset: 0x4756D3, size: 0x8, addend: 0x0, symName: __ZN12borsh_derive12borsh_schema17h3785b02e163d900eE, symObjAddr: 0x8D60, symBinAddr: 0xCF360, symSize: 0x6E1 }
  - { offsetInCU: 0x5B20, offset: 0x479978, size: 0x8, addend: 0x0, symName: '__ZN4core3ptr100drop_in_place$LT$core..option..Option$LT$alloc..boxed..Box$LT$syn..path..GenericArgument$GT$$GT$$GT$17h513ef87717aedfddE', symObjAddr: 0x10, symBinAddr: 0xC6610, symSize: 0x50 }
  - { offsetInCU: 0x5CEF, offset: 0x479B47, size: 0x8, addend: 0x0, symName: '__ZN4core3ptr102drop_in_place$LT$syn..punctuated..Punctuated$LT$syn..path..GenericArgument$C$syn..token..Comma$GT$$GT$17ha5e403e03e446464E', symObjAddr: 0x60, symBinAddr: 0xC6660, symSize: 0xF0 }
  - { offsetInCU: 0x5FD8, offset: 0x479E30, size: 0x8, addend: 0x0, symName: '__ZN4core3ptr103drop_in_place$LT$core..option..Option$LT$alloc..boxed..Box$LT$syn..generics..TypeParamBound$GT$$GT$$GT$17h0d79b9ffb4171f90E', symObjAddr: 0x150, symBinAddr: 0xC6750, symSize: 0x50 }
  - { offsetInCU: 0x629F, offset: 0x47A0F7, size: 0x8, addend: 0x0, symName: '__ZN4core3ptr103drop_in_place$LT$core..option..Option$LT$alloc..boxed..Box$LT$syn..generics..WherePredicate$GT$$GT$$GT$17h5eae77184a584f9cE', symObjAddr: 0x1A0, symBinAddr: 0xC67A0, symSize: 0xD0 }
  - { offsetInCU: 0x6632, offset: 0x47A48A, size: 0x8, addend: 0x0, symName: '__ZN4core3ptr103drop_in_place$LT$syn..punctuated..Punctuated$LT$syn..generics..GenericParam$C$syn..token..Comma$GT$$GT$17h1d35d7d5913e8beaE', symObjAddr: 0x270, symBinAddr: 0xC6870, symSize: 0xF0 }
  - { offsetInCU: 0x6AF5, offset: 0x47A94D, size: 0x8, addend: 0x0, symName: '__ZN4core3ptr104drop_in_place$LT$syn..punctuated..Punctuated$LT$syn..generics..TypeParamBound$C$syn..token..Plus$GT$$GT$17h44083f960cd822d7E', symObjAddr: 0x360, symBinAddr: 0xC6960, symSize: 0x260 }
  - { offsetInCU: 0x74E7, offset: 0x47B33F, size: 0x8, addend: 0x0, symName: '__ZN4core3ptr34drop_in_place$LT$syn..lit..Lit$GT$17h3e4ef73f9d6504faE', symObjAddr: 0x5C0, symBinAddr: 0xC6BC0, symSize: 0x110 }
  - { offsetInCU: 0x7A40, offset: 0x47B898, size: 0x8, addend: 0x0, symName: '__ZN4core3ptr34drop_in_place$LT$syn..pat..Pat$GT$17hf99e10cab020967aE', symObjAddr: 0x6D0, symBinAddr: 0xC6CD0, symSize: 0xF00 }
  - { offsetInCU: 0xB4E3, offset: 0x47F33B, size: 0x8, addend: 0x0, symName: '__ZN4core3ptr34drop_in_place$LT$syn..ty..Type$GT$17hc9a287e6412cf4a5E', symObjAddr: 0x15D0, symBinAddr: 0xC7BD0, symSize: 0x5E0 }
  - { offsetInCU: 0xCE2D, offset: 0x480C85, size: 0x8, addend: 0x0, symName: '__ZN4core3ptr36drop_in_place$LT$syn..expr..Expr$GT$17hbea3b059aebc6b0dE', symObjAddr: 0x1BB0, symBinAddr: 0xC81B0, symSize: 0x2830 }
  - { offsetInCU: 0x168A2, offset: 0x48A6FA, size: 0x8, addend: 0x0, symName: '__ZN4core3ptr36drop_in_place$LT$syn..mac..Macro$GT$17haa1481cb4fe5d660E', symObjAddr: 0x43E0, symBinAddr: 0xCA9E0, symSize: 0x110 }
  - { offsetInCU: 0x16D27, offset: 0x48AB7F, size: 0x8, addend: 0x0, symName: '__ZN4core3ptr36drop_in_place$LT$syn..path..Path$GT$17hb26ddc646911d9caE', symObjAddr: 0x44F0, symBinAddr: 0xCAAF0, symSize: 0x240 }
  - { offsetInCU: 0x17770, offset: 0x48B5C8, size: 0x8, addend: 0x0, symName: '__ZN4core3ptr37drop_in_place$LT$syn..stmt..Block$GT$17h9bb04bc412e892c1E', symObjAddr: 0x4730, symBinAddr: 0xCAD30, symSize: 0xD0 }
  - { offsetInCU: 0x17AAF, offset: 0x48B907, size: 0x8, addend: 0x0, symName: '__ZN4core3ptr38drop_in_place$LT$syn..data..Fields$GT$17ha203e0075168be1bE', symObjAddr: 0x4800, symBinAddr: 0xCAE00, symSize: 0x190 }
  - { offsetInCU: 0x17F87, offset: 0x48BDDF, size: 0x8, addend: 0x0, symName: '__ZN4core3ptr38drop_in_place$LT$syn..derive..Data$GT$17h4c349a2560773fceE', symObjAddr: 0x4990, symBinAddr: 0xCAF90, symSize: 0x1D0 }
  - { offsetInCU: 0x18605, offset: 0x48C45D, size: 0x8, addend: 0x0, symName: '__ZN4core3ptr38drop_in_place$LT$syn..error..Error$GT$17h6faeff159aa80c91E', symObjAddr: 0x4B60, symBinAddr: 0xCB160, symSize: 0x80 }
  - { offsetInCU: 0x188C4, offset: 0x48C71C, size: 0x8, addend: 0x0, symName: '__ZN4core3ptr38drop_in_place$LT$syn..expr..Member$GT$17h54f73fbfaef06080E', symObjAddr: 0x4BE0, symBinAddr: 0xCB1E0, symSize: 0x30 }
  - { offsetInCU: 0x189C1, offset: 0x48C819, size: 0x8, addend: 0x0, symName: '__ZN4core3ptr39drop_in_place$LT$proc_macro2..Ident$GT$17h9d68045e9dec4a40E', symObjAddr: 0x4C10, symBinAddr: 0xCB210, symSize: 0x30 }
  - { offsetInCU: 0x18B1B, offset: 0x48C973, size: 0x8, addend: 0x0, symName: '__ZN4core3ptr40drop_in_place$LT$syn..item..ItemEnum$GT$17ha628009d8bc829f8E', symObjAddr: 0x4C40, symBinAddr: 0xCB240, symSize: 0x250 }
  - { offsetInCU: 0x1933F, offset: 0x48D197, size: 0x8, addend: 0x0, symName: '__ZN4core3ptr40drop_in_place$LT$syn..ty..ReturnType$GT$17h4a68005bbc507217E', symObjAddr: 0x4E90, symBinAddr: 0xCB490, symSize: 0x50 }
  - { offsetInCU: 0x194B1, offset: 0x48D309, size: 0x8, addend: 0x0, symName: '__ZN4core3ptr41drop_in_place$LT$syn..expr..ExprConst$GT$17h454a2cb9df850c24E', symObjAddr: 0x4EE0, symBinAddr: 0xCB4E0, symSize: 0x180 }
  - { offsetInCU: 0x19A3A, offset: 0x48D892, size: 0x8, addend: 0x0, symName: '__ZN4core3ptr41drop_in_place$LT$syn..item..ItemUnion$GT$17hf601c36ec79af964E', symObjAddr: 0x5060, symBinAddr: 0xCB660, symSize: 0x250 }
  - { offsetInCU: 0x1A275, offset: 0x48E0CD, size: 0x8, addend: 0x0, symName: '__ZN4core3ptr42drop_in_place$LT$syn..item..ItemStruct$GT$17hdec71518d5ea790eE', symObjAddr: 0x52B0, symBinAddr: 0xCB8B0, symSize: 0x1A0 }
  - { offsetInCU: 0x1A7C1, offset: 0x48E619, size: 0x8, addend: 0x0, symName: '__ZN4core3ptr43drop_in_place$LT$syn..data..FieldsNamed$GT$17h0c4b056e95bbf129E', symObjAddr: 0x5450, symBinAddr: 0xCBA50, symSize: 0xE0 }
  - { offsetInCU: 0x1AAB0, offset: 0x48E908, size: 0x8, addend: 0x0, symName: '__ZN4core3ptr44drop_in_place$LT$syn..generics..Generics$GT$17he55a6c2a0d8d138cE', symObjAddr: 0x5530, symBinAddr: 0xCBB30, symSize: 0x40 }
  - { offsetInCU: 0x1AACD, offset: 0x48E925, size: 0x8, addend: 0x0, symName: '__ZN4core3ptr44drop_in_place$LT$syn..lifetime..Lifetime$GT$17h9c301554489a697eE', symObjAddr: 0x5570, symBinAddr: 0xCBB70, symSize: 0x30 }
  - { offsetInCU: 0x1AD00, offset: 0x48EB58, size: 0x8, addend: 0x0, symName: '__ZN4core3ptr45drop_in_place$LT$proc_macro2..TokenStream$GT$17h86cac592f04212eaE', symObjAddr: 0x55A0, symBinAddr: 0xCBBA0, symSize: 0x140 }
  - { offsetInCU: 0x1B131, offset: 0x48EF89, size: 0x8, addend: 0x0, symName: '__ZN4core3ptr45drop_in_place$LT$syn..derive..DeriveInput$GT$17h4b845eedc8aebf3dE', symObjAddr: 0x56E0, symBinAddr: 0xCBCE0, symSize: 0x1A0 }
  - { offsetInCU: 0x1B6BB, offset: 0x48F513, size: 0x8, addend: 0x0, symName: '__ZN4core3ptr45drop_in_place$LT$syn..generics..TypeParam$GT$17he645f7cc80b7ae11E', symObjAddr: 0x5880, symBinAddr: 0xCBE80, symSize: 0x230 }
  - { offsetInCU: 0x1BEEB, offset: 0x48FD43, size: 0x8, addend: 0x0, symName: '__ZN4core3ptr46drop_in_place$LT$syn..generics..ConstParam$GT$17hc19d519d6441178aE', symObjAddr: 0x5AB0, symBinAddr: 0xCC0B0, symSize: 0x150 }
  - { offsetInCU: 0x1C349, offset: 0x4901A1, size: 0x8, addend: 0x0, symName: '__ZN4core3ptr47drop_in_place$LT$syn..path..GenericArgument$GT$17ha7ad17cb38a1a5afE', symObjAddr: 0x5C00, symBinAddr: 0xCC200, symSize: 0x460 }
  - { offsetInCU: 0x1D052, offset: 0x490EAA, size: 0x8, addend: 0x0, symName: '__ZN4core3ptr49drop_in_place$LT$syn..generics..LifetimeParam$GT$17h47d9f9e81b35a3dcE', symObjAddr: 0x6060, symBinAddr: 0xCC660, symSize: 0xF0 }
  - { offsetInCU: 0x1D440, offset: 0x491298, size: 0x8, addend: 0x0, symName: '__ZN4core3ptr49drop_in_place$LT$syn..restriction..Visibility$GT$17h3b96b9039c144528E', symObjAddr: 0x6150, symBinAddr: 0xCC750, symSize: 0x60 }
  - { offsetInCU: 0x1D5C3, offset: 0x49141B, size: 0x8, addend: 0x0, symName: '__ZN4core3ptr50drop_in_place$LT$syn..generics..TypeParamBound$GT$17h7c1195cdfd37b73cE', symObjAddr: 0x61B0, symBinAddr: 0xCC7B0, symSize: 0xA0 }
  - { offsetInCU: 0x1D72A, offset: 0x491582, size: 0x8, addend: 0x0, symName: '__ZN4core3ptr58drop_in_place$LT$alloc..vec..Vec$LT$syn..expr..Arm$GT$$GT$17ha648d1896dec8b4dE', symObjAddr: 0x6250, symBinAddr: 0xCC850, symSize: 0xD0 }
  - { offsetInCU: 0x1D9B7, offset: 0x49180F, size: 0x8, addend: 0x0, symName: '__ZN4core3ptr59drop_in_place$LT$alloc..boxed..Box$LT$syn..pat..Pat$GT$$GT$17hfa860577679c86cbE', symObjAddr: 0x6320, symBinAddr: 0xCC920, symSize: 0x50 }
  - { offsetInCU: 0x1DB12, offset: 0x49196A, size: 0x8, addend: 0x0, symName: '__ZN4core3ptr59drop_in_place$LT$alloc..boxed..Box$LT$syn..ty..Type$GT$$GT$17hce35c4b60063cd1fE', symObjAddr: 0x6370, symBinAddr: 0xCC970, symSize: 0x50 }
  - { offsetInCU: 0x1DC6D, offset: 0x491AC5, size: 0x8, addend: 0x0, symName: '__ZN4core3ptr61drop_in_place$LT$alloc..boxed..Box$LT$syn..expr..Expr$GT$$GT$17h35b8f1409a9ab85bE', symObjAddr: 0x63C0, symBinAddr: 0xCC9C0, symSize: 0x50 }
  - { offsetInCU: 0x1DDC8, offset: 0x491C20, size: 0x8, addend: 0x0, symName: '__ZN4core3ptr61drop_in_place$LT$syn..path..ParenthesizedGenericArguments$GT$17h6d1a096952b83c04E', symObjAddr: 0x6410, symBinAddr: 0xCCA10, symSize: 0x170 }
  - { offsetInCU: 0x1E3A2, offset: 0x4921FA, size: 0x8, addend: 0x0, symName: '__ZN4core3ptr63drop_in_place$LT$alloc..boxed..Box$LT$syn..lit..LitRepr$GT$$GT$17h4a54b8c5cd42faf5E', symObjAddr: 0x6580, symBinAddr: 0xCCB80, symSize: 0x60 }
  - { offsetInCU: 0x1E697, offset: 0x4924EF, size: 0x8, addend: 0x0, symName: '__ZN4core3ptr64drop_in_place$LT$alloc..boxed..Box$LT$syn..pat..FieldPat$GT$$GT$17hf3d389ef82c9f10bE', symObjAddr: 0x65E0, symBinAddr: 0xCCBE0, symSize: 0x140 }
  - { offsetInCU: 0x1ED76, offset: 0x492BCE, size: 0x8, addend: 0x0, symName: '__ZN4core3ptr64drop_in_place$LT$alloc..boxed..Box$LT$syn..ty..BareFnArg$GT$$GT$17hc862ec57eebf1a54E', symObjAddr: 0x6720, symBinAddr: 0xCCD20, symSize: 0x140 }
  - { offsetInCU: 0x1F2CE, offset: 0x493126, size: 0x8, addend: 0x0, symName: '__ZN4core3ptr65drop_in_place$LT$core..option..Option$LT$syn..expr..Label$GT$$GT$17hfc626d17a1d0054dE', symObjAddr: 0x6860, symBinAddr: 0xCCE60, symSize: 0x30 }
  - { offsetInCU: 0x1F409, offset: 0x493261, size: 0x8, addend: 0x0, symName: '__ZN4core3ptr66drop_in_place$LT$core..option..Option$LT$syn..pat..PatRest$GT$$GT$17hba8f4d9198c0dabcE', symObjAddr: 0x6890, symBinAddr: 0xCCE90, symSize: 0xE0 }
  - { offsetInCU: 0x1F6C1, offset: 0x493519, size: 0x8, addend: 0x0, symName: '__ZN4core3ptr67drop_in_place$LT$alloc..boxed..Box$LT$syn..expr..FieldValue$GT$$GT$17h1fe00f656b5bc41eE', symObjAddr: 0x6970, symBinAddr: 0xCCF70, symSize: 0x140 }
  - { offsetInCU: 0x1FC18, offset: 0x493A70, size: 0x8, addend: 0x0, symName: '__ZN4core3ptr70drop_in_place$LT$core..option..Option$LT$syn..ty..BareVariadic$GT$$GT$17hf6aaee8d5112d370E', symObjAddr: 0x6AB0, symBinAddr: 0xCD0B0, symSize: 0x120 }
  - { offsetInCU: 0x20179, offset: 0x493FD1, size: 0x8, addend: 0x0, symName: '__ZN4core3ptr72drop_in_place$LT$alloc..boxed..Box$LT$syn..path..GenericArgument$GT$$GT$17hc3f5a13c594d53a1E', symObjAddr: 0x6BD0, symBinAddr: 0xCD1D0, symSize: 0x2B0 }
  - { offsetInCU: 0x20B64, offset: 0x4949BC, size: 0x8, addend: 0x0, symName: '__ZN4core3ptr72drop_in_place$LT$core..option..Option$LT$syn..lifetime..Lifetime$GT$$GT$17hf02c2376eaf0703fE', symObjAddr: 0x6E80, symBinAddr: 0xCD480, symSize: 0x30 }
  - { offsetInCU: 0x20C80, offset: 0x494AD8, size: 0x8, addend: 0x0, symName: '__ZN4core3ptr73drop_in_place$LT$alloc..boxed..Box$LT$syn..generics..GenericParam$GT$$GT$17hbb1f35d2f323630eE', symObjAddr: 0x6EB0, symBinAddr: 0xCD4B0, symSize: 0x80 }
  - { offsetInCU: 0x20DF8, offset: 0x494C50, size: 0x8, addend: 0x0, symName: '__ZN4core3ptr75drop_in_place$LT$alloc..boxed..Box$LT$syn..generics..TypeParamBound$GT$$GT$17h06d020fd356eb6c8E', symObjAddr: 0x6F30, symBinAddr: 0xCD530, symSize: 0x190 }
  - { offsetInCU: 0x214F1, offset: 0x495349, size: 0x8, addend: 0x0, symName: '__ZN4core3ptr75drop_in_place$LT$core..option..Option$LT$syn..generics..WhereClause$GT$$GT$17h8a92b83e49c22b8cE', symObjAddr: 0x70C0, symBinAddr: 0xCD6C0, symSize: 0x90 }
  - { offsetInCU: 0x217A7, offset: 0x4955FF, size: 0x8, addend: 0x0, symName: '__ZN4core3ptr86drop_in_place$LT$syn..punctuated..Punctuated$LT$syn..pat..Pat$C$syn..token..Or$GT$$GT$17h1c252cd869cc7fe5E', symObjAddr: 0x7150, symBinAddr: 0xCD750, symSize: 0x120 }
  - { offsetInCU: 0x21BED, offset: 0x495A45, size: 0x8, addend: 0x0, symName: '__ZN4core3ptr87drop_in_place$LT$core..option..Option$LT$alloc..boxed..Box$LT$syn..pat..Pat$GT$$GT$$GT$17h72bab185bf1bb06eE', symObjAddr: 0x7270, symBinAddr: 0xCD870, symSize: 0x50 }
  - { offsetInCU: 0x21D5F, offset: 0x495BB7, size: 0x8, addend: 0x0, symName: '__ZN4core3ptr87drop_in_place$LT$core..option..Option$LT$alloc..boxed..Box$LT$syn..ty..Type$GT$$GT$$GT$17hc260fbb8309ec29fE', symObjAddr: 0x72C0, symBinAddr: 0xCD8C0, symSize: 0x50 }
  - { offsetInCU: 0x21EF0, offset: 0x495D48, size: 0x8, addend: 0x0, symName: '__ZN4core3ptr88drop_in_place$LT$core..result..Result$LT$syn..item..ItemEnum$C$syn..error..Error$GT$$GT$17hdef0cc8c422f4500E', symObjAddr: 0x7310, symBinAddr: 0xCD910, symSize: 0xA0 }
  - { offsetInCU: 0x221C4, offset: 0x49601C, size: 0x8, addend: 0x0, symName: '__ZN4core3ptr89drop_in_place$LT$core..option..Option$LT$alloc..boxed..Box$LT$syn..expr..Expr$GT$$GT$$GT$17h189e15babfcbbcfaE', symObjAddr: 0x73B0, symBinAddr: 0xCD9B0, symSize: 0x50 }
  - { offsetInCU: 0x22336, offset: 0x49618E, size: 0x8, addend: 0x0, symName: '__ZN4core3ptr89drop_in_place$LT$core..result..Result$LT$syn..item..ItemUnion$C$syn..error..Error$GT$$GT$17hcf792ceb96af31ebE', symObjAddr: 0x7400, symBinAddr: 0xCDA00, symSize: 0xA0 }
  - { offsetInCU: 0x22648, offset: 0x4964A0, size: 0x8, addend: 0x0, symName: '__ZN4core3ptr89drop_in_place$LT$syn..punctuated..Punctuated$LT$syn..pat..Pat$C$syn..token..Comma$GT$$GT$17ha82f9ca12786bd54E', symObjAddr: 0x74A0, symBinAddr: 0xCDAA0, symSize: 0x120 }
  - { offsetInCU: 0x22B02, offset: 0x49695A, size: 0x8, addend: 0x0, symName: '__ZN4core3ptr90drop_in_place$LT$core..option..Option$LT$alloc..boxed..Box$LT$syn..data..Field$GT$$GT$$GT$17he746374657137898E', symObjAddr: 0x75C0, symBinAddr: 0xCDBC0, symSize: 0x200 }
  - { offsetInCU: 0x2336D, offset: 0x4971C5, size: 0x8, addend: 0x0, symName: '__ZN4core3ptr90drop_in_place$LT$core..result..Result$LT$syn..item..ItemStruct$C$syn..error..Error$GT$$GT$17hc840b6831e3a09dbE', symObjAddr: 0x77C0, symBinAddr: 0xCDDC0, symSize: 0xA0 }
  - { offsetInCU: 0x2367F, offset: 0x4974D7, size: 0x8, addend: 0x0, symName: '__ZN4core3ptr91drop_in_place$LT$syn..punctuated..Punctuated$LT$syn..expr..Expr$C$syn..token..Comma$GT$$GT$17h5d174cfb4564e731E', symObjAddr: 0x7860, symBinAddr: 0xCDE60, symSize: 0x120 }
  - { offsetInCU: 0x23B58, offset: 0x4979B0, size: 0x8, addend: 0x0, symName: '__ZN4core3ptr92drop_in_place$LT$core..option..Option$LT$alloc..boxed..Box$LT$syn..data..Variant$GT$$GT$$GT$17h0a7107bf9c428513E', symObjAddr: 0x7980, symBinAddr: 0xCDF80, symSize: 0x190 }
  - { offsetInCU: 0x241D8, offset: 0x498030, size: 0x8, addend: 0x0, symName: '__ZN4core3ptr94drop_in_place$LT$syn..punctuated..Punctuated$LT$syn..data..Variant$C$syn..token..Comma$GT$$GT$17h40a0aea357aa734bE', symObjAddr: 0x7B10, symBinAddr: 0xCE110, symSize: 0xE0 }
  - { offsetInCU: 0x244A8, offset: 0x498300, size: 0x8, addend: 0x0, symName: '__ZN4core3ptr94drop_in_place$LT$syn..punctuated..Punctuated$LT$syn..pat..FieldPat$C$syn..token..Comma$GT$$GT$17h57ec84468c025663E', symObjAddr: 0x7BF0, symBinAddr: 0xCE1F0, symSize: 0xF0 }
  - { offsetInCU: 0x24772, offset: 0x4985CA, size: 0x8, addend: 0x0, symName: '__ZN4core3ptr94drop_in_place$LT$syn..punctuated..Punctuated$LT$syn..ty..BareFnArg$C$syn..token..Comma$GT$$GT$17h93a6df93f58cf1c2E', symObjAddr: 0x7CE0, symBinAddr: 0xCE2E0, symSize: 0xF0 }
  - { offsetInCU: 0x24A3C, offset: 0x498894, size: 0x8, addend: 0x0, symName: '__ZN4core3ptr96drop_in_place$LT$core..option..Option$LT$alloc..boxed..Box$LT$syn..path..PathSegment$GT$$GT$$GT$17hfffb4eb6744ee164E', symObjAddr: 0x7DD0, symBinAddr: 0xCE3D0, symSize: 0x180 }
  - { offsetInCU: 0x250CD, offset: 0x498F25, size: 0x8, addend: 0x0, symName: '__ZN4core3ptr97drop_in_place$LT$syn..punctuated..Punctuated$LT$syn..expr..FieldValue$C$syn..token..Comma$GT$$GT$17hd35fb722be03e3d1E', symObjAddr: 0x7F50, symBinAddr: 0xCE550, symSize: 0xF0 }
  - { offsetInCU: 0x25413, offset: 0x49926B, size: 0x8, addend: 0x0, symName: '__ZN4core3ptr98drop_in_place$LT$syn..punctuated..Punctuated$LT$syn..lifetime..Lifetime$C$syn..token..Plus$GT$$GT$17h0f92166c8c801efbE', symObjAddr: 0x8040, symBinAddr: 0xCE640, symSize: 0xC0 }
  - { offsetInCU: 0x264B8, offset: 0x49A310, size: 0x8, addend: 0x0, symName: __ZN10proc_macro6bridge6client14HandleCounters3get17h02da01958788119eE, symObjAddr: 0x0, symBinAddr: 0xC6600, symSize: 0x10 }
  - { offsetInCU: 0x1E, offset: 0x4A4589, size: 0x8, addend: 0x0, symName: '__ZN4core3ptr100drop_in_place$LT$core..option..Option$LT$alloc..boxed..Box$LT$syn..path..GenericArgument$GT$$GT$$GT$17h513ef87717aedfddE', symObjAddr: 0x0, symBinAddr: 0xCFA50, symSize: 0x50 }
  - { offsetInCU: 0x183D, offset: 0x4A5DA8, size: 0x8, addend: 0x0, symName: '__ZN4core3ptr100drop_in_place$LT$core..option..Option$LT$alloc..boxed..Box$LT$syn..path..GenericArgument$GT$$GT$$GT$17h513ef87717aedfddE', symObjAddr: 0x0, symBinAddr: 0xCFA50, symSize: 0x50 }
  - { offsetInCU: 0x1A0C, offset: 0x4A5F77, size: 0x8, addend: 0x0, symName: '__ZN4core3ptr102drop_in_place$LT$syn..punctuated..Punctuated$LT$syn..path..GenericArgument$C$syn..token..Comma$GT$$GT$17ha5e403e03e446464E', symObjAddr: 0x50, symBinAddr: 0xCFAA0, symSize: 0xF0 }
  - { offsetInCU: 0x1CF5, offset: 0x4A6260, size: 0x8, addend: 0x0, symName: '__ZN4core3ptr103drop_in_place$LT$core..option..Option$LT$alloc..boxed..Box$LT$syn..generics..TypeParamBound$GT$$GT$$GT$17h0d79b9ffb4171f90E', symObjAddr: 0x140, symBinAddr: 0xCFB90, symSize: 0x50 }
  - { offsetInCU: 0x1FBC, offset: 0x4A6527, size: 0x8, addend: 0x0, symName: '__ZN4core3ptr103drop_in_place$LT$core..option..Option$LT$alloc..boxed..Box$LT$syn..generics..WherePredicate$GT$$GT$$GT$17h5eae77184a584f9cE', symObjAddr: 0x190, symBinAddr: 0xCFBE0, symSize: 0xD0 }
  - { offsetInCU: 0x234F, offset: 0x4A68BA, size: 0x8, addend: 0x0, symName: '__ZN4core3ptr103drop_in_place$LT$syn..punctuated..Punctuated$LT$syn..generics..GenericParam$C$syn..token..Comma$GT$$GT$17h1d35d7d5913e8beaE', symObjAddr: 0x260, symBinAddr: 0xCFCB0, symSize: 0xF0 }
  - { offsetInCU: 0x2812, offset: 0x4A6D7D, size: 0x8, addend: 0x0, symName: '__ZN4core3ptr104drop_in_place$LT$syn..punctuated..Punctuated$LT$syn..generics..TypeParamBound$C$syn..token..Plus$GT$$GT$17h44083f960cd822d7E', symObjAddr: 0x350, symBinAddr: 0xCFDA0, symSize: 0x260 }
  - { offsetInCU: 0x31C6, offset: 0x4A7731, size: 0x8, addend: 0x0, symName: '__ZN4core3ptr107drop_in_place$LT$core..option..Option$LT$borsh_derive..internals..attributes..field..bounds..Bounds$GT$$GT$17h2d5529b9a1156344E', symObjAddr: 0x5B0, symBinAddr: 0xD0000, symSize: 0x1A0 }
  - { offsetInCU: 0x375D, offset: 0x4A7CC8, size: 0x8, addend: 0x0, symName: '__ZN4core3ptr111drop_in_place$LT$core..option..Option$LT$borsh_derive..internals..attributes..field..schema..Attributes$GT$$GT$17h080e13e0ea21ca67E', symObjAddr: 0x750, symBinAddr: 0xD01A0, symSize: 0xF0 }
  - { offsetInCU: 0x3AD4, offset: 0x4A803F, size: 0x8, addend: 0x0, symName: '__ZN4core3ptr34drop_in_place$LT$syn..lit..Lit$GT$17h3e4ef73f9d6504faE', symObjAddr: 0x840, symBinAddr: 0xD0290, symSize: 0x110 }
  - { offsetInCU: 0x402D, offset: 0x4A8598, size: 0x8, addend: 0x0, symName: '__ZN4core3ptr34drop_in_place$LT$syn..pat..Pat$GT$17hf99e10cab020967aE', symObjAddr: 0x950, symBinAddr: 0xD03A0, symSize: 0xF00 }
  - { offsetInCU: 0x7AD0, offset: 0x4AC03B, size: 0x8, addend: 0x0, symName: '__ZN4core3ptr34drop_in_place$LT$syn..ty..Type$GT$17hc9a287e6412cf4a5E', symObjAddr: 0x1850, symBinAddr: 0xD12A0, symSize: 0x5E0 }
  - { offsetInCU: 0x941A, offset: 0x4AD985, size: 0x8, addend: 0x0, symName: '__ZN4core3ptr36drop_in_place$LT$syn..expr..Expr$GT$17hbea3b059aebc6b0dE', symObjAddr: 0x1E30, symBinAddr: 0xD1880, symSize: 0x2830 }
  - { offsetInCU: 0x12E8F, offset: 0x4B73FA, size: 0x8, addend: 0x0, symName: '__ZN4core3ptr36drop_in_place$LT$syn..mac..Macro$GT$17haa1481cb4fe5d660E', symObjAddr: 0x4660, symBinAddr: 0xD40B0, symSize: 0x110 }
  - { offsetInCU: 0x13314, offset: 0x4B787F, size: 0x8, addend: 0x0, symName: '__ZN4core3ptr36drop_in_place$LT$syn..path..Path$GT$17hb26ddc646911d9caE', symObjAddr: 0x4770, symBinAddr: 0xD41C0, symSize: 0x240 }
  - { offsetInCU: 0x13D5D, offset: 0x4B82C8, size: 0x8, addend: 0x0, symName: '__ZN4core3ptr37drop_in_place$LT$syn..stmt..Block$GT$17h9bb04bc412e892c1E', symObjAddr: 0x49B0, symBinAddr: 0xD4400, symSize: 0xD0 }
  - { offsetInCU: 0x14001, offset: 0x4B856C, size: 0x8, addend: 0x0, symName: '__ZN4core3ptr38drop_in_place$LT$syn..expr..Member$GT$17h54f73fbfaef06080E', symObjAddr: 0x4A80, symBinAddr: 0xD44D0, symSize: 0x30 }
  - { offsetInCU: 0x140FE, offset: 0x4B8669, size: 0x8, addend: 0x0, symName: '__ZN4core3ptr39drop_in_place$LT$proc_macro2..Ident$GT$17h9d68045e9dec4a40E', symObjAddr: 0x4AB0, symBinAddr: 0xD4500, symSize: 0x30 }
  - { offsetInCU: 0x141DC, offset: 0x4B8747, size: 0x8, addend: 0x0, symName: '__ZN4core3ptr40drop_in_place$LT$syn..ty..ReturnType$GT$17h4a68005bbc507217E', symObjAddr: 0x4AE0, symBinAddr: 0xD4530, symSize: 0x50 }
  - { offsetInCU: 0x1434E, offset: 0x4B88B9, size: 0x8, addend: 0x0, symName: '__ZN4core3ptr41drop_in_place$LT$syn..expr..ExprConst$GT$17h454a2cb9df850c24E', symObjAddr: 0x4B30, symBinAddr: 0xD4580, symSize: 0x180 }
  - { offsetInCU: 0x148D7, offset: 0x4B8E42, size: 0x8, addend: 0x0, symName: '__ZN4core3ptr44drop_in_place$LT$syn..generics..Generics$GT$17he55a6c2a0d8d138cE', symObjAddr: 0x4CB0, symBinAddr: 0xD4700, symSize: 0x40 }
  - { offsetInCU: 0x148F4, offset: 0x4B8E5F, size: 0x8, addend: 0x0, symName: '__ZN4core3ptr44drop_in_place$LT$syn..lifetime..Lifetime$GT$17h9c301554489a697eE', symObjAddr: 0x4CF0, symBinAddr: 0xD4740, symSize: 0x30 }
  - { offsetInCU: 0x14B27, offset: 0x4B9092, size: 0x8, addend: 0x0, symName: '__ZN4core3ptr45drop_in_place$LT$proc_macro2..TokenStream$GT$17h86cac592f04212eaE', symObjAddr: 0x4D20, symBinAddr: 0xD4770, symSize: 0x140 }
  - { offsetInCU: 0x14F96, offset: 0x4B9501, size: 0x8, addend: 0x0, symName: '__ZN4core3ptr45drop_in_place$LT$syn..generics..TypeParam$GT$17he645f7cc80b7ae11E', symObjAddr: 0x4E60, symBinAddr: 0xD48B0, symSize: 0x230 }
  - { offsetInCU: 0x157C6, offset: 0x4B9D31, size: 0x8, addend: 0x0, symName: '__ZN4core3ptr46drop_in_place$LT$syn..generics..ConstParam$GT$17hc19d519d6441178aE', symObjAddr: 0x5090, symBinAddr: 0xD4AE0, symSize: 0x150 }
  - { offsetInCU: 0x15C24, offset: 0x4BA18F, size: 0x8, addend: 0x0, symName: '__ZN4core3ptr47drop_in_place$LT$syn..generics..WhereClause$GT$17h973d7091013f7af5E', symObjAddr: 0x51E0, symBinAddr: 0xD4C30, symSize: 0x80 }
  - { offsetInCU: 0x15EA8, offset: 0x4BA413, size: 0x8, addend: 0x0, symName: '__ZN4core3ptr47drop_in_place$LT$syn..path..GenericArgument$GT$17ha7ad17cb38a1a5afE', symObjAddr: 0x5260, symBinAddr: 0xD4CB0, symSize: 0x460 }
  - { offsetInCU: 0x16BB1, offset: 0x4BB11C, size: 0x8, addend: 0x0, symName: '__ZN4core3ptr49drop_in_place$LT$syn..generics..LifetimeParam$GT$17h47d9f9e81b35a3dcE', symObjAddr: 0x56C0, symBinAddr: 0xD5110, symSize: 0xF0 }
  - { offsetInCU: 0x16F9F, offset: 0x4BB50A, size: 0x8, addend: 0x0, symName: '__ZN4core3ptr50drop_in_place$LT$syn..generics..TypeParamBound$GT$17h7c1195cdfd37b73cE', symObjAddr: 0x57B0, symBinAddr: 0xD5200, symSize: 0xA0 }
  - { offsetInCU: 0x17106, offset: 0x4BB671, size: 0x8, addend: 0x0, symName: '__ZN4core3ptr58drop_in_place$LT$alloc..vec..Vec$LT$syn..expr..Arm$GT$$GT$17ha648d1896dec8b4dE', symObjAddr: 0x5850, symBinAddr: 0xD52A0, symSize: 0xD0 }
  - { offsetInCU: 0x17393, offset: 0x4BB8FE, size: 0x8, addend: 0x0, symName: '__ZN4core3ptr59drop_in_place$LT$alloc..boxed..Box$LT$syn..pat..Pat$GT$$GT$17hfa860577679c86cbE', symObjAddr: 0x5920, symBinAddr: 0xD5370, symSize: 0x50 }
  - { offsetInCU: 0x174EE, offset: 0x4BBA59, size: 0x8, addend: 0x0, symName: '__ZN4core3ptr59drop_in_place$LT$alloc..boxed..Box$LT$syn..ty..Type$GT$$GT$17hce35c4b60063cd1fE', symObjAddr: 0x5970, symBinAddr: 0xD53C0, symSize: 0x50 }
  - { offsetInCU: 0x17649, offset: 0x4BBBB4, size: 0x8, addend: 0x0, symName: '__ZN4core3ptr61drop_in_place$LT$alloc..boxed..Box$LT$syn..expr..Expr$GT$$GT$17h35b8f1409a9ab85bE', symObjAddr: 0x59C0, symBinAddr: 0xD5410, symSize: 0x50 }
  - { offsetInCU: 0x177A4, offset: 0x4BBD0F, size: 0x8, addend: 0x0, symName: '__ZN4core3ptr61drop_in_place$LT$syn..path..ParenthesizedGenericArguments$GT$17h6d1a096952b83c04E', symObjAddr: 0x5A10, symBinAddr: 0xD5460, symSize: 0x170 }
  - { offsetInCU: 0x17D7E, offset: 0x4BC2E9, size: 0x8, addend: 0x0, symName: '__ZN4core3ptr63drop_in_place$LT$alloc..boxed..Box$LT$syn..lit..LitRepr$GT$$GT$17h4a54b8c5cd42faf5E', symObjAddr: 0x5B80, symBinAddr: 0xD55D0, symSize: 0x60 }
  - { offsetInCU: 0x18073, offset: 0x4BC5DE, size: 0x8, addend: 0x0, symName: '__ZN4core3ptr64drop_in_place$LT$alloc..boxed..Box$LT$syn..pat..FieldPat$GT$$GT$17hf3d389ef82c9f10bE', symObjAddr: 0x5BE0, symBinAddr: 0xD5630, symSize: 0x140 }
  - { offsetInCU: 0x18752, offset: 0x4BCCBD, size: 0x8, addend: 0x0, symName: '__ZN4core3ptr64drop_in_place$LT$alloc..boxed..Box$LT$syn..ty..BareFnArg$GT$$GT$17hc862ec57eebf1a54E', symObjAddr: 0x5D20, symBinAddr: 0xD5770, symSize: 0x140 }
  - { offsetInCU: 0x18CAA, offset: 0x4BD215, size: 0x8, addend: 0x0, symName: '__ZN4core3ptr64drop_in_place$LT$borsh_derive..internals..serialize..FieldId$GT$17h7ac09606a37b829eE', symObjAddr: 0x5E60, symBinAddr: 0xD58B0, symSize: 0x30 }
  - { offsetInCU: 0x18D60, offset: 0x4BD2CB, size: 0x8, addend: 0x0, symName: '__ZN4core3ptr65drop_in_place$LT$core..option..Option$LT$syn..expr..Label$GT$$GT$17hfc626d17a1d0054dE', symObjAddr: 0x5E90, symBinAddr: 0xD58E0, symSize: 0x30 }
  - { offsetInCU: 0x18E9B, offset: 0x4BD406, size: 0x8, addend: 0x0, symName: '__ZN4core3ptr66drop_in_place$LT$core..option..Option$LT$syn..pat..PatRest$GT$$GT$17hba8f4d9198c0dabcE', symObjAddr: 0x5EC0, symBinAddr: 0xD5910, symSize: 0xE0 }
  - { offsetInCU: 0x19153, offset: 0x4BD6BE, size: 0x8, addend: 0x0, symName: '__ZN4core3ptr67drop_in_place$LT$alloc..boxed..Box$LT$syn..expr..FieldValue$GT$$GT$17h1fe00f656b5bc41eE', symObjAddr: 0x5FA0, symBinAddr: 0xD59F0, symSize: 0x140 }
  - { offsetInCU: 0x197A2, offset: 0x4BDD0D, size: 0x8, addend: 0x0, symName: '__ZN4core3ptr68drop_in_place$LT$borsh_derive..internals..generics..FindTyParams$GT$17h9dff03c3f81b2b80E', symObjAddr: 0x60E0, symBinAddr: 0xD5B30, symSize: 0xA0 }
  - { offsetInCU: 0x19B86, offset: 0x4BE0F1, size: 0x8, addend: 0x0, symName: '__ZN4core3ptr68drop_in_place$LT$core..option..Option$LT$syn..expr..ExprPath$GT$$GT$17h195f3880952da452E', symObjAddr: 0x6180, symBinAddr: 0xD5BD0, symSize: 0x150 }
  - { offsetInCU: 0x1A0D2, offset: 0x4BE63D, size: 0x8, addend: 0x0, symName: '__ZN4core3ptr70drop_in_place$LT$core..option..Option$LT$syn..ty..BareVariadic$GT$$GT$17hf6aaee8d5112d370E', symObjAddr: 0x62D0, symBinAddr: 0xD5D20, symSize: 0x120 }
  - { offsetInCU: 0x1A614, offset: 0x4BEB7F, size: 0x8, addend: 0x0, symName: '__ZN4core3ptr71drop_in_place$LT$borsh_derive..internals..serialize..GenericsOutput$GT$17h38b6167b2a05cde6E', symObjAddr: 0x63F0, symBinAddr: 0xD5E40, symSize: 0xE0 }
  - { offsetInCU: 0x1A8CF, offset: 0x4BEE3A, size: 0x8, addend: 0x0, symName: '__ZN4core3ptr72drop_in_place$LT$alloc..boxed..Box$LT$syn..path..GenericArgument$GT$$GT$17hc3f5a13c594d53a1E', symObjAddr: 0x64D0, symBinAddr: 0xD5F20, symSize: 0x2B0 }
  - { offsetInCU: 0x1B2BA, offset: 0x4BF825, size: 0x8, addend: 0x0, symName: '__ZN4core3ptr72drop_in_place$LT$core..option..Option$LT$syn..lifetime..Lifetime$GT$$GT$17hf02c2376eaf0703fE', symObjAddr: 0x6780, symBinAddr: 0xD61D0, symSize: 0x30 }
  - { offsetInCU: 0x1B3D6, offset: 0x4BF941, size: 0x8, addend: 0x0, symName: '__ZN4core3ptr73drop_in_place$LT$alloc..boxed..Box$LT$syn..generics..GenericParam$GT$$GT$17hbb1f35d2f323630eE', symObjAddr: 0x67B0, symBinAddr: 0xD6200, symSize: 0x80 }
  - { offsetInCU: 0x1B54E, offset: 0x4BFAB9, size: 0x8, addend: 0x0, symName: '__ZN4core3ptr75drop_in_place$LT$alloc..boxed..Box$LT$syn..generics..TypeParamBound$GT$$GT$17h06d020fd356eb6c8E', symObjAddr: 0x6830, symBinAddr: 0xD6280, symSize: 0x190 }
  - { offsetInCU: 0x1BBEA, offset: 0x4C0155, size: 0x8, addend: 0x0, symName: '__ZN4core3ptr75drop_in_place$LT$core..option..Option$LT$syn..generics..WhereClause$GT$$GT$17h8a92b83e49c22b8cE', symObjAddr: 0x69C0, symBinAddr: 0xD6410, symSize: 0x90 }
  - { offsetInCU: 0x1BEA0, offset: 0x4C040B, size: 0x8, addend: 0x0, symName: '__ZN4core3ptr86drop_in_place$LT$syn..punctuated..Punctuated$LT$syn..pat..Pat$C$syn..token..Or$GT$$GT$17h1c252cd869cc7fe5E', symObjAddr: 0x6A50, symBinAddr: 0xD64A0, symSize: 0x120 }
  - { offsetInCU: 0x1C2E6, offset: 0x4C0851, size: 0x8, addend: 0x0, symName: '__ZN4core3ptr87drop_in_place$LT$core..option..Option$LT$alloc..boxed..Box$LT$syn..pat..Pat$GT$$GT$$GT$17h72bab185bf1bb06eE', symObjAddr: 0x6B70, symBinAddr: 0xD65C0, symSize: 0x50 }
  - { offsetInCU: 0x1C458, offset: 0x4C09C3, size: 0x8, addend: 0x0, symName: '__ZN4core3ptr87drop_in_place$LT$core..option..Option$LT$alloc..boxed..Box$LT$syn..ty..Type$GT$$GT$$GT$17hc260fbb8309ec29fE', symObjAddr: 0x6BC0, symBinAddr: 0xD6610, symSize: 0x50 }
  - { offsetInCU: 0x1C5CA, offset: 0x4C0B35, size: 0x8, addend: 0x0, symName: '__ZN4core3ptr89drop_in_place$LT$core..option..Option$LT$alloc..boxed..Box$LT$syn..expr..Expr$GT$$GT$$GT$17h189e15babfcbbcfaE', symObjAddr: 0x6C10, symBinAddr: 0xD6660, symSize: 0x50 }
  - { offsetInCU: 0x1C77A, offset: 0x4C0CE5, size: 0x8, addend: 0x0, symName: '__ZN4core3ptr89drop_in_place$LT$syn..punctuated..Punctuated$LT$syn..pat..Pat$C$syn..token..Comma$GT$$GT$17ha82f9ca12786bd54E', symObjAddr: 0x6C60, symBinAddr: 0xD66B0, symSize: 0x120 }
  - { offsetInCU: 0x1CC15, offset: 0x4C1180, size: 0x8, addend: 0x0, symName: '__ZN4core3ptr91drop_in_place$LT$syn..punctuated..Punctuated$LT$syn..expr..Expr$C$syn..token..Comma$GT$$GT$17h5d174cfb4564e731E', symObjAddr: 0x6D80, symBinAddr: 0xD67D0, symSize: 0x120 }
  - { offsetInCU: 0x1D072, offset: 0x4C15DD, size: 0x8, addend: 0x0, symName: '__ZN4core3ptr94drop_in_place$LT$syn..punctuated..Punctuated$LT$syn..pat..FieldPat$C$syn..token..Comma$GT$$GT$17h57ec84468c025663E', symObjAddr: 0x6EA0, symBinAddr: 0xD68F0, symSize: 0xF0 }
  - { offsetInCU: 0x1D33C, offset: 0x4C18A7, size: 0x8, addend: 0x0, symName: '__ZN4core3ptr94drop_in_place$LT$syn..punctuated..Punctuated$LT$syn..ty..BareFnArg$C$syn..token..Comma$GT$$GT$17h93a6df93f58cf1c2E', symObjAddr: 0x6F90, symBinAddr: 0xD69E0, symSize: 0xF0 }
  - { offsetInCU: 0x1D606, offset: 0x4C1B71, size: 0x8, addend: 0x0, symName: '__ZN4core3ptr96drop_in_place$LT$core..option..Option$LT$alloc..boxed..Box$LT$syn..path..PathSegment$GT$$GT$$GT$17hfffb4eb6744ee164E', symObjAddr: 0x7080, symBinAddr: 0xD6AD0, symSize: 0x180 }
  - { offsetInCU: 0x1DC97, offset: 0x4C2202, size: 0x8, addend: 0x0, symName: '__ZN4core3ptr97drop_in_place$LT$syn..punctuated..Punctuated$LT$syn..expr..FieldValue$C$syn..token..Comma$GT$$GT$17hd35fb722be03e3d1E', symObjAddr: 0x7200, symBinAddr: 0xD6C50, symSize: 0xF0 }
  - { offsetInCU: 0x1DFDD, offset: 0x4C2548, size: 0x8, addend: 0x0, symName: '__ZN4core3ptr98drop_in_place$LT$syn..punctuated..Punctuated$LT$syn..lifetime..Lifetime$C$syn..token..Plus$GT$$GT$17h0f92166c8c801efbE', symObjAddr: 0x72F0, symBinAddr: 0xD6D40, symSize: 0xC0 }
  - { offsetInCU: 0x27CE6, offset: 0x4CC251, size: 0x8, addend: 0x0, symName: __ZN12borsh_derive9internals9serialize7structs7process17h07600bd5cce0bed5E, symObjAddr: 0x73B0, symBinAddr: 0xD6E00, symSize: 0xC50 }
  - { offsetInCU: 0x28E76, offset: 0x4CD3E1, size: 0x8, addend: 0x0, symName: __ZN12borsh_derive9internals9serialize7structs13process_field17hf21098dd00ca925bE, symObjAddr: 0x8000, symBinAddr: 0xD7A50, symSize: 0x3B1 }
  - { offsetInCU: 0x1E, offset: 0x4D19EE, size: 0x8, addend: 0x0, symName: '__ZN4core3ptr100drop_in_place$LT$core..option..Option$LT$alloc..boxed..Box$LT$syn..path..GenericArgument$GT$$GT$$GT$17h513ef87717aedfddE', symObjAddr: 0x0, symBinAddr: 0xD7E10, symSize: 0x50 }
  - { offsetInCU: 0x171C, offset: 0x4D30EC, size: 0x8, addend: 0x0, symName: '__ZN4core3ptr100drop_in_place$LT$core..option..Option$LT$alloc..boxed..Box$LT$syn..path..GenericArgument$GT$$GT$$GT$17h513ef87717aedfddE', symObjAddr: 0x0, symBinAddr: 0xD7E10, symSize: 0x50 }
  - { offsetInCU: 0x18EB, offset: 0x4D32BB, size: 0x8, addend: 0x0, symName: '__ZN4core3ptr102drop_in_place$LT$syn..punctuated..Punctuated$LT$syn..path..GenericArgument$C$syn..token..Comma$GT$$GT$17ha5e403e03e446464E', symObjAddr: 0x50, symBinAddr: 0xD7E60, symSize: 0xF0 }
  - { offsetInCU: 0x1BD4, offset: 0x4D35A4, size: 0x8, addend: 0x0, symName: '__ZN4core3ptr103drop_in_place$LT$core..option..Option$LT$alloc..boxed..Box$LT$syn..generics..TypeParamBound$GT$$GT$$GT$17h0d79b9ffb4171f90E', symObjAddr: 0x140, symBinAddr: 0xD7F50, symSize: 0x50 }
  - { offsetInCU: 0x1E9B, offset: 0x4D386B, size: 0x8, addend: 0x0, symName: '__ZN4core3ptr103drop_in_place$LT$core..option..Option$LT$alloc..boxed..Box$LT$syn..generics..WherePredicate$GT$$GT$$GT$17h5eae77184a584f9cE', symObjAddr: 0x190, symBinAddr: 0xD7FA0, symSize: 0xD0 }
  - { offsetInCU: 0x222E, offset: 0x4D3BFE, size: 0x8, addend: 0x0, symName: '__ZN4core3ptr103drop_in_place$LT$syn..punctuated..Punctuated$LT$syn..generics..GenericParam$C$syn..token..Comma$GT$$GT$17h1d35d7d5913e8beaE', symObjAddr: 0x260, symBinAddr: 0xD8070, symSize: 0xF0 }
  - { offsetInCU: 0x26F1, offset: 0x4D40C1, size: 0x8, addend: 0x0, symName: '__ZN4core3ptr104drop_in_place$LT$syn..punctuated..Punctuated$LT$syn..generics..TypeParamBound$C$syn..token..Plus$GT$$GT$17h44083f960cd822d7E', symObjAddr: 0x350, symBinAddr: 0xD8160, symSize: 0x260 }
  - { offsetInCU: 0x30E3, offset: 0x4D4AB3, size: 0x8, addend: 0x0, symName: '__ZN4core3ptr34drop_in_place$LT$syn..lit..Lit$GT$17h3e4ef73f9d6504faE', symObjAddr: 0x5B0, symBinAddr: 0xD83C0, symSize: 0x110 }
  - { offsetInCU: 0x363C, offset: 0x4D500C, size: 0x8, addend: 0x0, symName: '__ZN4core3ptr34drop_in_place$LT$syn..pat..Pat$GT$17hf99e10cab020967aE', symObjAddr: 0x6C0, symBinAddr: 0xD84D0, symSize: 0xF00 }
  - { offsetInCU: 0x70DF, offset: 0x4D8AAF, size: 0x8, addend: 0x0, symName: '__ZN4core3ptr34drop_in_place$LT$syn..ty..Type$GT$17hc9a287e6412cf4a5E', symObjAddr: 0x15C0, symBinAddr: 0xD93D0, symSize: 0x5E0 }
  - { offsetInCU: 0x8A29, offset: 0x4DA3F9, size: 0x8, addend: 0x0, symName: '__ZN4core3ptr36drop_in_place$LT$syn..expr..Expr$GT$17hbea3b059aebc6b0dE', symObjAddr: 0x1BA0, symBinAddr: 0xD99B0, symSize: 0x2830 }
  - { offsetInCU: 0x1249E, offset: 0x4E3E6E, size: 0x8, addend: 0x0, symName: '__ZN4core3ptr36drop_in_place$LT$syn..mac..Macro$GT$17haa1481cb4fe5d660E', symObjAddr: 0x43D0, symBinAddr: 0xDC1E0, symSize: 0x110 }
  - { offsetInCU: 0x12923, offset: 0x4E42F3, size: 0x8, addend: 0x0, symName: '__ZN4core3ptr36drop_in_place$LT$syn..path..Path$GT$17hb26ddc646911d9caE', symObjAddr: 0x44E0, symBinAddr: 0xDC2F0, symSize: 0x240 }
  - { offsetInCU: 0x1336C, offset: 0x4E4D3C, size: 0x8, addend: 0x0, symName: '__ZN4core3ptr37drop_in_place$LT$syn..stmt..Block$GT$17h9bb04bc412e892c1E', symObjAddr: 0x4720, symBinAddr: 0xDC530, symSize: 0xD0 }
  - { offsetInCU: 0x13610, offset: 0x4E4FE0, size: 0x8, addend: 0x0, symName: '__ZN4core3ptr38drop_in_place$LT$syn..expr..Member$GT$17h54f73fbfaef06080E', symObjAddr: 0x47F0, symBinAddr: 0xDC600, symSize: 0x30 }
  - { offsetInCU: 0x1370D, offset: 0x4E50DD, size: 0x8, addend: 0x0, symName: '__ZN4core3ptr39drop_in_place$LT$proc_macro2..Ident$GT$17h9d68045e9dec4a40E', symObjAddr: 0x4820, symBinAddr: 0xDC630, symSize: 0x30 }
  - { offsetInCU: 0x137EB, offset: 0x4E51BB, size: 0x8, addend: 0x0, symName: '__ZN4core3ptr40drop_in_place$LT$syn..ty..ReturnType$GT$17h4a68005bbc507217E', symObjAddr: 0x4850, symBinAddr: 0xDC660, symSize: 0x50 }
  - { offsetInCU: 0x1395D, offset: 0x4E532D, size: 0x8, addend: 0x0, symName: '__ZN4core3ptr41drop_in_place$LT$syn..expr..ExprConst$GT$17h454a2cb9df850c24E', symObjAddr: 0x48A0, symBinAddr: 0xDC6B0, symSize: 0x180 }
  - { offsetInCU: 0x13EE6, offset: 0x4E58B6, size: 0x8, addend: 0x0, symName: '__ZN4core3ptr44drop_in_place$LT$syn..generics..Generics$GT$17he55a6c2a0d8d138cE', symObjAddr: 0x4A20, symBinAddr: 0xDC830, symSize: 0x40 }
  - { offsetInCU: 0x13F03, offset: 0x4E58D3, size: 0x8, addend: 0x0, symName: '__ZN4core3ptr44drop_in_place$LT$syn..lifetime..Lifetime$GT$17h9c301554489a697eE', symObjAddr: 0x4A60, symBinAddr: 0xDC870, symSize: 0x30 }
  - { offsetInCU: 0x14136, offset: 0x4E5B06, size: 0x8, addend: 0x0, symName: '__ZN4core3ptr45drop_in_place$LT$proc_macro2..TokenStream$GT$17h86cac592f04212eaE', symObjAddr: 0x4A90, symBinAddr: 0xDC8A0, symSize: 0x140 }
  - { offsetInCU: 0x145A5, offset: 0x4E5F75, size: 0x8, addend: 0x0, symName: '__ZN4core3ptr45drop_in_place$LT$syn..generics..TypeParam$GT$17he645f7cc80b7ae11E', symObjAddr: 0x4BD0, symBinAddr: 0xDC9E0, symSize: 0x230 }
  - { offsetInCU: 0x14DD5, offset: 0x4E67A5, size: 0x8, addend: 0x0, symName: '__ZN4core3ptr46drop_in_place$LT$syn..generics..ConstParam$GT$17hc19d519d6441178aE', symObjAddr: 0x4E00, symBinAddr: 0xDCC10, symSize: 0x150 }
  - { offsetInCU: 0x15233, offset: 0x4E6C03, size: 0x8, addend: 0x0, symName: '__ZN4core3ptr47drop_in_place$LT$syn..generics..WhereClause$GT$17h973d7091013f7af5E', symObjAddr: 0x4F50, symBinAddr: 0xDCD60, symSize: 0x80 }
  - { offsetInCU: 0x154B7, offset: 0x4E6E87, size: 0x8, addend: 0x0, symName: '__ZN4core3ptr47drop_in_place$LT$syn..path..GenericArgument$GT$17ha7ad17cb38a1a5afE', symObjAddr: 0x4FD0, symBinAddr: 0xDCDE0, symSize: 0x460 }
  - { offsetInCU: 0x161C0, offset: 0x4E7B90, size: 0x8, addend: 0x0, symName: '__ZN4core3ptr49drop_in_place$LT$syn..generics..LifetimeParam$GT$17h47d9f9e81b35a3dcE', symObjAddr: 0x5430, symBinAddr: 0xDD240, symSize: 0xF0 }
  - { offsetInCU: 0x165AE, offset: 0x4E7F7E, size: 0x8, addend: 0x0, symName: '__ZN4core3ptr50drop_in_place$LT$syn..generics..TypeParamBound$GT$17h7c1195cdfd37b73cE', symObjAddr: 0x5520, symBinAddr: 0xDD330, symSize: 0xA0 }
  - { offsetInCU: 0x16715, offset: 0x4E80E5, size: 0x8, addend: 0x0, symName: '__ZN4core3ptr58drop_in_place$LT$alloc..vec..Vec$LT$syn..expr..Arm$GT$$GT$17ha648d1896dec8b4dE', symObjAddr: 0x55C0, symBinAddr: 0xDD3D0, symSize: 0xD0 }
  - { offsetInCU: 0x169A2, offset: 0x4E8372, size: 0x8, addend: 0x0, symName: '__ZN4core3ptr59drop_in_place$LT$alloc..boxed..Box$LT$syn..pat..Pat$GT$$GT$17hfa860577679c86cbE', symObjAddr: 0x5690, symBinAddr: 0xDD4A0, symSize: 0x50 }
  - { offsetInCU: 0x16AFD, offset: 0x4E84CD, size: 0x8, addend: 0x0, symName: '__ZN4core3ptr59drop_in_place$LT$alloc..boxed..Box$LT$syn..ty..Type$GT$$GT$17hce35c4b60063cd1fE', symObjAddr: 0x56E0, symBinAddr: 0xDD4F0, symSize: 0x50 }
  - { offsetInCU: 0x16C58, offset: 0x4E8628, size: 0x8, addend: 0x0, symName: '__ZN4core3ptr61drop_in_place$LT$alloc..boxed..Box$LT$syn..expr..Expr$GT$$GT$17h35b8f1409a9ab85bE', symObjAddr: 0x5730, symBinAddr: 0xDD540, symSize: 0x50 }
  - { offsetInCU: 0x16DB3, offset: 0x4E8783, size: 0x8, addend: 0x0, symName: '__ZN4core3ptr61drop_in_place$LT$syn..path..ParenthesizedGenericArguments$GT$17h6d1a096952b83c04E', symObjAddr: 0x5780, symBinAddr: 0xDD590, symSize: 0x170 }
  - { offsetInCU: 0x1738D, offset: 0x4E8D5D, size: 0x8, addend: 0x0, symName: '__ZN4core3ptr63drop_in_place$LT$alloc..boxed..Box$LT$syn..lit..LitRepr$GT$$GT$17h4a54b8c5cd42faf5E', symObjAddr: 0x58F0, symBinAddr: 0xDD700, symSize: 0x60 }
  - { offsetInCU: 0x17682, offset: 0x4E9052, size: 0x8, addend: 0x0, symName: '__ZN4core3ptr64drop_in_place$LT$alloc..boxed..Box$LT$syn..pat..FieldPat$GT$$GT$17hf3d389ef82c9f10bE', symObjAddr: 0x5950, symBinAddr: 0xDD760, symSize: 0x140 }
  - { offsetInCU: 0x17D61, offset: 0x4E9731, size: 0x8, addend: 0x0, symName: '__ZN4core3ptr64drop_in_place$LT$alloc..boxed..Box$LT$syn..ty..BareFnArg$GT$$GT$17hc862ec57eebf1a54E', symObjAddr: 0x5A90, symBinAddr: 0xDD8A0, symSize: 0x140 }
  - { offsetInCU: 0x182B9, offset: 0x4E9C89, size: 0x8, addend: 0x0, symName: '__ZN4core3ptr65drop_in_place$LT$core..option..Option$LT$syn..expr..Label$GT$$GT$17hfc626d17a1d0054dE', symObjAddr: 0x5BD0, symBinAddr: 0xDD9E0, symSize: 0x30 }
  - { offsetInCU: 0x183F4, offset: 0x4E9DC4, size: 0x8, addend: 0x0, symName: '__ZN4core3ptr66drop_in_place$LT$core..option..Option$LT$syn..pat..PatRest$GT$$GT$17hba8f4d9198c0dabcE', symObjAddr: 0x5C00, symBinAddr: 0xDDA10, symSize: 0xE0 }
  - { offsetInCU: 0x186AC, offset: 0x4EA07C, size: 0x8, addend: 0x0, symName: '__ZN4core3ptr67drop_in_place$LT$alloc..boxed..Box$LT$syn..expr..FieldValue$GT$$GT$17h1fe00f656b5bc41eE', symObjAddr: 0x5CE0, symBinAddr: 0xDDAF0, symSize: 0x140 }
  - { offsetInCU: 0x18CFB, offset: 0x4EA6CB, size: 0x8, addend: 0x0, symName: '__ZN4core3ptr68drop_in_place$LT$borsh_derive..internals..generics..FindTyParams$GT$17h9dff03c3f81b2b80E', symObjAddr: 0x5E20, symBinAddr: 0xDDC30, symSize: 0xA0 }
  - { offsetInCU: 0x190FE, offset: 0x4EAACE, size: 0x8, addend: 0x0, symName: '__ZN4core3ptr70drop_in_place$LT$core..option..Option$LT$syn..ty..BareVariadic$GT$$GT$17hf6aaee8d5112d370E', symObjAddr: 0x5EC0, symBinAddr: 0xDDCD0, symSize: 0x120 }
  - { offsetInCU: 0x1965F, offset: 0x4EB02F, size: 0x8, addend: 0x0, symName: '__ZN4core3ptr72drop_in_place$LT$alloc..boxed..Box$LT$syn..path..GenericArgument$GT$$GT$17hc3f5a13c594d53a1E', symObjAddr: 0x5FE0, symBinAddr: 0xDDDF0, symSize: 0x2B0 }
  - { offsetInCU: 0x1A04A, offset: 0x4EBA1A, size: 0x8, addend: 0x0, symName: '__ZN4core3ptr72drop_in_place$LT$core..option..Option$LT$syn..lifetime..Lifetime$GT$$GT$17hf02c2376eaf0703fE', symObjAddr: 0x6290, symBinAddr: 0xDE0A0, symSize: 0x30 }
  - { offsetInCU: 0x1A166, offset: 0x4EBB36, size: 0x8, addend: 0x0, symName: '__ZN4core3ptr73drop_in_place$LT$alloc..boxed..Box$LT$syn..generics..GenericParam$GT$$GT$17hbb1f35d2f323630eE', symObjAddr: 0x62C0, symBinAddr: 0xDE0D0, symSize: 0x80 }
  - { offsetInCU: 0x1A31C, offset: 0x4EBCEC, size: 0x8, addend: 0x0, symName: '__ZN4core3ptr73drop_in_place$LT$borsh_derive..internals..deserialize..GenericsOutput$GT$17heeb138808ff6c848E', symObjAddr: 0x6340, symBinAddr: 0xDE150, symSize: 0x100 }
  - { offsetInCU: 0x1A5CB, offset: 0x4EBF9B, size: 0x8, addend: 0x0, symName: '__ZN4core3ptr75drop_in_place$LT$alloc..boxed..Box$LT$syn..generics..TypeParamBound$GT$$GT$17h06d020fd356eb6c8E', symObjAddr: 0x6440, symBinAddr: 0xDE250, symSize: 0x190 }
  - { offsetInCU: 0x1AC67, offset: 0x4EC637, size: 0x8, addend: 0x0, symName: '__ZN4core3ptr75drop_in_place$LT$core..option..Option$LT$syn..generics..WhereClause$GT$$GT$17h8a92b83e49c22b8cE', symObjAddr: 0x65D0, symBinAddr: 0xDE3E0, symSize: 0x90 }
  - { offsetInCU: 0x1AF1D, offset: 0x4EC8ED, size: 0x8, addend: 0x0, symName: '__ZN4core3ptr86drop_in_place$LT$syn..punctuated..Punctuated$LT$syn..pat..Pat$C$syn..token..Or$GT$$GT$17h1c252cd869cc7fe5E', symObjAddr: 0x6660, symBinAddr: 0xDE470, symSize: 0x120 }
  - { offsetInCU: 0x1B363, offset: 0x4ECD33, size: 0x8, addend: 0x0, symName: '__ZN4core3ptr87drop_in_place$LT$core..option..Option$LT$alloc..boxed..Box$LT$syn..pat..Pat$GT$$GT$$GT$17h72bab185bf1bb06eE', symObjAddr: 0x6780, symBinAddr: 0xDE590, symSize: 0x50 }
  - { offsetInCU: 0x1B4D5, offset: 0x4ECEA5, size: 0x8, addend: 0x0, symName: '__ZN4core3ptr87drop_in_place$LT$core..option..Option$LT$alloc..boxed..Box$LT$syn..ty..Type$GT$$GT$$GT$17hc260fbb8309ec29fE', symObjAddr: 0x67D0, symBinAddr: 0xDE5E0, symSize: 0x50 }
  - { offsetInCU: 0x1B647, offset: 0x4ED017, size: 0x8, addend: 0x0, symName: '__ZN4core3ptr89drop_in_place$LT$core..option..Option$LT$alloc..boxed..Box$LT$syn..expr..Expr$GT$$GT$$GT$17h189e15babfcbbcfaE', symObjAddr: 0x6820, symBinAddr: 0xDE630, symSize: 0x50 }
  - { offsetInCU: 0x1B7F7, offset: 0x4ED1C7, size: 0x8, addend: 0x0, symName: '__ZN4core3ptr89drop_in_place$LT$syn..punctuated..Punctuated$LT$syn..pat..Pat$C$syn..token..Comma$GT$$GT$17ha82f9ca12786bd54E', symObjAddr: 0x6870, symBinAddr: 0xDE680, symSize: 0x120 }
  - { offsetInCU: 0x1BC92, offset: 0x4ED662, size: 0x8, addend: 0x0, symName: '__ZN4core3ptr91drop_in_place$LT$syn..punctuated..Punctuated$LT$syn..expr..Expr$C$syn..token..Comma$GT$$GT$17h5d174cfb4564e731E', symObjAddr: 0x6990, symBinAddr: 0xDE7A0, symSize: 0x120 }
  - { offsetInCU: 0x1C0EF, offset: 0x4EDABF, size: 0x8, addend: 0x0, symName: '__ZN4core3ptr94drop_in_place$LT$syn..punctuated..Punctuated$LT$syn..pat..FieldPat$C$syn..token..Comma$GT$$GT$17h57ec84468c025663E', symObjAddr: 0x6AB0, symBinAddr: 0xDE8C0, symSize: 0xF0 }
  - { offsetInCU: 0x1C3B9, offset: 0x4EDD89, size: 0x8, addend: 0x0, symName: '__ZN4core3ptr94drop_in_place$LT$syn..punctuated..Punctuated$LT$syn..ty..BareFnArg$C$syn..token..Comma$GT$$GT$17h93a6df93f58cf1c2E', symObjAddr: 0x6BA0, symBinAddr: 0xDE9B0, symSize: 0xF0 }
  - { offsetInCU: 0x1C683, offset: 0x4EE053, size: 0x8, addend: 0x0, symName: '__ZN4core3ptr96drop_in_place$LT$core..option..Option$LT$alloc..boxed..Box$LT$syn..path..PathSegment$GT$$GT$$GT$17hfffb4eb6744ee164E', symObjAddr: 0x6C90, symBinAddr: 0xDEAA0, symSize: 0x180 }
  - { offsetInCU: 0x1CD14, offset: 0x4EE6E4, size: 0x8, addend: 0x0, symName: '__ZN4core3ptr97drop_in_place$LT$syn..punctuated..Punctuated$LT$syn..expr..FieldValue$C$syn..token..Comma$GT$$GT$17hd35fb722be03e3d1E', symObjAddr: 0x6E10, symBinAddr: 0xDEC20, symSize: 0xF0 }
  - { offsetInCU: 0x1D05A, offset: 0x4EEA2A, size: 0x8, addend: 0x0, symName: '__ZN4core3ptr98drop_in_place$LT$syn..punctuated..Punctuated$LT$syn..lifetime..Lifetime$C$syn..token..Plus$GT$$GT$17h0f92166c8c801efbE', symObjAddr: 0x6F00, symBinAddr: 0xDED10, symSize: 0xC0 }
  - { offsetInCU: 0x26FAC, offset: 0x4F897C, size: 0x8, addend: 0x0, symName: __ZN12borsh_derive9internals11deserialize7structs7process17h719758baf50b3be9E, symObjAddr: 0x6FC0, symBinAddr: 0xDEDD0, symSize: 0x14E5 }
  - { offsetInCU: 0x1E, offset: 0x4FC715, size: 0x8, addend: 0x0, symName: '__ZN4core3ptr100drop_in_place$LT$core..option..Option$LT$alloc..boxed..Box$LT$syn..path..GenericArgument$GT$$GT$$GT$17h513ef87717aedfddE', symObjAddr: 0x0, symBinAddr: 0xE02C0, symSize: 0x50 }
  - { offsetInCU: 0x35, offset: 0x4FC72C, size: 0x8, addend: 0x0, symName: _anon.ae8669c3e413292f62edb82ec761907a.1.llvm.3493214138399568752, symObjAddr: 0x9070, symBinAddr: 0x3D9190, symSize: 0x0 }
  - { offsetInCU: 0x7A30, offset: 0x504127, size: 0x8, addend: 0x0, symName: '__ZN4core3ptr100drop_in_place$LT$core..option..Option$LT$alloc..boxed..Box$LT$syn..path..GenericArgument$GT$$GT$$GT$17h513ef87717aedfddE', symObjAddr: 0x0, symBinAddr: 0xE02C0, symSize: 0x50 }
  - { offsetInCU: 0x7BFF, offset: 0x5042F6, size: 0x8, addend: 0x0, symName: '__ZN4core3ptr102drop_in_place$LT$syn..punctuated..Punctuated$LT$syn..path..GenericArgument$C$syn..token..Comma$GT$$GT$17ha5e403e03e446464E', symObjAddr: 0x50, symBinAddr: 0xE0310, symSize: 0xF0 }
  - { offsetInCU: 0x7EE8, offset: 0x5045DF, size: 0x8, addend: 0x0, symName: '__ZN4core3ptr103drop_in_place$LT$core..option..Option$LT$alloc..boxed..Box$LT$syn..generics..TypeParamBound$GT$$GT$$GT$17h0d79b9ffb4171f90E', symObjAddr: 0x140, symBinAddr: 0xE0400, symSize: 0x50 }
  - { offsetInCU: 0x80F5, offset: 0x5047EC, size: 0x8, addend: 0x0, symName: '__ZN4core3ptr103drop_in_place$LT$syn..punctuated..Punctuated$LT$syn..generics..GenericParam$C$syn..token..Comma$GT$$GT$17h1d35d7d5913e8beaE', symObjAddr: 0x190, symBinAddr: 0xE0450, symSize: 0xF0 }
  - { offsetInCU: 0x8691, offset: 0x504D88, size: 0x8, addend: 0x0, symName: '__ZN4core3ptr104drop_in_place$LT$syn..punctuated..Punctuated$LT$syn..generics..TypeParamBound$C$syn..token..Plus$GT$$GT$17h44083f960cd822d7E', symObjAddr: 0x280, symBinAddr: 0xE0540, symSize: 0x260 }
  - { offsetInCU: 0x9083, offset: 0x50577A, size: 0x8, addend: 0x0, symName: '__ZN4core3ptr34drop_in_place$LT$syn..lit..Lit$GT$17h3e4ef73f9d6504faE', symObjAddr: 0x4E0, symBinAddr: 0xE07A0, symSize: 0x110 }
  - { offsetInCU: 0x95DC, offset: 0x505CD3, size: 0x8, addend: 0x0, symName: '__ZN4core3ptr34drop_in_place$LT$syn..pat..Pat$GT$17hf99e10cab020967aE', symObjAddr: 0x5F0, symBinAddr: 0xE08B0, symSize: 0xF00 }
  - { offsetInCU: 0xD07F, offset: 0x509776, size: 0x8, addend: 0x0, symName: '__ZN4core3ptr34drop_in_place$LT$syn..ty..Type$GT$17hc9a287e6412cf4a5E', symObjAddr: 0x14F0, symBinAddr: 0xE17B0, symSize: 0x5E0 }
  - { offsetInCU: 0xE9C9, offset: 0x50B0C0, size: 0x8, addend: 0x0, symName: '__ZN4core3ptr36drop_in_place$LT$syn..expr..Expr$GT$17hbea3b059aebc6b0dE', symObjAddr: 0x1AD0, symBinAddr: 0xE1D90, symSize: 0x2830 }
  - { offsetInCU: 0x1843E, offset: 0x514B35, size: 0x8, addend: 0x0, symName: '__ZN4core3ptr36drop_in_place$LT$syn..mac..Macro$GT$17haa1481cb4fe5d660E', symObjAddr: 0x4300, symBinAddr: 0xE45C0, symSize: 0x110 }
  - { offsetInCU: 0x188C3, offset: 0x514FBA, size: 0x8, addend: 0x0, symName: '__ZN4core3ptr36drop_in_place$LT$syn..path..Path$GT$17hb26ddc646911d9caE.llvm.3493214138399568752', symObjAddr: 0x4410, symBinAddr: 0xE46D0, symSize: 0x240 }
  - { offsetInCU: 0x1930C, offset: 0x515A03, size: 0x8, addend: 0x0, symName: '__ZN4core3ptr37drop_in_place$LT$syn..stmt..Block$GT$17h9bb04bc412e892c1E', symObjAddr: 0x4650, symBinAddr: 0xE4910, symSize: 0xD0 }
  - { offsetInCU: 0x195EE, offset: 0x515CE5, size: 0x8, addend: 0x0, symName: '__ZN4core3ptr38drop_in_place$LT$syn..error..Error$GT$17h6faeff159aa80c91E.llvm.3493214138399568752', symObjAddr: 0x4720, symBinAddr: 0xE49E0, symSize: 0x80 }
  - { offsetInCU: 0x198C0, offset: 0x515FB7, size: 0x8, addend: 0x0, symName: '__ZN4core3ptr38drop_in_place$LT$syn..expr..Member$GT$17h54f73fbfaef06080E', symObjAddr: 0x47A0, symBinAddr: 0xE4A60, symSize: 0x30 }
  - { offsetInCU: 0x199BD, offset: 0x5160B4, size: 0x8, addend: 0x0, symName: '__ZN4core3ptr39drop_in_place$LT$proc_macro2..Ident$GT$17h9d68045e9dec4a40E', symObjAddr: 0x47D0, symBinAddr: 0xE4A90, symSize: 0x30 }
  - { offsetInCU: 0x19A9B, offset: 0x516192, size: 0x8, addend: 0x0, symName: '__ZN4core3ptr40drop_in_place$LT$syn..expr..ExprPath$GT$17h0115980c8ec091a0E', symObjAddr: 0x4800, symBinAddr: 0xE4AC0, symSize: 0x110 }
  - { offsetInCU: 0x19ED9, offset: 0x5165D0, size: 0x8, addend: 0x0, symName: '__ZN4core3ptr40drop_in_place$LT$syn..ty..ReturnType$GT$17h4a68005bbc507217E', symObjAddr: 0x4910, symBinAddr: 0xE4BD0, symSize: 0x50 }
  - { offsetInCU: 0x1A04B, offset: 0x516742, size: 0x8, addend: 0x0, symName: '__ZN4core3ptr41drop_in_place$LT$syn..expr..ExprConst$GT$17h454a2cb9df850c24E', symObjAddr: 0x4960, symBinAddr: 0xE4C20, symSize: 0x180 }
  - { offsetInCU: 0x1A5D4, offset: 0x516CCB, size: 0x8, addend: 0x0, symName: '__ZN4core3ptr44drop_in_place$LT$syn..lifetime..Lifetime$GT$17h9c301554489a697eE', symObjAddr: 0x4AE0, symBinAddr: 0xE4DA0, symSize: 0x30 }
  - { offsetInCU: 0x1A807, offset: 0x516EFE, size: 0x8, addend: 0x0, symName: '__ZN4core3ptr45drop_in_place$LT$proc_macro2..TokenStream$GT$17h86cac592f04212eaE.llvm.3493214138399568752', symObjAddr: 0x4B10, symBinAddr: 0xE4DD0, symSize: 0x140 }
  - { offsetInCU: 0x1AC76, offset: 0x51736D, size: 0x8, addend: 0x0, symName: '__ZN4core3ptr45drop_in_place$LT$syn..generics..TypeParam$GT$17he645f7cc80b7ae11E', symObjAddr: 0x4C50, symBinAddr: 0xE4F10, symSize: 0x230 }
  - { offsetInCU: 0x1B4A6, offset: 0x517B9D, size: 0x8, addend: 0x0, symName: '__ZN4core3ptr46drop_in_place$LT$syn..generics..ConstParam$GT$17hc19d519d6441178aE', symObjAddr: 0x4E80, symBinAddr: 0xE5140, symSize: 0x150 }
  - { offsetInCU: 0x1B904, offset: 0x517FFB, size: 0x8, addend: 0x0, symName: '__ZN4core3ptr47drop_in_place$LT$syn..path..GenericArgument$GT$17ha7ad17cb38a1a5afE', symObjAddr: 0x4FD0, symBinAddr: 0xE5290, symSize: 0x460 }
  - { offsetInCU: 0x1C60D, offset: 0x518D04, size: 0x8, addend: 0x0, symName: '__ZN4core3ptr49drop_in_place$LT$syn..generics..LifetimeParam$GT$17h47d9f9e81b35a3dcE', symObjAddr: 0x5430, symBinAddr: 0xE56F0, symSize: 0xF0 }
  - { offsetInCU: 0x1C9FB, offset: 0x5190F2, size: 0x8, addend: 0x0, symName: '__ZN4core3ptr50drop_in_place$LT$syn..generics..TypeParamBound$GT$17h7c1195cdfd37b73cE', symObjAddr: 0x5520, symBinAddr: 0xE57E0, symSize: 0xA0 }
  - { offsetInCU: 0x1CB62, offset: 0x519259, size: 0x8, addend: 0x0, symName: '__ZN4core3ptr58drop_in_place$LT$alloc..vec..Vec$LT$syn..expr..Arm$GT$$GT$17ha648d1896dec8b4dE', symObjAddr: 0x55C0, symBinAddr: 0xE5880, symSize: 0xD0 }
  - { offsetInCU: 0x1CDEF, offset: 0x5194E6, size: 0x8, addend: 0x0, symName: '__ZN4core3ptr59drop_in_place$LT$alloc..boxed..Box$LT$syn..pat..Pat$GT$$GT$17hfa860577679c86cbE', symObjAddr: 0x5690, symBinAddr: 0xE5950, symSize: 0x50 }
  - { offsetInCU: 0x1CF4A, offset: 0x519641, size: 0x8, addend: 0x0, symName: '__ZN4core3ptr59drop_in_place$LT$alloc..boxed..Box$LT$syn..ty..Type$GT$$GT$17hce35c4b60063cd1fE', symObjAddr: 0x56E0, symBinAddr: 0xE59A0, symSize: 0x50 }
  - { offsetInCU: 0x1D0A5, offset: 0x51979C, size: 0x8, addend: 0x0, symName: '__ZN4core3ptr61drop_in_place$LT$alloc..boxed..Box$LT$syn..expr..Expr$GT$$GT$17h35b8f1409a9ab85bE', symObjAddr: 0x5730, symBinAddr: 0xE59F0, symSize: 0x50 }
  - { offsetInCU: 0x1D200, offset: 0x5198F7, size: 0x8, addend: 0x0, symName: '__ZN4core3ptr61drop_in_place$LT$syn..path..ParenthesizedGenericArguments$GT$17h6d1a096952b83c04E', symObjAddr: 0x5780, symBinAddr: 0xE5A40, symSize: 0x170 }
  - { offsetInCU: 0x1D7F9, offset: 0x519EF0, size: 0x8, addend: 0x0, symName: '__ZN4core3ptr63drop_in_place$LT$alloc..boxed..Box$LT$syn..lit..LitRepr$GT$$GT$17h4a54b8c5cd42faf5E', symObjAddr: 0x5970, symBinAddr: 0xE5BB0, symSize: 0x60 }
  - { offsetInCU: 0x1DAEE, offset: 0x51A1E5, size: 0x8, addend: 0x0, symName: '__ZN4core3ptr64drop_in_place$LT$alloc..boxed..Box$LT$syn..pat..FieldPat$GT$$GT$17hf3d389ef82c9f10bE', symObjAddr: 0x59D0, symBinAddr: 0xE5C10, symSize: 0x140 }
  - { offsetInCU: 0x1E1CD, offset: 0x51A8C4, size: 0x8, addend: 0x0, symName: '__ZN4core3ptr64drop_in_place$LT$alloc..boxed..Box$LT$syn..ty..BareFnArg$GT$$GT$17hc862ec57eebf1a54E', symObjAddr: 0x5B10, symBinAddr: 0xE5D50, symSize: 0x140 }
  - { offsetInCU: 0x1E725, offset: 0x51AE1C, size: 0x8, addend: 0x0, symName: '__ZN4core3ptr65drop_in_place$LT$core..option..Option$LT$syn..expr..Label$GT$$GT$17hfc626d17a1d0054dE', symObjAddr: 0x5C50, symBinAddr: 0xE5E90, symSize: 0x30 }
  - { offsetInCU: 0x1E860, offset: 0x51AF57, size: 0x8, addend: 0x0, symName: '__ZN4core3ptr65drop_in_place$LT$core..option..Option$LT$syn..path..QSelf$GT$$GT$17h31a3e5c39e677989E', symObjAddr: 0x5C80, symBinAddr: 0xE5EC0, symSize: 0x50 }
  - { offsetInCU: 0x1E9E3, offset: 0x51B0DA, size: 0x8, addend: 0x0, symName: '__ZN4core3ptr66drop_in_place$LT$core..option..Option$LT$syn..pat..PatRest$GT$$GT$17hba8f4d9198c0dabcE', symObjAddr: 0x5CD0, symBinAddr: 0xE5F10, symSize: 0xE0 }
  - { offsetInCU: 0x1EC9B, offset: 0x51B392, size: 0x8, addend: 0x0, symName: '__ZN4core3ptr67drop_in_place$LT$alloc..boxed..Box$LT$syn..expr..FieldValue$GT$$GT$17h1fe00f656b5bc41eE', symObjAddr: 0x5DB0, symBinAddr: 0xE5FF0, symSize: 0x140 }
  - { offsetInCU: 0x1F2CB, offset: 0x51B9C2, size: 0x8, addend: 0x0, symName: '__ZN4core3ptr68drop_in_place$LT$borsh_derive..internals..generics..FindTyParams$GT$17h9dff03c3f81b2b80E.llvm.3493214138399568752', symObjAddr: 0x5EF0, symBinAddr: 0xE6130, symSize: 0xA0 }
  - { offsetInCU: 0x1F6CE, offset: 0x51BDC5, size: 0x8, addend: 0x0, symName: '__ZN4core3ptr70drop_in_place$LT$core..option..Option$LT$syn..ty..BareVariadic$GT$$GT$17hf6aaee8d5112d370E', symObjAddr: 0x5F90, symBinAddr: 0xE61D0, symSize: 0x120 }
  - { offsetInCU: 0x1FC2F, offset: 0x51C326, size: 0x8, addend: 0x0, symName: '__ZN4core3ptr72drop_in_place$LT$alloc..boxed..Box$LT$syn..path..GenericArgument$GT$$GT$17hc3f5a13c594d53a1E', symObjAddr: 0x60B0, symBinAddr: 0xE62F0, symSize: 0x2B0 }
  - { offsetInCU: 0x2061A, offset: 0x51CD11, size: 0x8, addend: 0x0, symName: '__ZN4core3ptr72drop_in_place$LT$core..option..Option$LT$syn..lifetime..Lifetime$GT$$GT$17hf02c2376eaf0703fE', symObjAddr: 0x6360, symBinAddr: 0xE65A0, symSize: 0x30 }
  - { offsetInCU: 0x20736, offset: 0x51CE2D, size: 0x8, addend: 0x0, symName: '__ZN4core3ptr73drop_in_place$LT$alloc..boxed..Box$LT$syn..generics..GenericParam$GT$$GT$17hbb1f35d2f323630eE', symObjAddr: 0x6390, symBinAddr: 0xE65D0, symSize: 0x80 }
  - { offsetInCU: 0x208CD, offset: 0x51CFC4, size: 0x8, addend: 0x0, symName: '__ZN4core3ptr73drop_in_place$LT$alloc..vec..Vec$LT$syn..generics..WherePredicate$GT$$GT$17h7c9081113585d09cE.llvm.3493214138399568752', symObjAddr: 0x6410, symBinAddr: 0xE6650, symSize: 0xD0 }
  - { offsetInCU: 0x20B6D, offset: 0x51D264, size: 0x8, addend: 0x0, symName: '__ZN4core3ptr75drop_in_place$LT$alloc..boxed..Box$LT$syn..generics..TypeParamBound$GT$$GT$17h06d020fd356eb6c8E', symObjAddr: 0x64E0, symBinAddr: 0xE6720, symSize: 0x190 }
  - { offsetInCU: 0x21247, offset: 0x51D93E, size: 0x8, addend: 0x0, symName: '__ZN4core3ptr86drop_in_place$LT$syn..punctuated..Punctuated$LT$syn..pat..Pat$C$syn..token..Or$GT$$GT$17h1c252cd869cc7fe5E', symObjAddr: 0x6670, symBinAddr: 0xE68B0, symSize: 0x120 }
  - { offsetInCU: 0x2168D, offset: 0x51DD84, size: 0x8, addend: 0x0, symName: '__ZN4core3ptr87drop_in_place$LT$core..option..Option$LT$alloc..boxed..Box$LT$syn..pat..Pat$GT$$GT$$GT$17h72bab185bf1bb06eE', symObjAddr: 0x6790, symBinAddr: 0xE69D0, symSize: 0x50 }
  - { offsetInCU: 0x217FF, offset: 0x51DEF6, size: 0x8, addend: 0x0, symName: '__ZN4core3ptr87drop_in_place$LT$core..option..Option$LT$alloc..boxed..Box$LT$syn..ty..Type$GT$$GT$$GT$17hc260fbb8309ec29fE', symObjAddr: 0x67E0, symBinAddr: 0xE6A20, symSize: 0x50 }
  - { offsetInCU: 0x21971, offset: 0x51E068, size: 0x8, addend: 0x0, symName: '__ZN4core3ptr89drop_in_place$LT$core..option..Option$LT$alloc..boxed..Box$LT$syn..expr..Expr$GT$$GT$$GT$17h189e15babfcbbcfaE', symObjAddr: 0x6830, symBinAddr: 0xE6A70, symSize: 0x50 }
  - { offsetInCU: 0x21B21, offset: 0x51E218, size: 0x8, addend: 0x0, symName: '__ZN4core3ptr89drop_in_place$LT$syn..punctuated..Punctuated$LT$syn..pat..Pat$C$syn..token..Comma$GT$$GT$17ha82f9ca12786bd54E', symObjAddr: 0x6880, symBinAddr: 0xE6AC0, symSize: 0x120 }
  - { offsetInCU: 0x21FBC, offset: 0x51E6B3, size: 0x8, addend: 0x0, symName: '__ZN4core3ptr91drop_in_place$LT$syn..punctuated..Punctuated$LT$syn..expr..Expr$C$syn..token..Comma$GT$$GT$17h5d174cfb4564e731E', symObjAddr: 0x69A0, symBinAddr: 0xE6BE0, symSize: 0x120 }
  - { offsetInCU: 0x22419, offset: 0x51EB10, size: 0x8, addend: 0x0, symName: '__ZN4core3ptr94drop_in_place$LT$syn..punctuated..Punctuated$LT$syn..pat..FieldPat$C$syn..token..Comma$GT$$GT$17h57ec84468c025663E', symObjAddr: 0x6AC0, symBinAddr: 0xE6D00, symSize: 0xF0 }
  - { offsetInCU: 0x226E3, offset: 0x51EDDA, size: 0x8, addend: 0x0, symName: '__ZN4core3ptr94drop_in_place$LT$syn..punctuated..Punctuated$LT$syn..ty..BareFnArg$C$syn..token..Comma$GT$$GT$17h93a6df93f58cf1c2E', symObjAddr: 0x6BB0, symBinAddr: 0xE6DF0, symSize: 0xF0 }
  - { offsetInCU: 0x229AD, offset: 0x51F0A4, size: 0x8, addend: 0x0, symName: '__ZN4core3ptr96drop_in_place$LT$core..option..Option$LT$alloc..boxed..Box$LT$syn..path..PathSegment$GT$$GT$$GT$17hfffb4eb6744ee164E', symObjAddr: 0x6CA0, symBinAddr: 0xE6EE0, symSize: 0x180 }
  - { offsetInCU: 0x2303E, offset: 0x51F735, size: 0x8, addend: 0x0, symName: '__ZN4core3ptr97drop_in_place$LT$syn..punctuated..Punctuated$LT$syn..expr..FieldValue$C$syn..token..Comma$GT$$GT$17hd35fb722be03e3d1E', symObjAddr: 0x6E20, symBinAddr: 0xE7060, symSize: 0xF0 }
  - { offsetInCU: 0x23384, offset: 0x51FA7B, size: 0x8, addend: 0x0, symName: '__ZN4core3ptr98drop_in_place$LT$syn..punctuated..Punctuated$LT$syn..lifetime..Lifetime$C$syn..token..Plus$GT$$GT$17h0f92166c8c801efbE', symObjAddr: 0x6F10, symBinAddr: 0xE7150, symSize: 0xC0 }
  - { offsetInCU: 0x2763B, offset: 0x523D32, size: 0x8, addend: 0x0, symName: __ZN12borsh_derive9internals9serialize14GenericsOutput6extend17hd97487b48f293d16E, symObjAddr: 0x7060, symBinAddr: 0xE7210, symSize: 0x280 }
  - { offsetInCU: 0x27AED, offset: 0x5241E4, size: 0x8, addend: 0x0, symName: __ZN12borsh_derive9internals9serialize7FieldId18new_struct_unnamed17h0e465f4cb9024a0dE, symObjAddr: 0x72E0, symBinAddr: 0xE7490, symSize: 0x120 }
  - { offsetInCU: 0x27F6F, offset: 0x524666, size: 0x8, addend: 0x0, symName: __ZN12borsh_derive9internals9serialize7FieldId16new_enum_unnamed17hb1f43eb8fbfacd5fE, symObjAddr: 0x7400, symBinAddr: 0xE75B0, symSize: 0x120 }
  - { offsetInCU: 0x2858B, offset: 0x524C82, size: 0x8, addend: 0x0, symName: __ZN12borsh_derive9internals9serialize7FieldId16serialize_output17h85fc0c3670557544E, symObjAddr: 0x7520, symBinAddr: 0xE76D0, symSize: 0x850 }
  - { offsetInCU: 0x28EB4, offset: 0x5255AB, size: 0x8, addend: 0x0, symName: __ZN12borsh_derive9internals9serialize7FieldId19enum_variant_header17h9aa71094498af1d8E, symObjAddr: 0x7D70, symBinAddr: 0xE7F20, symSize: 0x2FE }
  - { offsetInCU: 0x1E, offset: 0x528338, size: 0x8, addend: 0x0, symName: '__ZN4core3ops8function6FnOnce40call_once$u7b$$u7b$vtable.shim$u7d$$u7d$17h5e9ef0eedadb582bE', symObjAddr: 0x0, symBinAddr: 0xE8220, symSize: 0xC0 }
  - { offsetInCU: 0x51, offset: 0x52836B, size: 0x8, addend: 0x0, symName: __ZN12borsh_derive9internals10attributes5field6schema22SCHEMA_FIELD_PARSE_MAP17h2a3c2cb7960af5fcE, symObjAddr: 0x8B90, symBinAddr: 0x3E0030, symSize: 0x0 }
  - { offsetInCU: 0xB0, offset: 0x5283CA, size: 0x8, addend: 0x0, symName: '__ZN12borsh_derive9internals10attributes5field6schema22SCHEMA_FIELD_PARSE_MAP28_$u7b$$u7b$closure$u7d$$u7d$28_$u7b$$u7b$closure$u7d$$u7d$17h8eb89fdaf57ecad7E', symObjAddr: 0x7410, symBinAddr: 0xEF630, symSize: 0x80 }
  - { offsetInCU: 0x101, offset: 0x52841B, size: 0x8, addend: 0x0, symName: '__ZN12borsh_derive9internals10attributes5field6schema22SCHEMA_FIELD_PARSE_MAP28_$u7b$$u7b$closure$u7d$$u7d$28_$u7b$$u7b$closure$u7d$$u7d$17h52631bc6ac519958E', symObjAddr: 0x7490, symBinAddr: 0xEF6B0, symSize: 0x220 }
  - { offsetInCU: 0x56A, offset: 0x528884, size: 0x8, addend: 0x0, symName: '__ZN264_$LT$borsh_derive..internals..attributes..field..schema..Attributes$u20$as$u20$core..convert..From$LT$alloc..collections..btree..map..BTreeMap$LT$borsh_derive..internals..attributes..Symbol$C$borsh_derive..internals..attributes..field..schema..Variants$GT$$GT$$GT$4from17hd8821b931117bfd6E', symObjAddr: 0x76B0, symBinAddr: 0xEF8D0, symSize: 0x420 }
  - { offsetInCU: 0x976, offset: 0x528C90, size: 0x8, addend: 0x0, symName: '__ZN107_$LT$borsh_derive..internals..attributes..field..schema..ParameterOverride$u20$as$u20$syn..parse..Parse$GT$5parse17hf8cc41da998e6ccfE', symObjAddr: 0x7AD0, symBinAddr: 0xEFCF0, symSize: 0x217 }
  - { offsetInCU: 0x581B, offset: 0x52DB35, size: 0x8, addend: 0x0, symName: '__ZN4core3ptr100drop_in_place$LT$core..option..Option$LT$alloc..boxed..Box$LT$syn..path..GenericArgument$GT$$GT$$GT$17h513ef87717aedfddE', symObjAddr: 0x230, symBinAddr: 0xE8450, symSize: 0x50 }
  - { offsetInCU: 0x5BBB, offset: 0x52DED5, size: 0x8, addend: 0x0, symName: '__ZN4core3ptr100drop_in_place$LT$syn..punctuated..Punctuated$LT$syn..path..PathSegment$C$syn..token..PathSep$GT$$GT$17hd0d4e322634cba5dE', symObjAddr: 0x280, symBinAddr: 0xE84A0, symSize: 0x280 }
  - { offsetInCU: 0x6668, offset: 0x52E982, size: 0x8, addend: 0x0, symName: '__ZN4core3ptr103drop_in_place$LT$core..option..Option$LT$alloc..boxed..Box$LT$syn..generics..TypeParamBound$GT$$GT$$GT$17h0d79b9ffb4171f90E', symObjAddr: 0x500, symBinAddr: 0xE8720, symSize: 0x50 }
  - { offsetInCU: 0x6875, offset: 0x52EB8F, size: 0x8, addend: 0x0, symName: '__ZN4core3ptr103drop_in_place$LT$syn..punctuated..Punctuated$LT$syn..generics..GenericParam$C$syn..token..Comma$GT$$GT$17h1d35d7d5913e8beaE', symObjAddr: 0x550, symBinAddr: 0xE8770, symSize: 0xF0 }
  - { offsetInCU: 0x6D38, offset: 0x52F052, size: 0x8, addend: 0x0, symName: '__ZN4core3ptr104drop_in_place$LT$syn..punctuated..Punctuated$LT$syn..generics..TypeParamBound$C$syn..token..Plus$GT$$GT$17h44083f960cd822d7E', symObjAddr: 0x640, symBinAddr: 0xE8860, symSize: 0x190 }
  - { offsetInCU: 0x732F, offset: 0x52F649, size: 0x8, addend: 0x0, symName: '__ZN4core3ptr141drop_in_place$LT$core..option..Option$LT$alloc..vec..Vec$LT$borsh_derive..internals..attributes..field..schema..ParameterOverride$GT$$GT$$GT$17hc201e14dc02d2772E', symObjAddr: 0x7D0, symBinAddr: 0xE89F0, symSize: 0x70 }
  - { offsetInCU: 0x7562, offset: 0x52F87C, size: 0x8, addend: 0x0, symName: '__ZN4core3ptr153drop_in_place$LT$borsh_derive..internals..attributes..field..schema..SCHEMA_FIELD_PARSE_MAP..$u7b$$u7b$closure$u7d$$u7d$..$u7b$$u7b$closure$u7d$$u7d$$GT$17h56a58d7151a05471E', symObjAddr: 0x840, symBinAddr: 0xE8A60, symSize: 0x10 }
  - { offsetInCU: 0x7648, offset: 0x52F962, size: 0x8, addend: 0x0, symName: '__ZN4core3ptr34drop_in_place$LT$syn..lit..Lit$GT$17h3e4ef73f9d6504faE', symObjAddr: 0x850, symBinAddr: 0xE8A70, symSize: 0x110 }
  - { offsetInCU: 0x7B82, offset: 0x52FE9C, size: 0x8, addend: 0x0, symName: '__ZN4core3ptr34drop_in_place$LT$syn..pat..Pat$GT$17hf99e10cab020967aE', symObjAddr: 0x960, symBinAddr: 0xE8B80, symSize: 0xEB0 }
  - { offsetInCU: 0xB474, offset: 0x53378E, size: 0x8, addend: 0x0, symName: '__ZN4core3ptr34drop_in_place$LT$syn..ty..Type$GT$17hc9a287e6412cf4a5E', symObjAddr: 0x1810, symBinAddr: 0xE9A30, symSize: 0x510 }
  - { offsetInCU: 0xCAD3, offset: 0x534DED, size: 0x8, addend: 0x0, symName: '__ZN4core3ptr36drop_in_place$LT$syn..expr..Expr$GT$17hbea3b059aebc6b0dE', symObjAddr: 0x1D20, symBinAddr: 0xE9F40, symSize: 0x2790 }
  - { offsetInCU: 0x16319, offset: 0x53E633, size: 0x8, addend: 0x0, symName: '__ZN4core3ptr36drop_in_place$LT$syn..mac..Macro$GT$17haa1481cb4fe5d660E', symObjAddr: 0x44B0, symBinAddr: 0xEC6D0, symSize: 0x40 }
  - { offsetInCU: 0x16353, offset: 0x53E66D, size: 0x8, addend: 0x0, symName: '__ZN4core3ptr36drop_in_place$LT$syn..path..Path$GT$17hb26ddc646911d9caE', symObjAddr: 0x44F0, symBinAddr: 0xEC710, symSize: 0x240 }
  - { offsetInCU: 0x16D9C, offset: 0x53F0B6, size: 0x8, addend: 0x0, symName: '__ZN4core3ptr37drop_in_place$LT$syn..path..QSelf$GT$17hf59f2cf7f4703e2eE', symObjAddr: 0x4730, symBinAddr: 0xEC950, symSize: 0x50 }
  - { offsetInCU: 0x16F16, offset: 0x53F230, size: 0x8, addend: 0x0, symName: '__ZN4core3ptr37drop_in_place$LT$syn..stmt..Block$GT$17h9bb04bc412e892c1E', symObjAddr: 0x4780, symBinAddr: 0xEC9A0, symSize: 0xD0 }
  - { offsetInCU: 0x171BA, offset: 0x53F4D4, size: 0x8, addend: 0x0, symName: '__ZN4core3ptr38drop_in_place$LT$syn..expr..Member$GT$17h54f73fbfaef06080E', symObjAddr: 0x4850, symBinAddr: 0xECA70, symSize: 0x30 }
  - { offsetInCU: 0x172B7, offset: 0x53F5D1, size: 0x8, addend: 0x0, symName: '__ZN4core3ptr39drop_in_place$LT$proc_macro2..Ident$GT$17h9d68045e9dec4a40E', symObjAddr: 0x4880, symBinAddr: 0xECAA0, symSize: 0x30 }
  - { offsetInCU: 0x17395, offset: 0x53F6AF, size: 0x8, addend: 0x0, symName: '__ZN4core3ptr40drop_in_place$LT$syn..expr..ExprPath$GT$17h0115980c8ec091a0E', symObjAddr: 0x48B0, symBinAddr: 0xECAD0, symSize: 0x110 }
  - { offsetInCU: 0x1785A, offset: 0x53FB74, size: 0x8, addend: 0x0, symName: '__ZN4core3ptr40drop_in_place$LT$syn..ty..ReturnType$GT$17h4a68005bbc507217E', symObjAddr: 0x49C0, symBinAddr: 0xECBE0, symSize: 0x50 }
  - { offsetInCU: 0x179CC, offset: 0x53FCE6, size: 0x8, addend: 0x0, symName: '__ZN4core3ptr41drop_in_place$LT$syn..expr..ExprConst$GT$17h454a2cb9df850c24E', symObjAddr: 0x4A10, symBinAddr: 0xECC30, symSize: 0x180 }
  - { offsetInCU: 0x17F55, offset: 0x54026F, size: 0x8, addend: 0x0, symName: '__ZN4core3ptr44drop_in_place$LT$syn..lifetime..Lifetime$GT$17h9c301554489a697eE', symObjAddr: 0x4B90, symBinAddr: 0xECDB0, symSize: 0x30 }
  - { offsetInCU: 0x18188, offset: 0x5404A2, size: 0x8, addend: 0x0, symName: '__ZN4core3ptr45drop_in_place$LT$proc_macro2..TokenStream$GT$17h86cac592f04212eaE', symObjAddr: 0x4BC0, symBinAddr: 0xECDE0, symSize: 0x140 }
  - { offsetInCU: 0x185F7, offset: 0x540911, size: 0x8, addend: 0x0, symName: '__ZN4core3ptr45drop_in_place$LT$syn..generics..TypeParam$GT$17he645f7cc80b7ae11E', symObjAddr: 0x4D00, symBinAddr: 0xECF20, symSize: 0x230 }
  - { offsetInCU: 0x18E27, offset: 0x541141, size: 0x8, addend: 0x0, symName: '__ZN4core3ptr46drop_in_place$LT$syn..generics..ConstParam$GT$17hc19d519d6441178aE', symObjAddr: 0x4F30, symBinAddr: 0xED150, symSize: 0x150 }
  - { offsetInCU: 0x19285, offset: 0x54159F, size: 0x8, addend: 0x0, symName: '__ZN4core3ptr47drop_in_place$LT$syn..path..GenericArgument$GT$17ha7ad17cb38a1a5afE', symObjAddr: 0x5080, symBinAddr: 0xED2A0, symSize: 0x4A0 }
  - { offsetInCU: 0x1A32C, offset: 0x542646, size: 0x8, addend: 0x0, symName: '__ZN4core3ptr49drop_in_place$LT$syn..generics..LifetimeParam$GT$17h47d9f9e81b35a3dcE', symObjAddr: 0x5520, symBinAddr: 0xED740, symSize: 0xF0 }
  - { offsetInCU: 0x1A71A, offset: 0x542A34, size: 0x8, addend: 0x0, symName: '__ZN4core3ptr50drop_in_place$LT$syn..generics..TypeParamBound$GT$17h7c1195cdfd37b73cE', symObjAddr: 0x5610, symBinAddr: 0xED830, symSize: 0x1A0 }
  - { offsetInCU: 0x1AC4E, offset: 0x542F68, size: 0x8, addend: 0x0, symName: '__ZN4core3ptr58drop_in_place$LT$alloc..vec..Vec$LT$syn..expr..Arm$GT$$GT$17ha648d1896dec8b4dE', symObjAddr: 0x57B0, symBinAddr: 0xED9D0, symSize: 0xD0 }
  - { offsetInCU: 0x1AEDB, offset: 0x5431F5, size: 0x8, addend: 0x0, symName: '__ZN4core3ptr59drop_in_place$LT$alloc..boxed..Box$LT$syn..pat..Pat$GT$$GT$17hfa860577679c86cbE', symObjAddr: 0x5880, symBinAddr: 0xEDAA0, symSize: 0x50 }
  - { offsetInCU: 0x1B036, offset: 0x543350, size: 0x8, addend: 0x0, symName: '__ZN4core3ptr59drop_in_place$LT$alloc..boxed..Box$LT$syn..ty..Type$GT$$GT$17hce35c4b60063cd1fE', symObjAddr: 0x58D0, symBinAddr: 0xEDAF0, symSize: 0x50 }
  - { offsetInCU: 0x1B191, offset: 0x5434AB, size: 0x8, addend: 0x0, symName: '__ZN4core3ptr61drop_in_place$LT$alloc..boxed..Box$LT$syn..expr..Expr$GT$$GT$17h35b8f1409a9ab85bE', symObjAddr: 0x5920, symBinAddr: 0xEDB40, symSize: 0x50 }
  - { offsetInCU: 0x1B368, offset: 0x543682, size: 0x8, addend: 0x0, symName: '__ZN4core3ptr61drop_in_place$LT$syn..path..ParenthesizedGenericArguments$GT$17h6d1a096952b83c04E', symObjAddr: 0x5970, symBinAddr: 0xEDB90, symSize: 0x170 }
  - { offsetInCU: 0x1B92F, offset: 0x543C49, size: 0x8, addend: 0x0, symName: '__ZN4core3ptr62drop_in_place$LT$syn..path..AngleBracketedGenericArguments$GT$17h1e2e2310287487b5E', symObjAddr: 0x5AE0, symBinAddr: 0xEDD00, symSize: 0x120 }
  - { offsetInCU: 0x1BD45, offset: 0x54405F, size: 0x8, addend: 0x0, symName: '__ZN4core3ptr63drop_in_place$LT$alloc..boxed..Box$LT$syn..lit..LitRepr$GT$$GT$17h4a54b8c5cd42faf5E', symObjAddr: 0x5C00, symBinAddr: 0xEDE20, symSize: 0x60 }
  - { offsetInCU: 0x1C03A, offset: 0x544354, size: 0x8, addend: 0x0, symName: '__ZN4core3ptr64drop_in_place$LT$alloc..boxed..Box$LT$syn..pat..FieldPat$GT$$GT$17hf3d389ef82c9f10bE', symObjAddr: 0x5C60, symBinAddr: 0xEDE80, symSize: 0x140 }
  - { offsetInCU: 0x1C719, offset: 0x544A33, size: 0x8, addend: 0x0, symName: '__ZN4core3ptr64drop_in_place$LT$alloc..boxed..Box$LT$syn..ty..BareFnArg$GT$$GT$17hc862ec57eebf1a54E', symObjAddr: 0x5DA0, symBinAddr: 0xEDFC0, symSize: 0x140 }
  - { offsetInCU: 0x1CC71, offset: 0x544F8B, size: 0x8, addend: 0x0, symName: '__ZN4core3ptr65drop_in_place$LT$core..option..Option$LT$syn..expr..Label$GT$$GT$17hfc626d17a1d0054dE', symObjAddr: 0x5EE0, symBinAddr: 0xEE100, symSize: 0x30 }
  - { offsetInCU: 0x1CDAC, offset: 0x5450C6, size: 0x8, addend: 0x0, symName: '__ZN4core3ptr65drop_in_place$LT$core..option..Option$LT$syn..path..QSelf$GT$$GT$17h31a3e5c39e677989E', symObjAddr: 0x5F10, symBinAddr: 0xEE130, symSize: 0x50 }
  - { offsetInCU: 0x1CF45, offset: 0x54525F, size: 0x8, addend: 0x0, symName: '__ZN4core3ptr66drop_in_place$LT$core..option..Option$LT$syn..pat..PatRest$GT$$GT$17hba8f4d9198c0dabcE', symObjAddr: 0x5F60, symBinAddr: 0xEE180, symSize: 0xE0 }
  - { offsetInCU: 0x1D1FD, offset: 0x545517, size: 0x8, addend: 0x0, symName: '__ZN4core3ptr67drop_in_place$LT$alloc..boxed..Box$LT$syn..expr..FieldValue$GT$$GT$17h1fe00f656b5bc41eE', symObjAddr: 0x6040, symBinAddr: 0xEE260, symSize: 0x140 }
  - { offsetInCU: 0x1D735, offset: 0x545A4F, size: 0x8, addend: 0x0, symName: '__ZN4core3ptr68drop_in_place$LT$alloc..boxed..Box$LT$syn..path..PathSegment$GT$$GT$17hdf3e53c9442c6d12E', symObjAddr: 0x6180, symBinAddr: 0xEE3A0, symSize: 0x190 }
  - { offsetInCU: 0x1DE13, offset: 0x54612D, size: 0x8, addend: 0x0, symName: '__ZN4core3ptr70drop_in_place$LT$core..option..Option$LT$syn..ty..BareVariadic$GT$$GT$17hf6aaee8d5112d370E', symObjAddr: 0x6310, symBinAddr: 0xEE530, symSize: 0x120 }
  - { offsetInCU: 0x1E374, offset: 0x54668E, size: 0x8, addend: 0x0, symName: '__ZN4core3ptr72drop_in_place$LT$alloc..boxed..Box$LT$syn..path..GenericArgument$GT$$GT$17hc3f5a13c594d53a1E', symObjAddr: 0x6430, symBinAddr: 0xEE650, symSize: 0x1D0 }
  - { offsetInCU: 0x1E917, offset: 0x546C31, size: 0x8, addend: 0x0, symName: '__ZN4core3ptr72drop_in_place$LT$core..option..Option$LT$syn..lifetime..Lifetime$GT$$GT$17hf02c2376eaf0703fE', symObjAddr: 0x6600, symBinAddr: 0xEE820, symSize: 0x30 }
  - { offsetInCU: 0x1EA33, offset: 0x546D4D, size: 0x8, addend: 0x0, symName: '__ZN4core3ptr73drop_in_place$LT$alloc..boxed..Box$LT$syn..generics..GenericParam$GT$$GT$17hbb1f35d2f323630eE', symObjAddr: 0x6630, symBinAddr: 0xEE850, symSize: 0x80 }
  - { offsetInCU: 0x1EBAB, offset: 0x546EC5, size: 0x8, addend: 0x0, symName: '__ZN4core3ptr75drop_in_place$LT$alloc..boxed..Box$LT$syn..generics..TypeParamBound$GT$$GT$17h06d020fd356eb6c8E', symObjAddr: 0x66B0, symBinAddr: 0xEE8D0, symSize: 0xB0 }
  - { offsetInCU: 0x1EEE7, offset: 0x547201, size: 0x8, addend: 0x0, symName: '__ZN4core3ptr81drop_in_place$LT$borsh_derive..internals..attributes..field..schema..Variants$GT$17h18e6a1ca34fc24b7E', symObjAddr: 0x6760, symBinAddr: 0xEE980, symSize: 0xC0 }
  - { offsetInCU: 0x1F1C5, offset: 0x5474DF, size: 0x8, addend: 0x0, symName: '__ZN4core3ptr86drop_in_place$LT$syn..punctuated..Punctuated$LT$syn..pat..Pat$C$syn..token..Or$GT$$GT$17h1c252cd869cc7fe5E', symObjAddr: 0x6820, symBinAddr: 0xEEA40, symSize: 0x120 }
  - { offsetInCU: 0x1F60B, offset: 0x547925, size: 0x8, addend: 0x0, symName: '__ZN4core3ptr87drop_in_place$LT$core..option..Option$LT$alloc..boxed..Box$LT$syn..pat..Pat$GT$$GT$$GT$17h72bab185bf1bb06eE', symObjAddr: 0x6940, symBinAddr: 0xEEB60, symSize: 0x50 }
  - { offsetInCU: 0x1F77D, offset: 0x547A97, size: 0x8, addend: 0x0, symName: '__ZN4core3ptr87drop_in_place$LT$core..option..Option$LT$alloc..boxed..Box$LT$syn..ty..Type$GT$$GT$$GT$17hc260fbb8309ec29fE', symObjAddr: 0x6990, symBinAddr: 0xEEBB0, symSize: 0x50 }
  - { offsetInCU: 0x1F8EF, offset: 0x547C09, size: 0x8, addend: 0x0, symName: '__ZN4core3ptr89drop_in_place$LT$core..option..Option$LT$alloc..boxed..Box$LT$syn..expr..Expr$GT$$GT$$GT$17h189e15babfcbbcfaE', symObjAddr: 0x69E0, symBinAddr: 0xEEC00, symSize: 0x50 }
  - { offsetInCU: 0x1FA9F, offset: 0x547DB9, size: 0x8, addend: 0x0, symName: '__ZN4core3ptr89drop_in_place$LT$syn..punctuated..Punctuated$LT$syn..pat..Pat$C$syn..token..Comma$GT$$GT$17ha82f9ca12786bd54E', symObjAddr: 0x6A30, symBinAddr: 0xEEC50, symSize: 0x120 }
  - { offsetInCU: 0x1FEFC, offset: 0x548216, size: 0x8, addend: 0x0, symName: '__ZN4core3ptr89drop_in_place$LT$syn..punctuated..Punctuated$LT$syn..ty..Type$C$syn..token..Comma$GT$$GT$17h6c76e390e4497862E', symObjAddr: 0x6B50, symBinAddr: 0xEED70, symSize: 0x120 }
  - { offsetInCU: 0x20346, offset: 0x548660, size: 0x8, addend: 0x0, symName: '__ZN4core3ptr90drop_in_place$LT$core..option..Option$LT$syn..path..AngleBracketedGenericArguments$GT$$GT$17h488f4ff126d02fb4E', symObjAddr: 0x6C70, symBinAddr: 0xEEE90, symSize: 0x130 }
  - { offsetInCU: 0x207B1, offset: 0x548ACB, size: 0x8, addend: 0x0, symName: '__ZN4core3ptr91drop_in_place$LT$syn..punctuated..Punctuated$LT$syn..expr..Expr$C$syn..token..Comma$GT$$GT$17h5d174cfb4564e731E', symObjAddr: 0x6DA0, symBinAddr: 0xEEFC0, symSize: 0x120 }
  - { offsetInCU: 0x20C0E, offset: 0x548F28, size: 0x8, addend: 0x0, symName: '__ZN4core3ptr94drop_in_place$LT$borsh_derive..internals..attributes..field..schema..with_funcs..WithFuncs$GT$17h0d0b997d4c25bf87E', symObjAddr: 0x6EC0, symBinAddr: 0xEF0E0, symSize: 0x60 }
  - { offsetInCU: 0x20C78, offset: 0x548F92, size: 0x8, addend: 0x0, symName: '__ZN4core3ptr94drop_in_place$LT$syn..punctuated..Punctuated$LT$syn..pat..FieldPat$C$syn..token..Comma$GT$$GT$17h57ec84468c025663E', symObjAddr: 0x6F20, symBinAddr: 0xEF140, symSize: 0xF0 }
  - { offsetInCU: 0x20F42, offset: 0x54925C, size: 0x8, addend: 0x0, symName: '__ZN4core3ptr94drop_in_place$LT$syn..punctuated..Punctuated$LT$syn..ty..BareFnArg$C$syn..token..Comma$GT$$GT$17h93a6df93f58cf1c2E', symObjAddr: 0x7010, symBinAddr: 0xEF230, symSize: 0xF0 }
  - { offsetInCU: 0x2120C, offset: 0x549526, size: 0x8, addend: 0x0, symName: '__ZN4core3ptr96drop_in_place$LT$core..option..Option$LT$alloc..boxed..Box$LT$syn..path..PathSegment$GT$$GT$$GT$17hfffb4eb6744ee164E', symObjAddr: 0x7100, symBinAddr: 0xEF320, symSize: 0x90 }
  - { offsetInCU: 0x2148E, offset: 0x5497A8, size: 0x8, addend: 0x0, symName: '__ZN4core3ptr97drop_in_place$LT$syn..punctuated..Punctuated$LT$syn..expr..FieldValue$C$syn..token..Comma$GT$$GT$17hd35fb722be03e3d1E', symObjAddr: 0x7190, symBinAddr: 0xEF3B0, symSize: 0xF0 }
  - { offsetInCU: 0x21758, offset: 0x549A72, size: 0x8, addend: 0x0, symName: '__ZN4core3ptr98drop_in_place$LT$alloc..vec..Vec$LT$$LP$syn..path..GenericArgument$C$syn..token..Comma$RP$$GT$$GT$17h4fdb1af8625fb77aE', symObjAddr: 0x7280, symBinAddr: 0xEF4A0, symSize: 0xD0 }
  - { offsetInCU: 0x21A61, offset: 0x549D7B, size: 0x8, addend: 0x0, symName: '__ZN4core3ptr98drop_in_place$LT$syn..punctuated..Punctuated$LT$syn..lifetime..Lifetime$C$syn..token..Plus$GT$$GT$17h0f92166c8c801efbE', symObjAddr: 0x7350, symBinAddr: 0xEF570, symSize: 0xC0 }
  - { offsetInCU: 0x22FB3, offset: 0x54B2CD, size: 0x8, addend: 0x0, symName: '__ZN4core3ops8function6FnOnce40call_once$u7b$$u7b$vtable.shim$u7d$$u7d$17h5e9ef0eedadb582bE', symObjAddr: 0x0, symBinAddr: 0xE8220, symSize: 0xC0 }
  - { offsetInCU: 0x23094, offset: 0x54B3AE, size: 0x8, addend: 0x0, symName: '__ZN4core3ops8function6FnOnce40call_once$u7b$$u7b$vtable.shim$u7d$$u7d$17hc9eb8a0a89976cdbE', symObjAddr: 0xC0, symBinAddr: 0xE82E0, symSize: 0x20 }
  - { offsetInCU: 0x230EB, offset: 0x54B405, size: 0x8, addend: 0x0, symName: __ZN4core3ops8function6FnOnce9call_once17hb2d26c1e83577e37E, symObjAddr: 0xE0, symBinAddr: 0xE8300, symSize: 0x150 }
  - { offsetInCU: 0x1E, offset: 0x555252, size: 0x8, addend: 0x0, symName: '__ZN4core3ptr100drop_in_place$LT$core..option..Option$LT$alloc..boxed..Box$LT$syn..path..GenericArgument$GT$$GT$$GT$17h513ef87717aedfddE', symObjAddr: 0x0, symBinAddr: 0xEFF10, symSize: 0x50 }
  - { offsetInCU: 0x1740, offset: 0x556974, size: 0x8, addend: 0x0, symName: '__ZN4core3ptr100drop_in_place$LT$core..option..Option$LT$alloc..boxed..Box$LT$syn..path..GenericArgument$GT$$GT$$GT$17h513ef87717aedfddE', symObjAddr: 0x0, symBinAddr: 0xEFF10, symSize: 0x50 }
  - { offsetInCU: 0x190F, offset: 0x556B43, size: 0x8, addend: 0x0, symName: '__ZN4core3ptr102drop_in_place$LT$syn..punctuated..Punctuated$LT$syn..path..GenericArgument$C$syn..token..Comma$GT$$GT$17ha5e403e03e446464E', symObjAddr: 0x50, symBinAddr: 0xEFF60, symSize: 0xF0 }
  - { offsetInCU: 0x1BF8, offset: 0x556E2C, size: 0x8, addend: 0x0, symName: '__ZN4core3ptr103drop_in_place$LT$core..option..Option$LT$alloc..boxed..Box$LT$syn..generics..TypeParamBound$GT$$GT$$GT$17h0d79b9ffb4171f90E', symObjAddr: 0x140, symBinAddr: 0xF0050, symSize: 0x50 }
  - { offsetInCU: 0x1E05, offset: 0x557039, size: 0x8, addend: 0x0, symName: '__ZN4core3ptr103drop_in_place$LT$syn..punctuated..Punctuated$LT$syn..generics..GenericParam$C$syn..token..Comma$GT$$GT$17h1d35d7d5913e8beaE', symObjAddr: 0x190, symBinAddr: 0xF00A0, symSize: 0xF0 }
  - { offsetInCU: 0x23A1, offset: 0x5575D5, size: 0x8, addend: 0x0, symName: '__ZN4core3ptr104drop_in_place$LT$syn..punctuated..Punctuated$LT$syn..generics..TypeParamBound$C$syn..token..Plus$GT$$GT$17h44083f960cd822d7E', symObjAddr: 0x280, symBinAddr: 0xF0190, symSize: 0x260 }
  - { offsetInCU: 0x2D93, offset: 0x557FC7, size: 0x8, addend: 0x0, symName: '__ZN4core3ptr34drop_in_place$LT$syn..lit..Lit$GT$17h3e4ef73f9d6504faE', symObjAddr: 0x4E0, symBinAddr: 0xF03F0, symSize: 0x110 }
  - { offsetInCU: 0x32EC, offset: 0x558520, size: 0x8, addend: 0x0, symName: '__ZN4core3ptr34drop_in_place$LT$syn..pat..Pat$GT$17hf99e10cab020967aE', symObjAddr: 0x5F0, symBinAddr: 0xF0500, symSize: 0xF00 }
  - { offsetInCU: 0x6D8F, offset: 0x55BFC3, size: 0x8, addend: 0x0, symName: '__ZN4core3ptr34drop_in_place$LT$syn..ty..Type$GT$17hc9a287e6412cf4a5E', symObjAddr: 0x14F0, symBinAddr: 0xF1400, symSize: 0x5E0 }
  - { offsetInCU: 0x86D9, offset: 0x55D90D, size: 0x8, addend: 0x0, symName: '__ZN4core3ptr36drop_in_place$LT$syn..expr..Expr$GT$17hbea3b059aebc6b0dE', symObjAddr: 0x1AD0, symBinAddr: 0xF19E0, symSize: 0x2830 }
  - { offsetInCU: 0x1214E, offset: 0x567382, size: 0x8, addend: 0x0, symName: '__ZN4core3ptr36drop_in_place$LT$syn..mac..Macro$GT$17haa1481cb4fe5d660E', symObjAddr: 0x4300, symBinAddr: 0xF4210, symSize: 0x110 }
  - { offsetInCU: 0x125D3, offset: 0x567807, size: 0x8, addend: 0x0, symName: '__ZN4core3ptr36drop_in_place$LT$syn..path..Path$GT$17hb26ddc646911d9caE.llvm.4410170791830802937', symObjAddr: 0x4410, symBinAddr: 0xF4320, symSize: 0x240 }
  - { offsetInCU: 0x1301C, offset: 0x568250, size: 0x8, addend: 0x0, symName: '__ZN4core3ptr37drop_in_place$LT$syn..stmt..Block$GT$17h9bb04bc412e892c1E', symObjAddr: 0x4650, symBinAddr: 0xF4560, symSize: 0xD0 }
  - { offsetInCU: 0x132C0, offset: 0x5684F4, size: 0x8, addend: 0x0, symName: '__ZN4core3ptr38drop_in_place$LT$syn..expr..Member$GT$17h54f73fbfaef06080E', symObjAddr: 0x4720, symBinAddr: 0xF4630, symSize: 0x30 }
  - { offsetInCU: 0x133BD, offset: 0x5685F1, size: 0x8, addend: 0x0, symName: '__ZN4core3ptr39drop_in_place$LT$proc_macro2..Ident$GT$17h9d68045e9dec4a40E', symObjAddr: 0x4750, symBinAddr: 0xF4660, symSize: 0x30 }
  - { offsetInCU: 0x1349B, offset: 0x5686CF, size: 0x8, addend: 0x0, symName: '__ZN4core3ptr40drop_in_place$LT$syn..ty..ReturnType$GT$17h4a68005bbc507217E', symObjAddr: 0x4780, symBinAddr: 0xF4690, symSize: 0x50 }
  - { offsetInCU: 0x1360D, offset: 0x568841, size: 0x8, addend: 0x0, symName: '__ZN4core3ptr41drop_in_place$LT$syn..expr..ExprConst$GT$17h454a2cb9df850c24E', symObjAddr: 0x47D0, symBinAddr: 0xF46E0, symSize: 0x180 }
  - { offsetInCU: 0x13B96, offset: 0x568DCA, size: 0x8, addend: 0x0, symName: '__ZN4core3ptr44drop_in_place$LT$syn..lifetime..Lifetime$GT$17h9c301554489a697eE', symObjAddr: 0x4950, symBinAddr: 0xF4860, symSize: 0x30 }
  - { offsetInCU: 0x13DC9, offset: 0x568FFD, size: 0x8, addend: 0x0, symName: '__ZN4core3ptr45drop_in_place$LT$proc_macro2..TokenStream$GT$17h86cac592f04212eaE', symObjAddr: 0x4980, symBinAddr: 0xF4890, symSize: 0x140 }
  - { offsetInCU: 0x14238, offset: 0x56946C, size: 0x8, addend: 0x0, symName: '__ZN4core3ptr45drop_in_place$LT$syn..generics..TypeParam$GT$17he645f7cc80b7ae11E', symObjAddr: 0x4AC0, symBinAddr: 0xF49D0, symSize: 0x230 }
  - { offsetInCU: 0x14A68, offset: 0x569C9C, size: 0x8, addend: 0x0, symName: '__ZN4core3ptr46drop_in_place$LT$syn..generics..ConstParam$GT$17hc19d519d6441178aE', symObjAddr: 0x4CF0, symBinAddr: 0xF4C00, symSize: 0x150 }
  - { offsetInCU: 0x14EC6, offset: 0x56A0FA, size: 0x8, addend: 0x0, symName: '__ZN4core3ptr47drop_in_place$LT$syn..path..GenericArgument$GT$17ha7ad17cb38a1a5afE', symObjAddr: 0x4E40, symBinAddr: 0xF4D50, symSize: 0x460 }
  - { offsetInCU: 0x15BCF, offset: 0x56AE03, size: 0x8, addend: 0x0, symName: '__ZN4core3ptr49drop_in_place$LT$syn..generics..LifetimeParam$GT$17h47d9f9e81b35a3dcE', symObjAddr: 0x52A0, symBinAddr: 0xF51B0, symSize: 0xF0 }
  - { offsetInCU: 0x15FBD, offset: 0x56B1F1, size: 0x8, addend: 0x0, symName: '__ZN4core3ptr50drop_in_place$LT$syn..generics..TypeParamBound$GT$17h7c1195cdfd37b73cE', symObjAddr: 0x5390, symBinAddr: 0xF52A0, symSize: 0xA0 }
  - { offsetInCU: 0x16124, offset: 0x56B358, size: 0x8, addend: 0x0, symName: '__ZN4core3ptr58drop_in_place$LT$alloc..vec..Vec$LT$syn..expr..Arm$GT$$GT$17ha648d1896dec8b4dE', symObjAddr: 0x5430, symBinAddr: 0xF5340, symSize: 0xD0 }
  - { offsetInCU: 0x163B1, offset: 0x56B5E5, size: 0x8, addend: 0x0, symName: '__ZN4core3ptr59drop_in_place$LT$alloc..boxed..Box$LT$syn..pat..Pat$GT$$GT$17hfa860577679c86cbE', symObjAddr: 0x5500, symBinAddr: 0xF5410, symSize: 0x50 }
  - { offsetInCU: 0x1650C, offset: 0x56B740, size: 0x8, addend: 0x0, symName: '__ZN4core3ptr59drop_in_place$LT$alloc..boxed..Box$LT$syn..ty..Type$GT$$GT$17hce35c4b60063cd1fE', symObjAddr: 0x5550, symBinAddr: 0xF5460, symSize: 0x50 }
  - { offsetInCU: 0x16667, offset: 0x56B89B, size: 0x8, addend: 0x0, symName: '__ZN4core3ptr61drop_in_place$LT$alloc..boxed..Box$LT$syn..expr..Expr$GT$$GT$17h35b8f1409a9ab85bE', symObjAddr: 0x55A0, symBinAddr: 0xF54B0, symSize: 0x50 }
  - { offsetInCU: 0x167C2, offset: 0x56B9F6, size: 0x8, addend: 0x0, symName: '__ZN4core3ptr61drop_in_place$LT$syn..path..ParenthesizedGenericArguments$GT$17h6d1a096952b83c04E', symObjAddr: 0x55F0, symBinAddr: 0xF5500, symSize: 0x170 }
  - { offsetInCU: 0x16D9C, offset: 0x56BFD0, size: 0x8, addend: 0x0, symName: '__ZN4core3ptr63drop_in_place$LT$alloc..boxed..Box$LT$syn..lit..LitRepr$GT$$GT$17h4a54b8c5cd42faf5E', symObjAddr: 0x5760, symBinAddr: 0xF5670, symSize: 0x60 }
  - { offsetInCU: 0x17091, offset: 0x56C2C5, size: 0x8, addend: 0x0, symName: '__ZN4core3ptr64drop_in_place$LT$alloc..boxed..Box$LT$syn..pat..FieldPat$GT$$GT$17hf3d389ef82c9f10bE', symObjAddr: 0x57C0, symBinAddr: 0xF56D0, symSize: 0x140 }
  - { offsetInCU: 0x17770, offset: 0x56C9A4, size: 0x8, addend: 0x0, symName: '__ZN4core3ptr64drop_in_place$LT$alloc..boxed..Box$LT$syn..ty..BareFnArg$GT$$GT$17hc862ec57eebf1a54E', symObjAddr: 0x5900, symBinAddr: 0xF5810, symSize: 0x140 }
  - { offsetInCU: 0x17CC8, offset: 0x56CEFC, size: 0x8, addend: 0x0, symName: '__ZN4core3ptr65drop_in_place$LT$core..option..Option$LT$syn..expr..Label$GT$$GT$17hfc626d17a1d0054dE', symObjAddr: 0x5A40, symBinAddr: 0xF5950, symSize: 0x30 }
  - { offsetInCU: 0x17E03, offset: 0x56D037, size: 0x8, addend: 0x0, symName: '__ZN4core3ptr66drop_in_place$LT$core..option..Option$LT$syn..pat..PatRest$GT$$GT$17hba8f4d9198c0dabcE', symObjAddr: 0x5A70, symBinAddr: 0xF5980, symSize: 0xE0 }
  - { offsetInCU: 0x180BB, offset: 0x56D2EF, size: 0x8, addend: 0x0, symName: '__ZN4core3ptr67drop_in_place$LT$alloc..boxed..Box$LT$syn..expr..FieldValue$GT$$GT$17h1fe00f656b5bc41eE', symObjAddr: 0x5B50, symBinAddr: 0xF5A60, symSize: 0x140 }
  - { offsetInCU: 0x18612, offset: 0x56D846, size: 0x8, addend: 0x0, symName: '__ZN4core3ptr70drop_in_place$LT$core..option..Option$LT$syn..ty..BareVariadic$GT$$GT$17hf6aaee8d5112d370E', symObjAddr: 0x5C90, symBinAddr: 0xF5BA0, symSize: 0x120 }
  - { offsetInCU: 0x18B73, offset: 0x56DDA7, size: 0x8, addend: 0x0, symName: '__ZN4core3ptr72drop_in_place$LT$alloc..boxed..Box$LT$syn..path..GenericArgument$GT$$GT$17hc3f5a13c594d53a1E', symObjAddr: 0x5DB0, symBinAddr: 0xF5CC0, symSize: 0x2B0 }
  - { offsetInCU: 0x1955E, offset: 0x56E792, size: 0x8, addend: 0x0, symName: '__ZN4core3ptr72drop_in_place$LT$core..option..Option$LT$syn..lifetime..Lifetime$GT$$GT$17hf02c2376eaf0703fE', symObjAddr: 0x6060, symBinAddr: 0xF5F70, symSize: 0x30 }
  - { offsetInCU: 0x1967A, offset: 0x56E8AE, size: 0x8, addend: 0x0, symName: '__ZN4core3ptr73drop_in_place$LT$alloc..boxed..Box$LT$syn..generics..GenericParam$GT$$GT$17hbb1f35d2f323630eE', symObjAddr: 0x6090, symBinAddr: 0xF5FA0, symSize: 0x80 }
  - { offsetInCU: 0x197F2, offset: 0x56EA26, size: 0x8, addend: 0x0, symName: '__ZN4core3ptr75drop_in_place$LT$alloc..boxed..Box$LT$syn..generics..TypeParamBound$GT$$GT$17h06d020fd356eb6c8E', symObjAddr: 0x6110, symBinAddr: 0xF6020, symSize: 0x190 }
  - { offsetInCU: 0x19ECC, offset: 0x56F100, size: 0x8, addend: 0x0, symName: '__ZN4core3ptr86drop_in_place$LT$syn..punctuated..Punctuated$LT$syn..pat..Pat$C$syn..token..Or$GT$$GT$17h1c252cd869cc7fe5E', symObjAddr: 0x62A0, symBinAddr: 0xF61B0, symSize: 0x120 }
  - { offsetInCU: 0x1A312, offset: 0x56F546, size: 0x8, addend: 0x0, symName: '__ZN4core3ptr87drop_in_place$LT$core..option..Option$LT$alloc..boxed..Box$LT$syn..pat..Pat$GT$$GT$$GT$17h72bab185bf1bb06eE', symObjAddr: 0x63C0, symBinAddr: 0xF62D0, symSize: 0x50 }
  - { offsetInCU: 0x1A484, offset: 0x56F6B8, size: 0x8, addend: 0x0, symName: '__ZN4core3ptr87drop_in_place$LT$core..option..Option$LT$alloc..boxed..Box$LT$syn..ty..Type$GT$$GT$$GT$17hc260fbb8309ec29fE', symObjAddr: 0x6410, symBinAddr: 0xF6320, symSize: 0x50 }
  - { offsetInCU: 0x1A5F6, offset: 0x56F82A, size: 0x8, addend: 0x0, symName: '__ZN4core3ptr89drop_in_place$LT$core..option..Option$LT$alloc..boxed..Box$LT$syn..expr..Expr$GT$$GT$$GT$17h189e15babfcbbcfaE', symObjAddr: 0x6460, symBinAddr: 0xF6370, symSize: 0x50 }
  - { offsetInCU: 0x1A7A6, offset: 0x56F9DA, size: 0x8, addend: 0x0, symName: '__ZN4core3ptr89drop_in_place$LT$syn..punctuated..Punctuated$LT$syn..pat..Pat$C$syn..token..Comma$GT$$GT$17ha82f9ca12786bd54E', symObjAddr: 0x64B0, symBinAddr: 0xF63C0, symSize: 0x120 }
  - { offsetInCU: 0x1AC41, offset: 0x56FE75, size: 0x8, addend: 0x0, symName: '__ZN4core3ptr91drop_in_place$LT$syn..punctuated..Punctuated$LT$syn..expr..Expr$C$syn..token..Comma$GT$$GT$17h5d174cfb4564e731E', symObjAddr: 0x65D0, symBinAddr: 0xF64E0, symSize: 0x120 }
  - { offsetInCU: 0x1B09E, offset: 0x5702D2, size: 0x8, addend: 0x0, symName: '__ZN4core3ptr94drop_in_place$LT$syn..punctuated..Punctuated$LT$syn..pat..FieldPat$C$syn..token..Comma$GT$$GT$17h57ec84468c025663E', symObjAddr: 0x66F0, symBinAddr: 0xF6600, symSize: 0xF0 }
  - { offsetInCU: 0x1B368, offset: 0x57059C, size: 0x8, addend: 0x0, symName: '__ZN4core3ptr94drop_in_place$LT$syn..punctuated..Punctuated$LT$syn..ty..BareFnArg$C$syn..token..Comma$GT$$GT$17h93a6df93f58cf1c2E', symObjAddr: 0x67E0, symBinAddr: 0xF66F0, symSize: 0xF0 }
  - { offsetInCU: 0x1B632, offset: 0x570866, size: 0x8, addend: 0x0, symName: '__ZN4core3ptr96drop_in_place$LT$core..option..Option$LT$alloc..boxed..Box$LT$syn..path..PathSegment$GT$$GT$$GT$17hfffb4eb6744ee164E', symObjAddr: 0x68D0, symBinAddr: 0xF67E0, symSize: 0x180 }
  - { offsetInCU: 0x1BCC3, offset: 0x570EF7, size: 0x8, addend: 0x0, symName: '__ZN4core3ptr97drop_in_place$LT$syn..punctuated..Punctuated$LT$syn..expr..FieldValue$C$syn..token..Comma$GT$$GT$17hd35fb722be03e3d1E', symObjAddr: 0x6A50, symBinAddr: 0xF6960, symSize: 0xF0 }
  - { offsetInCU: 0x1C009, offset: 0x57123D, size: 0x8, addend: 0x0, symName: '__ZN4core3ptr98drop_in_place$LT$syn..punctuated..Punctuated$LT$syn..lifetime..Lifetime$C$syn..token..Plus$GT$$GT$17h0f92166c8c801efbE', symObjAddr: 0x6B40, symBinAddr: 0xF6A50, symSize: 0xC0 }
  - { offsetInCU: 0x2604E, offset: 0x57B282, size: 0x8, addend: 0x0, symName: __ZN12borsh_derive9internals10attributes4item25contains_use_discriminant17h59524b88f9e19ff1E, symObjAddr: 0x6C90, symBinAddr: 0xF6B10, symSize: 0x410 }
  - { offsetInCU: 0x26A56, offset: 0x57BC8A, size: 0x8, addend: 0x0, symName: __ZN12borsh_derive9internals10attributes4item24contains_initialize_with17hceb576fc72d7980aE, symObjAddr: 0x70A0, symBinAddr: 0xF6F20, symSize: 0x160 }
  - { offsetInCU: 0x26CC7, offset: 0x57BEFB, size: 0x8, addend: 0x0, symName: __ZN12borsh_derive9internals10attributes4item9get_crate17h4302888cdb40f3f4E, symObjAddr: 0x7200, symBinAddr: 0xF7080, symSize: 0x15A }
  - { offsetInCU: 0x1E, offset: 0x57E86A, size: 0x8, addend: 0x0, symName: '__ZN4core3ptr44drop_in_place$LT$proc_macro_crate..Error$GT$17hc666294b397f9a66E.llvm.3662290316249210839', symObjAddr: 0x0, symBinAddr: 0xF71E0, symSize: 0x1E0 }
  - { offsetInCU: 0x35, offset: 0x57E881, size: 0x8, addend: 0x0, symName: _anon.ba12165fd68dfd5c98af461afd9cecb5.1.llvm.3662290316249210839, symObjAddr: 0x5E0, symBinAddr: 0x3D9458, symSize: 0x0 }
  - { offsetInCU: 0x21C9, offset: 0x580A15, size: 0x8, addend: 0x0, symName: '__ZN4core3ptr44drop_in_place$LT$proc_macro_crate..Error$GT$17hc666294b397f9a66E.llvm.3662290316249210839', symObjAddr: 0x0, symBinAddr: 0xF71E0, symSize: 0x1E0 }
  - { offsetInCU: 0xA75F, offset: 0x588FAB, size: 0x8, addend: 0x0, symName: __ZN12borsh_derive9internals9cratename3get17hc9af226c565c2ffdE, symObjAddr: 0x210, symBinAddr: 0xF73C0, symSize: 0x2E0 }
  - { offsetInCU: 0x1E, offset: 0x589847, size: 0x8, addend: 0x0, symName: '__ZN4core3ptr100drop_in_place$LT$core..option..Option$LT$alloc..boxed..Box$LT$syn..path..GenericArgument$GT$$GT$$GT$17h513ef87717aedfddE', symObjAddr: 0x0, symBinAddr: 0xF76A0, symSize: 0x50 }
  - { offsetInCU: 0x7D24, offset: 0x59154D, size: 0x8, addend: 0x0, symName: '__ZN4core3ptr100drop_in_place$LT$core..option..Option$LT$alloc..boxed..Box$LT$syn..path..GenericArgument$GT$$GT$$GT$17h513ef87717aedfddE', symObjAddr: 0x0, symBinAddr: 0xF76A0, symSize: 0x50 }
  - { offsetInCU: 0x7EF3, offset: 0x59171C, size: 0x8, addend: 0x0, symName: '__ZN4core3ptr102drop_in_place$LT$syn..punctuated..Punctuated$LT$syn..path..GenericArgument$C$syn..token..Comma$GT$$GT$17ha5e403e03e446464E', symObjAddr: 0x50, symBinAddr: 0xF76F0, symSize: 0xF0 }
  - { offsetInCU: 0x81DC, offset: 0x591A05, size: 0x8, addend: 0x0, symName: '__ZN4core3ptr103drop_in_place$LT$core..option..Option$LT$alloc..boxed..Box$LT$syn..generics..TypeParamBound$GT$$GT$$GT$17h0d79b9ffb4171f90E', symObjAddr: 0x140, symBinAddr: 0xF77E0, symSize: 0x50 }
  - { offsetInCU: 0x83E9, offset: 0x591C12, size: 0x8, addend: 0x0, symName: '__ZN4core3ptr103drop_in_place$LT$syn..punctuated..Punctuated$LT$syn..generics..GenericParam$C$syn..token..Comma$GT$$GT$17h1d35d7d5913e8beaE', symObjAddr: 0x190, symBinAddr: 0xF7830, symSize: 0xF0 }
  - { offsetInCU: 0x8985, offset: 0x5921AE, size: 0x8, addend: 0x0, symName: '__ZN4core3ptr104drop_in_place$LT$syn..punctuated..Punctuated$LT$syn..generics..TypeParamBound$C$syn..token..Plus$GT$$GT$17h44083f960cd822d7E', symObjAddr: 0x280, symBinAddr: 0xF7920, symSize: 0x260 }
  - { offsetInCU: 0x9339, offset: 0x592B62, size: 0x8, addend: 0x0, symName: '__ZN4core3ptr107drop_in_place$LT$core..option..Option$LT$borsh_derive..internals..attributes..field..bounds..Bounds$GT$$GT$17h2d5529b9a1156344E', symObjAddr: 0x4E0, symBinAddr: 0xF7B80, symSize: 0x1A0 }
  - { offsetInCU: 0x98EF, offset: 0x593118, size: 0x8, addend: 0x0, symName: '__ZN4core3ptr111drop_in_place$LT$core..option..Option$LT$borsh_derive..internals..attributes..field..schema..Attributes$GT$$GT$17h080e13e0ea21ca67E', symObjAddr: 0x680, symBinAddr: 0xF7D20, symSize: 0x110 }
  - { offsetInCU: 0x9CE8, offset: 0x593511, size: 0x8, addend: 0x0, symName: '__ZN4core3ptr34drop_in_place$LT$syn..lit..Lit$GT$17h3e4ef73f9d6504faE', symObjAddr: 0x790, symBinAddr: 0xF7E30, symSize: 0x110 }
  - { offsetInCU: 0xA241, offset: 0x593A6A, size: 0x8, addend: 0x0, symName: '__ZN4core3ptr34drop_in_place$LT$syn..pat..Pat$GT$17hf99e10cab020967aE', symObjAddr: 0x8A0, symBinAddr: 0xF7F40, symSize: 0xF00 }
  - { offsetInCU: 0xDCE4, offset: 0x59750D, size: 0x8, addend: 0x0, symName: '__ZN4core3ptr34drop_in_place$LT$syn..ty..Type$GT$17hc9a287e6412cf4a5E', symObjAddr: 0x17A0, symBinAddr: 0xF8E40, symSize: 0x5E0 }
  - { offsetInCU: 0xF62E, offset: 0x598E57, size: 0x8, addend: 0x0, symName: '__ZN4core3ptr36drop_in_place$LT$syn..expr..Expr$GT$17hbea3b059aebc6b0dE', symObjAddr: 0x1D80, symBinAddr: 0xF9420, symSize: 0x2830 }
  - { offsetInCU: 0x190A3, offset: 0x5A28CC, size: 0x8, addend: 0x0, symName: '__ZN4core3ptr36drop_in_place$LT$syn..mac..Macro$GT$17haa1481cb4fe5d660E', symObjAddr: 0x45B0, symBinAddr: 0xFBC50, symSize: 0x110 }
  - { offsetInCU: 0x19528, offset: 0x5A2D51, size: 0x8, addend: 0x0, symName: '__ZN4core3ptr36drop_in_place$LT$syn..path..Path$GT$17hb26ddc646911d9caE', symObjAddr: 0x46C0, symBinAddr: 0xFBD60, symSize: 0x240 }
  - { offsetInCU: 0x19F71, offset: 0x5A379A, size: 0x8, addend: 0x0, symName: '__ZN4core3ptr37drop_in_place$LT$syn..stmt..Block$GT$17h9bb04bc412e892c1E', symObjAddr: 0x4900, symBinAddr: 0xFBFA0, symSize: 0xD0 }
  - { offsetInCU: 0x1A253, offset: 0x5A3A7C, size: 0x8, addend: 0x0, symName: '__ZN4core3ptr38drop_in_place$LT$syn..error..Error$GT$17h6faeff159aa80c91E', symObjAddr: 0x49D0, symBinAddr: 0xFC070, symSize: 0x80 }
  - { offsetInCU: 0x1A525, offset: 0x5A3D4E, size: 0x8, addend: 0x0, symName: '__ZN4core3ptr38drop_in_place$LT$syn..expr..Member$GT$17h54f73fbfaef06080E', symObjAddr: 0x4A50, symBinAddr: 0xFC0F0, symSize: 0x30 }
  - { offsetInCU: 0x1A622, offset: 0x5A3E4B, size: 0x8, addend: 0x0, symName: '__ZN4core3ptr39drop_in_place$LT$proc_macro2..Ident$GT$17h9d68045e9dec4a40E', symObjAddr: 0x4A80, symBinAddr: 0xFC120, symSize: 0x30 }
  - { offsetInCU: 0x1A700, offset: 0x5A3F29, size: 0x8, addend: 0x0, symName: '__ZN4core3ptr40drop_in_place$LT$syn..expr..ExprPath$GT$17h0115980c8ec091a0E', symObjAddr: 0x4AB0, symBinAddr: 0xFC150, symSize: 0x110 }
  - { offsetInCU: 0x1AB3E, offset: 0x5A4367, size: 0x8, addend: 0x0, symName: '__ZN4core3ptr40drop_in_place$LT$syn..ty..ReturnType$GT$17h4a68005bbc507217E', symObjAddr: 0x4BC0, symBinAddr: 0xFC260, symSize: 0x50 }
  - { offsetInCU: 0x1ACB0, offset: 0x5A44D9, size: 0x8, addend: 0x0, symName: '__ZN4core3ptr41drop_in_place$LT$syn..expr..ExprConst$GT$17h454a2cb9df850c24E', symObjAddr: 0x4C10, symBinAddr: 0xFC2B0, symSize: 0x180 }
  - { offsetInCU: 0x1B239, offset: 0x5A4A62, size: 0x8, addend: 0x0, symName: '__ZN4core3ptr44drop_in_place$LT$syn..lifetime..Lifetime$GT$17h9c301554489a697eE', symObjAddr: 0x4D90, symBinAddr: 0xFC430, symSize: 0x30 }
  - { offsetInCU: 0x1B46C, offset: 0x5A4C95, size: 0x8, addend: 0x0, symName: '__ZN4core3ptr45drop_in_place$LT$proc_macro2..TokenStream$GT$17h86cac592f04212eaE', symObjAddr: 0x4DC0, symBinAddr: 0xFC460, symSize: 0x140 }
  - { offsetInCU: 0x1B8DB, offset: 0x5A5104, size: 0x8, addend: 0x0, symName: '__ZN4core3ptr45drop_in_place$LT$syn..generics..TypeParam$GT$17he645f7cc80b7ae11E', symObjAddr: 0x4F00, symBinAddr: 0xFC5A0, symSize: 0x230 }
  - { offsetInCU: 0x1C10B, offset: 0x5A5934, size: 0x8, addend: 0x0, symName: '__ZN4core3ptr46drop_in_place$LT$syn..generics..ConstParam$GT$17hc19d519d6441178aE', symObjAddr: 0x5130, symBinAddr: 0xFC7D0, symSize: 0x150 }
  - { offsetInCU: 0x1C569, offset: 0x5A5D92, size: 0x8, addend: 0x0, symName: '__ZN4core3ptr47drop_in_place$LT$syn..path..GenericArgument$GT$17ha7ad17cb38a1a5afE', symObjAddr: 0x5280, symBinAddr: 0xFC920, symSize: 0x460 }
  - { offsetInCU: 0x1D272, offset: 0x5A6A9B, size: 0x8, addend: 0x0, symName: '__ZN4core3ptr49drop_in_place$LT$syn..generics..LifetimeParam$GT$17h47d9f9e81b35a3dcE', symObjAddr: 0x56E0, symBinAddr: 0xFCD80, symSize: 0xF0 }
  - { offsetInCU: 0x1D660, offset: 0x5A6E89, size: 0x8, addend: 0x0, symName: '__ZN4core3ptr50drop_in_place$LT$syn..generics..TypeParamBound$GT$17h7c1195cdfd37b73cE', symObjAddr: 0x57D0, symBinAddr: 0xFCE70, symSize: 0xA0 }
  - { offsetInCU: 0x1D7C7, offset: 0x5A6FF0, size: 0x8, addend: 0x0, symName: '__ZN4core3ptr58drop_in_place$LT$alloc..vec..Vec$LT$syn..expr..Arm$GT$$GT$17ha648d1896dec8b4dE', symObjAddr: 0x5870, symBinAddr: 0xFCF10, symSize: 0xD0 }
  - { offsetInCU: 0x1DA54, offset: 0x5A727D, size: 0x8, addend: 0x0, symName: '__ZN4core3ptr59drop_in_place$LT$alloc..boxed..Box$LT$syn..pat..Pat$GT$$GT$17hfa860577679c86cbE', symObjAddr: 0x5940, symBinAddr: 0xFCFE0, symSize: 0x50 }
  - { offsetInCU: 0x1DBAF, offset: 0x5A73D8, size: 0x8, addend: 0x0, symName: '__ZN4core3ptr59drop_in_place$LT$alloc..boxed..Box$LT$syn..ty..Type$GT$$GT$17hce35c4b60063cd1fE', symObjAddr: 0x5990, symBinAddr: 0xFD030, symSize: 0x50 }
  - { offsetInCU: 0x1DD0A, offset: 0x5A7533, size: 0x8, addend: 0x0, symName: '__ZN4core3ptr61drop_in_place$LT$alloc..boxed..Box$LT$syn..expr..Expr$GT$$GT$17h35b8f1409a9ab85bE', symObjAddr: 0x59E0, symBinAddr: 0xFD080, symSize: 0x50 }
  - { offsetInCU: 0x1DE65, offset: 0x5A768E, size: 0x8, addend: 0x0, symName: '__ZN4core3ptr61drop_in_place$LT$syn..path..ParenthesizedGenericArguments$GT$17h6d1a096952b83c04E', symObjAddr: 0x5A30, symBinAddr: 0xFD0D0, symSize: 0x170 }
  - { offsetInCU: 0x1E45E, offset: 0x5A7C87, size: 0x8, addend: 0x0, symName: '__ZN4core3ptr63drop_in_place$LT$alloc..boxed..Box$LT$syn..lit..LitRepr$GT$$GT$17h4a54b8c5cd42faf5E', symObjAddr: 0x5C20, symBinAddr: 0xFD240, symSize: 0x60 }
  - { offsetInCU: 0x1E753, offset: 0x5A7F7C, size: 0x8, addend: 0x0, symName: '__ZN4core3ptr64drop_in_place$LT$alloc..boxed..Box$LT$syn..pat..FieldPat$GT$$GT$17hf3d389ef82c9f10bE', symObjAddr: 0x5C80, symBinAddr: 0xFD2A0, symSize: 0x140 }
  - { offsetInCU: 0x1EE32, offset: 0x5A865B, size: 0x8, addend: 0x0, symName: '__ZN4core3ptr64drop_in_place$LT$alloc..boxed..Box$LT$syn..ty..BareFnArg$GT$$GT$17hc862ec57eebf1a54E', symObjAddr: 0x5DC0, symBinAddr: 0xFD3E0, symSize: 0x140 }
  - { offsetInCU: 0x1F38A, offset: 0x5A8BB3, size: 0x8, addend: 0x0, symName: '__ZN4core3ptr65drop_in_place$LT$core..option..Option$LT$syn..expr..Label$GT$$GT$17hfc626d17a1d0054dE', symObjAddr: 0x5F00, symBinAddr: 0xFD520, symSize: 0x30 }
  - { offsetInCU: 0x1F4C5, offset: 0x5A8CEE, size: 0x8, addend: 0x0, symName: '__ZN4core3ptr65drop_in_place$LT$core..option..Option$LT$syn..path..QSelf$GT$$GT$17h31a3e5c39e677989E', symObjAddr: 0x5F30, symBinAddr: 0xFD550, symSize: 0x50 }
  - { offsetInCU: 0x1F648, offset: 0x5A8E71, size: 0x8, addend: 0x0, symName: '__ZN4core3ptr66drop_in_place$LT$core..option..Option$LT$syn..pat..PatRest$GT$$GT$17hba8f4d9198c0dabcE', symObjAddr: 0x5F80, symBinAddr: 0xFD5A0, symSize: 0xE0 }
  - { offsetInCU: 0x1F900, offset: 0x5A9129, size: 0x8, addend: 0x0, symName: '__ZN4core3ptr67drop_in_place$LT$alloc..boxed..Box$LT$syn..expr..FieldValue$GT$$GT$17h1fe00f656b5bc41eE', symObjAddr: 0x6060, symBinAddr: 0xFD680, symSize: 0x140 }
  - { offsetInCU: 0x1FF30, offset: 0x5A9759, size: 0x8, addend: 0x0, symName: '__ZN4core3ptr68drop_in_place$LT$borsh_derive..internals..generics..FindTyParams$GT$17h9dff03c3f81b2b80E.llvm.11154749645190478582', symObjAddr: 0x61A0, symBinAddr: 0xFD7C0, symSize: 0xA0 }
  - { offsetInCU: 0x20333, offset: 0x5A9B5C, size: 0x8, addend: 0x0, symName: '__ZN4core3ptr70drop_in_place$LT$core..option..Option$LT$syn..ty..BareVariadic$GT$$GT$17hf6aaee8d5112d370E', symObjAddr: 0x6240, symBinAddr: 0xFD860, symSize: 0x120 }
  - { offsetInCU: 0x20894, offset: 0x5AA0BD, size: 0x8, addend: 0x0, symName: '__ZN4core3ptr72drop_in_place$LT$alloc..boxed..Box$LT$syn..path..GenericArgument$GT$$GT$17hc3f5a13c594d53a1E', symObjAddr: 0x6360, symBinAddr: 0xFD980, symSize: 0x2B0 }
  - { offsetInCU: 0x2127F, offset: 0x5AAAA8, size: 0x8, addend: 0x0, symName: '__ZN4core3ptr72drop_in_place$LT$core..option..Option$LT$syn..lifetime..Lifetime$GT$$GT$17hf02c2376eaf0703fE', symObjAddr: 0x6610, symBinAddr: 0xFDC30, symSize: 0x30 }
  - { offsetInCU: 0x2139B, offset: 0x5AABC4, size: 0x8, addend: 0x0, symName: '__ZN4core3ptr73drop_in_place$LT$alloc..boxed..Box$LT$syn..generics..GenericParam$GT$$GT$17hbb1f35d2f323630eE', symObjAddr: 0x6640, symBinAddr: 0xFDC60, symSize: 0x80 }
  - { offsetInCU: 0x21513, offset: 0x5AAD3C, size: 0x8, addend: 0x0, symName: '__ZN4core3ptr73drop_in_place$LT$alloc..vec..Vec$LT$syn..generics..WherePredicate$GT$$GT$17h7c9081113585d09cE.llvm.11154749645190478582', symObjAddr: 0x66C0, symBinAddr: 0xFDCE0, symSize: 0xD0 }
  - { offsetInCU: 0x217A0, offset: 0x5AAFC9, size: 0x8, addend: 0x0, symName: '__ZN4core3ptr75drop_in_place$LT$alloc..boxed..Box$LT$syn..generics..TypeParamBound$GT$$GT$17h06d020fd356eb6c8E', symObjAddr: 0x6790, symBinAddr: 0xFDDB0, symSize: 0x190 }
  - { offsetInCU: 0x21E7A, offset: 0x5AB6A3, size: 0x8, addend: 0x0, symName: '__ZN4core3ptr86drop_in_place$LT$syn..punctuated..Punctuated$LT$syn..pat..Pat$C$syn..token..Or$GT$$GT$17h1c252cd869cc7fe5E', symObjAddr: 0x6920, symBinAddr: 0xFDF40, symSize: 0x120 }
  - { offsetInCU: 0x222C0, offset: 0x5ABAE9, size: 0x8, addend: 0x0, symName: '__ZN4core3ptr87drop_in_place$LT$core..option..Option$LT$alloc..boxed..Box$LT$syn..pat..Pat$GT$$GT$$GT$17h72bab185bf1bb06eE', symObjAddr: 0x6A40, symBinAddr: 0xFE060, symSize: 0x50 }
  - { offsetInCU: 0x22432, offset: 0x5ABC5B, size: 0x8, addend: 0x0, symName: '__ZN4core3ptr87drop_in_place$LT$core..option..Option$LT$alloc..boxed..Box$LT$syn..ty..Type$GT$$GT$$GT$17hc260fbb8309ec29fE', symObjAddr: 0x6A90, symBinAddr: 0xFE0B0, symSize: 0x50 }
  - { offsetInCU: 0x225A4, offset: 0x5ABDCD, size: 0x8, addend: 0x0, symName: '__ZN4core3ptr89drop_in_place$LT$core..option..Option$LT$alloc..boxed..Box$LT$syn..expr..Expr$GT$$GT$$GT$17h189e15babfcbbcfaE', symObjAddr: 0x6AE0, symBinAddr: 0xFE100, symSize: 0x50 }
  - { offsetInCU: 0x22754, offset: 0x5ABF7D, size: 0x8, addend: 0x0, symName: '__ZN4core3ptr89drop_in_place$LT$syn..punctuated..Punctuated$LT$syn..pat..Pat$C$syn..token..Comma$GT$$GT$17ha82f9ca12786bd54E', symObjAddr: 0x6B30, symBinAddr: 0xFE150, symSize: 0x120 }
  - { offsetInCU: 0x22BEF, offset: 0x5AC418, size: 0x8, addend: 0x0, symName: '__ZN4core3ptr91drop_in_place$LT$syn..punctuated..Punctuated$LT$syn..expr..Expr$C$syn..token..Comma$GT$$GT$17h5d174cfb4564e731E', symObjAddr: 0x6C50, symBinAddr: 0xFE270, symSize: 0x120 }
  - { offsetInCU: 0x2304C, offset: 0x5AC875, size: 0x8, addend: 0x0, symName: '__ZN4core3ptr94drop_in_place$LT$syn..punctuated..Punctuated$LT$syn..pat..FieldPat$C$syn..token..Comma$GT$$GT$17h57ec84468c025663E', symObjAddr: 0x6D70, symBinAddr: 0xFE390, symSize: 0xF0 }
  - { offsetInCU: 0x23316, offset: 0x5ACB3F, size: 0x8, addend: 0x0, symName: '__ZN4core3ptr94drop_in_place$LT$syn..punctuated..Punctuated$LT$syn..ty..BareFnArg$C$syn..token..Comma$GT$$GT$17h93a6df93f58cf1c2E', symObjAddr: 0x6E60, symBinAddr: 0xFE480, symSize: 0xF0 }
  - { offsetInCU: 0x235E0, offset: 0x5ACE09, size: 0x8, addend: 0x0, symName: '__ZN4core3ptr96drop_in_place$LT$core..option..Option$LT$alloc..boxed..Box$LT$syn..path..PathSegment$GT$$GT$$GT$17hfffb4eb6744ee164E', symObjAddr: 0x6F50, symBinAddr: 0xFE570, symSize: 0x180 }
  - { offsetInCU: 0x23C71, offset: 0x5AD49A, size: 0x8, addend: 0x0, symName: '__ZN4core3ptr97drop_in_place$LT$syn..punctuated..Punctuated$LT$syn..expr..FieldValue$C$syn..token..Comma$GT$$GT$17hd35fb722be03e3d1E', symObjAddr: 0x70D0, symBinAddr: 0xFE6F0, symSize: 0xF0 }
  - { offsetInCU: 0x23FB7, offset: 0x5AD7E0, size: 0x8, addend: 0x0, symName: '__ZN4core3ptr98drop_in_place$LT$syn..punctuated..Punctuated$LT$syn..lifetime..Lifetime$C$syn..token..Plus$GT$$GT$17h0f92166c8c801efbE', symObjAddr: 0x71C0, symBinAddr: 0xFE7E0, symSize: 0xC0 }
  - { offsetInCU: 0x27181, offset: 0x5B09AA, size: 0x8, addend: 0x0, symName: __ZN12borsh_derive9internals11deserialize13process_field17h84dbcb6bdf493d74E, symObjAddr: 0x7860, symBinAddr: 0xFEDB0, symSize: 0x940 }
  - { offsetInCU: 0x28977, offset: 0x5B21A0, size: 0x8, addend: 0x0, symName: __ZN12borsh_derive9internals11deserialize14GenericsOutput6extend17hf8ed4be3ef82fa63E, symObjAddr: 0x7350, symBinAddr: 0xFE8A0, symSize: 0x510 }
  - { offsetInCU: 0x1E, offset: 0x5B5274, size: 0x8, addend: 0x0, symName: '__ZN4core3ops8function6FnOnce40call_once$u7b$$u7b$vtable.shim$u7d$$u7d$17h4a94733224508b41E', symObjAddr: 0x0, symBinAddr: 0xFF6F0, symSize: 0xC0 }
  - { offsetInCU: 0x56, offset: 0x5B52AC, size: 0x8, addend: 0x0, symName: __ZN12borsh_derive9internals10attributes5field6schema10with_funcs26WITH_FUNCS_FIELD_PARSE_MAP17h2e4c5a6ce846cde7E, symObjAddr: 0x8600, symBinAddr: 0x3E0060, symSize: 0x0 }
  - { offsetInCU: 0xEE, offset: 0x5B5344, size: 0x8, addend: 0x0, symName: '__ZN12borsh_derive9internals10attributes5field6schema10with_funcs26WITH_FUNCS_FIELD_PARSE_MAP28_$u7b$$u7b$closure$u7d$$u7d$28_$u7b$$u7b$closure$u7d$$u7d$17hf13cb4fb7d01fef5E', symObjAddr: 0x7320, symBinAddr: 0x106A10, symSize: 0x70 }
  - { offsetInCU: 0x140, offset: 0x5B5396, size: 0x8, addend: 0x0, symName: '__ZN12borsh_derive9internals10attributes5field6schema10with_funcs26WITH_FUNCS_FIELD_PARSE_MAP28_$u7b$$u7b$closure$u7d$$u7d$28_$u7b$$u7b$closure$u7d$$u7d$17he025ae7c4b3954c3E', symObjAddr: 0x7390, symBinAddr: 0x106A80, symSize: 0x70 }
  - { offsetInCU: 0x2A1, offset: 0x5B54F7, size: 0x8, addend: 0x0, symName: '__ZN287_$LT$borsh_derive..internals..attributes..field..schema..with_funcs..WithFuncs$u20$as$u20$core..convert..From$LT$alloc..collections..btree..map..BTreeMap$LT$borsh_derive..internals..attributes..Symbol$C$borsh_derive..internals..attributes..field..schema..with_funcs..Variants$GT$$GT$$GT$4from17h334fc8345405cf11E', symObjAddr: 0x7400, symBinAddr: 0x106AF0, symSize: 0x3EF }
  - { offsetInCU: 0x4F58, offset: 0x5BA1AE, size: 0x8, addend: 0x0, symName: '__ZN4core3ptr100drop_in_place$LT$core..option..Option$LT$alloc..boxed..Box$LT$syn..path..GenericArgument$GT$$GT$$GT$17h513ef87717aedfddE', symObjAddr: 0x2D0, symBinAddr: 0xFF9C0, symSize: 0x50 }
  - { offsetInCU: 0x52F8, offset: 0x5BA54E, size: 0x8, addend: 0x0, symName: '__ZN4core3ptr100drop_in_place$LT$syn..punctuated..Punctuated$LT$syn..path..PathSegment$C$syn..token..PathSep$GT$$GT$17hd0d4e322634cba5dE', symObjAddr: 0x320, symBinAddr: 0xFFA10, symSize: 0x280 }
  - { offsetInCU: 0x5DA5, offset: 0x5BAFFB, size: 0x8, addend: 0x0, symName: '__ZN4core3ptr103drop_in_place$LT$core..option..Option$LT$alloc..boxed..Box$LT$syn..generics..TypeParamBound$GT$$GT$$GT$17h0d79b9ffb4171f90E', symObjAddr: 0x5A0, symBinAddr: 0xFFC90, symSize: 0x50 }
  - { offsetInCU: 0x5FB2, offset: 0x5BB208, size: 0x8, addend: 0x0, symName: '__ZN4core3ptr103drop_in_place$LT$syn..punctuated..Punctuated$LT$syn..generics..GenericParam$C$syn..token..Comma$GT$$GT$17h1d35d7d5913e8beaE', symObjAddr: 0x5F0, symBinAddr: 0xFFCE0, symSize: 0xF0 }
  - { offsetInCU: 0x6475, offset: 0x5BB6CB, size: 0x8, addend: 0x0, symName: '__ZN4core3ptr104drop_in_place$LT$syn..punctuated..Punctuated$LT$syn..generics..TypeParamBound$C$syn..token..Plus$GT$$GT$17h44083f960cd822d7E', symObjAddr: 0x6E0, symBinAddr: 0xFFDD0, symSize: 0x190 }
  - { offsetInCU: 0x6A2E, offset: 0x5BBC84, size: 0x8, addend: 0x0, symName: '__ZN4core3ptr169drop_in_place$LT$borsh_derive..internals..attributes..field..schema..with_funcs..WITH_FUNCS_FIELD_PARSE_MAP..$u7b$$u7b$closure$u7d$$u7d$..$u7b$$u7b$closure$u7d$$u7d$$GT$17h4a341091fa7bec10E', symObjAddr: 0x870, symBinAddr: 0xFFF60, symSize: 0x10 }
  - { offsetInCU: 0x6B14, offset: 0x5BBD6A, size: 0x8, addend: 0x0, symName: '__ZN4core3ptr34drop_in_place$LT$syn..lit..Lit$GT$17h3e4ef73f9d6504faE', symObjAddr: 0x880, symBinAddr: 0xFFF70, symSize: 0x110 }
  - { offsetInCU: 0x704E, offset: 0x5BC2A4, size: 0x8, addend: 0x0, symName: '__ZN4core3ptr34drop_in_place$LT$syn..pat..Pat$GT$17hf99e10cab020967aE', symObjAddr: 0x990, symBinAddr: 0x100080, symSize: 0xEB0 }
  - { offsetInCU: 0xA940, offset: 0x5BFB96, size: 0x8, addend: 0x0, symName: '__ZN4core3ptr34drop_in_place$LT$syn..ty..Type$GT$17hc9a287e6412cf4a5E', symObjAddr: 0x1840, symBinAddr: 0x100F30, symSize: 0x510 }
  - { offsetInCU: 0xBF9F, offset: 0x5C11F5, size: 0x8, addend: 0x0, symName: '__ZN4core3ptr36drop_in_place$LT$syn..expr..Expr$GT$17hbea3b059aebc6b0dE', symObjAddr: 0x1D50, symBinAddr: 0x101440, symSize: 0x2790 }
  - { offsetInCU: 0x157E5, offset: 0x5CAA3B, size: 0x8, addend: 0x0, symName: '__ZN4core3ptr36drop_in_place$LT$syn..mac..Macro$GT$17haa1481cb4fe5d660E', symObjAddr: 0x44E0, symBinAddr: 0x103BD0, symSize: 0x40 }
  - { offsetInCU: 0x1581F, offset: 0x5CAA75, size: 0x8, addend: 0x0, symName: '__ZN4core3ptr36drop_in_place$LT$syn..path..Path$GT$17hb26ddc646911d9caE', symObjAddr: 0x4520, symBinAddr: 0x103C10, symSize: 0x240 }
  - { offsetInCU: 0x16268, offset: 0x5CB4BE, size: 0x8, addend: 0x0, symName: '__ZN4core3ptr37drop_in_place$LT$syn..path..QSelf$GT$17hf59f2cf7f4703e2eE', symObjAddr: 0x4760, symBinAddr: 0x103E50, symSize: 0x50 }
  - { offsetInCU: 0x163E2, offset: 0x5CB638, size: 0x8, addend: 0x0, symName: '__ZN4core3ptr37drop_in_place$LT$syn..stmt..Block$GT$17h9bb04bc412e892c1E', symObjAddr: 0x47B0, symBinAddr: 0x103EA0, symSize: 0xD0 }
  - { offsetInCU: 0x16686, offset: 0x5CB8DC, size: 0x8, addend: 0x0, symName: '__ZN4core3ptr38drop_in_place$LT$syn..expr..Member$GT$17h54f73fbfaef06080E', symObjAddr: 0x4880, symBinAddr: 0x103F70, symSize: 0x30 }
  - { offsetInCU: 0x16783, offset: 0x5CB9D9, size: 0x8, addend: 0x0, symName: '__ZN4core3ptr39drop_in_place$LT$proc_macro2..Ident$GT$17h9d68045e9dec4a40E', symObjAddr: 0x48B0, symBinAddr: 0x103FA0, symSize: 0x30 }
  - { offsetInCU: 0x16861, offset: 0x5CBAB7, size: 0x8, addend: 0x0, symName: '__ZN4core3ptr40drop_in_place$LT$syn..expr..ExprPath$GT$17h0115980c8ec091a0E', symObjAddr: 0x48E0, symBinAddr: 0x103FD0, symSize: 0x110 }
  - { offsetInCU: 0x16D26, offset: 0x5CBF7C, size: 0x8, addend: 0x0, symName: '__ZN4core3ptr40drop_in_place$LT$syn..ty..ReturnType$GT$17h4a68005bbc507217E', symObjAddr: 0x49F0, symBinAddr: 0x1040E0, symSize: 0x50 }
  - { offsetInCU: 0x16E98, offset: 0x5CC0EE, size: 0x8, addend: 0x0, symName: '__ZN4core3ptr41drop_in_place$LT$syn..expr..ExprConst$GT$17h454a2cb9df850c24E', symObjAddr: 0x4A40, symBinAddr: 0x104130, symSize: 0x180 }
  - { offsetInCU: 0x17421, offset: 0x5CC677, size: 0x8, addend: 0x0, symName: '__ZN4core3ptr44drop_in_place$LT$syn..lifetime..Lifetime$GT$17h9c301554489a697eE', symObjAddr: 0x4BC0, symBinAddr: 0x1042B0, symSize: 0x30 }
  - { offsetInCU: 0x17654, offset: 0x5CC8AA, size: 0x8, addend: 0x0, symName: '__ZN4core3ptr45drop_in_place$LT$proc_macro2..TokenStream$GT$17h86cac592f04212eaE', symObjAddr: 0x4BF0, symBinAddr: 0x1042E0, symSize: 0x140 }
  - { offsetInCU: 0x17AC3, offset: 0x5CCD19, size: 0x8, addend: 0x0, symName: '__ZN4core3ptr45drop_in_place$LT$syn..generics..TypeParam$GT$17he645f7cc80b7ae11E', symObjAddr: 0x4D30, symBinAddr: 0x104420, symSize: 0x230 }
  - { offsetInCU: 0x182F3, offset: 0x5CD549, size: 0x8, addend: 0x0, symName: '__ZN4core3ptr46drop_in_place$LT$syn..generics..ConstParam$GT$17hc19d519d6441178aE', symObjAddr: 0x4F60, symBinAddr: 0x104650, symSize: 0x150 }
  - { offsetInCU: 0x18751, offset: 0x5CD9A7, size: 0x8, addend: 0x0, symName: '__ZN4core3ptr47drop_in_place$LT$syn..path..GenericArgument$GT$17ha7ad17cb38a1a5afE', symObjAddr: 0x50B0, symBinAddr: 0x1047A0, symSize: 0x4A0 }
  - { offsetInCU: 0x197F8, offset: 0x5CEA4E, size: 0x8, addend: 0x0, symName: '__ZN4core3ptr49drop_in_place$LT$syn..generics..LifetimeParam$GT$17h47d9f9e81b35a3dcE', symObjAddr: 0x5550, symBinAddr: 0x104C40, symSize: 0xF0 }
  - { offsetInCU: 0x19BE6, offset: 0x5CEE3C, size: 0x8, addend: 0x0, symName: '__ZN4core3ptr50drop_in_place$LT$syn..generics..TypeParamBound$GT$17h7c1195cdfd37b73cE', symObjAddr: 0x5640, symBinAddr: 0x104D30, symSize: 0x1A0 }
  - { offsetInCU: 0x1A11A, offset: 0x5CF370, size: 0x8, addend: 0x0, symName: '__ZN4core3ptr58drop_in_place$LT$alloc..vec..Vec$LT$syn..expr..Arm$GT$$GT$17ha648d1896dec8b4dE', symObjAddr: 0x57E0, symBinAddr: 0x104ED0, symSize: 0xD0 }
  - { offsetInCU: 0x1A3A7, offset: 0x5CF5FD, size: 0x8, addend: 0x0, symName: '__ZN4core3ptr59drop_in_place$LT$alloc..boxed..Box$LT$syn..pat..Pat$GT$$GT$17hfa860577679c86cbE', symObjAddr: 0x58B0, symBinAddr: 0x104FA0, symSize: 0x50 }
  - { offsetInCU: 0x1A502, offset: 0x5CF758, size: 0x8, addend: 0x0, symName: '__ZN4core3ptr59drop_in_place$LT$alloc..boxed..Box$LT$syn..ty..Type$GT$$GT$17hce35c4b60063cd1fE', symObjAddr: 0x5900, symBinAddr: 0x104FF0, symSize: 0x50 }
  - { offsetInCU: 0x1A65D, offset: 0x5CF8B3, size: 0x8, addend: 0x0, symName: '__ZN4core3ptr61drop_in_place$LT$alloc..boxed..Box$LT$syn..expr..Expr$GT$$GT$17h35b8f1409a9ab85bE', symObjAddr: 0x5950, symBinAddr: 0x105040, symSize: 0x50 }
  - { offsetInCU: 0x1A834, offset: 0x5CFA8A, size: 0x8, addend: 0x0, symName: '__ZN4core3ptr61drop_in_place$LT$syn..path..ParenthesizedGenericArguments$GT$17h6d1a096952b83c04E', symObjAddr: 0x59A0, symBinAddr: 0x105090, symSize: 0x170 }
  - { offsetInCU: 0x1ADFB, offset: 0x5D0051, size: 0x8, addend: 0x0, symName: '__ZN4core3ptr62drop_in_place$LT$syn..path..AngleBracketedGenericArguments$GT$17h1e2e2310287487b5E', symObjAddr: 0x5B10, symBinAddr: 0x105200, symSize: 0x120 }
  - { offsetInCU: 0x1B211, offset: 0x5D0467, size: 0x8, addend: 0x0, symName: '__ZN4core3ptr63drop_in_place$LT$alloc..boxed..Box$LT$syn..lit..LitRepr$GT$$GT$17h4a54b8c5cd42faf5E', symObjAddr: 0x5C30, symBinAddr: 0x105320, symSize: 0x60 }
  - { offsetInCU: 0x1B506, offset: 0x5D075C, size: 0x8, addend: 0x0, symName: '__ZN4core3ptr64drop_in_place$LT$alloc..boxed..Box$LT$syn..pat..FieldPat$GT$$GT$17hf3d389ef82c9f10bE', symObjAddr: 0x5C90, symBinAddr: 0x105380, symSize: 0x140 }
  - { offsetInCU: 0x1BBE5, offset: 0x5D0E3B, size: 0x8, addend: 0x0, symName: '__ZN4core3ptr64drop_in_place$LT$alloc..boxed..Box$LT$syn..ty..BareFnArg$GT$$GT$17hc862ec57eebf1a54E', symObjAddr: 0x5DD0, symBinAddr: 0x1054C0, symSize: 0x140 }
  - { offsetInCU: 0x1C13D, offset: 0x5D1393, size: 0x8, addend: 0x0, symName: '__ZN4core3ptr65drop_in_place$LT$core..option..Option$LT$syn..expr..Label$GT$$GT$17hfc626d17a1d0054dE', symObjAddr: 0x5F10, symBinAddr: 0x105600, symSize: 0x30 }
  - { offsetInCU: 0x1C278, offset: 0x5D14CE, size: 0x8, addend: 0x0, symName: '__ZN4core3ptr65drop_in_place$LT$core..option..Option$LT$syn..path..QSelf$GT$$GT$17h31a3e5c39e677989E', symObjAddr: 0x5F40, symBinAddr: 0x105630, symSize: 0x50 }
  - { offsetInCU: 0x1C411, offset: 0x5D1667, size: 0x8, addend: 0x0, symName: '__ZN4core3ptr66drop_in_place$LT$core..option..Option$LT$syn..pat..PatRest$GT$$GT$17hba8f4d9198c0dabcE', symObjAddr: 0x5F90, symBinAddr: 0x105680, symSize: 0xE0 }
  - { offsetInCU: 0x1C6C9, offset: 0x5D191F, size: 0x8, addend: 0x0, symName: '__ZN4core3ptr67drop_in_place$LT$alloc..boxed..Box$LT$syn..expr..FieldValue$GT$$GT$17h1fe00f656b5bc41eE', symObjAddr: 0x6070, symBinAddr: 0x105760, symSize: 0x140 }
  - { offsetInCU: 0x1CC01, offset: 0x5D1E57, size: 0x8, addend: 0x0, symName: '__ZN4core3ptr68drop_in_place$LT$alloc..boxed..Box$LT$syn..path..PathSegment$GT$$GT$17hdf3e53c9442c6d12E', symObjAddr: 0x61B0, symBinAddr: 0x1058A0, symSize: 0x190 }
  - { offsetInCU: 0x1D2DF, offset: 0x5D2535, size: 0x8, addend: 0x0, symName: '__ZN4core3ptr70drop_in_place$LT$core..option..Option$LT$syn..ty..BareVariadic$GT$$GT$17hf6aaee8d5112d370E', symObjAddr: 0x6340, symBinAddr: 0x105A30, symSize: 0x120 }
  - { offsetInCU: 0x1D840, offset: 0x5D2A96, size: 0x8, addend: 0x0, symName: '__ZN4core3ptr72drop_in_place$LT$alloc..boxed..Box$LT$syn..path..GenericArgument$GT$$GT$17hc3f5a13c594d53a1E', symObjAddr: 0x6460, symBinAddr: 0x105B50, symSize: 0x1D0 }
  - { offsetInCU: 0x1DDE3, offset: 0x5D3039, size: 0x8, addend: 0x0, symName: '__ZN4core3ptr72drop_in_place$LT$core..option..Option$LT$syn..lifetime..Lifetime$GT$$GT$17hf02c2376eaf0703fE', symObjAddr: 0x6630, symBinAddr: 0x105D20, symSize: 0x30 }
  - { offsetInCU: 0x1DEFF, offset: 0x5D3155, size: 0x8, addend: 0x0, symName: '__ZN4core3ptr73drop_in_place$LT$alloc..boxed..Box$LT$syn..generics..GenericParam$GT$$GT$17hbb1f35d2f323630eE', symObjAddr: 0x6660, symBinAddr: 0x105D50, symSize: 0x80 }
  - { offsetInCU: 0x1E077, offset: 0x5D32CD, size: 0x8, addend: 0x0, symName: '__ZN4core3ptr75drop_in_place$LT$alloc..boxed..Box$LT$syn..generics..TypeParamBound$GT$$GT$17h06d020fd356eb6c8E', symObjAddr: 0x66E0, symBinAddr: 0x105DD0, symSize: 0xB0 }
  - { offsetInCU: 0x1E3D2, offset: 0x5D3628, size: 0x8, addend: 0x0, symName: '__ZN4core3ptr86drop_in_place$LT$syn..punctuated..Punctuated$LT$syn..pat..Pat$C$syn..token..Or$GT$$GT$17h1c252cd869cc7fe5E', symObjAddr: 0x6790, symBinAddr: 0x105E80, symSize: 0x120 }
  - { offsetInCU: 0x1E818, offset: 0x5D3A6E, size: 0x8, addend: 0x0, symName: '__ZN4core3ptr87drop_in_place$LT$core..option..Option$LT$alloc..boxed..Box$LT$syn..pat..Pat$GT$$GT$$GT$17h72bab185bf1bb06eE', symObjAddr: 0x68B0, symBinAddr: 0x105FA0, symSize: 0x50 }
  - { offsetInCU: 0x1E98A, offset: 0x5D3BE0, size: 0x8, addend: 0x0, symName: '__ZN4core3ptr87drop_in_place$LT$core..option..Option$LT$alloc..boxed..Box$LT$syn..ty..Type$GT$$GT$$GT$17hc260fbb8309ec29fE', symObjAddr: 0x6900, symBinAddr: 0x105FF0, symSize: 0x50 }
  - { offsetInCU: 0x1EAFC, offset: 0x5D3D52, size: 0x8, addend: 0x0, symName: '__ZN4core3ptr89drop_in_place$LT$core..option..Option$LT$alloc..boxed..Box$LT$syn..expr..Expr$GT$$GT$$GT$17h189e15babfcbbcfaE', symObjAddr: 0x6950, symBinAddr: 0x106040, symSize: 0x50 }
  - { offsetInCU: 0x1ECAC, offset: 0x5D3F02, size: 0x8, addend: 0x0, symName: '__ZN4core3ptr89drop_in_place$LT$syn..punctuated..Punctuated$LT$syn..pat..Pat$C$syn..token..Comma$GT$$GT$17ha82f9ca12786bd54E', symObjAddr: 0x69A0, symBinAddr: 0x106090, symSize: 0x120 }
  - { offsetInCU: 0x1F109, offset: 0x5D435F, size: 0x8, addend: 0x0, symName: '__ZN4core3ptr89drop_in_place$LT$syn..punctuated..Punctuated$LT$syn..ty..Type$C$syn..token..Comma$GT$$GT$17h6c76e390e4497862E', symObjAddr: 0x6AC0, symBinAddr: 0x1061B0, symSize: 0x120 }
  - { offsetInCU: 0x1F553, offset: 0x5D47A9, size: 0x8, addend: 0x0, symName: '__ZN4core3ptr90drop_in_place$LT$core..option..Option$LT$syn..path..AngleBracketedGenericArguments$GT$$GT$17h488f4ff126d02fb4E', symObjAddr: 0x6BE0, symBinAddr: 0x1062D0, symSize: 0x130 }
  - { offsetInCU: 0x1F9BE, offset: 0x5D4C14, size: 0x8, addend: 0x0, symName: '__ZN4core3ptr91drop_in_place$LT$syn..punctuated..Punctuated$LT$syn..expr..Expr$C$syn..token..Comma$GT$$GT$17h5d174cfb4564e731E', symObjAddr: 0x6D10, symBinAddr: 0x106400, symSize: 0x120 }
  - { offsetInCU: 0x1FE1B, offset: 0x5D5071, size: 0x8, addend: 0x0, symName: '__ZN4core3ptr94drop_in_place$LT$syn..punctuated..Punctuated$LT$syn..pat..FieldPat$C$syn..token..Comma$GT$$GT$17h57ec84468c025663E', symObjAddr: 0x6E30, symBinAddr: 0x106520, symSize: 0xF0 }
  - { offsetInCU: 0x200E5, offset: 0x5D533B, size: 0x8, addend: 0x0, symName: '__ZN4core3ptr94drop_in_place$LT$syn..punctuated..Punctuated$LT$syn..ty..BareFnArg$C$syn..token..Comma$GT$$GT$17h93a6df93f58cf1c2E', symObjAddr: 0x6F20, symBinAddr: 0x106610, symSize: 0xF0 }
  - { offsetInCU: 0x203AF, offset: 0x5D5605, size: 0x8, addend: 0x0, symName: '__ZN4core3ptr96drop_in_place$LT$core..option..Option$LT$alloc..boxed..Box$LT$syn..path..PathSegment$GT$$GT$$GT$17hfffb4eb6744ee164E', symObjAddr: 0x7010, symBinAddr: 0x106700, symSize: 0x90 }
  - { offsetInCU: 0x20631, offset: 0x5D5887, size: 0x8, addend: 0x0, symName: '__ZN4core3ptr97drop_in_place$LT$syn..punctuated..Punctuated$LT$syn..expr..FieldValue$C$syn..token..Comma$GT$$GT$17hd35fb722be03e3d1E', symObjAddr: 0x70A0, symBinAddr: 0x106790, symSize: 0xF0 }
  - { offsetInCU: 0x208FB, offset: 0x5D5B51, size: 0x8, addend: 0x0, symName: '__ZN4core3ptr98drop_in_place$LT$alloc..vec..Vec$LT$$LP$syn..path..GenericArgument$C$syn..token..Comma$RP$$GT$$GT$17h4fdb1af8625fb77aE', symObjAddr: 0x7190, symBinAddr: 0x106880, symSize: 0xD0 }
  - { offsetInCU: 0x20C04, offset: 0x5D5E5A, size: 0x8, addend: 0x0, symName: '__ZN4core3ptr98drop_in_place$LT$syn..punctuated..Punctuated$LT$syn..lifetime..Lifetime$C$syn..token..Plus$GT$$GT$17h0f92166c8c801efbE', symObjAddr: 0x7260, symBinAddr: 0x106950, symSize: 0xC0 }
  - { offsetInCU: 0x21C37, offset: 0x5D6E8D, size: 0x8, addend: 0x0, symName: '__ZN4core3ops8function6FnOnce40call_once$u7b$$u7b$vtable.shim$u7d$$u7d$17h4a94733224508b41E', symObjAddr: 0x0, symBinAddr: 0xFF6F0, symSize: 0xC0 }
  - { offsetInCU: 0x21D19, offset: 0x5D6F6F, size: 0x8, addend: 0x0, symName: '__ZN4core3ops8function6FnOnce40call_once$u7b$$u7b$vtable.shim$u7d$$u7d$17ha984904307eafbd1E', symObjAddr: 0xC0, symBinAddr: 0xFF7B0, symSize: 0xC0 }
  - { offsetInCU: 0x21DCA, offset: 0x5D7020, size: 0x8, addend: 0x0, symName: __ZN4core3ops8function6FnOnce9call_once17h17b2f24b059c245dE, symObjAddr: 0x180, symBinAddr: 0xFF870, symSize: 0x150 }
  - { offsetInCU: 0x1E, offset: 0x5E0068, size: 0x8, addend: 0x0, symName: '__ZN4core3ptr100drop_in_place$LT$core..option..Option$LT$alloc..boxed..Box$LT$syn..path..GenericArgument$GT$$GT$$GT$17h513ef87717aedfddE', symObjAddr: 0x0, symBinAddr: 0x106EE0, symSize: 0x50 }
  - { offsetInCU: 0x16B2, offset: 0x5E16FC, size: 0x8, addend: 0x0, symName: '__ZN4core3ptr100drop_in_place$LT$core..option..Option$LT$alloc..boxed..Box$LT$syn..path..GenericArgument$GT$$GT$$GT$17h513ef87717aedfddE', symObjAddr: 0x0, symBinAddr: 0x106EE0, symSize: 0x50 }
  - { offsetInCU: 0x1881, offset: 0x5E18CB, size: 0x8, addend: 0x0, symName: '__ZN4core3ptr102drop_in_place$LT$syn..punctuated..Punctuated$LT$syn..path..GenericArgument$C$syn..token..Comma$GT$$GT$17ha5e403e03e446464E', symObjAddr: 0x50, symBinAddr: 0x106F30, symSize: 0xF0 }
  - { offsetInCU: 0x1B6A, offset: 0x5E1BB4, size: 0x8, addend: 0x0, symName: '__ZN4core3ptr103drop_in_place$LT$core..option..Option$LT$alloc..boxed..Box$LT$syn..generics..TypeParamBound$GT$$GT$$GT$17h0d79b9ffb4171f90E', symObjAddr: 0x140, symBinAddr: 0x107020, symSize: 0x50 }
