---
triple:          'x86_64-apple-darwin'
binary-path:     "/Users/justinlanouette/Chaos/ChaöS-Token/hello_world/target/release/deps/libproc_macro_error_attr-69eb3e6a65aca263.dylib"
relocations:
  - { offsetInCU: 0x1E, offset: 0x1E, size: 0x8, addend: 0x0, symName: __ZN5alloc7raw_vec11finish_grow17h5aa43b11e8d78647E.llvm.1824048315127693010, symObjAddr: 0x0, symBinAddr: 0x34E0, symSize: 0xA0 }
  - { offsetInCU: 0x1B57, offset: 0x1B57, size: 0x8, addend: 0x0, symName: __ZN5alloc7raw_vec11finish_grow17h5aa43b11e8d78647E.llvm.1824048315127693010, symObjAddr: 0x0, symBinAddr: 0x34E0, symSize: 0xA0 }
  - { offsetInCU: 0x1EA4, offset: 0x1EA4, size: 0x8, addend: 0x0, symName: '__ZN5alloc7raw_vec19RawVec$LT$T$C$A$GT$7reserve21do_reserve_and_handle17h62076d37a3001026E', symObjAddr: 0x200, symBinAddr: 0x579E0, symSize: 0xA0 }
  - { offsetInCU: 0x2C98, offset: 0x2C98, size: 0x8, addend: 0x0, symName: '__ZN5alloc7raw_vec19RawVec$LT$T$C$A$GT$8grow_one17h0f618794a4194b51E', symObjAddr: 0x360, symBinAddr: 0x3580, symSize: 0x0 }
  - { offsetInCU: 0x3194, offset: 0x3194, size: 0x8, addend: 0x0, symName: '__ZN5alloc7raw_vec19RawVec$LT$T$C$A$GT$8grow_one17h3745f113c7c00fe3E', symObjAddr: 0x400, symBinAddr: 0x3620, symSize: 0xB0 }
  - { offsetInCU: 0x3660, offset: 0x3660, size: 0x8, addend: 0x0, symName: '__ZN5alloc7raw_vec19RawVec$LT$T$C$A$GT$8grow_one17h87c10ac257fcf271E', symObjAddr: 0x4B0, symBinAddr: 0x36D0, symSize: 0xB0 }
  - { offsetInCU: 0x1E, offset: 0x39CA, size: 0x8, addend: 0x0, symName: '__ZN4core3ptr42drop_in_place$LT$alloc..string..String$GT$17hf74a246ddb510df7E', symObjAddr: 0x0, symBinAddr: 0x3780, symSize: 0x20 }
  - { offsetInCU: 0xBE, offset: 0x3A6A, size: 0x8, addend: 0x0, symName: '__ZN58_$LT$alloc..string..String$u20$as$u20$core..fmt..Write$GT$10write_char17h04bc467bd68a934bE', symObjAddr: 0x1A0, symBinAddr: 0x3920, symSize: 0x140 }
  - { offsetInCU: 0x4C3, offset: 0x3E6F, size: 0x8, addend: 0x0, symName: '__ZN58_$LT$alloc..string..String$u20$as$u20$core..fmt..Write$GT$9write_str17h46a93205c3443fbaE', symObjAddr: 0x2E0, symBinAddr: 0x3A60, symSize: 0x60 }
  - { offsetInCU: 0x74C, offset: 0x40F8, size: 0x8, addend: 0x0, symName: '__ZN60_$LT$alloc..string..String$u20$as$u20$core..fmt..Display$GT$3fmt17h0d0eb46f3054e2dfE', symObjAddr: 0x340, symBinAddr: 0x3AC0, symSize: 0x20 }
  - { offsetInCU: 0x1987, offset: 0x5333, size: 0x8, addend: 0x0, symName: '__ZN4core3ptr42drop_in_place$LT$alloc..string..String$GT$17hf74a246ddb510df7E', symObjAddr: 0x0, symBinAddr: 0x3780, symSize: 0x20 }
  - { offsetInCU: 0x1CBD, offset: 0x5669, size: 0x8, addend: 0x0, symName: '__ZN4core3ptr43drop_in_place$LT$proc_macro2..TokenTree$GT$17h8ab417695842f4c1E', symObjAddr: 0x20, symBinAddr: 0x37A0, symSize: 0xB0 }
  - { offsetInCU: 0x20B3, offset: 0x5A5F, size: 0x8, addend: 0x0, symName: '__ZN4core3ptr56drop_in_place$LT$proc_macro2..token_stream..IntoIter$GT$17h490a464e10e1907eE', symObjAddr: 0xD0, symBinAddr: 0x3850, symSize: 0x20 }
  - { offsetInCU: 0x2182, offset: 0x5B2E, size: 0x8, addend: 0x0, symName: '__ZN4core3ptr65drop_in_place$LT$alloc..vec..Vec$LT$alloc..string..String$GT$$GT$17h29bfed4d08ffe9daE', symObjAddr: 0xF0, symBinAddr: 0x3870, symSize: 0x90 }
  - { offsetInCU: 0x2821, offset: 0x61CD, size: 0x8, addend: 0x0, symName: '__ZN53_$LT$core..fmt..Error$u20$as$u20$core..fmt..Debug$GT$3fmt17h03dc662ab152f3aeE', symObjAddr: 0x180, symBinAddr: 0x3900, symSize: 0x20 }
  - { offsetInCU: 0x4134, offset: 0x7AE0, size: 0x8, addend: 0x0, symName: __ZN21proc_macro_error_attr8settings14parse_settings17he4ef683c2616e4bfE, symObjAddr: 0x360, symBinAddr: 0x3AE0, symSize: 0x930 }
  - { offsetInCU: 0x1E, offset: 0xAD93, size: 0x8, addend: 0x0, symName: __ZN5alloc3str17join_generic_copy17hc3668f70217fcbd0E, symObjAddr: 0x0, symBinAddr: 0x4410, symSize: 0x468 }
  - { offsetInCU: 0x18F5, offset: 0xC66A, size: 0x8, addend: 0x0, symName: __ZN5alloc3str17join_generic_copy17hc3668f70217fcbd0E, symObjAddr: 0x0, symBinAddr: 0x4410, symSize: 0x468 }
  - { offsetInCU: 0x1E, offset: 0xEF2E, size: 0x8, addend: 0x0, symName: '__ZN4core3ptr104drop_in_place$LT$core..iter..adapters..peekable..Peekable$LT$proc_macro2..token_stream..IntoIter$GT$$GT$17h82ad64ec2ff42d8dE', symObjAddr: 0x0, symBinAddr: 0x4880, symSize: 0x70 }
  - { offsetInCU: 0x122C, offset: 0x1013C, size: 0x8, addend: 0x0, symName: '__ZN4core3ptr104drop_in_place$LT$core..iter..adapters..peekable..Peekable$LT$proc_macro2..token_stream..IntoIter$GT$$GT$17h82ad64ec2ff42d8dE', symObjAddr: 0x0, symBinAddr: 0x4880, symSize: 0x70 }
  - { offsetInCU: 0x146E, offset: 0x1037E, size: 0x8, addend: 0x0, symName: '__ZN4core3ptr39drop_in_place$LT$proc_macro2..Group$GT$17h487c6379963c7e05E', symObjAddr: 0x70, symBinAddr: 0x48F0, symSize: 0x60 }
  - { offsetInCU: 0x170F, offset: 0x1061F, size: 0x8, addend: 0x0, symName: '__ZN4core3ptr43drop_in_place$LT$proc_macro2..TokenTree$GT$17h8ab417695842f4c1E', symObjAddr: 0xD0, symBinAddr: 0x4950, symSize: 0xB0 }
  - { offsetInCU: 0x1A6A, offset: 0x1097A, size: 0x8, addend: 0x0, symName: '__ZN4core3ptr56drop_in_place$LT$proc_macro2..token_stream..IntoIter$GT$17h490a464e10e1907eE', symObjAddr: 0x180, symBinAddr: 0x4A00, symSize: 0x20 }
  - { offsetInCU: 0x1B39, offset: 0x10A49, size: 0x8, addend: 0x0, symName: '__ZN4core3ptr60drop_in_place$LT$proc_macro_error_attr..parse..Attribute$GT$17hc1eb56086034494eE', symObjAddr: 0x1A0, symBinAddr: 0x4A20, symSize: 0x70 }
  - { offsetInCU: 0x1C86, offset: 0x10B96, size: 0x8, addend: 0x0, symName: '__ZN4core3ptr66drop_in_place$LT$alloc..vec..Vec$LT$proc_macro2..TokenTree$GT$$GT$17h514251e48ea275b8E', symObjAddr: 0x210, symBinAddr: 0x4A90, symSize: 0xC0 }
  - { offsetInCU: 0x1F44, offset: 0x10E54, size: 0x8, addend: 0x0, symName: '__ZN4core3ptr67drop_in_place$LT$core..option..Option$LT$proc_macro2..Ident$GT$$GT$17hdb9da3e2c6c50076E', symObjAddr: 0x2D0, symBinAddr: 0x4B50, symSize: 0x30 }
  - { offsetInCU: 0x205F, offset: 0x10F6F, size: 0x8, addend: 0x0, symName: '__ZN4core3ptr83drop_in_place$LT$alloc..vec..Vec$LT$proc_macro_error_attr..parse..Attribute$GT$$GT$17had071bb14c2152aeE', symObjAddr: 0x300, symBinAddr: 0x4B80, symSize: 0x60 }
  - { offsetInCU: 0x4155, offset: 0x13065, size: 0x8, addend: 0x0, symName: __ZN21proc_macro_error_attr5parse11parse_input17hbfb16dd08e461273E, symObjAddr: 0x360, symBinAddr: 0x4BE0, symSize: 0xB50 }
  - { offsetInCU: 0x1E, offset: 0x15E24, size: 0x8, addend: 0x0, symName: __ZN10proc_macro6bridge6client14HandleCounters3get17h2c76d49220b98e92E, symObjAddr: 0x0, symBinAddr: 0x5730, symSize: 0x10 }
  - { offsetInCU: 0x40, offset: 0x15E46, size: 0x8, addend: 0x0, symName: ___rustc_proc_macro_decls_94caa440681f6fc4__, symObjAddr: 0x1A10, symBinAddr: 0x682F0, symSize: 0x0 }
  - { offsetInCU: 0xED, offset: 0x15EF3, size: 0x8, addend: 0x0, symName: __ZN21proc_macro_error_attr16proc_macro_error17h0509cfcf666d4f26E, symObjAddr: 0x430, symBinAddr: 0x5B60, symSize: 0x360 }
  - { offsetInCU: 0x9C9, offset: 0x167CF, size: 0x8, addend: 0x0, symName: __ZN21proc_macro_error_attr21impl_proc_macro_error17h425d863a34821e72E, symObjAddr: 0x790, symBinAddr: 0x5EC0, symSize: 0xE97 }
  - { offsetInCU: 0x49DB, offset: 0x1A7E1, size: 0x8, addend: 0x0, symName: '__ZN4core3ptr43drop_in_place$LT$proc_macro2..TokenTree$GT$17h8ab417695842f4c1E', symObjAddr: 0x10, symBinAddr: 0x5740, symSize: 0xB0 }
  - { offsetInCU: 0x4DD1, offset: 0x1ABD7, size: 0x8, addend: 0x0, symName: '__ZN4core3ptr45drop_in_place$LT$proc_macro2..TokenStream$GT$17hcdce329a04cfd9adE', symObjAddr: 0xC0, symBinAddr: 0x57F0, symSize: 0x140 }
  - { offsetInCU: 0x522D, offset: 0x1B033, size: 0x8, addend: 0x0, symName: '__ZN4core3ptr65drop_in_place$LT$alloc..vec..Vec$LT$proc_macro..TokenTree$GT$$GT$17hd5c2675759144211E', symObjAddr: 0x200, symBinAddr: 0x5930, symSize: 0x110 }
  - { offsetInCU: 0x5644, offset: 0x1B44A, size: 0x8, addend: 0x0, symName: '__ZN4core3ptr66drop_in_place$LT$alloc..vec..Vec$LT$proc_macro2..TokenTree$GT$$GT$17h514251e48ea275b8E', symObjAddr: 0x310, symBinAddr: 0x5A40, symSize: 0xC0 }
  - { offsetInCU: 0x5921, offset: 0x1B727, size: 0x8, addend: 0x0, symName: '__ZN4core3ptr83drop_in_place$LT$alloc..vec..Vec$LT$proc_macro_error_attr..parse..Attribute$GT$$GT$17had071bb14c2152aeE', symObjAddr: 0x3D0, symBinAddr: 0x5B00, symSize: 0x60 }
  - { offsetInCU: 0x69E0, offset: 0x1C7E6, size: 0x8, addend: 0x0, symName: __ZN10proc_macro6bridge6client14HandleCounters3get17h2c76d49220b98e92E, symObjAddr: 0x0, symBinAddr: 0x5730, symSize: 0x10 }
  - { offsetInCU: 0x7AF, offset: 0x1F72F, size: 0x8, addend: 0x0, symName: '__ZN68_$LT$$RF$str$u20$as$u20$proc_macro..bridge..rpc..Encode$LT$S$GT$$GT$6encode17h517d5d0d4ee1f6faE', symObjAddr: 0x80, symBinAddr: 0x6D60, symSize: 0x230 }
  - { offsetInCU: 0x1E, offset: 0x1FD89, size: 0x8, addend: 0x0, symName: __ZN4core3fmt5Write9write_fmt17hae7051692a92e282E, symObjAddr: 0x0, symBinAddr: 0x6F90, symSize: 0x20 }
  - { offsetInCU: 0x98, offset: 0x1FE03, size: 0x8, addend: 0x0, symName: '__ZN58_$LT$alloc..string..String$u20$as$u20$core..fmt..Write$GT$10write_char17h04bc467bd68a934bE', symObjAddr: 0x40, symBinAddr: 0x6FD0, symSize: 0x140 }
  - { offsetInCU: 0x49D, offset: 0x20208, size: 0x8, addend: 0x0, symName: '__ZN58_$LT$alloc..string..String$u20$as$u20$core..fmt..Write$GT$9write_str17h46a93205c3443fbaE', symObjAddr: 0x180, symBinAddr: 0x7110, symSize: 0x5B }
  - { offsetInCU: 0xAC1, offset: 0x2082C, size: 0x8, addend: 0x0, symName: '__ZN4core3ptr42drop_in_place$LT$alloc..string..String$GT$17hf74a246ddb510df7E', symObjAddr: 0x20, symBinAddr: 0x6FB0, symSize: 0x20 }
  - { offsetInCU: 0xE54, offset: 0x20BBF, size: 0x8, addend: 0x0, symName: __ZN4core3fmt5Write9write_fmt17hae7051692a92e282E, symObjAddr: 0x0, symBinAddr: 0x6F90, symSize: 0x20 }
  - { offsetInCU: 0x1E, offset: 0x21673, size: 0x8, addend: 0x0, symName: '__ZN4core3ptr43drop_in_place$LT$proc_macro2..TokenTree$GT$17h8ab417695842f4c1E.llvm.5135674917196084972', symObjAddr: 0x0, symBinAddr: 0x7170, symSize: 0x180 }
  - { offsetInCU: 0x77D, offset: 0x21DD2, size: 0x8, addend: 0x0, symName: '__ZN4core3ptr43drop_in_place$LT$proc_macro2..TokenTree$GT$17h8ab417695842f4c1E.llvm.5135674917196084972', symObjAddr: 0x0, symBinAddr: 0x7170, symSize: 0x180 }
  - { offsetInCU: 0xFE2, offset: 0x22637, size: 0x8, addend: 0x0, symName: '__ZN4core3ptr60drop_in_place$LT$proc_macro_error_attr..parse..Attribute$GT$17hc1eb56086034494eE.llvm.5135674917196084972', symObjAddr: 0x180, symBinAddr: 0x72F0, symSize: 0x70 }
  - { offsetInCU: 0x113B, offset: 0x22790, size: 0x8, addend: 0x0, symName: '__ZN4core3ptr65drop_in_place$LT$alloc..vec..Vec$LT$alloc..string..String$GT$$GT$17h29bfed4d08ffe9daE.llvm.5135674917196084972', symObjAddr: 0x1F0, symBinAddr: 0x7360, symSize: 0x90 }
  - { offsetInCU: 0x13CF, offset: 0x22A24, size: 0x8, addend: 0x0, symName: '__ZN4core3ptr67drop_in_place$LT$core..option..Option$LT$proc_macro2..Ident$GT$$GT$17hdb9da3e2c6c50076E.llvm.5135674917196084972', symObjAddr: 0x280, symBinAddr: 0x73F0, symSize: 0x30 }
  - { offsetInCU: 0x24A0, offset: 0x23AF5, size: 0x8, addend: 0x0, symName: '__ZN70_$LT$alloc..vec..Vec$LT$T$C$A$GT$$u20$as$u20$core..ops..drop..Drop$GT$4drop17h30e97596a9869272E', symObjAddr: 0x300, symBinAddr: 0x7420, symSize: 0xC0 }
  - { offsetInCU: 0x276D, offset: 0x23DC2, size: 0x8, addend: 0x0, symName: '__ZN98_$LT$alloc..vec..Vec$LT$T$GT$$u20$as$u20$alloc..vec..spec_from_iter..SpecFromIter$LT$T$C$I$GT$$GT$9from_iter17h0ba518116a187d2dE', symObjAddr: 0x500, symBinAddr: 0x74E0, symSize: 0x17E }
  - { offsetInCU: 0x1E, offset: 0x25A53, size: 0x8, addend: 0x0, symName: '__ZN4core3ptr43drop_in_place$LT$proc_macro2..TokenTree$GT$17h8ab417695842f4c1E.llvm.11064363617509750320', symObjAddr: 0x0, symBinAddr: 0x7660, symSize: 0xB0 }
  - { offsetInCU: 0xF36, offset: 0x2696B, size: 0x8, addend: 0x0, symName: '__ZN4core3ptr43drop_in_place$LT$proc_macro2..TokenTree$GT$17h8ab417695842f4c1E.llvm.11064363617509750320', symObjAddr: 0x0, symBinAddr: 0x7660, symSize: 0xB0 }
  - { offsetInCU: 0x1BF6, offset: 0x2762B, size: 0x8, addend: 0x0, symName: '__ZN86_$LT$alloc..vec..into_iter..IntoIter$LT$T$C$A$GT$$u20$as$u20$core..ops..drop..Drop$GT$4drop17h2c9d6800f17e209fE', symObjAddr: 0xB0, symBinAddr: 0x7710, symSize: 0x110 }
  - { offsetInCU: 0x1FEC, offset: 0x27A21, size: 0x8, addend: 0x0, symName: '__ZN86_$LT$alloc..vec..into_iter..IntoIter$LT$T$C$A$GT$$u20$as$u20$core..ops..drop..Drop$GT$4drop17h59ef40e8ea1dabe3E', symObjAddr: 0x1C0, symBinAddr: 0x7820, symSize: 0xCD }
  - { offsetInCU: 0x169, offset: 0x287D4, size: 0x8, addend: 0x0, symName: '__ZN77_$LT$$LP$A$C$B$RP$$u20$as$u20$proc_macro..bridge..rpc..DecodeMut$LT$S$GT$$GT$6decode17hadbeacf6734fbfe8E', symObjAddr: 0x420, symBinAddr: 0x7BD0, symSize: 0xB0 }
  - { offsetInCU: 0x8D2, offset: 0x28F3D, size: 0x8, addend: 0x0, symName: __ZN10proc_macro6bridge6client10run_client17h4f265d693d885859E, symObjAddr: 0x140, symBinAddr: 0x78F0, symSize: 0x2E0 }
  - { offsetInCU: 0x1E, offset: 0x2ACD9, size: 0x8, addend: 0x0, symName: '__ZN68_$LT$alloc..rc..Rc$LT$T$C$A$GT$$u20$as$u20$core..ops..drop..Drop$GT$4drop17h7f24a0eae866fad6E', symObjAddr: 0x0, symBinAddr: 0x7C80, symSize: 0xDE }
  - { offsetInCU: 0xF41, offset: 0x2BBFC, size: 0x8, addend: 0x0, symName: '__ZN68_$LT$alloc..rc..Rc$LT$T$C$A$GT$$u20$as$u20$core..ops..drop..Drop$GT$4drop17h7f24a0eae866fad6E', symObjAddr: 0x0, symBinAddr: 0x7C80, symSize: 0xDE }
  - { offsetInCU: 0x1E, offset: 0x2C831, size: 0x8, addend: 0x0, symName: '__ZN10proc_macro6bridge104_$LT$impl$u20$proc_macro..bridge..rpc..Encode$LT$S$GT$$u20$for$u20$core..result..Result$LT$T$C$E$GT$$GT$6encode17h1415dfb39bfffb5fE', symObjAddr: 0x0, symBinAddr: 0x7D60, symSize: 0x300 }
  - { offsetInCU: 0x148, offset: 0x2C95B, size: 0x8, addend: 0x0, symName: '__ZN10proc_macro6bridge104_$LT$impl$u20$proc_macro..bridge..rpc..Encode$LT$S$GT$$u20$for$u20$core..result..Result$LT$T$C$E$GT$$GT$6encode17h1415dfb39bfffb5fE', symObjAddr: 0x0, symBinAddr: 0x7D60, symSize: 0x300 }
  - { offsetInCU: 0x5E4, offset: 0x2CDF7, size: 0x8, addend: 0x0, symName: '__ZN10proc_macro6bridge104_$LT$impl$u20$proc_macro..bridge..rpc..Encode$LT$S$GT$$u20$for$u20$core..result..Result$LT$T$C$E$GT$$GT$6encode17hbea2d74109df4650E', symObjAddr: 0x300, symBinAddr: 0x8060, symSize: 0x280 }
  - { offsetInCU: 0x1E, offset: 0x2DAB2, size: 0x8, addend: 0x0, symName: '__ZN10proc_macro6bridge100_$LT$impl$u20$proc_macro..bridge..rpc..Encode$LT$S$GT$$u20$for$u20$core..option..Option$LT$T$GT$$GT$6encode17h3f95d319dc007baaE', symObjAddr: 0x0, symBinAddr: 0x82E0, symSize: 0x240 }
  - { offsetInCU: 0x352, offset: 0x2DDE6, size: 0x8, addend: 0x0, symName: '__ZN10proc_macro6bridge100_$LT$impl$u20$proc_macro..bridge..rpc..Encode$LT$S$GT$$u20$for$u20$core..option..Option$LT$T$GT$$GT$6encode17h3f95d319dc007baaE', symObjAddr: 0x0, symBinAddr: 0x82E0, symSize: 0x240 }
  - { offsetInCU: 0x6D4, offset: 0x2E168, size: 0x8, addend: 0x0, symName: '__ZN10proc_macro6bridge100_$LT$impl$u20$proc_macro..bridge..rpc..Encode$LT$S$GT$$u20$for$u20$core..option..Option$LT$T$GT$$GT$6encode17had2c3933beaff98dE', symObjAddr: 0x240, symBinAddr: 0x8520, symSize: 0x345 }
  - { offsetInCU: 0x1E, offset: 0x2EB7A, size: 0x8, addend: 0x0, symName: '__ZN44_$LT$$RF$T$u20$as$u20$core..fmt..Display$GT$3fmt17h9ba5cc36dc7210a6E', symObjAddr: 0x0, symBinAddr: 0x8870, symSize: 0x17 }
  - { offsetInCU: 0x97, offset: 0x2EBF3, size: 0x8, addend: 0x0, symName: '__ZN44_$LT$$RF$T$u20$as$u20$core..fmt..Display$GT$3fmt17h9ba5cc36dc7210a6E', symObjAddr: 0x0, symBinAddr: 0x8870, symSize: 0x17 }
  - { offsetInCU: 0x1E, offset: 0x2EE87, size: 0x8, addend: 0x0, symName: __ZN10proc_macro6bridge14selfless_reify31reify_to_extern_c_fn_hrt_bridge7wrapper17hd9d497fdc85fd666E, symObjAddr: 0x0, symBinAddr: 0x8890, symSize: 0x25 }
  - { offsetInCU: 0x189, offset: 0x2EFF2, size: 0x8, addend: 0x0, symName: __ZN10proc_macro6bridge14selfless_reify31reify_to_extern_c_fn_hrt_bridge7wrapper17hd9d497fdc85fd666E, symObjAddr: 0x0, symBinAddr: 0x8890, symSize: 0x25 }
  - { offsetInCU: 0x1E, offset: 0x2F24C, size: 0x8, addend: 0x0, symName: '__ZN77_$LT$$LP$A$C$B$RP$$u20$as$u20$proc_macro..bridge..rpc..DecodeMut$LT$S$GT$$GT$6decode17h0ebd1486a9d5e816E', symObjAddr: 0x0, symBinAddr: 0x88C0, symSize: 0xCE }
  - { offsetInCU: 0xDB, offset: 0x2F309, size: 0x8, addend: 0x0, symName: '__ZN77_$LT$$LP$A$C$B$RP$$u20$as$u20$proc_macro..bridge..rpc..DecodeMut$LT$S$GT$$GT$6decode17h0ebd1486a9d5e816E', symObjAddr: 0x0, symBinAddr: 0x88C0, symSize: 0xCE }
  - { offsetInCU: 0x1E, offset: 0x3030D, size: 0x8, addend: 0x0, symName: '__ZN48_$LT$T$u20$as$u20$core..clone..CloneToUninit$GT$15clone_to_uninit17hbf6f08fcb67a3c0eE', symObjAddr: 0x0, symBinAddr: 0x89D0, symSize: 0x330 }
  - { offsetInCU: 0xEDA, offset: 0x311C9, size: 0x8, addend: 0x0, symName: '__ZN4core3ptr43drop_in_place$LT$proc_macro2..TokenTree$GT$17h5d517f0d7681b375E.llvm.1155788576835495902', symObjAddr: 0x330, symBinAddr: 0x8D00, symSize: 0x180 }
  - { offsetInCU: 0x1911, offset: 0x31C00, size: 0x8, addend: 0x0, symName: '__ZN4core3ptr475drop_in_place$LT$core..iter..adapters..flatten..Flatten$LT$core..iter..adapters..map..Map$LT$core..iter..adapters..map..Map$LT$core..iter..sources..once..Once$LT$proc_macro2..TokenStream$GT$$C$$LT$proc_macro2..TokenStream$u20$as$u20$core..iter..traits..collect..Extend$LT$proc_macro2..TokenStream$GT$$GT$..extend$LT$core..iter..sources..once..Once$LT$proc_macro2..TokenStream$GT$$GT$..$u7b$$u7b$closure$u7d$$u7d$$GT$$C$proc_macro2..imp..TokenStream..unwrap_stable$GT$$GT$$GT$17h24ae6079d0745663E', symObjAddr: 0x4B0, symBinAddr: 0x8E80, symSize: 0xF0 }
  - { offsetInCU: 0x1C8C, offset: 0x31F7B, size: 0x8, addend: 0x0, symName: '__ZN4core3ptr65drop_in_place$LT$alloc..vec..Vec$LT$proc_macro..TokenTree$GT$$GT$17h6e5716ba9045296bE', symObjAddr: 0x5A0, symBinAddr: 0x8F70, symSize: 0x110 }
  - { offsetInCU: 0x20BD, offset: 0x323AC, size: 0x8, addend: 0x0, symName: '__ZN4core3ptr66drop_in_place$LT$alloc..vec..Vec$LT$proc_macro2..TokenTree$GT$$GT$17h8f3e7b22ace06794E', symObjAddr: 0x6B0, symBinAddr: 0x9080, symSize: 0xC0 }
  - { offsetInCU: 0x3690, offset: 0x3397F, size: 0x8, addend: 0x0, symName: '__ZN48_$LT$T$u20$as$u20$core..clone..CloneToUninit$GT$15clone_to_uninit17hbf6f08fcb67a3c0eE', symObjAddr: 0x0, symBinAddr: 0x89D0, symSize: 0x330 }
  - { offsetInCU: 0x423E, offset: 0x3452D, size: 0x8, addend: 0x0, symName: '__ZN67_$LT$alloc..vec..Vec$LT$T$C$A$GT$$u20$as$u20$core..clone..Clone$GT$5clone17h05ba4f21f0c46c30E', symObjAddr: 0x770, symBinAddr: 0x9140, symSize: 0x240 }
  - { offsetInCU: 0x4A41, offset: 0x34D30, size: 0x8, addend: 0x0, symName: '__ZN97_$LT$alloc..vec..Vec$LT$T$C$A$GT$$u20$as$u20$alloc..vec..spec_extend..SpecExtend$LT$T$C$I$GT$$GT$11spec_extend17h217d6aeee315f6a7E', symObjAddr: 0xC20, symBinAddr: 0x9380, symSize: 0x7D4 }
  - { offsetInCU: 0x1E, offset: 0x39E35, size: 0x8, addend: 0x0, symName: __ZN5alloc7raw_vec11finish_grow17hcfd7627026c9e8c1E.llvm.13640657544212396424, symObjAddr: 0x0, symBinAddr: 0x9B60, symSize: 0xA0 }
  - { offsetInCU: 0x1935, offset: 0x3B74C, size: 0x8, addend: 0x0, symName: __ZN5alloc7raw_vec11finish_grow17hcfd7627026c9e8c1E.llvm.13640657544212396424, symObjAddr: 0x0, symBinAddr: 0x9B60, symSize: 0xA0 }
  - { offsetInCU: 0x1E89, offset: 0x3BCA0, size: 0x8, addend: 0x0, symName: '__ZN5alloc7raw_vec19RawVec$LT$T$C$A$GT$7reserve21do_reserve_and_handle17he19bcc3d4ba69b71E', symObjAddr: 0x2D0, symBinAddr: 0x57A80, symSize: 0xB0 }
  - { offsetInCU: 0x2A69, offset: 0x3C880, size: 0x8, addend: 0x0, symName: '__ZN5alloc7raw_vec19RawVec$LT$T$C$A$GT$8grow_one17hde075160dc3dd56aE', symObjAddr: 0x380, symBinAddr: 0x9C00, symSize: 0xC0 }
  - { offsetInCU: 0x9E3, offset: 0x3D5AF, size: 0x8, addend: 0x0, symName: '__ZN4core3ptr39drop_in_place$LT$proc_macro2..Group$GT$17ha04dd976beb3d2adE', symObjAddr: 0x50, symBinAddr: 0x9CC0, symSize: 0x60 }
  - { offsetInCU: 0x1015, offset: 0x3DBE1, size: 0x8, addend: 0x0, symName: __ZN5quote9__private10push_group17hbfcb682d5a6012e7E, symObjAddr: 0x160, symBinAddr: 0x9D20, symSize: 0x70 }
  - { offsetInCU: 0x1123, offset: 0x3DCEF, size: 0x8, addend: 0x0, symName: __ZN5quote9__private18push_group_spanned17h5d9759652694bdb6E, symObjAddr: 0x1D0, symBinAddr: 0x9D90, symSize: 0xA0 }
  - { offsetInCU: 0x12AE, offset: 0x3DE7A, size: 0x8, addend: 0x0, symName: __ZN5quote9__private10push_ident17hfdd1d460496c32f6E, symObjAddr: 0x5F0, symBinAddr: 0x9E30, symSize: 0xC0 }
  - { offsetInCU: 0x155B, offset: 0x3E127, size: 0x8, addend: 0x0, symName: __ZN5quote9__private18push_ident_spanned17h6ded5883ea67649aE, symObjAddr: 0x6B0, symBinAddr: 0x9EF0, symSize: 0xB0 }
  - { offsetInCU: 0x17B7, offset: 0x3E383, size: 0x8, addend: 0x0, symName: __ZN5quote9__private17push_bang_spanned17h10c3632bec9b6f2cE, symObjAddr: 0xFF0, symBinAddr: 0x9FA0, symSize: 0x50 }
  - { offsetInCU: 0x18CC, offset: 0x3E498, size: 0x8, addend: 0x0, symName: __ZN5quote9__private11push_colon217h1b5e3adaba80e810E, symObjAddr: 0x1250, symBinAddr: 0x9FF0, symSize: 0x60 }
  - { offsetInCU: 0x19C3, offset: 0x3E58F, size: 0x8, addend: 0x0, symName: __ZN5quote9__private10push_comma17h78b0a508f505eafcE, symObjAddr: 0x1340, symBinAddr: 0xA050, symSize: 0x40 }
  - { offsetInCU: 0x1A55, offset: 0x3E621, size: 0x8, addend: 0x0, symName: __ZN5quote9__private10push_or_or17h076e5f19cc6ca608E, symObjAddr: 0x2150, symBinAddr: 0xA090, symSize: 0x60 }
  - { offsetInCU: 0x1DC8, offset: 0x40D72, size: 0x8, addend: 0x0, symName: '__ZN67_$LT$proc_macro2..Literal$u20$as$u20$quote..to_tokens..ToTokens$GT$9to_tokens17heb966b908e5cfcbaE', symObjAddr: 0x610, symBinAddr: 0xA0F0, symSize: 0x90 }
  - { offsetInCU: 0x1FDA, offset: 0x40F84, size: 0x8, addend: 0x0, symName: '__ZN69_$LT$proc_macro2..TokenTree$u20$as$u20$quote..to_tokens..ToTokens$GT$9to_tokens17h8fa4755a4efd02d4E', symObjAddr: 0x6A0, symBinAddr: 0xA180, symSize: 0x1F0 }
  - { offsetInCU: 0x25F8, offset: 0x415A2, size: 0x8, addend: 0x0, symName: '__ZN71_$LT$proc_macro2..TokenStream$u20$as$u20$quote..to_tokens..ToTokens$GT$9to_tokens17h0d6116d22659ada1E', symObjAddr: 0x890, symBinAddr: 0xA370, symSize: 0xA6 }
  - { offsetInCU: 0x8CE, offset: 0x424F2, size: 0x8, addend: 0x0, symName: '__ZN120_$LT$proc_macro2..fallback..TokenStream$u20$as$u20$core..iter..traits..collect..Extend$LT$proc_macro2..TokenTree$GT$$GT$6extend17h9fdee2cb07c2ce92E', symObjAddr: 0x50, symBinAddr: 0xA420, symSize: 0x110 }
  - { offsetInCU: 0x137A, offset: 0x42F9E, size: 0x8, addend: 0x0, symName: '__ZN4core3ptr429drop_in_place$LT$core..iter..adapters..map..Map$LT$core..iter..adapters..map..Map$LT$core..iter..sources..once..Once$LT$proc_macro2..TokenStream$GT$$C$$LT$proc_macro2..TokenStream$u20$as$u20$core..iter..traits..collect..Extend$LT$proc_macro2..TokenStream$GT$$GT$..extend$LT$core..iter..sources..once..Once$LT$proc_macro2..TokenStream$GT$$GT$..$u7b$$u7b$closure$u7d$$u7d$$GT$$C$proc_macro2..imp..TokenStream..unwrap_stable$GT$$GT$17hd1e50789aaf90c82E.llvm.5019217615855637874', symObjAddr: 0x500, symBinAddr: 0xA530, symSize: 0x160 }
  - { offsetInCU: 0x184E, offset: 0x43472, size: 0x8, addend: 0x0, symName: '__ZN4core3ptr65drop_in_place$LT$alloc..vec..Vec$LT$proc_macro..TokenTree$GT$$GT$17h6e5716ba9045296bE.llvm.5019217615855637874', symObjAddr: 0x6A0, symBinAddr: 0xA690, symSize: 0x110 }
  - { offsetInCU: 0x1E36, offset: 0x43A5A, size: 0x8, addend: 0x0, symName: '__ZN4core3ptr71drop_in_place$LT$core..option..Option$LT$proc_macro2..TokenTree$GT$$GT$17h6da66ad8f9a20cfbE.llvm.5019217615855637874', symObjAddr: 0x7B0, symBinAddr: 0xA7A0, symSize: 0xC0 }
  - { offsetInCU: 0x370B, offset: 0x4532F, size: 0x8, addend: 0x0, symName: '__ZN5alloc2rc15Rc$LT$T$C$A$GT$8make_mut17he4210338d39aecd6E.llvm.5019217615855637874', symObjAddr: 0x870, symBinAddr: 0xA860, symSize: 0x1A1 }
  - { offsetInCU: 0x1392, offset: 0x47A55, size: 0x8, addend: 0x0, symName: '__ZN68_$LT$alloc..rc..Rc$LT$T$C$A$GT$$u20$as$u20$core..ops..drop..Drop$GT$4drop17hcc3a9cd8ee7e1c7bE', symObjAddr: 0xB0, symBinAddr: 0xAA10, symSize: 0xE0 }
  - { offsetInCU: 0x18B9, offset: 0x47F7C, size: 0x8, addend: 0x0, symName: '__ZN80_$LT$alloc..rc..UniqueRcUninit$LT$T$C$A$GT$$u20$as$u20$core..ops..drop..Drop$GT$4drop17ha4d6926c3230209aE', symObjAddr: 0x190, symBinAddr: 0xAAF0, symSize: 0x4F }
  - { offsetInCU: 0xE22, offset: 0x49674, size: 0x8, addend: 0x0, symName: '__ZN4core3ptr65drop_in_place$LT$alloc..vec..Vec$LT$proc_macro..TokenTree$GT$$GT$17h6e5716ba9045296bE.llvm.17370660283155372310', symObjAddr: 0x340, symBinAddr: 0xAC50, symSize: 0x110 }
  - { offsetInCU: 0x1350, offset: 0x49BA2, size: 0x8, addend: 0x0, symName: '__ZN4core3ptr73drop_in_place$LT$core..option..Option$LT$proc_macro2..TokenStream$GT$$GT$17h1b8abb425789b355E.llvm.17370660283155372310', symObjAddr: 0x510, symBinAddr: 0xAD60, symSize: 0x155 }
  - { offsetInCU: 0x1A0D, offset: 0x4A25F, size: 0x8, addend: 0x0, symName: '__ZN102_$LT$core..iter..adapters..map..Map$LT$I$C$F$GT$$u20$as$u20$core..iter..traits..iterator..Iterator$GT$4fold17h68893b55893713b1E', symObjAddr: 0x210, symBinAddr: 0xAB40, symSize: 0x110 }
  - { offsetInCU: 0x172, offset: 0x4B43D, size: 0x8, addend: 0x0, symName: '__ZN115_$LT$proc_macro2..imp..TokenStream$u20$as$u20$core..iter..traits..collect..Extend$LT$proc_macro2..TokenTree$GT$$GT$6extend17h7b295db55c041a83E', symObjAddr: 0x370, symBinAddr: 0xAEC0, symSize: 0x190 }
  - { offsetInCU: 0x480, offset: 0x4B74B, size: 0x8, addend: 0x0, symName: '__ZN122_$LT$proc_macro2..imp..TokenStream$u20$as$u20$core..iter..traits..collect..Extend$LT$proc_macro2..imp..TokenStream$GT$$GT$6extend17hee0d912a4a5ef8dbE', symObjAddr: 0x740, symBinAddr: 0xB050, symSize: 0x100 }
  - { offsetInCU: 0xC05, offset: 0x4BED0, size: 0x8, addend: 0x0, symName: '__ZN4core3ptr344drop_in_place$LT$core..iter..adapters..map..Map$LT$core..iter..sources..once..Once$LT$proc_macro2..TokenStream$GT$$C$$LT$proc_macro2..TokenStream$u20$as$u20$core..iter..traits..collect..Extend$LT$proc_macro2..TokenStream$GT$$GT$..extend$LT$core..iter..sources..once..Once$LT$proc_macro2..TokenStream$GT$$GT$..$u7b$$u7b$closure$u7d$$u7d$$GT$$GT$17h6419d43a2c799f51E.llvm.12415850858193292274', symObjAddr: 0x8A0, symBinAddr: 0xB150, symSize: 0x160 }
  - { offsetInCU: 0x10C2, offset: 0x4C38D, size: 0x8, addend: 0x0, symName: '__ZN4core3ptr65drop_in_place$LT$alloc..vec..Vec$LT$proc_macro..TokenTree$GT$$GT$17h6e5716ba9045296bE.llvm.12415850858193292274', symObjAddr: 0xA00, symBinAddr: 0xB2B0, symSize: 0x110 }
  - { offsetInCU: 0x16C9, offset: 0x4C994, size: 0x8, addend: 0x0, symName: '__ZN4core3ptr82drop_in_place$LT$core..iter..sources..once..Once$LT$proc_macro2..TokenTree$GT$$GT$17hee9fa0bcbef98562E.llvm.12415850858193292274', symObjAddr: 0xB10, symBinAddr: 0xB3C0, symSize: 0xB4 }
  - { offsetInCU: 0x1E, offset: 0x4E9AD, size: 0x8, addend: 0x0, symName: '__ZN4core3ptr43drop_in_place$LT$proc_macro2..TokenTree$GT$17h5d517f0d7681b375E.llvm.6271888306557941501', symObjAddr: 0x0, symBinAddr: 0xB480, symSize: 0xB0 }
  - { offsetInCU: 0xDB1, offset: 0x4F740, size: 0x8, addend: 0x0, symName: '__ZN4core3ptr43drop_in_place$LT$proc_macro2..TokenTree$GT$17h5d517f0d7681b375E.llvm.6271888306557941501', symObjAddr: 0x0, symBinAddr: 0xB480, symSize: 0xB0 }
  - { offsetInCU: 0x1875, offset: 0x50204, size: 0x8, addend: 0x0, symName: '__ZN86_$LT$alloc..vec..into_iter..IntoIter$LT$T$C$A$GT$$u20$as$u20$core..ops..drop..Drop$GT$4drop17hafc1190b370b406cE', symObjAddr: 0xB0, symBinAddr: 0xB530, symSize: 0xD0 }
  - { offsetInCU: 0x1E, offset: 0x50B86, size: 0x8, addend: 0x0, symName: '__ZN110_$LT$proc_macro..TokenStream$u20$as$u20$core..iter..traits..collect..Extend$LT$proc_macro..TokenStream$GT$$GT$6extend17he106f041a687c234E', symObjAddr: 0x0, symBinAddr: 0xB600, symSize: 0xD0 }
  - { offsetInCU: 0x45E, offset: 0x50FC6, size: 0x8, addend: 0x0, symName: '__ZN110_$LT$proc_macro..TokenStream$u20$as$u20$core..iter..traits..collect..Extend$LT$proc_macro..TokenStream$GT$$GT$6extend17he106f041a687c234E', symObjAddr: 0x0, symBinAddr: 0xB600, symSize: 0xD0 }
  - { offsetInCU: 0x12F4, offset: 0x51E5C, size: 0x8, addend: 0x0, symName: '__ZN4core3ptr430drop_in_place$LT$core..iter..adapters..map..Map$LT$core..iter..adapters..map..Map$LT$core..iter..sources..once..Once$LT$proc_macro2..TokenStream$GT$$C$$LT$proc_macro2..TokenStream$u20$as$u20$core..iter..traits..collect..Extend$LT$proc_macro2..TokenStream$GT$$GT$..extend$LT$core..iter..sources..once..Once$LT$proc_macro2..TokenStream$GT$$GT$..$u7b$$u7b$closure$u7d$$u7d$$GT$$C$proc_macro2..imp..TokenStream..unwrap_nightly$GT$$GT$17h038cb9babbf3ef72E.llvm.3172662622590636034', symObjAddr: 0x1D0, symBinAddr: 0xB6D0, symSize: 0x160 }
  - { offsetInCU: 0x1806, offset: 0x5236E, size: 0x8, addend: 0x0, symName: '__ZN4core3ptr52drop_in_place$LT$proc_macro..ConcatStreamsHelper$GT$17hcb34c1a4dd5a357aE.llvm.3172662622590636034', symObjAddr: 0x440, symBinAddr: 0xB830, symSize: 0xC0 }
  - { offsetInCU: 0x1B22, offset: 0x5268A, size: 0x8, addend: 0x0, symName: '__ZN4core3ptr65drop_in_place$LT$alloc..vec..Vec$LT$proc_macro..TokenTree$GT$$GT$17h6e5716ba9045296bE.llvm.3172662622590636034', symObjAddr: 0x500, symBinAddr: 0xB8F0, symSize: 0x107 }
  - { offsetInCU: 0xAD, offset: 0x536D3, size: 0x8, addend: 0x0, symName: '__ZN51_$LT$bool$u20$as$u20$quote..to_tokens..ToTokens$GT$9to_tokens17hda37a2f83f88e155E', symObjAddr: 0xE0, symBinAddr: 0xBA00, symSize: 0xA0 }
  - { offsetInCU: 0x1471, offset: 0x55C83, size: 0x8, addend: 0x0, symName: '__ZN4core3ptr43drop_in_place$LT$proc_macro2..TokenTree$GT$17h0aab31b924992928E.llvm.8516634537543944519', symObjAddr: 0xC0, symBinAddr: 0xBAA0, symSize: 0x170 }
  - { offsetInCU: 0x1CB3, offset: 0x564C5, size: 0x8, addend: 0x0, symName: '__ZN4core3ptr44drop_in_place$LT$proc_macro2..imp..Group$GT$17h6bff849e79912c66E', symObjAddr: 0x230, symBinAddr: 0xBC10, symSize: 0x130 }
  - { offsetInCU: 0x3CE4, offset: 0x584F6, size: 0x8, addend: 0x0, symName: '__ZN4core4char7methods22_$LT$impl$u20$char$GT$16escape_debug_ext17h45343360e0479290E.llvm.8516634537543944519', symObjAddr: 0x480, symBinAddr: 0xBD40, symSize: 0x290 }
  - { offsetInCU: 0x4EAD, offset: 0x596BF, size: 0x8, addend: 0x0, symName: __ZN11proc_macro28fallback26push_token_from_proc_macro17h7ec4b52db97557e2E, symObjAddr: 0xC20, symBinAddr: 0xBFD0, symSize: 0xE0 }
  - { offsetInCU: 0x5231, offset: 0x59A43, size: 0x8, addend: 0x0, symName: __ZN11proc_macro28fallback26push_token_from_proc_macro21push_negative_literal17ha17dd36b04b670d7E.llvm.8516634537543944519, symObjAddr: 0xD00, symBinAddr: 0x57B30, symSize: 0x230 }
  - { offsetInCU: 0x59C2, offset: 0x5A1D4, size: 0x8, addend: 0x0, symName: '__ZN76_$LT$proc_macro2..fallback..TokenStream$u20$as$u20$core..ops..drop..Drop$GT$4drop17hc55d155d62949465E', symObjAddr: 0xF30, symBinAddr: 0xC0B0, symSize: 0x3A0 }
  - { offsetInCU: 0x6562, offset: 0x5AD74, size: 0x8, addend: 0x0, symName: '__ZN73_$LT$proc_macro2..fallback..TokenStream$u20$as$u20$core..fmt..Display$GT$3fmt17h7463d951db80275fE', symObjAddr: 0x1500, symBinAddr: 0xC450, symSize: 0x290 }
  - { offsetInCU: 0x6E35, offset: 0x5B647, size: 0x8, addend: 0x0, symName: '__ZN96_$LT$proc_macro2..fallback..TokenStream$u20$as$u20$core..iter..traits..collect..IntoIterator$GT$9into_iter17hb4dfcd370d543e0bE', symObjAddr: 0x1A80, symBinAddr: 0xC6E0, symSize: 0xC0 }
  - { offsetInCU: 0x7231, offset: 0x5BA43, size: 0x8, addend: 0x0, symName: __ZN11proc_macro28fallback14validate_ident17hc09ade9c511c0d33E.llvm.8516634537543944519, symObjAddr: 0x2050, symBinAddr: 0xC8F0, symSize: 0x1F0 }
  - { offsetInCU: 0x7883, offset: 0x5C095, size: 0x8, addend: 0x0, symName: __ZN11proc_macro28fallback11escape_utf817h5b6108d298a146e1E.llvm.8516634537543944519, symObjAddr: 0x3690, symBinAddr: 0xCC00, symSize: 0x220 }
  - { offsetInCU: 0x78BD, offset: 0x5C0CF, size: 0x8, addend: 0x0, symName: __ZN11proc_macro28fallback11escape_utf817h5b6108d298a146e1E.llvm.8516634537543944519, symObjAddr: 0x3690, symBinAddr: 0xCC00, symSize: 0x220 }
  - { offsetInCU: 0x78DB, offset: 0x5C0ED, size: 0x8, addend: 0x0, symName: __ZN11proc_macro28fallback11escape_utf817h5b6108d298a146e1E.llvm.8516634537543944519, symObjAddr: 0x3690, symBinAddr: 0xCC00, symSize: 0x220 }
  - { offsetInCU: 0x957A, offset: 0x5DD8C, size: 0x8, addend: 0x0, symName: __ZN11proc_macro28fallback5Ident15new_raw_checked17h2823a5730708c2aeE, symObjAddr: 0x1E40, symBinAddr: 0xC7A0, symSize: 0x150 }
  - { offsetInCU: 0x9D38, offset: 0x5E54A, size: 0x8, addend: 0x0, symName: __ZN11proc_macro28fallback7Literal6string17h447544daa5e98e64E, symObjAddr: 0x2710, symBinAddr: 0xCAE0, symSize: 0x120 }
  - { offsetInCU: 0x10DD, offset: 0x60D33, size: 0x8, addend: 0x0, symName: __ZN11proc_macro23imp8mismatch17h9815059fff5028e3E, symObjAddr: 0x4B0, symBinAddr: 0x57D60, symSize: 0x60 }
  - { offsetInCU: 0x11DE, offset: 0x60E34, size: 0x8, addend: 0x0, symName: __ZN11proc_macro23imp19into_compiler_token17h07bf6151764c2230E, symObjAddr: 0xB00, symBinAddr: 0xD470, symSize: 0x160 }
  - { offsetInCU: 0x13B3, offset: 0x61009, size: 0x8, addend: 0x0, symName: '__ZN91_$LT$proc_macro2..imp..TokenStream$u20$as$u20$core..iter..traits..collect..IntoIterator$GT$9into_iter17hc0fcd59dbe2409baE', symObjAddr: 0xF20, symBinAddr: 0xD5D0, symSize: 0x110 }
  - { offsetInCU: 0x1720, offset: 0x61376, size: 0x8, addend: 0x0, symName: '__ZN90_$LT$proc_macro2..imp..TokenTreeIter$u20$as$u20$core..iter..traits..iterator..Iterator$GT$4next17h778d19ef00c5616eE', symObjAddr: 0x1030, symBinAddr: 0xD6E0, symSize: 0x160 }
  - { offsetInCU: 0x1A0D, offset: 0x61663, size: 0x8, addend: 0x0, symName: '__ZN62_$LT$proc_macro2..imp..Group$u20$as$u20$core..fmt..Display$GT$3fmt17h57b53cbddbb8635cE', symObjAddr: 0x14C0, symBinAddr: 0xD840, symSize: 0x150 }
  - { offsetInCU: 0x2794, offset: 0x623EA, size: 0x8, addend: 0x0, symName: '__ZN4core3ptr44drop_in_place$LT$proc_macro2..imp..Group$GT$17h6bff849e79912c66E', symObjAddr: 0xD0, symBinAddr: 0xCE20, symSize: 0x60 }
  - { offsetInCU: 0x2945, offset: 0x6259B, size: 0x8, addend: 0x0, symName: '__ZN4core3ptr50drop_in_place$LT$proc_macro2..imp..TokenStream$GT$17hdf7001841eec91bdE', symObjAddr: 0x130, symBinAddr: 0xCE80, symSize: 0x140 }
  - { offsetInCU: 0x2D8A, offset: 0x629E0, size: 0x8, addend: 0x0, symName: '__ZN4core3ptr58drop_in_place$LT$proc_macro2..imp..DeferredTokenStream$GT$17h136603312c864de6E.llvm.18138970111165468470', symObjAddr: 0x270, symBinAddr: 0xCFC0, symSize: 0x110 }
  - { offsetInCU: 0x3116, offset: 0x62D6C, size: 0x8, addend: 0x0, symName: '__ZN4core3ptr65drop_in_place$LT$alloc..vec..Vec$LT$proc_macro..TokenTree$GT$$GT$17h5e9a82e22c517f51E.llvm.18138970111165468470', symObjAddr: 0x380, symBinAddr: 0xD0D0, symSize: 0x110 }
  - { offsetInCU: 0x441E, offset: 0x64074, size: 0x8, addend: 0x0, symName: __ZN11proc_macro23imp19DeferredTokenStream12evaluate_now17h40db0906c9a1f349E, symObjAddr: 0x510, symBinAddr: 0xD1E0, symSize: 0x60 }
  - { offsetInCU: 0x443E, offset: 0x64094, size: 0x8, addend: 0x0, symName: __ZN11proc_macro23imp19DeferredTokenStream12evaluate_now17h40db0906c9a1f349E, symObjAddr: 0x510, symBinAddr: 0xD1E0, symSize: 0x60 }
  - { offsetInCU: 0x444E, offset: 0x640A4, size: 0x8, addend: 0x0, symName: __ZN11proc_macro23imp19DeferredTokenStream12evaluate_now17h40db0906c9a1f349E, symObjAddr: 0x510, symBinAddr: 0xD1E0, symSize: 0x60 }
  - { offsetInCU: 0x4466, offset: 0x640BC, size: 0x8, addend: 0x0, symName: __ZN11proc_macro23imp19DeferredTokenStream12evaluate_now17h40db0906c9a1f349E, symObjAddr: 0x510, symBinAddr: 0xD1E0, symSize: 0x60 }
  - { offsetInCU: 0x4477, offset: 0x640CD, size: 0x8, addend: 0x0, symName: __ZN11proc_macro23imp19DeferredTokenStream12evaluate_now17h40db0906c9a1f349E, symObjAddr: 0x510, symBinAddr: 0xD1E0, symSize: 0x60 }
  - { offsetInCU: 0x4649, offset: 0x6429F, size: 0x8, addend: 0x0, symName: __ZN11proc_macro23imp19DeferredTokenStream17into_token_stream17h602751dd30be4061E, symObjAddr: 0x570, symBinAddr: 0xD240, symSize: 0x160 }
  - { offsetInCU: 0x4C61, offset: 0x648B7, size: 0x8, addend: 0x0, symName: __ZN11proc_macro23imp11TokenStream14unwrap_nightly17h9ced4bba29f93b66E, symObjAddr: 0x7F0, symBinAddr: 0xD3A0, symSize: 0x90 }
  - { offsetInCU: 0x4CA1, offset: 0x648F7, size: 0x8, addend: 0x0, symName: __ZN11proc_macro23imp11TokenStream13unwrap_stable17h62e58c699e44ea29E, symObjAddr: 0x880, symBinAddr: 0xD430, symSize: 0x40 }
  - { offsetInCU: 0x1E, offset: 0x65B02, size: 0x8, addend: 0x0, symName: __ZN5alloc7raw_vec11finish_grow17h51cb164918dd6bcfE.llvm.13453246448648053170, symObjAddr: 0x0, symBinAddr: 0xD990, symSize: 0xA0 }
  - { offsetInCU: 0x195D, offset: 0x67441, size: 0x8, addend: 0x0, symName: __ZN5alloc7raw_vec11finish_grow17h51cb164918dd6bcfE.llvm.13453246448648053170, symObjAddr: 0x0, symBinAddr: 0xD990, symSize: 0xA0 }
  - { offsetInCU: 0x1E16, offset: 0x678FA, size: 0x8, addend: 0x0, symName: '__ZN5alloc7raw_vec19RawVec$LT$T$C$A$GT$7reserve21do_reserve_and_handle17hc71f0457ad217f5aE', symObjAddr: 0x2C0, symBinAddr: 0x57DC0, symSize: 0xB0 }
  - { offsetInCU: 0x2141, offset: 0x67C25, size: 0x8, addend: 0x0, symName: '__ZN5alloc7raw_vec19RawVec$LT$T$C$A$GT$7reserve21do_reserve_and_handle17hd818ea613199ca8cE', symObjAddr: 0x370, symBinAddr: 0x57E70, symSize: 0xA0 }
  - { offsetInCU: 0x2CC7, offset: 0x687AB, size: 0x8, addend: 0x0, symName: '__ZN5alloc7raw_vec19RawVec$LT$T$C$A$GT$8grow_one17h8a039866921b80b5E', symObjAddr: 0x410, symBinAddr: 0xDA30, symSize: 0x0 }
  - { offsetInCU: 0x3006, offset: 0x68AEA, size: 0x8, addend: 0x0, symName: '__ZN5alloc7raw_vec19RawVec$LT$T$C$A$GT$8grow_one17he092c8b76ee8c55bE', symObjAddr: 0x4C0, symBinAddr: 0xDAE0, symSize: 0xA0 }
  - { offsetInCU: 0xB06, offset: 0x69926, size: 0x8, addend: 0x0, symName: '__ZN4core3ptr43drop_in_place$LT$proc_macro2..TokenTree$GT$17h0aab31b924992928E.llvm.4996552601825917102', symObjAddr: 0x110, symBinAddr: 0xDB80, symSize: 0xB0 }
  - { offsetInCU: 0x169D, offset: 0x6A4BD, size: 0x8, addend: 0x0, symName: '__ZN86_$LT$alloc..vec..into_iter..IntoIter$LT$T$C$A$GT$$u20$as$u20$core..ops..drop..Drop$GT$4drop17hd42f862e5eacae51E', symObjAddr: 0x960, symBinAddr: 0xDC30, symSize: 0xCD }
  - { offsetInCU: 0x1E, offset: 0x6B462, size: 0x8, addend: 0x0, symName: '__ZN4core3ptr43drop_in_place$LT$proc_macro2..TokenTree$GT$17h0aab31b924992928E.llvm.17216415110509800432', symObjAddr: 0x0, symBinAddr: 0xDD00, symSize: 0x180 }
  - { offsetInCU: 0x13B5, offset: 0x6C7F9, size: 0x8, addend: 0x0, symName: '__ZN4core3ptr43drop_in_place$LT$proc_macro2..TokenTree$GT$17h0aab31b924992928E.llvm.17216415110509800432', symObjAddr: 0x0, symBinAddr: 0xDD00, symSize: 0x180 }
  - { offsetInCU: 0x1C07, offset: 0x6D04B, size: 0x8, addend: 0x0, symName: '__ZN4core3ptr66drop_in_place$LT$alloc..vec..Vec$LT$proc_macro2..TokenTree$GT$$GT$17hccacb490868bef01E', symObjAddr: 0x290, symBinAddr: 0xDE80, symSize: 0xC0 }
  - { offsetInCU: 0x2B74, offset: 0x6DFB8, size: 0x8, addend: 0x0, symName: '__ZN67_$LT$alloc..vec..Vec$LT$T$C$A$GT$$u20$as$u20$core..clone..Clone$GT$5clone17h7a77db04cd5ee316E', symObjAddr: 0x690, symBinAddr: 0xDF40, symSize: 0x320 }
  - { offsetInCU: 0x352E, offset: 0x6E972, size: 0x8, addend: 0x0, symName: '__ZN97_$LT$alloc..vec..Vec$LT$T$C$A$GT$$u20$as$u20$alloc..vec..spec_extend..SpecExtend$LT$T$C$I$GT$$GT$11spec_extend17h070c3453e1df99b6E', symObjAddr: 0xEE0, symBinAddr: 0xE260, symSize: 0x136 }
  - { offsetInCU: 0xC9E, offset: 0x7118E, size: 0x8, addend: 0x0, symName: '__ZN57_$LT$proc_macro2..Ident$u20$as$u20$core..fmt..Display$GT$3fmt17h66cf3b2d3f174dbfE', symObjAddr: 0x1190, symBinAddr: 0xE6E0, symSize: 0x60 }
  - { offsetInCU: 0xEC1, offset: 0x713B1, size: 0x8, addend: 0x0, symName: '__ZN11proc_macro212token_stream96_$LT$impl$u20$core..iter..traits..collect..IntoIterator$u20$for$u20$proc_macro2..TokenStream$GT$9into_iter17h2150d2363c72798cE', symObjAddr: 0x18D0, symBinAddr: 0xE7D0, symSize: 0x20 }
  - { offsetInCU: 0x1122, offset: 0x71612, size: 0x8, addend: 0x0, symName: __ZN11proc_macro211TokenStream3new17hbaa98c576fe1c1c9E, symObjAddr: 0x240, symBinAddr: 0xE3A0, symSize: 0x0 }
  - { offsetInCU: 0x128B, offset: 0x7177B, size: 0x8, addend: 0x0, symName: __ZN11proc_macro24Span9call_site17h8ca64ce8dfefbb3cE, symObjAddr: 0x580, symBinAddr: 0xE480, symSize: 0x20 }
  - { offsetInCU: 0x1340, offset: 0x71830, size: 0x8, addend: 0x0, symName: __ZN11proc_macro25Group3new17h94f8c4710e656ad3E, symObjAddr: 0xB20, symBinAddr: 0xE4A0, symSize: 0x80 }
  - { offsetInCU: 0x13E8, offset: 0x718D8, size: 0x8, addend: 0x0, symName: __ZN11proc_macro25Group6stream17h65d76f5d1b8d3f9aE, symObjAddr: 0xBA0, symBinAddr: 0xE520, symSize: 0x60 }
  - { offsetInCU: 0x15D3, offset: 0x71AC3, size: 0x8, addend: 0x0, symName: __ZN11proc_macro25Group8set_span17h4c54f5e2c9cdc587E, symObjAddr: 0xC00, symBinAddr: 0xE580, symSize: 0x40 }
  - { offsetInCU: 0x1669, offset: 0x71B59, size: 0x8, addend: 0x0, symName: __ZN11proc_macro25Punct3new17h21032fe5cf0d7815E, symObjAddr: 0xCE0, symBinAddr: 0xE5C0, symSize: 0x40 }
  - { offsetInCU: 0x16C9, offset: 0x71BB9, size: 0x8, addend: 0x0, symName: __ZN11proc_macro25Ident3new17hcaaabbab7f99179aE, symObjAddr: 0xDD0, symBinAddr: 0xE600, symSize: 0xB0 }
  - { offsetInCU: 0x1933, offset: 0x71E23, size: 0x8, addend: 0x0, symName: __ZN11proc_macro25Ident7new_raw17hd8a7669155a8c39aE, symObjAddr: 0xE80, symBinAddr: 0xE6B0, symSize: 0x30 }
  - { offsetInCU: 0x19B7, offset: 0x71EA7, size: 0x8, addend: 0x0, symName: __ZN11proc_macro27Literal6string17h79610da8722ce0fdE, symObjAddr: 0x1540, symBinAddr: 0xE740, symSize: 0x60 }
  - { offsetInCU: 0x19E9, offset: 0x71ED9, size: 0x8, addend: 0x0, symName: __ZN11proc_macro27Literal8set_span17hf80ca769a4f6eef6E, symObjAddr: 0x1700, symBinAddr: 0xE7A0, symSize: 0x30 }
  - { offsetInCU: 0x1E, offset: 0x7446C, size: 0x8, addend: 0x0, symName: '__ZN108_$LT$proc_macro..TokenStream$u20$as$u20$core..iter..traits..collect..Extend$LT$proc_macro..TokenTree$GT$$GT$6extend17h86e72b68a85d6ec6E', symObjAddr: 0x0, symBinAddr: 0xE7F0, symSize: 0x1A0 }
  - { offsetInCU: 0x9B, offset: 0x744E9, size: 0x8, addend: 0x0, symName: '__ZN58_$LT$alloc..string..String$u20$as$u20$core..fmt..Write$GT$10write_char17h04bc467bd68a934bE', symObjAddr: 0x350, symBinAddr: 0xEB40, symSize: 0x140 }
  - { offsetInCU: 0x4A0, offset: 0x748EE, size: 0x8, addend: 0x0, symName: '__ZN58_$LT$alloc..string..String$u20$as$u20$core..fmt..Write$GT$9write_str17h46a93205c3443fbaE', symObjAddr: 0x490, symBinAddr: 0xEC80, symSize: 0x60 }
  - { offsetInCU: 0x104A, offset: 0x75498, size: 0x8, addend: 0x0, symName: '__ZN4core3ptr42drop_in_place$LT$alloc..string..String$GT$17h6f523c93df423287E', symObjAddr: 0x1A0, symBinAddr: 0xE990, symSize: 0x20 }
  - { offsetInCU: 0x1190, offset: 0x755DE, size: 0x8, addend: 0x0, symName: '__ZN4core3ptr50drop_in_place$LT$proc_macro..ConcatTreesHelper$GT$17h19c6fcbe977ab958E.llvm.10937752711234179405', symObjAddr: 0x1C0, symBinAddr: 0xE9B0, symSize: 0x110 }
  - { offsetInCU: 0x15AF, offset: 0x759FD, size: 0x8, addend: 0x0, symName: '__ZN4core3ptr55drop_in_place$LT$proc_macro2..fallback..TokenStream$GT$17h75fcaf486a4e1e84E', symObjAddr: 0x2D0, symBinAddr: 0xEAC0, symSize: 0x40 }
  - { offsetInCU: 0x17EB, offset: 0x75C39, size: 0x8, addend: 0x0, symName: '__ZN53_$LT$core..fmt..Error$u20$as$u20$core..fmt..Debug$GT$3fmt17h03dc662ab152f3aeE', symObjAddr: 0x310, symBinAddr: 0xEB00, symSize: 0x20 }
  - { offsetInCU: 0x270A, offset: 0x76B58, size: 0x8, addend: 0x0, symName: '__ZN108_$LT$proc_macro..TokenStream$u20$as$u20$core..iter..traits..collect..Extend$LT$proc_macro..TokenTree$GT$$GT$6extend17h86e72b68a85d6ec6E', symObjAddr: 0x0, symBinAddr: 0xE7F0, symSize: 0x1A0 }
  - { offsetInCU: 0x2AA3, offset: 0x76EF1, size: 0x8, addend: 0x0, symName: '__ZN57_$LT$proc_macro..LexError$u20$as$u20$core..fmt..Debug$GT$3fmt17h767e25f9ee3a6a65E', symObjAddr: 0x330, symBinAddr: 0xEB20, symSize: 0x20 }
  - { offsetInCU: 0x2D68, offset: 0x771B6, size: 0x8, addend: 0x0, symName: '__ZN11proc_macro23imp110_$LT$impl$u20$core..convert..From$LT$proc_macro2..imp..TokenStream$GT$$u20$for$u20$proc_macro..TokenStream$GT$4from17ha94ef04d466ec333E', symObjAddr: 0x650, symBinAddr: 0xECE0, symSize: 0x1B0 }
  - { offsetInCU: 0x3429, offset: 0x77877, size: 0x8, addend: 0x0, symName: '__ZN11proc_macro2105_$LT$impl$u20$core..convert..From$LT$proc_macro2..TokenStream$GT$$u20$for$u20$proc_macro..TokenStream$GT$4from17h926da6e2d9923902E', symObjAddr: 0x800, symBinAddr: 0xEE90, symSize: 0xA }
  - { offsetInCU: 0x1E, offset: 0x78541, size: 0x8, addend: 0x0, symName: __ZN4core3fmt5Write9write_fmt17h2f65e4d362837f11E, symObjAddr: 0x0, symBinAddr: 0xEEA0, symSize: 0x20 }
  - { offsetInCU: 0xAF, offset: 0x785D2, size: 0x8, addend: 0x0, symName: '__ZN58_$LT$alloc..string..String$u20$as$u20$core..fmt..Write$GT$10write_char17h04bc467bd68a934bE', symObjAddr: 0x40, symBinAddr: 0xEEE0, symSize: 0x140 }
  - { offsetInCU: 0x4B4, offset: 0x789D7, size: 0x8, addend: 0x0, symName: '__ZN58_$LT$alloc..string..String$u20$as$u20$core..fmt..Write$GT$9write_str17h46a93205c3443fbaE', symObjAddr: 0x180, symBinAddr: 0xF020, symSize: 0x60 }
  - { offsetInCU: 0x760, offset: 0x78C83, size: 0x8, addend: 0x0, symName: '__ZN89_$LT$alloc..string..String$u20$as$u20$core..iter..traits..collect..Extend$LT$char$GT$$GT$6extend17hd16b312e72645fdfE', symObjAddr: 0x1E0, symBinAddr: 0xF080, symSize: 0x21C }
  - { offsetInCU: 0x1285, offset: 0x797A8, size: 0x8, addend: 0x0, symName: '__ZN4core3ptr42drop_in_place$LT$alloc..string..String$GT$17h6f523c93df423287E', symObjAddr: 0x20, symBinAddr: 0xEEC0, symSize: 0x20 }
  - { offsetInCU: 0x1618, offset: 0x79B3B, size: 0x8, addend: 0x0, symName: __ZN4core3fmt5Write9write_fmt17h2f65e4d362837f11E, symObjAddr: 0x0, symBinAddr: 0xEEA0, symSize: 0x20 }
  - { offsetInCU: 0x1E, offset: 0x7B00C, size: 0x8, addend: 0x0, symName: '__ZN4core3ptr90drop_in_place$LT$alloc..rc..RcBox$LT$alloc..vec..Vec$LT$proc_macro2..TokenTree$GT$$GT$$GT$17h857cb195bbaf5e97E.llvm.16228372486868016551', symObjAddr: 0x0, symBinAddr: 0xF2A0, symSize: 0xC0 }
  - { offsetInCU: 0x37D, offset: 0x7B36B, size: 0x8, addend: 0x0, symName: '__ZN4core3ptr90drop_in_place$LT$alloc..rc..RcBox$LT$alloc..vec..Vec$LT$proc_macro2..TokenTree$GT$$GT$$GT$17h857cb195bbaf5e97E.llvm.16228372486868016551', symObjAddr: 0x0, symBinAddr: 0xF2A0, symSize: 0xC0 }
  - { offsetInCU: 0x1E, offset: 0x7CA2E, size: 0x8, addend: 0x0, symName: '__ZN4core3ptr168drop_in_place$LT$$LT$alloc..vec..drain..Drain$LT$T$C$A$GT$$u20$as$u20$core..ops..drop..Drop$GT$..drop..DropGuard$LT$proc_macro..TokenTree$C$alloc..alloc..Global$GT$$GT$17h339ed8932f93b742E.llvm.5648147453413732744', symObjAddr: 0x0, symBinAddr: 0xF360, symSize: 0x70 }
  - { offsetInCU: 0x4D5, offset: 0x7CEE5, size: 0x8, addend: 0x0, symName: '__ZN79_$LT$alloc..vec..drain..Drain$LT$T$C$A$GT$$u20$as$u20$core..ops..drop..Drop$GT$4drop17hcdfab15e28fda51dE', symObjAddr: 0x70, symBinAddr: 0xF3D0, symSize: 0x120 }
  - { offsetInCU: 0xD98, offset: 0x7D7A8, size: 0x8, addend: 0x0, symName: '__ZN4core3ptr168drop_in_place$LT$$LT$alloc..vec..drain..Drain$LT$T$C$A$GT$$u20$as$u20$core..ops..drop..Drop$GT$..drop..DropGuard$LT$proc_macro..TokenTree$C$alloc..alloc..Global$GT$$GT$17h339ed8932f93b742E.llvm.5648147453413732744', symObjAddr: 0x0, symBinAddr: 0xF360, symSize: 0x70 }
  - { offsetInCU: 0xDB5, offset: 0x7D7C5, size: 0x8, addend: 0x0, symName: '__ZN4core3ptr168drop_in_place$LT$$LT$alloc..vec..drain..Drain$LT$T$C$A$GT$$u20$as$u20$core..ops..drop..Drop$GT$..drop..DropGuard$LT$proc_macro..TokenTree$C$alloc..alloc..Global$GT$$GT$17h339ed8932f93b742E.llvm.5648147453413732744', symObjAddr: 0x0, symBinAddr: 0xF360, symSize: 0x70 }
  - { offsetInCU: 0x1E, offset: 0x7DDFF, size: 0x8, addend: 0x0, symName: '__ZN68_$LT$alloc..rc..Rc$LT$T$C$A$GT$$u20$as$u20$core..ops..drop..Drop$GT$4drop17he341df429b61e0adE', symObjAddr: 0x0, symBinAddr: 0xF4F0, symSize: 0xDE }
  - { offsetInCU: 0xF41, offset: 0x7ED22, size: 0x8, addend: 0x0, symName: '__ZN68_$LT$alloc..rc..Rc$LT$T$C$A$GT$$u20$as$u20$core..ops..drop..Drop$GT$4drop17he341df429b61e0adE', symObjAddr: 0x0, symBinAddr: 0xF4F0, symSize: 0xDE }
  - { offsetInCU: 0x1E, offset: 0x7F957, size: 0x8, addend: 0x0, symName: '__ZN3std4sync4once4Once9call_once28_$u7b$$u7b$closure$u7d$$u7d$17hf067bc03bf88de36E.llvm.12802976786655920238', symObjAddr: 0x0, symBinAddr: 0xF5D0, symSize: 0x30 }
  - { offsetInCU: 0x35, offset: 0x7F96E, size: 0x8, addend: 0x0, symName: _anon.ccf5fd9ec9cb7027dcf42a1c39092a3d.0.llvm.12802976786655920238, symObjAddr: 0x108, symBinAddr: 0x68578, symSize: 0x0 }
  - { offsetInCU: 0xCA, offset: 0x7FA03, size: 0x8, addend: 0x0, symName: '__ZN3std4sync4once4Once9call_once28_$u7b$$u7b$closure$u7d$$u7d$17hf067bc03bf88de36E.llvm.12802976786655920238', symObjAddr: 0x0, symBinAddr: 0xF5D0, symSize: 0x30 }
  - { offsetInCU: 0x694, offset: 0x7FFCD, size: 0x8, addend: 0x0, symName: '__ZN4core3ops8function6FnOnce40call_once$u7b$$u7b$vtable.shim$u7d$$u7d$17h1ef86e9734fd12e1E.llvm.12802976786655920238', symObjAddr: 0x30, symBinAddr: 0xF600, symSize: 0x30 }
  - { offsetInCU: 0x853, offset: 0x8018C, size: 0x8, addend: 0x0, symName: __ZN11proc_macro29detection5WORKS17hb40257f01185b109E.0.llvm.12802976786655920238, symObjAddr: 0x31C8, symBinAddr: 0x6D340, symSize: 0x0 }
  - { offsetInCU: 0x86E, offset: 0x801A7, size: 0x8, addend: 0x0, symName: __ZN11proc_macro29detection4INIT17hd7c367d5f4485efbE.llvm.12802976786655920238, symObjAddr: 0x31D0, symBinAddr: 0x6D348, symSize: 0x0 }
  - { offsetInCU: 0x896, offset: 0x801CF, size: 0x8, addend: 0x0, symName: __ZN11proc_macro29detection17inside_proc_macro17h65fb32cfe100aa59E, symObjAddr: 0x60, symBinAddr: 0xF630, symSize: 0x70 }
  - { offsetInCU: 0x8B8, offset: 0x801F1, size: 0x8, addend: 0x0, symName: __ZN11proc_macro29detection17inside_proc_macro17h65fb32cfe100aa59E, symObjAddr: 0x60, symBinAddr: 0xF630, symSize: 0x70 }
  - { offsetInCU: 0x8C8, offset: 0x80201, size: 0x8, addend: 0x0, symName: __ZN11proc_macro29detection17inside_proc_macro17h65fb32cfe100aa59E, symObjAddr: 0x60, symBinAddr: 0xF630, symSize: 0x70 }
  - { offsetInCU: 0x8DF, offset: 0x80218, size: 0x8, addend: 0x0, symName: __ZN11proc_macro29detection17inside_proc_macro17h65fb32cfe100aa59E, symObjAddr: 0x60, symBinAddr: 0xF630, symSize: 0x70 }
  - { offsetInCU: 0x1E, offset: 0x804B0, size: 0x8, addend: 0x0, symName: '__ZN94_$LT$proc_macro2..token_stream..IntoIter$u20$as$u20$core..iter..traits..iterator..Iterator$GT$4next17h0ec4606cbd013fc7E', symObjAddr: 0x0, symBinAddr: 0xF6A0, symSize: 0x20 }
  - { offsetInCU: 0xA7, offset: 0x80539, size: 0x8, addend: 0x0, symName: '__ZN94_$LT$proc_macro2..token_stream..IntoIter$u20$as$u20$core..iter..traits..iterator..Iterator$GT$4next17h0ec4606cbd013fc7E', symObjAddr: 0x0, symBinAddr: 0xF6A0, symSize: 0x20 }
  - { offsetInCU: 0x1E, offset: 0x8156A, size: 0x8, addend: 0x0, symName: '__ZN42_$LT$$RF$T$u20$as$u20$core..fmt..Debug$GT$3fmt17hac13c2c97f895509E', symObjAddr: 0x0, symBinAddr: 0xF6C0, symSize: 0x20 }
  - { offsetInCU: 0x64, offset: 0x815B0, size: 0x8, addend: 0x0, symName: '__ZN42_$LT$$RF$T$u20$as$u20$core..fmt..Debug$GT$3fmt17hac13c2c97f895509E', symObjAddr: 0x0, symBinAddr: 0xF6C0, symSize: 0x20 }
  - { offsetInCU: 0x121, offset: 0x8166D, size: 0x8, addend: 0x0, symName: '__ZN44_$LT$$RF$T$u20$as$u20$core..fmt..Display$GT$3fmt17h92c5fbb627a6f2f2E', symObjAddr: 0x50, symBinAddr: 0xF6E0, symSize: 0x17 }
  - { offsetInCU: 0x1E, offset: 0x81892, size: 0x8, addend: 0x0, symName: __ZN13unicode_ident12is_xid_start17h93a1eb28665700a1E, symObjAddr: 0x0, symBinAddr: 0xF700, symSize: 0x70 }
  - { offsetInCU: 0x4CD, offset: 0x81D41, size: 0x8, addend: 0x0, symName: __ZN13unicode_ident12is_xid_start17h93a1eb28665700a1E, symObjAddr: 0x0, symBinAddr: 0xF700, symSize: 0x70 }
  - { offsetInCU: 0x4FE, offset: 0x81D72, size: 0x8, addend: 0x0, symName: __ZN13unicode_ident12is_xid_start17h93a1eb28665700a1E, symObjAddr: 0x0, symBinAddr: 0xF700, symSize: 0x70 }
  - { offsetInCU: 0x6C7, offset: 0x81F3B, size: 0x8, addend: 0x0, symName: __ZN13unicode_ident15is_xid_continue17hb24dad46eb47aaf5E, symObjAddr: 0x70, symBinAddr: 0xF770, symSize: 0x64 }
  - { offsetInCU: 0x6FA, offset: 0x81F6E, size: 0x8, addend: 0x0, symName: __ZN13unicode_ident15is_xid_continue17hb24dad46eb47aaf5E, symObjAddr: 0x70, symBinAddr: 0xF770, symSize: 0x64 }
  - { offsetInCU: 0x36, offset: 0x8216F, size: 0x8, addend: 0x0, symName: __ZN13unicode_ident6tables11ASCII_START17h083547620dc46ff6E, symObjAddr: 0x0, symBinAddr: 0x5D840, symSize: 0x0 }
  - { offsetInCU: 0x6F, offset: 0x821A8, size: 0x8, addend: 0x0, symName: __ZN13unicode_ident6tables14ASCII_CONTINUE17hc623578963bc3955E, symObjAddr: 0x80, symBinAddr: 0x5D8C0, symSize: 0x0 }
  - { offsetInCU: 0x8A, offset: 0x821C3, size: 0x8, addend: 0x0, symName: __ZN13unicode_ident6tables10TRIE_START17h59e8e4934783d363E, symObjAddr: 0x100, symBinAddr: 0x5D940, symSize: 0x0 }
  - { offsetInCU: 0xC5, offset: 0x821FE, size: 0x8, addend: 0x0, symName: __ZN13unicode_ident6tables13TRIE_CONTINUE17h12333db325ad4019E, symObjAddr: 0x298, symBinAddr: 0x5DAD8, symSize: 0x0 }
  - { offsetInCU: 0x100, offset: 0x82239, size: 0x8, addend: 0x0, symName: __ZN13unicode_ident6tables4LEAF17h99ae79f413287990E, symObjAddr: 0x9C0, symBinAddr: 0x5E200, symSize: 0x0 }
  - { offsetInCU: 0x1E, offset: 0x822D6, size: 0x8, addend: 0x0, symName: '__ZN36_$LT$T$u20$as$u20$core..any..Any$GT$7type_id17h699ebaed6d24eb70E', symObjAddr: 0x0, symBinAddr: 0xF7E0, symSize: 0x20 }
  - { offsetInCU: 0x3A, offset: 0x822F2, size: 0x8, addend: 0x0, symName: '__ZN36_$LT$T$u20$as$u20$core..any..Any$GT$7type_id17h699ebaed6d24eb70E', symObjAddr: 0x0, symBinAddr: 0xF7E0, symSize: 0x20 }
  - { offsetInCU: 0x54, offset: 0x8230C, size: 0x8, addend: 0x0, symName: '__ZN36_$LT$T$u20$as$u20$core..any..Any$GT$7type_id17hbf060e67525d1bd8E', symObjAddr: 0x20, symBinAddr: 0xF800, symSize: 0x20 }
  - { offsetInCU: 0x6E, offset: 0x82326, size: 0x8, addend: 0x0, symName: '__ZN36_$LT$T$u20$as$u20$core..any..Any$GT$7type_id17hef67898df63864f0E', symObjAddr: 0x40, symBinAddr: 0xF820, symSize: 0x20 }
  - { offsetInCU: 0x639, offset: 0x828F1, size: 0x8, addend: 0x0, symName: '__ZN4core3ptr103drop_in_place$LT$proc_macro..bridge..client..TokenStream..concat_trees..$u7b$$u7b$closure$u7d$$u7d$$GT$17hd49305b6f79353daE', symObjAddr: 0x6C0, symBinAddr: 0xFBA0, symSize: 0x60 }
  - { offsetInCU: 0x7D6, offset: 0x82A8E, size: 0x8, addend: 0x0, symName: '__ZN4core3ptr105drop_in_place$LT$proc_macro..bridge..client..TokenStream..concat_streams..$u7b$$u7b$closure$u7d$$u7d$$GT$17h79d3ad4325d116beE', symObjAddr: 0x720, symBinAddr: 0xFC00, symSize: 0x60 }
  - { offsetInCU: 0x981, offset: 0x82C39, size: 0x8, addend: 0x0, symName: '__ZN4core3ptr110drop_in_place$LT$core..result..Result$LT$alloc..string..String$C$proc_macro..bridge..rpc..PanicMessage$GT$$GT$17h7edb720bda72e9a1E', symObjAddr: 0x780, symBinAddr: 0xFC60, symSize: 0x50 }
  - { offsetInCU: 0xA1E, offset: 0x82CD6, size: 0x8, addend: 0x0, symName: '__ZN4core3ptr121drop_in_place$LT$core..result..Result$LT$proc_macro..bridge..client..Span$C$proc_macro..bridge..rpc..PanicMessage$GT$$GT$17hd5c11e422e8779adE', symObjAddr: 0x850, symBinAddr: 0xFCB0, symSize: 0x40 }
  - { offsetInCU: 0xAD1, offset: 0x82D89, size: 0x8, addend: 0x0, symName: '__ZN4core3ptr128drop_in_place$LT$core..result..Result$LT$proc_macro..bridge..client..TokenStream$C$proc_macro..bridge..rpc..PanicMessage$GT$$GT$17hda4eff69ebf28450E', symObjAddr: 0x8F0, symBinAddr: 0xFCF0, symSize: 0x60 }
  - { offsetInCU: 0xDB1, offset: 0x83069, size: 0x8, addend: 0x0, symName: '__ZN4core3ptr131drop_in_place$LT$proc_macro..bridge..client..maybe_install_panic_hook..$u7b$$u7b$closure$u7d$$u7d$..$u7b$$u7b$closure$u7d$$u7d$$GT$17h22839470220644f0E', symObjAddr: 0x9D0, symBinAddr: 0xFD50, symSize: 0x70 }
  - { offsetInCU: 0xF79, offset: 0x83231, size: 0x8, addend: 0x0, symName: '__ZN4core3ptr146drop_in_place$LT$std..sys..thread_local..native..lazy..State$LT$core..cell..RefCell$LT$proc_macro..bridge..symbol..Interner$GT$$C$$LP$$RP$$GT$$GT$17ha8f133de609be9acE', symObjAddr: 0xA90, symBinAddr: 0xFDC0, symSize: 0xD0 }
  - { offsetInCU: 0x12EA, offset: 0x835A2, size: 0x8, addend: 0x0, symName: '__ZN4core3ptr192drop_in_place$LT$alloc..vec..Vec$LT$proc_macro..bridge..TokenTree$LT$proc_macro..bridge..client..TokenStream$C$proc_macro..bridge..client..Span$C$proc_macro..bridge..symbol..Symbol$GT$$GT$$GT$17hcc7f413e9a61358fE', symObjAddr: 0xCC0, symBinAddr: 0xFE90, symSize: 0x120 }
  - { offsetInCU: 0x1603, offset: 0x838BB, size: 0x8, addend: 0x0, symName: '__ZN4core3ptr208drop_in_place$LT$alloc..vec..into_iter..IntoIter$LT$proc_macro..bridge..TokenTree$LT$proc_macro..bridge..client..TokenStream$C$proc_macro..bridge..client..Span$C$proc_macro..bridge..symbol..Symbol$GT$$GT$$GT$17hae47a398af739bdaE', symObjAddr: 0xDE0, symBinAddr: 0xFFB0, symSize: 0x130 }
  - { offsetInCU: 0x19A5, offset: 0x83C5D, size: 0x8, addend: 0x0, symName: '__ZN4core3ptr260drop_in_place$LT$core..result..Result$LT$alloc..vec..Vec$LT$proc_macro..bridge..TokenTree$LT$proc_macro..bridge..client..TokenStream$C$proc_macro..bridge..client..Span$C$proc_macro..bridge..symbol..Symbol$GT$$GT$$C$proc_macro..bridge..rpc..PanicMessage$GT$$GT$17hfb45a493fc3e471cE', symObjAddr: 0xF10, symBinAddr: 0x100E0, symSize: 0x50 }
  - { offsetInCU: 0x1A6C, offset: 0x83D24, size: 0x8, addend: 0x0, symName: '__ZN4core3ptr39drop_in_place$LT$std..path..PathBuf$GT$17had683c41678ea1a6E', symObjAddr: 0xF60, symBinAddr: 0x10130, symSize: 0x20 }
  - { offsetInCU: 0x1B2F, offset: 0x83DE7, size: 0x8, addend: 0x0, symName: '__ZN4core3ptr83drop_in_place$LT$alloc..vec..Vec$LT$proc_macro..bridge..client..TokenStream$GT$$GT$17he547c2f44324b387E', symObjAddr: 0x2110, symBinAddr: 0x10150, symSize: 0xD0 }
  - { offsetInCU: 0x1DBE, offset: 0x84076, size: 0x8, addend: 0x0, symName: '__ZN4core3ptr91drop_in_place$LT$alloc..boxed..Box$LT$dyn$u20$core..any..Any$u2b$core..marker..Send$GT$$GT$17h04b02e797d8ec7d0E', symObjAddr: 0x21E0, symBinAddr: 0x10220, symSize: 0x70 }
  - { offsetInCU: 0x1EB4, offset: 0x8416C, size: 0x8, addend: 0x0, symName: '__ZN4core3ptr99drop_in_place$LT$alloc..vec..into_iter..IntoIter$LT$proc_macro..bridge..client..TokenStream$GT$$GT$17ha357dc069889c8d5E', symObjAddr: 0x2300, symBinAddr: 0x10290, symSize: 0xE0 }
  - { offsetInCU: 0x28ED, offset: 0x84BA5, size: 0x8, addend: 0x0, symName: '__ZN4core3ops8function6FnOnce40call_once$u7b$$u7b$vtable.shim$u7d$$u7d$17h177cffec084b4d8bE', symObjAddr: 0x460, symBinAddr: 0xFA30, symSize: 0xB0 }
  - { offsetInCU: 0x2A1C, offset: 0x84CD4, size: 0x8, addend: 0x0, symName: '__ZN4core3ops8function6FnOnce40call_once$u7b$$u7b$vtable.shim$u7d$$u7d$17hf87efcce8fd6af08E', symObjAddr: 0x510, symBinAddr: 0xFAE0, symSize: 0xC0 }
  - { offsetInCU: 0x2E2D, offset: 0x850E5, size: 0x8, addend: 0x0, symName: '__ZN42_$LT$$RF$T$u20$as$u20$core..fmt..Debug$GT$3fmt17h11d9068b6adc3f07E', symObjAddr: 0x330, symBinAddr: 0xF930, symSize: 0x20 }
  - { offsetInCU: 0x2E48, offset: 0x85100, size: 0x8, addend: 0x0, symName: '__ZN42_$LT$$RF$T$u20$as$u20$core..fmt..Debug$GT$3fmt17h5b7a3fcdf6aba8caE', symObjAddr: 0x360, symBinAddr: 0xF950, symSize: 0x30 }
  - { offsetInCU: 0x2E8D, offset: 0x85145, size: 0x8, addend: 0x0, symName: '__ZN42_$LT$$RF$T$u20$as$u20$core..fmt..Debug$GT$3fmt17h8a9129228e04b5a4E', symObjAddr: 0x390, symBinAddr: 0xF980, symSize: 0x60 }
  - { offsetInCU: 0x2EF5, offset: 0x851AD, size: 0x8, addend: 0x0, symName: '__ZN4core3fmt3num52_$LT$impl$u20$core..fmt..Debug$u20$for$u20$usize$GT$3fmt17h9e5c63f85393f427E', symObjAddr: 0x410, symBinAddr: 0xFA00, symSize: 0x30 }
  - { offsetInCU: 0x2F2A, offset: 0x851E2, size: 0x8, addend: 0x0, symName: '__ZN44_$LT$$RF$T$u20$as$u20$core..fmt..Display$GT$3fmt17h97343c584a9f7f88E', symObjAddr: 0x3F0, symBinAddr: 0xF9E0, symSize: 0x20 }
  - { offsetInCU: 0x3D03, offset: 0x85FBB, size: 0x8, addend: 0x0, symName: '__ZN64_$LT$core..str..error..Utf8Error$u20$as$u20$core..fmt..Debug$GT$3fmt17h4a95f6bc380357bbE', symObjAddr: 0x2BB0, symBinAddr: 0x108C0, symSize: 0x70 }
  - { offsetInCU: 0x418A, offset: 0x86442, size: 0x8, addend: 0x0, symName: __ZN10proc_macro6bridge6symbol6Symbol3new17h84ccafbe5657a2f0E, symObjAddr: 0x51B0, symBinAddr: 0x11860, symSize: 0x760 }
  - { offsetInCU: 0x566D, offset: 0x87925, size: 0x8, addend: 0x0, symName: __ZN10proc_macro6bridge6symbol6Symbol9new_ident17h10fb12c6191546e8E, symObjAddr: 0x5910, symBinAddr: 0x11FC0, symSize: 0x600 }
  - { offsetInCU: 0x5EE9, offset: 0x881A1, size: 0x8, addend: 0x0, symName: __ZN10proc_macro6bridge6symbol6Symbol14invalidate_all17h799a1a827b219709E, symObjAddr: 0x5F10, symBinAddr: 0x125C0, symSize: 0x1C0 }
  - { offsetInCU: 0x63EB, offset: 0x886A3, size: 0x8, addend: 0x0, symName: '__ZN73_$LT$proc_macro..bridge..symbol..Symbol$u20$as$u20$core..fmt..Display$GT$3fmt17hb7885ca32a0cdbaaE', symObjAddr: 0x63A0, symBinAddr: 0x12780, symSize: 0x130 }
  - { offsetInCU: 0x6782, offset: 0x88A3A, size: 0x8, addend: 0x0, symName: '__ZN95_$LT$proc_macro..bridge..symbol..Symbol$u20$as$u20$proc_macro..bridge..rpc..Encode$LT$S$GT$$GT$6encode17hf7c19bda71a5ba94E', symObjAddr: 0x64D0, symBinAddr: 0x128B0, symSize: 0x130 }
  - { offsetInCU: 0x6B41, offset: 0x88DF9, size: 0x8, addend: 0x0, symName: '__ZN10proc_macro6bridge6client24maybe_install_panic_hook28_$u7b$$u7b$closure$u7d$$u7d$28_$u7b$$u7b$closure$u7d$$u7d$17h31b4c1d536860d81E', symObjAddr: 0x4BA0, symBinAddr: 0x112D0, symSize: 0x40 }
  - { offsetInCU: 0x6B95, offset: 0x88E4D, size: 0x8, addend: 0x0, symName: '__ZN95_$LT$proc_macro..bridge..client..state..set..RestoreOnDrop$u20$as$u20$core..ops..drop..Drop$GT$4drop17h03babb14658b945dE', symObjAddr: 0x42A0, symBinAddr: 0x10E10, symSize: 0x20 }
  - { offsetInCU: 0x6D9B, offset: 0x89053, size: 0x8, addend: 0x0, symName: __ZN10proc_macro6bridge6client11TokenStream12concat_trees17h083a7b908f377bd5E, symObjAddr: 0x23A30, symBinAddr: 0x15A80, symSize: 0x580 }
  - { offsetInCU: 0x72D8, offset: 0x89590, size: 0x8, addend: 0x0, symName: __ZN10proc_macro6bridge6client11TokenStream14concat_streams17hb6712fbe2d4b6907E, symObjAddr: 0x23FB0, symBinAddr: 0x16000, symSize: 0x650 }
  - { offsetInCU: 0x7904, offset: 0x89BBC, size: 0x8, addend: 0x0, symName: '__ZN81_$LT$proc_macro..bridge..client..TokenStream$u20$as$u20$core..ops..drop..Drop$GT$4drop17hcea6fec2e664a2f9E', symObjAddr: 0x22E40, symBinAddr: 0x15A60, symSize: 0x20 }
  - { offsetInCU: 0x79AF, offset: 0x89C67, size: 0x8, addend: 0x0, symName: '__ZN10proc_macro6bridge6client6Bridge4with28_$u7b$$u7b$closure$u7d$$u7d$17h7062c8edd8ff29abE', symObjAddr: 0x42C0, symBinAddr: 0x10E30, symSize: 0x440 }
  - { offsetInCU: 0x8152, offset: 0x8A40A, size: 0x8, addend: 0x0, symName: '__ZN78_$LT$proc_macro..bridge..client..TokenStream$u20$as$u20$core..clone..Clone$GT$5clone17h35a4532bda6ae91cE', symObjAddr: 0x3780, symBinAddr: 0x10A70, symSize: 0x3A0 }
  - { offsetInCU: 0x85BD, offset: 0x8A875, size: 0x8, addend: 0x0, symName: __ZN10proc_macro6bridge6client24maybe_install_panic_hook17h6cd9c757e1f795b0E, symObjAddr: 0x4B40, symBinAddr: 0x11270, symSize: 0x60 }
  - { offsetInCU: 0x86FC, offset: 0x8A9B4, size: 0x8, addend: 0x0, symName: __ZN10proc_macro6bridge5arena5Arena4grow17h53778770402b756fE, symObjAddr: 0x3510, symBinAddr: 0x58A20, symSize: 0x130 }
  - { offsetInCU: 0x8D0D, offset: 0x8AFC5, size: 0x8, addend: 0x0, symName: '__ZN76_$LT$proc_macro..bridge..buffer..Buffer$u20$as$u20$core..ops..drop..Drop$GT$4drop17h411783a3c79f9fbbE', symObjAddr: 0x3640, symBinAddr: 0x10930, symSize: 0x90 }
  - { offsetInCU: 0x8DAA, offset: 0x8B062, size: 0x8, addend: 0x0, symName: '__ZN107_$LT$proc_macro..bridge..buffer..Buffer$u20$as$u20$core..convert..From$LT$alloc..vec..Vec$LT$u8$GT$$GT$$GT$4from7reserve17h1def0ed57abacad2E', symObjAddr: 0x36D0, symBinAddr: 0x109C0, symSize: 0x80 }
  - { offsetInCU: 0x8E7B, offset: 0x8B133, size: 0x8, addend: 0x0, symName: '__ZN107_$LT$proc_macro..bridge..buffer..Buffer$u20$as$u20$core..convert..From$LT$alloc..vec..Vec$LT$u8$GT$$GT$$GT$4from4drop17h288ba1dc51dc809fE', symObjAddr: 0x3750, symBinAddr: 0x10A40, symSize: 0x30 }
  - { offsetInCU: 0x9041, offset: 0x8B2F9, size: 0x8, addend: 0x0, symName: '__ZN77_$LT$$RF$$u5b$u8$u5d$$u20$as$u20$proc_macro..bridge..rpc..Encode$LT$S$GT$$GT$6encode17hfa01968ce5ffc225E', symObjAddr: 0x4BE0, symBinAddr: 0x11310, symSize: 0x240 }
  - { offsetInCU: 0x921F, offset: 0x8B4D7, size: 0x8, addend: 0x0, symName: '__ZN71_$LT$$RF$str$u20$as$u20$proc_macro..bridge..rpc..DecodeMut$LT$S$GT$$GT$6decode17h797de601677c1dc6E', symObjAddr: 0x4E20, symBinAddr: 0x11550, symSize: 0xB0 }
  - { offsetInCU: 0x93E4, offset: 0x8B69C, size: 0x8, addend: 0x0, symName: '__ZN155_$LT$proc_macro..bridge..rpc..PanicMessage$u20$as$u20$core..convert..From$LT$alloc..boxed..Box$LT$dyn$u20$core..any..Any$u2b$core..marker..Send$GT$$GT$$GT$4from17h94de2a090f69f110E', symObjAddr: 0x4ED0, symBinAddr: 0x11600, symSize: 0x160 }
  - { offsetInCU: 0x962B, offset: 0x8B8E3, size: 0x8, addend: 0x0, symName: '__ZN10proc_macro6bridge3rpc165_$LT$impl$u20$core..convert..From$LT$proc_macro..bridge..rpc..PanicMessage$GT$$u20$for$u20$alloc..boxed..Box$LT$dyn$u20$core..any..Any$u2b$core..marker..Send$GT$$GT$4from17h0a1f9efcf61edf6aE', symObjAddr: 0x5030, symBinAddr: 0x11760, symSize: 0x100 }
  - { offsetInCU: 0x99E8, offset: 0x8BCA0, size: 0x8, addend: 0x0, symName: '__ZN10proc_macro6bridge107_$LT$impl$u20$proc_macro..bridge..rpc..DecodeMut$LT$S$GT$$u20$for$u20$core..result..Result$LT$T$C$E$GT$$GT$6decode17h12ccc74c7899099bE', symObjAddr: 0x27590, symBinAddr: 0x18BD0, symSize: 0x120 }
  - { offsetInCU: 0x9B9F, offset: 0x8BE57, size: 0x8, addend: 0x0, symName: '__ZN10proc_macro6bridge107_$LT$impl$u20$proc_macro..bridge..rpc..DecodeMut$LT$S$GT$$u20$for$u20$core..result..Result$LT$T$C$E$GT$$GT$6decode17hb94b4e38bd12c647E', symObjAddr: 0x27910, symBinAddr: 0x18CF0, symSize: 0x140 }
  - { offsetInCU: 0x9DC5, offset: 0x8C07D, size: 0x8, addend: 0x0, symName: '__ZN10proc_macro6bridge103_$LT$impl$u20$proc_macro..bridge..rpc..DecodeMut$LT$S$GT$$u20$for$u20$core..option..Option$LT$T$GT$$GT$6decode17h9f26d10bfee661adE', symObjAddr: 0x274A0, symBinAddr: 0x18AE0, symSize: 0xF0 }
  - { offsetInCU: 0xA007, offset: 0x8C2BF, size: 0x8, addend: 0x0, symName: '__ZN10proc_macro6bridge100_$LT$impl$u20$proc_macro..bridge..rpc..Encode$LT$S$GT$$u20$for$u20$core..option..Option$LT$T$GT$$GT$6encode17h37897622a28015fdE', symObjAddr: 0x27140, symBinAddr: 0x18780, symSize: 0x360 }
  - { offsetInCU: 0xA36A, offset: 0x8C622, size: 0x8, addend: 0x0, symName: '__ZN97_$LT$proc_macro..bridge..api_tags..Method$u20$as$u20$proc_macro..bridge..rpc..Encode$LT$S$GT$$GT$6encode17h079368ae9ce4b768E', symObjAddr: 0x24A00, symBinAddr: 0x16650, symSize: 0x2130 }
  - { offsetInCU: 0xBCE0, offset: 0x8DF98, size: 0x8, addend: 0x0, symName: '__ZN106_$LT$proc_macro..bridge..Literal$LT$Sp$C$Sy$GT$$u20$as$u20$proc_macro..bridge..rpc..DecodeMut$LT$S$GT$$GT$6decode17hcaa4a989c7e34114E', symObjAddr: 0x27B50, symBinAddr: 0x18E30, symSize: 0x190 }
  - { offsetInCU: 0xC096, offset: 0x8E34E, size: 0x8, addend: 0x0, symName: '__ZN125_$LT$proc_macro..bridge..TokenTree$LT$TokenStream$C$Span$C$Symbol$GT$$u20$as$u20$proc_macro..bridge..rpc..Encode$LT$S$GT$$GT$6encode17h22b5312202558feaE', symObjAddr: 0x27CE0, symBinAddr: 0x18FC0, symSize: 0x1EF0 }
  - { offsetInCU: 0xD939, offset: 0x8FBF1, size: 0x8, addend: 0x0, symName: __ZN10proc_macro6escape12escape_bytes17hef13c363ae167412E, symObjAddr: 0x6D30, symBinAddr: 0x129E0, symSize: 0x9F0 }
  - { offsetInCU: 0xE71B, offset: 0x909D3, size: 0x8, addend: 0x0, symName: __ZN10proc_macro12is_available17hf110614d06e56398E, symObjAddr: 0x7720, symBinAddr: 0x133D0, symSize: 0x20 }
  - { offsetInCU: 0xE7CE, offset: 0x90A86, size: 0x8, addend: 0x0, symName: '__ZN70_$LT$proc_macro..TokenStream$u20$as$u20$core..str..traits..FromStr$GT$8from_str17h62674dbe3f09105bE', symObjAddr: 0x8000, symBinAddr: 0x133F0, symSize: 0x280 }
  - { offsetInCU: 0xEB36, offset: 0x90DEE, size: 0x8, addend: 0x0, symName: '__ZN67_$LT$proc_macro..TokenStream$u20$as$u20$alloc..string..ToString$GT$9to_string17hee5587fd1786b3eeE', symObjAddr: 0x8280, symBinAddr: 0x13670, symSize: 0x3D0 }
  - { offsetInCU: 0xEFE9, offset: 0x912A1, size: 0x8, addend: 0x0, symName: '__ZN93_$LT$proc_macro..token_stream..IntoIter$u20$as$u20$core..iter..traits..iterator..Iterator$GT$4next17hf776b5d049a74596E', symObjAddr: 0x9180, symBinAddr: 0x14110, symSize: 0xB0 }
  - { offsetInCU: 0xF09A, offset: 0x91352, size: 0x8, addend: 0x0, symName: '__ZN10proc_macro12token_stream95_$LT$impl$u20$core..iter..traits..collect..IntoIterator$u20$for$u20$proc_macro..TokenStream$GT$9into_iter17hd1cf7f2af42fb6f4E', symObjAddr: 0x92A0, symBinAddr: 0x141C0, symSize: 0xB20 }
  - { offsetInCU: 0x1052C, offset: 0x927E4, size: 0x8, addend: 0x0, symName: '__ZN92_$LT$proc_macro..TokenStream$u20$as$u20$core..convert..From$LT$proc_macro..TokenTree$GT$$GT$4from17he17a9af57e23d24fE', symObjAddr: 0x88C0, symBinAddr: 0x13A40, symSize: 0x370 }
  - { offsetInCU: 0x10A6F, offset: 0x92D27, size: 0x8, addend: 0x0, symName: __ZN10proc_macro17ConcatTreesHelper3new17he2b2a861ad1abb6bE, symObjAddr: 0x8C30, symBinAddr: 0x13DB0, symSize: 0x90 }
  - { offsetInCU: 0x10B3F, offset: 0x92DF7, size: 0x8, addend: 0x0, symName: __ZN10proc_macro17ConcatTreesHelper4push17h01ded3971caf2e8cE, symObjAddr: 0x8CC0, symBinAddr: 0x13E40, symSize: 0x140 }
  - { offsetInCU: 0x10CB0, offset: 0x92F68, size: 0x8, addend: 0x0, symName: __ZN10proc_macro17ConcatTreesHelper9append_to17h6c679e699675a012E, symObjAddr: 0x8E30, symBinAddr: 0x13F80, symSize: 0x40 }
  - { offsetInCU: 0x10D66, offset: 0x9301E, size: 0x8, addend: 0x0, symName: __ZN10proc_macro19ConcatStreamsHelper3new17he00a9db4945c205fE, symObjAddr: 0x8E70, symBinAddr: 0x13FC0, symSize: 0x80 }
  - { offsetInCU: 0x10E36, offset: 0x930EE, size: 0x8, addend: 0x0, symName: __ZN10proc_macro19ConcatStreamsHelper4push17hf2e8f627833988dfE, symObjAddr: 0x8EF0, symBinAddr: 0x14040, symSize: 0x70 }
  - { offsetInCU: 0x10F43, offset: 0x931FB, size: 0x8, addend: 0x0, symName: __ZN10proc_macro19ConcatStreamsHelper9append_to17h421fc949f872f35cE, symObjAddr: 0x8FB0, symBinAddr: 0x140B0, symSize: 0x60 }
  - { offsetInCU: 0x10F62, offset: 0x9321A, size: 0x8, addend: 0x0, symName: __ZN10proc_macro19ConcatStreamsHelper9append_to17h421fc949f872f35cE, symObjAddr: 0x8FB0, symBinAddr: 0x140B0, symSize: 0x60 }
  - { offsetInCU: 0x10F77, offset: 0x9322F, size: 0x8, addend: 0x0, symName: __ZN10proc_macro19ConcatStreamsHelper9append_to17h421fc949f872f35cE, symObjAddr: 0x8FB0, symBinAddr: 0x140B0, symSize: 0x60 }
  - { offsetInCU: 0x11091, offset: 0x93349, size: 0x8, addend: 0x0, symName: __ZN10proc_macro4Span9call_site17hc3a0f6383b3f76dbE, symObjAddr: 0x1BD40, symBinAddr: 0x14CE0, symSize: 0x70 }
  - { offsetInCU: 0x1118C, offset: 0x93444, size: 0x8, addend: 0x0, symName: __ZN10proc_macro5Ident3new17h6a157d8d92b6ee2dE, symObjAddr: 0x20930, symBinAddr: 0x151C0, symSize: 0x30 }
  - { offsetInCU: 0x111A0, offset: 0x93458, size: 0x8, addend: 0x0, symName: __ZN10proc_macro5Ident7new_raw17hb7cfe9c96f0733e1E, symObjAddr: 0x20960, symBinAddr: 0x151F0, symSize: 0x30 }
  - { offsetInCU: 0x111CF, offset: 0x93487, size: 0x8, addend: 0x0, symName: __ZN10proc_macro5Punct3new17ha50bed01c7aa9a79E, symObjAddr: 0x20510, symBinAddr: 0x14F50, symSize: 0x270 }
  - { offsetInCU: 0x1133A, offset: 0x935F2, size: 0x8, addend: 0x0, symName: __ZN10proc_macro5Group3new17h17886db804e98257E, symObjAddr: 0x20200, symBinAddr: 0x14D50, symSize: 0xB0 }
  - { offsetInCU: 0x114F0, offset: 0x937A8, size: 0x8, addend: 0x0, symName: __ZN10proc_macro5Group6stream17h3016259f238283d6E, symObjAddr: 0x202B0, symBinAddr: 0x14E00, symSize: 0x20 }
  - { offsetInCU: 0x11541, offset: 0x937F9, size: 0x8, addend: 0x0, symName: __ZN10proc_macro7Literal6string17hfa9f74639bd84e3aE, symObjAddr: 0x215E0, symBinAddr: 0x15490, symSize: 0xE0 }
  - { offsetInCU: 0x1181B, offset: 0x93AD3, size: 0x8, addend: 0x0, symName: '__ZN61_$LT$proc_macro..Group$u20$as$u20$alloc..string..ToString$GT$9to_string17h6ba324c466a2104aE', symObjAddr: 0x202D0, symBinAddr: 0x14E20, symSize: 0xB0 }
  - { offsetInCU: 0x11A6B, offset: 0x93D23, size: 0x8, addend: 0x0, symName: '__ZN56_$LT$proc_macro..Group$u20$as$u20$core..fmt..Display$GT$3fmt17hc3efeae0a9561272E', symObjAddr: 0x20380, symBinAddr: 0x14ED0, symSize: 0x80 }
  - { offsetInCU: 0x11C26, offset: 0x93EDE, size: 0x8, addend: 0x0, symName: '__ZN61_$LT$proc_macro..Ident$u20$as$u20$alloc..string..ToString$GT$9to_string17h79a6e3c40aed8698E', symObjAddr: 0x20990, symBinAddr: 0x15220, symSize: 0x220 }
  - { offsetInCU: 0x1209C, offset: 0x94354, size: 0x8, addend: 0x0, symName: '__ZN56_$LT$proc_macro..Ident$u20$as$u20$core..fmt..Display$GT$3fmt17hfb95a6d246c922e6E', symObjAddr: 0x20BB0, symBinAddr: 0x15440, symSize: 0x50 }
  - { offsetInCU: 0x120D8, offset: 0x94390, size: 0x8, addend: 0x0, symName: '__ZN10proc_macro7Literal20with_stringify_parts28_$u7b$$u7b$closure$u7d$$u7d$17h43f8c86d4bfeca6aE', symObjAddr: 0x21CD0, symBinAddr: 0x15570, symSize: 0x220 }
  - { offsetInCU: 0x122DF, offset: 0x94597, size: 0x8, addend: 0x0, symName: '__ZN58_$LT$proc_macro..Literal$u20$as$u20$core..fmt..Display$GT$3fmt17h0efb1b8947e23152E', symObjAddr: 0x225C0, symBinAddr: 0x15790, symSize: 0x2D0 }
  - { offsetInCU: 0x129F3, offset: 0x94CAB, size: 0x8, addend: 0x0, symName: '__ZN3std3sys12thread_local6native4lazy20Storage$LT$T$C$D$GT$10initialize17h66d9ebbd8dc8ecd4E', symObjAddr: 0x60, symBinAddr: 0x57F10, symSize: 0x1D0 }
  - { offsetInCU: 0x12B5B, offset: 0x94E13, size: 0x8, addend: 0x0, symName: __ZN3std3sys12thread_local6native4lazy7destroy17h437fca99d9815f74E, symObjAddr: 0x230, symBinAddr: 0xF840, symSize: 0x40 }
  - { offsetInCU: 0x12C68, offset: 0x94F20, size: 0x8, addend: 0x0, symName: '__ZN3std4sync4once4Once9call_once28_$u7b$$u7b$closure$u7d$$u7d$17h77d21fec73cae805E', symObjAddr: 0x270, symBinAddr: 0xF880, symSize: 0xB0 }
  - { offsetInCU: 0x1332F, offset: 0x955E7, size: 0x8, addend: 0x0, symName: '__ZN5alloc7raw_vec19RawVec$LT$T$C$A$GT$8grow_one17h1ffeebdd29746b42E', symObjAddr: 0x28F0, symBinAddr: 0x10600, symSize: 0xB0 }
  - { offsetInCU: 0x1347B, offset: 0x95733, size: 0x8, addend: 0x0, symName: '__ZN5alloc7raw_vec19RawVec$LT$T$C$A$GT$8grow_one17h25d1ced046b0365cE', symObjAddr: 0x29A0, symBinAddr: 0x106B0, symSize: 0xB0 }
  - { offsetInCU: 0x135AB, offset: 0x95863, size: 0x8, addend: 0x0, symName: '__ZN5alloc7raw_vec19RawVec$LT$T$C$A$GT$8grow_one17h857dbcf53636703bE', symObjAddr: 0x2A50, symBinAddr: 0x10760, symSize: 0xA0 }
  - { offsetInCU: 0x136E1, offset: 0x95999, size: 0x8, addend: 0x0, symName: '__ZN5alloc7raw_vec19RawVec$LT$T$C$A$GT$8grow_one17hd24748755660fe21E', symObjAddr: 0x2AF0, symBinAddr: 0x10800, symSize: 0xC0 }
  - { offsetInCU: 0x139B5, offset: 0x95C6D, size: 0x8, addend: 0x0, symName: __ZN5alloc7raw_vec11finish_grow17he866031771cef7a3E, symObjAddr: 0x27B0, symBinAddr: 0x10560, symSize: 0xA0 }
  - { offsetInCU: 0x13A41, offset: 0x95CF9, size: 0x8, addend: 0x0, symName: '__ZN5alloc7raw_vec19RawVec$LT$T$C$A$GT$7reserve21do_reserve_and_handle17hbb5c9b04556c9164E', symObjAddr: 0x2850, symBinAddr: 0x580E0, symSize: 0xA0 }
  - { offsetInCU: 0x14096, offset: 0x9634E, size: 0x8, addend: 0x0, symName: __ZN5alloc3str17join_generic_copy17h6db75af0444e00abE, symObjAddr: 0x25C0, symBinAddr: 0x10370, symSize: 0x1F0 }
  - { offsetInCU: 0x14BC0, offset: 0x96E78, size: 0x8, addend: 0x0, symName: '__ZN9hashbrown3raw21RawTable$LT$T$C$A$GT$14reserve_rehash17h767c1db44bfdcfbfE', symObjAddr: 0x2C70, symBinAddr: 0x58180, symSize: 0x8A0 }
  - { offsetInCU: 0x474, offset: 0x98AA4, size: 0x8, addend: 0x0, symName: '__ZN5alloc11collections5btree3map25IntoIter$LT$K$C$V$C$A$GT$10dying_next17h18a81d86214d4c3fE', symObjAddr: 0x11590, symBinAddr: 0x27F00, symSize: 0x400 }
  - { offsetInCU: 0x7FC, offset: 0x98E2C, size: 0x8, addend: 0x0, symName: '__ZN5alloc11collections5btree3map25IntoIter$LT$K$C$V$C$A$GT$10dying_next17h46269187b1d1f0d5E', symObjAddr: 0x11990, symBinAddr: 0x28300, symSize: 0x400 }
  - { offsetInCU: 0x1011, offset: 0x99641, size: 0x8, addend: 0x0, symName: '__ZN5alloc7raw_vec19RawVec$LT$T$C$A$GT$8grow_one17h1b2de17ded80b0efE', symObjAddr: 0x15320, symBinAddr: 0x28A80, symSize: 0xC0 }
  - { offsetInCU: 0x115D, offset: 0x9978D, size: 0x8, addend: 0x0, symName: '__ZN5alloc7raw_vec19RawVec$LT$T$C$A$GT$8grow_one17h1ed5ddb334986877E', symObjAddr: 0x153E0, symBinAddr: 0x28B40, symSize: 0xB0 }
  - { offsetInCU: 0x12A9, offset: 0x998D9, size: 0x8, addend: 0x0, symName: '__ZN5alloc7raw_vec19RawVec$LT$T$C$A$GT$8grow_one17h1f2ce5cd493bf47dE', symObjAddr: 0x15490, symBinAddr: 0x28BF0, symSize: 0xC0 }
  - { offsetInCU: 0x13F5, offset: 0x99A25, size: 0x8, addend: 0x0, symName: '__ZN5alloc7raw_vec19RawVec$LT$T$C$A$GT$8grow_one17h1f82d5665bc3baa6E', symObjAddr: 0x15550, symBinAddr: 0x28CB0, symSize: 0xB0 }
  - { offsetInCU: 0x1541, offset: 0x99B71, size: 0x8, addend: 0x0, symName: '__ZN5alloc7raw_vec19RawVec$LT$T$C$A$GT$8grow_one17h23f2ece7dc7f8ac4E', symObjAddr: 0x15600, symBinAddr: 0x28D60, symSize: 0xC0 }
  - { offsetInCU: 0x168D, offset: 0x99CBD, size: 0x8, addend: 0x0, symName: '__ZN5alloc7raw_vec19RawVec$LT$T$C$A$GT$8grow_one17h2d7cf4f58f17dc0bE', symObjAddr: 0x156C0, symBinAddr: 0x28E20, symSize: 0xB0 }
  - { offsetInCU: 0x17D9, offset: 0x99E09, size: 0x8, addend: 0x0, symName: '__ZN5alloc7raw_vec19RawVec$LT$T$C$A$GT$8grow_one17h2ebad2aca9269935E', symObjAddr: 0x15770, symBinAddr: 0x28ED0, symSize: 0xB0 }
  - { offsetInCU: 0x1925, offset: 0x99F55, size: 0x8, addend: 0x0, symName: '__ZN5alloc7raw_vec19RawVec$LT$T$C$A$GT$8grow_one17h6d578489e6325525E', symObjAddr: 0x15820, symBinAddr: 0x28F80, symSize: 0xC0 }
  - { offsetInCU: 0x1A7F, offset: 0x9A0AF, size: 0x8, addend: 0x0, symName: '__ZN5alloc7raw_vec19RawVec$LT$T$C$A$GT$8grow_one17h76cd5bb8e3249a81E', symObjAddr: 0x158E0, symBinAddr: 0x29040, symSize: 0xB0 }
  - { offsetInCU: 0x1BCB, offset: 0x9A1FB, size: 0x8, addend: 0x0, symName: '__ZN5alloc7raw_vec19RawVec$LT$T$C$A$GT$8grow_one17h8d39e6a3bd3ed510E', symObjAddr: 0x15A40, symBinAddr: 0x290F0, symSize: 0xC0 }
  - { offsetInCU: 0x1D17, offset: 0x9A347, size: 0x8, addend: 0x0, symName: '__ZN5alloc7raw_vec19RawVec$LT$T$C$A$GT$8grow_one17h9202c252dcd4a0d8E', symObjAddr: 0x15B00, symBinAddr: 0x291B0, symSize: 0xC0 }
  - { offsetInCU: 0x1E63, offset: 0x9A493, size: 0x8, addend: 0x0, symName: '__ZN5alloc7raw_vec19RawVec$LT$T$C$A$GT$8grow_one17hb4b7b3f2aea33bb4E', symObjAddr: 0x15BC0, symBinAddr: 0x29270, symSize: 0xC0 }
  - { offsetInCU: 0x1F93, offset: 0x9A5C3, size: 0x8, addend: 0x0, symName: '__ZN5alloc7raw_vec19RawVec$LT$T$C$A$GT$8grow_one17hd91c9d4c6a9bca00E', symObjAddr: 0x15C80, symBinAddr: 0x29330, symSize: 0xA0 }
  - { offsetInCU: 0x27ED, offset: 0x9AE1D, size: 0x8, addend: 0x0, symName: __ZN5alloc7raw_vec11finish_grow17hcddad2319b47952dE, symObjAddr: 0x14F10, symBinAddr: 0x289E0, symSize: 0xA0 }
  - { offsetInCU: 0x2879, offset: 0x9AEA9, size: 0x8, addend: 0x0, symName: '__ZN5alloc7raw_vec19RawVec$LT$T$C$A$GT$7reserve21do_reserve_and_handle17h196a69aba8c2d956E', symObjAddr: 0x14FB0, symBinAddr: 0x58E50, symSize: 0xC0 }
  - { offsetInCU: 0x29A9, offset: 0x9AFD9, size: 0x8, addend: 0x0, symName: '__ZN5alloc7raw_vec19RawVec$LT$T$C$A$GT$7reserve21do_reserve_and_handle17h402fc453247f963fE', symObjAddr: 0x15070, symBinAddr: 0x58F10, symSize: 0xB0 }
  - { offsetInCU: 0x2AD9, offset: 0x9B109, size: 0x8, addend: 0x0, symName: '__ZN5alloc7raw_vec19RawVec$LT$T$C$A$GT$7reserve21do_reserve_and_handle17h83fb1e8109159aa3E', symObjAddr: 0x151C0, symBinAddr: 0x58FC0, symSize: 0xA0 }
  - { offsetInCU: 0x2BF3, offset: 0x9B223, size: 0x8, addend: 0x0, symName: '__ZN5alloc7raw_vec19RawVec$LT$T$C$A$GT$7reserve21do_reserve_and_handle17h86549d0267a347f8E', symObjAddr: 0x15260, symBinAddr: 0x59060, symSize: 0xC0 }
  - { offsetInCU: 0x3B36, offset: 0x9C166, size: 0x8, addend: 0x0, symName: '__ZN5alloc4sync16Arc$LT$T$C$A$GT$9drop_slow17h271286c795991e6eE', symObjAddr: 0x14C30, symBinAddr: 0x28700, symSize: 0x90 }
  - { offsetInCU: 0x3CAF, offset: 0x9C2DF, size: 0x8, addend: 0x0, symName: '__ZN5alloc4sync16Arc$LT$T$C$A$GT$9drop_slow17h4eee9a7bc87850e1E', symObjAddr: 0x14CC0, symBinAddr: 0x28790, symSize: 0x80 }
  - { offsetInCU: 0x3F2E, offset: 0x9C55E, size: 0x8, addend: 0x0, symName: '__ZN5alloc4sync16Arc$LT$T$C$A$GT$9drop_slow17h5baac5b2e7af83faE', symObjAddr: 0x14D40, symBinAddr: 0x28810, symSize: 0x60 }
  - { offsetInCU: 0x4124, offset: 0x9C754, size: 0x8, addend: 0x0, symName: '__ZN5alloc4sync16Arc$LT$T$C$A$GT$9drop_slow17h9ffcc698eacdf57eE', symObjAddr: 0x14DA0, symBinAddr: 0x28870, symSize: 0x30 }
  - { offsetInCU: 0x4225, offset: 0x9C855, size: 0x8, addend: 0x0, symName: '__ZN5alloc4sync16Arc$LT$T$C$A$GT$9drop_slow17hbd808d258d0d1d92E', symObjAddr: 0x14DD0, symBinAddr: 0x288A0, symSize: 0xC0 }
  - { offsetInCU: 0x44A7, offset: 0x9CAD7, size: 0x8, addend: 0x0, symName: '__ZN5alloc4sync16Arc$LT$T$C$A$GT$9drop_slow17he929e03fbfc85295E', symObjAddr: 0x14E90, symBinAddr: 0x28960, symSize: 0x80 }
  - { offsetInCU: 0x4D55, offset: 0x9D385, size: 0x8, addend: 0x0, symName: '__ZN58_$LT$alloc..string..String$u20$as$u20$core..fmt..Debug$GT$3fmt17h46296bde07017096E', symObjAddr: 0xF670, symBinAddr: 0x27D40, symSize: 0x20 }
  - { offsetInCU: 0x4E35, offset: 0x9D465, size: 0x8, addend: 0x0, symName: '__ZN58_$LT$alloc..string..String$u20$as$u20$core..fmt..Write$GT$10write_char17h04bc467bd68a934bE', symObjAddr: 0xF690, symBinAddr: 0x27D60, symSize: 0x140 }
  - { offsetInCU: 0x4FD4, offset: 0x9D604, size: 0x8, addend: 0x0, symName: '__ZN58_$LT$alloc..string..String$u20$as$u20$core..fmt..Write$GT$9write_str17h46a93205c3443fbaE', symObjAddr: 0xF7D0, symBinAddr: 0x27EA0, symSize: 0x60 }
  - { offsetInCU: 0x50BF, offset: 0x9D6EF, size: 0x8, addend: 0x0, symName: '__ZN60_$LT$alloc..string..String$u20$as$u20$core..fmt..Display$GT$3fmt17h0d0eb46f3054e2dfE', symObjAddr: 0x1ED60, symBinAddr: 0x32410, symSize: 0x20 }
  - { offsetInCU: 0x693A, offset: 0x9EF6A, size: 0x8, addend: 0x0, symName: '__ZN4core3ptr104drop_in_place$LT$alloc..vec..Vec$LT$$LP$usize$C$std..backtrace_rs..symbolize..gimli..Mapping$RP$$GT$$GT$17hd64c3526ec62e9d1E', symObjAddr: 0x1900, symBinAddr: 0x1B3F0, symSize: 0xD0 }
  - { offsetInCU: 0x6B0D, offset: 0x9F13D, size: 0x8, addend: 0x0, symName: '__ZN4core3ptr108drop_in_place$LT$alloc..collections..btree..map..BTreeMap$LT$u64$C$gimli..read..abbrev..Abbreviation$GT$$GT$17h896b5b8e1cdcf80bE', symObjAddr: 0x1B20, symBinAddr: 0x1B4C0, symSize: 0xD0 }
  - { offsetInCU: 0x6CC0, offset: 0x9F2F0, size: 0x8, addend: 0x0, symName: '__ZN4core3ptr123drop_in_place$LT$addr2line..Context$LT$gimli..read..endian_slice..EndianSlice$LT$gimli..endianity..LittleEndian$GT$$GT$$GT$17h2ef49b54e261394dE', symObjAddr: 0x1C70, symBinAddr: 0x1B590, symSize: 0x130 }
  - { offsetInCU: 0x6FC6, offset: 0x9F5F6, size: 0x8, addend: 0x0, symName: '__ZN4core3ptr123drop_in_place$LT$addr2line..ResUnit$LT$gimli..read..endian_slice..EndianSlice$LT$gimli..endianity..LittleEndian$GT$$GT$$GT$17hdeaa58f877242283E', symObjAddr: 0x1DA0, symBinAddr: 0x1B6C0, symSize: 0x100 }
  - { offsetInCU: 0x7187, offset: 0x9F7B7, size: 0x8, addend: 0x0, symName: '__ZN4core3ptr123drop_in_place$LT$addr2line..SupUnit$LT$gimli..read..endian_slice..EndianSlice$LT$gimli..endianity..LittleEndian$GT$$GT$$GT$17h8208c1c32df374e8E', symObjAddr: 0x1EA0, symBinAddr: 0x1B7C0, symSize: 0x50 }
  - { offsetInCU: 0x7231, offset: 0x9F861, size: 0x8, addend: 0x0, symName: '__ZN4core3ptr130drop_in_place$LT$gimli..read..dwarf..Dwarf$LT$gimli..read..endian_slice..EndianSlice$LT$gimli..endianity..LittleEndian$GT$$GT$$GT$17he2c802b894b6a339E', symObjAddr: 0x20E0, symBinAddr: 0x1B810, symSize: 0x60 }
  - { offsetInCU: 0x729A, offset: 0x9F8CA, size: 0x8, addend: 0x0, symName: '__ZN4core3ptr131drop_in_place$LT$alloc..boxed..Box$LT$dyn$u20$core..ops..function..FnOnce$LT$$LP$$RP$$GT$$u2b$Output$u20$$u3d$$u20$$LP$$RP$$GT$$GT$17h7715eebd5e8ef4d6E', symObjAddr: 0x2140, symBinAddr: 0x1B870, symSize: 0x70 }
  - { offsetInCU: 0x7382, offset: 0x9F9B2, size: 0x8, addend: 0x0, symName: '__ZN4core3ptr137drop_in_place$LT$gimli..read..dwarf..Unit$LT$gimli..read..endian_slice..EndianSlice$LT$gimli..endianity..LittleEndian$GT$$C$usize$GT$$GT$17hecb88828dcfed016E', symObjAddr: 0x21B0, symBinAddr: 0x1B8E0, symSize: 0x50 }
  - { offsetInCU: 0x7440, offset: 0x9FA70, size: 0x8, addend: 0x0, symName: '__ZN4core3ptr144drop_in_place$LT$alloc..vec..Vec$LT$core..option..Option$LT$core..option..Option$LT$std..backtrace_rs..symbolize..gimli..Mapping$GT$$GT$$GT$$GT$17hc9f7f19bdef76e20E', symObjAddr: 0x2200, symBinAddr: 0x1B930, symSize: 0x130 }
  - { offsetInCU: 0x75D5, offset: 0x9FC05, size: 0x8, addend: 0x0, symName: '__ZN4core3ptr146drop_in_place$LT$alloc..vec..Vec$LT$addr2line..ResUnit$LT$gimli..read..endian_slice..EndianSlice$LT$gimli..endianity..LittleEndian$GT$$GT$$GT$$GT$17hd3feb0dd7b6341c0E', symObjAddr: 0x2330, symBinAddr: 0x1BA60, symSize: 0xD0 }
  - { offsetInCU: 0x7730, offset: 0x9FD60, size: 0x8, addend: 0x0, symName: '__ZN4core3ptr146drop_in_place$LT$alloc..vec..Vec$LT$addr2line..SupUnit$LT$gimli..read..endian_slice..EndianSlice$LT$gimli..endianity..LittleEndian$GT$$GT$$GT$$GT$17hd3b520dc1ec8b244E', symObjAddr: 0x2400, symBinAddr: 0x1BB30, symSize: 0x100 }
  - { offsetInCU: 0x78F7, offset: 0x9FF27, size: 0x8, addend: 0x0, symName: '__ZN4core3ptr158drop_in_place$LT$alloc..boxed..Box$LT$$u5b$addr2line..ResUnit$LT$gimli..read..endian_slice..EndianSlice$LT$gimli..endianity..LittleEndian$GT$$GT$$u5d$$GT$$GT$17ha6be907e1e9cc0b3E', symObjAddr: 0x2600, symBinAddr: 0x1BC30, symSize: 0xC0 }
  - { offsetInCU: 0x79EC, offset: 0xA001C, size: 0x8, addend: 0x0, symName: '__ZN4core3ptr158drop_in_place$LT$alloc..boxed..Box$LT$$u5b$addr2line..SupUnit$LT$gimli..read..endian_slice..EndianSlice$LT$gimli..endianity..LittleEndian$GT$$GT$$u5d$$GT$$GT$17hf844b2c47a76cbe5E', symObjAddr: 0x26C0, symBinAddr: 0x1BCF0, symSize: 0xE0 }
  - { offsetInCU: 0x7B85, offset: 0xA01B5, size: 0x8, addend: 0x0, symName: '__ZN4core3ptr159drop_in_place$LT$alloc..sync..ArcInner$LT$gimli..read..dwarf..Dwarf$LT$gimli..read..endian_slice..EndianSlice$LT$gimli..endianity..LittleEndian$GT$$GT$$GT$$GT$17hd21332c93e9cd0a3E', symObjAddr: 0x27A0, symBinAddr: 0x1BDD0, symSize: 0x60 }
  - { offsetInCU: 0x7C6D, offset: 0xA029D, size: 0x8, addend: 0x0, symName: '__ZN4core3ptr174drop_in_place$LT$core..result..Result$LT$addr2line..FrameIter$LT$gimli..read..endian_slice..EndianSlice$LT$gimli..endianity..LittleEndian$GT$$GT$$C$gimli..read..Error$GT$$GT$17h37a4d09a5bab7734E', symObjAddr: 0x2800, symBinAddr: 0x1BE30, symSize: 0x40 }
  - { offsetInCU: 0x7DE1, offset: 0xA0411, size: 0x8, addend: 0x0, symName: '__ZN4core3ptr181drop_in_place$LT$core..option..Option$LT$gimli..read..line..IncompleteLineProgram$LT$gimli..read..endian_slice..EndianSlice$LT$gimli..endianity..LittleEndian$GT$$C$usize$GT$$GT$$GT$17ha4c6928a2cf5b75aE', symObjAddr: 0x2870, symBinAddr: 0x1BE70, symSize: 0xA0 }
  - { offsetInCU: 0x80A5, offset: 0xA06D5, size: 0x8, addend: 0x0, symName: '__ZN4core3ptr184drop_in_place$LT$core..result..Result$LT$addr2line..function..Functions$LT$gimli..read..endian_slice..EndianSlice$LT$gimli..endianity..LittleEndian$GT$$GT$$C$gimli..read..Error$GT$$GT$17h559cfbb2de29274eE', symObjAddr: 0x2910, symBinAddr: 0x1BF10, symSize: 0xE0 }
  - { offsetInCU: 0x8376, offset: 0xA09A6, size: 0x8, addend: 0x0, symName: '__ZN4core3ptr215drop_in_place$LT$std..sys..thread_local..native..lazy..State$LT$core..cell..Cell$LT$core..option..Option$LT$alloc..sync..Arc$LT$std..sync..mutex..Mutex$LT$alloc..vec..Vec$LT$u8$GT$$GT$$GT$$GT$$GT$$C$$LP$$RP$$GT$$GT$17ha69e16112f70cc34E', symObjAddr: 0x2A10, symBinAddr: 0x1BFF0, symSize: 0x30 }
  - { offsetInCU: 0x83FB, offset: 0xA0A2B, size: 0x8, addend: 0x0, symName: '__ZN4core3ptr250drop_in_place$LT$$LP$gimli..read..UnitOffset$C$addr2line..lazy..LazyCell$LT$core..result..Result$LT$addr2line..function..Function$LT$gimli..read..endian_slice..EndianSlice$LT$gimli..endianity..LittleEndian$GT$$GT$$C$gimli..read..Error$GT$$GT$$RP$$GT$17hf5dc2e31b3559957E', symObjAddr: 0x2A40, symBinAddr: 0x1C020, symSize: 0x60 }
  - { offsetInCU: 0x8412, offset: 0xA0A42, size: 0x8, addend: 0x0, symName: '__ZN4core3ptr250drop_in_place$LT$$LP$gimli..read..UnitOffset$C$addr2line..lazy..LazyCell$LT$core..result..Result$LT$addr2line..function..Function$LT$gimli..read..endian_slice..EndianSlice$LT$gimli..endianity..LittleEndian$GT$$GT$$C$gimli..read..Error$GT$$GT$$RP$$GT$17hf5dc2e31b3559957E', symObjAddr: 0x2A40, symBinAddr: 0x1C020, symSize: 0x60 }
  - { offsetInCU: 0x8427, offset: 0xA0A57, size: 0x8, addend: 0x0, symName: '__ZN4core3ptr250drop_in_place$LT$$LP$gimli..read..UnitOffset$C$addr2line..lazy..LazyCell$LT$core..result..Result$LT$addr2line..function..Function$LT$gimli..read..endian_slice..EndianSlice$LT$gimli..endianity..LittleEndian$GT$$GT$$C$gimli..read..Error$GT$$GT$$RP$$GT$17hf5dc2e31b3559957E', symObjAddr: 0x2A40, symBinAddr: 0x1C020, symSize: 0x60 }
  - { offsetInCU: 0x843C, offset: 0xA0A6C, size: 0x8, addend: 0x0, symName: '__ZN4core3ptr250drop_in_place$LT$$LP$gimli..read..UnitOffset$C$addr2line..lazy..LazyCell$LT$core..result..Result$LT$addr2line..function..Function$LT$gimli..read..endian_slice..EndianSlice$LT$gimli..endianity..LittleEndian$GT$$GT$$C$gimli..read..Error$GT$$GT$$RP$$GT$17hf5dc2e31b3559957E', symObjAddr: 0x2A40, symBinAddr: 0x1C020, symSize: 0x60 }
  - { offsetInCU: 0x857B, offset: 0xA0BAB, size: 0x8, addend: 0x0, symName: '__ZN4core3ptr273drop_in_place$LT$alloc..vec..Vec$LT$$LP$gimli..read..UnitOffset$C$addr2line..lazy..LazyCell$LT$core..result..Result$LT$addr2line..function..Function$LT$gimli..read..endian_slice..EndianSlice$LT$gimli..endianity..LittleEndian$GT$$GT$$C$gimli..read..Error$GT$$GT$$RP$$GT$$GT$17heb6aa6615a37ff1aE', symObjAddr: 0x2AA0, symBinAddr: 0x1C080, symSize: 0xC0 }
  - { offsetInCU: 0x8790, offset: 0xA0DC0, size: 0x8, addend: 0x0, symName: '__ZN4core3ptr275drop_in_place$LT$gimli..read..line..LineRows$LT$gimli..read..endian_slice..EndianSlice$LT$gimli..endianity..LittleEndian$GT$$C$gimli..read..line..IncompleteLineProgram$LT$gimli..read..endian_slice..EndianSlice$LT$gimli..endianity..LittleEndian$GT$$C$usize$GT$$C$usize$GT$$GT$17hc6e119e385b7ab77E', symObjAddr: 0x2B60, symBinAddr: 0x1C140, symSize: 0x90 }
  - { offsetInCU: 0x89BA, offset: 0xA0FEA, size: 0x8, addend: 0x0, symName: '__ZN4core3ptr280drop_in_place$LT$$LT$alloc..collections..btree..map..IntoIter$LT$K$C$V$C$A$GT$$u20$as$u20$core..ops..drop..Drop$GT$..drop..DropGuard$LT$u64$C$core..result..Result$LT$alloc..sync..Arc$LT$gimli..read..abbrev..Abbreviations$GT$$C$gimli..read..Error$GT$$C$alloc..alloc..Global$GT$$GT$17haa387ba74ff7800eE', symObjAddr: 0x2BF0, symBinAddr: 0x1C1D0, symSize: 0x80 }
  - { offsetInCU: 0x8AD0, offset: 0xA1100, size: 0x8, addend: 0x0, symName: '__ZN4core3ptr285drop_in_place$LT$alloc..boxed..Box$LT$$u5b$$LP$gimli..read..UnitOffset$C$addr2line..lazy..LazyCell$LT$core..result..Result$LT$addr2line..function..Function$LT$gimli..read..endian_slice..EndianSlice$LT$gimli..endianity..LittleEndian$GT$$GT$$C$gimli..read..Error$GT$$GT$$RP$$u5d$$GT$$GT$17ha9d866c795750427E', symObjAddr: 0x2C70, symBinAddr: 0x1C250, symSize: 0xA0 }
  - { offsetInCU: 0x8AE7, offset: 0xA1117, size: 0x8, addend: 0x0, symName: '__ZN4core3ptr285drop_in_place$LT$alloc..boxed..Box$LT$$u5b$$LP$gimli..read..UnitOffset$C$addr2line..lazy..LazyCell$LT$core..result..Result$LT$addr2line..function..Function$LT$gimli..read..endian_slice..EndianSlice$LT$gimli..endianity..LittleEndian$GT$$GT$$C$gimli..read..Error$GT$$GT$$RP$$u5d$$GT$$GT$17ha9d866c795750427E', symObjAddr: 0x2C70, symBinAddr: 0x1C250, symSize: 0xA0 }
  - { offsetInCU: 0x9495, offset: 0xA1AC5, size: 0x8, addend: 0x0, symName: '__ZN4core3ptr383drop_in_place$LT$core..result..Result$LT$core..option..Option$LT$alloc..boxed..Box$LT$$LP$alloc..sync..Arc$LT$gimli..read..dwarf..Dwarf$LT$gimli..read..endian_slice..EndianSlice$LT$gimli..endianity..LittleEndian$GT$$GT$$GT$$C$gimli..read..dwarf..Unit$LT$gimli..read..endian_slice..EndianSlice$LT$gimli..endianity..LittleEndian$GT$$C$usize$GT$$RP$$GT$$GT$$C$gimli..read..Error$GT$$GT$17h5734f377dfec8591E', symObjAddr: 0x2DC0, symBinAddr: 0x1C2F0, symSize: 0xB0 }
  - { offsetInCU: 0x9696, offset: 0xA1CC6, size: 0x8, addend: 0x0, symName: '__ZN4core3ptr41drop_in_place$LT$std..panicking..Hook$GT$17hb6b24b4254eb1cd5E', symObjAddr: 0x2EF0, symBinAddr: 0x1C3A0, symSize: 0x70 }
  - { offsetInCU: 0x978C, offset: 0xA1DBC, size: 0x8, addend: 0x0, symName: '__ZN4core3ptr42drop_in_place$LT$alloc..string..String$GT$17h59db15f85295d131E', symObjAddr: 0x2F60, symBinAddr: 0x1C410, symSize: 0x20 }
  - { offsetInCU: 0x9857, offset: 0xA1E87, size: 0x8, addend: 0x0, symName: '__ZN4core3ptr42drop_in_place$LT$std..io..error..Error$GT$17h4537743dc9fddae3E', symObjAddr: 0x2F80, symBinAddr: 0x1C430, symSize: 0xA0 }
  - { offsetInCU: 0x9AAE, offset: 0xA20DE, size: 0x8, addend: 0x0, symName: '__ZN4core3ptr44drop_in_place$LT$object..read..ObjectMap$GT$17hb75450a95801e694E', symObjAddr: 0x3020, symBinAddr: 0x1C4D0, symSize: 0x50 }
  - { offsetInCU: 0x9BBE, offset: 0xA21EE, size: 0x8, addend: 0x0, symName: '__ZN4core3ptr44drop_in_place$LT$std..thread..PanicGuard$GT$17h49c674bf97cb17c2E', symObjAddr: 0x30D0, symBinAddr: 0x1C520, symSize: 0x50 }
  - { offsetInCU: 0x9C11, offset: 0xA2241, size: 0x8, addend: 0x0, symName: '__ZN4core3ptr44drop_in_place$LT$std..thread..ThreadName$GT$17h9ea89f3b915aba6cE', symObjAddr: 0x3120, symBinAddr: 0x1C570, symSize: 0x30 }
  - { offsetInCU: 0x9CBC, offset: 0xA22EC, size: 0x8, addend: 0x0, symName: '__ZN4core3ptr46drop_in_place$LT$alloc..vec..Vec$LT$u8$GT$$GT$17h9a5e643e9b7c3ef8E', symObjAddr: 0x3150, symBinAddr: 0x1C5A0, symSize: 0x20 }
  - { offsetInCU: 0x9D39, offset: 0xA2369, size: 0x8, addend: 0x0, symName: '__ZN4core3ptr46drop_in_place$LT$std..io..stdio..StdinLock$GT$17h1000111f529ce114E', symObjAddr: 0x3170, symBinAddr: 0x1C5C0, symSize: 0x50 }
  - { offsetInCU: 0x9E96, offset: 0xA24C6, size: 0x8, addend: 0x0, symName: '__ZN4core3ptr55drop_in_place$LT$gimli..read..abbrev..Abbreviations$GT$17ha5b955a9654883aaE', symObjAddr: 0x34F0, symBinAddr: 0x1C610, symSize: 0x90 }
  - { offsetInCU: 0xA02A, offset: 0xA265A, size: 0x8, addend: 0x0, symName: '__ZN4core3ptr60drop_in_place$LT$gimli..read..abbrev..AbbreviationsCache$GT$17h1b2b5f77a55605caE', symObjAddr: 0x3590, symBinAddr: 0x1C6A0, symSize: 0xE0 }
  - { offsetInCU: 0xA187, offset: 0xA27B7, size: 0x8, addend: 0x0, symName: '__ZN4core3ptr62drop_in_place$LT$std..sys..sync..rwlock..queue..PanicGuard$GT$17h771b0fc3a251803cE', symObjAddr: 0x3670, symBinAddr: 0x1C780, symSize: 0x50 }
  - { offsetInCU: 0xA1E8, offset: 0xA2818, size: 0x8, addend: 0x0, symName: '__ZN4core3ptr65drop_in_place$LT$alloc..vec..Vec$LT$alloc..string..String$GT$$GT$17hcd9f36ca87523893E', symObjAddr: 0x36C0, symBinAddr: 0x1C7D0, symSize: 0x90 }
  - { offsetInCU: 0xA334, offset: 0xA2964, size: 0x8, addend: 0x0, symName: '__ZN4core3ptr65drop_in_place$LT$std..backtrace_rs..symbolize..gimli..Mapping$GT$17ha8f2d80facd881efE', symObjAddr: 0x3750, symBinAddr: 0x1C860, symSize: 0x90 }
  - { offsetInCU: 0xA3EA, offset: 0xA2A1A, size: 0x8, addend: 0x0, symName: '__ZN4core3ptr67drop_in_place$LT$alloc..vec..Vec$LT$addr2line..LineSequence$GT$$GT$17h3097d000094deec4E', symObjAddr: 0x37E0, symBinAddr: 0x1C8F0, symSize: 0x90 }
  - { offsetInCU: 0xA599, offset: 0xA2BC9, size: 0x8, addend: 0x0, symName: '__ZN4core3ptr70drop_in_place$LT$std..backtrace_rs..symbolize..gimli..stash..Stash$GT$17h90e0b0985b8e22d0E', symObjAddr: 0x3980, symBinAddr: 0x1C980, symSize: 0xE0 }
  - { offsetInCU: 0xA838, offset: 0xA2E68, size: 0x8, addend: 0x0, symName: '__ZN4core3ptr71drop_in_place$LT$std..backtrace_rs..symbolize..gimli..macho..Object$GT$17h2fff3db3a7544d43E', symObjAddr: 0x3A60, symBinAddr: 0x1CA60, symSize: 0x160 }
  - { offsetInCU: 0xAB3E, offset: 0xA316E, size: 0x8, addend: 0x0, symName: '__ZN4core3ptr71drop_in_place$LT$std..panicking..rust_panic_without_hook..RewrapBox$GT$17h3d5b1b3eb1c82b41E', symObjAddr: 0x3BC0, symBinAddr: 0x1CBC0, symSize: 0x70 }
  - { offsetInCU: 0xAC34, offset: 0xA3264, size: 0x8, addend: 0x0, symName: '__ZN4core3ptr71drop_in_place$LT$std..sync..rwlock..RwLockReadGuard$LT$$LP$$RP$$GT$$GT$17h1d840147d479c1dbE', symObjAddr: 0x3C30, symBinAddr: 0x1CC30, symSize: 0x40 }
  - { offsetInCU: 0xACE5, offset: 0xA3315, size: 0x8, addend: 0x0, symName: '__ZN4core3ptr72drop_in_place$LT$core..option..Option$LT$object..read..ObjectMap$GT$$GT$17h4ff1d16f78bfc967E', symObjAddr: 0x3C70, symBinAddr: 0x1CC70, symSize: 0x60 }
  - { offsetInCU: 0xAE0B, offset: 0xA343B, size: 0x8, addend: 0x0, symName: '__ZN4core3ptr77drop_in_place$LT$alloc..boxed..Box$LT$$u5b$alloc..string..String$u5d$$GT$$GT$17h5a079cec55cc326eE', symObjAddr: 0x3D20, symBinAddr: 0x1CCD0, symSize: 0x60 }
  - { offsetInCU: 0xAE22, offset: 0xA3452, size: 0x8, addend: 0x0, symName: '__ZN4core3ptr77drop_in_place$LT$alloc..boxed..Box$LT$$u5b$alloc..string..String$u5d$$GT$$GT$17h5a079cec55cc326eE', symObjAddr: 0x3D20, symBinAddr: 0x1CCD0, symSize: 0x60 }
  - { offsetInCU: 0xAF1C, offset: 0xA354C, size: 0x8, addend: 0x0, symName: '__ZN4core3ptr77drop_in_place$LT$std..panicking..begin_panic_handler..FormatStringPayload$GT$17hda64c1aa4eb7db50E', symObjAddr: 0x3D80, symBinAddr: 0x1CD30, symSize: 0x30 }
  - { offsetInCU: 0xAFC0, offset: 0xA35F0, size: 0x8, addend: 0x0, symName: '__ZN4core3ptr81drop_in_place$LT$core..result..Result$LT$$LP$$RP$$C$std..io..error..Error$GT$$GT$17h7d4aca425c3ff71eE', symObjAddr: 0x3F00, symBinAddr: 0x1CD60, symSize: 0x20 }
  - { offsetInCU: 0xAFE2, offset: 0xA3612, size: 0x8, addend: 0x0, symName: '__ZN4core3ptr84drop_in_place$LT$alloc..sync..ArcInner$LT$gimli..read..abbrev..Abbreviations$GT$$GT$17ha88d315bc6ee2a6bE', symObjAddr: 0x3F70, symBinAddr: 0x1CD80, symSize: 0x90 }
  - { offsetInCU: 0xB193, offset: 0xA37C3, size: 0x8, addend: 0x0, symName: '__ZN4core3ptr86drop_in_place$LT$core..result..Result$LT$addr2line..Lines$C$gimli..read..Error$GT$$GT$17h5bcb985cd394798dE', symObjAddr: 0x4000, symBinAddr: 0x1CE10, symSize: 0xE0 }
  - { offsetInCU: 0xB3E1, offset: 0xA3A11, size: 0x8, addend: 0x0, symName: '__ZN4core3ptr87drop_in_place$LT$alloc..sync..ArcInner$LT$std..sys..pal..unix..fs..InnerReadDir$GT$$GT$17h27f97e30407649b5E', symObjAddr: 0x40E0, symBinAddr: 0x1CEF0, symSize: 0x60 }
  - { offsetInCU: 0xB5AB, offset: 0xA3BDB, size: 0x8, addend: 0x0, symName: '__ZN4core3ptr88drop_in_place$LT$alloc..vec..Vec$LT$std..backtrace_rs..symbolize..gimli..Library$GT$$GT$17h5a2d70ef2c57636eE', symObjAddr: 0x4170, symBinAddr: 0x1CF50, symSize: 0xA0 }
  - { offsetInCU: 0xB76E, offset: 0xA3D9E, size: 0x8, addend: 0x0, symName: '__ZN4core3ptr88drop_in_place$LT$std..io..Write..write_fmt..Adapter$LT$alloc..vec..Vec$LT$u8$GT$$GT$$GT$17hb79e3e627b3b4cadE', symObjAddr: 0x4210, symBinAddr: 0x1CFF0, symSize: 0x20 }
  - { offsetInCU: 0xB79D, offset: 0xA3DCD, size: 0x8, addend: 0x0, symName: '__ZN4core3ptr92drop_in_place$LT$alloc..boxed..Box$LT$std..sys..sync..mutex..pthread..AllocatedMutex$GT$$GT$17h0d8fca55e8e556b5E', symObjAddr: 0x42F0, symBinAddr: 0x1D010, symSize: 0x30 }
  - { offsetInCU: 0xB838, offset: 0xA3E68, size: 0x8, addend: 0x0, symName: '__ZN4core3ptr95drop_in_place$LT$core..option..IntoIter$LT$std..backtrace_rs..symbolize..gimli..Library$GT$$GT$17h7258725f4014309aE', symObjAddr: 0x4320, symBinAddr: 0x1D040, symSize: 0x50 }
  - { offsetInCU: 0xB856, offset: 0xA3E86, size: 0x8, addend: 0x0, symName: '__ZN4core3ptr95drop_in_place$LT$core..option..IntoIter$LT$std..backtrace_rs..symbolize..gimli..Library$GT$$GT$17h7258725f4014309aE', symObjAddr: 0x4320, symBinAddr: 0x1D040, symSize: 0x50 }
  - { offsetInCU: 0xB86B, offset: 0xA3E9B, size: 0x8, addend: 0x0, symName: '__ZN4core3ptr95drop_in_place$LT$core..option..IntoIter$LT$std..backtrace_rs..symbolize..gimli..Library$GT$$GT$17h7258725f4014309aE', symObjAddr: 0x4320, symBinAddr: 0x1D040, symSize: 0x50 }
  - { offsetInCU: 0xD939, offset: 0xA5F69, size: 0x8, addend: 0x0, symName: __ZN4core5slice4sort6shared5pivot11median3_rec17h10ec5dd456f10a23E, symObjAddr: 0x48A0, symBinAddr: 0x1D0A0, symSize: 0xC0 }
  - { offsetInCU: 0xDA41, offset: 0xA6071, size: 0x8, addend: 0x0, symName: __ZN4core5slice4sort6shared5pivot11median3_rec17h5d7401d54a70e545E, symObjAddr: 0x4960, symBinAddr: 0x1D160, symSize: 0xC0 }
  - { offsetInCU: 0xDB49, offset: 0xA6179, size: 0x8, addend: 0x0, symName: __ZN4core5slice4sort6shared5pivot11median3_rec17h678771bdd9989bc4E, symObjAddr: 0x4A20, symBinAddr: 0x1D220, symSize: 0xB0 }
  - { offsetInCU: 0xDCA7, offset: 0xA62D7, size: 0x8, addend: 0x0, symName: __ZN4core5slice4sort6shared5pivot11median3_rec17ha6d876ea0e6caac1E, symObjAddr: 0x4AD0, symBinAddr: 0x1D2D0, symSize: 0x140 }
  - { offsetInCU: 0xDEDB, offset: 0xA650B, size: 0x8, addend: 0x0, symName: __ZN4core5slice4sort6shared5pivot11median3_rec17hb596338b09cc9a1dE, symObjAddr: 0x4C10, symBinAddr: 0x1D410, symSize: 0xC0 }
  - { offsetInCU: 0xDFE3, offset: 0xA6613, size: 0x8, addend: 0x0, symName: __ZN4core5slice4sort6shared5pivot11median3_rec17hd8b0c8642d516098E, symObjAddr: 0x4CD0, symBinAddr: 0x1D4D0, symSize: 0x110 }
  - { offsetInCU: 0xE0F5, offset: 0xA6725, size: 0x8, addend: 0x0, symName: __ZN4core5slice4sort6shared5pivot11median3_rec17hf1ffff1af254135dE, symObjAddr: 0x4DE0, symBinAddr: 0x1D5E0, symSize: 0xB0 }
  - { offsetInCU: 0xE1FD, offset: 0xA682D, size: 0x8, addend: 0x0, symName: __ZN4core5slice4sort6shared5pivot11median3_rec17hfa40af6741a5ea49E, symObjAddr: 0x4E90, symBinAddr: 0x1D690, symSize: 0xC0 }
  - { offsetInCU: 0xE3DC, offset: 0xA6A0C, size: 0x8, addend: 0x0, symName: __ZN4core5slice4sort6shared9smallsort12sort4_stable17h5c9a4fc1faf1c3f0E, symObjAddr: 0x4F50, symBinAddr: 0x1D750, symSize: 0x1F0 }
  - { offsetInCU: 0xE7B2, offset: 0xA6DE2, size: 0x8, addend: 0x0, symName: __ZN4core5slice4sort6shared9smallsort12sort4_stable17hebd3516948f59830E, symObjAddr: 0x5140, symBinAddr: 0x1D940, symSize: 0x1B0 }
  - { offsetInCU: 0xE9AF, offset: 0xA6FDF, size: 0x8, addend: 0x0, symName: __ZN4core5slice4sort6shared9smallsort12sort8_stable17h73fc3d1f23e89cd0E, symObjAddr: 0x52F0, symBinAddr: 0x1DAF0, symSize: 0x3E0 }
  - { offsetInCU: 0xF1A9, offset: 0xA77D9, size: 0x8, addend: 0x0, symName: __ZN4core5slice4sort6shared9smallsort18small_sort_general17h8580350dc89e0b16E, symObjAddr: 0x56D0, symBinAddr: 0x1DED0, symSize: 0x4F0 }
  - { offsetInCU: 0xF73A, offset: 0xA7D6A, size: 0x8, addend: 0x0, symName: __ZN4core5slice4sort6shared9smallsort18small_sort_general17hb8ddaadc775fa7bbE, symObjAddr: 0x5BC0, symBinAddr: 0x1E3C0, symSize: 0x630 }
  - { offsetInCU: 0x10235, offset: 0xA8865, size: 0x8, addend: 0x0, symName: __ZN4core5slice4sort6stable14driftsort_main17h0a12b591811d8d96E, symObjAddr: 0x61F0, symBinAddr: 0x1E9F0, symSize: 0x130 }
  - { offsetInCU: 0x104B0, offset: 0xA8AE0, size: 0x8, addend: 0x0, symName: __ZN4core5slice4sort6stable14driftsort_main17h2603d9940a6b7425E, symObjAddr: 0x6320, symBinAddr: 0x1EB20, symSize: 0x130 }
  - { offsetInCU: 0x1072B, offset: 0xA8D5B, size: 0x8, addend: 0x0, symName: __ZN4core5slice4sort6stable14driftsort_main17h89a899ff82e24bb0E, symObjAddr: 0x6450, symBinAddr: 0x1EC50, symSize: 0x130 }
  - { offsetInCU: 0x109A6, offset: 0xA8FD6, size: 0x8, addend: 0x0, symName: __ZN4core5slice4sort6stable14driftsort_main17haf200431324837b0E, symObjAddr: 0x6580, symBinAddr: 0x1ED80, symSize: 0x140 }
  - { offsetInCU: 0x10C21, offset: 0xA9251, size: 0x8, addend: 0x0, symName: __ZN4core5slice4sort6stable14driftsort_main17hb8200fd42e629335E, symObjAddr: 0x66C0, symBinAddr: 0x1EEC0, symSize: 0x150 }
  - { offsetInCU: 0x10E31, offset: 0xA9461, size: 0x8, addend: 0x0, symName: __ZN4core5slice4sort6stable14driftsort_main17heb01477367bce3a7E, symObjAddr: 0x6810, symBinAddr: 0x1F010, symSize: 0x140 }
  - { offsetInCU: 0x1129D, offset: 0xA98CD, size: 0x8, addend: 0x0, symName: __ZN4core5slice4sort6stable5drift4sort17h04c31658064cd2b3E, symObjAddr: 0x6950, symBinAddr: 0x1F150, symSize: 0x690 }
  - { offsetInCU: 0x11A92, offset: 0xAA0C2, size: 0x8, addend: 0x0, symName: __ZN4core5slice4sort6stable5drift4sort17h0e577c903e03f750E, symObjAddr: 0x6FE0, symBinAddr: 0x1F7E0, symSize: 0x6C0 }
  - { offsetInCU: 0x12287, offset: 0xAA8B7, size: 0x8, addend: 0x0, symName: __ZN4core5slice4sort6stable5drift4sort17h178a996c19cdced7E, symObjAddr: 0x76A0, symBinAddr: 0x1FEA0, symSize: 0x6C0 }
  - { offsetInCU: 0x12A8C, offset: 0xAB0BC, size: 0x8, addend: 0x0, symName: __ZN4core5slice4sort6stable5drift4sort17h3bc04abf75ca8a28E, symObjAddr: 0x7D60, symBinAddr: 0x20560, symSize: 0x700 }
  - { offsetInCU: 0x132E1, offset: 0xAB911, size: 0x8, addend: 0x0, symName: __ZN4core5slice4sort6stable5drift4sort17h4d0d7298f6ebbf91E, symObjAddr: 0x8460, symBinAddr: 0x20C60, symSize: 0x6B0 }
  - { offsetInCU: 0x13AE6, offset: 0xAC116, size: 0x8, addend: 0x0, symName: __ZN4core5slice4sort6stable5drift4sort17h9eb579a7e11a429dE, symObjAddr: 0x8B10, symBinAddr: 0x21310, symSize: 0x6F0 }
  - { offsetInCU: 0x14504, offset: 0xACB34, size: 0x8, addend: 0x0, symName: __ZN4core5slice4sort6stable9quicksort9quicksort17h17dfc7d88980d1d4E, symObjAddr: 0x9200, symBinAddr: 0x21A00, symSize: 0xBB0 }
  - { offsetInCU: 0x15C56, offset: 0xAE286, size: 0x8, addend: 0x0, symName: __ZN4core5slice4sort6stable9quicksort9quicksort17h38f12e856567aa96E, symObjAddr: 0x9DB0, symBinAddr: 0x225B0, symSize: 0xB20 }
  - { offsetInCU: 0x165D1, offset: 0xAEC01, size: 0x8, addend: 0x0, symName: __ZN4core5slice4sort6stable9quicksort9quicksort17h39128ce8a0799e8bE, symObjAddr: 0xA8D0, symBinAddr: 0x230D0, symSize: 0xD40 }
  - { offsetInCU: 0x173E0, offset: 0xAFA10, size: 0x8, addend: 0x0, symName: __ZN4core5slice4sort6stable9quicksort9quicksort17h3a28d19f02358dcaE, symObjAddr: 0xB610, symBinAddr: 0x23E10, symSize: 0xBF0 }
  - { offsetInCU: 0x18209, offset: 0xB0839, size: 0x8, addend: 0x0, symName: __ZN4core5slice4sort6stable9quicksort9quicksort17h8c087a1b45054228E, symObjAddr: 0xC200, symBinAddr: 0x24A00, symSize: 0xC40 }
  - { offsetInCU: 0x19022, offset: 0xB1652, size: 0x8, addend: 0x0, symName: __ZN4core5slice4sort6stable9quicksort9quicksort17hc014ef5dc52f58bfE, symObjAddr: 0xCE40, symBinAddr: 0x25640, symSize: 0xB20 }
  - { offsetInCU: 0x19EB8, offset: 0xB24E8, size: 0x8, addend: 0x0, symName: __ZN4core5slice4sort8unstable7ipnsort17h8289eeaf98734eb7E, symObjAddr: 0xD960, symBinAddr: 0x26160, symSize: 0x1A0 }
  - { offsetInCU: 0x1A16D, offset: 0xB279D, size: 0x8, addend: 0x0, symName: __ZN4core5slice4sort8unstable7ipnsort17h8eb614293eee64e8E, symObjAddr: 0xDB00, symBinAddr: 0x26300, symSize: 0xF0 }
  - { offsetInCU: 0x1A30E, offset: 0xB293E, size: 0x8, addend: 0x0, symName: __ZN4core5slice4sort8unstable8heapsort8heapsort17h521fb1d1e30789c6E, symObjAddr: 0xDBF0, symBinAddr: 0x263F0, symSize: 0xE0 }
  - { offsetInCU: 0x1A426, offset: 0xB2A56, size: 0x8, addend: 0x0, symName: __ZN4core5slice4sort8unstable8heapsort8heapsort17h98b8ce9a74c50809E, symObjAddr: 0xDCD0, symBinAddr: 0x264D0, symSize: 0xE0 }
  - { offsetInCU: 0x1A53E, offset: 0xB2B6E, size: 0x8, addend: 0x0, symName: __ZN4core5slice4sort8unstable8heapsort9sift_down17h4191d8eebb1da157E, symObjAddr: 0xDDB0, symBinAddr: 0x265B0, symSize: 0x130 }
  - { offsetInCU: 0x1A711, offset: 0xB2D41, size: 0x8, addend: 0x0, symName: __ZN4core5slice4sort8unstable8heapsort9sift_down17h78e5b96021857d96E, symObjAddr: 0xDEE0, symBinAddr: 0x266E0, symSize: 0xC0 }
  - { offsetInCU: 0x1A893, offset: 0xB2EC3, size: 0x8, addend: 0x0, symName: __ZN4core5slice4sort8unstable9quicksort9quicksort17hbb237c64d8c9a3ddE, symObjAddr: 0xDFA0, symBinAddr: 0x267A0, symSize: 0x770 }
  - { offsetInCU: 0x1B4C6, offset: 0xB3AF6, size: 0x8, addend: 0x0, symName: __ZN4core5slice4sort8unstable9quicksort9quicksort17hfdd67d94a1025140E, symObjAddr: 0xE710, symBinAddr: 0x26F10, symSize: 0x530 }
  - { offsetInCU: 0x1BDD5, offset: 0xB4405, size: 0x8, addend: 0x0, symName: '__ZN36_$LT$T$u20$as$u20$core..any..Any$GT$7type_id17h184ba471db4c54d0E', symObjAddr: 0x230, symBinAddr: 0x1AEB0, symSize: 0x20 }
  - { offsetInCU: 0x1BDEF, offset: 0xB441F, size: 0x8, addend: 0x0, symName: '__ZN36_$LT$T$u20$as$u20$core..any..Any$GT$7type_id17he68ccb9035b6ad69E', symObjAddr: 0x250, symBinAddr: 0x1AED0, symSize: 0x20 }
  - { offsetInCU: 0x1BE09, offset: 0xB4439, size: 0x8, addend: 0x0, symName: '__ZN36_$LT$T$u20$as$u20$core..any..Any$GT$7type_id17hea58b14a7d4f43b6E', symObjAddr: 0x270, symBinAddr: 0x1AEF0, symSize: 0x20 }
  - { offsetInCU: 0x1BE8B, offset: 0xB44BB, size: 0x8, addend: 0x0, symName: '__ZN42_$LT$$RF$T$u20$as$u20$core..fmt..Debug$GT$3fmt17h047f9c6be51c5e85E', symObjAddr: 0x3D0, symBinAddr: 0x1AF10, symSize: 0x20 }
  - { offsetInCU: 0x1BEC9, offset: 0xB44F9, size: 0x8, addend: 0x0, symName: '__ZN42_$LT$$RF$T$u20$as$u20$core..fmt..Debug$GT$3fmt17h313665a3a2873b42E', symObjAddr: 0x5F0, symBinAddr: 0x1AF30, symSize: 0x20 }
  - { offsetInCU: 0x1BEDD, offset: 0xB450D, size: 0x8, addend: 0x0, symName: '__ZN42_$LT$$RF$T$u20$as$u20$core..fmt..Debug$GT$3fmt17h8f2fa358bc7ded07E', symObjAddr: 0x7D0, symBinAddr: 0x1AF50, symSize: 0x30 }
  - { offsetInCU: 0x1BF78, offset: 0xB45A8, size: 0x8, addend: 0x0, symName: '__ZN4core3fmt3num50_$LT$impl$u20$core..fmt..Debug$u20$for$u20$i32$GT$3fmt17heb82f64e9c17302eE', symObjAddr: 0xD00, symBinAddr: 0x1AFB0, symSize: 0x30 }
  - { offsetInCU: 0x1BFBA, offset: 0xB45EA, size: 0x8, addend: 0x0, symName: '__ZN44_$LT$$RF$T$u20$as$u20$core..fmt..Display$GT$3fmt17h2561f68ab83c0377E', symObjAddr: 0xC80, symBinAddr: 0x1AF80, symSize: 0x20 }
  - { offsetInCU: 0x1BFD5, offset: 0xB4605, size: 0x8, addend: 0x0, symName: '__ZN44_$LT$$RF$T$u20$as$u20$core..fmt..Display$GT$3fmt17ha96dd7b9b4ed7d15E', symObjAddr: 0xCA0, symBinAddr: 0x1AFA0, symSize: 0x10 }
  - { offsetInCU: 0x1C012, offset: 0xB4642, size: 0x8, addend: 0x0, symName: __ZN4core3fmt5Write10write_char17hc62b739fc03a608eE, symObjAddr: 0x11A0, symBinAddr: 0x1AFE0, symSize: 0x190 }
  - { offsetInCU: 0x1C192, offset: 0xB47C2, size: 0x8, addend: 0x0, symName: __ZN4core3fmt5Write10write_char17heee569dec9bacd55E, symObjAddr: 0x1330, symBinAddr: 0x1B170, symSize: 0x120 }
  - { offsetInCU: 0x1C2EE, offset: 0xB491E, size: 0x8, addend: 0x0, symName: __ZN4core3fmt5Write9write_fmt17h2bea56f24fec7a4bE, symObjAddr: 0x1450, symBinAddr: 0x1B290, symSize: 0x20 }
  - { offsetInCU: 0x1C31C, offset: 0xB494C, size: 0x8, addend: 0x0, symName: __ZN4core3fmt5Write9write_fmt17h9365712ad13af8e8E, symObjAddr: 0x1490, symBinAddr: 0x1B2B0, symSize: 0x20 }
  - { offsetInCU: 0x1C34A, offset: 0xB497A, size: 0x8, addend: 0x0, symName: __ZN4core3fmt5Write9write_fmt17h943e432088f4fc09E, symObjAddr: 0x14B0, symBinAddr: 0x1B2D0, symSize: 0x20 }
  - { offsetInCU: 0x1C5DC, offset: 0xB4C0C, size: 0x8, addend: 0x0, symName: '__ZN50_$LT$$BP$mut$u20$T$u20$as$u20$core..fmt..Debug$GT$3fmt17h5e955294fdbade78E', symObjAddr: 0xED00, symBinAddr: 0x27440, symSize: 0x10 }
  - { offsetInCU: 0x1C628, offset: 0xB4C58, size: 0x8, addend: 0x0, symName: '__ZN52_$LT$$RF$mut$u20$T$u20$as$u20$core..fmt..Display$GT$3fmt17h247ac5682e66b671E', symObjAddr: 0xED80, symBinAddr: 0x27450, symSize: 0x20 }
  - { offsetInCU: 0x1C688, offset: 0xB4CB8, size: 0x8, addend: 0x0, symName: '__ZN4core3str7pattern13simd_contains28_$u7b$$u7b$closure$u7d$$u7d$17h8c02b44b24d93ed4E', symObjAddr: 0x4460, symBinAddr: 0x58B50, symSize: 0x100 }
  - { offsetInCU: 0x1C801, offset: 0xB4E31, size: 0x8, addend: 0x0, symName: '__ZN55_$LT$$RF$str$u20$as$u20$core..str..pattern..Pattern$GT$15is_contained_in17h3b44ad7441fe57baE', symObjAddr: 0xEDA0, symBinAddr: 0x27470, symSize: 0x8D0 }
  - { offsetInCU: 0x1F0B9, offset: 0xB76E9, size: 0x8, addend: 0x0, symName: __ZN4core3ops8function2Fn4call17ha7546dd805773db2E, symObjAddr: 0x1510, symBinAddr: 0x1B2F0, symSize: 0x10 }
  - { offsetInCU: 0x1F0D9, offset: 0xB7709, size: 0x8, addend: 0x0, symName: __ZN4core3ops8function5FnMut8call_mut17h0a198414f2ff5eaeE, symObjAddr: 0x1520, symBinAddr: 0x1B300, symSize: 0x10 }
  - { offsetInCU: 0x1F120, offset: 0xB7750, size: 0x8, addend: 0x0, symName: '__ZN4core3ops8function6FnOnce40call_once$u7b$$u7b$vtable.shim$u7d$$u7d$17h15b016765ff1cfc5E', symObjAddr: 0x1660, symBinAddr: 0x1B310, symSize: 0x90 }
  - { offsetInCU: 0x1F24E, offset: 0xB787E, size: 0x8, addend: 0x0, symName: '__ZN4core3ops8function6FnOnce40call_once$u7b$$u7b$vtable.shim$u7d$$u7d$17h39fb7097ae91d54bE', symObjAddr: 0x16F0, symBinAddr: 0x1B3A0, symSize: 0x10 }
  - { offsetInCU: 0x1F289, offset: 0xB78B9, size: 0x8, addend: 0x0, symName: '__ZN4core3ops8function6FnOnce40call_once$u7b$$u7b$vtable.shim$u7d$$u7d$17h447d49c1da186faeE', symObjAddr: 0x1700, symBinAddr: 0x1B3B0, symSize: 0x10 }
  - { offsetInCU: 0x1F2C4, offset: 0xB78F4, size: 0x8, addend: 0x0, symName: '__ZN4core3ops8function6FnOnce40call_once$u7b$$u7b$vtable.shim$u7d$$u7d$17h4ac0425e41115653E', symObjAddr: 0x1710, symBinAddr: 0x1B3C0, symSize: 0x10 }
  - { offsetInCU: 0x1F314, offset: 0xB7944, size: 0x8, addend: 0x0, symName: '__ZN4core3ops8function6FnOnce40call_once$u7b$$u7b$vtable.shim$u7d$$u7d$17h4ae3820b72915fbeE', symObjAddr: 0x1720, symBinAddr: 0x1B3D0, symSize: 0x10 }
  - { offsetInCU: 0x1F364, offset: 0xB7994, size: 0x8, addend: 0x0, symName: '__ZN4core3ops8function6FnOnce40call_once$u7b$$u7b$vtable.shim$u7d$$u7d$17hec53fca43a280050E', symObjAddr: 0x18C0, symBinAddr: 0x1B3E0, symSize: 0x10 }
  - { offsetInCU: 0x2162C, offset: 0xB9C5C, size: 0x8, addend: 0x0, symName: '__ZN4core4cell4once17OnceCell$LT$T$GT$8try_init17h536a8ddd55b2cae3E', symObjAddr: 0x4560, symBinAddr: 0x58C50, symSize: 0xB0 }
  - { offsetInCU: 0x2187D, offset: 0xB9EAD, size: 0x8, addend: 0x0, symName: '__ZN4core4cell4once17OnceCell$LT$T$GT$8try_init17hb10021f4e62dce0fE', symObjAddr: 0x4610, symBinAddr: 0x58D00, symSize: 0x110 }
  - { offsetInCU: 0x21E60, offset: 0xBA490, size: 0x8, addend: 0x0, symName: __ZN4core5panic12PanicPayload6as_str17hbfaccbb001700041E, symObjAddr: 0x4890, symBinAddr: 0x1D090, symSize: 0x10 }
  - { offsetInCU: 0x21EE7, offset: 0xBA517, size: 0x8, addend: 0x0, symName: __ZN4core9panicking13assert_failed17hdcf7e423a44907d6E, symObjAddr: 0xECC0, symBinAddr: 0x58E10, symSize: 0x40 }
  - { offsetInCU: 0x222DB, offset: 0xBA90B, size: 0x8, addend: 0x0, symName: '__ZN69_$LT$std..sys..os_str..bytes..Slice$u20$as$u20$core..fmt..Display$GT$3fmt17h93400a492944888cE', symObjAddr: 0x4DEB0, symBinAddr: 0x40D60, symSize: 0xC0 }
  - { offsetInCU: 0x223B8, offset: 0xBA9E8, size: 0x8, addend: 0x0, symName: __ZN3std3sys3pal4unix2fs4File6open_c17h680a1c4b6c97ec3aE, symObjAddr: 0x45470, symBinAddr: 0x3FDD0, symSize: 0x140 }
  - { offsetInCU: 0x2254F, offset: 0xBAB7F, size: 0x8, addend: 0x0, symName: '__ZN91_$LT$std..sys..pal..unix..fs..ReadDir$u20$as$u20$core..iter..traits..iterator..Iterator$GT$4next17h7ffa4b4a612b0f58E', symObjAddr: 0x44F60, symBinAddr: 0x3FBA0, symSize: 0x160 }
  - { offsetInCU: 0x2277A, offset: 0xBADAA, size: 0x8, addend: 0x0, symName: '__ZN70_$LT$std..sys..pal..unix..fs..Dir$u20$as$u20$core..ops..drop..Drop$GT$4drop17h3aeec0393da0e077E', symObjAddr: 0x450C0, symBinAddr: 0x3FD00, symSize: 0xD0 }
  - { offsetInCU: 0x22896, offset: 0xBAEC6, size: 0x8, addend: 0x0, symName: __ZN3std3sys3pal4unix2fs7readdir17h779363e783ca7cbfE, symObjAddr: 0x45CA0, symBinAddr: 0x3FF10, symSize: 0x210 }
  - { offsetInCU: 0x22B64, offset: 0xBB194, size: 0x8, addend: 0x0, symName: __ZN3std3sys3pal4unix2os13env_read_lock17h21742e63e7e1308cE, symObjAddr: 0x484B0, symBinAddr: 0x40120, symSize: 0x300 }
  - { offsetInCU: 0x2323D, offset: 0xBB86D, size: 0x8, addend: 0x0, symName: '__ZN3std3sys3pal4unix2os6getenv28_$u7b$$u7b$closure$u7d$$u7d$17hb68080675aebde0eE', symObjAddr: 0x487B0, symBinAddr: 0x40420, symSize: 0x120 }
  - { offsetInCU: 0x2345C, offset: 0xBBA8C, size: 0x8, addend: 0x0, symName: '__ZN69_$LT$std..sys..pal..unix..stdio..Stderr$u20$as$u20$std..io..Write$GT$5write17hd79d0a718695b2fcE', symObjAddr: 0x4BC30, symBinAddr: 0x40540, symSize: 0x50 }
  - { offsetInCU: 0x23537, offset: 0xBBB67, size: 0x8, addend: 0x0, symName: '__ZN69_$LT$std..sys..pal..unix..stdio..Stderr$u20$as$u20$std..io..Write$GT$14write_vectored17h0e573d7857415587E', symObjAddr: 0x4BC80, symBinAddr: 0x40590, symSize: 0x50 }
  - { offsetInCU: 0x23612, offset: 0xBBC42, size: 0x8, addend: 0x0, symName: '__ZN69_$LT$std..sys..pal..unix..stdio..Stderr$u20$as$u20$std..io..Write$GT$17is_write_vectored17h7ade31aa359392fdE', symObjAddr: 0x4BCD0, symBinAddr: 0x405E0, symSize: 0x10 }
  - { offsetInCU: 0x2362C, offset: 0xBBC5C, size: 0x8, addend: 0x0, symName: '__ZN69_$LT$std..sys..pal..unix..stdio..Stderr$u20$as$u20$std..io..Write$GT$5flush17h4944c9debd66ac59E', symObjAddr: 0x4BCE0, symBinAddr: 0x405F0, symSize: 0x10 }
  - { offsetInCU: 0x23719, offset: 0xBBD49, size: 0x8, addend: 0x0, symName: __ZN3std3sys3pal4unix17decode_error_kind17hca6dfe301ffbd472E, symObjAddr: 0x4C460, symBinAddr: 0x40600, symSize: 0x20 }
  - { offsetInCU: 0x23733, offset: 0xBBD63, size: 0x8, addend: 0x0, symName: __ZN3std3sys3pal4unix14abort_internal17h9ba9b9d4ccbedc59E, symObjAddr: 0x4C480, symBinAddr: 0x40620, symSize: 0x10 }
  - { offsetInCU: 0x237A8, offset: 0xBBDD8, size: 0x8, addend: 0x0, symName: __ZN3std3sys3pal6common14small_c_string24run_with_cstr_allocating17ha6a88a73d3a351a6E, symObjAddr: 0x3F360, symBinAddr: 0x59180, symSize: 0x90 }
  - { offsetInCU: 0x23906, offset: 0xBBF36, size: 0x8, addend: 0x0, symName: __ZN3std3sys3pal6common14small_c_string24run_with_cstr_allocating17hb54c3f813841d045E, symObjAddr: 0x3F4B0, symBinAddr: 0x59210, symSize: 0xC0 }
  - { offsetInCU: 0x23AD0, offset: 0xBC100, size: 0x8, addend: 0x0, symName: __ZN3std3sys3pal6common14small_c_string24run_with_cstr_allocating17hfa63a9da6940b7b3E, symObjAddr: 0x3F780, symBinAddr: 0x592D0, symSize: 0x90 }
  - { offsetInCU: 0x23C82, offset: 0xBC2B2, size: 0x8, addend: 0x0, symName: '__ZN3std3sys9backtrace10_print_fmt28_$u7b$$u7b$closure$u7d$$u7d$17h5af150375511fa5eE', symObjAddr: 0x3FB20, symBinAddr: 0x3CD70, symSize: 0x20 }
  - { offsetInCU: 0x23CAA, offset: 0xBC2DA, size: 0x8, addend: 0x0, symName: '__ZN3std3sys9backtrace10_print_fmt28_$u7b$$u7b$closure$u7d$$u7d$17h7848036c8a3af0afE', symObjAddr: 0x3FB40, symBinAddr: 0x3CD90, symSize: 0x140 }
  - { offsetInCU: 0x23DA9, offset: 0xBC3D9, size: 0x8, addend: 0x0, symName: '__ZN3std3sys9backtrace10_print_fmt28_$u7b$$u7b$closure$u7d$$u7d$28_$u7b$$u7b$closure$u7d$$u7d$17h36c78f4df4cd5998E', symObjAddr: 0x3FC80, symBinAddr: 0x3CED0, symSize: 0x2A0 }
  - { offsetInCU: 0x23FC5, offset: 0xBC5F5, size: 0x8, addend: 0x0, symName: '__ZN98_$LT$std..sys..backtrace..BacktraceLock..print..DisplayBacktrace$u20$as$u20$core..fmt..Display$GT$3fmt17hc3f376aae1e435b9E', symObjAddr: 0x3F890, symBinAddr: 0x3CAE0, symSize: 0x290 }
  - { offsetInCU: 0x24544, offset: 0xBCB74, size: 0x8, addend: 0x0, symName: __ZN3std3sys9backtrace26__rust_end_short_backtrace17hc94f023d9f9c8404E, symObjAddr: 0x3FF20, symBinAddr: 0x3D170, symSize: 0x10 }
  - { offsetInCU: 0x2455E, offset: 0xBCB8E, size: 0x8, addend: 0x0, symName: __ZN3std3sys9backtrace15output_filename17hba316d0cc1ea74d3E, symObjAddr: 0x3FF30, symBinAddr: 0x3D180, symSize: 0x110 }
  - { offsetInCU: 0x246F2, offset: 0xBCD22, size: 0x8, addend: 0x0, symName: '__ZN3std3sys11personality3gcc14find_eh_action28_$u7b$$u7b$closure$u7d$$u7d$17hf8fd2767c69281caE', symObjAddr: 0x4D710, symBinAddr: 0x40630, symSize: 0x10 }
  - { offsetInCU: 0x24706, offset: 0xBCD36, size: 0x8, addend: 0x0, symName: '__ZN3std3sys11personality3gcc14find_eh_action28_$u7b$$u7b$closure$u7d$$u7d$17h0744ab787f9436b8E', symObjAddr: 0x4D720, symBinAddr: 0x40640, symSize: 0x10 }
  - { offsetInCU: 0x24736, offset: 0xBCD66, size: 0x8, addend: 0x0, symName: _rust_eh_personality, symObjAddr: 0x4D730, symBinAddr: 0x40650, symSize: 0x710 }
  - { offsetInCU: 0x253A0, offset: 0xBD9D0, size: 0x8, addend: 0x0, symName: '__ZN102_$LT$std..sys..sync..mutex..pthread..AllocatedMutex$u20$as$u20$std..sys_common..lazy_box..LazyInit$GT$4init17hfba07cb481996d20E', symObjAddr: 0x4E9A0, symBinAddr: 0x40E20, symSize: 0x210 }
  - { offsetInCU: 0x2550F, offset: 0xBDB3F, size: 0x8, addend: 0x0, symName: __ZN3std3sys4sync5mutex7pthread5Mutex4lock4fail17h7ac4622fd4e8cb04E, symObjAddr: 0x4EC30, symBinAddr: 0x59410, symSize: 0x100 }
  - { offsetInCU: 0x2585A, offset: 0xBDE8A, size: 0x8, addend: 0x0, symName: __ZN3std3sys4sync6rwlock5queue6RwLock21read_unlock_contended17h59e53ad66695c6b5E, symObjAddr: 0x4F900, symBinAddr: 0x59680, symSize: 0x70 }
  - { offsetInCU: 0x25A5E, offset: 0xBE08E, size: 0x8, addend: 0x0, symName: __ZN3std3sys4sync6rwlock5queue6RwLock12unlock_queue17hedf3d29f10cd8d44E, symObjAddr: 0x4F9B0, symBinAddr: 0x41250, symSize: 0x160 }
  - { offsetInCU: 0x2620B, offset: 0xBE83B, size: 0x8, addend: 0x0, symName: __ZN3std3sys4sync4once5queue4Once4call17he538198c92e6ccb1E, symObjAddr: 0x4F280, symBinAddr: 0x59510, symSize: 0x170 }
  - { offsetInCU: 0x2632F, offset: 0xBE95F, size: 0x8, addend: 0x0, symName: __ZN3std3sys4sync4once5queue4wait17hbd39365221adcd4dE, symObjAddr: 0x4F3F0, symBinAddr: 0x41030, symSize: 0x160 }
  - { offsetInCU: 0x26825, offset: 0xBEE55, size: 0x8, addend: 0x0, symName: '__ZN82_$LT$std..sys..sync..once..queue..WaiterQueue$u20$as$u20$core..ops..drop..Drop$GT$4drop17h478a37d085131f6bE', symObjAddr: 0x4F550, symBinAddr: 0x41190, symSize: 0xC0 }
  - { offsetInCU: 0x26A1F, offset: 0xBF04F, size: 0x8, addend: 0x0, symName: __ZN3std3sys12thread_local6native5eager7destroy17h485d936b499b4e17E, symObjAddr: 0x4FB40, symBinAddr: 0x413B0, symSize: 0x20 }
  - { offsetInCU: 0x26B97, offset: 0xBF1C7, size: 0x8, addend: 0x0, symName: '__ZN3std3sys12thread_local6native4lazy20Storage$LT$T$C$D$GT$10initialize17h14698013dabe1c01E', symObjAddr: 0x4FB60, symBinAddr: 0x596F0, symSize: 0xB0 }
  - { offsetInCU: 0x26D79, offset: 0xBF3A9, size: 0x8, addend: 0x0, symName: __ZN3std3sys12thread_local6native4lazy7destroy17h6190230ba13c2901E, symObjAddr: 0x4FC10, symBinAddr: 0x413D0, symSize: 0x50 }
  - { offsetInCU: 0x26ED0, offset: 0xBF500, size: 0x8, addend: 0x0, symName: __ZN3std3sys12thread_local11destructors4list8register17h63ec4e86be6715bfE, symObjAddr: 0x4FC60, symBinAddr: 0x41420, symSize: 0x110 }
  - { offsetInCU: 0x271D1, offset: 0xBF801, size: 0x8, addend: 0x0, symName: __ZN3std3sys12thread_local5guard5apple6enable9run_dtors17hd397a92a14fe0143E, symObjAddr: 0x4FD70, symBinAddr: 0x41530, symSize: 0xF0 }
  - { offsetInCU: 0x276BF, offset: 0xBFCEF, size: 0x8, addend: 0x0, symName: __ZN3std7process5abort17hc2693c6b767a9c9dE, symObjAddr: 0x3D640, symBinAddr: 0x59170, symSize: 0x10 }
  - { offsetInCU: 0x2774D, offset: 0xBFD7D, size: 0x8, addend: 0x0, symName: __ZN3std4path4Path13_strip_prefix17h2cdcd3c56da06425E, symObjAddr: 0x3ADA0, symBinAddr: 0x3C300, symSize: 0x3A0 }
  - { offsetInCU: 0x2788D, offset: 0xBFEBD, size: 0x8, addend: 0x0, symName: __ZN3std4path4Path5_join17h637193701031f95bE, symObjAddr: 0x3B8C0, symBinAddr: 0x3C6A0, symSize: 0x190 }
  - { offsetInCU: 0x27E48, offset: 0xC0478, size: 0x8, addend: 0x0, symName: __ZN3std4path10Components15len_before_body17h7a6b4ae86b058316E, symObjAddr: 0x38F30, symBinAddr: 0x3B320, symSize: 0x170 }
  - { offsetInCU: 0x28087, offset: 0xC06B7, size: 0x8, addend: 0x0, symName: __ZN3std4path10Components7as_path17h9e4b2fea02661f8aE, symObjAddr: 0x390A0, symBinAddr: 0x3B490, symSize: 0x5C0 }
  - { offsetInCU: 0x28614, offset: 0xC0C44, size: 0x8, addend: 0x0, symName: __ZN3std4path10Components25parse_next_component_back17h34a9ec6b1e426824E, symObjAddr: 0x39660, symBinAddr: 0x3BA50, symSize: 0xE0 }
  - { offsetInCU: 0x28849, offset: 0xC0E79, size: 0x8, addend: 0x0, symName: '__ZN80_$LT$std..path..Components$u20$as$u20$core..iter..traits..iterator..Iterator$GT$4next17h1a34bd8be3084bcbE', symObjAddr: 0x398F0, symBinAddr: 0x3BB30, symSize: 0x3D0 }
  - { offsetInCU: 0x28C5B, offset: 0xC128B, size: 0x8, addend: 0x0, symName: '__ZN95_$LT$std..path..Components$u20$as$u20$core..iter..traits..double_ended..DoubleEndedIterator$GT$9next_back17hd191a237154dece0E', symObjAddr: 0x39CC0, symBinAddr: 0x3BF00, symSize: 0x400 }
  - { offsetInCU: 0x28E82, offset: 0xC14B2, size: 0x8, addend: 0x0, symName: '__ZN61_$LT$std..path..Component$u20$as$u20$core..cmp..PartialEq$GT$2eq17h27e8d4086dd3d1bcE', symObjAddr: 0x44380, symBinAddr: 0x3FAC0, symSize: 0xE0 }
  - { offsetInCU: 0x28F65, offset: 0xC1595, size: 0x8, addend: 0x0, symName: '__ZN80_$LT$std..io..Write..write_fmt..Adapter$LT$T$GT$$u20$as$u20$core..fmt..Write$GT$9write_str17h2edc6ecfbde6812eE', symObjAddr: 0x344C0, symBinAddr: 0x3B0F0, symSize: 0xD0 }
  - { offsetInCU: 0x2909A, offset: 0xC16CA, size: 0x8, addend: 0x0, symName: '__ZN80_$LT$std..io..Write..write_fmt..Adapter$LT$T$GT$$u20$as$u20$core..fmt..Write$GT$9write_str17h58072d2916356e77E', symObjAddr: 0x345E0, symBinAddr: 0x3B1C0, symSize: 0x60 }
  - { offsetInCU: 0x29188, offset: 0xC17B8, size: 0x8, addend: 0x0, symName: __ZN3std2io5Write9write_all17h99e16d9455f1e85aE, symObjAddr: 0x33CD0, symBinAddr: 0x3A900, symSize: 0xA0 }
  - { offsetInCU: 0x292A2, offset: 0xC18D2, size: 0x8, addend: 0x0, symName: __ZN3std2io5Write18write_all_vectored17h2e073031db3e7590E, symObjAddr: 0x33D70, symBinAddr: 0x3A9A0, symSize: 0x2F0 }
  - { offsetInCU: 0x296BE, offset: 0xC1CEE, size: 0x8, addend: 0x0, symName: __ZN3std2io5Write18write_all_vectored17h4e8162142fc9794dE, symObjAddr: 0x34060, symBinAddr: 0x3AC90, symSize: 0x1E0 }
  - { offsetInCU: 0x29988, offset: 0xC1FB8, size: 0x8, addend: 0x0, symName: __ZN3std2io5Write9write_fmt17h8b96bffba1d3be2fE, symObjAddr: 0x34240, symBinAddr: 0x3AE70, symSize: 0x140 }
  - { offsetInCU: 0x29C26, offset: 0xC2256, size: 0x8, addend: 0x0, symName: __ZN3std2io5Write9write_fmt17hd7eb5710a004e76bE, symObjAddr: 0x34380, symBinAddr: 0x3AFB0, symSize: 0x140 }
  - { offsetInCU: 0x2A055, offset: 0xC2685, size: 0x8, addend: 0x0, symName: '__ZN58_$LT$std..io..error..Error$u20$as$u20$core..fmt..Debug$GT$3fmt17he1d6dfe91335ec19E', symObjAddr: 0x2DC60, symBinAddr: 0x3A120, symSize: 0x10 }
  - { offsetInCU: 0x2A088, offset: 0xC26B8, size: 0x8, addend: 0x0, symName: '__ZN3std2io5error83_$LT$impl$u20$core..fmt..Debug$u20$for$u20$std..io..error..repr_bitpacked..Repr$GT$3fmt17h4788b333410ed3b2E', symObjAddr: 0x2DF10, symBinAddr: 0x3A130, symSize: 0x300 }
  - { offsetInCU: 0x2A2B5, offset: 0xC28E5, size: 0x8, addend: 0x0, symName: '__ZN60_$LT$std..io..error..Error$u20$as$u20$core..fmt..Display$GT$3fmt17h4ac84df70a7b82f8E', symObjAddr: 0x2E210, symBinAddr: 0x3A430, symSize: 0x290 }
  - { offsetInCU: 0x2A4F4, offset: 0xC2B24, size: 0x8, addend: 0x0, symName: '__ZN62_$LT$std..io..error..ErrorKind$u20$as$u20$core..fmt..Debug$GT$3fmt17hc67082adc7abff3dE', symObjAddr: 0x44350, symBinAddr: 0x3FA90, symSize: 0x30 }
  - { offsetInCU: 0x2A528, offset: 0xC2B58, size: 0x8, addend: 0x0, symName: '__ZN3std2io5impls74_$LT$impl$u20$std..io..Write$u20$for$u20$alloc..vec..Vec$LT$u8$C$A$GT$$GT$5write17h94a30090f7919c02E', symObjAddr: 0x2E590, symBinAddr: 0x3A6C0, symSize: 0x60 }
  - { offsetInCU: 0x2A5FF, offset: 0xC2C2F, size: 0x8, addend: 0x0, symName: '__ZN3std2io5impls74_$LT$impl$u20$std..io..Write$u20$for$u20$alloc..vec..Vec$LT$u8$C$A$GT$$GT$14write_vectored17h38b57fd2e05e304aE', symObjAddr: 0x2E5F0, symBinAddr: 0x3A720, symSize: 0x160 }
  - { offsetInCU: 0x2A648, offset: 0xC2C78, size: 0x8, addend: 0x0, symName: '__ZN3std2io5impls74_$LT$impl$u20$std..io..Write$u20$for$u20$alloc..vec..Vec$LT$u8$C$A$GT$$GT$14write_vectored17h38b57fd2e05e304aE', symObjAddr: 0x2E5F0, symBinAddr: 0x3A720, symSize: 0x160 }
  - { offsetInCU: 0x2A7FB, offset: 0xC2E2B, size: 0x8, addend: 0x0, symName: '__ZN3std2io5impls74_$LT$impl$u20$std..io..Write$u20$for$u20$alloc..vec..Vec$LT$u8$C$A$GT$$GT$17is_write_vectored17hbe3a42e190f0f94dE', symObjAddr: 0x2E750, symBinAddr: 0x3A880, symSize: 0x10 }
  - { offsetInCU: 0x2A816, offset: 0xC2E46, size: 0x8, addend: 0x0, symName: '__ZN3std2io5impls74_$LT$impl$u20$std..io..Write$u20$for$u20$alloc..vec..Vec$LT$u8$C$A$GT$$GT$9write_all17hbabe835b5d4809f7E', symObjAddr: 0x2E760, symBinAddr: 0x3A890, symSize: 0x60 }
  - { offsetInCU: 0x2A8E6, offset: 0xC2F16, size: 0x8, addend: 0x0, symName: '__ZN3std2io5impls74_$LT$impl$u20$std..io..Write$u20$for$u20$alloc..vec..Vec$LT$u8$C$A$GT$$GT$5flush17h17fee1c2e23db30aE', symObjAddr: 0x2E7C0, symBinAddr: 0x3A8F0, symSize: 0x10 }
  - { offsetInCU: 0x2AAD1, offset: 0xC3101, size: 0x8, addend: 0x0, symName: '__ZN3std4sync6rwlock15RwLock$LT$T$GT$5write17heaa3fe5605b10f6fE', symObjAddr: 0x3E860, symBinAddr: 0x3C830, symSize: 0x2B0 }
  - { offsetInCU: 0x2B2E3, offset: 0xC3913, size: 0x8, addend: 0x0, symName: __ZN3std9panicking11panic_count17is_zero_slow_path17h56102c4de0497dbbE, symObjAddr: 0x426E0, symBinAddr: 0x593B0, symSize: 0x20 }
  - { offsetInCU: 0x2B37E, offset: 0xC39AE, size: 0x8, addend: 0x0, symName: __ZN3std9panicking3try7cleanup17hc468c0d0bdf2efbfE, symObjAddr: 0x42700, symBinAddr: 0x593D0, symSize: 0x40 }
  - { offsetInCU: 0x2B490, offset: 0xC3AC0, size: 0x8, addend: 0x0, symName: ___rust_drop_panic, symObjAddr: 0x418C0, symBinAddr: 0x3D510, symSize: 0xD0 }
  - { offsetInCU: 0x2B6D3, offset: 0xC3D03, size: 0x8, addend: 0x0, symName: ___rust_foreign_exception, symObjAddr: 0x41990, symBinAddr: 0x3D5E0, symSize: 0xD0 }
  - { offsetInCU: 0x2B924, offset: 0xC3F54, size: 0x8, addend: 0x0, symName: __ZN3std9panicking8set_hook17hd062e6707c0d1c04E, symObjAddr: 0x41A60, symBinAddr: 0x3D6B0, symSize: 0x1B0 }
  - { offsetInCU: 0x2BCA4, offset: 0xC42D4, size: 0x8, addend: 0x0, symName: __ZN3std9panicking9take_hook17h872dd283e7ece935E, symObjAddr: 0x41C10, symBinAddr: 0x3D860, symSize: 0x150 }
  - { offsetInCU: 0x2BF50, offset: 0xC4580, size: 0x8, addend: 0x0, symName: '__ZN3std9panicking12default_hook28_$u7b$$u7b$closure$u7d$$u7d$17ha1110e62c540acf1E', symObjAddr: 0x42210, symBinAddr: 0x3DE60, symSize: 0x410 }
  - { offsetInCU: 0x2C7A4, offset: 0xC4DD4, size: 0x8, addend: 0x0, symName: __ZN3std9panicking12default_hook17h38beedc244b2f33fE, symObjAddr: 0x41D60, symBinAddr: 0x3D9B0, symSize: 0x4B0 }
  - { offsetInCU: 0x2D57B, offset: 0xC5BAB, size: 0x8, addend: 0x0, symName: _rust_begin_unwind, symObjAddr: 0x42740, symBinAddr: 0x3E270, symSize: 0x50 }
  - { offsetInCU: 0x2D5E4, offset: 0xC5C14, size: 0x8, addend: 0x0, symName: '__ZN102_$LT$std..panicking..begin_panic_handler..FormatStringPayload$u20$as$u20$core..panic..PanicPayload$GT$8take_box17h792c18fb9672bc70E', symObjAddr: 0x42790, symBinAddr: 0x3E2C0, symSize: 0x150 }
  - { offsetInCU: 0x2D878, offset: 0xC5EA8, size: 0x8, addend: 0x0, symName: '__ZN102_$LT$std..panicking..begin_panic_handler..FormatStringPayload$u20$as$u20$core..panic..PanicPayload$GT$3get17hc64129965c6e3f89E', symObjAddr: 0x428E0, symBinAddr: 0x3E410, symSize: 0xD0 }
  - { offsetInCU: 0x2D9A0, offset: 0xC5FD0, size: 0x8, addend: 0x0, symName: '__ZN95_$LT$std..panicking..begin_panic_handler..FormatStringPayload$u20$as$u20$core..fmt..Display$GT$3fmt17h95ccb363af43619fE', symObjAddr: 0x429B0, symBinAddr: 0x3E4E0, symSize: 0x70 }
  - { offsetInCU: 0x2DA59, offset: 0xC6089, size: 0x8, addend: 0x0, symName: '__ZN99_$LT$std..panicking..begin_panic_handler..StaticStrPayload$u20$as$u20$core..panic..PanicPayload$GT$8take_box17h1610e0deea676a22E', symObjAddr: 0x42A20, symBinAddr: 0x3E550, symSize: 0x50 }
  - { offsetInCU: 0x2DAE5, offset: 0xC6115, size: 0x8, addend: 0x0, symName: '__ZN99_$LT$std..panicking..begin_panic_handler..StaticStrPayload$u20$as$u20$core..panic..PanicPayload$GT$3get17h2ea46f94062eaaabE', symObjAddr: 0x42A70, symBinAddr: 0x3E5A0, symSize: 0x10 }
  - { offsetInCU: 0x2DB00, offset: 0xC6130, size: 0x8, addend: 0x0, symName: '__ZN99_$LT$std..panicking..begin_panic_handler..StaticStrPayload$u20$as$u20$core..panic..PanicPayload$GT$6as_str17hf9f0880f33b38064E', symObjAddr: 0x42A80, symBinAddr: 0x3E5B0, symSize: 0x10 }
  - { offsetInCU: 0x2DB21, offset: 0xC6151, size: 0x8, addend: 0x0, symName: '__ZN92_$LT$std..panicking..begin_panic_handler..StaticStrPayload$u20$as$u20$core..fmt..Display$GT$3fmt17h238672ad02fd2f21E', symObjAddr: 0x42A90, symBinAddr: 0x3E5C0, symSize: 0x20 }
  - { offsetInCU: 0x2DB3D, offset: 0xC616D, size: 0x8, addend: 0x0, symName: '__ZN3std9panicking19begin_panic_handler28_$u7b$$u7b$closure$u7d$$u7d$17h05caf8582ad47024E', symObjAddr: 0x42AB0, symBinAddr: 0x3E5E0, symSize: 0xD0 }
  - { offsetInCU: 0x2DC7E, offset: 0xC62AE, size: 0x8, addend: 0x0, symName: __ZN3std9panicking20rust_panic_with_hook17h476dee14babd971bE, symObjAddr: 0x42C10, symBinAddr: 0x3E6B0, symSize: 0x9F0 }
  - { offsetInCU: 0x2F410, offset: 0xC7A40, size: 0x8, addend: 0x0, symName: __ZN3std9panicking23rust_panic_without_hook17h579ff456134d4b74E, symObjAddr: 0x43600, symBinAddr: 0x3F0A0, symSize: 0xB0 }
  - { offsetInCU: 0x2F61D, offset: 0xC7C4D, size: 0x8, addend: 0x0, symName: '__ZN96_$LT$std..panicking..rust_panic_without_hook..RewrapBox$u20$as$u20$core..panic..PanicPayload$GT$8take_box17h3793a8fc0862ebb3E', symObjAddr: 0x436B0, symBinAddr: 0x3F150, symSize: 0x20 }
  - { offsetInCU: 0x2F679, offset: 0xC7CA9, size: 0x8, addend: 0x0, symName: '__ZN96_$LT$std..panicking..rust_panic_without_hook..RewrapBox$u20$as$u20$core..panic..PanicPayload$GT$3get17hbda62da0c271633bE', symObjAddr: 0x436D0, symBinAddr: 0x3F170, symSize: 0x10 }
  - { offsetInCU: 0x2F69A, offset: 0xC7CCA, size: 0x8, addend: 0x0, symName: '__ZN89_$LT$std..panicking..rust_panic_without_hook..RewrapBox$u20$as$u20$core..fmt..Display$GT$3fmt17h6d162f6ff98fee5dE', symObjAddr: 0x436E0, symBinAddr: 0x3F180, symSize: 0x20 }
  - { offsetInCU: 0x2F6B7, offset: 0xC7CE7, size: 0x8, addend: 0x0, symName: _rust_panic, symObjAddr: 0x43700, symBinAddr: 0x3F1A0, symSize: 0x70 }
  - { offsetInCU: 0x2F73A, offset: 0xC7D6A, size: 0x8, addend: 0x0, symName: __ZN3std6thread6Thread9new_inner17hc776e1c7db6dac42E, symObjAddr: 0x27A30, symBinAddr: 0x39A90, symSize: 0x150 }
  - { offsetInCU: 0x2FB65, offset: 0xC8195, size: 0x8, addend: 0x0, symName: '__ZN68_$LT$std..thread..local..AccessError$u20$as$u20$core..fmt..Debug$GT$3fmt17hfb051a81097c01deE', symObjAddr: 0x27080, symBinAddr: 0x39960, symSize: 0x30 }
  - { offsetInCU: 0x2FBD8, offset: 0xC8208, size: 0x8, addend: 0x0, symName: __ZN3std6thread4park17hac627a69a2c0603dE, symObjAddr: 0x27610, symBinAddr: 0x39990, symSize: 0x100 }
  - { offsetInCU: 0x2FF49, offset: 0xC8579, size: 0x8, addend: 0x0, symName: __ZN3std6thread8ThreadId3new9exhausted17hee7d68b6e81e2237E, symObjAddr: 0x27890, symBinAddr: 0x59120, symSize: 0x50 }
  - { offsetInCU: 0x3003A, offset: 0xC866A, size: 0x8, addend: 0x0, symName: '__ZN3std10sys_common8lazy_box16LazyBox$LT$T$GT$10initialize17h68cb83bd50c56600E', symObjAddr: 0x40360, symBinAddr: 0x59360, symSize: 0x50 }
  - { offsetInCU: 0x30200, offset: 0xC8830, size: 0x8, addend: 0x0, symName: __ZN3std12backtrace_rs9symbolize5gimli7Context3new17ha1962ce590ad2924E, symObjAddr: 0x510B0, symBinAddr: 0x416A0, symSize: 0x3420 }
  - { offsetInCU: 0x34298, offset: 0xCC8C8, size: 0x8, addend: 0x0, symName: __ZN3std12backtrace_rs9symbolize5gimli7Context11find_frames17h7658aa0e29db52d5E, symObjAddr: 0x544D0, symBinAddr: 0x44AC0, symSize: 0x3F0 }
  - { offsetInCU: 0x346C9, offset: 0xCCCF9, size: 0x8, addend: 0x0, symName: __ZN3std12backtrace_rs9symbolize5gimli5macho6Object5parse17h78b3cd8af98e2ca0E, symObjAddr: 0x57A70, symBinAddr: 0x48030, symSize: 0x1090 }
  - { offsetInCU: 0x363CD, offset: 0xCE9FD, size: 0x8, addend: 0x0, symName: __ZN3std12backtrace_rs9symbolize5gimli5macho6Object7section17h2252defa69affb04E, symObjAddr: 0x58B00, symBinAddr: 0x490C0, symSize: 0x19A }
  - { offsetInCU: 0x36734, offset: 0xCED64, size: 0x8, addend: 0x0, symName: __ZN3std12backtrace_rs9symbolize5gimli5macho11find_header17hf7d4993c22952055E, symObjAddr: 0x578E0, symBinAddr: 0x47EA0, symSize: 0x190 }
  - { offsetInCU: 0x36F44, offset: 0xCF574, size: 0x8, addend: 0x0, symName: __ZN3std12backtrace_rs9symbolize5gimli4mmap17hd480a54e9faf1969E, symObjAddr: 0x548C0, symBinAddr: 0x44EB0, symSize: 0x1A0 }
  - { offsetInCU: 0x37523, offset: 0xCFB53, size: 0x8, addend: 0x0, symName: __ZN3std12backtrace_rs9symbolize5gimli7resolve17h96a5664b21f7a158E, symObjAddr: 0x54A60, symBinAddr: 0x45050, symSize: 0x2E50 }
  - { offsetInCU: 0x3D119, offset: 0xD5749, size: 0x8, addend: 0x0, symName: __ZN3std12backtrace_rs9symbolize6Symbol4name17haa9b2560df004d25E, symObjAddr: 0x43840, symBinAddr: 0x3F210, symSize: 0x110 }
  - { offsetInCU: 0x3D1DA, offset: 0xD580A, size: 0x8, addend: 0x0, symName: '__ZN79_$LT$std..backtrace_rs..symbolize..SymbolName$u20$as$u20$core..fmt..Display$GT$3fmt17h00ae6702a7d6284fE', symObjAddr: 0x43A80, symBinAddr: 0x3F320, symSize: 0xE0 }
  - { offsetInCU: 0x3D305, offset: 0xD5935, size: 0x8, addend: 0x0, symName: __ZN3std12backtrace_rs9backtrace9libunwind5trace8trace_fn17h86c77dfc4cf1f602E, symObjAddr: 0x51070, symBinAddr: 0x41660, symSize: 0x40 }
  - { offsetInCU: 0x3D3E3, offset: 0xD5A13, size: 0x8, addend: 0x0, symName: __ZN3std12backtrace_rs5print17BacktraceFrameFmt21print_raw_with_column17h9782bac7179e68beE, symObjAddr: 0x43C40, symBinAddr: 0x3F400, symSize: 0x690 }
  - { offsetInCU: 0x3D629, offset: 0xD5C59, size: 0x8, addend: 0x0, symName: __ZN3std5panic13resume_unwind17ha4764977f44f3a6aE, symObjAddr: 0x38C70, symBinAddr: 0x3B220, symSize: 0x10 }
  - { offsetInCU: 0x3D674, offset: 0xD5CA4, size: 0x8, addend: 0x0, symName: __ZN3std5panic19get_backtrace_style17hb7397f3e46331c67E, symObjAddr: 0x38CB0, symBinAddr: 0x3B230, symSize: 0xF0 }
  - { offsetInCU: 0x3DA0B, offset: 0xD603B, size: 0x8, addend: 0x0, symName: __ZN3std3env11current_dir17he251f845082cc5ddE, symObjAddr: 0x29060, symBinAddr: 0x39BE0, symSize: 0x1F0 }
  - { offsetInCU: 0x3DD72, offset: 0xD63A2, size: 0x8, addend: 0x0, symName: __ZN3std3env7_var_os17he4d73c2dfeb06a82E, symObjAddr: 0x29A20, symBinAddr: 0x39DD0, symSize: 0x160 }
  - { offsetInCU: 0x3E06C, offset: 0xD669C, size: 0x8, addend: 0x0, symName: __ZN3std2fs11OpenOptions5_open17h1d14c781b27b9cd8E, symObjAddr: 0x2BCB0, symBinAddr: 0x39F30, symSize: 0x1F0 }
  - { offsetInCU: 0x3E296, offset: 0xD68C6, size: 0x8, addend: 0x0, symName: __ZN3std5alloc24default_alloc_error_hook17hb7e8942bce464676E, symObjAddr: 0x415B0, symBinAddr: 0x3D290, symSize: 0x160 }
  - { offsetInCU: 0x3E520, offset: 0xD6B50, size: 0x8, addend: 0x0, symName: ___rdl_alloc, symObjAddr: 0x41710, symBinAddr: 0x3D3F0, symSize: 0x70 }
  - { offsetInCU: 0x3E5AF, offset: 0xD6BDF, size: 0x8, addend: 0x0, symName: ___rdl_dealloc, symObjAddr: 0x41780, symBinAddr: 0x3D460, symSize: 0x10 }
  - { offsetInCU: 0x3E5DC, offset: 0xD6C0C, size: 0x8, addend: 0x0, symName: ___rdl_realloc, symObjAddr: 0x41790, symBinAddr: 0x3D470, symSize: 0xA0 }
  - { offsetInCU: 0x3E6EE, offset: 0xD6D1E, size: 0x8, addend: 0x0, symName: __ZN3std5alloc8rust_oom17hdae996a8007ae43bE, symObjAddr: 0x50F70, symBinAddr: 0x41620, symSize: 0x20 }
  - { offsetInCU: 0x3E73A, offset: 0xD6D6A, size: 0x8, addend: 0x0, symName: ___rg_oom, symObjAddr: 0x50F90, symBinAddr: 0x41640, symSize: 0x20 }
  - { offsetInCU: 0x3E899, offset: 0xD6EC9, size: 0x8, addend: 0x0, symName: '__ZN5gimli4read4unit32AttributeValue$LT$R$C$Offset$GT$11udata_value17hede2cb0fa7142a81E', symObjAddr: 0x19DD0, symBinAddr: 0x2D480, symSize: 0x80 }
  - { offsetInCU: 0x3E8F4, offset: 0xD6F24, size: 0x8, addend: 0x0, symName: __ZN5gimli4read4unit15parse_attribute17hdc95fea432f22995E, symObjAddr: 0x171C0, symBinAddr: 0x2A870, symSize: 0x1960 }
  - { offsetInCU: 0x41FE2, offset: 0xDA612, size: 0x8, addend: 0x0, symName: __ZN5gimli4read4unit15skip_attributes17hd3629e11f5bef68bE, symObjAddr: 0x18B20, symBinAddr: 0x2C1D0, symSize: 0x750 }
  - { offsetInCU: 0x42A38, offset: 0xDB068, size: 0x8, addend: 0x0, symName: '__ZN5gimli4read4unit18Attribute$LT$R$GT$5value17hb3a3a1d0d3843921E', symObjAddr: 0x19270, symBinAddr: 0x2C920, symSize: 0x810 }
  - { offsetInCU: 0x42F8A, offset: 0xDB5BA, size: 0x8, addend: 0x0, symName: '__ZN5gimli4read4unit22EntriesCursor$LT$R$GT$10next_entry17hcb0a839aa63ff658E', symObjAddr: 0x19A80, symBinAddr: 0x2D130, symSize: 0x350 }
  - { offsetInCU: 0x434F6, offset: 0xDBB26, size: 0x8, addend: 0x0, symName: '__ZN5gimli4read4unit33DebugInfoUnitHeadersIter$LT$R$GT$4next17h32df442407d963e3E', symObjAddr: 0x19E50, symBinAddr: 0x2D500, symSize: 0x600 }
  - { offsetInCU: 0x4472E, offset: 0xDCD5E, size: 0x8, addend: 0x0, symName: '__ZN90_$LT$gimli..read..unit..AttributeValue$LT$R$C$Offset$GT$$u20$as$u20$core..clone..Clone$GT$5clone17h26b89df82d70d509E', symObjAddr: 0x1F680, symBinAddr: 0x32830, symSize: 0x120 }
  - { offsetInCU: 0x4497F, offset: 0xDCFAF, size: 0x8, addend: 0x0, symName: __ZN5gimli4read6reader6Reader11read_offset17h7e80abe32b9662a5E, symObjAddr: 0x1D830, symBinAddr: 0x30EE0, symSize: 0xB0 }
  - { offsetInCU: 0x44BE4, offset: 0xDD214, size: 0x8, addend: 0x0, symName: __ZN5gimli4read6reader6Reader12read_uleb12817h4ba34c89a0f4e49bE, symObjAddr: 0x1D8E0, symBinAddr: 0x30F90, symSize: 0xB0 }
  - { offsetInCU: 0x44C8F, offset: 0xDD2BF, size: 0x8, addend: 0x0, symName: __ZN5gimli4read6reader6Reader17read_sized_offset17h2d0659fa8369884cE, symObjAddr: 0x1D990, symBinAddr: 0x31040, symSize: 0x130 }
  - { offsetInCU: 0x4510A, offset: 0xDD73A, size: 0x8, addend: 0x0, symName: __ZN5gimli4read4line13parse_file_v517h00102d4450b26936E, symObjAddr: 0x15D20, symBinAddr: 0x293D0, symSize: 0x2E0 }
  - { offsetInCU: 0x4527F, offset: 0xDD8AF, size: 0x8, addend: 0x0, symName: __ZN5gimli4read4line15FileEntryFormat5parse17hd09e7e12b3a83a4eE, symObjAddr: 0x16000, symBinAddr: 0x296B0, symSize: 0x3A0 }
  - { offsetInCU: 0x45A47, offset: 0xDE077, size: 0x8, addend: 0x0, symName: __ZN5gimli4read4line15parse_attribute17h13a52bf6f5b6c965E, symObjAddr: 0x163A0, symBinAddr: 0x29A50, symSize: 0xAC0 }
  - { offsetInCU: 0x475C6, offset: 0xDFBF6, size: 0x8, addend: 0x0, symName: __ZN5gimli4read4line18parse_directory_v517h00bba0525c5798feE, symObjAddr: 0x16E60, symBinAddr: 0x2A510, symSize: 0x110 }
  - { offsetInCU: 0x4763F, offset: 0xDFC6F, size: 0x8, addend: 0x0, symName: '__ZN5gimli4read4line27FileEntry$LT$R$C$Offset$GT$5parse17hcd4749b4839ce183E', symObjAddr: 0x16F70, symBinAddr: 0x2A620, symSize: 0x250 }
  - { offsetInCU: 0x47916, offset: 0xDFF46, size: 0x8, addend: 0x0, symName: '__ZN93_$LT$gimli..read..line..LineProgramHeader$LT$R$C$Offset$GT$$u20$as$u20$core..clone..Clone$GT$5clone17h1fac362afd052016E', symObjAddr: 0x1F7A0, symBinAddr: 0x32950, symSize: 0x5C0 }
  - { offsetInCU: 0x483C2, offset: 0xE09F2, size: 0x8, addend: 0x0, symName: '__ZN5gimli4read5dwarf14Dwarf$LT$R$GT$11attr_string17haadd54a0e6e81ebbE', symObjAddr: 0x1CC80, symBinAddr: 0x30330, symSize: 0x210 }
  - { offsetInCU: 0x48C52, offset: 0xE1282, size: 0x8, addend: 0x0, symName: '__ZN5gimli4read5dwarf13Unit$LT$R$GT$3new17h7b5b7e892a6b53baE', symObjAddr: 0x1A450, symBinAddr: 0x2DB00, symSize: 0x2830 }
  - { offsetInCU: 0x4C496, offset: 0xE4AC6, size: 0x8, addend: 0x0, symName: '__ZN5gimli4read5index18UnitIndex$LT$R$GT$5parse17h7e148d1862301c26E', symObjAddr: 0x1CE90, symBinAddr: 0x30540, symSize: 0x9A0 }
  - { offsetInCU: 0x4C4B3, offset: 0xE4AE3, size: 0x8, addend: 0x0, symName: '__ZN5gimli4read5index18UnitIndex$LT$R$GT$5parse17h7e148d1862301c26E', symObjAddr: 0x1CE90, symBinAddr: 0x30540, symSize: 0x9A0 }
  - { offsetInCU: 0x4C4C7, offset: 0xE4AF7, size: 0x8, addend: 0x0, symName: '__ZN5gimli4read5index18UnitIndex$LT$R$GT$5parse17h7e148d1862301c26E', symObjAddr: 0x1CE90, symBinAddr: 0x30540, symSize: 0x9A0 }
  - { offsetInCU: 0x4CA34, offset: 0xE5064, size: 0x8, addend: 0x0, symName: '__ZN5gimli4read7aranges30ArangeHeader$LT$R$C$Offset$GT$5parse17hb555810ff3d7c330E', symObjAddr: 0x1DAC0, symBinAddr: 0x31170, symSize: 0x2A0 }
  - { offsetInCU: 0x4D2D0, offset: 0xE5900, size: 0x8, addend: 0x0, symName: '__ZN5gimli4read8rnglists20RngListIter$LT$R$GT$4next17h289733bca08e128fE', symObjAddr: 0x1DD60, symBinAddr: 0x31410, symSize: 0x1000 }
  - { offsetInCU: 0x4FE91, offset: 0xE84C1, size: 0x8, addend: 0x0, symName: '__ZN9addr2line8function17Function$LT$R$GT$14parse_children17hbb65783bd45d2861E', symObjAddr: 0x250C0, symBinAddr: 0x38180, symSize: 0x1630 }
  - { offsetInCU: 0x510DC, offset: 0xE970C, size: 0x8, addend: 0x0, symName: __ZN9addr2line8function10name_entry17hc2b582ece92caa7aE, symObjAddr: 0x24C80, symBinAddr: 0x37D40, symSize: 0x440 }
  - { offsetInCU: 0x51508, offset: 0xE9B38, size: 0x8, addend: 0x0, symName: __ZN9addr2line8function9name_attr17hc96fb7a92795daf9E, symObjAddr: 0x266F0, symBinAddr: 0x397B0, symSize: 0x1B0 }
  - { offsetInCU: 0x51700, offset: 0xE9D30, size: 0x8, addend: 0x0, symName: __ZN9addr2line11render_file17h5517ef64accc5d43E, symObjAddr: 0x1FE50, symBinAddr: 0x32F10, symSize: 0x6B0 }
  - { offsetInCU: 0x51EAD, offset: 0xEA4DD, size: 0x8, addend: 0x0, symName: '__ZN9addr2line16Context$LT$R$GT$9find_unit17hd9fd8439b7d6087eE', symObjAddr: 0x20500, symBinAddr: 0x335C0, symSize: 0x150 }
  - { offsetInCU: 0x52171, offset: 0xEA7A1, size: 0x8, addend: 0x0, symName: '__ZN9addr2line16ResUnit$LT$R$GT$25find_function_or_location17h07e609037f3ea598E', symObjAddr: 0x20650, symBinAddr: 0x33710, symSize: 0x560 }
  - { offsetInCU: 0x52556, offset: 0xEAB86, size: 0x8, addend: 0x0, symName: '__ZN9addr2line16ResUnit$LT$R$GT$25find_function_or_location28_$u7b$$u7b$closure$u7d$$u7d$17hee587d2ae9be3845E', symObjAddr: 0x20BB0, symBinAddr: 0x33C70, symSize: 0x1CD0 }
  - { offsetInCU: 0x54E91, offset: 0xED4C1, size: 0x8, addend: 0x0, symName: '__ZN9addr2line18FrameIter$LT$R$GT$4next17h45f956316232ee2fE', symObjAddr: 0x22880, symBinAddr: 0x35940, symSize: 0x400 }
  - { offsetInCU: 0x5537A, offset: 0xED9AA, size: 0x8, addend: 0x0, symName: '__ZN9addr2line30LoopingLookup$LT$T$C$L$C$F$GT$10new_lookup17h74c847bef191747eE', symObjAddr: 0x22C80, symBinAddr: 0x35D40, symSize: 0x520 }
  - { offsetInCU: 0x5581D, offset: 0xEDE4D, size: 0x8, addend: 0x0, symName: __ZN9addr2line5Lines5parse17hba10f936c372d0e0E, symObjAddr: 0x231A0, symBinAddr: 0x36260, symSize: 0x1AE0 }
  - { offsetInCU: 0x5829E, offset: 0xF08CE, size: 0x8, addend: 0x0, symName: __ZN6object4read7archive13ArchiveMember5parse17h9773f219fabef87fE, symObjAddr: 0x1F1E0, symBinAddr: 0x32430, symSize: 0x360 }
  - { offsetInCU: 0x588D5, offset: 0xF0F05, size: 0x8, addend: 0x0, symName: __ZN6object4read7archive23parse_bsd_extended_name17hcb481cad095c5149E, symObjAddr: 0x1F540, symBinAddr: 0x32790, symSize: 0xA0 }
  - { offsetInCU: 0x1E, offset: 0xF15FE, size: 0x8, addend: 0x0, symName: '__ZN4core3ptr49drop_in_place$LT$panic_unwind..imp..Exception$GT$17h7cb1f70ba27daa8aE', symObjAddr: 0x0, symBinAddr: 0x49260, symSize: 0x70 }
  - { offsetInCU: 0x43, offset: 0xF1623, size: 0x8, addend: 0x0, symName: '__ZN4core3ptr49drop_in_place$LT$panic_unwind..imp..Exception$GT$17h7cb1f70ba27daa8aE', symObjAddr: 0x0, symBinAddr: 0x49260, symSize: 0x70 }
  - { offsetInCU: 0x147, offset: 0xF1727, size: 0x8, addend: 0x0, symName: '__ZN4core3ptr74drop_in_place$LT$alloc..boxed..Box$LT$panic_unwind..imp..Exception$GT$$GT$17hd08adefcc1143184E', symObjAddr: 0x70, symBinAddr: 0x492D0, symSize: 0x90 }
  - { offsetInCU: 0x416, offset: 0xF19F6, size: 0x8, addend: 0x0, symName: __ZN12panic_unwind3imp5panic17exception_cleanup17hd6ad6022d0a6ffe7E, symObjAddr: 0x200, symBinAddr: 0x49460, symSize: 0x16 }
  - { offsetInCU: 0x432, offset: 0xF1A12, size: 0x8, addend: 0x0, symName: ___rust_panic_cleanup, symObjAddr: 0x100, symBinAddr: 0x49360, symSize: 0x50 }
  - { offsetInCU: 0x4A9, offset: 0xF1A89, size: 0x8, addend: 0x0, symName: ___rust_start_panic, symObjAddr: 0x150, symBinAddr: 0x493B0, symSize: 0xB0 }
  - { offsetInCU: 0x189, offset: 0xF1CAE, size: 0x8, addend: 0x0, symName: __ZN6memchr6memchr3x864sse26memchr17h1c3f8a3b85e5e51bE, symObjAddr: 0x8F0, symBinAddr: 0x49780, symSize: 0x1C0 }
  - { offsetInCU: 0x1A0, offset: 0xF1CC5, size: 0x8, addend: 0x0, symName: __ZN6memchr6memchr3x864sse26memchr17h1c3f8a3b85e5e51bE, symObjAddr: 0x8F0, symBinAddr: 0x49780, symSize: 0x1C0 }
  - { offsetInCU: 0x4B0, offset: 0xF1FD5, size: 0x8, addend: 0x0, symName: __ZN6memchr6memchr3x864sse27memchr217h2270963e261333a1E, symObjAddr: 0xAB0, symBinAddr: 0x49940, symSize: 0x1F0 }
  - { offsetInCU: 0x4CE, offset: 0xF1FF3, size: 0x8, addend: 0x0, symName: __ZN6memchr6memchr3x864sse27memchr217h2270963e261333a1E, symObjAddr: 0xAB0, symBinAddr: 0x49940, symSize: 0x1F0 }
  - { offsetInCU: 0x1E, offset: 0xF2349, size: 0x8, addend: 0x0, symName: __ZN9hashbrown3raw11Fallibility17capacity_overflow17hd4e9ded7f222eebaE, symObjAddr: 0x0, symBinAddr: 0x52270, symSize: 0x50 }
  - { offsetInCU: 0x5A, offset: 0xF2385, size: 0x8, addend: 0x0, symName: __ZN9hashbrown3raw11Fallibility17capacity_overflow17hd4e9ded7f222eebaE, symObjAddr: 0x0, symBinAddr: 0x52270, symSize: 0x50 }
  - { offsetInCU: 0x89, offset: 0xF23B4, size: 0x8, addend: 0x0, symName: __ZN9hashbrown3raw11Fallibility9alloc_err17h1b85c99cbebac136E, symObjAddr: 0x50, symBinAddr: 0x522C0, symSize: 0x20 }
  - { offsetInCU: 0x53, offset: 0xF2424, size: 0x8, addend: 0x0, symName: __ZN4core3fmt5Write9write_fmt17h1b2defdef86f2e6bE, symObjAddr: 0x20, symBinAddr: 0x522E0, symSize: 0x20 }
  - { offsetInCU: 0x94, offset: 0xF2465, size: 0x8, addend: 0x0, symName: '__ZN53_$LT$core..fmt..Error$u20$as$u20$core..fmt..Debug$GT$3fmt17h03dc662ab152f3aeE', symObjAddr: 0xC0, symBinAddr: 0x52320, symSize: 0x20 }
  - { offsetInCU: 0x101, offset: 0xF24D2, size: 0x8, addend: 0x0, symName: '__ZN4core3ptr42drop_in_place$LT$alloc..string..String$GT$17h61f13859bd1ac9a5E', symObjAddr: 0x60, symBinAddr: 0x52300, symSize: 0x20 }
  - { offsetInCU: 0x1F8, offset: 0xF25C9, size: 0x8, addend: 0x0, symName: '__ZN69_$LT$core..alloc..layout..LayoutError$u20$as$u20$core..fmt..Debug$GT$3fmt17h954ec1b18e5120d2E', symObjAddr: 0xE0, symBinAddr: 0x52340, symSize: 0x20 }
  - { offsetInCU: 0x5F6, offset: 0xF29C7, size: 0x8, addend: 0x0, symName: '__ZN5alloc7raw_vec19RawVec$LT$T$C$A$GT$8grow_one17he6f4182565c06affE', symObjAddr: 0x1F0, symBinAddr: 0x523B0, symSize: 0xA0 }
  - { offsetInCU: 0x837, offset: 0xF2C08, size: 0x8, addend: 0x0, symName: __ZN5alloc7raw_vec17capacity_overflow17hd5f476d0f4b04237E, symObjAddr: 0x100, symBinAddr: 0x52360, symSize: 0x50 }
  - { offsetInCU: 0x870, offset: 0xF2C41, size: 0x8, addend: 0x0, symName: '__ZN5alloc7raw_vec19RawVec$LT$T$C$A$GT$7reserve21do_reserve_and_handle17h8390814197170b81E', symObjAddr: 0x150, symBinAddr: 0x59890, symSize: 0xA0 }
  - { offsetInCU: 0x98C, offset: 0xF2D5D, size: 0x8, addend: 0x0, symName: __ZN5alloc7raw_vec11finish_grow17hac7a643019d04e69E, symObjAddr: 0x290, symBinAddr: 0x52450, symSize: 0xA0 }
  - { offsetInCU: 0x9F1, offset: 0xF2DC2, size: 0x8, addend: 0x0, symName: __ZN5alloc7raw_vec12handle_error17h19d8d109ef215ad1E, symObjAddr: 0x330, symBinAddr: 0x59930, symSize: 0x20 }
  - { offsetInCU: 0xAC7, offset: 0xF2E98, size: 0x8, addend: 0x0, symName: __ZN5alloc5alloc18handle_alloc_error17h8a695ff0459568c7E, symObjAddr: 0x350, symBinAddr: 0x59950, symSize: 0x20 }
  - { offsetInCU: 0xB52, offset: 0xF2F23, size: 0x8, addend: 0x0, symName: '__ZN93_$LT$alloc..collections..btree..mem..replace..PanicGuard$u20$as$u20$core..ops..drop..Drop$GT$4drop17h76cb43db49f7bda9E', symObjAddr: 0xD20, symBinAddr: 0x52570, symSize: 0x10 }
  - { offsetInCU: 0xBA3, offset: 0xF2F74, size: 0x8, addend: 0x0, symName: '__ZN67_$LT$alloc..boxed..Box$LT$str$GT$$u20$as$u20$core..clone..Clone$GT$5clone17hf884fa4646c4d14dE', symObjAddr: 0x480, symBinAddr: 0x524F0, symSize: 0x80 }
  - { offsetInCU: 0xE0C, offset: 0xF31DD, size: 0x8, addend: 0x0, symName: '__ZN98_$LT$alloc..string..String$u20$as$u20$core..convert..From$LT$alloc..borrow..Cow$LT$str$GT$$GT$$GT$4from17hec4993baf6aa823bE', symObjAddr: 0x5140, symBinAddr: 0x52CD0, symSize: 0xB0 }
  - { offsetInCU: 0xF7F, offset: 0xF3350, size: 0x8, addend: 0x0, symName: __ZN5alloc6string6String15from_utf8_lossy17he3705d0cc87192c3E, symObjAddr: 0x3390, symBinAddr: 0x529F0, symSize: 0x250 }
  - { offsetInCU: 0x14D8, offset: 0xF38A9, size: 0x8, addend: 0x0, symName: '__ZN60_$LT$alloc..string..String$u20$as$u20$core..clone..Clone$GT$5clone17hde423967ac997fe2E', symObjAddr: 0x4C50, symBinAddr: 0x52C40, symSize: 0x90 }
  - { offsetInCU: 0x15DE, offset: 0xF39AF, size: 0x8, addend: 0x0, symName: '__ZN58_$LT$alloc..string..String$u20$as$u20$core..fmt..Write$GT$9write_str17h46a93205c3443fbaE', symObjAddr: 0x51F0, symBinAddr: 0x52D80, symSize: 0x60 }
  - { offsetInCU: 0x16C3, offset: 0xF3A94, size: 0x8, addend: 0x0, symName: '__ZN58_$LT$alloc..string..String$u20$as$u20$core..fmt..Write$GT$10write_char17h04bc467bd68a934bE', symObjAddr: 0x5250, symBinAddr: 0x52DE0, symSize: 0x140 }
  - { offsetInCU: 0x193B, offset: 0xF3D0C, size: 0x8, addend: 0x0, symName: '__ZN72_$LT$$RF$str$u20$as$u20$alloc..ffi..c_str..CString..new..SpecNewImpl$GT$13spec_new_impl17h0cf21b87e1c8da06E', symObjAddr: 0xDA0, symBinAddr: 0x52580, symSize: 0x0 }
  - { offsetInCU: 0x1B3F, offset: 0xF3F10, size: 0x8, addend: 0x0, symName: __ZN5alloc3ffi5c_str7CString19_from_vec_unchecked17h3b0136e31afee425E, symObjAddr: 0x1030, symBinAddr: 0x526B0, symSize: 0x120 }
  - { offsetInCU: 0x1DFD, offset: 0xF41CE, size: 0x8, addend: 0x0, symName: __ZN5alloc3fmt6format12format_inner17hb1e808122341bcd9E, symObjAddr: 0x1840, symBinAddr: 0x527D0, symSize: 0x1B0 }
  - { offsetInCU: 0x201F, offset: 0xF43F0, size: 0x8, addend: 0x0, symName: __ZN5alloc2rc29rcbox_layout_for_value_layout17h0a45f53074ba9126E, symObjAddr: 0x19F0, symBinAddr: 0x52980, symSize: 0x70 }
  - { offsetInCU: 0x203E, offset: 0xF440F, size: 0x8, addend: 0x0, symName: __ZN5alloc2rc29rcbox_layout_for_value_layout17h0a45f53074ba9126E, symObjAddr: 0x19F0, symBinAddr: 0x52980, symSize: 0x70 }
  - { offsetInCU: 0x2053, offset: 0xF4424, size: 0x8, addend: 0x0, symName: __ZN5alloc2rc29rcbox_layout_for_value_layout17h0a45f53074ba9126E, symObjAddr: 0x19F0, symBinAddr: 0x52980, symSize: 0x70 }
  - { offsetInCU: 0x2068, offset: 0xF4439, size: 0x8, addend: 0x0, symName: __ZN5alloc2rc29rcbox_layout_for_value_layout17h0a45f53074ba9126E, symObjAddr: 0x19F0, symBinAddr: 0x52980, symSize: 0x70 }
  - { offsetInCU: 0x207D, offset: 0xF444E, size: 0x8, addend: 0x0, symName: __ZN5alloc2rc29rcbox_layout_for_value_layout17h0a45f53074ba9126E, symObjAddr: 0x19F0, symBinAddr: 0x52980, symSize: 0x70 }
  - { offsetInCU: 0x216D, offset: 0xF453E, size: 0x8, addend: 0x0, symName: __ZN5alloc4sync32arcinner_layout_for_value_layout17hbeb03db793229b3bE, symObjAddr: 0x54A0, symBinAddr: 0x52F20, symSize: 0x70 }
  - { offsetInCU: 0x218C, offset: 0xF455D, size: 0x8, addend: 0x0, symName: __ZN5alloc4sync32arcinner_layout_for_value_layout17hbeb03db793229b3bE, symObjAddr: 0x54A0, symBinAddr: 0x52F20, symSize: 0x70 }
  - { offsetInCU: 0x21A1, offset: 0xF4572, size: 0x8, addend: 0x0, symName: __ZN5alloc4sync32arcinner_layout_for_value_layout17hbeb03db793229b3bE, symObjAddr: 0x54A0, symBinAddr: 0x52F20, symSize: 0x70 }
  - { offsetInCU: 0x21B6, offset: 0xF4587, size: 0x8, addend: 0x0, symName: __ZN5alloc4sync32arcinner_layout_for_value_layout17hbeb03db793229b3bE, symObjAddr: 0x54A0, symBinAddr: 0x52F20, symSize: 0x70 }
  - { offsetInCU: 0x21CB, offset: 0xF459C, size: 0x8, addend: 0x0, symName: __ZN5alloc4sync32arcinner_layout_for_value_layout17hbeb03db793229b3bE, symObjAddr: 0x54A0, symBinAddr: 0x52F20, symSize: 0x70 }
  - { offsetInCU: 0x182, offset: 0xF480A, size: 0x8, addend: 0x0, symName: '__ZN42_$LT$str$u20$as$u20$core..fmt..Display$GT$3fmt17h0fda321badf74e6aE', symObjAddr: 0xE5A0, symBinAddr: 0x55090, symSize: 0x20 }
  - { offsetInCU: 0x236, offset: 0xF48BE, size: 0x8, addend: 0x0, symName: __ZN4core3fmt9Formatter12pad_integral17h8972ffd3c8b0cfc1E, symObjAddr: 0xC730, symBinAddr: 0x54090, symSize: 0x4D0 }
  - { offsetInCU: 0x4F1, offset: 0xF4B79, size: 0x8, addend: 0x0, symName: __ZN4core3fmt9Formatter3pad17h1cd3f01fe2fd2736E, symObjAddr: 0xCC60, symBinAddr: 0x545C0, symSize: 0x3F0 }
  - { offsetInCU: 0x92D, offset: 0xF4FB5, size: 0x8, addend: 0x0, symName: __ZN4core3fmt9Formatter9write_str17h0118ad48afc9d895E, symObjAddr: 0xD500, symBinAddr: 0x549B0, symSize: 0x0 }
  - { offsetInCU: 0x941, offset: 0xF4FC9, size: 0x8, addend: 0x0, symName: __ZN4core3fmt9Formatter12debug_struct17he2ba4147cf3f70c3E, symObjAddr: 0xD520, symBinAddr: 0x549D0, symSize: 0x40 }
  - { offsetInCU: 0x97F, offset: 0xF5007, size: 0x8, addend: 0x0, symName: __ZN4core3fmt9Formatter26debug_struct_field1_finish17hb39d7b9a28168dcfE, symObjAddr: 0xD560, symBinAddr: 0x54A10, symSize: 0xB0 }
  - { offsetInCU: 0xA56, offset: 0xF50DE, size: 0x8, addend: 0x0, symName: __ZN4core3fmt9Formatter26debug_struct_field2_finish17hc06f7d961bd659acE, symObjAddr: 0xD610, symBinAddr: 0x54AC0, symSize: 0xD0 }
  - { offsetInCU: 0xB2D, offset: 0xF51B5, size: 0x8, addend: 0x0, symName: __ZN4core3fmt9Formatter11debug_tuple17hc8eb609d0a1a39baE, symObjAddr: 0xDAE0, symBinAddr: 0x54B90, symSize: 0x50 }
  - { offsetInCU: 0xB89, offset: 0xF5211, size: 0x8, addend: 0x0, symName: __ZN4core3fmt9Formatter25debug_tuple_field1_finish17ha8c77f5d0334b7adE, symObjAddr: 0xDB30, symBinAddr: 0x54BE0, symSize: 0xD0 }
  - { offsetInCU: 0xC56, offset: 0xF52DE, size: 0x8, addend: 0x0, symName: __ZN4core3fmt9Formatter10debug_list17h06e79a079c85ca53E, symObjAddr: 0xE0E0, symBinAddr: 0x54CB0, symSize: 0x40 }
  - { offsetInCU: 0xCFD, offset: 0xF5385, size: 0x8, addend: 0x0, symName: __ZN4core3fmt8builders11DebugStruct5field17h0ffe8fbe02645e65E, symObjAddr: 0x9620, symBinAddr: 0x538E0, symSize: 0x1B0 }
  - { offsetInCU: 0xF09, offset: 0xF5591, size: 0x8, addend: 0x0, symName: __ZN4core3fmt8builders11DebugStruct6finish17hee2e7ea1f7b53a47E, symObjAddr: 0x9880, symBinAddr: 0x53A90, symSize: 0x60 }
  - { offsetInCU: 0x1009, offset: 0xF5691, size: 0x8, addend: 0x0, symName: '__ZN68_$LT$core..fmt..builders..PadAdapter$u20$as$u20$core..fmt..Write$GT$9write_str17hccc2b902801ed8d2E', symObjAddr: 0x9340, symBinAddr: 0x53600, symSize: 0x280 }
  - { offsetInCU: 0x1240, offset: 0xF58C8, size: 0x8, addend: 0x0, symName: '__ZN68_$LT$core..fmt..builders..PadAdapter$u20$as$u20$core..fmt..Write$GT$10write_char17h0f9dfee2e64bcd77E', symObjAddr: 0x95C0, symBinAddr: 0x53880, symSize: 0x60 }
  - { offsetInCU: 0x12BE, offset: 0xF5946, size: 0x8, addend: 0x0, symName: __ZN4core3fmt8builders10DebugTuple5field17h008439c0ac16da21E, symObjAddr: 0x98E0, symBinAddr: 0x53AF0, symSize: 0x150 }
  - { offsetInCU: 0x1447, offset: 0xF5ACF, size: 0x8, addend: 0x0, symName: __ZN4core3fmt8builders10DebugTuple6finish17h09b759d26efe9a66E, symObjAddr: 0x9A30, symBinAddr: 0x53C40, symSize: 0x90 }
  - { offsetInCU: 0x1587, offset: 0xF5C0F, size: 0x8, addend: 0x0, symName: __ZN4core3fmt8builders8DebugSet5entry17h2d024717e11579e0E, symObjAddr: 0x9AC0, symBinAddr: 0x53CD0, symSize: 0x0 }
  - { offsetInCU: 0x1732, offset: 0xF5DBA, size: 0x8, addend: 0x0, symName: __ZN4core3fmt8builders9DebugList6finish17ha8368efce69978bfE, symObjAddr: 0x9C40, symBinAddr: 0x53E10, symSize: 0x40 }
  - { offsetInCU: 0x17BE, offset: 0xF5E46, size: 0x8, addend: 0x0, symName: '__ZN57_$LT$core..fmt..Formatter$u20$as$u20$core..fmt..Write$GT$10write_char17h707d6fad029c4630E', symObjAddr: 0xE1A0, symBinAddr: 0x54CF0, symSize: 0x20 }
  - { offsetInCU: 0x17F1, offset: 0xF5E79, size: 0x8, addend: 0x0, symName: __ZN4core3fmt5Write9write_fmt17h5d296d7037892cbdE, symObjAddr: 0xC4D0, symBinAddr: 0x53E50, symSize: 0x20 }
  - { offsetInCU: 0x1931, offset: 0xF5FB9, size: 0x8, addend: 0x0, symName: '__ZN4core3fmt3num3imp51_$LT$impl$u20$core..fmt..Display$u20$for$u20$u8$GT$3fmt17hd78e8ef4f3cd9c45E', symObjAddr: 0x1B0C0, symBinAddr: 0x57420, symSize: 0x90 }
  - { offsetInCU: 0x19D6, offset: 0xF605E, size: 0x8, addend: 0x0, symName: '__ZN4core3fmt3num3imp52_$LT$impl$u20$core..fmt..Display$u20$for$u20$i32$GT$3fmt17h489d415102b22552E', symObjAddr: 0x1B340, symBinAddr: 0x574B0, symSize: 0x130 }
  - { offsetInCU: 0x1A7A, offset: 0xF6102, size: 0x8, addend: 0x0, symName: '__ZN4core3fmt3num3imp52_$LT$impl$u20$core..fmt..Display$u20$for$u20$u32$GT$3fmt17hc40b7317ea9c81d1E', symObjAddr: 0x1B470, symBinAddr: 0x575E0, symSize: 0x120 }
  - { offsetInCU: 0x1B1E, offset: 0xF61A6, size: 0x8, addend: 0x0, symName: '__ZN4core3fmt3num3imp52_$LT$impl$u20$core..fmt..Display$u20$for$u20$u64$GT$3fmt17h2e9b6424619279b2E', symObjAddr: 0x1B6C0, symBinAddr: 0x57700, symSize: 0x0 }
  - { offsetInCU: 0x1BD6, offset: 0xF625E, size: 0x8, addend: 0x0, symName: '__ZN4core3fmt3num52_$LT$impl$u20$core..fmt..LowerHex$u20$for$u20$i8$GT$3fmt17h03e3df9ac0fd0464E', symObjAddr: 0x19D70, symBinAddr: 0x56E40, symSize: 0x0 }
  - { offsetInCU: 0x1D4B, offset: 0xF63D3, size: 0x8, addend: 0x0, symName: '__ZN4core3fmt3num52_$LT$impl$u20$core..fmt..UpperHex$u20$for$u20$i8$GT$3fmt17h6f0bde4771b4f009E', symObjAddr: 0x19E10, symBinAddr: 0x56EE0, symSize: 0x0 }
  - { offsetInCU: 0x1ED3, offset: 0xF655B, size: 0x8, addend: 0x0, symName: '__ZN4core3fmt3num53_$LT$impl$u20$core..fmt..LowerHex$u20$for$u20$i32$GT$3fmt17hee7d14134452d6d7E', symObjAddr: 0x1A210, symBinAddr: 0x56F80, symSize: 0x0 }
  - { offsetInCU: 0x2063, offset: 0xF66EB, size: 0x8, addend: 0x0, symName: '__ZN4core3fmt3num53_$LT$impl$u20$core..fmt..UpperHex$u20$for$u20$i32$GT$3fmt17hbfc0f68a02be4ca1E', symObjAddr: 0x1A2B0, symBinAddr: 0x57020, symSize: 0x0 }
  - { offsetInCU: 0x21E0, offset: 0xF6868, size: 0x8, addend: 0x0, symName: '__ZN4core3fmt3num53_$LT$impl$u20$core..fmt..LowerHex$u20$for$u20$i64$GT$3fmt17hbd90a137258b6cb9E', symObjAddr: 0x1A470, symBinAddr: 0x570C0, symSize: 0x0 }
  - { offsetInCU: 0x2370, offset: 0xF69F8, size: 0x8, addend: 0x0, symName: '__ZN4core3fmt3num53_$LT$impl$u20$core..fmt..UpperHex$u20$for$u20$i64$GT$3fmt17h62eb0ff735ecf1a0E', symObjAddr: 0x1A510, symBinAddr: 0x57160, symSize: 0x0 }
  - { offsetInCU: 0x24F3, offset: 0xF6B7B, size: 0x8, addend: 0x0, symName: '__ZN4core3fmt3num52_$LT$impl$u20$core..fmt..Debug$u20$for$u20$usize$GT$3fmt17h9e5c63f85393f427E', symObjAddr: 0x1AE00, symBinAddr: 0x57200, symSize: 0x220 }
  - { offsetInCU: 0x284F, offset: 0xF6ED7, size: 0x8, addend: 0x0, symName: '__ZN59_$LT$core..fmt..Arguments$u20$as$u20$core..fmt..Display$GT$3fmt17h73b8fbb663c88c51E', symObjAddr: 0xC510, symBinAddr: 0x53E70, symSize: 0x20 }
  - { offsetInCU: 0x2880, offset: 0xF6F08, size: 0x8, addend: 0x0, symName: __ZN4core3fmt5write17hace734add356d1f2E, symObjAddr: 0xC530, symBinAddr: 0x53E90, symSize: 0x200 }
  - { offsetInCU: 0x2A79, offset: 0xF7101, size: 0x8, addend: 0x0, symName: __ZN4core3fmt9Formatter12pad_integral12write_prefix17h09b544bef0610067E, symObjAddr: 0xCC00, symBinAddr: 0x54560, symSize: 0x60 }
  - { offsetInCU: 0x2AD2, offset: 0xF715A, size: 0x8, addend: 0x0, symName: '__ZN40_$LT$str$u20$as$u20$core..fmt..Debug$GT$3fmt17h59f79d374e7cce1eE', symObjAddr: 0xE220, symBinAddr: 0x54D10, symSize: 0x380 }
  - { offsetInCU: 0x2F8D, offset: 0xF7615, size: 0x8, addend: 0x0, symName: '__ZN41_$LT$char$u20$as$u20$core..fmt..Debug$GT$3fmt17h183f5a1467d8dfe5E', symObjAddr: 0xE5C0, symBinAddr: 0x550B0, symSize: 0x90 }
  - { offsetInCU: 0x30B3, offset: 0xF773B, size: 0x8, addend: 0x0, symName: '__ZN43_$LT$char$u20$as$u20$core..fmt..Display$GT$3fmt17hf66ab4ff3899151dE', symObjAddr: 0xE650, symBinAddr: 0x55140, symSize: 0xF0 }
  - { offsetInCU: 0x30D2, offset: 0xF775A, size: 0x8, addend: 0x0, symName: '__ZN43_$LT$char$u20$as$u20$core..fmt..Display$GT$3fmt17hf66ab4ff3899151dE', symObjAddr: 0xE650, symBinAddr: 0x55140, symSize: 0xF0 }
  - { offsetInCU: 0x30E7, offset: 0xF776F, size: 0x8, addend: 0x0, symName: '__ZN43_$LT$char$u20$as$u20$core..fmt..Display$GT$3fmt17hf66ab4ff3899151dE', symObjAddr: 0xE650, symBinAddr: 0x55140, symSize: 0xF0 }
  - { offsetInCU: 0x3164, offset: 0xF77EC, size: 0x8, addend: 0x0, symName: __ZN4core3fmt17pointer_fmt_inner17h0d3929dbbd6c7c2aE, symObjAddr: 0xE740, symBinAddr: 0x55230, symSize: 0xE0 }
  - { offsetInCU: 0x331A, offset: 0xF79A2, size: 0x8, addend: 0x0, symName: '__ZN42_$LT$$RF$T$u20$as$u20$core..fmt..Debug$GT$3fmt17h1110e597aeb296f6E', symObjAddr: 0x1C7E0, symBinAddr: 0x57820, symSize: 0x20 }
  - { offsetInCU: 0x333B, offset: 0xF79C3, size: 0x8, addend: 0x0, symName: '__ZN44_$LT$$RF$T$u20$as$u20$core..fmt..Display$GT$3fmt17h96d8cf3f9cca3c56E', symObjAddr: 0x1C850, symBinAddr: 0x57840, symSize: 0x20 }
  - { offsetInCU: 0x37A8, offset: 0xF7E30, size: 0x8, addend: 0x0, symName: __ZN4core3num23from_str_radix_panic_rt17hb27af51eba7af9c9E, symObjAddr: 0x5170, symBinAddr: 0x52F90, symSize: 0x60 }
  - { offsetInCU: 0x37D8, offset: 0xF7E60, size: 0x8, addend: 0x0, symName: __ZN4core3num20from_str_radix_panic17h074f0c73331affbdE, symObjAddr: 0x51D0, symBinAddr: 0x59970, symSize: 0x10 }
  - { offsetInCU: 0x38D4, offset: 0xF7F5C, size: 0x8, addend: 0x0, symName: '__ZN4core3num21_$LT$impl$u20$u32$GT$14from_str_radix17h9cea532e04b64059E', symObjAddr: 0x173B0, symBinAddr: 0x56C60, symSize: 0x1E0 }
  - { offsetInCU: 0x39F1, offset: 0xF8079, size: 0x8, addend: 0x0, symName: '__ZN4core3num62_$LT$impl$u20$core..str..traits..FromStr$u20$for$u20$usize$GT$8from_str17h3e135b17ef7e316bE', symObjAddr: 0x16140, symBinAddr: 0x56B80, symSize: 0xE0 }
  - { offsetInCU: 0x3CB3, offset: 0xF833B, size: 0x8, addend: 0x0, symName: __ZN4core5slice5index26slice_start_index_len_fail17hc2f78d08e3a7cf81E, symObjAddr: 0xF170, symBinAddr: 0x59F50, symSize: 0x70 }
  - { offsetInCU: 0x3D04, offset: 0xF838C, size: 0x8, addend: 0x0, symName: __ZN4core5slice5index24slice_end_index_len_fail17h71b1f8e59c3fcdfeE, symObjAddr: 0xF1E0, symBinAddr: 0x59FC0, symSize: 0x70 }
  - { offsetInCU: 0x3D55, offset: 0xF83DD, size: 0x8, addend: 0x0, symName: __ZN4core5slice5index22slice_index_order_fail17h0140d9cf40fd68a5E, symObjAddr: 0xF250, symBinAddr: 0x5A030, symSize: 0x70 }
  - { offsetInCU: 0x417A, offset: 0xF8802, size: 0x8, addend: 0x0, symName: __ZN4core5slice6memchr14memchr_aligned17h133855cd69f468d3E, symObjAddr: 0xE910, symBinAddr: 0x55310, symSize: 0xF0 }
  - { offsetInCU: 0x425E, offset: 0xF88E6, size: 0x8, addend: 0x0, symName: __ZN4core5slice4sort6stable5drift11sqrt_approx17h106640da2bd74303E, symObjAddr: 0xEB10, symBinAddr: 0x55400, symSize: 0x30 }
  - { offsetInCU: 0x42DB, offset: 0xF8963, size: 0x8, addend: 0x0, symName: __ZN4core5slice4sort6shared9smallsort22panic_on_ord_violation17h133d7f05205c4f20E, symObjAddr: 0xEB40, symBinAddr: 0x55430, symSize: 0x50 }
  - { offsetInCU: 0x4664, offset: 0xF8CEC, size: 0x8, addend: 0x0, symName: __ZN4core6option13unwrap_failed17hf0ce88b8039e6075E, symObjAddr: 0x89E0, symBinAddr: 0x59A40, symSize: 0x20 }
  - { offsetInCU: 0x467F, offset: 0xF8D07, size: 0x8, addend: 0x0, symName: __ZN4core6option13expect_failed17h5435a7ff7a2acd97E, symObjAddr: 0x8A00, symBinAddr: 0x59A60, symSize: 0x60 }
  - { offsetInCU: 0x46F6, offset: 0xF8D7E, size: 0x8, addend: 0x0, symName: '__ZN71_$LT$core..ops..range..Range$LT$Idx$GT$$u20$as$u20$core..fmt..Debug$GT$3fmt17h08592e28b763072aE', symObjAddr: 0x5330, symBinAddr: 0x52FF0, symSize: 0x50 }
  - { offsetInCU: 0x49A6, offset: 0xF902E, size: 0x8, addend: 0x0, symName: __ZN4core6result13unwrap_failed17had190471c291bd03E, symObjAddr: 0x9240, symBinAddr: 0x59ED0, symSize: 0x80 }
  - { offsetInCU: 0x4A09, offset: 0xF9091, size: 0x8, addend: 0x0, symName: __ZN4core5ascii14escape_default17h1e814b1bae4eab41E, symObjAddr: 0x5650, symBinAddr: 0x53040, symSize: 0x120 }
  - { offsetInCU: 0x4B19, offset: 0xF91A1, size: 0x8, addend: 0x0, symName: '__ZN60_$LT$core..cell..BorrowError$u20$as$u20$core..fmt..Debug$GT$3fmt17he427392b15fc8c64E', symObjAddr: 0x57F0, symBinAddr: 0x53160, symSize: 0x20 }
  - { offsetInCU: 0x4B7B, offset: 0xF9203, size: 0x8, addend: 0x0, symName: '__ZN63_$LT$core..cell..BorrowMutError$u20$as$u20$core..fmt..Debug$GT$3fmt17hf4f968fd2f533c90E', symObjAddr: 0x5830, symBinAddr: 0x53180, symSize: 0x20 }
  - { offsetInCU: 0x4BD8, offset: 0xF9260, size: 0x8, addend: 0x0, symName: __ZN4core4cell22panic_already_borrowed17ha9b6b30d2a6c1da3E, symObjAddr: 0x5870, symBinAddr: 0x59980, symSize: 0x60 }
  - { offsetInCU: 0x4C08, offset: 0xF9290, size: 0x8, addend: 0x0, symName: __ZN4core4cell30panic_already_mutably_borrowed17he911c2e71862ea73E, symObjAddr: 0x58D0, symBinAddr: 0x599E0, symSize: 0x60 }
  - { offsetInCU: 0x4C86, offset: 0xF930E, size: 0x8, addend: 0x0, symName: '__ZN4core4char7methods22_$LT$impl$u20$char$GT$16escape_debug_ext17h45343360e0479290E', symObjAddr: 0x59F0, symBinAddr: 0x531A0, symSize: 0x2C0 }
  - { offsetInCU: 0x4F05, offset: 0xF958D, size: 0x8, addend: 0x0, symName: __ZN4core7unicode12unicode_data15grapheme_extend11lookup_slow17hcf452ea06c1dd27eE, symObjAddr: 0x1E000, symBinAddr: 0x57880, symSize: 0x160 }
  - { offsetInCU: 0x5147, offset: 0xF97CF, size: 0x8, addend: 0x0, symName: __ZN4core7unicode12unicode_data2cc6lookup17ha8c997d3d336cb8fE, symObjAddr: 0x1DFE0, symBinAddr: 0x57860, symSize: 0x20 }
  - { offsetInCU: 0x51A6, offset: 0xF982E, size: 0x8, addend: 0x0, symName: __ZN4core7unicode9printable5check17h9aa6e320d7115c02E, symObjAddr: 0x12090, symBinAddr: 0x56930, symSize: 0x120 }
  - { offsetInCU: 0x53E4, offset: 0xF9A6C, size: 0x8, addend: 0x0, symName: __ZN4core7unicode9printable12is_printable17h5397384c9e262cd0E, symObjAddr: 0x121B0, symBinAddr: 0x56A50, symSize: 0x130 }
  - { offsetInCU: 0x540F, offset: 0xF9A97, size: 0x8, addend: 0x0, symName: __ZN4core3ffi5c_str4CStr19from_bytes_with_nul17h192dd45a613e8c2dE, symObjAddr: 0x60D0, symBinAddr: 0x53460, symSize: 0x120 }
  - { offsetInCU: 0x54D2, offset: 0xF9B5A, size: 0x8, addend: 0x0, symName: __ZN4core9panicking9panic_fmt17had5c0183b828cb49E, symObjAddr: 0x8BD0, symBinAddr: 0x59AC0, symSize: 0x50 }
  - { offsetInCU: 0x5514, offset: 0xF9B9C, size: 0x8, addend: 0x0, symName: __ZN4core9panicking18panic_nounwind_fmt17hb4571fb78fc10a76E, symObjAddr: 0x8C20, symBinAddr: 0x59B10, symSize: 0x60 }
  - { offsetInCU: 0x5558, offset: 0xF9BE0, size: 0x8, addend: 0x0, symName: __ZN4core9panicking5panic17hf0e1cc2ca8e1dc83E, symObjAddr: 0x8C80, symBinAddr: 0x59B70, symSize: 0x50 }
  - { offsetInCU: 0x5587, offset: 0xF9C0F, size: 0x8, addend: 0x0, symName: __ZN4core9panicking14panic_nounwind17ha12d9e403b05feccE, symObjAddr: 0x8CD0, symBinAddr: 0x59BC0, symSize: 0x50 }
  - { offsetInCU: 0x55B6, offset: 0xF9C3E, size: 0x8, addend: 0x0, symName: __ZN4core9panicking26panic_nounwind_nobacktrace17h5f1522f9c13eafe4E, symObjAddr: 0x8D20, symBinAddr: 0x59C10, symSize: 0x50 }
  - { offsetInCU: 0x55E5, offset: 0xF9C6D, size: 0x8, addend: 0x0, symName: __ZN4core9panicking18panic_bounds_check17h109fe50f98469fc4E, symObjAddr: 0x8DD0, symBinAddr: 0x59C60, symSize: 0x70 }
  - { offsetInCU: 0x5615, offset: 0xF9C9D, size: 0x8, addend: 0x0, symName: __ZN4core9panicking19panic_cannot_unwind17h4b15d87e2e2757a8E, symObjAddr: 0x8F20, symBinAddr: 0x59CD0, symSize: 0x20 }
  - { offsetInCU: 0x5630, offset: 0xF9CB8, size: 0x8, addend: 0x0, symName: __ZN4core9panicking16panic_in_cleanup17hc82a6604fb78741fE, symObjAddr: 0x8F40, symBinAddr: 0x59CF0, symSize: 0x20 }
  - { offsetInCU: 0x564B, offset: 0xF9CD3, size: 0x8, addend: 0x0, symName: __ZN4core9panicking19assert_failed_inner17he0737abe7f31c06cE, symObjAddr: 0x9080, symBinAddr: 0x59D10, symSize: 0x1C0 }
  - { offsetInCU: 0x5694, offset: 0xF9D1C, size: 0x8, addend: 0x0, symName: __ZN4core9panicking11panic_const23panic_const_div_by_zero17h1ba33e25180c9760E, symObjAddr: 0x18650, symBinAddr: 0x5A0F0, symSize: 0x40 }
  - { offsetInCU: 0x56C3, offset: 0xF9D4B, size: 0x8, addend: 0x0, symName: __ZN4core9panicking11panic_const23panic_const_rem_by_zero17hddb47ddab6d21ac2E, symObjAddr: 0x18690, symBinAddr: 0x5A130, symSize: 0x40 }
  - { offsetInCU: 0x5703, offset: 0xF9D8B, size: 0x8, addend: 0x0, symName: '__ZN70_$LT$core..panic..location..Location$u20$as$u20$core..fmt..Display$GT$3fmt17h3b775daa4da0c84fE', symObjAddr: 0x8A60, symBinAddr: 0x53580, symSize: 0x80 }
  - { offsetInCU: 0x5896, offset: 0xF9F1E, size: 0x8, addend: 0x0, symName: __ZN4core3str7pattern11StrSearcher3new17hc777094db0ba1f96E, symObjAddr: 0x10220, symBinAddr: 0x55D10, symSize: 0x640 }
  - { offsetInCU: 0x5C9E, offset: 0xFA326, size: 0x8, addend: 0x0, symName: __ZN4core3str5count14do_count_chars17ha3390eb253e30d2dE, symObjAddr: 0xF8D0, symBinAddr: 0x55690, symSize: 0x5C0 }
  - { offsetInCU: 0x606A, offset: 0xFA6F2, size: 0x8, addend: 0x0, symName: __ZN4core3str5count23char_count_general_case17h70df39afcdec0f69E, symObjAddr: 0xFE90, symBinAddr: 0x55C50, symSize: 0xC0 }
  - { offsetInCU: 0x60BE, offset: 0xFA746, size: 0x8, addend: 0x0, symName: __ZN4core3str5count23char_count_general_case17h70df39afcdec0f69E, symObjAddr: 0xFE90, symBinAddr: 0x55C50, symSize: 0xC0 }
  - { offsetInCU: 0x621C, offset: 0xFA8A4, size: 0x8, addend: 0x0, symName: __ZN4core3str6traits23str_index_overflow_fail17hca1c64009da7550cE, symObjAddr: 0x101E0, symBinAddr: 0x5A0A0, symSize: 0x40 }
  - { offsetInCU: 0x6273, offset: 0xFA8FB, size: 0x8, addend: 0x0, symName: __ZN4core3str8converts9from_utf817hbfae1c12ba0f752dE, symObjAddr: 0xF4B0, symBinAddr: 0x55480, symSize: 0x210 }
  - { offsetInCU: 0x62E1, offset: 0xFA969, size: 0x8, addend: 0x0, symName: '__ZN87_$LT$core..str..lossy..Utf8Chunks$u20$as$u20$core..iter..traits..iterator..Iterator$GT$4next17h3143161bfe02572dE', symObjAddr: 0x10D20, symBinAddr: 0x56350, symSize: 0x1C0 }
  - { offsetInCU: 0x64DA, offset: 0xFAB62, size: 0x8, addend: 0x0, symName: __ZN4core3str16slice_error_fail17h37538355c87ca0baE, symObjAddr: 0x10FA0, symBinAddr: 0x5A0E0, symSize: 0x10 }
  - { offsetInCU: 0x64F4, offset: 0xFAB7C, size: 0x8, addend: 0x0, symName: __ZN4core3str19slice_error_fail_rt17h799bbeb831541f16E, symObjAddr: 0x10FF0, symBinAddr: 0x56510, symSize: 0x420 }
...
