---
triple:          'x86_64-apple-darwin'
binary-path:     "/Users/justinlanouette/Chaos/ChaöS-Token/hello_world/target/release/deps/libsolana_sdk_macro-c52584b8a9435f9a.dylib"
relocations:
  - { offsetInCU: 0x1E, offset: 0x1E, size: 0x8, addend: 0x0, symName: __ZN10proc_macro6bridge6client14HandleCounters3get17h2c76d49220b98e92E, symObjAddr: 0x0, symBinAddr: 0x3530, symSize: 0x10 }
  - { offsetInCU: 0x40, offset: 0x40, size: 0x8, addend: 0x0, symName: ___rustc_proc_macro_decls_df1040f9bb4355f5__, symObjAddr: 0x11640, symBinAddr: 0x218438, symSize: 0x0 }
  - { offsetInCU: 0x4E, offset: 0x4E, size: 0x8, addend: 0x0, symName: __ZN16solana_sdk_macro8parse_id17h73ab8678e4781e68E.llvm.5381137006942873413, symObjAddr: 0xA500, symBinAddr: 0xDA30, symSize: 0x470 }
  - { offsetInCU: 0x9C8, offset: 0x9C8, size: 0x8, addend: 0x0, symName: __ZN16solana_sdk_macro12id_to_tokens17h09dd0ca8cce5e71dE.llvm.5381137006942873413, symObjAddr: 0xA970, symBinAddr: 0xDEA0, symSize: 0x7D0 }
  - { offsetInCU: 0xBC6, offset: 0xBC6, size: 0x8, addend: 0x0, symName: __ZN16solana_sdk_macro23deprecated_id_to_tokens17h688142b6eae04caaE.llvm.5381137006942873413, symObjAddr: 0xB140, symBinAddr: 0xE670, symSize: 0x9A0 }
  - { offsetInCU: 0xE4D, offset: 0xE4D, size: 0x8, addend: 0x0, symName: '__ZN58_$LT$solana_sdk_macro..Id$u20$as$u20$syn..parse..Parse$GT$5parse17hc7cc7e4d4093f29eE', symObjAddr: 0xBAE0, symBinAddr: 0xF010, symSize: 0x0 }
  - { offsetInCU: 0xEDD, offset: 0xEDD, size: 0x8, addend: 0x0, symName: '__ZN68_$LT$solana_sdk_macro..ProgramSdkId$u20$as$u20$syn..parse..Parse$GT$5parse17h9017465b89e3d3f4E', symObjAddr: 0xBC00, symBinAddr: 0xF130, symSize: 0x0 }
  - { offsetInCU: 0xF79, offset: 0xF79, size: 0x8, addend: 0x0, symName: '__ZN67_$LT$solana_sdk_macro..RespanInput$u20$as$u20$syn..parse..Parse$GT$5parse17h20481e2384d546a7E', symObjAddr: 0xBD20, symBinAddr: 0xF250, symSize: 0x450 }
  - { offsetInCU: 0x16B4, offset: 0x16B4, size: 0x8, addend: 0x0, symName: __ZN16solana_sdk_macro6pubkey17hc745f50e2fcfd49dE, symObjAddr: 0xC170, symBinAddr: 0xF6A0, symSize: 0x1F0 }
  - { offsetInCU: 0x1B5E, offset: 0x1B5E, size: 0x8, addend: 0x0, symName: __ZN16solana_sdk_macro14program_pubkey17hf617a990f8e80bfaE, symObjAddr: 0xC360, symBinAddr: 0xF890, symSize: 0x1F0 }
  - { offsetInCU: 0x1FE7, offset: 0x1FE7, size: 0x8, addend: 0x0, symName: __ZN16solana_sdk_macro10declare_id17h658757ce859669e7E, symObjAddr: 0xC550, symBinAddr: 0xFA80, symSize: 0x240 }
  - { offsetInCU: 0x2413, offset: 0x2413, size: 0x8, addend: 0x0, symName: __ZN16solana_sdk_macro21declare_deprecated_id17h7bbd643f0d68dd3cE, symObjAddr: 0xC790, symBinAddr: 0xFCC0, symSize: 0x240 }
  - { offsetInCU: 0x282A, offset: 0x282A, size: 0x8, addend: 0x0, symName: __ZN16solana_sdk_macro18program_declare_id17h484d77f648c1c7cdE, symObjAddr: 0xC9D0, symBinAddr: 0xFF00, symSize: 0x240 }
  - { offsetInCU: 0x2C56, offset: 0x2C56, size: 0x8, addend: 0x0, symName: __ZN16solana_sdk_macro29program_declare_deprecated_id17h812c24c653cd0060E, symObjAddr: 0xCC10, symBinAddr: 0x10140, symSize: 0x240 }
  - { offsetInCU: 0x30FE, offset: 0x30FE, size: 0x8, addend: 0x0, symName: __ZN16solana_sdk_macro12parse_pubkey17h8ed4f25134c49486E, symObjAddr: 0xCE50, symBinAddr: 0x10380, symSize: 0x3F0 }
  - { offsetInCU: 0x3A4A, offset: 0x3A4A, size: 0x8, addend: 0x0, symName: '__ZN63_$LT$solana_sdk_macro..Pubkeys$u20$as$u20$syn..parse..Parse$GT$5parse17h30aa5765795d4c20E', symObjAddr: 0xD240, symBinAddr: 0x10770, symSize: 0x8F0 }
  - { offsetInCU: 0x4F37, offset: 0x4F37, size: 0x8, addend: 0x0, symName: __ZN16solana_sdk_macro7pubkeys17hed1200a810c1bf27E, symObjAddr: 0xDB30, symBinAddr: 0x11060, symSize: 0x630 }
  - { offsetInCU: 0x5572, offset: 0x5572, size: 0x8, addend: 0x0, symName: __ZN16solana_sdk_macro17wasm_bindgen_stub17h2d0565873f5b59deE, symObjAddr: 0xE160, symBinAddr: 0x11690, symSize: 0x390 }
  - { offsetInCU: 0x5EE5, offset: 0x5EE5, size: 0x8, addend: 0x0, symName: __ZN16solana_sdk_macro19derive_clone_zeroed17h2e3d235535fa660dE, symObjAddr: 0xE4F0, symBinAddr: 0x11A20, symSize: 0xCD0 }
  - { offsetInCU: 0x6B69, offset: 0x6B69, size: 0x8, addend: 0x0, symName: __ZN16solana_sdk_macro6respan17hd40ebcb24448ebd0E, symObjAddr: 0xF1C0, symBinAddr: 0x126F0, symSize: 0x2E4 }
  - { offsetInCU: 0xB36B, offset: 0xB36B, size: 0x8, addend: 0x0, symName: '__ZN4core3ptr100drop_in_place$LT$core..option..Option$LT$alloc..boxed..Box$LT$syn..path..GenericArgument$GT$$GT$$GT$17he391ca71004a94c6E', symObjAddr: 0x10, symBinAddr: 0x3540, symSize: 0x50 }
  - { offsetInCU: 0xB557, offset: 0xB557, size: 0x8, addend: 0x0, symName: '__ZN4core3ptr100drop_in_place$LT$syn..punctuated..Punctuated$LT$proc_macro2..TokenStream$C$syn..token..Comma$GT$$GT$17h14d9654c1e2c4313E', symObjAddr: 0x60, symBinAddr: 0x3590, symSize: 0x110 }
  - { offsetInCU: 0xBBF5, offset: 0xBBF5, size: 0x8, addend: 0x0, symName: '__ZN4core3ptr100drop_in_place$LT$syn..punctuated..Punctuated$LT$syn..path..PathSegment$C$syn..token..PathSep$GT$$GT$17h2dfe96e422883a8dE', symObjAddr: 0x170, symBinAddr: 0x36A0, symSize: 0x270 }
  - { offsetInCU: 0xC598, offset: 0xC598, size: 0x8, addend: 0x0, symName: '__ZN4core3ptr103drop_in_place$LT$core..option..Option$LT$alloc..boxed..Box$LT$syn..generics..TypeParamBound$GT$$GT$$GT$17h2e0799f9e231fb71E', symObjAddr: 0x3E0, symBinAddr: 0x3910, symSize: 0x50 }
  - { offsetInCU: 0xC7E1, offset: 0xC7E1, size: 0x8, addend: 0x0, symName: '__ZN4core3ptr103drop_in_place$LT$core..option..Option$LT$alloc..boxed..Box$LT$syn..generics..WherePredicate$GT$$GT$$GT$17h3211260989d5489eE', symObjAddr: 0x430, symBinAddr: 0x3960, symSize: 0xD0 }
  - { offsetInCU: 0xCB75, offset: 0xCB75, size: 0x8, addend: 0x0, symName: '__ZN4core3ptr103drop_in_place$LT$syn..punctuated..Punctuated$LT$syn..generics..GenericParam$C$syn..token..Comma$GT$$GT$17ha7f92b446d43b2a6E', symObjAddr: 0x500, symBinAddr: 0x3A30, symSize: 0xF0 }
  - { offsetInCU: 0xD013, offset: 0xD013, size: 0x8, addend: 0x0, symName: '__ZN4core3ptr104drop_in_place$LT$syn..punctuated..Punctuated$LT$syn..generics..TypeParamBound$C$syn..token..Plus$GT$$GT$17h17fc0ae8b7cffbeaE', symObjAddr: 0x5F0, symBinAddr: 0x3B20, symSize: 0x190 }
  - { offsetInCU: 0xD636, offset: 0xD636, size: 0x8, addend: 0x0, symName: '__ZN4core3ptr115drop_in_place$LT$core..option..Option$LT$$LP$alloc..boxed..Box$LT$syn..pat..Pat$GT$$C$syn..token..Colon$RP$$GT$$GT$17hb7b15b8594e40726E', symObjAddr: 0x780, symBinAddr: 0x3CB0, symSize: 0x50 }
  - { offsetInCU: 0xD804, offset: 0xD804, size: 0x8, addend: 0x0, symName: '__ZN4core3ptr115drop_in_place$LT$core..option..Option$LT$$LP$syn..token..Brace$C$alloc..vec..Vec$LT$syn..item..Item$GT$$RP$$GT$$GT$17hd97d430eae6ff2d4E', symObjAddr: 0x7D0, symBinAddr: 0x3D00, symSize: 0xD0 }
  - { offsetInCU: 0xDB1B, offset: 0xDB1B, size: 0x8, addend: 0x0, symName: '__ZN4core3ptr126drop_in_place$LT$core..option..Option$LT$$LP$syn..token..And$C$core..option..Option$LT$syn..lifetime..Lifetime$GT$$RP$$GT$$GT$17h50bddadae75e6696E', symObjAddr: 0x8A0, symBinAddr: 0x3DD0, symSize: 0x30 }
  - { offsetInCU: 0xDD2E, offset: 0xDD2E, size: 0x8, addend: 0x0, symName: '__ZN4core3ptr34drop_in_place$LT$syn..lit..Lit$GT$17h437be26ef7f89ee9E', symObjAddr: 0x8D0, symBinAddr: 0x3E00, symSize: 0x120 }
  - { offsetInCU: 0xE1FD, offset: 0xE1FD, size: 0x8, addend: 0x0, symName: '__ZN4core3ptr34drop_in_place$LT$syn..pat..Pat$GT$17h237556641a2eb7e0E', symObjAddr: 0x9F0, symBinAddr: 0x3F20, symSize: 0x1090 }
  - { offsetInCU: 0x121DE, offset: 0x121DE, size: 0x8, addend: 0x0, symName: '__ZN4core3ptr34drop_in_place$LT$syn..ty..Type$GT$17h7ac3676ddd6a1e03E', symObjAddr: 0x1A80, symBinAddr: 0x4FB0, symSize: 0x4F0 }
  - { offsetInCU: 0x13721, offset: 0x13721, size: 0x8, addend: 0x0, symName: '__ZN4core3ptr36drop_in_place$LT$syn..expr..Expr$GT$17h4fe8aa45fb773e88E', symObjAddr: 0x1F70, symBinAddr: 0x54A0, symSize: 0x27D0 }
  - { offsetInCU: 0x1D2EF, offset: 0x1D2EF, size: 0x8, addend: 0x0, symName: '__ZN4core3ptr36drop_in_place$LT$syn..item..Item$GT$17h3bf01bd773b2d218E', symObjAddr: 0x4740, symBinAddr: 0x7C70, symSize: 0x17D0 }
  - { offsetInCU: 0x22DFD, offset: 0x22DFD, size: 0x8, addend: 0x0, symName: '__ZN4core3ptr36drop_in_place$LT$syn..mac..Macro$GT$17h4374dd5fb8195592E', symObjAddr: 0x5F10, symBinAddr: 0x9440, symSize: 0x40 }
  - { offsetInCU: 0x22E37, offset: 0x22E37, size: 0x8, addend: 0x0, symName: '__ZN4core3ptr36drop_in_place$LT$syn..path..Path$GT$17h4e3bf6964f7a783fE', symObjAddr: 0x5F50, symBinAddr: 0x9480, symSize: 0x240 }
  - { offsetInCU: 0x237D1, offset: 0x237D1, size: 0x8, addend: 0x0, symName: '__ZN4core3ptr37drop_in_place$LT$syn..stmt..Block$GT$17he4224228b73be10cE', symObjAddr: 0x6190, symBinAddr: 0x96C0, symSize: 0xD0 }
  - { offsetInCU: 0x23AC7, offset: 0x23AC7, size: 0x8, addend: 0x0, symName: '__ZN4core3ptr38drop_in_place$LT$syn..data..Fields$GT$17h2ecf372ee9966467E', symObjAddr: 0x6260, symBinAddr: 0x9790, symSize: 0x190 }
  - { offsetInCU: 0x23F4F, offset: 0x23F4F, size: 0x8, addend: 0x0, symName: '__ZN4core3ptr38drop_in_place$LT$syn..error..Error$GT$17h9ccd8f449965cc45E.llvm.5381137006942873413', symObjAddr: 0x63F0, symBinAddr: 0x9920, symSize: 0x90 }
  - { offsetInCU: 0x241FD, offset: 0x241FD, size: 0x8, addend: 0x0, symName: '__ZN4core3ptr38drop_in_place$LT$syn..expr..Member$GT$17h3d9e49116e6a0a47E', symObjAddr: 0x6480, symBinAddr: 0x99B0, symSize: 0x30 }
  - { offsetInCU: 0x24410, offset: 0x24410, size: 0x8, addend: 0x0, symName: '__ZN4core3ptr39drop_in_place$LT$proc_macro2..Group$GT$17h4fe6672fb008b9deE', symObjAddr: 0x64B0, symBinAddr: 0x99E0, symSize: 0x60 }
  - { offsetInCU: 0x2455C, offset: 0x2455C, size: 0x8, addend: 0x0, symName: '__ZN4core3ptr39drop_in_place$LT$proc_macro2..Ident$GT$17h76665a77baab8676E', symObjAddr: 0x6510, symBinAddr: 0x9A40, symSize: 0x30 }
  - { offsetInCU: 0x24750, offset: 0x24750, size: 0x8, addend: 0x0, symName: '__ZN4core3ptr39drop_in_place$LT$syn..item..UseTree$GT$17hc2f1fc8d70a10a46E', symObjAddr: 0x6540, symBinAddr: 0x9A70, symSize: 0x1E0 }
  - { offsetInCU: 0x24E81, offset: 0x24E81, size: 0x8, addend: 0x0, symName: '__ZN4core3ptr40drop_in_place$LT$syn..ty..ReturnType$GT$17h54ee3ae5b021d6e3E', symObjAddr: 0x6720, symBinAddr: 0x9C50, symSize: 0x50 }
  - { offsetInCU: 0x24FF1, offset: 0x24FF1, size: 0x8, addend: 0x0, symName: '__ZN4core3ptr41drop_in_place$LT$syn..expr..ExprConst$GT$17h886637f6846d9992E', symObjAddr: 0x6770, symBinAddr: 0x9CA0, symSize: 0x180 }
  - { offsetInCU: 0x25607, offset: 0x25607, size: 0x8, addend: 0x0, symName: '__ZN4core3ptr41drop_in_place$LT$syn..item..Signature$GT$17h7fd40296ef5ec9beE', symObjAddr: 0x68F0, symBinAddr: 0x9E20, symSize: 0x230 }
  - { offsetInCU: 0x25EA6, offset: 0x25EA6, size: 0x8, addend: 0x0, symName: '__ZN4core3ptr42drop_in_place$LT$syn..item..ItemStruct$GT$17h97d8a30a2636bea2E', symObjAddr: 0x6B20, symBinAddr: 0xA050, symSize: 0x190 }
  - { offsetInCU: 0x26409, offset: 0x26409, size: 0x8, addend: 0x0, symName: '__ZN4core3ptr43drop_in_place$LT$proc_macro2..TokenTree$GT$17h4b1efa197a8362d5E', symObjAddr: 0x6CB0, symBinAddr: 0xA1E0, symSize: 0xB0 }
  - { offsetInCU: 0x26764, offset: 0x26764, size: 0x8, addend: 0x0, symName: '__ZN4core3ptr43drop_in_place$LT$syn..data..FieldsNamed$GT$17h92ea91465a3c8d50E', symObjAddr: 0x6D60, symBinAddr: 0xA290, symSize: 0xE0 }
  - { offsetInCU: 0x26A8A, offset: 0x26A8A, size: 0x8, addend: 0x0, symName: '__ZN4core3ptr44drop_in_place$LT$syn..generics..Generics$GT$17h76f2424f32021d9cE', symObjAddr: 0x6E40, symBinAddr: 0xA370, symSize: 0x40 }
  - { offsetInCU: 0x26AA7, offset: 0x26AA7, size: 0x8, addend: 0x0, symName: '__ZN4core3ptr44drop_in_place$LT$syn..lifetime..Lifetime$GT$17h726d2571fff50de2E', symObjAddr: 0x6E80, symBinAddr: 0xA3B0, symSize: 0x30 }
  - { offsetInCU: 0x26C1F, offset: 0x26C1F, size: 0x8, addend: 0x0, symName: '__ZN4core3ptr44drop_in_place$LT$syn..parse..ParseBuffer$GT$17h6f6b06e3f6e7e770E', symObjAddr: 0x6EB0, symBinAddr: 0xA3E0, symSize: 0x70 }
  - { offsetInCU: 0x26F9B, offset: 0x26F9B, size: 0x8, addend: 0x0, symName: '__ZN4core3ptr45drop_in_place$LT$proc_macro2..TokenStream$GT$17h81c7169c3b48b9bcE.llvm.5381137006942873413', symObjAddr: 0x6F20, symBinAddr: 0xA450, symSize: 0x140 }
  - { offsetInCU: 0x27435, offset: 0x27435, size: 0x8, addend: 0x0, symName: '__ZN4core3ptr45drop_in_place$LT$syn..generics..TypeParam$GT$17hd659a97577de08eeE', symObjAddr: 0x7060, symBinAddr: 0xA590, symSize: 0x230 }
  - { offsetInCU: 0x27C57, offset: 0x27C57, size: 0x8, addend: 0x0, symName: '__ZN4core3ptr46drop_in_place$LT$solana_sdk_macro..Pubkeys$GT$17he0fe71814f6fe96cE', symObjAddr: 0x7290, symBinAddr: 0xA7C0, symSize: 0x40 }
  - { offsetInCU: 0x27C77, offset: 0x27C77, size: 0x8, addend: 0x0, symName: '__ZN4core3ptr46drop_in_place$LT$solana_sdk_macro..Pubkeys$GT$17he0fe71814f6fe96cE', symObjAddr: 0x7290, symBinAddr: 0xA7C0, symSize: 0x40 }
  - { offsetInCU: 0x27C95, offset: 0x27C95, size: 0x8, addend: 0x0, symName: '__ZN4core3ptr46drop_in_place$LT$solana_sdk_macro..Pubkeys$GT$17he0fe71814f6fe96cE', symObjAddr: 0x7290, symBinAddr: 0xA7C0, symSize: 0x40 }
  - { offsetInCU: 0x27D76, offset: 0x27D76, size: 0x8, addend: 0x0, symName: '__ZN4core3ptr46drop_in_place$LT$syn..generics..ConstParam$GT$17had953b7979b4073dE', symObjAddr: 0x72D0, symBinAddr: 0xA800, symSize: 0x150 }
  - { offsetInCU: 0x281C3, offset: 0x281C3, size: 0x8, addend: 0x0, symName: '__ZN4core3ptr47drop_in_place$LT$syn..path..GenericArgument$GT$17h82abe738557647d7E', symObjAddr: 0x7420, symBinAddr: 0xA950, symSize: 0x4A0 }
  - { offsetInCU: 0x292C9, offset: 0x292C9, size: 0x8, addend: 0x0, symName: '__ZN4core3ptr49drop_in_place$LT$syn..generics..LifetimeParam$GT$17h5157ca9611562e07E', symObjAddr: 0x78C0, symBinAddr: 0xADF0, symSize: 0xF0 }
  - { offsetInCU: 0x296AC, offset: 0x296AC, size: 0x8, addend: 0x0, symName: '__ZN4core3ptr49drop_in_place$LT$syn..restriction..Visibility$GT$17h0a4551d6628ca50cE', symObjAddr: 0x79B0, symBinAddr: 0xAEE0, symSize: 0x60 }
  - { offsetInCU: 0x2981D, offset: 0x2981D, size: 0x8, addend: 0x0, symName: '__ZN4core3ptr50drop_in_place$LT$syn..generics..TypeParamBound$GT$17hf46a9001589aa52aE', symObjAddr: 0x7A10, symBinAddr: 0xAF40, symSize: 0x180 }
  - { offsetInCU: 0x29C67, offset: 0x29C67, size: 0x8, addend: 0x0, symName: '__ZN4core3ptr58drop_in_place$LT$alloc..vec..Vec$LT$syn..expr..Arm$GT$$GT$17h39d8a98188fc55acE', symObjAddr: 0x7B90, symBinAddr: 0xB0C0, symSize: 0xD0 }
  - { offsetInCU: 0x29F27, offset: 0x29F27, size: 0x8, addend: 0x0, symName: '__ZN4core3ptr59drop_in_place$LT$alloc..boxed..Box$LT$syn..pat..Pat$GT$$GT$17he04dca2bc4c97376E', symObjAddr: 0x7C60, symBinAddr: 0xB190, symSize: 0x50 }
  - { offsetInCU: 0x2A080, offset: 0x2A080, size: 0x8, addend: 0x0, symName: '__ZN4core3ptr59drop_in_place$LT$alloc..boxed..Box$LT$syn..ty..Type$GT$$GT$17hfcfe2957c1417924E', symObjAddr: 0x7CB0, symBinAddr: 0xB1E0, symSize: 0x50 }
  - { offsetInCU: 0x2A1D9, offset: 0x2A1D9, size: 0x8, addend: 0x0, symName: '__ZN4core3ptr61drop_in_place$LT$alloc..boxed..Box$LT$syn..expr..Expr$GT$$GT$17h16d421fdfe816b45E', symObjAddr: 0x7D00, symBinAddr: 0xB230, symSize: 0x50 }
  - { offsetInCU: 0x2A3AE, offset: 0x2A3AE, size: 0x8, addend: 0x0, symName: '__ZN4core3ptr61drop_in_place$LT$syn..path..ParenthesizedGenericArguments$GT$17h5d48be12a1f78e48E', symObjAddr: 0x7D50, symBinAddr: 0xB280, symSize: 0x170 }
  - { offsetInCU: 0x2A9A4, offset: 0x2A9A4, size: 0x8, addend: 0x0, symName: '__ZN4core3ptr62drop_in_place$LT$alloc..boxed..Box$LT$syn..stmt..Block$GT$$GT$17he392fed8276bcb8aE', symObjAddr: 0x7EC0, symBinAddr: 0xB3F0, symSize: 0xE0 }
  - { offsetInCU: 0x2ADB2, offset: 0x2ADB2, size: 0x8, addend: 0x0, symName: '__ZN4core3ptr62drop_in_place$LT$syn..path..AngleBracketedGenericArguments$GT$17hfa1af91e9ff7811aE', symObjAddr: 0x7FA0, symBinAddr: 0xB4D0, symSize: 0x120 }
  - { offsetInCU: 0x2B1FD, offset: 0x2B1FD, size: 0x8, addend: 0x0, symName: '__ZN4core3ptr63drop_in_place$LT$alloc..boxed..Box$LT$syn..lit..LitRepr$GT$$GT$17ha704bb6edd8cdde2E', symObjAddr: 0x80C0, symBinAddr: 0xB5F0, symSize: 0x60 }
  - { offsetInCU: 0x2B4C6, offset: 0x2B4C6, size: 0x8, addend: 0x0, symName: '__ZN4core3ptr63drop_in_place$LT$alloc..vec..Vec$LT$syn..item..ImplItem$GT$$GT$17h58135ef539f4c54aE', symObjAddr: 0x8120, symBinAddr: 0xB650, symSize: 0x80 }
  - { offsetInCU: 0x2B77E, offset: 0x2B77E, size: 0x8, addend: 0x0, symName: '__ZN4core3ptr64drop_in_place$LT$alloc..boxed..Box$LT$syn..item..UseTree$GT$$GT$17h4b068a3cc1cf80c0E', symObjAddr: 0x81A0, symBinAddr: 0xB6D0, symSize: 0x50 }
  - { offsetInCU: 0x2B915, offset: 0x2B915, size: 0x8, addend: 0x0, symName: '__ZN4core3ptr64drop_in_place$LT$alloc..boxed..Box$LT$syn..pat..FieldPat$GT$$GT$17haf965b72204ee1a2E', symObjAddr: 0x81F0, symBinAddr: 0xB720, symSize: 0x140 }
  - { offsetInCU: 0x2BFE2, offset: 0x2BFE2, size: 0x8, addend: 0x0, symName: '__ZN4core3ptr64drop_in_place$LT$alloc..boxed..Box$LT$syn..ty..BareFnArg$GT$$GT$17hdf88c04816000d9bE', symObjAddr: 0x8330, symBinAddr: 0xB860, symSize: 0x140 }
  - { offsetInCU: 0x2C537, offset: 0x2C537, size: 0x8, addend: 0x0, symName: '__ZN4core3ptr64drop_in_place$LT$alloc..vec..Vec$LT$syn..item..TraitItem$GT$$GT$17h81af3ed407d6e06fE', symObjAddr: 0x8470, symBinAddr: 0xB9A0, symSize: 0x80 }
  - { offsetInCU: 0x2C7EF, offset: 0x2C7EF, size: 0x8, addend: 0x0, symName: '__ZN4core3ptr65drop_in_place$LT$alloc..vec..Vec$LT$proc_macro..TokenTree$GT$$GT$17hf1013a596b3924c6E.llvm.5381137006942873413', symObjAddr: 0x84F0, symBinAddr: 0xBA20, symSize: 0x110 }
  - { offsetInCU: 0x2CBE7, offset: 0x2CBE7, size: 0x8, addend: 0x0, symName: '__ZN4core3ptr65drop_in_place$LT$core..option..Option$LT$syn..expr..Label$GT$$GT$17hcf722fa220bcc9cfE', symObjAddr: 0x8600, symBinAddr: 0xBB30, symSize: 0x30 }
  - { offsetInCU: 0x2CD21, offset: 0x2CD21, size: 0x8, addend: 0x0, symName: '__ZN4core3ptr66drop_in_place$LT$alloc..vec..Vec$LT$syn..item..ForeignItem$GT$$GT$17h07b51ebdf230575aE', symObjAddr: 0x8630, symBinAddr: 0xBB60, symSize: 0x80 }
  - { offsetInCU: 0x2CFD9, offset: 0x2CFD9, size: 0x8, addend: 0x0, symName: '__ZN4core3ptr66drop_in_place$LT$core..option..Option$LT$syn..pat..PatRest$GT$$GT$17h40fbfe68f1d6c709E', symObjAddr: 0x86B0, symBinAddr: 0xBBE0, symSize: 0xE0 }
  - { offsetInCU: 0x2D2CD, offset: 0x2D2CD, size: 0x8, addend: 0x0, symName: '__ZN4core3ptr67drop_in_place$LT$alloc..boxed..Box$LT$syn..expr..FieldValue$GT$$GT$17h4b3ded6a0ab796f9E', symObjAddr: 0x8790, symBinAddr: 0xBCC0, symSize: 0x140 }
  - { offsetInCU: 0x2D802, offset: 0x2D802, size: 0x8, addend: 0x0, symName: '__ZN4core3ptr68drop_in_place$LT$alloc..boxed..Box$LT$syn..path..PathSegment$GT$$GT$17hcacba60b83caf2eeE', symObjAddr: 0x88D0, symBinAddr: 0xBE00, symSize: 0x1B0 }
  - { offsetInCU: 0x2DF2F, offset: 0x2DF2F, size: 0x8, addend: 0x0, symName: '__ZN4core3ptr68drop_in_place$LT$core..option..Option$LT$syn..item..Variadic$GT$$GT$17he5a67f32c4ddf3d5E', symObjAddr: 0x8A80, symBinAddr: 0xBFB0, symSize: 0x120 }
  - { offsetInCU: 0x2E3AF, offset: 0x2E3AF, size: 0x8, addend: 0x0, symName: '__ZN4core3ptr70drop_in_place$LT$core..option..Option$LT$syn..ty..BareVariadic$GT$$GT$17hc27acce291494219E', symObjAddr: 0x8BA0, symBinAddr: 0xC0D0, symSize: 0x100 }
  - { offsetInCU: 0x2E7E6, offset: 0x2E7E6, size: 0x8, addend: 0x0, symName: '__ZN4core3ptr72drop_in_place$LT$alloc..boxed..Box$LT$syn..path..GenericArgument$GT$$GT$17h3ed151f3fa5ad3d7E', symObjAddr: 0x8CA0, symBinAddr: 0xC1D0, symSize: 0x1D0 }
  - { offsetInCU: 0x2ED81, offset: 0x2ED81, size: 0x8, addend: 0x0, symName: '__ZN4core3ptr72drop_in_place$LT$core..option..Option$LT$syn..lifetime..Lifetime$GT$$GT$17hffeb10c39758208dE', symObjAddr: 0x8E70, symBinAddr: 0xC3A0, symSize: 0x30 }
  - { offsetInCU: 0x2EE9C, offset: 0x2EE9C, size: 0x8, addend: 0x0, symName: '__ZN4core3ptr73drop_in_place$LT$alloc..boxed..Box$LT$syn..generics..GenericParam$GT$$GT$17h7ba19caa85bfccc0E', symObjAddr: 0x8EA0, symBinAddr: 0xC3D0, symSize: 0x80 }
  - { offsetInCU: 0x2F012, offset: 0x2F012, size: 0x8, addend: 0x0, symName: '__ZN4core3ptr75drop_in_place$LT$alloc..boxed..Box$LT$syn..generics..TypeParamBound$GT$$GT$17h7c0215faac3c6833E', symObjAddr: 0x8F20, symBinAddr: 0xC450, symSize: 0xC0 }
  - { offsetInCU: 0x2F385, offset: 0x2F385, size: 0x8, addend: 0x0, symName: '__ZN4core3ptr75drop_in_place$LT$core..option..Option$LT$syn..generics..WhereClause$GT$$GT$17he177e8061afe245dE', symObjAddr: 0x8FE0, symBinAddr: 0xC510, symSize: 0x90 }
  - { offsetInCU: 0x2F679, offset: 0x2F679, size: 0x8, addend: 0x0, symName: '__ZN4core3ptr86drop_in_place$LT$syn..punctuated..Punctuated$LT$syn..pat..Pat$C$syn..token..Or$GT$$GT$17h4b857d9d35c7504dE', symObjAddr: 0x9070, symBinAddr: 0xC5A0, symSize: 0x120 }
  - { offsetInCU: 0x2FAF4, offset: 0x2FAF4, size: 0x8, addend: 0x0, symName: '__ZN4core3ptr87drop_in_place$LT$core..option..Option$LT$alloc..boxed..Box$LT$syn..pat..Pat$GT$$GT$$GT$17h998ab2749db58110E', symObjAddr: 0x9190, symBinAddr: 0xC6C0, symSize: 0x50 }
  - { offsetInCU: 0x2FC64, offset: 0x2FC64, size: 0x8, addend: 0x0, symName: '__ZN4core3ptr87drop_in_place$LT$core..option..Option$LT$alloc..boxed..Box$LT$syn..ty..Type$GT$$GT$$GT$17h82f2a8fb33d493fcE', symObjAddr: 0x91E0, symBinAddr: 0xC710, symSize: 0x50 }
  - { offsetInCU: 0x2FDD4, offset: 0x2FDD4, size: 0x8, addend: 0x0, symName: '__ZN4core3ptr89drop_in_place$LT$core..option..Option$LT$alloc..boxed..Box$LT$syn..expr..Expr$GT$$GT$$GT$17he37f644a37cac26cE', symObjAddr: 0x9230, symBinAddr: 0xC760, symSize: 0x50 }
  - { offsetInCU: 0x2FF82, offset: 0x2FF82, size: 0x8, addend: 0x0, symName: '__ZN4core3ptr89drop_in_place$LT$syn..punctuated..Punctuated$LT$syn..pat..Pat$C$syn..token..Comma$GT$$GT$17h0798694d981e6e82E', symObjAddr: 0x9280, symBinAddr: 0xC7B0, symSize: 0x120 }
  - { offsetInCU: 0x30414, offset: 0x30414, size: 0x8, addend: 0x0, symName: '__ZN4core3ptr89drop_in_place$LT$syn..punctuated..Punctuated$LT$syn..ty..Type$C$syn..token..Comma$GT$$GT$17hede189ed174a5f1aE', symObjAddr: 0x93A0, symBinAddr: 0xC8D0, symSize: 0x120 }
  - { offsetInCU: 0x308CD, offset: 0x308CD, size: 0x8, addend: 0x0, symName: '__ZN4core3ptr90drop_in_place$LT$core..option..Option$LT$alloc..boxed..Box$LT$syn..data..Field$GT$$GT$$GT$17h635fa16eb0568a85E', symObjAddr: 0x94C0, symBinAddr: 0xC9F0, symSize: 0x1B0 }
  - { offsetInCU: 0x30FE8, offset: 0x30FE8, size: 0x8, addend: 0x0, symName: '__ZN4core3ptr90drop_in_place$LT$core..option..Option$LT$alloc..boxed..Box$LT$syn..item..FnArg$GT$$GT$$GT$17h9b38ab6b92c788a1E', symObjAddr: 0x9670, symBinAddr: 0xCBA0, symSize: 0x250 }
  - { offsetInCU: 0x319D8, offset: 0x319D8, size: 0x8, addend: 0x0, symName: '__ZN4core3ptr90drop_in_place$LT$core..option..Option$LT$syn..path..AngleBracketedGenericArguments$GT$$GT$17h2a68507f7d2df537E', symObjAddr: 0x98C0, symBinAddr: 0xCDF0, symSize: 0x130 }
  - { offsetInCU: 0x31E7A, offset: 0x31E7A, size: 0x8, addend: 0x0, symName: '__ZN4core3ptr91drop_in_place$LT$syn..punctuated..Punctuated$LT$syn..expr..Expr$C$syn..token..Comma$GT$$GT$17h2241dfffc685840aE', symObjAddr: 0x99F0, symBinAddr: 0xCF20, symSize: 0x120 }
  - { offsetInCU: 0x32308, offset: 0x32308, size: 0x8, addend: 0x0, symName: '__ZN4core3ptr92drop_in_place$LT$core..option..Option$LT$$LP$syn..token..As$C$proc_macro2..Ident$RP$$GT$$GT$17h628b55b3659f7461E', symObjAddr: 0x9B10, symBinAddr: 0xD040, symSize: 0x30 }
  - { offsetInCU: 0x3249F, offset: 0x3249F, size: 0x8, addend: 0x0, symName: '__ZN4core3ptr92drop_in_place$LT$core..option..Option$LT$alloc..boxed..Box$LT$syn..data..Variant$GT$$GT$$GT$17h4b210190ddd63cc4E', symObjAddr: 0x9B40, symBinAddr: 0xD070, symSize: 0x170 }
  - { offsetInCU: 0x32A3A, offset: 0x32A3A, size: 0x8, addend: 0x0, symName: '__ZN4core3ptr92drop_in_place$LT$syn..punctuated..Punctuated$LT$syn..item..FnArg$C$syn..token..Comma$GT$$GT$17h350cabf40b92916fE', symObjAddr: 0x9CB0, symBinAddr: 0xD1E0, symSize: 0xE0 }
  - { offsetInCU: 0x32DB1, offset: 0x32DB1, size: 0x8, addend: 0x0, symName: '__ZN4core3ptr92drop_in_place$LT$syn..punctuated..Punctuated$LT$syn..lit..LitStr$C$syn..token..Comma$GT$$GT$17h229162df7cabdf91E', symObjAddr: 0x9D90, symBinAddr: 0xD2C0, symSize: 0x130 }
  - { offsetInCU: 0x3360F, offset: 0x3360F, size: 0x8, addend: 0x0, symName: '__ZN4core3ptr94drop_in_place$LT$syn..punctuated..Punctuated$LT$syn..data..Variant$C$syn..token..Comma$GT$$GT$17hf0f2f6747413e2e5E', symObjAddr: 0x9EC0, symBinAddr: 0xD3F0, symSize: 0xE0 }
  - { offsetInCU: 0x33912, offset: 0x33912, size: 0x8, addend: 0x0, symName: '__ZN4core3ptr94drop_in_place$LT$syn..punctuated..Punctuated$LT$syn..pat..FieldPat$C$syn..token..Comma$GT$$GT$17hdb00ab2d70ff6962E', symObjAddr: 0x9FA0, symBinAddr: 0xD4D0, symSize: 0xF0 }
  - { offsetInCU: 0x33C11, offset: 0x33C11, size: 0x8, addend: 0x0, symName: '__ZN4core3ptr94drop_in_place$LT$syn..punctuated..Punctuated$LT$syn..ty..BareFnArg$C$syn..token..Comma$GT$$GT$17hfbfdc507d244c705E', symObjAddr: 0xA090, symBinAddr: 0xD5C0, symSize: 0xF0 }
  - { offsetInCU: 0x33F12, offset: 0x33F12, size: 0x8, addend: 0x0, symName: '__ZN4core3ptr96drop_in_place$LT$core..option..Option$LT$alloc..boxed..Box$LT$syn..path..PathSegment$GT$$GT$$GT$17h8858e5e2b69f90aaE', symObjAddr: 0xA180, symBinAddr: 0xD6B0, symSize: 0xA0 }
  - { offsetInCU: 0x34191, offset: 0x34191, size: 0x8, addend: 0x0, symName: '__ZN4core3ptr97drop_in_place$LT$syn..punctuated..Punctuated$LT$syn..expr..FieldValue$C$syn..token..Comma$GT$$GT$17h5ea76a01aa871e50E', symObjAddr: 0xA220, symBinAddr: 0xD750, symSize: 0xF0 }
  - { offsetInCU: 0x3448E, offset: 0x3448E, size: 0x8, addend: 0x0, symName: '__ZN4core3ptr98drop_in_place$LT$alloc..vec..Vec$LT$$LP$syn..path..GenericArgument$C$syn..token..Comma$RP$$GT$$GT$17h89c062f11fd37487E', symObjAddr: 0xA310, symBinAddr: 0xD840, symSize: 0xD0 }
  - { offsetInCU: 0x34752, offset: 0x34752, size: 0x8, addend: 0x0, symName: '__ZN4core3ptr98drop_in_place$LT$core..option..Option$LT$alloc..boxed..Box$LT$proc_macro2..TokenStream$GT$$GT$$GT$17hc0b315e6acfe0141E', symObjAddr: 0xA3E0, symBinAddr: 0xD910, symSize: 0x50 }
  - { offsetInCU: 0x34931, offset: 0x34931, size: 0x8, addend: 0x0, symName: '__ZN4core3ptr98drop_in_place$LT$syn..punctuated..Punctuated$LT$syn..lifetime..Lifetime$C$syn..token..Plus$GT$$GT$17h1be2ed4f5670ca0eE', symObjAddr: 0xA430, symBinAddr: 0xD960, symSize: 0xD0 }
  - { offsetInCU: 0x378ED, offset: 0x378ED, size: 0x8, addend: 0x0, symName: __ZN10proc_macro6bridge6client14HandleCounters3get17h2c76d49220b98e92E, symObjAddr: 0x0, symBinAddr: 0x3530, symSize: 0x10 }
  - { offsetInCU: 0x1E, offset: 0x45E8F, size: 0x8, addend: 0x0, symName: '__ZN48_$LT$T$u20$as$u20$core..clone..CloneToUninit$GT$15clone_to_uninit17h5aab972980feedc5E', symObjAddr: 0x0, symBinAddr: 0x129E0, symSize: 0x330 }
  - { offsetInCU: 0x1829, offset: 0x4769A, size: 0x8, addend: 0x0, symName: '__ZN4core3ptr100drop_in_place$LT$core..option..Option$LT$alloc..boxed..Box$LT$syn..path..GenericArgument$GT$$GT$$GT$17he391ca71004a94c6E', symObjAddr: 0x330, symBinAddr: 0x12D10, symSize: 0x50 }
  - { offsetInCU: 0x1B6A, offset: 0x479DB, size: 0x8, addend: 0x0, symName: '__ZN4core3ptr100drop_in_place$LT$syn..punctuated..Punctuated$LT$syn..path..PathSegment$C$syn..token..PathSep$GT$$GT$17h2dfe96e422883a8dE.llvm.16293396482601941841', symObjAddr: 0x380, symBinAddr: 0x12D60, symSize: 0x1C0 }
  - { offsetInCU: 0x2227, offset: 0x48098, size: 0x8, addend: 0x0, symName: '__ZN4core3ptr101drop_in_place$LT$core..option..Option$LT$alloc..boxed..Box$LT$syn..generics..GenericParam$GT$$GT$$GT$17ha8500ec4281c4dfbE', symObjAddr: 0x540, symBinAddr: 0x12F20, symSize: 0x50 }
  - { offsetInCU: 0x2413, offset: 0x48284, size: 0x8, addend: 0x0, symName: '__ZN4core3ptr102drop_in_place$LT$syn..punctuated..Punctuated$LT$syn..path..GenericArgument$C$syn..token..Comma$GT$$GT$17heedbbeca47106120E.llvm.16293396482601941841', symObjAddr: 0x590, symBinAddr: 0x12F70, symSize: 0xF0 }
  - { offsetInCU: 0x273A, offset: 0x485AB, size: 0x8, addend: 0x0, symName: '__ZN4core3ptr103drop_in_place$LT$core..option..Option$LT$alloc..boxed..Box$LT$syn..generics..TypeParamBound$GT$$GT$$GT$17h2e0799f9e231fb71E.llvm.16293396482601941841', symObjAddr: 0x680, symBinAddr: 0x13060, symSize: 0x50 }
  - { offsetInCU: 0x28C9, offset: 0x4873A, size: 0x8, addend: 0x0, symName: '__ZN4core3ptr103drop_in_place$LT$core..option..Option$LT$alloc..boxed..Box$LT$syn..generics..WherePredicate$GT$$GT$$GT$17h3211260989d5489eE', symObjAddr: 0x6D0, symBinAddr: 0x130B0, symSize: 0x50 }
  - { offsetInCU: 0x2AF3, offset: 0x48964, size: 0x8, addend: 0x0, symName: '__ZN4core3ptr103drop_in_place$LT$syn..punctuated..Punctuated$LT$syn..generics..GenericParam$C$syn..token..Comma$GT$$GT$17ha7f92b446d43b2a6E.llvm.16293396482601941841', symObjAddr: 0x720, symBinAddr: 0x13100, symSize: 0x1A0 }
  - { offsetInCU: 0x30FA, offset: 0x48F6B, size: 0x8, addend: 0x0, symName: '__ZN4core3ptr104drop_in_place$LT$syn..punctuated..Punctuated$LT$syn..generics..TypeParamBound$C$syn..token..Plus$GT$$GT$17h17fc0ae8b7cffbeaE.llvm.16293396482601941841', symObjAddr: 0x8C0, symBinAddr: 0x132A0, symSize: 0x240 }
  - { offsetInCU: 0x3A92, offset: 0x49903, size: 0x8, addend: 0x0, symName: '__ZN4core3ptr105drop_in_place$LT$syn..punctuated..Punctuated$LT$syn..generics..WherePredicate$C$syn..token..Comma$GT$$GT$17h466fc675c670e52aE', symObjAddr: 0xB00, symBinAddr: 0x134E0, symSize: 0x1A0 }
  - { offsetInCU: 0x41A1, offset: 0x4A012, size: 0x8, addend: 0x0, symName: '__ZN4core3ptr116drop_in_place$LT$core..option..Option$LT$$LP$syn..token..Else$C$alloc..boxed..Box$LT$syn..expr..Expr$GT$$RP$$GT$$GT$17he8080e348a050c2bE', symObjAddr: 0xCA0, symBinAddr: 0x13680, symSize: 0x50 }
  - { offsetInCU: 0x4366, offset: 0x4A1D7, size: 0x8, addend: 0x0, symName: '__ZN4core3ptr126drop_in_place$LT$core..option..Option$LT$$LP$syn..token..And$C$core..option..Option$LT$syn..lifetime..Lifetime$GT$$RP$$GT$$GT$17h50bddadae75e6696E', symObjAddr: 0xCF0, symBinAddr: 0x136D0, symSize: 0x30 }
  - { offsetInCU: 0x45F5, offset: 0x4A466, size: 0x8, addend: 0x0, symName: '__ZN4core3ptr33drop_in_place$LT$syn..ty..Abi$GT$17he1f62b1464edfe1cE', symObjAddr: 0xD20, symBinAddr: 0x13700, symSize: 0x70 }
  - { offsetInCU: 0x4611, offset: 0x4A482, size: 0x8, addend: 0x0, symName: '__ZN4core3ptr33drop_in_place$LT$syn..ty..Abi$GT$17he1f62b1464edfe1cE', symObjAddr: 0xD20, symBinAddr: 0x13700, symSize: 0x70 }
  - { offsetInCU: 0x48E9, offset: 0x4A75A, size: 0x8, addend: 0x0, symName: '__ZN4core3ptr34drop_in_place$LT$syn..lit..Lit$GT$17h437be26ef7f89ee9E', symObjAddr: 0xD90, symBinAddr: 0x13770, symSize: 0x120 }
  - { offsetInCU: 0x4DB8, offset: 0x4AC29, size: 0x8, addend: 0x0, symName: '__ZN4core3ptr34drop_in_place$LT$syn..pat..Pat$GT$17h237556641a2eb7e0E.llvm.16293396482601941841', symObjAddr: 0xEB0, symBinAddr: 0x13890, symSize: 0xA90 }
  - { offsetInCU: 0x8636, offset: 0x4E4A7, size: 0x8, addend: 0x0, symName: '__ZN4core3ptr34drop_in_place$LT$syn..ty..Type$GT$17h7ac3676ddd6a1e03E.llvm.16293396482601941841', symObjAddr: 0x1940, symBinAddr: 0x14320, symSize: 0x480 }
  - { offsetInCU: 0x9421, offset: 0x4F292, size: 0x8, addend: 0x0, symName: '__ZN4core3ptr35drop_in_place$LT$syn..expr..Arm$GT$17had65a863c0989c2eE.llvm.16293396482601941841', symObjAddr: 0x1DC0, symBinAddr: 0x147A0, symSize: 0x170 }
  - { offsetInCU: 0x9EB7, offset: 0x4FD28, size: 0x8, addend: 0x0, symName: '__ZN4core3ptr36drop_in_place$LT$syn..expr..Expr$GT$17h4fe8aa45fb773e88E.llvm.16293396482601941841', symObjAddr: 0x1F30, symBinAddr: 0x14910, symSize: 0x1C40 }
  - { offsetInCU: 0x13796, offset: 0x59607, size: 0x8, addend: 0x0, symName: '__ZN4core3ptr36drop_in_place$LT$syn..item..Item$GT$17h3bf01bd773b2d218E.llvm.16293396482601941841', symObjAddr: 0x3B70, symBinAddr: 0x16550, symSize: 0x13E0 }
  - { offsetInCU: 0x18DD9, offset: 0x5EC4A, size: 0x8, addend: 0x0, symName: '__ZN4core3ptr36drop_in_place$LT$syn..mac..Macro$GT$17h4374dd5fb8195592E', symObjAddr: 0x4F50, symBinAddr: 0x17930, symSize: 0xE0 }
  - { offsetInCU: 0x19103, offset: 0x5EF74, size: 0x8, addend: 0x0, symName: '__ZN4core3ptr36drop_in_place$LT$syn..path..Path$GT$17h4e3bf6964f7a783fE.llvm.16293396482601941841', symObjAddr: 0x5030, symBinAddr: 0x17A10, symSize: 0x180 }
  - { offsetInCU: 0x1970E, offset: 0x5F57F, size: 0x8, addend: 0x0, symName: '__ZN4core3ptr36drop_in_place$LT$syn..stmt..Stmt$GT$17hc9096eb13f1dea38E.llvm.16293396482601941841', symObjAddr: 0x51B0, symBinAddr: 0x17B90, symSize: 0x2F0 }
  - { offsetInCU: 0x1A2F1, offset: 0x60162, size: 0x8, addend: 0x0, symName: '__ZN4core3ptr37drop_in_place$LT$syn..data..Field$GT$17h994638a6a6644d13E.llvm.16293396482601941841', symObjAddr: 0x54A0, symBinAddr: 0x17E80, symSize: 0x190 }
  - { offsetInCU: 0x1A8AD, offset: 0x6071E, size: 0x8, addend: 0x0, symName: '__ZN4core3ptr37drop_in_place$LT$syn..item..FnArg$GT$17h7ce38ab9f66ce905E', symObjAddr: 0x5630, symBinAddr: 0x18010, symSize: 0x1A0 }
  - { offsetInCU: 0x1B13C, offset: 0x60FAD, size: 0x8, addend: 0x0, symName: '__ZN4core3ptr37drop_in_place$LT$syn..stmt..Block$GT$17he4224228b73be10cE', symObjAddr: 0x57D0, symBinAddr: 0x181B0, symSize: 0xD0 }
  - { offsetInCU: 0x1B41A, offset: 0x6128B, size: 0x8, addend: 0x0, symName: '__ZN4core3ptr38drop_in_place$LT$syn..expr..Member$GT$17h3d9e49116e6a0a47E.llvm.16293396482601941841', symObjAddr: 0x58A0, symBinAddr: 0x18280, symSize: 0x30 }
  - { offsetInCU: 0x1B516, offset: 0x61387, size: 0x8, addend: 0x0, symName: '__ZN4core3ptr38drop_in_place$LT$syn..pat..PatType$GT$17h9a5845bd0e88ec1dE.llvm.16293396482601941841', symObjAddr: 0x58D0, symBinAddr: 0x182B0, symSize: 0x140 }
  - { offsetInCU: 0x1BA94, offset: 0x61905, size: 0x8, addend: 0x0, symName: '__ZN4core3ptr39drop_in_place$LT$proc_macro2..Ident$GT$17h76665a77baab8676E.llvm.16293396482601941841', symObjAddr: 0x5A10, symBinAddr: 0x183F0, symSize: 0x30 }
  - { offsetInCU: 0x1BBCE, offset: 0x61A3F, size: 0x8, addend: 0x0, symName: '__ZN4core3ptr39drop_in_place$LT$syn..data..Variant$GT$17hec2841b0c388fb4bE.llvm.16293396482601941841', symObjAddr: 0x5A40, symBinAddr: 0x18420, symSize: 0x2F0 }
  - { offsetInCU: 0x1C835, offset: 0x626A6, size: 0x8, addend: 0x0, symName: '__ZN4core3ptr39drop_in_place$LT$syn..item..UseTree$GT$17hc2f1fc8d70a10a46E.llvm.16293396482601941841', symObjAddr: 0x5D30, symBinAddr: 0x18710, symSize: 0x1E0 }
  - { offsetInCU: 0x1CF8E, offset: 0x62DFF, size: 0x8, addend: 0x0, symName: '__ZN4core3ptr40drop_in_place$LT$syn..item..ImplItem$GT$17hd1356a5d8925d9c0E', symObjAddr: 0x5F10, symBinAddr: 0x188F0, symSize: 0x1F0 }
  - { offsetInCU: 0x1D598, offset: 0x63409, size: 0x8, addend: 0x0, symName: '__ZN4core3ptr40drop_in_place$LT$syn..item..Receiver$GT$17ha63bb42bd0d5d849E.llvm.16293396482601941841', symObjAddr: 0x6100, symBinAddr: 0x18AE0, symSize: 0x130 }
  - { offsetInCU: 0x1DB62, offset: 0x639D3, size: 0x8, addend: 0x0, symName: '__ZN4core3ptr40drop_in_place$LT$syn..item..Variadic$GT$17hffef7f9266c71915E', symObjAddr: 0x6230, symBinAddr: 0x18C10, symSize: 0x120 }
  - { offsetInCU: 0x1DFD1, offset: 0x63E42, size: 0x8, addend: 0x0, symName: '__ZN4core3ptr40drop_in_place$LT$syn..ty..ReturnType$GT$17h54ee3ae5b021d6e3E.llvm.16293396482601941841', symObjAddr: 0x6350, symBinAddr: 0x18D30, symSize: 0x50 }
  - { offsetInCU: 0x1E19E, offset: 0x6400F, size: 0x8, addend: 0x0, symName: '__ZN4core3ptr41drop_in_place$LT$syn..attr..Attribute$GT$17h2e8bdc2c631c6fa3E.llvm.16293396482601941841', symObjAddr: 0x63A0, symBinAddr: 0x18D80, symSize: 0x160 }
  - { offsetInCU: 0x1E6B0, offset: 0x64521, size: 0x8, addend: 0x0, symName: '__ZN4core3ptr41drop_in_place$LT$syn..item..Signature$GT$17h7fd40296ef5ec9beE', symObjAddr: 0x6500, symBinAddr: 0x18EE0, symSize: 0x270 }
  - { offsetInCU: 0x1F1C5, offset: 0x65036, size: 0x8, addend: 0x0, symName: '__ZN4core3ptr41drop_in_place$LT$syn..item..TraitItem$GT$17h70681d4cc3f48226E', symObjAddr: 0x6770, symBinAddr: 0x19150, symSize: 0x330 }
  - { offsetInCU: 0x1FD7E, offset: 0x65BEF, size: 0x8, addend: 0x0, symName: '__ZN4core3ptr42drop_in_place$LT$syn..item..ImplItemFn$GT$17h7687d8e0bd1802daE', symObjAddr: 0x6AA0, symBinAddr: 0x19480, symSize: 0x230 }
  - { offsetInCU: 0x2050D, offset: 0x6637E, size: 0x8, addend: 0x0, symName: '__ZN4core3ptr42drop_in_place$LT$syn..path..Constraint$GT$17hee6574b2b8edc5c6E', symObjAddr: 0x6CD0, symBinAddr: 0x196B0, symSize: 0x160 }
  - { offsetInCU: 0x20BF9, offset: 0x66A6A, size: 0x8, addend: 0x0, symName: '__ZN4core3ptr43drop_in_place$LT$proc_macro2..TokenTree$GT$17h4b1efa197a8362d5E.llvm.16293396482601941841', symObjAddr: 0x6E30, symBinAddr: 0x19810, symSize: 0x180 }
  - { offsetInCU: 0x2143F, offset: 0x672B0, size: 0x8, addend: 0x0, symName: '__ZN4core3ptr43drop_in_place$LT$syn..data..FieldsNamed$GT$17h92ea91465a3c8d50E', symObjAddr: 0x6FB0, symBinAddr: 0x19990, symSize: 0x120 }
  - { offsetInCU: 0x21903, offset: 0x67774, size: 0x8, addend: 0x0, symName: '__ZN4core3ptr43drop_in_place$LT$syn..item..ForeignItem$GT$17ha65c686b50ac3271E', symObjAddr: 0x70D0, symBinAddr: 0x19AB0, symSize: 0x2A0 }
  - { offsetInCU: 0x2228F, offset: 0x68100, size: 0x8, addend: 0x0, symName: '__ZN4core3ptr43drop_in_place$LT$syn..path..PathSegment$GT$17he4fdccb574321820E.llvm.16293396482601941841', symObjAddr: 0x7370, symBinAddr: 0x19D50, symSize: 0x190 }
  - { offsetInCU: 0x2286E, offset: 0x686DF, size: 0x8, addend: 0x0, symName: '__ZN4core3ptr44drop_in_place$LT$syn..generics..Generics$GT$17h76f2424f32021d9cE', symObjAddr: 0x7500, symBinAddr: 0x19EE0, symSize: 0x240 }
  - { offsetInCU: 0x231AF, offset: 0x69020, size: 0x8, addend: 0x0, symName: '__ZN4core3ptr44drop_in_place$LT$syn..item..ImplItemType$GT$17h4ffaa8564a8a7cc2E', symObjAddr: 0x7740, symBinAddr: 0x1A120, symSize: 0x1F0 }
  - { offsetInCU: 0x2378E, offset: 0x695FF, size: 0x8, addend: 0x0, symName: '__ZN4core3ptr44drop_in_place$LT$syn..lifetime..Lifetime$GT$17h726d2571fff50de2E.llvm.16293396482601941841', symObjAddr: 0x7930, symBinAddr: 0x1A310, symSize: 0x30 }
  - { offsetInCU: 0x238E7, offset: 0x69758, size: 0x8, addend: 0x0, symName: '__ZN4core3ptr45drop_in_place$LT$proc_macro2..TokenStream$GT$17h81c7169c3b48b9bcE.llvm.16293396482601941841', symObjAddr: 0x7960, symBinAddr: 0x1A340, symSize: 0x70 }
  - { offsetInCU: 0x23A4E, offset: 0x698BF, size: 0x8, addend: 0x0, symName: '__ZN4core3ptr45drop_in_place$LT$syn..generics..TypeParam$GT$17hd659a97577de08eeE.llvm.16293396482601941841', symObjAddr: 0x79D0, symBinAddr: 0x1A3B0, symSize: 0x230 }
  - { offsetInCU: 0x242B8, offset: 0x6A129, size: 0x8, addend: 0x0, symName: '__ZN4core3ptr45drop_in_place$LT$syn..item..ImplItemConst$GT$17hdf18064dd092580dE', symObjAddr: 0x7C00, symBinAddr: 0x1A5E0, symSize: 0x210 }
  - { offsetInCU: 0x248D5, offset: 0x6A746, size: 0x8, addend: 0x0, symName: '__ZN4core3ptr45drop_in_place$LT$syn..item..TraitItemType$GT$17h876dfe66d5b419d2E', symObjAddr: 0x7E10, symBinAddr: 0x1A7F0, symSize: 0x290 }
  - { offsetInCU: 0x2520B, offset: 0x6B07C, size: 0x8, addend: 0x0, symName: '__ZN4core3ptr46drop_in_place$LT$syn..generics..ConstParam$GT$17had953b7979b4073dE.llvm.16293396482601941841', symObjAddr: 0x80A0, symBinAddr: 0x1AA80, symSize: 0x150 }
  - { offsetInCU: 0x25605, offset: 0x6B476, size: 0x8, addend: 0x0, symName: '__ZN4core3ptr46drop_in_place$LT$syn..item..TraitItemConst$GT$17h626dc276dc2b0f36E', symObjAddr: 0x81F0, symBinAddr: 0x1ABD0, symSize: 0x1B0 }
  - { offsetInCU: 0x25AB2, offset: 0x6B923, size: 0x8, addend: 0x0, symName: '__ZN4core3ptr47drop_in_place$LT$syn..generics..WhereClause$GT$17h90790a3a7f03b8d5E', symObjAddr: 0x83A0, symBinAddr: 0x1AD80, symSize: 0x120 }
  - { offsetInCU: 0x25F38, offset: 0x6BDA9, size: 0x8, addend: 0x0, symName: '__ZN4core3ptr47drop_in_place$LT$syn..item..ForeignItemType$GT$17hb6ab0e69a14bb37bE', symObjAddr: 0x84C0, symBinAddr: 0x1AEA0, symSize: 0x1B0 }
  - { offsetInCU: 0x26572, offset: 0x6C3E3, size: 0x8, addend: 0x0, symName: '__ZN4core3ptr47drop_in_place$LT$syn..path..GenericArgument$GT$17h82abe738557647d7E', symObjAddr: 0x8670, symBinAddr: 0x1B050, symSize: 0x1C0 }
  - { offsetInCU: 0x26A36, offset: 0x6C8A7, size: 0x8, addend: 0x0, symName: '__ZN4core3ptr48drop_in_place$LT$syn..generics..GenericParam$GT$17hfbd49843d74606bcE', symObjAddr: 0x8830, symBinAddr: 0x1B210, symSize: 0xE0 }
  - { offsetInCU: 0x26E19, offset: 0x6CC8A, size: 0x8, addend: 0x0, symName: '__ZN4core3ptr49drop_in_place$LT$syn..generics..LifetimeParam$GT$17h5157ca9611562e07E.llvm.16293396482601941841', symObjAddr: 0x8910, symBinAddr: 0x1B2F0, symSize: 0xF0 }
  - { offsetInCU: 0x271F0, offset: 0x6D061, size: 0x8, addend: 0x0, symName: '__ZN4core3ptr49drop_in_place$LT$syn..generics..PredicateType$GT$17h0aa9537353eebde5E.llvm.16293396482601941841', symObjAddr: 0x8A00, symBinAddr: 0x1B3E0, symSize: 0x180 }
  - { offsetInCU: 0x276A8, offset: 0x6D519, size: 0x8, addend: 0x0, symName: '__ZN4core3ptr49drop_in_place$LT$syn..item..ForeignItemStatic$GT$17hfe0bc367f75532bfE', symObjAddr: 0x8B80, symBinAddr: 0x1B560, symSize: 0x190 }
  - { offsetInCU: 0x27D76, offset: 0x6DBE7, size: 0x8, addend: 0x0, symName: '__ZN4core3ptr50drop_in_place$LT$$u5b$syn..item..ImplItem$u5d$$GT$17haa881b78a464c5edE.llvm.16293396482601941841', symObjAddr: 0x8D10, symBinAddr: 0x1B6F0, symSize: 0x210 }
  - { offsetInCU: 0x280B6, offset: 0x6DF27, size: 0x8, addend: 0x0, symName: '__ZN4core3ptr50drop_in_place$LT$syn..generics..TypeParamBound$GT$17hf46a9001589aa52aE.llvm.16293396482601941841', symObjAddr: 0x8F20, symBinAddr: 0x1B900, symSize: 0xA0 }
  - { offsetInCU: 0x2823B, offset: 0x6E0AC, size: 0x8, addend: 0x0, symName: '__ZN4core3ptr50drop_in_place$LT$syn..generics..WherePredicate$GT$17h29992e0258d2a663E', symObjAddr: 0x8FC0, symBinAddr: 0x1B9A0, symSize: 0xA0 }
  - { offsetInCU: 0x283EB, offset: 0x6E25C, size: 0x8, addend: 0x0, symName: '__ZN4core3ptr51drop_in_place$LT$$u5b$syn..attr..Attribute$u5d$$GT$17h7292b8ffbb414900E.llvm.16293396482601941841', symObjAddr: 0x9060, symBinAddr: 0x1BA40, symSize: 0x100 }
  - { offsetInCU: 0x28489, offset: 0x6E2FA, size: 0x8, addend: 0x0, symName: '__ZN4core3ptr51drop_in_place$LT$$u5b$syn..item..TraitItem$u5d$$GT$17h516b8ecf9374eefdE.llvm.16293396482601941841', symObjAddr: 0x9160, symBinAddr: 0x1BB40, symSize: 0x3E0 }
  - { offsetInCU: 0x28DC3, offset: 0x6EC34, size: 0x8, addend: 0x0, symName: '__ZN4core3ptr52drop_in_place$LT$syn..restriction..VisRestricted$GT$17hadb9877a605a006dE', symObjAddr: 0x9540, symBinAddr: 0x1BF20, symSize: 0x50 }
  - { offsetInCU: 0x28F5A, offset: 0x6EDCB, size: 0x8, addend: 0x0, symName: '__ZN4core3ptr53drop_in_place$LT$$u5b$syn..item..ForeignItem$u5d$$GT$17ha9692808db617ed2E.llvm.16293396482601941841', symObjAddr: 0x9590, symBinAddr: 0x1BF70, symSize: 0x370 }
  - { offsetInCU: 0x29710, offset: 0x6F581, size: 0x8, addend: 0x0, symName: '__ZN4core3ptr58drop_in_place$LT$alloc..vec..Vec$LT$syn..expr..Arm$GT$$GT$17h39d8a98188fc55acE', symObjAddr: 0x9900, symBinAddr: 0x1C2E0, symSize: 0xD0 }
  - { offsetInCU: 0x299D7, offset: 0x6F848, size: 0x8, addend: 0x0, symName: '__ZN4core3ptr59drop_in_place$LT$alloc..boxed..Box$LT$syn..pat..Pat$GT$$GT$17he04dca2bc4c97376E.llvm.16293396482601941841', symObjAddr: 0x99D0, symBinAddr: 0x1C3B0, symSize: 0x50 }
  - { offsetInCU: 0x29B30, offset: 0x6F9A1, size: 0x8, addend: 0x0, symName: '__ZN4core3ptr59drop_in_place$LT$alloc..boxed..Box$LT$syn..ty..Type$GT$$GT$17hfcfe2957c1417924E.llvm.16293396482601941841', symObjAddr: 0x9A20, symBinAddr: 0x1C400, symSize: 0x50 }
  - { offsetInCU: 0x29C89, offset: 0x6FAFA, size: 0x8, addend: 0x0, symName: '__ZN4core3ptr59drop_in_place$LT$alloc..vec..Vec$LT$syn..item..Item$GT$$GT$17hbd8930f6b56bc757E', symObjAddr: 0x9A70, symBinAddr: 0x1C450, symSize: 0xD0 }
  - { offsetInCU: 0x29F50, offset: 0x6FDC1, size: 0x8, addend: 0x0, symName: '__ZN4core3ptr61drop_in_place$LT$alloc..boxed..Box$LT$syn..expr..Expr$GT$$GT$17h16d421fdfe816b45E', symObjAddr: 0x9B40, symBinAddr: 0x1C520, symSize: 0x50 }
  - { offsetInCU: 0x2A0A9, offset: 0x6FF1A, size: 0x8, addend: 0x0, symName: '__ZN4core3ptr61drop_in_place$LT$alloc..boxed..Box$LT$syn..path..Path$GT$$GT$17hf6d5aa73da51635dE', symObjAddr: 0x9B90, symBinAddr: 0x1C570, symSize: 0x100 }
  - { offsetInCU: 0x2A5C9, offset: 0x7043A, size: 0x8, addend: 0x0, symName: '__ZN4core3ptr61drop_in_place$LT$syn..path..ParenthesizedGenericArguments$GT$17h5d48be12a1f78e48E.llvm.16293396482601941841', symObjAddr: 0x9C90, symBinAddr: 0x1C670, symSize: 0x170 }
  - { offsetInCU: 0x2ABC6, offset: 0x70A37, size: 0x8, addend: 0x0, symName: '__ZN4core3ptr62drop_in_place$LT$alloc..boxed..Box$LT$syn..data..Field$GT$$GT$17hd3a7dadf249c233dE', symObjAddr: 0x9E00, symBinAddr: 0x1C7E0, symSize: 0x50 }
  - { offsetInCU: 0x2AD3E, offset: 0x70BAF, size: 0x8, addend: 0x0, symName: '__ZN4core3ptr62drop_in_place$LT$alloc..boxed..Box$LT$syn..item..FnArg$GT$$GT$17h645540c2cf947c19E', symObjAddr: 0x9E50, symBinAddr: 0x1C830, symSize: 0x60 }
  - { offsetInCU: 0x2AEB4, offset: 0x70D25, size: 0x8, addend: 0x0, symName: '__ZN4core3ptr62drop_in_place$LT$alloc..boxed..Box$LT$syn..stmt..Block$GT$$GT$17he392fed8276bcb8aE', symObjAddr: 0x9EB0, symBinAddr: 0x1C890, symSize: 0xE0 }
  - { offsetInCU: 0x2B2CD, offset: 0x7113E, size: 0x8, addend: 0x0, symName: '__ZN4core3ptr62drop_in_place$LT$syn..path..AngleBracketedGenericArguments$GT$17hfa1af91e9ff7811aE.llvm.16293396482601941841', symObjAddr: 0x9F90, symBinAddr: 0x1C970, symSize: 0x120 }
  - { offsetInCU: 0x2B753, offset: 0x715C4, size: 0x8, addend: 0x0, symName: '__ZN4core3ptr63drop_in_place$LT$alloc..vec..Vec$LT$syn..item..ImplItem$GT$$GT$17h58135ef539f4c54aE', symObjAddr: 0xA0B0, symBinAddr: 0x1CA90, symSize: 0x80 }
  - { offsetInCU: 0x2BA0B, offset: 0x7187C, size: 0x8, addend: 0x0, symName: '__ZN4core3ptr64drop_in_place$LT$alloc..boxed..Box$LT$syn..data..Variant$GT$$GT$17h60b692161b572f7eE', symObjAddr: 0xA130, symBinAddr: 0x1CB10, symSize: 0x50 }
  - { offsetInCU: 0x2BB64, offset: 0x719D5, size: 0x8, addend: 0x0, symName: '__ZN4core3ptr64drop_in_place$LT$alloc..boxed..Box$LT$syn..item..UseTree$GT$$GT$17h4b068a3cc1cf80c0E', symObjAddr: 0xA180, symBinAddr: 0x1CB60, symSize: 0x50 }
  - { offsetInCU: 0x2BCFB, offset: 0x71B6C, size: 0x8, addend: 0x0, symName: '__ZN4core3ptr64drop_in_place$LT$alloc..boxed..Box$LT$syn..pat..FieldPat$GT$$GT$17haf965b72204ee1a2E', symObjAddr: 0xA1D0, symBinAddr: 0x1CBB0, symSize: 0x100 }
  - { offsetInCU: 0x2C380, offset: 0x721F1, size: 0x8, addend: 0x0, symName: '__ZN4core3ptr64drop_in_place$LT$alloc..boxed..Box$LT$syn..ty..BareFnArg$GT$$GT$17hdf88c04816000d9bE', symObjAddr: 0xA2D0, symBinAddr: 0x1CCB0, symSize: 0xF0 }
  - { offsetInCU: 0x2C8D1, offset: 0x72742, size: 0x8, addend: 0x0, symName: '__ZN4core3ptr64drop_in_place$LT$alloc..vec..Vec$LT$syn..attr..Attribute$GT$$GT$17he994e8d2320a31e3E', symObjAddr: 0xA3C0, symBinAddr: 0x1CDA0, symSize: 0x180 }
  - { offsetInCU: 0x2CC5B, offset: 0x72ACC, size: 0x8, addend: 0x0, symName: '__ZN4core3ptr64drop_in_place$LT$alloc..vec..Vec$LT$syn..item..TraitItem$GT$$GT$17h81af3ed407d6e06fE', symObjAddr: 0xA540, symBinAddr: 0x1CF20, symSize: 0x80 }
  - { offsetInCU: 0x2CF13, offset: 0x72D84, size: 0x8, addend: 0x0, symName: '__ZN4core3ptr65drop_in_place$LT$$LP$syn..item..FnArg$C$syn..token..Comma$RP$$GT$17h0735161de20b33b7E.llvm.16293396482601941841', symObjAddr: 0xA5C0, symBinAddr: 0x1CFA0, symSize: 0x20 }
  - { offsetInCU: 0x2CFAC, offset: 0x72E1D, size: 0x8, addend: 0x0, symName: '__ZN4core3ptr65drop_in_place$LT$alloc..vec..Vec$LT$proc_macro..TokenTree$GT$$GT$17hf1013a596b3924c6E.llvm.16293396482601941841', symObjAddr: 0xA640, symBinAddr: 0x1CFC0, symSize: 0x110 }
  - { offsetInCU: 0x2D3BE, offset: 0x7322F, size: 0x8, addend: 0x0, symName: '__ZN4core3ptr65drop_in_place$LT$core..option..Option$LT$syn..expr..Label$GT$$GT$17hcf722fa220bcc9cfE', symObjAddr: 0xA750, symBinAddr: 0x1D0D0, symSize: 0x30 }
  - { offsetInCU: 0x2D4F8, offset: 0x73369, size: 0x8, addend: 0x0, symName: '__ZN4core3ptr65drop_in_place$LT$core..option..Option$LT$syn..stmt..Block$GT$$GT$17h7075a1eaacac3036E', symObjAddr: 0xA780, symBinAddr: 0x1D100, symSize: 0xD0 }
  - { offsetInCU: 0x2D7EC, offset: 0x7365D, size: 0x8, addend: 0x0, symName: '__ZN4core3ptr66drop_in_place$LT$alloc..vec..Vec$LT$proc_macro2..TokenTree$GT$$GT$17h123f88b1b4695aaaE', symObjAddr: 0xA850, symBinAddr: 0x1D1D0, symSize: 0xC0 }
  - { offsetInCU: 0x2DAC4, offset: 0x73935, size: 0x8, addend: 0x0, symName: '__ZN4core3ptr66drop_in_place$LT$alloc..vec..Vec$LT$syn..item..ForeignItem$GT$$GT$17h07b51ebdf230575aE', symObjAddr: 0xA910, symBinAddr: 0x1D290, symSize: 0x80 }
  - { offsetInCU: 0x2DD7C, offset: 0x73BED, size: 0x8, addend: 0x0, symName: '__ZN4core3ptr67drop_in_place$LT$$LP$syn..pat..FieldPat$C$syn..token..Comma$RP$$GT$17h24921de69a961781E.llvm.16293396482601941841', symObjAddr: 0xA990, symBinAddr: 0x1D310, symSize: 0xE0 }
  - { offsetInCU: 0x2E2CC, offset: 0x7413D, size: 0x8, addend: 0x0, symName: '__ZN4core3ptr67drop_in_place$LT$$LP$syn..ty..BareFnArg$C$syn..token..Comma$RP$$GT$17h3e5fd57034a8111bE.llvm.16293396482601941841', symObjAddr: 0xAA70, symBinAddr: 0x1D3F0, symSize: 0xC0 }
  - { offsetInCU: 0x2E718, offset: 0x74589, size: 0x8, addend: 0x0, symName: '__ZN4core3ptr67drop_in_place$LT$alloc..boxed..Box$LT$syn..expr..FieldValue$GT$$GT$17h4b3ded6a0ab796f9E', symObjAddr: 0xAB30, symBinAddr: 0x1D4B0, symSize: 0xF0 }
  - { offsetInCU: 0x2EC49, offset: 0x74ABA, size: 0x8, addend: 0x0, symName: '__ZN4core3ptr68drop_in_place$LT$alloc..boxed..Box$LT$syn..path..PathSegment$GT$$GT$17hcacba60b83caf2eeE', symObjAddr: 0xAC20, symBinAddr: 0x1D5A0, symSize: 0xF0 }
  - { offsetInCU: 0x2F04B, offset: 0x74EBC, size: 0x8, addend: 0x0, symName: '__ZN4core3ptr69drop_in_place$LT$core..option..Option$LT$syn..stmt..LocalInit$GT$$GT$17he4b8cacef88178adE', symObjAddr: 0xAD10, symBinAddr: 0x1D690, symSize: 0xC0 }
  - { offsetInCU: 0x2F36F, offset: 0x751E0, size: 0x8, addend: 0x0, symName: '__ZN4core3ptr70drop_in_place$LT$$LP$syn..expr..FieldValue$C$syn..token..Comma$RP$$GT$17h2e0fc95fa175064fE.llvm.16293396482601941841', symObjAddr: 0xADD0, symBinAddr: 0x1D750, symSize: 0xC0 }
  - { offsetInCU: 0x2F77C, offset: 0x755ED, size: 0x8, addend: 0x0, symName: '__ZN4core3ptr70drop_in_place$LT$core..option..Option$LT$syn..ty..BareVariadic$GT$$GT$17hc27acce291494219E', symObjAddr: 0xAE90, symBinAddr: 0x1D810, symSize: 0xB0 }
  - { offsetInCU: 0x2FB94, offset: 0x75A05, size: 0x8, addend: 0x0, symName: '__ZN4core3ptr72drop_in_place$LT$alloc..boxed..Box$LT$syn..path..GenericArgument$GT$$GT$17h3ed151f3fa5ad3d7E.llvm.16293396482601941841', symObjAddr: 0xAF40, symBinAddr: 0x1D8C0, symSize: 0x190 }
  - { offsetInCU: 0x3005C, offset: 0x75ECD, size: 0x8, addend: 0x0, symName: '__ZN4core3ptr73drop_in_place$LT$$LP$syn..path..PathSegment$C$syn..token..PathSep$RP$$GT$17hcbaf0c9b86dd7f68E.llvm.16293396482601941841', symObjAddr: 0xB0D0, symBinAddr: 0x1DA50, symSize: 0xD0 }
  - { offsetInCU: 0x3031F, offset: 0x76190, size: 0x8, addend: 0x0, symName: '__ZN4core3ptr73drop_in_place$LT$alloc..boxed..Box$LT$syn..generics..GenericParam$GT$$GT$17h7ba19caa85bfccc0E', symObjAddr: 0xB1A0, symBinAddr: 0x1DB20, symSize: 0x80 }
  - { offsetInCU: 0x30495, offset: 0x76306, size: 0x8, addend: 0x0, symName: '__ZN4core3ptr75drop_in_place$LT$$LP$syn..path..GenericArgument$C$syn..token..Comma$RP$$GT$17h25444289e8222711E.llvm.16293396482601941841', symObjAddr: 0xB220, symBinAddr: 0x1DBA0, symSize: 0x180 }
  - { offsetInCU: 0x30823, offset: 0x76694, size: 0x8, addend: 0x0, symName: '__ZN4core3ptr75drop_in_place$LT$alloc..boxed..Box$LT$syn..generics..TypeParamBound$GT$$GT$17h7c0215faac3c6833E', symObjAddr: 0xB3A0, symBinAddr: 0x1DD20, symSize: 0x180 }
  - { offsetInCU: 0x30DED, offset: 0x76C5E, size: 0x8, addend: 0x0, symName: '__ZN4core3ptr75drop_in_place$LT$alloc..boxed..Box$LT$syn..generics..WherePredicate$GT$$GT$17h0dc15bf5bfcce67cE', symObjAddr: 0xB520, symBinAddr: 0x1DEA0, symSize: 0x80 }
  - { offsetInCU: 0x31084, offset: 0x76EF5, size: 0x8, addend: 0x0, symName: '__ZN4core3ptr76drop_in_place$LT$$LP$syn..generics..GenericParam$C$syn..token..Comma$RP$$GT$17h28b30bdf2b802b44E.llvm.16293396482601941841', symObjAddr: 0xB5A0, symBinAddr: 0x1DF20, symSize: 0x40 }
  - { offsetInCU: 0x310C0, offset: 0x76F31, size: 0x8, addend: 0x0, symName: '__ZN4core3ptr77drop_in_place$LT$$LP$syn..generics..TypeParamBound$C$syn..token..Plus$RP$$GT$17hc20f2195169aae64E.llvm.16293396482601941841', symObjAddr: 0xB5E0, symBinAddr: 0x1DF60, symSize: 0x180 }
  - { offsetInCU: 0x3155C, offset: 0x773CD, size: 0x8, addend: 0x0, symName: '__ZN4core3ptr78drop_in_place$LT$$LP$syn..generics..WherePredicate$C$syn..token..Comma$RP$$GT$17h6159055ee5a7829dE.llvm.16293396482601941841', symObjAddr: 0xB760, symBinAddr: 0x1E0E0, symSize: 0x60 }
  - { offsetInCU: 0x316B9, offset: 0x7752A, size: 0x8, addend: 0x0, symName: '__ZN4core3ptr86drop_in_place$LT$$LP$syn..token..If$C$alloc..boxed..Box$LT$syn..expr..Expr$GT$$RP$$GT$17hc4c966b8ad5f58baE', symObjAddr: 0xB7C0, symBinAddr: 0x1E140, symSize: 0x50 }
  - { offsetInCU: 0x318CC, offset: 0x7773D, size: 0x8, addend: 0x0, symName: '__ZN4core3ptr86drop_in_place$LT$syn..punctuated..Punctuated$LT$syn..pat..Pat$C$syn..token..Or$GT$$GT$17h4b857d9d35c7504dE', symObjAddr: 0xB810, symBinAddr: 0x1E190, symSize: 0x120 }
  - { offsetInCU: 0x31D65, offset: 0x77BD6, size: 0x8, addend: 0x0, symName: '__ZN4core3ptr87drop_in_place$LT$$LP$alloc..boxed..Box$LT$syn..pat..Pat$GT$$C$syn..token..Colon$RP$$GT$17ha566f0c54163bc46E', symObjAddr: 0xB930, symBinAddr: 0x1E2B0, symSize: 0x50 }
  - { offsetInCU: 0x31EDD, offset: 0x77D4E, size: 0x8, addend: 0x0, symName: '__ZN4core3ptr87drop_in_place$LT$core..option..Option$LT$alloc..boxed..Box$LT$syn..ty..Type$GT$$GT$$GT$17h82f2a8fb33d493fcE', symObjAddr: 0xB980, symBinAddr: 0x1E300, symSize: 0x50 }
  - { offsetInCU: 0x3204D, offset: 0x77EBE, size: 0x8, addend: 0x0, symName: '__ZN4core3ptr89drop_in_place$LT$core..option..Option$LT$alloc..boxed..Box$LT$syn..expr..Expr$GT$$GT$$GT$17he37f644a37cac26cE', symObjAddr: 0xB9D0, symBinAddr: 0x1E350, symSize: 0x50 }
  - { offsetInCU: 0x321BD, offset: 0x7802E, size: 0x8, addend: 0x0, symName: '__ZN4core3ptr89drop_in_place$LT$syn..punctuated..Punctuated$LT$syn..ty..Type$C$syn..token..Comma$GT$$GT$17hede189ed174a5f1aE.llvm.16293396482601941841', symObjAddr: 0xBA20, symBinAddr: 0x1E3A0, symSize: 0x120 }
  - { offsetInCU: 0x3263F, offset: 0x784B0, size: 0x8, addend: 0x0, symName: '__ZN4core3ptr90drop_in_place$LT$core..option..Option$LT$alloc..boxed..Box$LT$syn..data..Field$GT$$GT$$GT$17h635fa16eb0568a85E', symObjAddr: 0xBB40, symBinAddr: 0x1E4C0, symSize: 0x50 }
  - { offsetInCU: 0x327AF, offset: 0x78620, size: 0x8, addend: 0x0, symName: '__ZN4core3ptr90drop_in_place$LT$core..option..Option$LT$alloc..boxed..Box$LT$syn..item..FnArg$GT$$GT$$GT$17h9b38ab6b92c788a1E', symObjAddr: 0xBB90, symBinAddr: 0x1E510, symSize: 0x50 }
  - { offsetInCU: 0x3299B, offset: 0x7880C, size: 0x8, addend: 0x0, symName: '__ZN4core3ptr91drop_in_place$LT$syn..punctuated..Punctuated$LT$syn..expr..Expr$C$syn..token..Comma$GT$$GT$17h2241dfffc685840aE', symObjAddr: 0xBBE0, symBinAddr: 0x1E560, symSize: 0x120 }
  - { offsetInCU: 0x32E30, offset: 0x78CA1, size: 0x8, addend: 0x0, symName: '__ZN4core3ptr92drop_in_place$LT$core..option..Option$LT$$LP$syn..token..As$C$proc_macro2..Ident$RP$$GT$$GT$17h628b55b3659f7461E', symObjAddr: 0xBD00, symBinAddr: 0x1E680, symSize: 0x30 }
  - { offsetInCU: 0x32F4B, offset: 0x78DBC, size: 0x8, addend: 0x0, symName: '__ZN4core3ptr92drop_in_place$LT$syn..punctuated..Punctuated$LT$syn..data..Field$C$syn..token..Comma$GT$$GT$17h20ec09730cb6dfabE', symObjAddr: 0xBD30, symBinAddr: 0x1E6B0, symSize: 0x120 }
  - { offsetInCU: 0x333D1, offset: 0x79242, size: 0x8, addend: 0x0, symName: '__ZN4core3ptr92drop_in_place$LT$syn..punctuated..Punctuated$LT$syn..item..FnArg$C$syn..token..Comma$GT$$GT$17h350cabf40b92916fE', symObjAddr: 0xBE50, symBinAddr: 0x1E7D0, symSize: 0x150 }
  - { offsetInCU: 0x3391C, offset: 0x7978D, size: 0x8, addend: 0x0, symName: '__ZN4core3ptr94drop_in_place$LT$syn..punctuated..Punctuated$LT$syn..data..Variant$C$syn..token..Comma$GT$$GT$17hf0f2f6747413e2e5E', symObjAddr: 0xBFA0, symBinAddr: 0x1E920, symSize: 0x120 }
  - { offsetInCU: 0x33E2D, offset: 0x79C9E, size: 0x8, addend: 0x0, symName: '__ZN4core3ptr94drop_in_place$LT$syn..punctuated..Punctuated$LT$syn..pat..FieldPat$C$syn..token..Comma$GT$$GT$17hdb00ab2d70ff6962E', symObjAddr: 0xC0C0, symBinAddr: 0x1EA40, symSize: 0xF0 }
  - { offsetInCU: 0x341C2, offset: 0x7A033, size: 0x8, addend: 0x0, symName: '__ZN4core3ptr94drop_in_place$LT$syn..punctuated..Punctuated$LT$syn..ty..BareFnArg$C$syn..token..Comma$GT$$GT$17hfbfdc507d244c705E', symObjAddr: 0xC1B0, symBinAddr: 0x1EB30, symSize: 0xF0 }
  - { offsetInCU: 0x344DD, offset: 0x7A34E, size: 0x8, addend: 0x0, symName: '__ZN4core3ptr95drop_in_place$LT$core..option..Option$LT$$LP$proc_macro2..Ident$C$syn..token..Colon$RP$$GT$$GT$17headf6f2d5e5c109bE.llvm.16293396482601941841', symObjAddr: 0xC2A0, symBinAddr: 0x1EC20, symSize: 0x30 }
  - { offsetInCU: 0x345F8, offset: 0x7A469, size: 0x8, addend: 0x0, symName: '__ZN4core3ptr96drop_in_place$LT$core..option..Option$LT$alloc..boxed..Box$LT$syn..path..PathSegment$GT$$GT$$GT$17h8858e5e2b69f90aaE.llvm.16293396482601941841', symObjAddr: 0xC2D0, symBinAddr: 0x1EC50, symSize: 0xA0 }
  - { offsetInCU: 0x34912, offset: 0x7A783, size: 0x8, addend: 0x0, symName: '__ZN4core3ptr97drop_in_place$LT$syn..punctuated..Punctuated$LT$syn..expr..FieldValue$C$syn..token..Comma$GT$$GT$17h5ea76a01aa871e50E', symObjAddr: 0xC3C0, symBinAddr: 0x1ECF0, symSize: 0xF0 }
  - { offsetInCU: 0x34CC4, offset: 0x7AB35, size: 0x8, addend: 0x0, symName: '__ZN4core3ptr98drop_in_place$LT$syn..punctuated..Punctuated$LT$syn..lifetime..Lifetime$C$syn..token..Plus$GT$$GT$17h1be2ed4f5670ca0eE.llvm.16293396482601941841', symObjAddr: 0xC4B0, symBinAddr: 0x1EDE0, symSize: 0xD0 }
  - { offsetInCU: 0x37599, offset: 0x7D40A, size: 0x8, addend: 0x0, symName: '__ZN48_$LT$T$u20$as$u20$core..clone..CloneToUninit$GT$15clone_to_uninit17h5aab972980feedc5E', symObjAddr: 0x0, symBinAddr: 0x129E0, symSize: 0x330 }
  - { offsetInCU: 0x39CE2, offset: 0x7FB53, size: 0x8, addend: 0x0, symName: '__ZN70_$LT$alloc..vec..Vec$LT$T$C$A$GT$$u20$as$u20$core..ops..drop..Drop$GT$4drop17hbc4419381aa37409E', symObjAddr: 0xD4D0, symBinAddr: 0x1F350, symSize: 0xB0 }
  - { offsetInCU: 0x39E5D, offset: 0x7FCCE, size: 0x8, addend: 0x0, symName: '__ZN70_$LT$alloc..vec..Vec$LT$T$C$A$GT$$u20$as$u20$core..ops..drop..Drop$GT$4drop17hc17381c578dabad5E', symObjAddr: 0xD580, symBinAddr: 0x1F400, symSize: 0xB0 }
  - { offsetInCU: 0x41FC0, offset: 0x87E31, size: 0x8, addend: 0x0, symName: '__ZN5alloc3vec16Vec$LT$T$C$A$GT$6retain17h563e087b559eb5d1E', symObjAddr: 0xC580, symBinAddr: 0x1EEB0, symSize: 0x4A0 }
  - { offsetInCU: 0x1E, offset: 0x8CA1C, size: 0x8, addend: 0x0, symName: '__ZN100_$LT$syn..punctuated..PrivateIter$LT$T$C$P$GT$$u20$as$u20$core..iter..traits..iterator..Iterator$GT$4next17h59f1205b760c7459E.llvm.5260943378398011785', symObjAddr: 0x0, symBinAddr: 0x1F4B0, symSize: 0x30 }
  - { offsetInCU: 0x35, offset: 0x8CA33, size: 0x8, addend: 0x0, symName: _anon.0bde3e44bc4dc0f69ba90f469575b6b9.9.llvm.5260943378398011785, symObjAddr: 0x17C0, symBinAddr: 0x218530, symSize: 0x0 }
  - { offsetInCU: 0x65C, offset: 0x8D05A, size: 0x8, addend: 0x0, symName: '__ZN100_$LT$syn..punctuated..PrivateIter$LT$T$C$P$GT$$u20$as$u20$core..iter..traits..iterator..Iterator$GT$4next17h59f1205b760c7459E.llvm.5260943378398011785', symObjAddr: 0x0, symBinAddr: 0x1F4B0, symSize: 0x30 }
  - { offsetInCU: 0x8E9, offset: 0x8D2E7, size: 0x8, addend: 0x0, symName: '__ZN100_$LT$syn..punctuated..PrivateIter$LT$T$C$P$GT$$u20$as$u20$core..iter..traits..iterator..Iterator$GT$4next17ha6e66cbedb03d72cE.llvm.5260943378398011785', symObjAddr: 0x30, symBinAddr: 0x1F4E0, symSize: 0x0 }
  - { offsetInCU: 0xB76, offset: 0x8D574, size: 0x8, addend: 0x0, symName: '__ZN100_$LT$syn..punctuated..PrivateIter$LT$T$C$P$GT$$u20$as$u20$core..iter..traits..iterator..Iterator$GT$4next17hdd7bfe35f820e4cdE.llvm.5260943378398011785', symObjAddr: 0x60, symBinAddr: 0x1F510, symSize: 0x30 }
  - { offsetInCU: 0xE99, offset: 0x8D897, size: 0x8, addend: 0x0, symName: '__ZN111_$LT$syn..punctuated..PrivateIter$LT$T$C$P$GT$$u20$as$u20$core..iter..traits..exact_size..ExactSizeIterator$GT$3len17ha82dc24ef24eb5e2E.llvm.5260943378398011785', symObjAddr: 0x90, symBinAddr: 0x1F540, symSize: 0x20 }
  - { offsetInCU: 0x1009, offset: 0x8DA07, size: 0x8, addend: 0x0, symName: '__ZN115_$LT$syn..punctuated..PrivateIter$LT$T$C$P$GT$$u20$as$u20$core..iter..traits..double_ended..DoubleEndedIterator$GT$9next_back17h993e6829aa9ecd73E.llvm.5260943378398011785', symObjAddr: 0x140, symBinAddr: 0x1F560, symSize: 0x30 }
  - { offsetInCU: 0x15EE, offset: 0x8DFEC, size: 0x8, addend: 0x0, symName: '__ZN57_$LT$I$u20$as$u20$syn..punctuated..IterTrait$LT$T$GT$$GT$9clone_box17h6711cee0392f900aE.llvm.5260943378398011785', symObjAddr: 0x1350, symBinAddr: 0x20120, symSize: 0x60 }
  - { offsetInCU: 0xAD78, offset: 0x97776, size: 0x8, addend: 0x0, symName: '__ZN4core3ptr37drop_in_place$LT$syn..lit..LitStr$GT$17hcadf493d22772feaE', symObjAddr: 0x8D0, symBinAddr: 0x1FB00, symSize: 0x60 }
  - { offsetInCU: 0xB18D, offset: 0x97B8B, size: 0x8, addend: 0x0, symName: '__ZN4core3ptr45drop_in_place$LT$proc_macro2..TokenStream$GT$17h81c7169c3b48b9bcE.llvm.5260943378398011785', symObjAddr: 0x930, symBinAddr: 0x1FB60, symSize: 0x140 }
  - { offsetInCU: 0xB5E9, offset: 0x97FE7, size: 0x8, addend: 0x0, symName: '__ZN4core3ptr65drop_in_place$LT$alloc..vec..Vec$LT$proc_macro..TokenTree$GT$$GT$17hf1013a596b3924c6E.llvm.5260943378398011785', symObjAddr: 0xA70, symBinAddr: 0x1FCA0, symSize: 0x110 }
  - { offsetInCU: 0xBA7C, offset: 0x9847A, size: 0x8, addend: 0x0, symName: '__ZN4core3ptr92drop_in_place$LT$syn..punctuated..Punctuated$LT$syn..lit..LitStr$C$syn..token..Comma$GT$$GT$17h229162df7cabdf91E', symObjAddr: 0xB80, symBinAddr: 0x1FDB0, symSize: 0x130 }
  - { offsetInCU: 0xD463, offset: 0x99E61, size: 0x8, addend: 0x0, symName: __ZN4core4iter6traits10exact_size17ExactSizeIterator8is_empty17hab238ea80893d571E.llvm.5260943378398011785, symObjAddr: 0xCE0, symBinAddr: 0x1FEE0, symSize: 0x30 }
  - { offsetInCU: 0xD5DB, offset: 0x99FD9, size: 0x8, addend: 0x0, symName: __ZN4core4iter6traits12double_ended19DoubleEndedIterator15advance_back_by17hff51ee0281bc11c5E.llvm.5260943378398011785, symObjAddr: 0xE30, symBinAddr: 0x1FF10, symSize: 0x70 }
  - { offsetInCU: 0xD849, offset: 0x9A247, size: 0x8, addend: 0x0, symName: __ZN4core4iter6traits12double_ended19DoubleEndedIterator8nth_back17h09d9859c7d71d53fE.llvm.5260943378398011785, symObjAddr: 0xEA0, symBinAddr: 0x1FF80, symSize: 0xA0 }
  - { offsetInCU: 0xDCF6, offset: 0x9A6F4, size: 0x8, addend: 0x0, symName: __ZN4core4iter6traits8iterator8Iterator10advance_by17h19f2aed9e6eb6ff3E.llvm.5260943378398011785, symObjAddr: 0x10F0, symBinAddr: 0x20020, symSize: 0x60 }
  - { offsetInCU: 0xE05B, offset: 0x9AA59, size: 0x8, addend: 0x0, symName: __ZN4core4iter6traits8iterator8Iterator3nth17hbf7d9f2522cb2777E.llvm.5260943378398011785, symObjAddr: 0x12B0, symBinAddr: 0x20080, symSize: 0x80 }
  - { offsetInCU: 0xE61A, offset: 0x9B018, size: 0x8, addend: 0x0, symName: __ZN4core4iter6traits8iterator8Iterator9size_hint17h1e07cb7e1b263438E.llvm.5260943378398011785, symObjAddr: 0x1330, symBinAddr: 0x20100, symSize: 0x0 }
  - { offsetInCU: 0x10F01, offset: 0x9D8FF, size: 0x8, addend: 0x0, symName: '__ZN3syn10punctuated23Punctuated$LT$T$C$P$GT$21parse_terminated_with17he2ea7ae4c9ae7fb2E', symObjAddr: 0x1A0, symBinAddr: 0x1F590, symSize: 0x2E0 }
  - { offsetInCU: 0x118AC, offset: 0x9E2AA, size: 0x8, addend: 0x0, symName: '__ZN3syn10punctuated23Punctuated$LT$T$C$P$GT$4iter17h64789736b6840d5eE', symObjAddr: 0x480, symBinAddr: 0x1F870, symSize: 0x70 }
  - { offsetInCU: 0x11F28, offset: 0x9E926, size: 0x8, addend: 0x0, symName: '__ZN3syn10punctuated23Punctuated$LT$T$C$P$GT$4push17h4f4f58bc51b21636E', symObjAddr: 0x5D0, symBinAddr: 0x1F8E0, symSize: 0x220 }
  - { offsetInCU: 0x1E, offset: 0x9FA53, size: 0x8, addend: 0x0, symName: '__ZN40_$LT$F$u20$as$u20$syn..parse..Parser$GT$6parse217h2528860b8d18a087E', symObjAddr: 0x0, symBinAddr: 0x20180, symSize: 0x380 }
  - { offsetInCU: 0x1CC0, offset: 0xA16F5, size: 0x8, addend: 0x0, symName: '__ZN4core3ptr100drop_in_place$LT$core..option..Option$LT$alloc..boxed..Box$LT$syn..path..GenericArgument$GT$$GT$$GT$17he391ca71004a94c6E', symObjAddr: 0x2400, symBinAddr: 0x22580, symSize: 0x50 }
  - { offsetInCU: 0x1E8D, offset: 0xA18C2, size: 0x8, addend: 0x0, symName: '__ZN4core3ptr102drop_in_place$LT$syn..punctuated..Punctuated$LT$syn..path..GenericArgument$C$syn..token..Comma$GT$$GT$17heedbbeca47106120E', symObjAddr: 0x2450, symBinAddr: 0x225D0, symSize: 0xF0 }
  - { offsetInCU: 0x21AD, offset: 0xA1BE2, size: 0x8, addend: 0x0, symName: '__ZN4core3ptr103drop_in_place$LT$core..option..Option$LT$alloc..boxed..Box$LT$syn..generics..TypeParamBound$GT$$GT$$GT$17h2e0799f9e231fb71E', symObjAddr: 0x2540, symBinAddr: 0x226C0, symSize: 0x50 }
  - { offsetInCU: 0x23F6, offset: 0xA1E2B, size: 0x8, addend: 0x0, symName: '__ZN4core3ptr103drop_in_place$LT$core..option..Option$LT$alloc..boxed..Box$LT$syn..generics..WherePredicate$GT$$GT$$GT$17h3211260989d5489eE', symObjAddr: 0x2590, symBinAddr: 0x22710, symSize: 0xD0 }
  - { offsetInCU: 0x278A, offset: 0xA21BF, size: 0x8, addend: 0x0, symName: '__ZN4core3ptr103drop_in_place$LT$syn..punctuated..Punctuated$LT$syn..generics..GenericParam$C$syn..token..Comma$GT$$GT$17ha7f92b446d43b2a6E', symObjAddr: 0x2660, symBinAddr: 0x227E0, symSize: 0xF0 }
  - { offsetInCU: 0x2C85, offset: 0xA26BA, size: 0x8, addend: 0x0, symName: '__ZN4core3ptr104drop_in_place$LT$syn..punctuated..Punctuated$LT$syn..generics..TypeParamBound$C$syn..token..Plus$GT$$GT$17h17fc0ae8b7cffbeaE', symObjAddr: 0x2750, symBinAddr: 0x228D0, symSize: 0x240 }
  - { offsetInCU: 0x3540, offset: 0xA2F75, size: 0x8, addend: 0x0, symName: '__ZN4core3ptr115drop_in_place$LT$core..option..Option$LT$$LP$alloc..boxed..Box$LT$syn..pat..Pat$GT$$C$syn..token..Colon$RP$$GT$$GT$17hb7b15b8594e40726E', symObjAddr: 0x2990, symBinAddr: 0x22B10, symSize: 0x50 }
  - { offsetInCU: 0x370E, offset: 0xA3143, size: 0x8, addend: 0x0, symName: '__ZN4core3ptr115drop_in_place$LT$core..option..Option$LT$$LP$syn..token..Brace$C$alloc..vec..Vec$LT$syn..item..Item$GT$$RP$$GT$$GT$17hd97d430eae6ff2d4E', symObjAddr: 0x29E0, symBinAddr: 0x22B60, symSize: 0xD0 }
  - { offsetInCU: 0x3A25, offset: 0xA345A, size: 0x8, addend: 0x0, symName: '__ZN4core3ptr126drop_in_place$LT$core..option..Option$LT$$LP$syn..token..And$C$core..option..Option$LT$syn..lifetime..Lifetime$GT$$RP$$GT$$GT$17h50bddadae75e6696E', symObjAddr: 0x2AB0, symBinAddr: 0x22C30, symSize: 0x30 }
  - { offsetInCU: 0x3C38, offset: 0xA366D, size: 0x8, addend: 0x0, symName: '__ZN4core3ptr34drop_in_place$LT$syn..lit..Lit$GT$17h437be26ef7f89ee9E', symObjAddr: 0x2AE0, symBinAddr: 0x22C60, symSize: 0x120 }
  - { offsetInCU: 0x4107, offset: 0xA3B3C, size: 0x8, addend: 0x0, symName: '__ZN4core3ptr34drop_in_place$LT$syn..pat..Pat$GT$17h237556641a2eb7e0E', symObjAddr: 0x2C00, symBinAddr: 0x22D80, symSize: 0xF40 }
  - { offsetInCU: 0x7BAE, offset: 0xA75E3, size: 0x8, addend: 0x0, symName: '__ZN4core3ptr34drop_in_place$LT$syn..ty..Type$GT$17h7ac3676ddd6a1e03E', symObjAddr: 0x3B40, symBinAddr: 0x23CC0, symSize: 0x580 }
  - { offsetInCU: 0x9437, offset: 0xA8E6C, size: 0x8, addend: 0x0, symName: '__ZN4core3ptr36drop_in_place$LT$syn..expr..Expr$GT$17h4fe8aa45fb773e88E', symObjAddr: 0x40C0, symBinAddr: 0x24240, symSize: 0x2730 }
  - { offsetInCU: 0x12D50, offset: 0xB2785, size: 0x8, addend: 0x0, symName: '__ZN4core3ptr36drop_in_place$LT$syn..item..Item$GT$17h3bf01bd773b2d218E', symObjAddr: 0x67F0, symBinAddr: 0x26970, symSize: 0x1960 }
  - { offsetInCU: 0x18D4A, offset: 0xB877F, size: 0x8, addend: 0x0, symName: '__ZN4core3ptr36drop_in_place$LT$syn..mac..Macro$GT$17h4374dd5fb8195592E', symObjAddr: 0x8150, symBinAddr: 0x282D0, symSize: 0xE0 }
  - { offsetInCU: 0x190D4, offset: 0xB8B09, size: 0x8, addend: 0x0, symName: '__ZN4core3ptr36drop_in_place$LT$syn..path..Path$GT$17h4e3bf6964f7a783fE', symObjAddr: 0x8230, symBinAddr: 0x283B0, symSize: 0x240 }
  - { offsetInCU: 0x19A6E, offset: 0xB94A3, size: 0x8, addend: 0x0, symName: '__ZN4core3ptr37drop_in_place$LT$syn..stmt..Block$GT$17he4224228b73be10cE', symObjAddr: 0x8470, symBinAddr: 0x285F0, symSize: 0xD0 }
  - { offsetInCU: 0x19D64, offset: 0xB9799, size: 0x8, addend: 0x0, symName: '__ZN4core3ptr38drop_in_place$LT$syn..data..Fields$GT$17h2ecf372ee9966467E', symObjAddr: 0x8540, symBinAddr: 0x286C0, symSize: 0x190 }
  - { offsetInCU: 0x1A1AE, offset: 0xB9BE3, size: 0x8, addend: 0x0, symName: '__ZN4core3ptr38drop_in_place$LT$syn..expr..Member$GT$17h3d9e49116e6a0a47E', symObjAddr: 0x86D0, symBinAddr: 0x28850, symSize: 0x30 }
  - { offsetInCU: 0x1A2AA, offset: 0xB9CDF, size: 0x8, addend: 0x0, symName: '__ZN4core3ptr39drop_in_place$LT$proc_macro2..Ident$GT$17h76665a77baab8676E', symObjAddr: 0x8700, symBinAddr: 0x28880, symSize: 0x30 }
  - { offsetInCU: 0x1A4BD, offset: 0xB9EF2, size: 0x8, addend: 0x0, symName: '__ZN4core3ptr39drop_in_place$LT$syn..buffer..Entry$GT$17he284b72aa8430784E', symObjAddr: 0x8730, symBinAddr: 0x288B0, symSize: 0xB0 }
  - { offsetInCU: 0x1A95F, offset: 0xBA394, size: 0x8, addend: 0x0, symName: '__ZN4core3ptr39drop_in_place$LT$syn..item..UseTree$GT$17hc2f1fc8d70a10a46E', symObjAddr: 0x87E0, symBinAddr: 0x28960, symSize: 0x1E0 }
  - { offsetInCU: 0x1B090, offset: 0xBAAC5, size: 0x8, addend: 0x0, symName: '__ZN4core3ptr40drop_in_place$LT$syn..ty..ReturnType$GT$17h54ee3ae5b021d6e3E', symObjAddr: 0x89C0, symBinAddr: 0x28B40, symSize: 0x50 }
  - { offsetInCU: 0x1B200, offset: 0xBAC35, size: 0x8, addend: 0x0, symName: '__ZN4core3ptr41drop_in_place$LT$syn..expr..ExprConst$GT$17h886637f6846d9992E', symObjAddr: 0x8A10, symBinAddr: 0x28B90, symSize: 0x180 }
  - { offsetInCU: 0x1B816, offset: 0xBB24B, size: 0x8, addend: 0x0, symName: '__ZN4core3ptr41drop_in_place$LT$syn..item..Signature$GT$17h7fd40296ef5ec9beE', symObjAddr: 0x8B90, symBinAddr: 0x28D10, symSize: 0x230 }
  - { offsetInCU: 0x1C0B5, offset: 0xBBAEA, size: 0x8, addend: 0x0, symName: '__ZN4core3ptr43drop_in_place$LT$syn..data..FieldsNamed$GT$17h92ea91465a3c8d50E', symObjAddr: 0x8DC0, symBinAddr: 0x28F40, symSize: 0xE0 }
  - { offsetInCU: 0x1C3DB, offset: 0xBBE10, size: 0x8, addend: 0x0, symName: '__ZN4core3ptr44drop_in_place$LT$syn..generics..Generics$GT$17h76f2424f32021d9cE', symObjAddr: 0x8EA0, symBinAddr: 0x29020, symSize: 0x40 }
  - { offsetInCU: 0x1C3F8, offset: 0xBBE2D, size: 0x8, addend: 0x0, symName: '__ZN4core3ptr44drop_in_place$LT$syn..lifetime..Lifetime$GT$17h726d2571fff50de2E', symObjAddr: 0x8EE0, symBinAddr: 0x29060, symSize: 0x30 }
  - { offsetInCU: 0x1C4F4, offset: 0xBBF29, size: 0x8, addend: 0x0, symName: '__ZN4core3ptr44drop_in_place$LT$syn..parse..ParseBuffer$GT$17h6f6b06e3f6e7e770E', symObjAddr: 0x8F10, symBinAddr: 0x29090, symSize: 0x70 }
  - { offsetInCU: 0x1C870, offset: 0xBC2A5, size: 0x8, addend: 0x0, symName: '__ZN4core3ptr45drop_in_place$LT$proc_macro2..TokenStream$GT$17h81c7169c3b48b9bcE', symObjAddr: 0x8F80, symBinAddr: 0x29100, symSize: 0x140 }
  - { offsetInCU: 0x1CCCC, offset: 0xBC701, size: 0x8, addend: 0x0, symName: '__ZN4core3ptr45drop_in_place$LT$syn..buffer..TokenBuffer$GT$17h4b84bdebe343e285E', symObjAddr: 0x90C0, symBinAddr: 0x29240, symSize: 0xC0 }
  - { offsetInCU: 0x1CF34, offset: 0xBC969, size: 0x8, addend: 0x0, symName: '__ZN4core3ptr45drop_in_place$LT$syn..generics..TypeParam$GT$17hd659a97577de08eeE', symObjAddr: 0x9180, symBinAddr: 0x29300, symSize: 0x230 }
  - { offsetInCU: 0x1D756, offset: 0xBD18B, size: 0x8, addend: 0x0, symName: '__ZN4core3ptr46drop_in_place$LT$solana_sdk_macro..Pubkeys$GT$17he0fe71814f6fe96cE', symObjAddr: 0x93B0, symBinAddr: 0x29530, symSize: 0x40 }
  - { offsetInCU: 0x1D776, offset: 0xBD1AB, size: 0x8, addend: 0x0, symName: '__ZN4core3ptr46drop_in_place$LT$solana_sdk_macro..Pubkeys$GT$17he0fe71814f6fe96cE', symObjAddr: 0x93B0, symBinAddr: 0x29530, symSize: 0x40 }
  - { offsetInCU: 0x1D794, offset: 0xBD1C9, size: 0x8, addend: 0x0, symName: '__ZN4core3ptr46drop_in_place$LT$solana_sdk_macro..Pubkeys$GT$17he0fe71814f6fe96cE', symObjAddr: 0x93B0, symBinAddr: 0x29530, symSize: 0x40 }
  - { offsetInCU: 0x1D875, offset: 0xBD2AA, size: 0x8, addend: 0x0, symName: '__ZN4core3ptr46drop_in_place$LT$syn..generics..ConstParam$GT$17had953b7979b4073dE', symObjAddr: 0x93F0, symBinAddr: 0x29570, symSize: 0x150 }
  - { offsetInCU: 0x1DCC2, offset: 0xBD6F7, size: 0x8, addend: 0x0, symName: '__ZN4core3ptr47drop_in_place$LT$syn..path..GenericArgument$GT$17h82abe738557647d7E', symObjAddr: 0x9540, symBinAddr: 0x296C0, symSize: 0x450 }
  - { offsetInCU: 0x1EA38, offset: 0xBE46D, size: 0x8, addend: 0x0, symName: '__ZN4core3ptr49drop_in_place$LT$syn..generics..LifetimeParam$GT$17h5157ca9611562e07E', symObjAddr: 0x9990, symBinAddr: 0x29B10, symSize: 0xF0 }
  - { offsetInCU: 0x1EE1B, offset: 0xBE850, size: 0x8, addend: 0x0, symName: '__ZN4core3ptr49drop_in_place$LT$syn..restriction..Visibility$GT$17h0a4551d6628ca50cE', symObjAddr: 0x9A80, symBinAddr: 0x29C00, symSize: 0x60 }
  - { offsetInCU: 0x1EF8C, offset: 0xBE9C1, size: 0x8, addend: 0x0, symName: '__ZN4core3ptr50drop_in_place$LT$syn..generics..TypeParamBound$GT$17hf46a9001589aa52aE', symObjAddr: 0x9AE0, symBinAddr: 0x29C60, symSize: 0xA0 }
  - { offsetInCU: 0x1F0F2, offset: 0xBEB27, size: 0x8, addend: 0x0, symName: '__ZN4core3ptr58drop_in_place$LT$alloc..vec..Vec$LT$syn..expr..Arm$GT$$GT$17h39d8a98188fc55acE', symObjAddr: 0x9B80, symBinAddr: 0x29D00, symSize: 0xD0 }
  - { offsetInCU: 0x1F3B2, offset: 0xBEDE7, size: 0x8, addend: 0x0, symName: '__ZN4core3ptr59drop_in_place$LT$alloc..boxed..Box$LT$syn..pat..Pat$GT$$GT$17he04dca2bc4c97376E', symObjAddr: 0x9C50, symBinAddr: 0x29DD0, symSize: 0x50 }
  - { offsetInCU: 0x1F50B, offset: 0xBEF40, size: 0x8, addend: 0x0, symName: '__ZN4core3ptr59drop_in_place$LT$alloc..boxed..Box$LT$syn..ty..Type$GT$$GT$17hfcfe2957c1417924E', symObjAddr: 0x9CA0, symBinAddr: 0x29E20, symSize: 0x50 }
  - { offsetInCU: 0x1F664, offset: 0xBF099, size: 0x8, addend: 0x0, symName: '__ZN4core3ptr61drop_in_place$LT$alloc..boxed..Box$LT$syn..expr..Expr$GT$$GT$17h16d421fdfe816b45E', symObjAddr: 0x9CF0, symBinAddr: 0x29E70, symSize: 0x50 }
  - { offsetInCU: 0x1F7BD, offset: 0xBF1F2, size: 0x8, addend: 0x0, symName: '__ZN4core3ptr61drop_in_place$LT$syn..path..ParenthesizedGenericArguments$GT$17h5d48be12a1f78e48E', symObjAddr: 0x9D40, symBinAddr: 0x29EC0, symSize: 0x170 }
  - { offsetInCU: 0x1FDC6, offset: 0xBF7FB, size: 0x8, addend: 0x0, symName: '__ZN4core3ptr62drop_in_place$LT$alloc..boxed..Box$LT$syn..stmt..Block$GT$$GT$17he392fed8276bcb8aE', symObjAddr: 0x9EB0, symBinAddr: 0x2A030, symSize: 0xE0 }
  - { offsetInCU: 0x201D4, offset: 0xBFC09, size: 0x8, addend: 0x0, symName: '__ZN4core3ptr63drop_in_place$LT$alloc..boxed..Box$LT$syn..lit..LitRepr$GT$$GT$17ha704bb6edd8cdde2E', symObjAddr: 0x9F90, symBinAddr: 0x2A110, symSize: 0x60 }
  - { offsetInCU: 0x2049D, offset: 0xBFED2, size: 0x8, addend: 0x0, symName: '__ZN4core3ptr63drop_in_place$LT$alloc..vec..Vec$LT$syn..item..ImplItem$GT$$GT$17h58135ef539f4c54aE', symObjAddr: 0x9FF0, symBinAddr: 0x2A170, symSize: 0x80 }
  - { offsetInCU: 0x20755, offset: 0xC018A, size: 0x8, addend: 0x0, symName: '__ZN4core3ptr64drop_in_place$LT$alloc..boxed..Box$LT$syn..item..UseTree$GT$$GT$17h4b068a3cc1cf80c0E', symObjAddr: 0xA070, symBinAddr: 0x2A1F0, symSize: 0x50 }
  - { offsetInCU: 0x208EC, offset: 0xC0321, size: 0x8, addend: 0x0, symName: '__ZN4core3ptr64drop_in_place$LT$alloc..boxed..Box$LT$syn..pat..FieldPat$GT$$GT$17haf965b72204ee1a2E', symObjAddr: 0xA0C0, symBinAddr: 0x2A240, symSize: 0x140 }
  - { offsetInCU: 0x20FB9, offset: 0xC09EE, size: 0x8, addend: 0x0, symName: '__ZN4core3ptr64drop_in_place$LT$alloc..boxed..Box$LT$syn..ty..BareFnArg$GT$$GT$17hdf88c04816000d9bE', symObjAddr: 0xA200, symBinAddr: 0x2A380, symSize: 0x140 }
  - { offsetInCU: 0x2150E, offset: 0xC0F43, size: 0x8, addend: 0x0, symName: '__ZN4core3ptr64drop_in_place$LT$alloc..vec..Vec$LT$syn..item..TraitItem$GT$$GT$17h81af3ed407d6e06fE', symObjAddr: 0xA340, symBinAddr: 0x2A4C0, symSize: 0x80 }
  - { offsetInCU: 0x217C6, offset: 0xC11FB, size: 0x8, addend: 0x0, symName: '__ZN4core3ptr65drop_in_place$LT$alloc..vec..Vec$LT$proc_macro..TokenTree$GT$$GT$17hf1013a596b3924c6E', symObjAddr: 0xA3C0, symBinAddr: 0x2A540, symSize: 0x110 }
  - { offsetInCU: 0x21BBE, offset: 0xC15F3, size: 0x8, addend: 0x0, symName: '__ZN4core3ptr65drop_in_place$LT$core..option..Option$LT$syn..expr..Label$GT$$GT$17hcf722fa220bcc9cfE', symObjAddr: 0xA4D0, symBinAddr: 0x2A650, symSize: 0x30 }
  - { offsetInCU: 0x21CF8, offset: 0xC172D, size: 0x8, addend: 0x0, symName: '__ZN4core3ptr66drop_in_place$LT$alloc..vec..Vec$LT$syn..item..ForeignItem$GT$$GT$17h07b51ebdf230575aE', symObjAddr: 0xA500, symBinAddr: 0x2A680, symSize: 0x80 }
  - { offsetInCU: 0x21FB0, offset: 0xC19E5, size: 0x8, addend: 0x0, symName: '__ZN4core3ptr66drop_in_place$LT$core..option..Option$LT$syn..pat..PatRest$GT$$GT$17h40fbfe68f1d6c709E', symObjAddr: 0xA580, symBinAddr: 0x2A700, symSize: 0xE0 }
  - { offsetInCU: 0x222A4, offset: 0xC1CD9, size: 0x8, addend: 0x0, symName: '__ZN4core3ptr67drop_in_place$LT$alloc..boxed..Box$LT$syn..expr..FieldValue$GT$$GT$17h4b3ded6a0ab796f9E', symObjAddr: 0xA660, symBinAddr: 0x2A7E0, symSize: 0x140 }
  - { offsetInCU: 0x22817, offset: 0xC224C, size: 0x8, addend: 0x0, symName: '__ZN4core3ptr68drop_in_place$LT$core..option..Option$LT$syn..item..Variadic$GT$$GT$17he5a67f32c4ddf3d5E', symObjAddr: 0xA7A0, symBinAddr: 0x2A920, symSize: 0x120 }
  - { offsetInCU: 0x22C97, offset: 0xC26CC, size: 0x8, addend: 0x0, symName: '__ZN4core3ptr70drop_in_place$LT$core..option..Option$LT$syn..ty..BareVariadic$GT$$GT$17hc27acce291494219E', symObjAddr: 0xA8C0, symBinAddr: 0x2AA40, symSize: 0x100 }
  - { offsetInCU: 0x230CE, offset: 0xC2B03, size: 0x8, addend: 0x0, symName: '__ZN4core3ptr72drop_in_place$LT$alloc..boxed..Box$LT$syn..path..GenericArgument$GT$$GT$17h3ed151f3fa5ad3d7E', symObjAddr: 0xA9C0, symBinAddr: 0x2AB40, symSize: 0x2B0 }
  - { offsetInCU: 0x23ADF, offset: 0xC3514, size: 0x8, addend: 0x0, symName: '__ZN4core3ptr72drop_in_place$LT$core..option..Option$LT$syn..lifetime..Lifetime$GT$$GT$17hffeb10c39758208dE', symObjAddr: 0xAC70, symBinAddr: 0x2ADF0, symSize: 0x30 }
  - { offsetInCU: 0x23BFA, offset: 0xC362F, size: 0x8, addend: 0x0, symName: '__ZN4core3ptr73drop_in_place$LT$alloc..boxed..Box$LT$syn..generics..GenericParam$GT$$GT$17h7ba19caa85bfccc0E', symObjAddr: 0xACA0, symBinAddr: 0x2AE20, symSize: 0x80 }
  - { offsetInCU: 0x23D70, offset: 0xC37A5, size: 0x8, addend: 0x0, symName: '__ZN4core3ptr75drop_in_place$LT$alloc..boxed..Box$LT$syn..generics..TypeParamBound$GT$$GT$17h7c0215faac3c6833E', symObjAddr: 0xAD20, symBinAddr: 0x2AEA0, symSize: 0x180 }
  - { offsetInCU: 0x2437B, offset: 0xC3DB0, size: 0x8, addend: 0x0, symName: '__ZN4core3ptr75drop_in_place$LT$core..option..Option$LT$syn..generics..WhereClause$GT$$GT$17he177e8061afe245dE', symObjAddr: 0xAEA0, symBinAddr: 0x2B020, symSize: 0x90 }
  - { offsetInCU: 0x2466F, offset: 0xC40A4, size: 0x8, addend: 0x0, symName: '__ZN4core3ptr86drop_in_place$LT$syn..punctuated..Punctuated$LT$syn..pat..Pat$C$syn..token..Or$GT$$GT$17h4b857d9d35c7504dE', symObjAddr: 0xAF30, symBinAddr: 0x2B0B0, symSize: 0x120 }
  - { offsetInCU: 0x24AEA, offset: 0xC451F, size: 0x8, addend: 0x0, symName: '__ZN4core3ptr87drop_in_place$LT$core..option..Option$LT$alloc..boxed..Box$LT$syn..pat..Pat$GT$$GT$$GT$17h998ab2749db58110E', symObjAddr: 0xB050, symBinAddr: 0x2B1D0, symSize: 0x50 }
  - { offsetInCU: 0x24C5A, offset: 0xC468F, size: 0x8, addend: 0x0, symName: '__ZN4core3ptr87drop_in_place$LT$core..option..Option$LT$alloc..boxed..Box$LT$syn..ty..Type$GT$$GT$$GT$17h82f2a8fb33d493fcE', symObjAddr: 0xB0A0, symBinAddr: 0x2B220, symSize: 0x50 }
  - { offsetInCU: 0x24DCA, offset: 0xC47FF, size: 0x8, addend: 0x0, symName: '__ZN4core3ptr89drop_in_place$LT$core..option..Option$LT$alloc..boxed..Box$LT$syn..expr..Expr$GT$$GT$$GT$17he37f644a37cac26cE', symObjAddr: 0xB0F0, symBinAddr: 0x2B270, symSize: 0x50 }
  - { offsetInCU: 0x24F78, offset: 0xC49AD, size: 0x8, addend: 0x0, symName: '__ZN4core3ptr89drop_in_place$LT$syn..punctuated..Punctuated$LT$syn..pat..Pat$C$syn..token..Comma$GT$$GT$17h0798694d981e6e82E', symObjAddr: 0xB140, symBinAddr: 0x2B2C0, symSize: 0x120 }
  - { offsetInCU: 0x25448, offset: 0xC4E7D, size: 0x8, addend: 0x0, symName: '__ZN4core3ptr90drop_in_place$LT$core..option..Option$LT$alloc..boxed..Box$LT$syn..data..Field$GT$$GT$$GT$17h635fa16eb0568a85E', symObjAddr: 0xB260, symBinAddr: 0x2B3E0, symSize: 0x1B0 }
  - { offsetInCU: 0x25B63, offset: 0xC5598, size: 0x8, addend: 0x0, symName: '__ZN4core3ptr90drop_in_place$LT$core..option..Option$LT$alloc..boxed..Box$LT$syn..item..FnArg$GT$$GT$$GT$17h9b38ab6b92c788a1E', symObjAddr: 0xB410, symBinAddr: 0x2B590, symSize: 0x250 }
  - { offsetInCU: 0x26591, offset: 0xC5FC6, size: 0x8, addend: 0x0, symName: '__ZN4core3ptr91drop_in_place$LT$syn..punctuated..Punctuated$LT$syn..expr..Expr$C$syn..token..Comma$GT$$GT$17h2241dfffc685840aE', symObjAddr: 0xB660, symBinAddr: 0x2B7E0, symSize: 0x120 }
  - { offsetInCU: 0x26A1F, offset: 0xC6454, size: 0x8, addend: 0x0, symName: '__ZN4core3ptr92drop_in_place$LT$core..option..Option$LT$$LP$syn..token..As$C$proc_macro2..Ident$RP$$GT$$GT$17h628b55b3659f7461E', symObjAddr: 0xB780, symBinAddr: 0x2B900, symSize: 0x30 }
  - { offsetInCU: 0x26BB6, offset: 0xC65EB, size: 0x8, addend: 0x0, symName: '__ZN4core3ptr92drop_in_place$LT$core..option..Option$LT$alloc..boxed..Box$LT$syn..data..Variant$GT$$GT$$GT$17h4b210190ddd63cc4E', symObjAddr: 0xB7B0, symBinAddr: 0x2B930, symSize: 0x170 }
  - { offsetInCU: 0x27151, offset: 0xC6B86, size: 0x8, addend: 0x0, symName: '__ZN4core3ptr92drop_in_place$LT$syn..punctuated..Punctuated$LT$syn..item..FnArg$C$syn..token..Comma$GT$$GT$17h350cabf40b92916fE', symObjAddr: 0xB920, symBinAddr: 0x2BAA0, symSize: 0xE0 }
  - { offsetInCU: 0x2744C, offset: 0xC6E81, size: 0x8, addend: 0x0, symName: '__ZN4core3ptr94drop_in_place$LT$syn..punctuated..Punctuated$LT$syn..data..Variant$C$syn..token..Comma$GT$$GT$17hf0f2f6747413e2e5E', symObjAddr: 0xBA00, symBinAddr: 0x2BB80, symSize: 0xE0 }
  - { offsetInCU: 0x2774F, offset: 0xC7184, size: 0x8, addend: 0x0, symName: '__ZN4core3ptr94drop_in_place$LT$syn..punctuated..Punctuated$LT$syn..pat..FieldPat$C$syn..token..Comma$GT$$GT$17hdb00ab2d70ff6962E', symObjAddr: 0xBAE0, symBinAddr: 0x2BC60, symSize: 0xF0 }
  - { offsetInCU: 0x27A4E, offset: 0xC7483, size: 0x8, addend: 0x0, symName: '__ZN4core3ptr94drop_in_place$LT$syn..punctuated..Punctuated$LT$syn..ty..BareFnArg$C$syn..token..Comma$GT$$GT$17hfbfdc507d244c705E', symObjAddr: 0xBBD0, symBinAddr: 0x2BD50, symSize: 0xF0 }
  - { offsetInCU: 0x27D4F, offset: 0xC7784, size: 0x8, addend: 0x0, symName: '__ZN4core3ptr96drop_in_place$LT$core..option..Option$LT$alloc..boxed..Box$LT$syn..path..PathSegment$GT$$GT$$GT$17h8858e5e2b69f90aaE', symObjAddr: 0xBCC0, symBinAddr: 0x2BE40, symSize: 0x1A0 }
  - { offsetInCU: 0x28410, offset: 0xC7E45, size: 0x8, addend: 0x0, symName: '__ZN4core3ptr97drop_in_place$LT$syn..punctuated..Punctuated$LT$syn..expr..FieldValue$C$syn..token..Comma$GT$$GT$17h5ea76a01aa871e50E', symObjAddr: 0xBE60, symBinAddr: 0x2BFE0, symSize: 0xF0 }
  - { offsetInCU: 0x28789, offset: 0xC81BE, size: 0x8, addend: 0x0, symName: '__ZN4core3ptr98drop_in_place$LT$syn..punctuated..Punctuated$LT$syn..lifetime..Lifetime$C$syn..token..Plus$GT$$GT$17h1be2ed4f5670ca0eE', symObjAddr: 0xBF50, symBinAddr: 0x2C0D0, symSize: 0xC6 }
  - { offsetInCU: 0x2E7F4, offset: 0xCE229, size: 0x8, addend: 0x0, symName: '__ZN40_$LT$F$u20$as$u20$syn..parse..Parser$GT$6parse217h2528860b8d18a087E', symObjAddr: 0x0, symBinAddr: 0x20180, symSize: 0x380 }
  - { offsetInCU: 0x2F0A8, offset: 0xCEADD, size: 0x8, addend: 0x0, symName: '__ZN40_$LT$F$u20$as$u20$syn..parse..Parser$GT$6parse217h2edb7ff81916313fE', symObjAddr: 0x380, symBinAddr: 0x20500, symSize: 0x3D0 }
  - { offsetInCU: 0x2F94C, offset: 0xCF381, size: 0x8, addend: 0x0, symName: '__ZN40_$LT$F$u20$as$u20$syn..parse..Parser$GT$6parse217h5cc3288465317837E', symObjAddr: 0x750, symBinAddr: 0x208D0, symSize: 0x380 }
  - { offsetInCU: 0x30200, offset: 0xCFC35, size: 0x8, addend: 0x0, symName: '__ZN40_$LT$F$u20$as$u20$syn..parse..Parser$GT$6parse217h60199aafe8e40cf6E', symObjAddr: 0xAD0, symBinAddr: 0x20C50, symSize: 0x380 }
  - { offsetInCU: 0x30AB4, offset: 0xD04E9, size: 0x8, addend: 0x0, symName: '__ZN40_$LT$F$u20$as$u20$syn..parse..Parser$GT$6parse217h730e01103ef41c02E', symObjAddr: 0xE50, symBinAddr: 0x20FD0, symSize: 0x380 }
  - { offsetInCU: 0x312F0, offset: 0xD0D25, size: 0x8, addend: 0x0, symName: '__ZN40_$LT$F$u20$as$u20$syn..parse..Parser$GT$6parse217ha2b8a5d931626245E', symObjAddr: 0x11D0, symBinAddr: 0x21350, symSize: 0x380 }
  - { offsetInCU: 0x31BA4, offset: 0xD15D9, size: 0x8, addend: 0x0, symName: '__ZN40_$LT$F$u20$as$u20$syn..parse..Parser$GT$6parse217ha8e9239c13cfd628E', symObjAddr: 0x1550, symBinAddr: 0x216D0, symSize: 0x430 }
  - { offsetInCU: 0x325F2, offset: 0xD2027, size: 0x8, addend: 0x0, symName: '__ZN40_$LT$F$u20$as$u20$syn..parse..Parser$GT$6parse217hac47649a843a704eE', symObjAddr: 0x1980, symBinAddr: 0x21B00, symSize: 0x380 }
  - { offsetInCU: 0x32EA6, offset: 0xD28DB, size: 0x8, addend: 0x0, symName: '__ZN40_$LT$F$u20$as$u20$syn..parse..Parser$GT$6parse217hbb308f47ed0d9f37E', symObjAddr: 0x1D00, symBinAddr: 0x21E80, symSize: 0x380 }
  - { offsetInCU: 0x3375A, offset: 0xD318F, size: 0x8, addend: 0x0, symName: '__ZN40_$LT$F$u20$as$u20$syn..parse..Parser$GT$6parse217hfdcfa6504cd47b41E', symObjAddr: 0x2080, symBinAddr: 0x22200, symSize: 0x380 }
  - { offsetInCU: 0x1E, offset: 0xDD1BA, size: 0x8, addend: 0x0, symName: __ZN5alloc7raw_vec11finish_grow17h97301b1177634601E.llvm.11831814259562620629, symObjAddr: 0x0, symBinAddr: 0x2C1A0, symSize: 0xA0 }
  - { offsetInCU: 0x1D47, offset: 0xDEEE3, size: 0x8, addend: 0x0, symName: __ZN5alloc7raw_vec11finish_grow17h97301b1177634601E.llvm.11831814259562620629, symObjAddr: 0x0, symBinAddr: 0x2C1A0, symSize: 0xA0 }
  - { offsetInCU: 0x2150, offset: 0xDF2EC, size: 0x8, addend: 0x0, symName: '__ZN5alloc7raw_vec19RawVec$LT$T$C$A$GT$7reserve21do_reserve_and_handle17hca48f66a7e144ea5E', symObjAddr: 0x1F0, symBinAddr: 0x1BF6D0, symSize: 0xA0 }
  - { offsetInCU: 0x3073, offset: 0xE020F, size: 0x8, addend: 0x0, symName: '__ZN5alloc7raw_vec19RawVec$LT$T$C$A$GT$8grow_one17h589e0341a27b0311E', symObjAddr: 0x290, symBinAddr: 0x2C240, symSize: 0xC0 }
  - { offsetInCU: 0x3541, offset: 0xE06DD, size: 0x8, addend: 0x0, symName: '__ZN5alloc7raw_vec19RawVec$LT$T$C$A$GT$8grow_one17h9f5ece1e4ae9dfd3E', symObjAddr: 0x350, symBinAddr: 0x2C300, symSize: 0xC0 }
  - { offsetInCU: 0x3A45, offset: 0xE0BE1, size: 0x8, addend: 0x0, symName: '__ZN5alloc7raw_vec19RawVec$LT$T$C$A$GT$8grow_one17hb3ab50f5e1fbf0beE', symObjAddr: 0x410, symBinAddr: 0x2C3C0, symSize: 0xB0 }
  - { offsetInCU: 0x3D84, offset: 0xE0F20, size: 0x8, addend: 0x0, symName: '__ZN5alloc7raw_vec19RawVec$LT$T$C$A$GT$8grow_one17hecb0d06b75e05a2dE', symObjAddr: 0x4C0, symBinAddr: 0x2C470, symSize: 0xA0 }
  - { offsetInCU: 0x279, offset: 0xE14B5, size: 0x8, addend: 0x0, symName: '__ZN77_$LT$$LP$A$C$B$RP$$u20$as$u20$proc_macro..bridge..rpc..DecodeMut$LT$S$GT$$GT$6decode17h8f2bbd6877abe560E', symObjAddr: 0x1E50, symBinAddr: 0x2E1D0, symSize: 0xAA }
  - { offsetInCU: 0x1546, offset: 0xE2782, size: 0x8, addend: 0x0, symName: __ZN10proc_macro6bridge6client10run_client17h0c82ccba8e56c535E, symObjAddr: 0x190, symBinAddr: 0x2C510, symSize: 0x2E0 }
  - { offsetInCU: 0x1C20, offset: 0xE2E5C, size: 0x8, addend: 0x0, symName: __ZN10proc_macro6bridge6client10run_client17h176f3c75505953bfE, symObjAddr: 0x470, symBinAddr: 0x2C7F0, symSize: 0x2E0 }
  - { offsetInCU: 0x22FA, offset: 0xE3536, size: 0x8, addend: 0x0, symName: __ZN10proc_macro6bridge6client10run_client17h40ac03276a6459b5E, symObjAddr: 0x750, symBinAddr: 0x2CAD0, symSize: 0x2E0 }
  - { offsetInCU: 0x29D4, offset: 0xE3C10, size: 0x8, addend: 0x0, symName: __ZN10proc_macro6bridge6client10run_client17h594023f26fea40acE, symObjAddr: 0xA30, symBinAddr: 0x2CDB0, symSize: 0x2E0 }
  - { offsetInCU: 0x30D3, offset: 0xE430F, size: 0x8, addend: 0x0, symName: __ZN10proc_macro6bridge6client10run_client17h602a313eea586a16E, symObjAddr: 0xD10, symBinAddr: 0x2D090, symSize: 0x2E0 }
  - { offsetInCU: 0x37CF, offset: 0xE4A0B, size: 0x8, addend: 0x0, symName: __ZN10proc_macro6bridge6client10run_client17h6f797b3ce8c4a10bE, symObjAddr: 0xFF0, symBinAddr: 0x2D370, symSize: 0x2E0 }
  - { offsetInCU: 0x3EA9, offset: 0xE50E5, size: 0x8, addend: 0x0, symName: __ZN10proc_macro6bridge6client10run_client17h74235f41c4ed5779E, symObjAddr: 0x12D0, symBinAddr: 0x2D650, symSize: 0x2E0 }
  - { offsetInCU: 0x4583, offset: 0xE57BF, size: 0x8, addend: 0x0, symName: __ZN10proc_macro6bridge6client10run_client17h9be78d60d8edde1bE, symObjAddr: 0x15B0, symBinAddr: 0x2D930, symSize: 0x2E0 }
  - { offsetInCU: 0x4C5D, offset: 0xE5E99, size: 0x8, addend: 0x0, symName: __ZN10proc_macro6bridge6client10run_client17hcb9798f116b1b84dE, symObjAddr: 0x1890, symBinAddr: 0x2DC10, symSize: 0x2E0 }
  - { offsetInCU: 0x5337, offset: 0xE6573, size: 0x8, addend: 0x0, symName: __ZN10proc_macro6bridge6client10run_client17he87a199dc701bf63E, symObjAddr: 0x1B70, symBinAddr: 0x2DEF0, symSize: 0x2E0 }
  - { offsetInCU: 0x1E, offset: 0xEB537, size: 0x8, addend: 0x0, symName: '__ZN4core3ptr100drop_in_place$LT$core..option..Option$LT$alloc..boxed..Box$LT$syn..path..GenericArgument$GT$$GT$$GT$17he391ca71004a94c6E', symObjAddr: 0x0, symBinAddr: 0x2E280, symSize: 0x50 }
  - { offsetInCU: 0x17C3, offset: 0xECCDC, size: 0x8, addend: 0x0, symName: '__ZN4core3ptr100drop_in_place$LT$core..option..Option$LT$alloc..boxed..Box$LT$syn..path..GenericArgument$GT$$GT$$GT$17he391ca71004a94c6E', symObjAddr: 0x0, symBinAddr: 0x2E280, symSize: 0x50 }
  - { offsetInCU: 0x1990, offset: 0xECEA9, size: 0x8, addend: 0x0, symName: '__ZN4core3ptr102drop_in_place$LT$syn..punctuated..Punctuated$LT$syn..path..GenericArgument$C$syn..token..Comma$GT$$GT$17heedbbeca47106120E', symObjAddr: 0x50, symBinAddr: 0x2E2D0, symSize: 0xF0 }
  - { offsetInCU: 0x1CB0, offset: 0xED1C9, size: 0x8, addend: 0x0, symName: '__ZN4core3ptr103drop_in_place$LT$core..option..Option$LT$alloc..boxed..Box$LT$syn..generics..TypeParamBound$GT$$GT$$GT$17h2e0799f9e231fb71E', symObjAddr: 0x140, symBinAddr: 0x2E3C0, symSize: 0x50 }
  - { offsetInCU: 0x1EBB, offset: 0xED3D4, size: 0x8, addend: 0x0, symName: '__ZN4core3ptr103drop_in_place$LT$syn..punctuated..Punctuated$LT$syn..generics..GenericParam$C$syn..token..Comma$GT$$GT$17ha7f92b446d43b2a6E', symObjAddr: 0x190, symBinAddr: 0x2E410, symSize: 0xF0 }
  - { offsetInCU: 0x248F, offset: 0xED9A8, size: 0x8, addend: 0x0, symName: '__ZN4core3ptr104drop_in_place$LT$syn..punctuated..Punctuated$LT$syn..generics..TypeParamBound$C$syn..token..Plus$GT$$GT$17h17fc0ae8b7cffbeaE', symObjAddr: 0x280, symBinAddr: 0x2E500, symSize: 0x240 }
  - { offsetInCU: 0x2DC6, offset: 0xEE2DF, size: 0x8, addend: 0x0, symName: '__ZN4core3ptr34drop_in_place$LT$syn..lit..Lit$GT$17h437be26ef7f89ee9E', symObjAddr: 0x4C0, symBinAddr: 0x2E740, symSize: 0x120 }
  - { offsetInCU: 0x32B4, offset: 0xEE7CD, size: 0x8, addend: 0x0, symName: '__ZN4core3ptr34drop_in_place$LT$syn..pat..Pat$GT$17h237556641a2eb7e0E', symObjAddr: 0x5E0, symBinAddr: 0x2E860, symSize: 0xF40 }
  - { offsetInCU: 0x6D7A, offset: 0xF2293, size: 0x8, addend: 0x0, symName: '__ZN4core3ptr34drop_in_place$LT$syn..ty..Type$GT$17h7ac3676ddd6a1e03E', symObjAddr: 0x1520, symBinAddr: 0x2F7A0, symSize: 0x580 }
  - { offsetInCU: 0x8603, offset: 0xF3B1C, size: 0x8, addend: 0x0, symName: '__ZN4core3ptr36drop_in_place$LT$syn..expr..Expr$GT$17h4fe8aa45fb773e88E', symObjAddr: 0x1AA0, symBinAddr: 0x2FD20, symSize: 0x2730 }
  - { offsetInCU: 0x11A63, offset: 0xFCF7C, size: 0x8, addend: 0x0, symName: '__ZN4core3ptr36drop_in_place$LT$syn..mac..Macro$GT$17h4374dd5fb8195592E', symObjAddr: 0x41D0, symBinAddr: 0x32450, symSize: 0xE0 }
  - { offsetInCU: 0x11DED, offset: 0xFD306, size: 0x8, addend: 0x0, symName: '__ZN4core3ptr36drop_in_place$LT$syn..path..Path$GT$17h4e3bf6964f7a783fE.llvm.4256337593276278713', symObjAddr: 0x42B0, symBinAddr: 0x32530, symSize: 0x240 }
  - { offsetInCU: 0x12787, offset: 0xFDCA0, size: 0x8, addend: 0x0, symName: '__ZN4core3ptr37drop_in_place$LT$syn..stmt..Block$GT$17he4224228b73be10cE', symObjAddr: 0x44F0, symBinAddr: 0x32770, symSize: 0xD0 }
  - { offsetInCU: 0x12A5E, offset: 0xFDF77, size: 0x8, addend: 0x0, symName: '__ZN4core3ptr38drop_in_place$LT$syn..expr..Member$GT$17h3d9e49116e6a0a47E', symObjAddr: 0x45C0, symBinAddr: 0x32840, symSize: 0x30 }
  - { offsetInCU: 0x12B5A, offset: 0xFE073, size: 0x8, addend: 0x0, symName: '__ZN4core3ptr39drop_in_place$LT$proc_macro2..Ident$GT$17h76665a77baab8676E', symObjAddr: 0x45F0, symBinAddr: 0x32870, symSize: 0x30 }
  - { offsetInCU: 0x12C37, offset: 0xFE150, size: 0x8, addend: 0x0, symName: '__ZN4core3ptr40drop_in_place$LT$syn..ty..ReturnType$GT$17h54ee3ae5b021d6e3E', symObjAddr: 0x4620, symBinAddr: 0x328A0, symSize: 0x50 }
  - { offsetInCU: 0x12DA7, offset: 0xFE2C0, size: 0x8, addend: 0x0, symName: '__ZN4core3ptr41drop_in_place$LT$syn..expr..ExprConst$GT$17h886637f6846d9992E', symObjAddr: 0x4670, symBinAddr: 0x328F0, symSize: 0x180 }
  - { offsetInCU: 0x13360, offset: 0xFE879, size: 0x8, addend: 0x0, symName: '__ZN4core3ptr44drop_in_place$LT$syn..lifetime..Lifetime$GT$17h726d2571fff50de2E', symObjAddr: 0x47F0, symBinAddr: 0x32A70, symSize: 0x30 }
  - { offsetInCU: 0x13592, offset: 0xFEAAB, size: 0x8, addend: 0x0, symName: '__ZN4core3ptr45drop_in_place$LT$proc_macro2..TokenStream$GT$17h81c7169c3b48b9bcE.llvm.4256337593276278713', symObjAddr: 0x4820, symBinAddr: 0x32AA0, symSize: 0x140 }
  - { offsetInCU: 0x13A2C, offset: 0xFEF45, size: 0x8, addend: 0x0, symName: '__ZN4core3ptr45drop_in_place$LT$syn..generics..TypeParam$GT$17hd659a97577de08eeE', symObjAddr: 0x4960, symBinAddr: 0x32BE0, symSize: 0x230 }
  - { offsetInCU: 0x1426D, offset: 0xFF786, size: 0x8, addend: 0x0, symName: '__ZN4core3ptr46drop_in_place$LT$syn..generics..ConstParam$GT$17had953b7979b4073dE', symObjAddr: 0x4B90, symBinAddr: 0x32E10, symSize: 0x150 }
  - { offsetInCU: 0x146BA, offset: 0xFFBD3, size: 0x8, addend: 0x0, symName: '__ZN4core3ptr47drop_in_place$LT$syn..path..GenericArgument$GT$17h82abe738557647d7E', symObjAddr: 0x4CE0, symBinAddr: 0x32F60, symSize: 0x450 }
  - { offsetInCU: 0x15430, offset: 0x100949, size: 0x8, addend: 0x0, symName: '__ZN4core3ptr49drop_in_place$LT$syn..generics..LifetimeParam$GT$17h5157ca9611562e07E', symObjAddr: 0x5130, symBinAddr: 0x333B0, symSize: 0xF0 }
  - { offsetInCU: 0x15813, offset: 0x100D2C, size: 0x8, addend: 0x0, symName: '__ZN4core3ptr50drop_in_place$LT$syn..generics..TypeParamBound$GT$17hf46a9001589aa52aE', symObjAddr: 0x5220, symBinAddr: 0x334A0, symSize: 0xA0 }
  - { offsetInCU: 0x15979, offset: 0x100E92, size: 0x8, addend: 0x0, symName: '__ZN4core3ptr58drop_in_place$LT$alloc..vec..Vec$LT$syn..expr..Arm$GT$$GT$17h39d8a98188fc55acE', symObjAddr: 0x52C0, symBinAddr: 0x33540, symSize: 0xD0 }
  - { offsetInCU: 0x15C39, offset: 0x101152, size: 0x8, addend: 0x0, symName: '__ZN4core3ptr59drop_in_place$LT$alloc..boxed..Box$LT$syn..pat..Pat$GT$$GT$17he04dca2bc4c97376E', symObjAddr: 0x5390, symBinAddr: 0x33610, symSize: 0x50 }
  - { offsetInCU: 0x15D92, offset: 0x1012AB, size: 0x8, addend: 0x0, symName: '__ZN4core3ptr59drop_in_place$LT$alloc..boxed..Box$LT$syn..ty..Type$GT$$GT$17hfcfe2957c1417924E', symObjAddr: 0x53E0, symBinAddr: 0x33660, symSize: 0x50 }
  - { offsetInCU: 0x15EEB, offset: 0x101404, size: 0x8, addend: 0x0, symName: '__ZN4core3ptr61drop_in_place$LT$alloc..boxed..Box$LT$syn..expr..Expr$GT$$GT$17h16d421fdfe816b45E', symObjAddr: 0x5430, symBinAddr: 0x336B0, symSize: 0x50 }
  - { offsetInCU: 0x16044, offset: 0x10155D, size: 0x8, addend: 0x0, symName: '__ZN4core3ptr61drop_in_place$LT$syn..path..ParenthesizedGenericArguments$GT$17h5d48be12a1f78e48E', symObjAddr: 0x5480, symBinAddr: 0x33700, symSize: 0x170 }
  - { offsetInCU: 0x1664D, offset: 0x101B66, size: 0x8, addend: 0x0, symName: '__ZN4core3ptr63drop_in_place$LT$alloc..boxed..Box$LT$syn..lit..LitRepr$GT$$GT$17ha704bb6edd8cdde2E', symObjAddr: 0x55F0, symBinAddr: 0x33870, symSize: 0x60 }
  - { offsetInCU: 0x16954, offset: 0x101E6D, size: 0x8, addend: 0x0, symName: '__ZN4core3ptr64drop_in_place$LT$alloc..boxed..Box$LT$syn..pat..FieldPat$GT$$GT$17haf965b72204ee1a2E', symObjAddr: 0x5650, symBinAddr: 0x338D0, symSize: 0x140 }
  - { offsetInCU: 0x17021, offset: 0x10253A, size: 0x8, addend: 0x0, symName: '__ZN4core3ptr64drop_in_place$LT$alloc..boxed..Box$LT$syn..ty..BareFnArg$GT$$GT$17hdf88c04816000d9bE', symObjAddr: 0x5790, symBinAddr: 0x33A10, symSize: 0x140 }
  - { offsetInCU: 0x17576, offset: 0x102A8F, size: 0x8, addend: 0x0, symName: '__ZN4core3ptr65drop_in_place$LT$alloc..vec..Vec$LT$proc_macro..TokenTree$GT$$GT$17hf1013a596b3924c6E.llvm.4256337593276278713', symObjAddr: 0x58D0, symBinAddr: 0x33B50, symSize: 0x110 }
  - { offsetInCU: 0x1796E, offset: 0x102E87, size: 0x8, addend: 0x0, symName: '__ZN4core3ptr65drop_in_place$LT$core..option..Option$LT$syn..expr..Label$GT$$GT$17hcf722fa220bcc9cfE', symObjAddr: 0x59E0, symBinAddr: 0x33C60, symSize: 0x30 }
  - { offsetInCU: 0x17AA8, offset: 0x102FC1, size: 0x8, addend: 0x0, symName: '__ZN4core3ptr66drop_in_place$LT$core..option..Option$LT$syn..pat..PatRest$GT$$GT$17h40fbfe68f1d6c709E', symObjAddr: 0x5A10, symBinAddr: 0x33C90, symSize: 0xE0 }
  - { offsetInCU: 0x17D9C, offset: 0x1032B5, size: 0x8, addend: 0x0, symName: '__ZN4core3ptr67drop_in_place$LT$alloc..boxed..Box$LT$syn..expr..FieldValue$GT$$GT$17h4b3ded6a0ab796f9E', symObjAddr: 0x5AF0, symBinAddr: 0x33D70, symSize: 0x140 }
  - { offsetInCU: 0x182F0, offset: 0x103809, size: 0x8, addend: 0x0, symName: '__ZN4core3ptr70drop_in_place$LT$core..option..Option$LT$syn..ty..BareVariadic$GT$$GT$17hc27acce291494219E', symObjAddr: 0x5C30, symBinAddr: 0x33EB0, symSize: 0x100 }
  - { offsetInCU: 0x18727, offset: 0x103C40, size: 0x8, addend: 0x0, symName: '__ZN4core3ptr72drop_in_place$LT$alloc..boxed..Box$LT$syn..path..GenericArgument$GT$$GT$17h3ed151f3fa5ad3d7E', symObjAddr: 0x5D30, symBinAddr: 0x33FB0, symSize: 0x2B0 }
  - { offsetInCU: 0x19138, offset: 0x104651, size: 0x8, addend: 0x0, symName: '__ZN4core3ptr72drop_in_place$LT$core..option..Option$LT$syn..lifetime..Lifetime$GT$$GT$17hffeb10c39758208dE', symObjAddr: 0x5FE0, symBinAddr: 0x34260, symSize: 0x30 }
  - { offsetInCU: 0x19253, offset: 0x10476C, size: 0x8, addend: 0x0, symName: '__ZN4core3ptr73drop_in_place$LT$alloc..boxed..Box$LT$syn..generics..GenericParam$GT$$GT$17h7ba19caa85bfccc0E', symObjAddr: 0x6010, symBinAddr: 0x34290, symSize: 0x80 }
  - { offsetInCU: 0x193C9, offset: 0x1048E2, size: 0x8, addend: 0x0, symName: '__ZN4core3ptr75drop_in_place$LT$alloc..boxed..Box$LT$syn..generics..TypeParamBound$GT$$GT$17h7c0215faac3c6833E', symObjAddr: 0x6090, symBinAddr: 0x34310, symSize: 0x180 }
  - { offsetInCU: 0x199B5, offset: 0x104ECE, size: 0x8, addend: 0x0, symName: '__ZN4core3ptr86drop_in_place$LT$syn..punctuated..Punctuated$LT$syn..pat..Pat$C$syn..token..Or$GT$$GT$17h4b857d9d35c7504dE', symObjAddr: 0x6210, symBinAddr: 0x34490, symSize: 0x120 }
  - { offsetInCU: 0x19E30, offset: 0x105349, size: 0x8, addend: 0x0, symName: '__ZN4core3ptr87drop_in_place$LT$core..option..Option$LT$alloc..boxed..Box$LT$syn..pat..Pat$GT$$GT$$GT$17h998ab2749db58110E', symObjAddr: 0x6330, symBinAddr: 0x345B0, symSize: 0x50 }
  - { offsetInCU: 0x19FA0, offset: 0x1054B9, size: 0x8, addend: 0x0, symName: '__ZN4core3ptr87drop_in_place$LT$core..option..Option$LT$alloc..boxed..Box$LT$syn..ty..Type$GT$$GT$$GT$17h82f2a8fb33d493fcE', symObjAddr: 0x6380, symBinAddr: 0x34600, symSize: 0x50 }
  - { offsetInCU: 0x1A110, offset: 0x105629, size: 0x8, addend: 0x0, symName: '__ZN4core3ptr89drop_in_place$LT$core..option..Option$LT$alloc..boxed..Box$LT$syn..expr..Expr$GT$$GT$$GT$17he37f644a37cac26cE', symObjAddr: 0x63D0, symBinAddr: 0x34650, symSize: 0x50 }
  - { offsetInCU: 0x1A2BE, offset: 0x1057D7, size: 0x8, addend: 0x0, symName: '__ZN4core3ptr89drop_in_place$LT$syn..punctuated..Punctuated$LT$syn..pat..Pat$C$syn..token..Comma$GT$$GT$17h0798694d981e6e82E', symObjAddr: 0x6420, symBinAddr: 0x346A0, symSize: 0x120 }
  - { offsetInCU: 0x1A78E, offset: 0x105CA7, size: 0x8, addend: 0x0, symName: '__ZN4core3ptr91drop_in_place$LT$syn..punctuated..Punctuated$LT$syn..expr..Expr$C$syn..token..Comma$GT$$GT$17h2241dfffc685840aE', symObjAddr: 0x6540, symBinAddr: 0x347C0, symSize: 0x120 }
  - { offsetInCU: 0x1AC1C, offset: 0x106135, size: 0x8, addend: 0x0, symName: '__ZN4core3ptr94drop_in_place$LT$syn..punctuated..Punctuated$LT$syn..pat..FieldPat$C$syn..token..Comma$GT$$GT$17hdb00ab2d70ff6962E', symObjAddr: 0x6660, symBinAddr: 0x348E0, symSize: 0xF0 }
  - { offsetInCU: 0x1AF1B, offset: 0x106434, size: 0x8, addend: 0x0, symName: '__ZN4core3ptr94drop_in_place$LT$syn..punctuated..Punctuated$LT$syn..ty..BareFnArg$C$syn..token..Comma$GT$$GT$17hfbfdc507d244c705E', symObjAddr: 0x6750, symBinAddr: 0x349D0, symSize: 0xF0 }
  - { offsetInCU: 0x1B21C, offset: 0x106735, size: 0x8, addend: 0x0, symName: '__ZN4core3ptr96drop_in_place$LT$core..option..Option$LT$alloc..boxed..Box$LT$syn..path..PathSegment$GT$$GT$$GT$17h8858e5e2b69f90aaE', symObjAddr: 0x6840, symBinAddr: 0x34AC0, symSize: 0x1A0 }
  - { offsetInCU: 0x1B8DD, offset: 0x106DF6, size: 0x8, addend: 0x0, symName: '__ZN4core3ptr97drop_in_place$LT$syn..punctuated..Punctuated$LT$syn..expr..FieldValue$C$syn..token..Comma$GT$$GT$17h5ea76a01aa871e50E', symObjAddr: 0x69E0, symBinAddr: 0x34C60, symSize: 0xF0 }
  - { offsetInCU: 0x1BC56, offset: 0x10716F, size: 0x8, addend: 0x0, symName: '__ZN4core3ptr98drop_in_place$LT$syn..punctuated..Punctuated$LT$syn..lifetime..Lifetime$C$syn..token..Plus$GT$$GT$17h1be2ed4f5670ca0eE', symObjAddr: 0x6AD0, symBinAddr: 0x34D50, symSize: 0xD0 }
  - { offsetInCU: 0x1E, offset: 0x11265B, size: 0x8, addend: 0x0, symName: '__ZN4core3ptr73drop_in_place$LT$core..cell..UnsafeCell$LT$syn..parse..Unexpected$GT$$GT$17h6949a0c331539217E.llvm.13682111587932033311', symObjAddr: 0x0, symBinAddr: 0x34E20, symSize: 0x50 }
  - { offsetInCU: 0xB7D, offset: 0x1131BA, size: 0x8, addend: 0x0, symName: '__ZN4core3ptr73drop_in_place$LT$core..cell..UnsafeCell$LT$syn..parse..Unexpected$GT$$GT$17h6949a0c331539217E.llvm.13682111587932033311', symObjAddr: 0x0, symBinAddr: 0x34E20, symSize: 0x50 }
  - { offsetInCU: 0x171C, offset: 0x113D59, size: 0x8, addend: 0x0, symName: '__ZN68_$LT$alloc..rc..Rc$LT$T$C$A$GT$$u20$as$u20$core..ops..drop..Drop$GT$4drop17h051b48a8221685f2E', symObjAddr: 0x100, symBinAddr: 0x34E70, symSize: 0xE0 }
  - { offsetInCU: 0x1C3D, offset: 0x11427A, size: 0x8, addend: 0x0, symName: '__ZN68_$LT$alloc..rc..Rc$LT$T$C$A$GT$$u20$as$u20$core..ops..drop..Drop$GT$4drop17h7b5a252cb8c71b66E', symObjAddr: 0x1E0, symBinAddr: 0x34F50, symSize: 0x40 }
  - { offsetInCU: 0x2149, offset: 0x114786, size: 0x8, addend: 0x0, symName: '__ZN80_$LT$alloc..rc..UniqueRcUninit$LT$T$C$A$GT$$u20$as$u20$core..ops..drop..Drop$GT$4drop17h7e54e5f2f49c1f37E', symObjAddr: 0x220, symBinAddr: 0x34F90, symSize: 0x4F }
  - { offsetInCU: 0x7AF, offset: 0x115986, size: 0x8, addend: 0x0, symName: '__ZN68_$LT$$RF$str$u20$as$u20$proc_macro..bridge..rpc..Encode$LT$S$GT$$GT$6encode17h4863327133f9173bE', symObjAddr: 0x80, symBinAddr: 0x34FE0, symSize: 0x230 }
  - { offsetInCU: 0x1E, offset: 0x115FE2, size: 0x8, addend: 0x0, symName: '__ZN120_$LT$proc_macro2..fallback..TokenStream$u20$as$u20$core..iter..traits..collect..Extend$LT$proc_macro2..TokenTree$GT$$GT$6extend17h250768e2bbcd48c5E', symObjAddr: 0x0, symBinAddr: 0x35210, symSize: 0x100 }
  - { offsetInCU: 0xA3D, offset: 0x116A01, size: 0x8, addend: 0x0, symName: '__ZN120_$LT$proc_macro2..fallback..TokenStream$u20$as$u20$core..iter..traits..collect..Extend$LT$proc_macro2..TokenTree$GT$$GT$6extend17h250768e2bbcd48c5E', symObjAddr: 0x0, symBinAddr: 0x35210, symSize: 0x100 }
  - { offsetInCU: 0xC21, offset: 0x116BE5, size: 0x8, addend: 0x0, symName: '__ZN126_$LT$proc_macro2..fallback..TokenStream$u20$as$u20$core..iter..traits..collect..FromIterator$LT$proc_macro2..TokenTree$GT$$GT$9from_iter17h7b29bfb36b161a47E', symObjAddr: 0x100, symBinAddr: 0x35310, symSize: 0x80 }
  - { offsetInCU: 0x12A7, offset: 0x11726B, size: 0x8, addend: 0x0, symName: '__ZN4core3ptr150drop_in_place$LT$core..iter..adapters..map..Map$LT$proc_macro2..token_stream..IntoIter$C$solana_sdk_macro..respan..$u7b$$u7b$closure$u7d$$u7d$$GT$$GT$17hf863c9bdf8a37367E.llvm.12221462167157136009', symObjAddr: 0x180, symBinAddr: 0x35390, symSize: 0x20 }
  - { offsetInCU: 0x14BF, offset: 0x117483, size: 0x8, addend: 0x0, symName: '__ZN4core3ptr45drop_in_place$LT$proc_macro2..TokenStream$GT$17h81c7169c3b48b9bcE.llvm.12221462167157136009', symObjAddr: 0x1A0, symBinAddr: 0x353B0, symSize: 0x140 }
  - { offsetInCU: 0x191B, offset: 0x1178DF, size: 0x8, addend: 0x0, symName: '__ZN4core3ptr55drop_in_place$LT$proc_macro2..fallback..TokenStream$GT$17h53167d02ed84e5ccE.llvm.12221462167157136009', symObjAddr: 0x2E0, symBinAddr: 0x354F0, symSize: 0x40 }
  - { offsetInCU: 0x19B0, offset: 0x117974, size: 0x8, addend: 0x0, symName: '__ZN4core3ptr56drop_in_place$LT$proc_macro2..token_stream..IntoIter$GT$17h8fb3aabccb851513E.llvm.12221462167157136009', symObjAddr: 0x320, symBinAddr: 0x35530, symSize: 0x20 }
  - { offsetInCU: 0x1A60, offset: 0x117A24, size: 0x8, addend: 0x0, symName: '__ZN4core3ptr65drop_in_place$LT$alloc..vec..Vec$LT$proc_macro..TokenTree$GT$$GT$17hf1013a596b3924c6E.llvm.12221462167157136009', symObjAddr: 0x340, symBinAddr: 0x35550, symSize: 0x110 }
  - { offsetInCU: 0x2E2A, offset: 0x118DEE, size: 0x8, addend: 0x0, symName: '__ZN5alloc2rc15Rc$LT$T$C$A$GT$8make_mut17h583cfcc4b554afcdE.llvm.12221462167157136009', symObjAddr: 0x450, symBinAddr: 0x35660, symSize: 0x1B0 }
  - { offsetInCU: 0x1E, offset: 0x11A139, size: 0x8, addend: 0x0, symName: __ZN3syn5error5Error11new_spanned17h25b03724449a0f5cE, symObjAddr: 0x0, symBinAddr: 0x35810, symSize: 0x180 }
  - { offsetInCU: 0x35, offset: 0x11A150, size: 0x8, addend: 0x0, symName: _anon.61b647665ced71f2e6b4a26d9b0e9157.0.llvm.17592128454368595404, symObjAddr: 0xB80, symBinAddr: 0x2185F0, symSize: 0x0 }
  - { offsetInCU: 0x179, offset: 0x11A294, size: 0x8, addend: 0x0, symName: '__ZN58_$LT$alloc..string..String$u20$as$u20$core..fmt..Write$GT$10write_char17h04bc467bd68a934bE.llvm.17592128454368595404', symObjAddr: 0x890, symBinAddr: 0x360A0, symSize: 0x140 }
  - { offsetInCU: 0x580, offset: 0x11A69B, size: 0x8, addend: 0x0, symName: '__ZN58_$LT$alloc..string..String$u20$as$u20$core..fmt..Write$GT$9write_str17h46a93205c3443fbaE.llvm.17592128454368595404', symObjAddr: 0x9D0, symBinAddr: 0x361E0, symSize: 0x5B }
  - { offsetInCU: 0xC93, offset: 0x11ADAE, size: 0x8, addend: 0x0, symName: '__ZN4core3ptr42drop_in_place$LT$alloc..string..String$GT$17h262f2fc339b1c793E.llvm.17592128454368595404', symObjAddr: 0x600, symBinAddr: 0x35E10, symSize: 0x20 }
  - { offsetInCU: 0xED1, offset: 0x11AFEC, size: 0x8, addend: 0x0, symName: '__ZN4core3ptr45drop_in_place$LT$proc_macro2..TokenStream$GT$17h81c7169c3b48b9bcE.llvm.17592128454368595404', symObjAddr: 0x620, symBinAddr: 0x35E30, symSize: 0x140 }
  - { offsetInCU: 0x132D, offset: 0x11B448, size: 0x8, addend: 0x0, symName: '__ZN4core3ptr65drop_in_place$LT$alloc..vec..Vec$LT$proc_macro..TokenTree$GT$$GT$17hf1013a596b3924c6E.llvm.17592128454368595404', symObjAddr: 0x760, symBinAddr: 0x35F70, symSize: 0x110 }
  - { offsetInCU: 0x1877, offset: 0x11B992, size: 0x8, addend: 0x0, symName: '__ZN53_$LT$core..fmt..Error$u20$as$u20$core..fmt..Debug$GT$3fmt17h03dc662ab152f3aeE.llvm.17592128454368595404', symObjAddr: 0x870, symBinAddr: 0x36080, symSize: 0x20 }
  - { offsetInCU: 0x1B97, offset: 0x11BCB2, size: 0x8, addend: 0x0, symName: _anon.61b647665ced71f2e6b4a26d9b0e9157.4.llvm.17592128454368595404, symObjAddr: 0xBC8, symBinAddr: 0x218638, symSize: 0x0 }
  - { offsetInCU: 0x1EEF, offset: 0x11C00A, size: 0x8, addend: 0x0, symName: __ZN3syn5error5Error11new_spanned17h25b03724449a0f5cE, symObjAddr: 0x0, symBinAddr: 0x35810, symSize: 0x180 }
  - { offsetInCU: 0x2188, offset: 0x11C2A3, size: 0x8, addend: 0x0, symName: __ZN3syn5error5Error11new_spanned17h448d62dea90ce3deE, symObjAddr: 0x180, symBinAddr: 0x35990, symSize: 0x120 }
  - { offsetInCU: 0x23C4, offset: 0x11C4DF, size: 0x8, addend: 0x0, symName: __ZN3syn5error5Error11new_spanned17h4d9cad4ab3f0f8c8E, symObjAddr: 0x2A0, symBinAddr: 0x35AB0, symSize: 0xE0 }
  - { offsetInCU: 0x26A0, offset: 0x11C7BB, size: 0x8, addend: 0x0, symName: __ZN3syn5error5Error11new_spanned17h58547d9b90a07b98E, symObjAddr: 0x380, symBinAddr: 0x35B90, symSize: 0x190 }
  - { offsetInCU: 0x28EC, offset: 0x11CA07, size: 0x8, addend: 0x0, symName: __ZN3syn5error5Error3new17h04b3b6d30285b2a9E, symObjAddr: 0x510, symBinAddr: 0x35D20, symSize: 0xF0 }
  - { offsetInCU: 0x1E, offset: 0x11E505, size: 0x8, addend: 0x0, symName: __ZN4core3fmt5Write9write_fmt17h711d96312ab52a09E, symObjAddr: 0x0, symBinAddr: 0x36240, symSize: 0x20 }
  - { offsetInCU: 0x98, offset: 0x11E57F, size: 0x8, addend: 0x0, symName: '__ZN58_$LT$alloc..string..String$u20$as$u20$core..fmt..Write$GT$10write_char17h04bc467bd68a934bE', symObjAddr: 0x40, symBinAddr: 0x36280, symSize: 0x140 }
  - { offsetInCU: 0x49D, offset: 0x11E984, size: 0x8, addend: 0x0, symName: '__ZN58_$LT$alloc..string..String$u20$as$u20$core..fmt..Write$GT$9write_str17h46a93205c3443fbaE', symObjAddr: 0x180, symBinAddr: 0x363C0, symSize: 0x5B }
  - { offsetInCU: 0xAC1, offset: 0x11EFA8, size: 0x8, addend: 0x0, symName: '__ZN4core3ptr42drop_in_place$LT$alloc..string..String$GT$17h262f2fc339b1c793E', symObjAddr: 0x20, symBinAddr: 0x36260, symSize: 0x20 }
  - { offsetInCU: 0xE54, offset: 0x11F33B, size: 0x8, addend: 0x0, symName: __ZN4core3fmt5Write9write_fmt17h711d96312ab52a09E, symObjAddr: 0x0, symBinAddr: 0x36240, symSize: 0x20 }
  - { offsetInCU: 0x1E, offset: 0x11FDF0, size: 0x8, addend: 0x0, symName: '__ZN4core3ptr43drop_in_place$LT$proc_macro2..TokenTree$GT$17h4b1efa197a8362d5E.llvm.734240201489208607', symObjAddr: 0x0, symBinAddr: 0x36420, symSize: 0xB0 }
  - { offsetInCU: 0xF36, offset: 0x120D08, size: 0x8, addend: 0x0, symName: '__ZN4core3ptr43drop_in_place$LT$proc_macro2..TokenTree$GT$17h4b1efa197a8362d5E.llvm.734240201489208607', symObjAddr: 0x0, symBinAddr: 0x36420, symSize: 0xB0 }
  - { offsetInCU: 0x1BF6, offset: 0x1219C8, size: 0x8, addend: 0x0, symName: '__ZN86_$LT$alloc..vec..into_iter..IntoIter$LT$T$C$A$GT$$u20$as$u20$core..ops..drop..Drop$GT$4drop17h173c9b70114ca6cbE', symObjAddr: 0xB0, symBinAddr: 0x364D0, symSize: 0x110 }
  - { offsetInCU: 0x1FEC, offset: 0x121DBE, size: 0x8, addend: 0x0, symName: '__ZN86_$LT$alloc..vec..into_iter..IntoIter$LT$T$C$A$GT$$u20$as$u20$core..ops..drop..Drop$GT$4drop17haabc8a835da939f0E', symObjAddr: 0x1C0, symBinAddr: 0x365E0, symSize: 0xCD }
  - { offsetInCU: 0x1E, offset: 0x122A26, size: 0x8, addend: 0x0, symName: '__ZN102_$LT$core..iter..adapters..map..Map$LT$I$C$F$GT$$u20$as$u20$core..iter..traits..iterator..Iterator$GT$4fold17h4579f58ad92e3490E', symObjAddr: 0x0, symBinAddr: 0x366B0, symSize: 0x1C0 }
  - { offsetInCU: 0x12A1, offset: 0x123CA9, size: 0x8, addend: 0x0, symName: '__ZN4core3ptr43drop_in_place$LT$proc_macro2..TokenTree$GT$17h4b1efa197a8362d5E.llvm.14067858925375213390', symObjAddr: 0x370, symBinAddr: 0x36A20, symSize: 0xB0 }
  - { offsetInCU: 0x15FC, offset: 0x124004, size: 0x8, addend: 0x0, symName: '__ZN4core3ptr56drop_in_place$LT$proc_macro2..token_stream..IntoIter$GT$17h8fb3aabccb851513E.llvm.14067858925375213390', symObjAddr: 0x420, symBinAddr: 0x36AD0, symSize: 0x1C }
  - { offsetInCU: 0x171C, offset: 0x124124, size: 0x8, addend: 0x0, symName: '__ZN102_$LT$core..iter..adapters..map..Map$LT$I$C$F$GT$$u20$as$u20$core..iter..traits..iterator..Iterator$GT$4fold17h4579f58ad92e3490E', symObjAddr: 0x0, symBinAddr: 0x366B0, symSize: 0x1C0 }
  - { offsetInCU: 0x1AFB, offset: 0x124503, size: 0x8, addend: 0x0, symName: '__ZN102_$LT$core..iter..adapters..map..Map$LT$I$C$F$GT$$u20$as$u20$core..iter..traits..iterator..Iterator$GT$4fold17h724e76cd93f9990bE', symObjAddr: 0x1C0, symBinAddr: 0x36870, symSize: 0x1B0 }
  - { offsetInCU: 0x1E, offset: 0x1258DB, size: 0x8, addend: 0x0, symName: __ZN10proc_macro6bridge14selfless_reify31reify_to_extern_c_fn_hrt_bridge7wrapper17h0fbe6bf361eef7beE, symObjAddr: 0x0, symBinAddr: 0x36AF0, symSize: 0x30 }
  - { offsetInCU: 0x40B, offset: 0x125CC8, size: 0x8, addend: 0x0, symName: __ZN10proc_macro6bridge14selfless_reify31reify_to_extern_c_fn_hrt_bridge7wrapper17h0fbe6bf361eef7beE, symObjAddr: 0x0, symBinAddr: 0x36AF0, symSize: 0x30 }
  - { offsetInCU: 0x483, offset: 0x125D40, size: 0x8, addend: 0x0, symName: __ZN10proc_macro6bridge14selfless_reify31reify_to_extern_c_fn_hrt_bridge7wrapper17h325e0e85313663ccE, symObjAddr: 0x30, symBinAddr: 0x36B20, symSize: 0x30 }
  - { offsetInCU: 0x4FB, offset: 0x125DB8, size: 0x8, addend: 0x0, symName: __ZN10proc_macro6bridge14selfless_reify31reify_to_extern_c_fn_hrt_bridge7wrapper17h46962c3ba8e15f21E, symObjAddr: 0x60, symBinAddr: 0x36B50, symSize: 0x30 }
  - { offsetInCU: 0x573, offset: 0x125E30, size: 0x8, addend: 0x0, symName: __ZN10proc_macro6bridge14selfless_reify31reify_to_extern_c_fn_hrt_bridge7wrapper17h4733c02257f34239E, symObjAddr: 0x90, symBinAddr: 0x36B80, symSize: 0x30 }
  - { offsetInCU: 0x5EB, offset: 0x125EA8, size: 0x8, addend: 0x0, symName: __ZN10proc_macro6bridge14selfless_reify31reify_to_extern_c_fn_hrt_bridge7wrapper17h5a8d724208ad91f8E, symObjAddr: 0xC0, symBinAddr: 0x36BB0, symSize: 0x30 }
  - { offsetInCU: 0x663, offset: 0x125F20, size: 0x8, addend: 0x0, symName: __ZN10proc_macro6bridge14selfless_reify31reify_to_extern_c_fn_hrt_bridge7wrapper17h5c390e67b0440ddaE, symObjAddr: 0xF0, symBinAddr: 0x36BE0, symSize: 0x30 }
  - { offsetInCU: 0x6DB, offset: 0x125F98, size: 0x8, addend: 0x0, symName: __ZN10proc_macro6bridge14selfless_reify31reify_to_extern_c_fn_hrt_bridge7wrapper17h6a7063c8dcc803ddE, symObjAddr: 0x120, symBinAddr: 0x36C10, symSize: 0x30 }
  - { offsetInCU: 0x753, offset: 0x126010, size: 0x8, addend: 0x0, symName: __ZN10proc_macro6bridge14selfless_reify31reify_to_extern_c_fn_hrt_bridge7wrapper17h6af82e6845a31e45E, symObjAddr: 0x150, symBinAddr: 0x36C40, symSize: 0x30 }
  - { offsetInCU: 0x7CB, offset: 0x126088, size: 0x8, addend: 0x0, symName: __ZN10proc_macro6bridge14selfless_reify31reify_to_extern_c_fn_hrt_bridge7wrapper17habb93f5ff6f762bfE, symObjAddr: 0x180, symBinAddr: 0x36C70, symSize: 0x30 }
  - { offsetInCU: 0x843, offset: 0x126100, size: 0x8, addend: 0x0, symName: __ZN10proc_macro6bridge14selfless_reify31reify_to_extern_c_fn_hrt_bridge7wrapper17hbd6efa5d74da8cd4E, symObjAddr: 0x1B0, symBinAddr: 0x36CA0, symSize: 0x25 }
  - { offsetInCU: 0x1E, offset: 0x126372, size: 0x8, addend: 0x0, symName: '__ZN115_$LT$proc_macro2..imp..TokenStream$u20$as$u20$core..iter..traits..collect..Extend$LT$proc_macro2..TokenTree$GT$$GT$6extend17he23e02618b5ff747E', symObjAddr: 0x0, symBinAddr: 0x36CD0, symSize: 0x110 }
  - { offsetInCU: 0x78B, offset: 0x126ADF, size: 0x8, addend: 0x0, symName: '__ZN115_$LT$proc_macro2..imp..TokenStream$u20$as$u20$core..iter..traits..collect..Extend$LT$proc_macro2..TokenTree$GT$$GT$6extend17he23e02618b5ff747E', symObjAddr: 0x0, symBinAddr: 0x36CD0, symSize: 0x110 }
  - { offsetInCU: 0x1672, offset: 0x1279C6, size: 0x8, addend: 0x0, symName: '__ZN4core3ptr150drop_in_place$LT$core..iter..adapters..map..Map$LT$proc_macro2..token_stream..IntoIter$C$solana_sdk_macro..respan..$u7b$$u7b$closure$u7d$$u7d$$GT$$GT$17hf863c9bdf8a37367E.llvm.2440978934581742046', symObjAddr: 0x1C0, symBinAddr: 0x36DE0, symSize: 0x20 }
  - { offsetInCU: 0x1754, offset: 0x127AA8, size: 0x8, addend: 0x0, symName: '__ZN4core3ptr56drop_in_place$LT$proc_macro2..token_stream..IntoIter$GT$17h8fb3aabccb851513E.llvm.2440978934581742046', symObjAddr: 0x200, symBinAddr: 0x36E00, symSize: 0x20 }
  - { offsetInCU: 0x1E, offset: 0x127EEC, size: 0x8, addend: 0x0, symName: '__ZN4core3ptr43drop_in_place$LT$proc_macro2..TokenTree$GT$17h4b1efa197a8362d5E.llvm.908341760842527702', symObjAddr: 0x0, symBinAddr: 0x36E20, symSize: 0xB0 }
  - { offsetInCU: 0xF56, offset: 0x128E24, size: 0x8, addend: 0x0, symName: '__ZN4core3ptr43drop_in_place$LT$proc_macro2..TokenTree$GT$17h4b1efa197a8362d5E.llvm.908341760842527702', symObjAddr: 0x0, symBinAddr: 0x36E20, symSize: 0xB0 }
  - { offsetInCU: 0x134C, offset: 0x12921A, size: 0x8, addend: 0x0, symName: '__ZN4core3ptr45drop_in_place$LT$proc_macro2..TokenStream$GT$17h81c7169c3b48b9bcE.llvm.908341760842527702', symObjAddr: 0xB0, symBinAddr: 0x36ED0, symSize: 0x140 }
  - { offsetInCU: 0x17A8, offset: 0x129676, size: 0x8, addend: 0x0, symName: '__ZN4core3ptr65drop_in_place$LT$alloc..vec..Vec$LT$proc_macro..TokenTree$GT$$GT$17hf1013a596b3924c6E.llvm.908341760842527702', symObjAddr: 0x1F0, symBinAddr: 0x37010, symSize: 0x110 }
  - { offsetInCU: 0x242A, offset: 0x12A2F8, size: 0x8, addend: 0x0, symName: '__ZN71_$LT$proc_macro2..TokenStream$u20$as$u20$quote..ext..TokenStreamExt$GT$10append_all17hdc58fda562dcdb07E', symObjAddr: 0x3A0, symBinAddr: 0x37120, symSize: 0x82 }
  - { offsetInCU: 0x1E, offset: 0x12B09D, size: 0x8, addend: 0x0, symName: '__ZN4bs586decode22DecodeBuilder$LT$I$GT$8into_vec17he317ff99c69c3993E', symObjAddr: 0x0, symBinAddr: 0x371B0, symSize: 0x150 }
  - { offsetInCU: 0x8D1, offset: 0x12B950, size: 0x8, addend: 0x0, symName: '__ZN4bs586decode22DecodeBuilder$LT$I$GT$8into_vec17he317ff99c69c3993E', symObjAddr: 0x0, symBinAddr: 0x371B0, symSize: 0x150 }
  - { offsetInCU: 0x1E, offset: 0x12C5F9, size: 0x8, addend: 0x0, symName: '__ZN10proc_macro6bridge104_$LT$impl$u20$proc_macro..bridge..rpc..Encode$LT$S$GT$$u20$for$u20$core..result..Result$LT$T$C$E$GT$$GT$6encode17h0bc434f9c6382952E', symObjAddr: 0x0, symBinAddr: 0x37300, symSize: 0x300 }
  - { offsetInCU: 0x149, offset: 0x12C724, size: 0x8, addend: 0x0, symName: '__ZN10proc_macro6bridge104_$LT$impl$u20$proc_macro..bridge..rpc..Encode$LT$S$GT$$u20$for$u20$core..result..Result$LT$T$C$E$GT$$GT$6encode17h0bc434f9c6382952E', symObjAddr: 0x0, symBinAddr: 0x37300, symSize: 0x300 }
  - { offsetInCU: 0x5E5, offset: 0x12CBC0, size: 0x8, addend: 0x0, symName: '__ZN10proc_macro6bridge104_$LT$impl$u20$proc_macro..bridge..rpc..Encode$LT$S$GT$$u20$for$u20$core..result..Result$LT$T$C$E$GT$$GT$6encode17h3a28f4ab805e44b5E', symObjAddr: 0x300, symBinAddr: 0x37600, symSize: 0x280 }
  - { offsetInCU: 0x1E, offset: 0x12D87A, size: 0x8, addend: 0x0, symName: '__ZN10proc_macro6bridge100_$LT$impl$u20$proc_macro..bridge..rpc..Encode$LT$S$GT$$u20$for$u20$core..option..Option$LT$T$GT$$GT$6encode17h5ca09aa28491a598E', symObjAddr: 0x0, symBinAddr: 0x37880, symSize: 0x240 }
  - { offsetInCU: 0x354, offset: 0x12DBB0, size: 0x8, addend: 0x0, symName: '__ZN10proc_macro6bridge100_$LT$impl$u20$proc_macro..bridge..rpc..Encode$LT$S$GT$$u20$for$u20$core..option..Option$LT$T$GT$$GT$6encode17h5ca09aa28491a598E', symObjAddr: 0x0, symBinAddr: 0x37880, symSize: 0x240 }
  - { offsetInCU: 0x6D6, offset: 0x12DF32, size: 0x8, addend: 0x0, symName: '__ZN10proc_macro6bridge100_$LT$impl$u20$proc_macro..bridge..rpc..Encode$LT$S$GT$$u20$for$u20$core..option..Option$LT$T$GT$$GT$6encode17ha60cfaa658993ec2E', symObjAddr: 0x240, symBinAddr: 0x37AC0, symSize: 0x345 }
  - { offsetInCU: 0x1E, offset: 0x12E944, size: 0x8, addend: 0x0, symName: '__ZN114_$LT$proc_macro..TokenStream$u20$as$u20$core..iter..traits..collect..FromIterator$LT$proc_macro..TokenTree$GT$$GT$9from_iter17hfba18eeb65d157f8E', symObjAddr: 0x0, symBinAddr: 0x37E10, symSize: 0xE0 }
  - { offsetInCU: 0x571, offset: 0x12EE97, size: 0x8, addend: 0x0, symName: '__ZN114_$LT$proc_macro..TokenStream$u20$as$u20$core..iter..traits..collect..FromIterator$LT$proc_macro..TokenTree$GT$$GT$9from_iter17hfba18eeb65d157f8E', symObjAddr: 0x0, symBinAddr: 0x37E10, symSize: 0xE0 }
  - { offsetInCU: 0x107D, offset: 0x12F9A3, size: 0x8, addend: 0x0, symName: '__ZN4core3ptr228drop_in_place$LT$core..iter..adapters..map..Map$LT$core..iter..adapters..map..Map$LT$proc_macro2..token_stream..IntoIter$C$solana_sdk_macro..respan..$u7b$$u7b$closure$u7d$$u7d$$GT$$C$proc_macro2..imp..into_compiler_token$GT$$GT$17h87c4a06e2e2fd9d7E.llvm.1980686832516155090', symObjAddr: 0xE0, symBinAddr: 0x37EF0, symSize: 0x20 }
  - { offsetInCU: 0x11BC, offset: 0x12FAE2, size: 0x8, addend: 0x0, symName: '__ZN4core3ptr50drop_in_place$LT$proc_macro..ConcatTreesHelper$GT$17h37de7f531055f56aE.llvm.1980686832516155090', symObjAddr: 0x100, symBinAddr: 0x37F10, symSize: 0x107 }
  - { offsetInCU: 0x1E, offset: 0x130828, size: 0x8, addend: 0x0, symName: '__ZN4core3ptr45drop_in_place$LT$proc_macro2..TokenStream$GT$17h81c7169c3b48b9bcE.llvm.13721940866381467928', symObjAddr: 0x0, symBinAddr: 0x38020, symSize: 0x140 }
  - { offsetInCU: 0xB2C, offset: 0x131336, size: 0x8, addend: 0x0, symName: '__ZN4core3ptr45drop_in_place$LT$proc_macro2..TokenStream$GT$17h81c7169c3b48b9bcE.llvm.13721940866381467928', symObjAddr: 0x0, symBinAddr: 0x38020, symSize: 0x140 }
  - { offsetInCU: 0xF88, offset: 0x131792, size: 0x8, addend: 0x0, symName: '__ZN4core3ptr65drop_in_place$LT$alloc..vec..Vec$LT$proc_macro..TokenTree$GT$$GT$17hf1013a596b3924c6E.llvm.13721940866381467928', symObjAddr: 0x140, symBinAddr: 0x38160, symSize: 0x110 }
  - { offsetInCU: 0x1E, offset: 0x13251A, size: 0x8, addend: 0x0, symName: '__ZN77_$LT$$LP$A$C$B$RP$$u20$as$u20$proc_macro..bridge..rpc..DecodeMut$LT$S$GT$$GT$6decode17h754e18da453a13c5E', symObjAddr: 0x0, symBinAddr: 0x38270, symSize: 0xD0 }
  - { offsetInCU: 0xB4, offset: 0x1325B0, size: 0x8, addend: 0x0, symName: '__ZN77_$LT$$LP$A$C$B$RP$$u20$as$u20$proc_macro..bridge..rpc..DecodeMut$LT$S$GT$$GT$6decode17h754e18da453a13c5E', symObjAddr: 0x0, symBinAddr: 0x38270, symSize: 0xD0 }
  - { offsetInCU: 0xA59, offset: 0x132F55, size: 0x8, addend: 0x0, symName: '__ZN77_$LT$$LP$A$C$B$RP$$u20$as$u20$proc_macro..bridge..rpc..DecodeMut$LT$S$GT$$GT$6decode17he3f3811ae2260a29E', symObjAddr: 0xD0, symBinAddr: 0x38340, symSize: 0xCA }
  - { offsetInCU: 0x1E, offset: 0x1341FD, size: 0x8, addend: 0x0, symName: __ZN4bs586decode11decode_into17h2099c897535dbf05E, symObjAddr: 0x0, symBinAddr: 0x38460, symSize: 0x360 }
  - { offsetInCU: 0xD11, offset: 0x134EF0, size: 0x8, addend: 0x0, symName: __ZN4bs586decode11decode_into17h2099c897535dbf05E, symObjAddr: 0x0, symBinAddr: 0x38460, symSize: 0x360 }
  - { offsetInCU: 0x493D, offset: 0x139E95, size: 0x8, addend: 0x0, symName: '__ZN3syn4item7parsing63_$LT$impl$u20$syn..parse..Parse$u20$for$u20$syn..item..Item$GT$5parse17h80cf7aab904a267aE', symObjAddr: 0xCD50, symBinAddr: 0x44260, symSize: 0x190 }
  - { offsetInCU: 0x4ECB, offset: 0x13A423, size: 0x8, addend: 0x0, symName: '__ZN3syn4item7parsing68_$LT$impl$u20$syn..parse..Parse$u20$for$u20$syn..item..ItemMacro$GT$5parse17hc5bb9427f98c7017E', symObjAddr: 0xCEE0, symBinAddr: 0x443F0, symSize: 0x6B0 }
  - { offsetInCU: 0x5B5D, offset: 0x13B0B5, size: 0x8, addend: 0x0, symName: '__ZN3syn4item7parsing74_$LT$impl$u20$syn..parse..Parse$u20$for$u20$syn..item..ItemExternCrate$GT$5parse17h6d46d67dd87b398fE', symObjAddr: 0xD590, symBinAddr: 0x44AA0, symSize: 0x910 }
  - { offsetInCU: 0x6F20, offset: 0x13C478, size: 0x8, addend: 0x0, symName: '__ZN3syn4item7parsing75_$LT$impl$u20$syn..parse..Parse$u20$for$u20$syn..item..StaticMutability$GT$5parse17h60646f4bbad23fa9E', symObjAddr: 0x1E6F0, symBinAddr: 0x4F520, symSize: 0xA0 }
  - { offsetInCU: 0x70D1, offset: 0x13C629, size: 0x8, addend: 0x0, symName: '__ZN3syn4item7parsing68_$LT$impl$u20$syn..parse..Parse$u20$for$u20$syn..item..Signature$GT$5parse17h055acddcceb01c9aE', symObjAddr: 0xF690, symBinAddr: 0x453B0, symSize: 0xA90 }
  - { offsetInCU: 0x8078, offset: 0x13D5D0, size: 0x8, addend: 0x0, symName: '__ZN3syn4item7parsing67_$LT$impl$u20$syn..parse..Parse$u20$for$u20$syn..item..Receiver$GT$5parse17h7c38822b1e4d7a06E', symObjAddr: 0x10630, symBinAddr: 0x45E40, symSize: 0xA20 }
  - { offsetInCU: 0x923B, offset: 0x13E793, size: 0x8, addend: 0x0, symName: '__ZN3syn4item7parsing66_$LT$impl$u20$syn..parse..Parse$u20$for$u20$syn..item..ItemMod$GT$5parse17h216506bc1f5b0b64E', symObjAddr: 0x11050, symBinAddr: 0x46860, symSize: 0xD80 }
  - { offsetInCU: 0xAF9E, offset: 0x1404F6, size: 0x8, addend: 0x0, symName: '__ZN3syn4item7parsing73_$LT$impl$u20$syn..parse..Parse$u20$for$u20$syn..item..ItemForeignMod$GT$5parse17ha80c1978f8841fabE', symObjAddr: 0x11DD0, symBinAddr: 0x475E0, symSize: 0x720 }
  - { offsetInCU: 0xC378, offset: 0x1418D0, size: 0x8, addend: 0x0, symName: '__ZN3syn4item7parsing70_$LT$impl$u20$syn..parse..Parse$u20$for$u20$syn..item..ForeignItem$GT$5parse17hae52281c277c1a2fE', symObjAddr: 0x124F0, symBinAddr: 0x47D00, symSize: 0x19B0 }
  - { offsetInCU: 0x1084F, offset: 0x145DA7, size: 0x8, addend: 0x0, symName: '__ZN3syn4item7parsing69_$LT$impl$u20$syn..parse..Parse$u20$for$u20$syn..item..ItemStruct$GT$5parse17h5f37d45d0509ea74E', symObjAddr: 0x160C0, symBinAddr: 0x496B0, symSize: 0x720 }
  - { offsetInCU: 0x1133D, offset: 0x146895, size: 0x8, addend: 0x0, symName: '__ZN3syn4item7parsing67_$LT$impl$u20$syn..parse..Parse$u20$for$u20$syn..item..ItemEnum$GT$5parse17hcfc041400e96f868E', symObjAddr: 0x167E0, symBinAddr: 0x49DD0, symSize: 0x720 }
  - { offsetInCU: 0x11E2E, offset: 0x147386, size: 0x8, addend: 0x0, symName: '__ZN3syn4item7parsing68_$LT$impl$u20$syn..parse..Parse$u20$for$u20$syn..item..ItemUnion$GT$5parse17h3bd0150048f99936E', symObjAddr: 0x16F00, symBinAddr: 0x4A4F0, symSize: 0x710 }
  - { offsetInCU: 0x12913, offset: 0x147E6B, size: 0x8, addend: 0x0, symName: '__ZN3syn4item7parsing68_$LT$impl$u20$syn..parse..Parse$u20$for$u20$syn..item..ItemTrait$GT$5parse17hba3917e64180f729E', symObjAddr: 0x17610, symBinAddr: 0x4AC00, symSize: 0x630 }
  - { offsetInCU: 0x1363E, offset: 0x148B96, size: 0x8, addend: 0x0, symName: '__ZN3syn4item7parsing68_$LT$impl$u20$syn..parse..Parse$u20$for$u20$syn..item..TraitItem$GT$5parse17h5e01dedab6d196dfE', symObjAddr: 0x17DA0, symBinAddr: 0x4B230, symSize: 0x1B80 }
  - { offsetInCU: 0x1923B, offset: 0x14E793, size: 0x8, addend: 0x0, symName: '__ZN3syn4item7parsing70_$LT$impl$u20$syn..parse..Parse$u20$for$u20$syn..item..TraitItemFn$GT$5parse17h386721044cd912e3E', symObjAddr: 0x1A250, symBinAddr: 0x4CDB0, symSize: 0x850 }
  - { offsetInCU: 0x1A870, offset: 0x14FDC8, size: 0x8, addend: 0x0, symName: '__ZN3syn4item7parsing67_$LT$impl$u20$syn..parse..Parse$u20$for$u20$syn..item..ImplItem$GT$5parse17h6b1c6f6f70b03df2E', symObjAddr: 0x1B350, symBinAddr: 0x4D600, symSize: 0x1BE0 }
  - { offsetInCU: 0x1FE75, offset: 0x1553CD, size: 0x8, addend: 0x0, symName: '__ZN3syn4item7parsing72_$LT$impl$u20$syn..parse..Parse$u20$for$u20$syn..item..ImplItemMacro$GT$5parse17h34a4a0c85418b70aE', symObjAddr: 0x1E3B0, symBinAddr: 0x4F1E0, symSize: 0x0 }
  - { offsetInCU: 0x20543, offset: 0x155A9B, size: 0x8, addend: 0x0, symName: '__ZN3syn4item8printing83_$LT$impl$u20$quote..to_tokens..ToTokens$u20$for$u20$syn..item..ItemExternCrate$GT$9to_tokens17hfe36bc772e4277a0E', symObjAddr: 0x1E790, symBinAddr: 0x4F5C0, symSize: 0x250 }
  - { offsetInCU: 0x20AFF, offset: 0x156057, size: 0x8, addend: 0x0, symName: '__ZN3syn4item8printing78_$LT$impl$u20$quote..to_tokens..ToTokens$u20$for$u20$syn..item..ItemStatic$GT$9to_tokens17hbc3d5375fc6c771cE', symObjAddr: 0x1EB70, symBinAddr: 0x4F810, symSize: 0x220 }
  - { offsetInCU: 0x21035, offset: 0x15658D, size: 0x8, addend: 0x0, symName: '__ZN3syn4item8printing75_$LT$impl$u20$quote..to_tokens..ToTokens$u20$for$u20$syn..item..ItemMod$GT$9to_tokens17h0200f7c6912b0a1cE', symObjAddr: 0x1F050, symBinAddr: 0x4FA30, symSize: 0x230 }
  - { offsetInCU: 0x21531, offset: 0x156A89, size: 0x8, addend: 0x0, symName: '__ZN3syn4item8printing76_$LT$impl$u20$quote..to_tokens..ToTokens$u20$for$u20$syn..item..ItemType$GT$9to_tokens17he708c67807a0f5e7E', symObjAddr: 0x1F440, symBinAddr: 0x4FC60, symSize: 0x1C0 }
  - { offsetInCU: 0x21890, offset: 0x156DE8, size: 0x8, addend: 0x0, symName: '__ZN3syn4item8printing76_$LT$impl$u20$quote..to_tokens..ToTokens$u20$for$u20$syn..item..ItemEnum$GT$9to_tokens17h182a12d3a154632dE', symObjAddr: 0x1F600, symBinAddr: 0x4FE20, symSize: 0x180 }
  - { offsetInCU: 0x21B75, offset: 0x1570CD, size: 0x8, addend: 0x0, symName: '__ZN3syn4item8printing78_$LT$impl$u20$quote..to_tokens..ToTokens$u20$for$u20$syn..item..ItemStruct$GT$9to_tokens17h8172cc7233ca8fbeE', symObjAddr: 0x1F780, symBinAddr: 0x4FFA0, symSize: 0x220 }
  - { offsetInCU: 0x21F5D, offset: 0x1574B5, size: 0x8, addend: 0x0, symName: '__ZN3syn4item8printing77_$LT$impl$u20$quote..to_tokens..ToTokens$u20$for$u20$syn..item..ItemUnion$GT$9to_tokens17h6c795ad402d2a166E', symObjAddr: 0x1F9A0, symBinAddr: 0x501C0, symSize: 0x180 }
  - { offsetInCU: 0x22268, offset: 0x1577C0, size: 0x8, addend: 0x0, symName: '__ZN3syn4item8printing77_$LT$impl$u20$quote..to_tokens..ToTokens$u20$for$u20$syn..item..ItemTrait$GT$9to_tokens17h8121c5f1327add6eE', symObjAddr: 0x1FB20, symBinAddr: 0x50340, symSize: 0x320 }
  - { offsetInCU: 0x22CB5, offset: 0x15820D, size: 0x8, addend: 0x0, symName: '__ZN3syn4item8printing82_$LT$impl$u20$quote..to_tokens..ToTokens$u20$for$u20$syn..item..ItemTraitAlias$GT$9to_tokens17hc5f43bf815c68949E', symObjAddr: 0x1FE40, symBinAddr: 0x50660, symSize: 0x330 }
  - { offsetInCU: 0x2358C, offset: 0x158AE4, size: 0x8, addend: 0x0, symName: '__ZN3syn4item8printing76_$LT$impl$u20$quote..to_tokens..ToTokens$u20$for$u20$syn..item..ItemImpl$GT$9to_tokens17h0c3a9ddae74c937dE', symObjAddr: 0x20170, symBinAddr: 0x50990, symSize: 0x340 }
  - { offsetInCU: 0x23DDB, offset: 0x159333, size: 0x8, addend: 0x0, symName: '__ZN3syn4item8printing77_$LT$impl$u20$quote..to_tokens..ToTokens$u20$for$u20$syn..item..ItemMacro$GT$9to_tokens17haec818905d80644fE', symObjAddr: 0x204B0, symBinAddr: 0x50CD0, symSize: 0x190 }
  - { offsetInCU: 0x2420F, offset: 0x159767, size: 0x8, addend: 0x0, symName: '__ZN3syn4item8printing82_$LT$impl$u20$quote..to_tokens..ToTokens$u20$for$u20$syn..item..TraitItemConst$GT$9to_tokens17h76e791416bf823d1E', symObjAddr: 0x20790, symBinAddr: 0x50E60, symSize: 0x1C0 }
  - { offsetInCU: 0x245A8, offset: 0x159B00, size: 0x8, addend: 0x0, symName: '__ZN3syn4item8printing81_$LT$impl$u20$quote..to_tokens..ToTokens$u20$for$u20$syn..item..TraitItemType$GT$9to_tokens17hbe42b3bab95c6768E', symObjAddr: 0x20AB0, symBinAddr: 0x51020, symSize: 0x240 }
  - { offsetInCU: 0x249EE, offset: 0x159F46, size: 0x8, addend: 0x0, symName: '__ZN3syn4item8printing81_$LT$impl$u20$quote..to_tokens..ToTokens$u20$for$u20$syn..item..ImplItemConst$GT$9to_tokens17hdd48b33068953141E', symObjAddr: 0x20CF0, symBinAddr: 0x51260, symSize: 0x240 }
  - { offsetInCU: 0x24EA6, offset: 0x15A3FE, size: 0x8, addend: 0x0, symName: '__ZN3syn4item8printing80_$LT$impl$u20$quote..to_tokens..ToTokens$u20$for$u20$syn..item..ImplItemType$GT$9to_tokens17hbce09990808c878cE', symObjAddr: 0x21090, symBinAddr: 0x514A0, symSize: 0x230 }
  - { offsetInCU: 0x25394, offset: 0x15A8EC, size: 0x8, addend: 0x0, symName: '__ZN3syn4item8printing85_$LT$impl$u20$quote..to_tokens..ToTokens$u20$for$u20$syn..item..ForeignItemStatic$GT$9to_tokens17h378f5a1dfc9fdf33E', symObjAddr: 0x214C0, symBinAddr: 0x516D0, symSize: 0x200 }
  - { offsetInCU: 0x2581E, offset: 0x15AD76, size: 0x8, addend: 0x0, symName: '__ZN3syn4item8printing83_$LT$impl$u20$quote..to_tokens..ToTokens$u20$for$u20$syn..item..ForeignItemType$GT$9to_tokens17h4ed6b28f8ddb36b2E', symObjAddr: 0x216C0, symBinAddr: 0x518D0, symSize: 0x190 }
  - { offsetInCU: 0x25B2B, offset: 0x15B083, size: 0x8, addend: 0x0, symName: '__ZN3syn4item8printing77_$LT$impl$u20$quote..to_tokens..ToTokens$u20$for$u20$syn..item..Signature$GT$9to_tokens17h487e336073ff52a3E', symObjAddr: 0x21850, symBinAddr: 0x51A60, symSize: 0x330 }
  - { offsetInCU: 0x26302, offset: 0x15B85A, size: 0x8, addend: 0x0, symName: '__ZN3syn4item8printing76_$LT$impl$u20$quote..to_tokens..ToTokens$u20$for$u20$syn..item..Receiver$GT$9to_tokens17h0593f180191f94a9E', symObjAddr: 0x21B80, symBinAddr: 0x51D90, symSize: 0x2E0 }
  - { offsetInCU: 0x26AB3, offset: 0x15C00B, size: 0x8, addend: 0x0, symName: '__ZN3syn4item8printing76_$LT$impl$u20$quote..to_tokens..ToTokens$u20$for$u20$syn..item..Variadic$GT$9to_tokens17h5d9696317f3ad996E', symObjAddr: 0x21E60, symBinAddr: 0x52070, symSize: 0x130 }
  - { offsetInCU: 0x26DCA, offset: 0x15C322, size: 0x8, addend: 0x0, symName: '__ZN62_$LT$syn..item..Item$u20$as$u20$quote..to_tokens..ToTokens$GT$9to_tokens17he7e69ecbc61b7b2cE', symObjAddr: 0x22010, symBinAddr: 0x521A0, symSize: 0x730 }
  - { offsetInCU: 0x27C44, offset: 0x15D19C, size: 0x8, addend: 0x0, symName: '__ZN65_$LT$syn..item..UseTree$u20$as$u20$quote..to_tokens..ToTokens$GT$9to_tokens17hee39f883784acb47E', symObjAddr: 0x22740, symBinAddr: 0x528D0, symSize: 0x310 }
  - { offsetInCU: 0x284FA, offset: 0x15DA52, size: 0x8, addend: 0x0, symName: '__ZN69_$LT$syn..item..ForeignItem$u20$as$u20$quote..to_tokens..ToTokens$GT$9to_tokens17hb7bfc5d782828218E', symObjAddr: 0x22A50, symBinAddr: 0x52BE0, symSize: 0x250 }
  - { offsetInCU: 0x2891F, offset: 0x15DE77, size: 0x8, addend: 0x0, symName: '__ZN67_$LT$syn..item..TraitItem$u20$as$u20$quote..to_tokens..ToTokens$GT$9to_tokens17h9010403c8466e854E', symObjAddr: 0x22CA0, symBinAddr: 0x52E30, symSize: 0x2B0 }
  - { offsetInCU: 0x28DB3, offset: 0x15E30B, size: 0x8, addend: 0x0, symName: '__ZN66_$LT$syn..item..ImplItem$u20$as$u20$quote..to_tokens..ToTokens$GT$9to_tokens17h9ce4fd01d680c33dE', symObjAddr: 0x22F50, symBinAddr: 0x530E0, symSize: 0x2E0 }
  - { offsetInCU: 0x2BB11, offset: 0x161069, size: 0x8, addend: 0x0, symName: '__ZN4core3ptr100drop_in_place$LT$core..option..Option$LT$alloc..boxed..Box$LT$syn..path..GenericArgument$GT$$GT$$GT$17h3a7c44b9e57fe410E', symObjAddr: 0x6C0, symBinAddr: 0x387C0, symSize: 0x50 }
  - { offsetInCU: 0x2BE33, offset: 0x16138B, size: 0x8, addend: 0x0, symName: '__ZN4core3ptr100drop_in_place$LT$syn..punctuated..Punctuated$LT$syn..path..PathSegment$C$syn..token..PathSep$GT$$GT$17he41ef64147139591E', symObjAddr: 0x710, symBinAddr: 0x38810, symSize: 0x2B0 }
  - { offsetInCU: 0x2C8E9, offset: 0x161E41, size: 0x8, addend: 0x0, symName: '__ZN4core3ptr103drop_in_place$LT$core..option..Option$LT$alloc..boxed..Box$LT$syn..generics..TypeParamBound$GT$$GT$$GT$17hb14e4384a768542bE', symObjAddr: 0x9C0, symBinAddr: 0x38AC0, symSize: 0x50 }
  - { offsetInCU: 0x2CB32, offset: 0x16208A, size: 0x8, addend: 0x0, symName: '__ZN4core3ptr103drop_in_place$LT$core..option..Option$LT$alloc..boxed..Box$LT$syn..generics..WherePredicate$GT$$GT$$GT$17he190813f4819c5dbE', symObjAddr: 0xA10, symBinAddr: 0x38B10, symSize: 0xD0 }
  - { offsetInCU: 0x2CEC6, offset: 0x16241E, size: 0x8, addend: 0x0, symName: '__ZN4core3ptr103drop_in_place$LT$syn..punctuated..Punctuated$LT$syn..generics..GenericParam$C$syn..token..Comma$GT$$GT$17h0c6077a988036760E', symObjAddr: 0xAE0, symBinAddr: 0x38BE0, symSize: 0xF0 }
  - { offsetInCU: 0x2D364, offset: 0x1628BC, size: 0x8, addend: 0x0, symName: '__ZN4core3ptr104drop_in_place$LT$syn..punctuated..Punctuated$LT$syn..generics..TypeParamBound$C$syn..token..Plus$GT$$GT$17h724e4d9d1d65061aE', symObjAddr: 0xBD0, symBinAddr: 0x38CD0, symSize: 0x190 }
  - { offsetInCU: 0x2D9A6, offset: 0x162EFE, size: 0x8, addend: 0x0, symName: '__ZN4core3ptr107drop_in_place$LT$$LP$syn..restriction..Visibility$C$core..option..Option$LT$syn..token..Default$GT$$RP$$GT$17h7dbdeb5ac6957065E', symObjAddr: 0xD60, symBinAddr: 0x38E60, symSize: 0x60 }
  - { offsetInCU: 0x2DB63, offset: 0x1630BB, size: 0x8, addend: 0x0, symName: '__ZN4core3ptr115drop_in_place$LT$core..option..Option$LT$$LP$alloc..boxed..Box$LT$syn..pat..Pat$GT$$C$syn..token..Colon$RP$$GT$$GT$17h787822396d5dcd7bE', symObjAddr: 0xDC0, symBinAddr: 0x38EC0, symSize: 0x50 }
  - { offsetInCU: 0x2DD35, offset: 0x16328D, size: 0x8, addend: 0x0, symName: '__ZN4core3ptr115drop_in_place$LT$core..option..Option$LT$$LP$syn..token..Brace$C$alloc..vec..Vec$LT$syn..item..Item$GT$$RP$$GT$$GT$17h4f61046186bbd7c9E', symObjAddr: 0xE10, symBinAddr: 0x38F10, symSize: 0xD0 }
  - { offsetInCU: 0x2E04C, offset: 0x1635A4, size: 0x8, addend: 0x0, symName: '__ZN4core3ptr126drop_in_place$LT$core..option..Option$LT$$LP$syn..token..And$C$core..option..Option$LT$syn..lifetime..Lifetime$GT$$RP$$GT$$GT$17h45c5d73e12cdf6f0E', symObjAddr: 0xEE0, symBinAddr: 0x38FE0, symSize: 0x30 }
  - { offsetInCU: 0x2E2FA, offset: 0x163852, size: 0x8, addend: 0x0, symName: '__ZN4core3ptr34drop_in_place$LT$syn..lit..Lit$GT$17hd64dde89a262341dE', symObjAddr: 0xF90, symBinAddr: 0x39010, symSize: 0x120 }
  - { offsetInCU: 0x2E7C9, offset: 0x163D21, size: 0x8, addend: 0x0, symName: '__ZN4core3ptr34drop_in_place$LT$syn..pat..Pat$GT$17hf88887878261d63cE', symObjAddr: 0x10B0, symBinAddr: 0x39130, symSize: 0x1100 }
  - { offsetInCU: 0x32DA7, offset: 0x1682FF, size: 0x8, addend: 0x0, symName: '__ZN4core3ptr34drop_in_place$LT$syn..ty..Type$GT$17ha80dd29b0f9d4a3fE', symObjAddr: 0x21B0, symBinAddr: 0x3A230, symSize: 0x510 }
  - { offsetInCU: 0x3441F, offset: 0x169977, size: 0x8, addend: 0x0, symName: '__ZN4core3ptr36drop_in_place$LT$syn..expr..Expr$GT$17h10f573b40ddd212cE', symObjAddr: 0x26C0, symBinAddr: 0x3A740, symSize: 0x2840 }
  - { offsetInCU: 0x3E93A, offset: 0x173E92, size: 0x8, addend: 0x0, symName: '__ZN4core3ptr36drop_in_place$LT$syn..item..Item$GT$17haa59cf9e39ab8cebE', symObjAddr: 0x4F00, symBinAddr: 0x3CF80, symSize: 0x1940 }
  - { offsetInCU: 0x44CFD, offset: 0x17A255, size: 0x8, addend: 0x0, symName: '__ZN4core3ptr36drop_in_place$LT$syn..mac..Macro$GT$17hc3b30a7a8a34cc2dE', symObjAddr: 0x6840, symBinAddr: 0x3E8C0, symSize: 0x40 }
  - { offsetInCU: 0x44D37, offset: 0x17A28F, size: 0x8, addend: 0x0, symName: '__ZN4core3ptr36drop_in_place$LT$syn..path..Path$GT$17h75c74a97d5f0a03bE', symObjAddr: 0x6880, symBinAddr: 0x3E900, symSize: 0x280 }
  - { offsetInCU: 0x457E4, offset: 0x17AD3C, size: 0x8, addend: 0x0, symName: '__ZN4core3ptr37drop_in_place$LT$syn..stmt..Block$GT$17h6fc3254d5688f2c3E', symObjAddr: 0x6B00, symBinAddr: 0x3EB80, symSize: 0xD0 }
  - { offsetInCU: 0x45ADA, offset: 0x17B032, size: 0x8, addend: 0x0, symName: '__ZN4core3ptr38drop_in_place$LT$syn..data..Fields$GT$17h79840861dd1f691dE', symObjAddr: 0x6BD0, symBinAddr: 0x3EC50, symSize: 0x190 }
  - { offsetInCU: 0x45F24, offset: 0x17B47C, size: 0x8, addend: 0x0, symName: '__ZN4core3ptr38drop_in_place$LT$syn..expr..Member$GT$17h6b0cf84594ce6bceE', symObjAddr: 0x6D60, symBinAddr: 0x3EDE0, symSize: 0x30 }
  - { offsetInCU: 0x46020, offset: 0x17B578, size: 0x8, addend: 0x0, symName: '__ZN4core3ptr38drop_in_place$LT$syn..pat..PatType$GT$17h835dce85ba90235eE.llvm.18308377727791997679', symObjAddr: 0x6D90, symBinAddr: 0x3EE10, symSize: 0x140 }
  - { offsetInCU: 0x465CB, offset: 0x17BB23, size: 0x8, addend: 0x0, symName: '__ZN4core3ptr39drop_in_place$LT$proc_macro2..Ident$GT$17ha28fef9769e267d9E', symObjAddr: 0x6ED0, symBinAddr: 0x3EF50, symSize: 0x30 }
  - { offsetInCU: 0x46724, offset: 0x17BC7C, size: 0x8, addend: 0x0, symName: '__ZN4core3ptr39drop_in_place$LT$syn..item..UseTree$GT$17h7288572c631f954aE', symObjAddr: 0x6F70, symBinAddr: 0x3EF80, symSize: 0xE0 }
  - { offsetInCU: 0x46B28, offset: 0x17C080, size: 0x8, addend: 0x0, symName: '__ZN4core3ptr40drop_in_place$LT$syn..item..ImplItem$GT$17h98907b2080b0ccb0E', symObjAddr: 0x7050, symBinAddr: 0x3F060, symSize: 0x4D0 }
  - { offsetInCU: 0x4795C, offset: 0x17CEB4, size: 0x8, addend: 0x0, symName: '__ZN4core3ptr40drop_in_place$LT$syn..item..Receiver$GT$17h5e68a437c3b8e574E.llvm.18308377727791997679', symObjAddr: 0x7520, symBinAddr: 0x3F530, symSize: 0x130 }
  - { offsetInCU: 0x47F47, offset: 0x17D49F, size: 0x8, addend: 0x0, symName: '__ZN4core3ptr40drop_in_place$LT$syn..item..Variadic$GT$17hf9d4ebdb0f5e723aE', symObjAddr: 0x7660, symBinAddr: 0x3F660, symSize: 0x120 }
  - { offsetInCU: 0x483CC, offset: 0x17D924, size: 0x8, addend: 0x0, symName: '__ZN4core3ptr40drop_in_place$LT$syn..ty..ReturnType$GT$17h035a612e322b6510E', symObjAddr: 0x7780, symBinAddr: 0x3F780, symSize: 0x50 }
  - { offsetInCU: 0x4853C, offset: 0x17DA94, size: 0x8, addend: 0x0, symName: '__ZN4core3ptr41drop_in_place$LT$syn..expr..ExprConst$GT$17hbfe19d5d621e6836E', symObjAddr: 0x77D0, symBinAddr: 0x3F7D0, symSize: 0x180 }
  - { offsetInCU: 0x48B48, offset: 0x17E0A0, size: 0x8, addend: 0x0, symName: '__ZN4core3ptr41drop_in_place$LT$syn..item..Signature$GT$17h41f785211ad8eb02E', symObjAddr: 0x7950, symBinAddr: 0x3F950, symSize: 0x180 }
  - { offsetInCU: 0x49238, offset: 0x17E790, size: 0x8, addend: 0x0, symName: '__ZN4core3ptr41drop_in_place$LT$syn..item..TraitItem$GT$17hc74edaa948c160a2E', symObjAddr: 0x7AD0, symBinAddr: 0x3FAD0, symSize: 0x5F0 }
  - { offsetInCU: 0x4A428, offset: 0x17F980, size: 0x8, addend: 0x0, symName: '__ZN4core3ptr42drop_in_place$LT$syn..item..ImplItemFn$GT$17haf8f89161f0a8aa1E', symObjAddr: 0x8110, symBinAddr: 0x400C0, symSize: 0x200 }
  - { offsetInCU: 0x4AB90, offset: 0x1800E8, size: 0x8, addend: 0x0, symName: '__ZN4core3ptr43drop_in_place$LT$syn..data..FieldsNamed$GT$17h56bef6f151514865E', symObjAddr: 0x8310, symBinAddr: 0x402C0, symSize: 0xE0 }
  - { offsetInCU: 0x4AF32, offset: 0x18048A, size: 0x8, addend: 0x0, symName: '__ZN4core3ptr43drop_in_place$LT$syn..item..ForeignItem$GT$17h8033abfc56dac52fE', symObjAddr: 0x83F0, symBinAddr: 0x403A0, symSize: 0x520 }
  - { offsetInCU: 0x4C2DE, offset: 0x181836, size: 0x8, addend: 0x0, symName: '__ZN4core3ptr44drop_in_place$LT$syn..generics..Generics$GT$17h671de917167f8b66E', symObjAddr: 0x8910, symBinAddr: 0x408C0, symSize: 0x40 }
  - { offsetInCU: 0x4C2FB, offset: 0x181853, size: 0x8, addend: 0x0, symName: '__ZN4core3ptr44drop_in_place$LT$syn..lifetime..Lifetime$GT$17he37fa474f03de7b1E', symObjAddr: 0x8950, symBinAddr: 0x40900, symSize: 0x30 }
  - { offsetInCU: 0x4C473, offset: 0x1819CB, size: 0x8, addend: 0x0, symName: '__ZN4core3ptr44drop_in_place$LT$syn..parse..ParseBuffer$GT$17hf792ff20095efc35E.llvm.18308377727791997679', symObjAddr: 0x8980, symBinAddr: 0x40930, symSize: 0x70 }
  - { offsetInCU: 0x4C88A, offset: 0x181DE2, size: 0x8, addend: 0x0, symName: '__ZN4core3ptr45drop_in_place$LT$proc_macro2..TokenStream$GT$17h76e8e68015f4924dE', symObjAddr: 0x89F0, symBinAddr: 0x409A0, symSize: 0x140 }
  - { offsetInCU: 0x4CD24, offset: 0x18227C, size: 0x8, addend: 0x0, symName: '__ZN4core3ptr45drop_in_place$LT$syn..generics..TypeParam$GT$17h188a459c1380ac75E', symObjAddr: 0x8B30, symBinAddr: 0x40AE0, symSize: 0x230 }
  - { offsetInCU: 0x4D599, offset: 0x182AF1, size: 0x8, addend: 0x0, symName: '__ZN4core3ptr46drop_in_place$LT$syn..generics..ConstParam$GT$17h7a9b900b2b88bfcdE', symObjAddr: 0x8D60, symBinAddr: 0x40D10, symSize: 0x150 }
  - { offsetInCU: 0x4DA1A, offset: 0x182F72, size: 0x8, addend: 0x0, symName: '__ZN4core3ptr47drop_in_place$LT$syn..path..GenericArgument$GT$17h593f06d6ca9a94d2E', symObjAddr: 0x8EB0, symBinAddr: 0x40E60, symSize: 0x4A0 }
  - { offsetInCU: 0x4EB20, offset: 0x184078, size: 0x8, addend: 0x0, symName: '__ZN4core3ptr49drop_in_place$LT$syn..generics..LifetimeParam$GT$17h3a8835ab294bfd16E', symObjAddr: 0x9350, symBinAddr: 0x41300, symSize: 0xF0 }
  - { offsetInCU: 0x4EF37, offset: 0x18448F, size: 0x8, addend: 0x0, symName: '__ZN4core3ptr49drop_in_place$LT$syn..restriction..Visibility$GT$17h3e52b998838defb1E', symObjAddr: 0x9440, symBinAddr: 0x413F0, symSize: 0x60 }
  - { offsetInCU: 0x4F0AC, offset: 0x184604, size: 0x8, addend: 0x0, symName: '__ZN4core3ptr50drop_in_place$LT$syn..generics..TypeParamBound$GT$17h81b4325b5900604dE', symObjAddr: 0x94A0, symBinAddr: 0x41450, symSize: 0x1C0 }
  - { offsetInCU: 0x4F628, offset: 0x184B80, size: 0x8, addend: 0x0, symName: '__ZN4core3ptr58drop_in_place$LT$alloc..vec..Vec$LT$syn..expr..Arm$GT$$GT$17hff9224aadf2233b8E', symObjAddr: 0x96A0, symBinAddr: 0x41610, symSize: 0xD0 }
  - { offsetInCU: 0x4F8E8, offset: 0x184E40, size: 0x8, addend: 0x0, symName: '__ZN4core3ptr59drop_in_place$LT$alloc..boxed..Box$LT$syn..pat..Pat$GT$$GT$17h622b0c1db21c0742E', symObjAddr: 0x9770, symBinAddr: 0x416E0, symSize: 0x50 }
  - { offsetInCU: 0x4FA41, offset: 0x184F99, size: 0x8, addend: 0x0, symName: '__ZN4core3ptr59drop_in_place$LT$alloc..boxed..Box$LT$syn..ty..Type$GT$$GT$17hde45fa887dd8b605E', symObjAddr: 0x97C0, symBinAddr: 0x41730, symSize: 0x50 }
  - { offsetInCU: 0x4FB9A, offset: 0x1850F2, size: 0x8, addend: 0x0, symName: '__ZN4core3ptr59drop_in_place$LT$alloc..vec..Vec$LT$syn..item..Item$GT$$GT$17h8590e8c8e196c3c2E', symObjAddr: 0x9810, symBinAddr: 0x41780, symSize: 0xD0 }
  - { offsetInCU: 0x4FE5A, offset: 0x1853B2, size: 0x8, addend: 0x0, symName: '__ZN4core3ptr59drop_in_place$LT$alloc..vec..Vec$LT$syn..stmt..Stmt$GT$$GT$17h6cf3e54f41bc03bdE', symObjAddr: 0x98E0, symBinAddr: 0x41850, symSize: 0xD0 }
  - { offsetInCU: 0x5011A, offset: 0x185672, size: 0x8, addend: 0x0, symName: '__ZN4core3ptr61drop_in_place$LT$alloc..boxed..Box$LT$syn..expr..Expr$GT$$GT$17hbb42293869113942E', symObjAddr: 0x99B0, symBinAddr: 0x41920, symSize: 0x50 }
  - { offsetInCU: 0x502EF, offset: 0x185847, size: 0x8, addend: 0x0, symName: '__ZN4core3ptr61drop_in_place$LT$syn..path..ParenthesizedGenericArguments$GT$17h6b1731382637937fE', symObjAddr: 0x9A70, symBinAddr: 0x41970, symSize: 0x170 }
  - { offsetInCU: 0x508E5, offset: 0x185E3D, size: 0x8, addend: 0x0, symName: '__ZN4core3ptr62drop_in_place$LT$alloc..boxed..Box$LT$syn..stmt..Block$GT$$GT$17h21dcb5adf0237a12E', symObjAddr: 0x9BE0, symBinAddr: 0x41AE0, symSize: 0xE0 }
  - { offsetInCU: 0x50CF7, offset: 0x18624F, size: 0x8, addend: 0x0, symName: '__ZN4core3ptr62drop_in_place$LT$syn..path..AngleBracketedGenericArguments$GT$17hf8fa172f007a1473E', symObjAddr: 0x9CC0, symBinAddr: 0x41BC0, symSize: 0x120 }
  - { offsetInCU: 0x51142, offset: 0x18669A, size: 0x8, addend: 0x0, symName: '__ZN4core3ptr63drop_in_place$LT$alloc..boxed..Box$LT$syn..lit..LitRepr$GT$$GT$17h6e3a82ea4de7b84cE', symObjAddr: 0x9DE0, symBinAddr: 0x41CE0, symSize: 0x60 }
  - { offsetInCU: 0x5140B, offset: 0x186963, size: 0x8, addend: 0x0, symName: '__ZN4core3ptr63drop_in_place$LT$alloc..vec..Vec$LT$syn..item..ImplItem$GT$$GT$17hc51fca07e67d35aeE', symObjAddr: 0x9E40, symBinAddr: 0x41D40, symSize: 0x80 }
  - { offsetInCU: 0x516E2, offset: 0x186C3A, size: 0x8, addend: 0x0, symName: '__ZN4core3ptr64drop_in_place$LT$alloc..boxed..Box$LT$syn..item..UseTree$GT$$GT$17he4d7024582150632E', symObjAddr: 0x9EC0, symBinAddr: 0x41DC0, symSize: 0xF0 }
  - { offsetInCU: 0x51BFD, offset: 0x187155, size: 0x8, addend: 0x0, symName: '__ZN4core3ptr64drop_in_place$LT$alloc..boxed..Box$LT$syn..pat..FieldPat$GT$$GT$17hbf8f4867d84bd25dE', symObjAddr: 0x9FB0, symBinAddr: 0x41EB0, symSize: 0x140 }
  - { offsetInCU: 0x522FE, offset: 0x187856, size: 0x8, addend: 0x0, symName: '__ZN4core3ptr64drop_in_place$LT$alloc..boxed..Box$LT$syn..ty..BareFnArg$GT$$GT$17h6be6354eb1d1364dE', symObjAddr: 0xA0F0, symBinAddr: 0x41FF0, symSize: 0x140 }
  - { offsetInCU: 0x52887, offset: 0x187DDF, size: 0x8, addend: 0x0, symName: '__ZN4core3ptr64drop_in_place$LT$alloc..vec..Vec$LT$syn..attr..Attribute$GT$$GT$17he33e25539d5885aeE', symObjAddr: 0xA230, symBinAddr: 0x42130, symSize: 0xD0 }
  - { offsetInCU: 0x52B7B, offset: 0x1880D3, size: 0x8, addend: 0x0, symName: '__ZN4core3ptr64drop_in_place$LT$alloc..vec..Vec$LT$syn..item..TraitItem$GT$$GT$17hff1cc01ccae80d7aE', symObjAddr: 0xA300, symBinAddr: 0x42200, symSize: 0x80 }
  - { offsetInCU: 0x52E33, offset: 0x18838B, size: 0x8, addend: 0x0, symName: '__ZN4core3ptr65drop_in_place$LT$alloc..vec..Vec$LT$proc_macro..TokenTree$GT$$GT$17h8abd81f8596dbc59E', symObjAddr: 0xA380, symBinAddr: 0x42280, symSize: 0x110 }
  - { offsetInCU: 0x5322B, offset: 0x188783, size: 0x8, addend: 0x0, symName: '__ZN4core3ptr65drop_in_place$LT$core..option..Option$LT$syn..expr..Label$GT$$GT$17hac599686b33ef364E', symObjAddr: 0xA490, symBinAddr: 0x42390, symSize: 0x30 }
  - { offsetInCU: 0x53365, offset: 0x1888BD, size: 0x8, addend: 0x0, symName: '__ZN4core3ptr65drop_in_place$LT$core..option..Option$LT$syn..stmt..Block$GT$$GT$17h74f2551ed24e2d27E', symObjAddr: 0xA4C0, symBinAddr: 0x423C0, symSize: 0xD0 }
  - { offsetInCU: 0x5363A, offset: 0x188B92, size: 0x8, addend: 0x0, symName: '__ZN4core3ptr66drop_in_place$LT$alloc..vec..Vec$LT$syn..item..ForeignItem$GT$$GT$17h1f176e04eaf5e0dfE', symObjAddr: 0xA590, symBinAddr: 0x42490, symSize: 0x80 }
  - { offsetInCU: 0x538F2, offset: 0x188E4A, size: 0x8, addend: 0x0, symName: '__ZN4core3ptr66drop_in_place$LT$core..option..Option$LT$syn..pat..PatRest$GT$$GT$17hd5bb3bc28aa78ac1E', symObjAddr: 0xA610, symBinAddr: 0x42510, symSize: 0xE0 }
  - { offsetInCU: 0x53C1A, offset: 0x189172, size: 0x8, addend: 0x0, symName: '__ZN4core3ptr67drop_in_place$LT$alloc..boxed..Box$LT$syn..expr..FieldValue$GT$$GT$17hbbcf67a9d5e9863cE', symObjAddr: 0xA6F0, symBinAddr: 0x425F0, symSize: 0x140 }
  - { offsetInCU: 0x54183, offset: 0x1896DB, size: 0x8, addend: 0x0, symName: '__ZN4core3ptr67drop_in_place$LT$core..option..Option$LT$proc_macro2..Ident$GT$$GT$17h430b2bec25099623E', symObjAddr: 0xA830, symBinAddr: 0x42730, symSize: 0x30 }
  - { offsetInCU: 0x5427F, offset: 0x1897D7, size: 0x8, addend: 0x0, symName: '__ZN4core3ptr68drop_in_place$LT$alloc..boxed..Box$LT$syn..path..PathSegment$GT$$GT$17h99aaf90b3262bc1eE', symObjAddr: 0xA860, symBinAddr: 0x42760, symSize: 0x1B0 }
  - { offsetInCU: 0x5498D, offset: 0x189EE5, size: 0x8, addend: 0x0, symName: '__ZN4core3ptr70drop_in_place$LT$core..option..Option$LT$syn..ty..BareVariadic$GT$$GT$17h79a19250e9f043b1E', symObjAddr: 0xAA30, symBinAddr: 0x42910, symSize: 0x100 }
  - { offsetInCU: 0x54DF8, offset: 0x18A350, size: 0x8, addend: 0x0, symName: '__ZN4core3ptr72drop_in_place$LT$alloc..boxed..Box$LT$syn..path..GenericArgument$GT$$GT$17hfd308d374af4273dE', symObjAddr: 0xAB30, symBinAddr: 0x42A10, symSize: 0x1D0 }
  - { offsetInCU: 0x55393, offset: 0x18A8EB, size: 0x8, addend: 0x0, symName: '__ZN4core3ptr72drop_in_place$LT$core..option..Option$LT$syn..lifetime..Lifetime$GT$$GT$17h49cce6f02f9c0590E', symObjAddr: 0xAD00, symBinAddr: 0x42BE0, symSize: 0x30 }
  - { offsetInCU: 0x554AE, offset: 0x18AA06, size: 0x8, addend: 0x0, symName: '__ZN4core3ptr73drop_in_place$LT$alloc..boxed..Box$LT$syn..generics..GenericParam$GT$$GT$17ha26d5d145af4b203E', symObjAddr: 0xAD30, symBinAddr: 0x42C10, symSize: 0x80 }
  - { offsetInCU: 0x55624, offset: 0x18AB7C, size: 0x8, addend: 0x0, symName: '__ZN4core3ptr75drop_in_place$LT$alloc..boxed..Box$LT$syn..generics..TypeParamBound$GT$$GT$17h129a4e927e5eb81bE', symObjAddr: 0xADB0, symBinAddr: 0x42C90, symSize: 0xC0 }
  - { offsetInCU: 0x55997, offset: 0x18AEEF, size: 0x8, addend: 0x0, symName: '__ZN4core3ptr75drop_in_place$LT$core..option..Option$LT$syn..generics..WhereClause$GT$$GT$17haaf63f327098cdccE', symObjAddr: 0xAE70, symBinAddr: 0x42D50, symSize: 0x90 }
  - { offsetInCU: 0x55C8B, offset: 0x18B1E3, size: 0x8, addend: 0x0, symName: '__ZN4core3ptr86drop_in_place$LT$syn..punctuated..Punctuated$LT$syn..pat..Pat$C$syn..token..Or$GT$$GT$17h9cc6b5f7b6d3a555E', symObjAddr: 0xAF00, symBinAddr: 0x42DE0, symSize: 0x120 }
  - { offsetInCU: 0x56106, offset: 0x18B65E, size: 0x8, addend: 0x0, symName: '__ZN4core3ptr87drop_in_place$LT$core..option..Option$LT$alloc..boxed..Box$LT$syn..pat..Pat$GT$$GT$$GT$17h51cd48973d96c411E', symObjAddr: 0xB040, symBinAddr: 0x42F00, symSize: 0x50 }
  - { offsetInCU: 0x56276, offset: 0x18B7CE, size: 0x8, addend: 0x0, symName: '__ZN4core3ptr87drop_in_place$LT$core..option..Option$LT$alloc..boxed..Box$LT$syn..ty..Type$GT$$GT$$GT$17h103a25a4a7d7374eE', symObjAddr: 0xB090, symBinAddr: 0x42F50, symSize: 0x50 }
  - { offsetInCU: 0x563E6, offset: 0x18B93E, size: 0x8, addend: 0x0, symName: '__ZN4core3ptr89drop_in_place$LT$core..option..Option$LT$alloc..boxed..Box$LT$syn..expr..Expr$GT$$GT$$GT$17h9e02509cb2345d44E', symObjAddr: 0xB100, symBinAddr: 0x42FA0, symSize: 0x50 }
  - { offsetInCU: 0x56594, offset: 0x18BAEC, size: 0x8, addend: 0x0, symName: '__ZN4core3ptr89drop_in_place$LT$syn..punctuated..Punctuated$LT$syn..pat..Pat$C$syn..token..Comma$GT$$GT$17hd3a83c36827f210aE', symObjAddr: 0xB150, symBinAddr: 0x42FF0, symSize: 0x120 }
  - { offsetInCU: 0x56A26, offset: 0x18BF7E, size: 0x8, addend: 0x0, symName: '__ZN4core3ptr89drop_in_place$LT$syn..punctuated..Punctuated$LT$syn..ty..Type$C$syn..token..Comma$GT$$GT$17he030c4b7f24a5848E', symObjAddr: 0xB270, symBinAddr: 0x43110, symSize: 0x120 }
  - { offsetInCU: 0x56EDF, offset: 0x18C437, size: 0x8, addend: 0x0, symName: '__ZN4core3ptr90drop_in_place$LT$core..option..Option$LT$alloc..boxed..Box$LT$syn..data..Field$GT$$GT$$GT$17h9f1aee8cd56c6727E', symObjAddr: 0xB390, symBinAddr: 0x43230, symSize: 0x1B0 }
  - { offsetInCU: 0x575DA, offset: 0x18CB32, size: 0x8, addend: 0x0, symName: '__ZN4core3ptr90drop_in_place$LT$core..option..Option$LT$alloc..boxed..Box$LT$syn..item..FnArg$GT$$GT$$GT$17h8635495a730dc0bfE', symObjAddr: 0xB540, symBinAddr: 0x433E0, symSize: 0x70 }
  - { offsetInCU: 0x57754, offset: 0x18CCAC, size: 0x8, addend: 0x0, symName: '__ZN4core3ptr90drop_in_place$LT$core..option..Option$LT$syn..path..AngleBracketedGenericArguments$GT$$GT$17ha307713a95a0671eE', symObjAddr: 0xB5B0, symBinAddr: 0x43450, symSize: 0x130 }
  - { offsetInCU: 0x57BF6, offset: 0x18D14E, size: 0x8, addend: 0x0, symName: '__ZN4core3ptr91drop_in_place$LT$syn..punctuated..Punctuated$LT$syn..expr..Expr$C$syn..token..Comma$GT$$GT$17h6f261e8f470c81f2E', symObjAddr: 0xB6E0, symBinAddr: 0x43580, symSize: 0x120 }
  - { offsetInCU: 0x58084, offset: 0x18D5DC, size: 0x8, addend: 0x0, symName: '__ZN4core3ptr92drop_in_place$LT$core..option..Option$LT$$LP$syn..token..As$C$proc_macro2..Ident$RP$$GT$$GT$17h12a88945917fa9dbE', symObjAddr: 0xB800, symBinAddr: 0x436A0, symSize: 0x30 }
  - { offsetInCU: 0x581DD, offset: 0x18D735, size: 0x8, addend: 0x0, symName: '__ZN4core3ptr92drop_in_place$LT$core..option..Option$LT$alloc..boxed..Box$LT$syn..data..Variant$GT$$GT$$GT$17hb65f9b5d99f448afE', symObjAddr: 0xB830, symBinAddr: 0x436D0, symSize: 0x170 }
  - { offsetInCU: 0x58809, offset: 0x18DD61, size: 0x8, addend: 0x0, symName: '__ZN4core3ptr92drop_in_place$LT$syn..punctuated..Punctuated$LT$syn..item..FnArg$C$syn..token..Comma$GT$$GT$17h7de33e77eabaea82E', symObjAddr: 0xB9A0, symBinAddr: 0x43840, symSize: 0x140 }
  - { offsetInCU: 0x58C86, offset: 0x18E1DE, size: 0x8, addend: 0x0, symName: '__ZN4core3ptr94drop_in_place$LT$syn..punctuated..Punctuated$LT$syn..data..Variant$C$syn..token..Comma$GT$$GT$17h310cd79aba4529ccE', symObjAddr: 0xBAE0, symBinAddr: 0x43980, symSize: 0xE0 }
  - { offsetInCU: 0x58FE6, offset: 0x18E53E, size: 0x8, addend: 0x0, symName: '__ZN4core3ptr94drop_in_place$LT$syn..punctuated..Punctuated$LT$syn..item..UseTree$C$syn..token..Comma$GT$$GT$17h6236871345889df7E', symObjAddr: 0xBBC0, symBinAddr: 0x43A60, symSize: 0xF0 }
  - { offsetInCU: 0x5932C, offset: 0x18E884, size: 0x8, addend: 0x0, symName: '__ZN4core3ptr94drop_in_place$LT$syn..punctuated..Punctuated$LT$syn..pat..FieldPat$C$syn..token..Comma$GT$$GT$17h43ec25af986ef674E', symObjAddr: 0xBCB0, symBinAddr: 0x43B50, symSize: 0xF0 }
  - { offsetInCU: 0x5962B, offset: 0x18EB83, size: 0x8, addend: 0x0, symName: '__ZN4core3ptr94drop_in_place$LT$syn..punctuated..Punctuated$LT$syn..ty..BareFnArg$C$syn..token..Comma$GT$$GT$17h7ba4c699ee390ebaE', symObjAddr: 0xBDA0, symBinAddr: 0x43C40, symSize: 0xF0 }
  - { offsetInCU: 0x5992C, offset: 0x18EE84, size: 0x8, addend: 0x0, symName: '__ZN4core3ptr96drop_in_place$LT$core..option..Option$LT$alloc..boxed..Box$LT$syn..path..PathSegment$GT$$GT$$GT$17h5de12a5a0f9e9ef9E', symObjAddr: 0xBE90, symBinAddr: 0x43D30, symSize: 0xA0 }
  - { offsetInCU: 0x59BAB, offset: 0x18F103, size: 0x8, addend: 0x0, symName: '__ZN4core3ptr97drop_in_place$LT$syn..punctuated..Punctuated$LT$syn..expr..FieldValue$C$syn..token..Comma$GT$$GT$17hf58d0a9a09266ab3E', symObjAddr: 0xBF30, symBinAddr: 0x43DD0, symSize: 0xF0 }
  - { offsetInCU: 0x59EA8, offset: 0x18F400, size: 0x8, addend: 0x0, symName: '__ZN4core3ptr98drop_in_place$LT$alloc..vec..Vec$LT$$LP$syn..path..GenericArgument$C$syn..token..Comma$RP$$GT$$GT$17h0dee282a026d5a38E', symObjAddr: 0xC020, symBinAddr: 0x43EC0, symSize: 0xD0 }
  - { offsetInCU: 0x5A1E8, offset: 0x18F740, size: 0x8, addend: 0x0, symName: '__ZN4core3ptr98drop_in_place$LT$syn..punctuated..Punctuated$LT$syn..lifetime..Lifetime$C$syn..token..Plus$GT$$GT$17h600c2b78f78fd2b9E', symObjAddr: 0xC0F0, symBinAddr: 0x43F90, symSize: 0xD0 }
  - { offsetInCU: 0x669FC, offset: 0x19BF54, size: 0x8, addend: 0x0, symName: '__ZN5alloc3vec16Vec$LT$T$C$A$GT$15append_elements17h17d0f6dcdaba10bcE', symObjAddr: 0xC230, symBinAddr: 0x44060, symSize: 0x70 }
  - { offsetInCU: 0x66C52, offset: 0x19C1AA, size: 0x8, addend: 0x0, symName: __ZN3syn4item4Item13replace_attrs17h0529b41fa0d8dba2E, symObjAddr: 0xCB80, symBinAddr: 0x440D0, symSize: 0x190 }
  - { offsetInCU: 0x1E, offset: 0x1A92BF, size: 0x8, addend: 0x0, symName: '__ZN4core3ptr100drop_in_place$LT$alloc..vec..Vec$LT$$LP$syn..generics..TypeParamBound$C$syn..token..Plus$RP$$GT$$GT$17hea181150e4b37806E.llvm.991277207215265740', symObjAddr: 0x0, symBinAddr: 0x533C0, symSize: 0xD0 }
  - { offsetInCU: 0x13AF, offset: 0x1AA650, size: 0x8, addend: 0x0, symName: '__ZN100_$LT$syn..punctuated..PrivateIter$LT$T$C$P$GT$$u20$as$u20$core..iter..traits..iterator..Iterator$GT$4next17h63cbef55dd3a9f53E.llvm.991277207215265740', symObjAddr: 0x10430, symBinAddr: 0x5E420, symSize: 0x30 }
  - { offsetInCU: 0x163C, offset: 0x1AA8DD, size: 0x8, addend: 0x0, symName: '__ZN100_$LT$syn..punctuated..PrivateIter$LT$T$C$P$GT$$u20$as$u20$core..iter..traits..iterator..Iterator$GT$4next17h6b4639ca1419e80fE.llvm.991277207215265740', symObjAddr: 0x10460, symBinAddr: 0x5E450, symSize: 0x30 }
  - { offsetInCU: 0x1EAB, offset: 0x1AB14C, size: 0x8, addend: 0x0, symName: '__ZN138_$LT$syn..punctuated..Punctuated$LT$T$C$P$GT$$u20$as$u20$core..iter..traits..collect..Extend$LT$syn..punctuated..Pair$LT$T$C$P$GT$$GT$$GT$6extend17hd3a7828e12a2fa09E', symObjAddr: 0xF2D0, symBinAddr: 0x5DDC0, symSize: 0x3A0 }
  - { offsetInCU: 0x2401, offset: 0x1AB6A2, size: 0x8, addend: 0x0, symName: '__ZN102_$LT$syn..punctuated..Punctuated$LT$T$C$P$GT$$u20$as$u20$core..iter..traits..collect..IntoIterator$GT$9into_iter17h9fd0831bc615f074E', symObjAddr: 0xF940, symBinAddr: 0x5E160, symSize: 0x2C0 }
  - { offsetInCU: 0x3A74, offset: 0x1ACD15, size: 0x8, addend: 0x0, symName: '__ZN97_$LT$syn..punctuated..Punctuated$LT$T$C$P$GT$$u20$as$u20$core..ops..index..Index$LT$usize$GT$$GT$5index17h20cbc4df05d7c9eaE', symObjAddr: 0x10780, symBinAddr: 0x5E480, symSize: 0x50 }
  - { offsetInCU: 0x3C1E, offset: 0x1ACEBF, size: 0x8, addend: 0x0, symName: '__ZN3syn10punctuated8printing91_$LT$impl$u20$quote..to_tokens..ToTokens$u20$for$u20$syn..punctuated..Pair$LT$T$C$P$GT$$GT$9to_tokens17h6dc2c5660e354e29E', symObjAddr: 0x110C0, symBinAddr: 0x5E7A0, symSize: 0xD0 }
  - { offsetInCU: 0x3DE8, offset: 0x1AD089, size: 0x8, addend: 0x0, symName: '__ZN3syn10punctuated8printing91_$LT$impl$u20$quote..to_tokens..ToTokens$u20$for$u20$syn..punctuated..Pair$LT$T$C$P$GT$$GT$9to_tokens17hc2518142b17a3489E', symObjAddr: 0x11360, symBinAddr: 0x5E870, symSize: 0xF3 }
  - { offsetInCU: 0x3FD1, offset: 0x1AD272, size: 0x8, addend: 0x0, symName: '__ZN3syn10punctuated8printing97_$LT$impl$u20$quote..to_tokens..ToTokens$u20$for$u20$syn..punctuated..Punctuated$LT$T$C$P$GT$$GT$9to_tokens17h060d1d80f541d446E', symObjAddr: 0x10820, symBinAddr: 0x5E4D0, symSize: 0x150 }
  - { offsetInCU: 0x4517, offset: 0x1AD7B8, size: 0x8, addend: 0x0, symName: '__ZN3syn10punctuated8printing97_$LT$impl$u20$quote..to_tokens..ToTokens$u20$for$u20$syn..punctuated..Punctuated$LT$T$C$P$GT$$GT$9to_tokens17h7327b9d2fa65c2baE', symObjAddr: 0x10B90, symBinAddr: 0x5E620, symSize: 0x180 }
  - { offsetInCU: 0xB914, offset: 0x1B4BB5, size: 0x8, addend: 0x0, symName: '__ZN4core3ptr100drop_in_place$LT$alloc..vec..Vec$LT$$LP$syn..generics..TypeParamBound$C$syn..token..Plus$RP$$GT$$GT$17hea181150e4b37806E.llvm.991277207215265740', symObjAddr: 0x0, symBinAddr: 0x533C0, symSize: 0xD0 }
  - { offsetInCU: 0xBBF3, offset: 0x1B4E94, size: 0x8, addend: 0x0, symName: '__ZN4core3ptr100drop_in_place$LT$core..option..Option$LT$alloc..boxed..Box$LT$syn..path..GenericArgument$GT$$GT$$GT$17h3a7c44b9e57fe410E.llvm.991277207215265740', symObjAddr: 0xD0, symBinAddr: 0x53490, symSize: 0x50 }
  - { offsetInCU: 0xBDDF, offset: 0x1B5080, size: 0x8, addend: 0x0, symName: '__ZN4core3ptr100drop_in_place$LT$syn..punctuated..Punctuated$LT$syn..path..PathSegment$C$syn..token..PathSep$GT$$GT$17he41ef64147139591E', symObjAddr: 0x120, symBinAddr: 0x534E0, symSize: 0x150 }
  - { offsetInCU: 0xC381, offset: 0x1B5622, size: 0x8, addend: 0x0, symName: '__ZN4core3ptr102drop_in_place$LT$syn..punctuated..Punctuated$LT$syn..path..GenericArgument$C$syn..token..Comma$GT$$GT$17h8b1978399cfff48bE', symObjAddr: 0x2D0, symBinAddr: 0x53630, symSize: 0xF0 }
  - { offsetInCU: 0xC6A1, offset: 0x1B5942, size: 0x8, addend: 0x0, symName: '__ZN4core3ptr103drop_in_place$LT$core..option..Option$LT$alloc..boxed..Box$LT$syn..generics..TypeParamBound$GT$$GT$$GT$17hb14e4384a768542bE.llvm.991277207215265740', symObjAddr: 0x3C0, symBinAddr: 0x53720, symSize: 0x50 }
  - { offsetInCU: 0xC8AC, offset: 0x1B5B4D, size: 0x8, addend: 0x0, symName: '__ZN4core3ptr103drop_in_place$LT$syn..punctuated..Punctuated$LT$syn..generics..GenericParam$C$syn..token..Comma$GT$$GT$17h0c6077a988036760E.llvm.991277207215265740', symObjAddr: 0x410, symBinAddr: 0x53770, symSize: 0xF0 }
  - { offsetInCU: 0xCE04, offset: 0x1B60A5, size: 0x8, addend: 0x0, symName: '__ZN4core3ptr104drop_in_place$LT$syn..punctuated..Punctuated$LT$syn..generics..TypeParamBound$C$syn..token..Plus$GT$$GT$17h724e4d9d1d65061aE.llvm.991277207215265740', symObjAddr: 0x500, symBinAddr: 0x53860, symSize: 0x190 }
  - { offsetInCU: 0xD427, offset: 0x1B66C8, size: 0x8, addend: 0x0, symName: '__ZN4core3ptr126drop_in_place$LT$core..option..Option$LT$$LP$syn..token..And$C$core..option..Option$LT$syn..lifetime..Lifetime$GT$$RP$$GT$$GT$17h45c5d73e12cdf6f0E', symObjAddr: 0x690, symBinAddr: 0x539F0, symSize: 0x30 }
  - { offsetInCU: 0xD63A, offset: 0x1B68DB, size: 0x8, addend: 0x0, symName: '__ZN4core3ptr34drop_in_place$LT$syn..lit..Lit$GT$17hd64dde89a262341dE', symObjAddr: 0x6C0, symBinAddr: 0x53A20, symSize: 0x120 }
  - { offsetInCU: 0xDB47, offset: 0x1B6DE8, size: 0x8, addend: 0x0, symName: '__ZN4core3ptr34drop_in_place$LT$syn..pat..Pat$GT$17hf88887878261d63cE.llvm.991277207215265740', symObjAddr: 0x7E0, symBinAddr: 0x53B40, symSize: 0x1100 }
  - { offsetInCU: 0x121C0, offset: 0x1BB461, size: 0x8, addend: 0x0, symName: '__ZN4core3ptr34drop_in_place$LT$syn..ty..Type$GT$17ha80dd29b0f9d4a3fE.llvm.991277207215265740', symObjAddr: 0x18E0, symBinAddr: 0x54C40, symSize: 0x520 }
  - { offsetInCU: 0x13835, offset: 0x1BCAD6, size: 0x8, addend: 0x0, symName: '__ZN4core3ptr36drop_in_place$LT$syn..expr..Expr$GT$17h10f573b40ddd212cE.llvm.991277207215265740', symObjAddr: 0x1E00, symBinAddr: 0x55160, symSize: 0x2830 }
  - { offsetInCU: 0x1D938, offset: 0x1C6BD9, size: 0x8, addend: 0x0, symName: '__ZN4core3ptr36drop_in_place$LT$syn..mac..Macro$GT$17hc3b30a7a8a34cc2dE', symObjAddr: 0x4630, symBinAddr: 0x57990, symSize: 0x40 }
  - { offsetInCU: 0x1D972, offset: 0x1C6C13, size: 0x8, addend: 0x0, symName: '__ZN4core3ptr36drop_in_place$LT$syn..path..Path$GT$17h75c74a97d5f0a03bE.llvm.991277207215265740', symObjAddr: 0x4670, symBinAddr: 0x579D0, symSize: 0x110 }
  - { offsetInCU: 0x1DD94, offset: 0x1C7035, size: 0x8, addend: 0x0, symName: '__ZN4core3ptr37drop_in_place$LT$syn..data..Field$GT$17hb03070569ab32babE.llvm.991277207215265740', symObjAddr: 0x4780, symBinAddr: 0x57AE0, symSize: 0x140 }
  - { offsetInCU: 0x1E1E8, offset: 0x1C7489, size: 0x8, addend: 0x0, symName: '__ZN4core3ptr37drop_in_place$LT$syn..item..FnArg$GT$17h470fdeee5cba5e3aE.llvm.991277207215265740', symObjAddr: 0x48C0, symBinAddr: 0x57C20, symSize: 0x230 }
  - { offsetInCU: 0x1EB02, offset: 0x1C7DA3, size: 0x8, addend: 0x0, symName: '__ZN4core3ptr37drop_in_place$LT$syn..stmt..Block$GT$17h6fc3254d5688f2c3E', symObjAddr: 0x4AF0, symBinAddr: 0x57E50, symSize: 0xD0 }
  - { offsetInCU: 0x1EDD9, offset: 0x1C807A, size: 0x8, addend: 0x0, symName: '__ZN4core3ptr38drop_in_place$LT$syn..expr..Member$GT$17h6b0cf84594ce6bceE.llvm.991277207215265740', symObjAddr: 0x4BC0, symBinAddr: 0x57F20, symSize: 0x30 }
  - { offsetInCU: 0x1EED5, offset: 0x1C8176, size: 0x8, addend: 0x0, symName: '__ZN4core3ptr39drop_in_place$LT$proc_macro2..Ident$GT$17ha28fef9769e267d9E.llvm.991277207215265740', symObjAddr: 0x4BF0, symBinAddr: 0x57F50, symSize: 0x30 }
  - { offsetInCU: 0x1F00F, offset: 0x1C82B0, size: 0x8, addend: 0x0, symName: '__ZN4core3ptr39drop_in_place$LT$syn..data..Variant$GT$17h92766dd8637b4069E', symObjAddr: 0x4C20, symBinAddr: 0x57F80, symSize: 0x150 }
  - { offsetInCU: 0x1F5B6, offset: 0x1C8857, size: 0x8, addend: 0x0, symName: '__ZN4core3ptr39drop_in_place$LT$syn..item..UseTree$GT$17h7288572c631f954aE.llvm.991277207215265740', symObjAddr: 0x4D70, symBinAddr: 0x580D0, symSize: 0x1E0 }
  - { offsetInCU: 0x1FD06, offset: 0x1C8FA7, size: 0x8, addend: 0x0, symName: '__ZN4core3ptr39drop_in_place$LT$syn..pat..FieldPat$GT$17he93d151251e1075bE.llvm.991277207215265740', symObjAddr: 0x4F50, symBinAddr: 0x582B0, symSize: 0x120 }
  - { offsetInCU: 0x202A0, offset: 0x1C9541, size: 0x8, addend: 0x0, symName: '__ZN4core3ptr39drop_in_place$LT$syn..ty..BareFnArg$GT$17h06523caf0a2ebe3aE.llvm.991277207215265740', symObjAddr: 0x5070, symBinAddr: 0x583D0, symSize: 0x110 }
  - { offsetInCU: 0x206C3, offset: 0x1C9964, size: 0x8, addend: 0x0, symName: '__ZN4core3ptr40drop_in_place$LT$syn..ty..ReturnType$GT$17h035a612e322b6510E', symObjAddr: 0x5180, symBinAddr: 0x584E0, symSize: 0x50 }
  - { offsetInCU: 0x20833, offset: 0x1C9AD4, size: 0x8, addend: 0x0, symName: '__ZN4core3ptr41drop_in_place$LT$syn..expr..ExprConst$GT$17hbfe19d5d621e6836E', symObjAddr: 0x51D0, symBinAddr: 0x58530, symSize: 0x180 }
  - { offsetInCU: 0x20E20, offset: 0x1CA0C1, size: 0x8, addend: 0x0, symName: '__ZN4core3ptr42drop_in_place$LT$syn..expr..FieldValue$GT$17heed77b5eea8beaa5E.llvm.991277207215265740', symObjAddr: 0x5350, symBinAddr: 0x586B0, symSize: 0x110 }
  - { offsetInCU: 0x21261, offset: 0x1CA502, size: 0x8, addend: 0x0, symName: '__ZN4core3ptr43drop_in_place$LT$syn..path..PathSegment$GT$17h903332e979944cf4E.llvm.991277207215265740', symObjAddr: 0x5460, symBinAddr: 0x587C0, symSize: 0x190 }
  - { offsetInCU: 0x217C5, offset: 0x1CAA66, size: 0x8, addend: 0x0, symName: '__ZN4core3ptr44drop_in_place$LT$syn..lifetime..Lifetime$GT$17he37fa474f03de7b1E.llvm.991277207215265740', symObjAddr: 0x55F0, symBinAddr: 0x58950, symSize: 0x30 }
  - { offsetInCU: 0x219F7, offset: 0x1CAC98, size: 0x8, addend: 0x0, symName: '__ZN4core3ptr45drop_in_place$LT$proc_macro2..TokenStream$GT$17h76e8e68015f4924dE.llvm.991277207215265740', symObjAddr: 0x5620, symBinAddr: 0x58980, symSize: 0x140 }
  - { offsetInCU: 0x21E91, offset: 0x1CB132, size: 0x8, addend: 0x0, symName: '__ZN4core3ptr45drop_in_place$LT$syn..generics..TypeParam$GT$17h188a459c1380ac75E.llvm.991277207215265740', symObjAddr: 0x5760, symBinAddr: 0x58AC0, symSize: 0x230 }
  - { offsetInCU: 0x22706, offset: 0x1CB9A7, size: 0x8, addend: 0x0, symName: '__ZN4core3ptr46drop_in_place$LT$syn..generics..ConstParam$GT$17h7a9b900b2b88bfcdE.llvm.991277207215265740', symObjAddr: 0x5990, symBinAddr: 0x58CF0, symSize: 0x150 }
  - { offsetInCU: 0x22B87, offset: 0x1CBE28, size: 0x8, addend: 0x0, symName: '__ZN4core3ptr47drop_in_place$LT$syn..path..GenericArgument$GT$17h593f06d6ca9a94d2E.llvm.991277207215265740', symObjAddr: 0x5AE0, symBinAddr: 0x58E40, symSize: 0x450 }
  - { offsetInCU: 0x238FD, offset: 0x1CCB9E, size: 0x8, addend: 0x0, symName: '__ZN4core3ptr48drop_in_place$LT$syn..generics..GenericParam$GT$17hd6859d95c1b7c168E.llvm.991277207215265740', symObjAddr: 0x5F30, symBinAddr: 0x59290, symSize: 0x40 }
  - { offsetInCU: 0x2391A, offset: 0x1CCBBB, size: 0x8, addend: 0x0, symName: '__ZN4core3ptr49drop_in_place$LT$syn..generics..LifetimeParam$GT$17h3a8835ab294bfd16E.llvm.991277207215265740', symObjAddr: 0x5F70, symBinAddr: 0x592D0, symSize: 0xF0 }
  - { offsetInCU: 0x23D6F, offset: 0x1CD010, size: 0x8, addend: 0x0, symName: '__ZN4core3ptr49drop_in_place$LT$syn..restriction..Visibility$GT$17h3e52b998838defb1E', symObjAddr: 0x6060, symBinAddr: 0x593C0, symSize: 0x150 }
  - { offsetInCU: 0x242D8, offset: 0x1CD579, size: 0x8, addend: 0x0, symName: '__ZN4core3ptr50drop_in_place$LT$syn..generics..TypeParamBound$GT$17h81b4325b5900604dE.llvm.991277207215265740', symObjAddr: 0x61B0, symBinAddr: 0x59510, symSize: 0x1C0 }
  - { offsetInCU: 0x24873, offset: 0x1CDB14, size: 0x8, addend: 0x0, symName: '__ZN4core3ptr50drop_in_place$LT$syn..generics..WherePredicate$GT$17h1dcd41fbf166681cE.llvm.991277207215265740', symObjAddr: 0x6370, symBinAddr: 0x596D0, symSize: 0xA0 }
  - { offsetInCU: 0x24A17, offset: 0x1CDCB8, size: 0x8, addend: 0x0, symName: '__ZN4core3ptr58drop_in_place$LT$alloc..vec..Vec$LT$syn..expr..Arm$GT$$GT$17hff9224aadf2233b8E', symObjAddr: 0x6410, symBinAddr: 0x59770, symSize: 0xD0 }
  - { offsetInCU: 0x24CD7, offset: 0x1CDF78, size: 0x8, addend: 0x0, symName: '__ZN4core3ptr59drop_in_place$LT$alloc..boxed..Box$LT$syn..pat..Pat$GT$$GT$17h622b0c1db21c0742E.llvm.991277207215265740', symObjAddr: 0x64E0, symBinAddr: 0x59840, symSize: 0x50 }
  - { offsetInCU: 0x24E30, offset: 0x1CE0D1, size: 0x8, addend: 0x0, symName: '__ZN4core3ptr59drop_in_place$LT$alloc..boxed..Box$LT$syn..ty..Type$GT$$GT$17hde45fa887dd8b605E.llvm.991277207215265740', symObjAddr: 0x6530, symBinAddr: 0x59890, symSize: 0x50 }
  - { offsetInCU: 0x24F89, offset: 0x1CE22A, size: 0x8, addend: 0x0, symName: '__ZN4core3ptr61drop_in_place$LT$alloc..boxed..Box$LT$syn..expr..Expr$GT$$GT$17hbb42293869113942E.llvm.991277207215265740', symObjAddr: 0x6650, symBinAddr: 0x598E0, symSize: 0x50 }
  - { offsetInCU: 0x2515E, offset: 0x1CE3FF, size: 0x8, addend: 0x0, symName: '__ZN4core3ptr61drop_in_place$LT$syn..path..ParenthesizedGenericArguments$GT$17h6b1731382637937fE.llvm.991277207215265740', symObjAddr: 0x66A0, symBinAddr: 0x59930, symSize: 0x170 }
  - { offsetInCU: 0x25767, offset: 0x1CEA08, size: 0x8, addend: 0x0, symName: '__ZN4core3ptr63drop_in_place$LT$alloc..boxed..Box$LT$syn..lit..LitRepr$GT$$GT$17h6e3a82ea4de7b84cE', symObjAddr: 0x68B0, symBinAddr: 0x59AA0, symSize: 0x60 }
  - { offsetInCU: 0x25A30, offset: 0x1CECD1, size: 0x8, addend: 0x0, symName: '__ZN4core3ptr64drop_in_place$LT$alloc..boxed..Box$LT$syn..item..UseTree$GT$$GT$17he4d7024582150632E', symObjAddr: 0x6960, symBinAddr: 0x59B00, symSize: 0x50 }
  - { offsetInCU: 0x25BA8, offset: 0x1CEE49, size: 0x8, addend: 0x0, symName: '__ZN4core3ptr64drop_in_place$LT$alloc..boxed..Box$LT$syn..pat..FieldPat$GT$$GT$17hbf8f4867d84bd25dE', symObjAddr: 0x69B0, symBinAddr: 0x59B50, symSize: 0x140 }
  - { offsetInCU: 0x2626B, offset: 0x1CF50C, size: 0x8, addend: 0x0, symName: '__ZN4core3ptr64drop_in_place$LT$alloc..boxed..Box$LT$syn..ty..BareFnArg$GT$$GT$17h6be6354eb1d1364dE', symObjAddr: 0x6AF0, symBinAddr: 0x59C90, symSize: 0x140 }
  - { offsetInCU: 0x267F4, offset: 0x1CFA95, size: 0x8, addend: 0x0, symName: '__ZN4core3ptr65drop_in_place$LT$alloc..vec..Vec$LT$proc_macro..TokenTree$GT$$GT$17h8abd81f8596dbc59E.llvm.991277207215265740', symObjAddr: 0x6C30, symBinAddr: 0x59DD0, symSize: 0x110 }
  - { offsetInCU: 0x26BEC, offset: 0x1CFE8D, size: 0x8, addend: 0x0, symName: '__ZN4core3ptr65drop_in_place$LT$core..option..Option$LT$syn..expr..Label$GT$$GT$17hac599686b33ef364E', symObjAddr: 0x6D40, symBinAddr: 0x59EE0, symSize: 0x30 }
  - { offsetInCU: 0x26D26, offset: 0x1CFFC7, size: 0x8, addend: 0x0, symName: '__ZN4core3ptr66drop_in_place$LT$core..option..Option$LT$syn..pat..PatRest$GT$$GT$17hd5bb3bc28aa78ac1E', symObjAddr: 0x6D70, symBinAddr: 0x59F10, symSize: 0xE0 }
  - { offsetInCU: 0x2704E, offset: 0x1D02EF, size: 0x8, addend: 0x0, symName: '__ZN4core3ptr67drop_in_place$LT$alloc..boxed..Box$LT$syn..expr..FieldValue$GT$$GT$17hbbcf67a9d5e9863cE', symObjAddr: 0x6E50, symBinAddr: 0x59FF0, symSize: 0x140 }
  - { offsetInCU: 0x275D6, offset: 0x1D0877, size: 0x8, addend: 0x0, symName: '__ZN4core3ptr70drop_in_place$LT$core..option..Option$LT$syn..ty..BareVariadic$GT$$GT$17h79a19250e9f043b1E', symObjAddr: 0x7030, symBinAddr: 0x5A130, symSize: 0x100 }
  - { offsetInCU: 0x27A41, offset: 0x1D0CE2, size: 0x8, addend: 0x0, symName: '__ZN4core3ptr72drop_in_place$LT$alloc..boxed..Box$LT$syn..path..GenericArgument$GT$$GT$17hfd308d374af4273dE', symObjAddr: 0x7130, symBinAddr: 0x5A230, symSize: 0x2B0 }
  - { offsetInCU: 0x28452, offset: 0x1D16F3, size: 0x8, addend: 0x0, symName: '__ZN4core3ptr73drop_in_place$LT$alloc..boxed..Box$LT$syn..generics..GenericParam$GT$$GT$17ha26d5d145af4b203E.llvm.991277207215265740', symObjAddr: 0x73E0, symBinAddr: 0x5A4E0, symSize: 0x80 }
  - { offsetInCU: 0x285E7, offset: 0x1D1888, size: 0x8, addend: 0x0, symName: '__ZN4core3ptr73drop_in_place$LT$alloc..vec..Vec$LT$syn..generics..TypeParamBound$GT$$GT$17h559d22d805be3033E.llvm.991277207215265740', symObjAddr: 0x7460, symBinAddr: 0x5A560, symSize: 0xC0 }
  - { offsetInCU: 0x288B8, offset: 0x1D1B59, size: 0x8, addend: 0x0, symName: '__ZN4core3ptr75drop_in_place$LT$alloc..boxed..Box$LT$syn..generics..TypeParamBound$GT$$GT$17h129a4e927e5eb81bE', symObjAddr: 0x7520, symBinAddr: 0x5A620, symSize: 0xC0 }
  - { offsetInCU: 0x28BAF, offset: 0x1D1E50, size: 0x8, addend: 0x0, symName: '__ZN4core3ptr76drop_in_place$LT$$LP$syn..generics..GenericParam$C$syn..token..Comma$RP$$GT$17hfa938bd7ff9e78c2E.llvm.991277207215265740', symObjAddr: 0x7630, symBinAddr: 0x5A6E0, symSize: 0x40 }
  - { offsetInCU: 0x28C5B, offset: 0x1D1EFC, size: 0x8, addend: 0x0, symName: '__ZN4core3ptr86drop_in_place$LT$syn..punctuated..Punctuated$LT$syn..pat..Pat$C$syn..token..Or$GT$$GT$17h9cc6b5f7b6d3a555E', symObjAddr: 0x78E0, symBinAddr: 0x5A720, symSize: 0x120 }
  - { offsetInCU: 0x290F5, offset: 0x1D2396, size: 0x8, addend: 0x0, symName: '__ZN4core3ptr87drop_in_place$LT$core..option..Option$LT$alloc..boxed..Box$LT$syn..pat..Pat$GT$$GT$$GT$17h51cd48973d96c411E', symObjAddr: 0x7AD0, symBinAddr: 0x5A840, symSize: 0x50 }
  - { offsetInCU: 0x29265, offset: 0x1D2506, size: 0x8, addend: 0x0, symName: '__ZN4core3ptr87drop_in_place$LT$core..option..Option$LT$alloc..boxed..Box$LT$syn..ty..Type$GT$$GT$$GT$17h103a25a4a7d7374eE.llvm.991277207215265740', symObjAddr: 0x7B20, symBinAddr: 0x5A890, symSize: 0x50 }
  - { offsetInCU: 0x293F4, offset: 0x1D2695, size: 0x8, addend: 0x0, symName: '__ZN4core3ptr89drop_in_place$LT$core..option..Option$LT$alloc..boxed..Box$LT$syn..expr..Expr$GT$$GT$$GT$17h9e02509cb2345d44E', symObjAddr: 0x7D10, symBinAddr: 0x5A8E0, symSize: 0x50 }
  - { offsetInCU: 0x295A2, offset: 0x1D2843, size: 0x8, addend: 0x0, symName: '__ZN4core3ptr89drop_in_place$LT$syn..punctuated..Punctuated$LT$syn..pat..Pat$C$syn..token..Comma$GT$$GT$17hd3a83c36827f210aE', symObjAddr: 0x7D60, symBinAddr: 0x5A930, symSize: 0x120 }
  - { offsetInCU: 0x29A34, offset: 0x1D2CD5, size: 0x8, addend: 0x0, symName: '__ZN4core3ptr89drop_in_place$LT$syn..punctuated..Punctuated$LT$syn..ty..Type$C$syn..token..Comma$GT$$GT$17he030c4b7f24a5848E.llvm.991277207215265740', symObjAddr: 0x7E80, symBinAddr: 0x5AA50, symSize: 0x120 }
  - { offsetInCU: 0x29EED, offset: 0x1D318E, size: 0x8, addend: 0x0, symName: '__ZN4core3ptr90drop_in_place$LT$core..option..Option$LT$alloc..boxed..Box$LT$syn..data..Field$GT$$GT$$GT$17h9f1aee8cd56c6727E.llvm.991277207215265740', symObjAddr: 0x82E0, symBinAddr: 0x5AB70, symSize: 0x50 }
  - { offsetInCU: 0x2A06F, offset: 0x1D3310, size: 0x8, addend: 0x0, symName: '__ZN4core3ptr91drop_in_place$LT$syn..punctuated..Punctuated$LT$syn..expr..Expr$C$syn..token..Comma$GT$$GT$17h6f261e8f470c81f2E.llvm.991277207215265740', symObjAddr: 0x8330, symBinAddr: 0x5ABC0, symSize: 0x120 }
  - { offsetInCU: 0x2A51C, offset: 0x1D37BD, size: 0x8, addend: 0x0, symName: '__ZN4core3ptr92drop_in_place$LT$core..option..Option$LT$alloc..boxed..Box$LT$syn..data..Variant$GT$$GT$$GT$17hb65f9b5d99f448afE', symObjAddr: 0x8450, symBinAddr: 0x5ACE0, symSize: 0x50 }
  - { offsetInCU: 0x2A6BD, offset: 0x1D395E, size: 0x8, addend: 0x0, symName: '__ZN4core3ptr92drop_in_place$LT$syn..punctuated..Punctuated$LT$syn..data..Field$C$syn..token..Comma$GT$$GT$17hf8968831c552f88dE', symObjAddr: 0x84A0, symBinAddr: 0x5AD30, symSize: 0x120 }
  - { offsetInCU: 0x2AB8C, offset: 0x1D3E2D, size: 0x8, addend: 0x0, symName: '__ZN4core3ptr94drop_in_place$LT$syn..punctuated..Punctuated$LT$syn..data..Variant$C$syn..token..Comma$GT$$GT$17h310cd79aba4529ccE', symObjAddr: 0x8720, symBinAddr: 0x5AE50, symSize: 0x120 }
  - { offsetInCU: 0x2AFFA, offset: 0x1D429B, size: 0x8, addend: 0x0, symName: '__ZN4core3ptr94drop_in_place$LT$syn..punctuated..Punctuated$LT$syn..pat..FieldPat$C$syn..token..Comma$GT$$GT$17h43ec25af986ef674E', symObjAddr: 0x8840, symBinAddr: 0x5AF70, symSize: 0xF0 }
  - { offsetInCU: 0x2B2F9, offset: 0x1D459A, size: 0x8, addend: 0x0, symName: '__ZN4core3ptr94drop_in_place$LT$syn..punctuated..Punctuated$LT$syn..ty..BareFnArg$C$syn..token..Comma$GT$$GT$17h7ba4c699ee390ebaE', symObjAddr: 0x8930, symBinAddr: 0x5B060, symSize: 0xF0 }
  - { offsetInCU: 0x2B5FA, offset: 0x1D489B, size: 0x8, addend: 0x0, symName: '__ZN4core3ptr95drop_in_place$LT$core..option..Option$LT$$LP$proc_macro2..Ident$C$syn..token..Colon$RP$$GT$$GT$17h59fe297999aa3329E.llvm.991277207215265740', symObjAddr: 0x8A20, symBinAddr: 0x5B150, symSize: 0x30 }
  - { offsetInCU: 0x2B734, offset: 0x1D49D5, size: 0x8, addend: 0x0, symName: '__ZN4core3ptr96drop_in_place$LT$core..option..Option$LT$alloc..boxed..Box$LT$syn..path..PathSegment$GT$$GT$$GT$17h5de12a5a0f9e9ef9E.llvm.991277207215265740', symObjAddr: 0x8B50, symBinAddr: 0x5B180, symSize: 0x1A0 }
  - { offsetInCU: 0x2BE14, offset: 0x1D50B5, size: 0x8, addend: 0x0, symName: '__ZN4core3ptr97drop_in_place$LT$syn..punctuated..Punctuated$LT$syn..expr..FieldValue$C$syn..token..Comma$GT$$GT$17hf58d0a9a09266ab3E', symObjAddr: 0x8D40, symBinAddr: 0x5B320, symSize: 0xF0 }
  - { offsetInCU: 0x2C14F, offset: 0x1D53F0, size: 0x8, addend: 0x0, symName: '__ZN4core3ptr98drop_in_place$LT$syn..punctuated..Punctuated$LT$syn..lifetime..Lifetime$C$syn..token..Plus$GT$$GT$17h600c2b78f78fd2b9E.llvm.991277207215265740', symObjAddr: 0x8F00, symBinAddr: 0x5B410, symSize: 0xD0 }
  - { offsetInCU: 0x2C63F, offset: 0x1D58E0, size: 0x8, addend: 0x0, symName: '__ZN4core3ptr99drop_in_place$LT$syn..punctuated..IntoPairs$LT$syn..path..PathSegment$C$syn..token..PathSep$GT$$GT$17h7bc58557d0a760d7E', symObjAddr: 0x9030, symBinAddr: 0x5B4E0, symSize: 0x60 }
  - { offsetInCU: 0x39946, offset: 0x1E2BE7, size: 0x8, addend: 0x0, symName: '__ZN3syn10punctuated23Punctuated$LT$T$C$P$GT$10push_value17h2697ae8d07ed6279E', symObjAddr: 0xA040, symBinAddr: 0x5B540, symSize: 0x0 }
  - { offsetInCU: 0x39BA3, offset: 0x1E2E44, size: 0x8, addend: 0x0, symName: '__ZN3syn10punctuated23Punctuated$LT$T$C$P$GT$10push_value17h45c7a985809b3219E', symObjAddr: 0xA140, symBinAddr: 0x5B640, symSize: 0x110 }
  - { offsetInCU: 0x39F0A, offset: 0x1E31AB, size: 0x8, addend: 0x0, symName: '__ZN3syn10punctuated23Punctuated$LT$T$C$P$GT$10push_value17h473f367d939ee38aE', symObjAddr: 0xA250, symBinAddr: 0x5B750, symSize: 0x100 }
  - { offsetInCU: 0x3A166, offset: 0x1E3407, size: 0x8, addend: 0x0, symName: '__ZN3syn10punctuated23Punctuated$LT$T$C$P$GT$10push_value17h4975d8317d65554cE', symObjAddr: 0xA350, symBinAddr: 0x5B850, symSize: 0x100 }
  - { offsetInCU: 0x3A3DD, offset: 0x1E367E, size: 0x8, addend: 0x0, symName: '__ZN3syn10punctuated23Punctuated$LT$T$C$P$GT$10push_value17h56f029a21ae32372E', symObjAddr: 0xA450, symBinAddr: 0x5B950, symSize: 0x100 }
  - { offsetInCU: 0x3A63A, offset: 0x1E38DB, size: 0x8, addend: 0x0, symName: '__ZN3syn10punctuated23Punctuated$LT$T$C$P$GT$10push_value17h63a58ef4bac63b37E', symObjAddr: 0xA550, symBinAddr: 0x5BA50, symSize: 0x100 }
  - { offsetInCU: 0x3A897, offset: 0x1E3B38, size: 0x8, addend: 0x0, symName: '__ZN3syn10punctuated23Punctuated$LT$T$C$P$GT$10push_value17h7a3a23979d9f27d8E', symObjAddr: 0xA650, symBinAddr: 0x5BB50, symSize: 0x100 }
  - { offsetInCU: 0x3AAF4, offset: 0x1E3D95, size: 0x8, addend: 0x0, symName: '__ZN3syn10punctuated23Punctuated$LT$T$C$P$GT$10push_value17h7b8b7e7a7cc7f473E', symObjAddr: 0xA750, symBinAddr: 0x5BC50, symSize: 0x100 }
  - { offsetInCU: 0x3AD44, offset: 0x1E3FE5, size: 0x8, addend: 0x0, symName: '__ZN3syn10punctuated23Punctuated$LT$T$C$P$GT$10push_value17h93661bd9a728ecd1E', symObjAddr: 0xA850, symBinAddr: 0x5BD50, symSize: 0x100 }
  - { offsetInCU: 0x3AFAE, offset: 0x1E424F, size: 0x8, addend: 0x0, symName: '__ZN3syn10punctuated23Punctuated$LT$T$C$P$GT$10push_value17hb6a278bfa99a1718E', symObjAddr: 0xA950, symBinAddr: 0x5BE50, symSize: 0xD0 }
  - { offsetInCU: 0x3B20A, offset: 0x1E44AB, size: 0x8, addend: 0x0, symName: '__ZN3syn10punctuated23Punctuated$LT$T$C$P$GT$10push_value17hc6035201a10f0061E', symObjAddr: 0xAA20, symBinAddr: 0x5BF20, symSize: 0xF0 }
  - { offsetInCU: 0x3B466, offset: 0x1E4707, size: 0x8, addend: 0x0, symName: '__ZN3syn10punctuated23Punctuated$LT$T$C$P$GT$10push_value17hd429ee0060d42f76E', symObjAddr: 0xAB10, symBinAddr: 0x5C010, symSize: 0xF0 }
  - { offsetInCU: 0x3B6C2, offset: 0x1E4963, size: 0x8, addend: 0x0, symName: '__ZN3syn10punctuated23Punctuated$LT$T$C$P$GT$10push_value17hdab02e89b3ba5c00E', symObjAddr: 0xAC00, symBinAddr: 0x5C100, symSize: 0x100 }
  - { offsetInCU: 0x3B947, offset: 0x1E4BE8, size: 0x8, addend: 0x0, symName: '__ZN3syn10punctuated23Punctuated$LT$T$C$P$GT$10push_punct17h06896b7cca64befbE', symObjAddr: 0xAD00, symBinAddr: 0x5C200, symSize: 0x110 }
  - { offsetInCU: 0x3BD41, offset: 0x1E4FE2, size: 0x8, addend: 0x0, symName: '__ZN3syn10punctuated23Punctuated$LT$T$C$P$GT$10push_punct17h0e6070274da9870bE', symObjAddr: 0xAE10, symBinAddr: 0x5C310, symSize: 0x120 }
  - { offsetInCU: 0x3C13B, offset: 0x1E53DC, size: 0x8, addend: 0x0, symName: '__ZN3syn10punctuated23Punctuated$LT$T$C$P$GT$10push_punct17h24286cd6641c5efeE', symObjAddr: 0xAF30, symBinAddr: 0x5C430, symSize: 0xF0 }
  - { offsetInCU: 0x3C535, offset: 0x1E57D6, size: 0x8, addend: 0x0, symName: '__ZN3syn10punctuated23Punctuated$LT$T$C$P$GT$10push_punct17h27450a552d2ea5c7E', symObjAddr: 0xB020, symBinAddr: 0x5C520, symSize: 0x110 }
  - { offsetInCU: 0x3C93C, offset: 0x1E5BDD, size: 0x8, addend: 0x0, symName: '__ZN3syn10punctuated23Punctuated$LT$T$C$P$GT$10push_punct17h44bfb8b49b59ff15E', symObjAddr: 0xB130, symBinAddr: 0x5C630, symSize: 0x110 }
  - { offsetInCU: 0x3CD36, offset: 0x1E5FD7, size: 0x8, addend: 0x0, symName: '__ZN3syn10punctuated23Punctuated$LT$T$C$P$GT$10push_punct17h7ab9900f429df4d2E', symObjAddr: 0xB240, symBinAddr: 0x5C740, symSize: 0x110 }
  - { offsetInCU: 0x3D123, offset: 0x1E63C4, size: 0x8, addend: 0x0, symName: '__ZN3syn10punctuated23Punctuated$LT$T$C$P$GT$10push_punct17h9e503a1a499ffaa4E', symObjAddr: 0xB350, symBinAddr: 0x5C850, symSize: 0x110 }
  - { offsetInCU: 0x3D54B, offset: 0x1E67EC, size: 0x8, addend: 0x0, symName: '__ZN3syn10punctuated23Punctuated$LT$T$C$P$GT$10push_punct17haecab6c445d3d0a0E', symObjAddr: 0xB460, symBinAddr: 0x5C960, symSize: 0x140 }
  - { offsetInCU: 0x3DA98, offset: 0x1E6D39, size: 0x8, addend: 0x0, symName: '__ZN3syn10punctuated23Punctuated$LT$T$C$P$GT$10push_punct17hb0efd3086160dde8E', symObjAddr: 0xB5A0, symBinAddr: 0x5CAA0, symSize: 0xF0 }
  - { offsetInCU: 0x3DE92, offset: 0x1E7133, size: 0x8, addend: 0x0, symName: '__ZN3syn10punctuated23Punctuated$LT$T$C$P$GT$10push_punct17hdafa07dad0c325a7E', symObjAddr: 0xB690, symBinAddr: 0x5CB90, symSize: 0x110 }
  - { offsetInCU: 0x3E2A6, offset: 0x1E7547, size: 0x8, addend: 0x0, symName: '__ZN3syn10punctuated23Punctuated$LT$T$C$P$GT$10push_punct17hdd359bad1ebfd945E', symObjAddr: 0xB7A0, symBinAddr: 0x5CCA0, symSize: 0x110 }
  - { offsetInCU: 0x3E6A0, offset: 0x1E7941, size: 0x8, addend: 0x0, symName: '__ZN3syn10punctuated23Punctuated$LT$T$C$P$GT$10push_punct17he61ebefe1fbd6233E', symObjAddr: 0xB8B0, symBinAddr: 0x5CDB0, symSize: 0x110 }
  - { offsetInCU: 0x3EA9A, offset: 0x1E7D3B, size: 0x8, addend: 0x0, symName: '__ZN3syn10punctuated23Punctuated$LT$T$C$P$GT$10push_punct17hedabbd3c35f4a750E', symObjAddr: 0xB9C0, symBinAddr: 0x5CEC0, symSize: 0x110 }
  - { offsetInCU: 0x3EE94, offset: 0x1E8135, size: 0x8, addend: 0x0, symName: '__ZN3syn10punctuated23Punctuated$LT$T$C$P$GT$10push_punct17hfa5ffee47f85172bE', symObjAddr: 0xBAD0, symBinAddr: 0x5CFD0, symSize: 0x110 }
  - { offsetInCU: 0x3F28E, offset: 0x1E852F, size: 0x8, addend: 0x0, symName: '__ZN3syn10punctuated23Punctuated$LT$T$C$P$GT$10push_punct17hff6cad691140237dE', symObjAddr: 0xBBE0, symBinAddr: 0x5D0E0, symSize: 0x120 }
  - { offsetInCU: 0x3F721, offset: 0x1E89C2, size: 0x8, addend: 0x0, symName: '__ZN3syn10punctuated23Punctuated$LT$T$C$P$GT$3pop17h6c6e5aa8da1faf58E', symObjAddr: 0xBD00, symBinAddr: 0x5D200, symSize: 0xA0 }
  - { offsetInCU: 0x3FB27, offset: 0x1E8DC8, size: 0x8, addend: 0x0, symName: '__ZN3syn10punctuated23Punctuated$LT$T$C$P$GT$4push17hdc36ad8613c26a5bE', symObjAddr: 0xBDA0, symBinAddr: 0x5D2A0, symSize: 0x170 }
  - { offsetInCU: 0x3FED8, offset: 0x1E9179, size: 0x8, addend: 0x0, symName: '__ZN3syn10punctuated23Punctuated$LT$T$C$P$GT$21parse_terminated_with17h19cf4460b97e8380E', symObjAddr: 0xBF10, symBinAddr: 0x5D410, symSize: 0x200 }
  - { offsetInCU: 0x404D2, offset: 0x1E9773, size: 0x8, addend: 0x0, symName: '__ZN3syn10punctuated23Punctuated$LT$T$C$P$GT$21parse_terminated_with17h804f2bc7bf3e5193E', symObjAddr: 0xC310, symBinAddr: 0x5D610, symSize: 0x3D0 }
  - { offsetInCU: 0x40F77, offset: 0x1EA218, size: 0x8, addend: 0x0, symName: '__ZN3syn10punctuated23Punctuated$LT$T$C$P$GT$21parse_terminated_with17h88338cd3dff110dcE', symObjAddr: 0xC6E0, symBinAddr: 0x5D9E0, symSize: 0x3E0 }
  - { offsetInCU: 0x2929, offset: 0x1F1DC0, size: 0x8, addend: 0x0, symName: '__ZN3syn4expr7parsing63_$LT$impl$u20$syn..parse..Parse$u20$for$u20$syn..expr..Expr$GT$5parse17h2dd32c2563b281f1E', symObjAddr: 0x9380, symBinAddr: 0x66470, symSize: 0xF0 }
  - { offsetInCU: 0x29D9, offset: 0x1F1E70, size: 0x8, addend: 0x0, symName: '__ZN3syn4expr7parsing66_$LT$impl$u20$syn..parse..Parse$u20$for$u20$syn..expr..ExprLit$GT$5parse17h037323e67b33f4e0E', symObjAddr: 0x9D40, symBinAddr: 0x66560, symSize: 0xF0 }
  - { offsetInCU: 0x2ACA, offset: 0x1F1F61, size: 0x8, addend: 0x0, symName: '__ZN3syn4expr7parsing65_$LT$impl$u20$syn..parse..Parse$u20$for$u20$syn..expr..ExprIf$GT$5parse17h057f7aac17b81ecfE', symObjAddr: 0x9E70, symBinAddr: 0x66650, symSize: 0x10D0 }
  - { offsetInCU: 0x5432, offset: 0x1F48C9, size: 0x8, addend: 0x0, symName: '__ZN3syn4expr7parsing68_$LT$impl$u20$syn..parse..Parse$u20$for$u20$syn..expr..ExprInfer$GT$5parse17hee2966860a129500E', symObjAddr: 0xAF40, symBinAddr: 0x67720, symSize: 0x190 }
  - { offsetInCU: 0x5823, offset: 0x1F4CBA, size: 0x8, addend: 0x0, symName: '__ZN3syn4expr7parsing70_$LT$impl$u20$syn..parse..Parse$u20$for$u20$syn..expr..ExprForLoop$GT$5parse17hedfbb0907538a2b3E', symObjAddr: 0xB0D0, symBinAddr: 0x678B0, symSize: 0xAE0 }
  - { offsetInCU: 0x688F, offset: 0x1F5D26, size: 0x8, addend: 0x0, symName: '__ZN3syn4expr7parsing67_$LT$impl$u20$syn..parse..Parse$u20$for$u20$syn..expr..ExprLoop$GT$5parse17h7ed0d5dbbb60f303E', symObjAddr: 0xBBB0, symBinAddr: 0x68390, symSize: 0x670 }
  - { offsetInCU: 0x7702, offset: 0x1F6B99, size: 0x8, addend: 0x0, symName: '__ZN3syn4expr7parsing68_$LT$impl$u20$syn..parse..Parse$u20$for$u20$syn..expr..ExprMatch$GT$5parse17h34519e3f1e766752E', symObjAddr: 0xC220, symBinAddr: 0x68A00, symSize: 0x870 }
  - { offsetInCU: 0x8639, offset: 0x1F7AD0, size: 0x8, addend: 0x0, symName: '__ZN3syn4expr7parsing69_$LT$impl$u20$syn..parse..Parse$u20$for$u20$syn..expr..ExprReturn$GT$5parse17hc1b56b8a902787dbE', symObjAddr: 0xCDA0, symBinAddr: 0x69270, symSize: 0x120 }
  - { offsetInCU: 0x8820, offset: 0x1F7CB7, size: 0x8, addend: 0x0, symName: '__ZN3syn4expr7parsing71_$LT$impl$u20$syn..parse..Parse$u20$for$u20$syn..expr..ExprTryBlock$GT$5parse17h57d58ae4f0ae4d64E', symObjAddr: 0xCEC0, symBinAddr: 0x69390, symSize: 0x140 }
  - { offsetInCU: 0x89A2, offset: 0x1F7E39, size: 0x8, addend: 0x0, symName: '__ZN3syn4expr7parsing68_$LT$impl$u20$syn..parse..Parse$u20$for$u20$syn..expr..ExprYield$GT$5parse17h1274dc253af9a55dE', symObjAddr: 0xD000, symBinAddr: 0x694D0, symSize: 0x120 }
  - { offsetInCU: 0x8B89, offset: 0x1F8020, size: 0x8, addend: 0x0, symName: '__ZN3syn4expr7parsing68_$LT$impl$u20$syn..parse..Parse$u20$for$u20$syn..expr..ExprAsync$GT$5parse17h1b9426392ef89a9dE', symObjAddr: 0xD120, symBinAddr: 0x695F0, symSize: 0x1E0 }
  - { offsetInCU: 0x8E8E, offset: 0x1F8325, size: 0x8, addend: 0x0, symName: '__ZN3syn4expr7parsing68_$LT$impl$u20$syn..parse..Parse$u20$for$u20$syn..expr..ExprWhile$GT$5parse17h632c2901c80fa142E', symObjAddr: 0xD300, symBinAddr: 0x697D0, symSize: 0x940 }
  - { offsetInCU: 0x9D25, offset: 0x1F91BC, size: 0x8, addend: 0x0, symName: '__ZN3syn4expr7parsing68_$LT$impl$u20$syn..parse..Parse$u20$for$u20$syn..expr..ExprConst$GT$5parse17h3cb83d630e04595bE', symObjAddr: 0xDC40, symBinAddr: 0x6A110, symSize: 0x480 }
  - { offsetInCU: 0xA55C, offset: 0x1F99F3, size: 0x8, addend: 0x0, symName: '__ZN3syn4expr7parsing64_$LT$impl$u20$syn..parse..Parse$u20$for$u20$syn..expr..Label$GT$5parse17hef86b1bab95aa7abE', symObjAddr: 0xE0C0, symBinAddr: 0x6A590, symSize: 0x240 }
  - { offsetInCU: 0xAA1E, offset: 0x1F9EB5, size: 0x8, addend: 0x0, symName: '__ZN3syn4expr7parsing71_$LT$impl$u20$syn..parse..Parse$u20$for$u20$syn..expr..ExprContinue$GT$5parse17h63c6d49ae369ea01E', symObjAddr: 0xE300, symBinAddr: 0x6A7D0, symSize: 0x1B0 }
  - { offsetInCU: 0xABA1, offset: 0x1FA038, size: 0x8, addend: 0x0, symName: '__ZN3syn4expr7parsing69_$LT$impl$u20$syn..parse..Parse$u20$for$u20$syn..expr..FieldValue$GT$5parse17hcbc1792fb9342612E', symObjAddr: 0xE4B0, symBinAddr: 0x6A980, symSize: 0x670 }
  - { offsetInCU: 0xB635, offset: 0x1FAACC, size: 0x8, addend: 0x0, symName: '__ZN3syn4expr7parsing69_$LT$impl$u20$syn..parse..Parse$u20$for$u20$syn..expr..ExprUnsafe$GT$5parse17hd34f309eaaaddbf9E', symObjAddr: 0xEC40, symBinAddr: 0x6AFF0, symSize: 0x480 }
  - { offsetInCU: 0xBE6C, offset: 0x1FB303, size: 0x8, addend: 0x0, symName: '__ZN3syn4expr7parsing68_$LT$impl$u20$syn..parse..Parse$u20$for$u20$syn..expr..ExprBlock$GT$5parse17h61a2a565a082b026E', symObjAddr: 0xF0C0, symBinAddr: 0x6B470, symSize: 0x620 }
  - { offsetInCU: 0xCCC9, offset: 0x1FC160, size: 0x8, addend: 0x0, symName: '__ZN3syn4expr7parsing70_$LT$impl$u20$syn..parse..Parse$u20$for$u20$syn..expr..RangeLimits$GT$5parse17hafc71f8b1811b3d4E', symObjAddr: 0xF6E0, symBinAddr: 0x6BA90, symSize: 0x2F0 }
  - { offsetInCU: 0xD94A, offset: 0x1FCDE1, size: 0x8, addend: 0x0, symName: '__ZN3syn4expr7parsing67_$LT$impl$u20$syn..parse..Parse$u20$for$u20$syn..expr..ExprPath$GT$5parse17hcfacd5d2290fdd20E', symObjAddr: 0xFD70, symBinAddr: 0x6C120, symSize: 0x240 }
  - { offsetInCU: 0xDD8E, offset: 0x1FD225, size: 0x8, addend: 0x0, symName: '__ZN3syn4expr7parsing65_$LT$impl$u20$syn..parse..Parse$u20$for$u20$syn..expr..Member$GT$5parse17h207aacc2d4c7579fE', symObjAddr: 0xFFB0, symBinAddr: 0x6C360, symSize: 0xE0 }
  - { offsetInCU: 0xDFFF, offset: 0x1FD496, size: 0x8, addend: 0x0, symName: '__ZN3syn4expr7parsing62_$LT$impl$u20$syn..parse..Parse$u20$for$u20$syn..expr..Arm$GT$5parse17h512532f6f815234dE', symObjAddr: 0x10090, symBinAddr: 0x6C440, symSize: 0xA10 }
  - { offsetInCU: 0xEF28, offset: 0x1FE3BF, size: 0x8, addend: 0x0, symName: '__ZN3syn4expr7parsing64_$LT$impl$u20$syn..parse..Parse$u20$for$u20$syn..expr..Index$GT$5parse17h5b2fe44bac761272E', symObjAddr: 0x10AA0, symBinAddr: 0x6CE50, symSize: 0x180 }
  - { offsetInCU: 0xF5FB, offset: 0x1FEA92, size: 0x8, addend: 0x0, symName: '__ZN3syn4expr8printing77_$LT$impl$u20$quote..to_tokens..ToTokens$u20$for$u20$syn..expr..ExprAsync$GT$9to_tokens17h7671d28113e1e04eE', symObjAddr: 0x10CC0, symBinAddr: 0x6CFD0, symSize: 0x160 }
  - { offsetInCU: 0xFC86, offset: 0x1FF11D, size: 0x8, addend: 0x0, symName: '__ZN3syn4expr8printing77_$LT$impl$u20$quote..to_tokens..ToTokens$u20$for$u20$syn..expr..ExprBlock$GT$9to_tokens17h25103e38a45e4c1aE', symObjAddr: 0x10E40, symBinAddr: 0x6D130, symSize: 0xF0 }
  - { offsetInCU: 0x101EE, offset: 0x1FF685, size: 0x8, addend: 0x0, symName: '__ZN3syn4expr8printing79_$LT$impl$u20$quote..to_tokens..ToTokens$u20$for$u20$syn..expr..ExprClosure$GT$9to_tokens17h22aefaf35f6b4a17E', symObjAddr: 0x10F60, symBinAddr: 0x6D220, symSize: 0x400 }
  - { offsetInCU: 0x10F3A, offset: 0x2003D1, size: 0x8, addend: 0x0, symName: '__ZN3syn4expr8printing77_$LT$impl$u20$quote..to_tokens..ToTokens$u20$for$u20$syn..expr..ExprConst$GT$9to_tokens17hfc10e9b463dc8ee9E', symObjAddr: 0x11360, symBinAddr: 0x6D620, symSize: 0xF0 }
  - { offsetInCU: 0x113B8, offset: 0x20084F, size: 0x8, addend: 0x0, symName: '__ZN3syn4expr8printing80_$LT$impl$u20$quote..to_tokens..ToTokens$u20$for$u20$syn..expr..ExprContinue$GT$9to_tokens17h5bfb9035b6328620E', symObjAddr: 0x11450, symBinAddr: 0x6D710, symSize: 0x130 }
  - { offsetInCU: 0x1199C, offset: 0x200E33, size: 0x8, addend: 0x0, symName: '__ZN3syn4expr8printing79_$LT$impl$u20$quote..to_tokens..ToTokens$u20$for$u20$syn..expr..ExprForLoop$GT$9to_tokens17h240fbce8573b3e2aE', symObjAddr: 0x11590, symBinAddr: 0x6D840, symSize: 0x240 }
  - { offsetInCU: 0x12254, offset: 0x2016EB, size: 0x8, addend: 0x0, symName: '__ZN3syn4expr8printing74_$LT$impl$u20$quote..to_tokens..ToTokens$u20$for$u20$syn..expr..ExprIf$GT$9to_tokens17hf717ea11b1d1406aE', symObjAddr: 0x11860, symBinAddr: 0x6DA80, symSize: 0x330 }
  - { offsetInCU: 0x12EC2, offset: 0x202359, size: 0x8, addend: 0x0, symName: '__ZN3syn4expr8printing77_$LT$impl$u20$quote..to_tokens..ToTokens$u20$for$u20$syn..expr..ExprInfer$GT$9to_tokens17h66f2f3192152ee7bE', symObjAddr: 0x11BA0, symBinAddr: 0x6DDB0, symSize: 0xE0 }
  - { offsetInCU: 0x1336A, offset: 0x202801, size: 0x8, addend: 0x0, symName: '__ZN3syn4expr8printing76_$LT$impl$u20$quote..to_tokens..ToTokens$u20$for$u20$syn..expr..ExprLoop$GT$9to_tokens17h32916f0a6a52df29E', symObjAddr: 0x11D20, symBinAddr: 0x6DE90, symSize: 0x160 }
  - { offsetInCU: 0x13B0C, offset: 0x202FA3, size: 0x8, addend: 0x0, symName: '__ZN3syn4expr8printing78_$LT$impl$u20$quote..to_tokens..ToTokens$u20$for$u20$syn..expr..ExprStruct$GT$9to_tokens17h5b9d34ef7b745589E', symObjAddr: 0x12260, symBinAddr: 0x6DFF0, symSize: 0xA0 }
  - { offsetInCU: 0x13E97, offset: 0x20332E, size: 0x8, addend: 0x0, symName: '__ZN3syn4expr8printing80_$LT$impl$u20$quote..to_tokens..ToTokens$u20$for$u20$syn..expr..ExprTryBlock$GT$9to_tokens17h21b1a3e7eeb0a009E', symObjAddr: 0x12310, symBinAddr: 0x6E090, symSize: 0xF0 }
  - { offsetInCU: 0x14395, offset: 0x20382C, size: 0x8, addend: 0x0, symName: '__ZN3syn4expr8printing78_$LT$impl$u20$quote..to_tokens..ToTokens$u20$for$u20$syn..expr..ExprUnsafe$GT$9to_tokens17h4dfc36d6c64a764dE', symObjAddr: 0x124A0, symBinAddr: 0x6E180, symSize: 0xF0 }
  - { offsetInCU: 0x1486D, offset: 0x203D04, size: 0x8, addend: 0x0, symName: '__ZN3syn4expr8printing71_$LT$impl$u20$quote..to_tokens..ToTokens$u20$for$u20$syn..expr..Arm$GT$9to_tokens17hb5881eaa41e95cfeE', symObjAddr: 0x12770, symBinAddr: 0x6E270, symSize: 0x180 }
  - { offsetInCU: 0x14C6C, offset: 0x204103, size: 0x8, addend: 0x0, symName: '__ZN3syn4expr8printing74_$LT$impl$u20$quote..to_tokens..ToTokens$u20$for$u20$syn..expr..Member$GT$9to_tokens17h4e2d160d172ed775E', symObjAddr: 0x12BC0, symBinAddr: 0x6E590, symSize: 0xC0 }
  - { offsetInCU: 0x14F3F, offset: 0x2043D6, size: 0x8, addend: 0x0, symName: '__ZN3syn4expr8printing78_$LT$impl$u20$quote..to_tokens..ToTokens$u20$for$u20$syn..expr..FieldValue$GT$9to_tokens17heb932e58796058afE', symObjAddr: 0x128F0, symBinAddr: 0x6E3F0, symSize: 0x1A0 }
  - { offsetInCU: 0x155A4, offset: 0x204A3B, size: 0x8, addend: 0x0, symName: '__ZN62_$LT$syn..expr..Expr$u20$as$u20$quote..to_tokens..ToTokens$GT$9to_tokens17h591e04bab5b62929E', symObjAddr: 0x12D00, symBinAddr: 0x6E650, symSize: 0x22C0 }
  - { offsetInCU: 0x22FD3, offset: 0x21246A, size: 0x8, addend: 0x0, symName: '__ZN4core3ptr100drop_in_place$LT$core..option..Option$LT$alloc..boxed..Box$LT$syn..path..GenericArgument$GT$$GT$$GT$17h3a7c44b9e57fe410E', symObjAddr: 0x1D0, symBinAddr: 0x5E970, symSize: 0x50 }
  - { offsetInCU: 0x23371, offset: 0x212808, size: 0x8, addend: 0x0, symName: '__ZN4core3ptr100drop_in_place$LT$syn..punctuated..Punctuated$LT$syn..path..PathSegment$C$syn..token..PathSep$GT$$GT$17he41ef64147139591E', symObjAddr: 0x220, symBinAddr: 0x5E9C0, symSize: 0x2B0 }
  - { offsetInCU: 0x23E27, offset: 0x2132BE, size: 0x8, addend: 0x0, symName: '__ZN4core3ptr103drop_in_place$LT$core..option..Option$LT$alloc..boxed..Box$LT$syn..generics..TypeParamBound$GT$$GT$$GT$17hb14e4384a768542bE', symObjAddr: 0x4D0, symBinAddr: 0x5EC70, symSize: 0x50 }
  - { offsetInCU: 0x24032, offset: 0x2134C9, size: 0x8, addend: 0x0, symName: '__ZN4core3ptr103drop_in_place$LT$syn..punctuated..Punctuated$LT$syn..generics..GenericParam$C$syn..token..Comma$GT$$GT$17h0c6077a988036760E', symObjAddr: 0x520, symBinAddr: 0x5ECC0, symSize: 0xF0 }
  - { offsetInCU: 0x2452D, offset: 0x2139C4, size: 0x8, addend: 0x0, symName: '__ZN4core3ptr104drop_in_place$LT$syn..punctuated..Punctuated$LT$syn..generics..TypeParamBound$C$syn..token..Plus$GT$$GT$17h724e4d9d1d65061aE', symObjAddr: 0x610, symBinAddr: 0x5EDB0, symSize: 0x190 }
  - { offsetInCU: 0x24B50, offset: 0x213FE7, size: 0x8, addend: 0x0, symName: '__ZN4core3ptr114drop_in_place$LT$core..option..Option$LT$$LP$syn..token..If$C$alloc..boxed..Box$LT$syn..expr..Expr$GT$$RP$$GT$$GT$17h65df04de8e20ab0aE.llvm.3179342279309578476', symObjAddr: 0x7A0, symBinAddr: 0x5EF40, symSize: 0x0 }
  - { offsetInCU: 0x24D7F, offset: 0x214216, size: 0x8, addend: 0x0, symName: '__ZN4core3ptr34drop_in_place$LT$syn..lit..Lit$GT$17hd64dde89a262341dE.llvm.3179342279309578476', symObjAddr: 0x7F0, symBinAddr: 0x5EF90, symSize: 0x130 }
  - { offsetInCU: 0x252B8, offset: 0x21474F, size: 0x8, addend: 0x0, symName: '__ZN4core3ptr34drop_in_place$LT$syn..pat..Pat$GT$17hf88887878261d63cE.llvm.3179342279309578476', symObjAddr: 0x920, symBinAddr: 0x5F0C0, symSize: 0x1100 }
  - { offsetInCU: 0x29931, offset: 0x218DC8, size: 0x8, addend: 0x0, symName: '__ZN4core3ptr34drop_in_place$LT$syn..ty..Type$GT$17ha80dd29b0f9d4a3fE.llvm.3179342279309578476', symObjAddr: 0x1A20, symBinAddr: 0x601C0, symSize: 0x520 }
  - { offsetInCU: 0x2A9F5, offset: 0x219E8C, size: 0x8, addend: 0x0, symName: '__ZN4core3ptr35drop_in_place$LT$syn..expr..Arm$GT$17hd729aea1406305a9E', symObjAddr: 0x1F40, symBinAddr: 0x606E0, symSize: 0x160 }
  - { offsetInCU: 0x2B4AE, offset: 0x21A945, size: 0x8, addend: 0x0, symName: '__ZN4core3ptr36drop_in_place$LT$syn..expr..Expr$GT$17h10f573b40ddd212cE.llvm.3179342279309578476', symObjAddr: 0x20A0, symBinAddr: 0x60840, symSize: 0x2550 }
  - { offsetInCU: 0x348C5, offset: 0x223D5C, size: 0x8, addend: 0x0, symName: '__ZN4core3ptr36drop_in_place$LT$syn..mac..Macro$GT$17hc3b30a7a8a34cc2dE.llvm.3179342279309578476', symObjAddr: 0x45F0, symBinAddr: 0x62D90, symSize: 0x40 }
  - { offsetInCU: 0x348FF, offset: 0x223D96, size: 0x8, addend: 0x0, symName: '__ZN4core3ptr36drop_in_place$LT$syn..path..Path$GT$17h75c74a97d5f0a03bE.llvm.3179342279309578476', symObjAddr: 0x4630, symBinAddr: 0x62DD0, symSize: 0x280 }
  - { offsetInCU: 0x353EA, offset: 0x224881, size: 0x8, addend: 0x0, symName: '__ZN4core3ptr37drop_in_place$LT$syn..lit..LitInt$GT$17hb1d9c894162666f0E.llvm.3179342279309578476', symObjAddr: 0x48B0, symBinAddr: 0x63050, symSize: 0x70 }
  - { offsetInCU: 0x3577B, offset: 0x224C12, size: 0x8, addend: 0x0, symName: '__ZN4core3ptr37drop_in_place$LT$syn..stmt..Block$GT$17h6fc3254d5688f2c3E.llvm.3179342279309578476', symObjAddr: 0x4920, symBinAddr: 0x630C0, symSize: 0xD0 }
  - { offsetInCU: 0x35A90, offset: 0x224F27, size: 0x8, addend: 0x0, symName: '__ZN4core3ptr38drop_in_place$LT$syn..expr..ExprIf$GT$17ha8d3c2042f45d05fE', symObjAddr: 0x49F0, symBinAddr: 0x63190, symSize: 0x200 }
  - { offsetInCU: 0x3634C, offset: 0x2257E3, size: 0x8, addend: 0x0, symName: '__ZN4core3ptr38drop_in_place$LT$syn..expr..Member$GT$17h6b0cf84594ce6bceE.llvm.3179342279309578476', symObjAddr: 0x4BF0, symBinAddr: 0x63390, symSize: 0x30 }
  - { offsetInCU: 0x36448, offset: 0x2258DF, size: 0x8, addend: 0x0, symName: '__ZN4core3ptr39drop_in_place$LT$proc_macro2..Ident$GT$17ha28fef9769e267d9E.llvm.3179342279309578476', symObjAddr: 0x4C20, symBinAddr: 0x633C0, symSize: 0x30 }
  - { offsetInCU: 0x36525, offset: 0x2259BC, size: 0x8, addend: 0x0, symName: '__ZN4core3ptr40drop_in_place$LT$syn..ty..ReturnType$GT$17h035a612e322b6510E.llvm.3179342279309578476', symObjAddr: 0x4FB0, symBinAddr: 0x633F0, symSize: 0x50 }
  - { offsetInCU: 0x36695, offset: 0x225B2C, size: 0x8, addend: 0x0, symName: '__ZN4core3ptr41drop_in_place$LT$syn..expr..ExprConst$GT$17hbfe19d5d621e6836E', symObjAddr: 0x5030, symBinAddr: 0x63440, symSize: 0x180 }
  - { offsetInCU: 0x36CA1, offset: 0x226138, size: 0x8, addend: 0x0, symName: '__ZN4core3ptr44drop_in_place$LT$syn..lifetime..Lifetime$GT$17he37fa474f03de7b1E', symObjAddr: 0x58E0, symBinAddr: 0x635C0, symSize: 0x30 }
  - { offsetInCU: 0x36E19, offset: 0x2262B0, size: 0x8, addend: 0x0, symName: '__ZN4core3ptr44drop_in_place$LT$syn..parse..ParseBuffer$GT$17hf792ff20095efc35E', symObjAddr: 0x5910, symBinAddr: 0x635F0, symSize: 0x70 }
  - { offsetInCU: 0x37230, offset: 0x2266C7, size: 0x8, addend: 0x0, symName: '__ZN4core3ptr45drop_in_place$LT$proc_macro2..TokenStream$GT$17h76e8e68015f4924dE.llvm.3179342279309578476', symObjAddr: 0x5980, symBinAddr: 0x63660, symSize: 0x140 }
  - { offsetInCU: 0x376CA, offset: 0x226B61, size: 0x8, addend: 0x0, symName: '__ZN4core3ptr45drop_in_place$LT$syn..generics..TypeParam$GT$17h188a459c1380ac75E', symObjAddr: 0x5AC0, symBinAddr: 0x637A0, symSize: 0x230 }
  - { offsetInCU: 0x37F9C, offset: 0x227433, size: 0x8, addend: 0x0, symName: '__ZN4core3ptr46drop_in_place$LT$syn..expr..ExprMethodCall$GT$17hcac390ae151688a0E', symObjAddr: 0x5CF0, symBinAddr: 0x639D0, symSize: 0x340 }
  - { offsetInCU: 0x38DE9, offset: 0x228280, size: 0x8, addend: 0x0, symName: '__ZN4core3ptr46drop_in_place$LT$syn..generics..ConstParam$GT$17h7a9b900b2b88bfcdE', symObjAddr: 0x6030, symBinAddr: 0x63D10, symSize: 0x150 }
  - { offsetInCU: 0x392E6, offset: 0x22877D, size: 0x8, addend: 0x0, symName: '__ZN4core3ptr47drop_in_place$LT$syn..path..GenericArgument$GT$17h593f06d6ca9a94d2E', symObjAddr: 0x61B0, symBinAddr: 0x63E60, symSize: 0x4A0 }
  - { offsetInCU: 0x3A3EC, offset: 0x229883, size: 0x8, addend: 0x0, symName: '__ZN4core3ptr49drop_in_place$LT$syn..generics..LifetimeParam$GT$17h3a8835ab294bfd16E', symObjAddr: 0x6650, symBinAddr: 0x64300, symSize: 0xF0 }
  - { offsetInCU: 0x3A803, offset: 0x229C9A, size: 0x8, addend: 0x0, symName: '__ZN4core3ptr50drop_in_place$LT$syn..generics..TypeParamBound$GT$17h81b4325b5900604dE', symObjAddr: 0x6740, symBinAddr: 0x643F0, symSize: 0x1C0 }
  - { offsetInCU: 0x3AD60, offset: 0x22A1F7, size: 0x8, addend: 0x0, symName: '__ZN4core3ptr58drop_in_place$LT$alloc..vec..Vec$LT$syn..expr..Arm$GT$$GT$17hff9224aadf2233b8E.llvm.3179342279309578476', symObjAddr: 0x6900, symBinAddr: 0x645B0, symSize: 0xD0 }
  - { offsetInCU: 0x3B020, offset: 0x22A4B7, size: 0x8, addend: 0x0, symName: '__ZN4core3ptr59drop_in_place$LT$alloc..boxed..Box$LT$syn..pat..Pat$GT$$GT$17h622b0c1db21c0742E.llvm.3179342279309578476', symObjAddr: 0x69D0, symBinAddr: 0x64680, symSize: 0x50 }
  - { offsetInCU: 0x3B179, offset: 0x22A610, size: 0x8, addend: 0x0, symName: '__ZN4core3ptr59drop_in_place$LT$alloc..boxed..Box$LT$syn..ty..Type$GT$$GT$17hde45fa887dd8b605E.llvm.3179342279309578476', symObjAddr: 0x6A20, symBinAddr: 0x646D0, symSize: 0x50 }
  - { offsetInCU: 0x3B2D2, offset: 0x22A769, size: 0x8, addend: 0x0, symName: '__ZN4core3ptr59drop_in_place$LT$alloc..vec..Vec$LT$syn..stmt..Stmt$GT$$GT$17h6cf3e54f41bc03bdE', symObjAddr: 0x6A70, symBinAddr: 0x64720, symSize: 0xD0 }
  - { offsetInCU: 0x3B592, offset: 0x22AA29, size: 0x8, addend: 0x0, symName: '__ZN4core3ptr61drop_in_place$LT$alloc..boxed..Box$LT$syn..expr..Expr$GT$$GT$17hbb42293869113942E.llvm.3179342279309578476', symObjAddr: 0x6B40, symBinAddr: 0x647F0, symSize: 0x50 }
  - { offsetInCU: 0x3B70A, offset: 0x22ABA1, size: 0x8, addend: 0x0, symName: '__ZN4core3ptr61drop_in_place$LT$alloc..vec..Vec$LT$syn..expr..ExprIf$GT$$GT$17h974b97c8babb35d3E', symObjAddr: 0x6B90, symBinAddr: 0x64840, symSize: 0xD0 }
  - { offsetInCU: 0x3BA48, offset: 0x22AEDF, size: 0x8, addend: 0x0, symName: '__ZN4core3ptr61drop_in_place$LT$syn..path..ParenthesizedGenericArguments$GT$17h6b1731382637937fE', symObjAddr: 0x6C60, symBinAddr: 0x64910, symSize: 0x170 }
  - { offsetInCU: 0x3C03E, offset: 0x22B4D5, size: 0x8, addend: 0x0, symName: '__ZN4core3ptr62drop_in_place$LT$syn..path..AngleBracketedGenericArguments$GT$17hf8fa172f007a1473E', symObjAddr: 0x6DD0, symBinAddr: 0x64A80, symSize: 0x120 }
  - { offsetInCU: 0x3C489, offset: 0x22B920, size: 0x8, addend: 0x0, symName: '__ZN4core3ptr63drop_in_place$LT$alloc..boxed..Box$LT$syn..lit..LitRepr$GT$$GT$17h6e3a82ea4de7b84cE', symObjAddr: 0x6EF0, symBinAddr: 0x64BA0, symSize: 0x60 }
  - { offsetInCU: 0x3C771, offset: 0x22BC08, size: 0x8, addend: 0x0, symName: '__ZN4core3ptr64drop_in_place$LT$alloc..boxed..Box$LT$syn..pat..FieldPat$GT$$GT$17hbf8f4867d84bd25dE', symObjAddr: 0x6F50, symBinAddr: 0x64C00, symSize: 0x140 }
  - { offsetInCU: 0x3CE72, offset: 0x22C309, size: 0x8, addend: 0x0, symName: '__ZN4core3ptr64drop_in_place$LT$alloc..boxed..Box$LT$syn..ty..BareFnArg$GT$$GT$17h6be6354eb1d1364dE', symObjAddr: 0x7090, symBinAddr: 0x64D40, symSize: 0x140 }
  - { offsetInCU: 0x3D3FB, offset: 0x22C892, size: 0x8, addend: 0x0, symName: '__ZN4core3ptr64drop_in_place$LT$alloc..vec..Vec$LT$syn..attr..Attribute$GT$$GT$17he33e25539d5885aeE.llvm.3179342279309578476', symObjAddr: 0x71D0, symBinAddr: 0x64E80, symSize: 0xD0 }
  - { offsetInCU: 0x3D6EF, offset: 0x22CB86, size: 0x8, addend: 0x0, symName: '__ZN4core3ptr65drop_in_place$LT$alloc..vec..Vec$LT$proc_macro..TokenTree$GT$$GT$17h8abd81f8596dbc59E.llvm.3179342279309578476', symObjAddr: 0x72A0, symBinAddr: 0x64F50, symSize: 0x110 }
  - { offsetInCU: 0x3DAE7, offset: 0x22CF7E, size: 0x8, addend: 0x0, symName: '__ZN4core3ptr65drop_in_place$LT$core..option..Option$LT$syn..expr..Label$GT$$GT$17hac599686b33ef364E.llvm.3179342279309578476', symObjAddr: 0x73B0, symBinAddr: 0x65060, symSize: 0x30 }
  - { offsetInCU: 0x3DC21, offset: 0x22D0B8, size: 0x8, addend: 0x0, symName: '__ZN4core3ptr65drop_in_place$LT$core..option..Option$LT$syn..path..QSelf$GT$$GT$17h0b8dd5cda5f2cd6bE.llvm.3179342279309578476', symObjAddr: 0x73E0, symBinAddr: 0x65090, symSize: 0x50 }
  - { offsetInCU: 0x3DDB8, offset: 0x22D24F, size: 0x8, addend: 0x0, symName: '__ZN4core3ptr66drop_in_place$LT$core..option..Option$LT$syn..pat..PatRest$GT$$GT$17hd5bb3bc28aa78ac1E', symObjAddr: 0x7430, symBinAddr: 0x650E0, symSize: 0xE0 }
  - { offsetInCU: 0x3E0E0, offset: 0x22D577, size: 0x8, addend: 0x0, symName: '__ZN4core3ptr67drop_in_place$LT$alloc..boxed..Box$LT$syn..expr..FieldValue$GT$$GT$17hbbcf67a9d5e9863cE', symObjAddr: 0x7510, symBinAddr: 0x651C0, symSize: 0x140 }
  - { offsetInCU: 0x3E649, offset: 0x22DAE0, size: 0x8, addend: 0x0, symName: '__ZN4core3ptr68drop_in_place$LT$alloc..boxed..Box$LT$syn..path..PathSegment$GT$$GT$17h99aaf90b3262bc1eE', symObjAddr: 0x7650, symBinAddr: 0x65300, symSize: 0x1B0 }
  - { offsetInCU: 0x3ED57, offset: 0x22E1EE, size: 0x8, addend: 0x0, symName: '__ZN4core3ptr70drop_in_place$LT$core..option..Option$LT$syn..ty..BareVariadic$GT$$GT$17h79a19250e9f043b1E', symObjAddr: 0x7800, symBinAddr: 0x654B0, symSize: 0x100 }
  - { offsetInCU: 0x3F1C2, offset: 0x22E659, size: 0x8, addend: 0x0, symName: '__ZN4core3ptr72drop_in_place$LT$alloc..boxed..Box$LT$syn..path..GenericArgument$GT$$GT$17hfd308d374af4273dE', symObjAddr: 0x7900, symBinAddr: 0x655B0, symSize: 0x1D0 }
  - { offsetInCU: 0x3F75D, offset: 0x22EBF4, size: 0x8, addend: 0x0, symName: '__ZN4core3ptr72drop_in_place$LT$core..option..Option$LT$syn..lifetime..Lifetime$GT$$GT$17h49cce6f02f9c0590E.llvm.3179342279309578476', symObjAddr: 0x7AD0, symBinAddr: 0x65780, symSize: 0x30 }
  - { offsetInCU: 0x3F878, offset: 0x22ED0F, size: 0x8, addend: 0x0, symName: '__ZN4core3ptr73drop_in_place$LT$alloc..boxed..Box$LT$syn..generics..GenericParam$GT$$GT$17ha26d5d145af4b203E', symObjAddr: 0x7B00, symBinAddr: 0x657B0, symSize: 0x80 }
  - { offsetInCU: 0x3F9EE, offset: 0x22EE85, size: 0x8, addend: 0x0, symName: '__ZN4core3ptr75drop_in_place$LT$alloc..boxed..Box$LT$syn..generics..TypeParamBound$GT$$GT$17h129a4e927e5eb81bE', symObjAddr: 0x7B80, symBinAddr: 0x65830, symSize: 0xC0 }
  - { offsetInCU: 0x3FD42, offset: 0x22F1D9, size: 0x8, addend: 0x0, symName: '__ZN4core3ptr86drop_in_place$LT$syn..punctuated..Punctuated$LT$syn..pat..Pat$C$syn..token..Or$GT$$GT$17h9cc6b5f7b6d3a555E', symObjAddr: 0x7C60, symBinAddr: 0x658F0, symSize: 0x120 }
  - { offsetInCU: 0x401BD, offset: 0x22F654, size: 0x8, addend: 0x0, symName: '__ZN4core3ptr87drop_in_place$LT$core..option..Option$LT$alloc..boxed..Box$LT$syn..pat..Pat$GT$$GT$$GT$17h51cd48973d96c411E', symObjAddr: 0x7D80, symBinAddr: 0x65A10, symSize: 0x50 }
  - { offsetInCU: 0x4032D, offset: 0x22F7C4, size: 0x8, addend: 0x0, symName: '__ZN4core3ptr87drop_in_place$LT$core..option..Option$LT$alloc..boxed..Box$LT$syn..ty..Type$GT$$GT$$GT$17h103a25a4a7d7374eE', symObjAddr: 0x7DD0, symBinAddr: 0x65A60, symSize: 0x50 }
  - { offsetInCU: 0x4049D, offset: 0x22F934, size: 0x8, addend: 0x0, symName: '__ZN4core3ptr88drop_in_place$LT$$LP$syn..token..Else$C$alloc..boxed..Box$LT$syn..expr..Expr$GT$$RP$$GT$17ha4aa82534fb17f55E', symObjAddr: 0x7E20, symBinAddr: 0x65AB0, symSize: 0x50 }
  - { offsetInCU: 0x40615, offset: 0x22FAAC, size: 0x8, addend: 0x0, symName: '__ZN4core3ptr89drop_in_place$LT$core..option..Option$LT$alloc..boxed..Box$LT$syn..expr..Expr$GT$$GT$$GT$17h9e02509cb2345d44E.llvm.3179342279309578476', symObjAddr: 0x7E70, symBinAddr: 0x65B00, symSize: 0x50 }
  - { offsetInCU: 0x407C3, offset: 0x22FC5A, size: 0x8, addend: 0x0, symName: '__ZN4core3ptr89drop_in_place$LT$syn..punctuated..Punctuated$LT$syn..pat..Pat$C$syn..token..Comma$GT$$GT$17hd3a83c36827f210aE.llvm.3179342279309578476', symObjAddr: 0x7EC0, symBinAddr: 0x65B50, symSize: 0x120 }
  - { offsetInCU: 0x40C55, offset: 0x2300EC, size: 0x8, addend: 0x0, symName: '__ZN4core3ptr89drop_in_place$LT$syn..punctuated..Punctuated$LT$syn..ty..Type$C$syn..token..Comma$GT$$GT$17he030c4b7f24a5848E', symObjAddr: 0x7FE0, symBinAddr: 0x65C70, symSize: 0x120 }
  - { offsetInCU: 0x410D0, offset: 0x230567, size: 0x8, addend: 0x0, symName: '__ZN4core3ptr91drop_in_place$LT$syn..punctuated..Punctuated$LT$syn..expr..Expr$C$syn..token..Comma$GT$$GT$17h6f261e8f470c81f2E.llvm.3179342279309578476', symObjAddr: 0x8230, symBinAddr: 0x65D90, symSize: 0x120 }
  - { offsetInCU: 0x4154B, offset: 0x2309E2, size: 0x8, addend: 0x0, symName: '__ZN4core3ptr94drop_in_place$LT$syn..punctuated..Punctuated$LT$syn..pat..FieldPat$C$syn..token..Comma$GT$$GT$17h43ec25af986ef674E', symObjAddr: 0x8350, symBinAddr: 0x65EB0, symSize: 0xF0 }
  - { offsetInCU: 0x4184A, offset: 0x230CE1, size: 0x8, addend: 0x0, symName: '__ZN4core3ptr94drop_in_place$LT$syn..punctuated..Punctuated$LT$syn..ty..BareFnArg$C$syn..token..Comma$GT$$GT$17h7ba4c699ee390ebaE', symObjAddr: 0x8440, symBinAddr: 0x65FA0, symSize: 0xF0 }
  - { offsetInCU: 0x41B4B, offset: 0x230FE2, size: 0x8, addend: 0x0, symName: '__ZN4core3ptr95drop_in_place$LT$core..option..Option$LT$$LP$proc_macro2..Ident$C$syn..token..Colon$RP$$GT$$GT$17h59fe297999aa3329E', symObjAddr: 0x8530, symBinAddr: 0x66090, symSize: 0x30 }
  - { offsetInCU: 0x41C66, offset: 0x2310FD, size: 0x8, addend: 0x0, symName: '__ZN4core3ptr96drop_in_place$LT$core..option..Option$LT$alloc..boxed..Box$LT$syn..path..PathSegment$GT$$GT$$GT$17h5de12a5a0f9e9ef9E', symObjAddr: 0x8560, symBinAddr: 0x660C0, symSize: 0xA0 }
  - { offsetInCU: 0x41EE5, offset: 0x23137C, size: 0x8, addend: 0x0, symName: '__ZN4core3ptr97drop_in_place$LT$syn..punctuated..Punctuated$LT$syn..expr..FieldValue$C$syn..token..Comma$GT$$GT$17hf58d0a9a09266ab3E.llvm.3179342279309578476', symObjAddr: 0x8600, symBinAddr: 0x66160, symSize: 0xF0 }
  - { offsetInCU: 0x4225E, offset: 0x2316F5, size: 0x8, addend: 0x0, symName: '__ZN4core3ptr98drop_in_place$LT$syn..punctuated..Punctuated$LT$syn..lifetime..Lifetime$C$syn..token..Plus$GT$$GT$17h600c2b78f78fd2b9E', symObjAddr: 0x86F0, symBinAddr: 0x66250, symSize: 0xD0 }
  - { offsetInCU: 0x47D8A, offset: 0x237221, size: 0x8, addend: 0x0, symName: __ZN5alloc5alloc15exchange_malloc17h9a87608d0224859dE, symObjAddr: 0x87E0, symBinAddr: 0x66320, symSize: 0x40 }
  - { offsetInCU: 0x4B5CD, offset: 0x23AA64, size: 0x8, addend: 0x0, symName: __ZN3syn4expr4Expr13replace_attrs17h81659526e8109ac8E, symObjAddr: 0x9180, symBinAddr: 0x66360, symSize: 0x110 }
  - { offsetInCU: 0x4C896, offset: 0x23BD2D, size: 0x8, addend: 0x0, symName: '__ZN3syn4expr7parsing40_$LT$impl$u20$syn..expr..RangeLimits$GT$14parse_obsolete17he8a69cc7d9cd98eeE', symObjAddr: 0xF9D0, symBinAddr: 0x6BD80, symSize: 0x3A0 }
  - { offsetInCU: 0x1390, offset: 0x2490F2, size: 0x8, addend: 0x0, symName: '__ZN4core3ptr100drop_in_place$LT$core..option..Option$LT$alloc..boxed..Box$LT$syn..path..GenericArgument$GT$$GT$$GT$17h3a7c44b9e57fe410E', symObjAddr: 0x6A0, symBinAddr: 0x70D60, symSize: 0x50 }
  - { offsetInCU: 0x157C, offset: 0x2492DE, size: 0x8, addend: 0x0, symName: '__ZN4core3ptr101drop_in_place$LT$core..option..Option$LT$alloc..boxed..Box$LT$syn..generics..GenericParam$GT$$GT$$GT$17h2bff155591650989E', symObjAddr: 0x7C0, symBinAddr: 0x70DB0, symSize: 0x50 }
  - { offsetInCU: 0x1768, offset: 0x2494CA, size: 0x8, addend: 0x0, symName: '__ZN4core3ptr102drop_in_place$LT$syn..punctuated..Punctuated$LT$syn..path..GenericArgument$C$syn..token..Comma$GT$$GT$17h8b1978399cfff48bE.llvm.14025449986115119833', symObjAddr: 0x810, symBinAddr: 0x70E00, symSize: 0xF0 }
  - { offsetInCU: 0x1A8F, offset: 0x2497F1, size: 0x8, addend: 0x0, symName: '__ZN4core3ptr103drop_in_place$LT$core..option..Option$LT$alloc..boxed..Box$LT$syn..generics..TypeParamBound$GT$$GT$$GT$17hb14e4384a768542bE.llvm.14025449986115119833', symObjAddr: 0x900, symBinAddr: 0x70EF0, symSize: 0x50 }
  - { offsetInCU: 0x1C1E, offset: 0x249980, size: 0x8, addend: 0x0, symName: '__ZN4core3ptr103drop_in_place$LT$core..option..Option$LT$alloc..boxed..Box$LT$syn..generics..WherePredicate$GT$$GT$$GT$17he190813f4819c5dbE', symObjAddr: 0x950, symBinAddr: 0x70F40, symSize: 0x50 }
  - { offsetInCU: 0x1E48, offset: 0x249BAA, size: 0x8, addend: 0x0, symName: '__ZN4core3ptr103drop_in_place$LT$syn..punctuated..Punctuated$LT$syn..generics..GenericParam$C$syn..token..Comma$GT$$GT$17h0c6077a988036760E.llvm.14025449986115119833', symObjAddr: 0x9A0, symBinAddr: 0x70F90, symSize: 0x1A0 }
  - { offsetInCU: 0x24EA, offset: 0x24A24C, size: 0x8, addend: 0x0, symName: '__ZN4core3ptr104drop_in_place$LT$syn..punctuated..Punctuated$LT$syn..generics..TypeParamBound$C$syn..token..Plus$GT$$GT$17h724e4d9d1d65061aE.llvm.14025449986115119833', symObjAddr: 0xB40, symBinAddr: 0x71130, symSize: 0x240 }
  - { offsetInCU: 0x2E25, offset: 0x24AB87, size: 0x8, addend: 0x0, symName: '__ZN4core3ptr105drop_in_place$LT$syn..punctuated..Punctuated$LT$syn..generics..WherePredicate$C$syn..token..Comma$GT$$GT$17h18b5b213db2a676cE', symObjAddr: 0xD80, symBinAddr: 0x71370, symSize: 0x1A0 }
  - { offsetInCU: 0x3534, offset: 0x24B296, size: 0x8, addend: 0x0, symName: '__ZN4core3ptr116drop_in_place$LT$core..option..Option$LT$$LP$syn..token..Else$C$alloc..boxed..Box$LT$syn..expr..Expr$GT$$RP$$GT$$GT$17h60c68b89176741daE', symObjAddr: 0xF20, symBinAddr: 0x71510, symSize: 0x50 }
  - { offsetInCU: 0x3737, offset: 0x24B499, size: 0x8, addend: 0x0, symName: '__ZN4core3ptr1247drop_in_place$LT$core..iter..adapters..flatten..Flatten$LT$core..iter..adapters..map..Map$LT$core..iter..adapters..map..Map$LT$core..iter..adapters..map..Map$LT$core..slice..iter..Iter$LT$syn..error..ErrorMessage$GT$$C$syn..error..ErrorMessage..to_compile_error$GT$$C$$LT$proc_macro2..TokenStream$u20$as$u20$core..iter..traits..collect..FromIterator$LT$proc_macro2..TokenStream$GT$$GT$..from_iter$LT$core..iter..adapters..map..Map$LT$core..slice..iter..Iter$LT$syn..error..ErrorMessage$GT$$C$syn..error..ErrorMessage..to_compile_error$GT$$GT$..$u7b$$u7b$closure$u7d$$u7d$$GT$$C$$LT$proc_macro2..imp..TokenStream$u20$as$u20$core..iter..traits..collect..FromIterator$LT$proc_macro2..imp..TokenStream$GT$$GT$..from_iter$LT$core..iter..adapters..map..Map$LT$core..iter..adapters..map..Map$LT$core..slice..iter..Iter$LT$syn..error..ErrorMessage$GT$$C$syn..error..ErrorMessage..to_compile_error$GT$$C$$LT$proc_macro2..TokenStream$u20$as$u20$core..iter..traits..collect..FromIterator$LT$proc_macro2..TokenStream$GT$$GT$..from_iter$LT$core..iter..adapters..map..Map$LT$core..slice..iter..Iter$LT$syn..error..ErrorMessage$GT$$C$syn..error..ErrorMessage..to_compile_error$GT$$GT$..$u7b$$u7b$closure$u7d$$u7d$$GT$$GT$..$u7b$$u7b$closure$u7d$$u7d$$GT$$GT$$GT$17hbfd06aec0e095371E', symObjAddr: 0xF70, symBinAddr: 0x71560, symSize: 0x60 }
  - { offsetInCU: 0x38BB, offset: 0x24B61D, size: 0x8, addend: 0x0, symName: '__ZN4core3ptr126drop_in_place$LT$core..option..Option$LT$$LP$syn..token..And$C$core..option..Option$LT$syn..lifetime..Lifetime$GT$$RP$$GT$$GT$17h45c5d73e12cdf6f0E', symObjAddr: 0xFD0, symBinAddr: 0x715C0, symSize: 0x30 }
  - { offsetInCU: 0x3B4A, offset: 0x24B8AC, size: 0x8, addend: 0x0, symName: '__ZN4core3ptr33drop_in_place$LT$syn..ty..Abi$GT$17h24b86e0564a98339E', symObjAddr: 0x1000, symBinAddr: 0x715F0, symSize: 0x70 }
  - { offsetInCU: 0x3B66, offset: 0x24B8C8, size: 0x8, addend: 0x0, symName: '__ZN4core3ptr33drop_in_place$LT$syn..ty..Abi$GT$17h24b86e0564a98339E', symObjAddr: 0x1000, symBinAddr: 0x715F0, symSize: 0x70 }
  - { offsetInCU: 0x3E3E, offset: 0x24BBA0, size: 0x8, addend: 0x0, symName: '__ZN4core3ptr34drop_in_place$LT$syn..lit..Lit$GT$17hd64dde89a262341dE', symObjAddr: 0x1070, symBinAddr: 0x71660, symSize: 0x120 }
  - { offsetInCU: 0x436A, offset: 0x24C0CC, size: 0x8, addend: 0x0, symName: '__ZN4core3ptr34drop_in_place$LT$syn..pat..Pat$GT$17hf88887878261d63cE.llvm.14025449986115119833', symObjAddr: 0x1190, symBinAddr: 0x71780, symSize: 0x11B0 }
  - { offsetInCU: 0x8BFA, offset: 0x25095C, size: 0x8, addend: 0x0, symName: '__ZN4core3ptr34drop_in_place$LT$syn..ty..Type$GT$17ha80dd29b0f9d4a3fE.llvm.14025449986115119833', symObjAddr: 0x2340, symBinAddr: 0x72930, symSize: 0x510 }
  - { offsetInCU: 0x9C3C, offset: 0x25199E, size: 0x8, addend: 0x0, symName: '__ZN4core3ptr35drop_in_place$LT$syn..expr..Arm$GT$17hd729aea1406305a9E.llvm.14025449986115119833', symObjAddr: 0x2850, symBinAddr: 0x72E40, symSize: 0x170 }
  - { offsetInCU: 0xA2AA, offset: 0x25200C, size: 0x8, addend: 0x0, symName: '__ZN4core3ptr36drop_in_place$LT$syn..attr..Meta$GT$17h10362c0b846e6e23E.llvm.14025449986115119833', symObjAddr: 0x29C0, symBinAddr: 0x72FB0, symSize: 0x320 }
  - { offsetInCU: 0xB21F, offset: 0x252F81, size: 0x8, addend: 0x0, symName: '__ZN4core3ptr36drop_in_place$LT$syn..expr..Expr$GT$17h10f573b40ddd212cE.llvm.14025449986115119833', symObjAddr: 0x2CE0, symBinAddr: 0x732D0, symSize: 0x25E0 }
  - { offsetInCU: 0x14DC7, offset: 0x25CB29, size: 0x8, addend: 0x0, symName: '__ZN4core3ptr36drop_in_place$LT$syn..item..Item$GT$17haa59cf9e39ab8cebE.llvm.14025449986115119833', symObjAddr: 0x52C0, symBinAddr: 0x758B0, symSize: 0x17C0 }
  - { offsetInCU: 0x1A7F5, offset: 0x262557, size: 0x8, addend: 0x0, symName: '__ZN4core3ptr36drop_in_place$LT$syn..mac..Macro$GT$17hc3b30a7a8a34cc2dE', symObjAddr: 0x6A80, symBinAddr: 0x77070, symSize: 0xE0 }
  - { offsetInCU: 0x1AB5D, offset: 0x2628BF, size: 0x8, addend: 0x0, symName: '__ZN4core3ptr36drop_in_place$LT$syn..path..Path$GT$17h75c74a97d5f0a03bE.llvm.14025449986115119833', symObjAddr: 0x6B60, symBinAddr: 0x77150, symSize: 0x180 }
  - { offsetInCU: 0x1B187, offset: 0x262EE9, size: 0x8, addend: 0x0, symName: '__ZN4core3ptr36drop_in_place$LT$syn..stmt..Stmt$GT$17hc4f94563f060e25dE.llvm.14025449986115119833', symObjAddr: 0x6CE0, symBinAddr: 0x772D0, symSize: 0x380 }
  - { offsetInCU: 0x1BDDD, offset: 0x263B3F, size: 0x8, addend: 0x0, symName: '__ZN4core3ptr37drop_in_place$LT$syn..data..Field$GT$17hb03070569ab32babE.llvm.14025449986115119833', symObjAddr: 0x7060, symBinAddr: 0x77650, symSize: 0x190 }
  - { offsetInCU: 0x1C3CD, offset: 0x26412F, size: 0x8, addend: 0x0, symName: '__ZN4core3ptr37drop_in_place$LT$syn..item..FnArg$GT$17h470fdeee5cba5e3aE.llvm.14025449986115119833', symObjAddr: 0x71F0, symBinAddr: 0x777E0, symSize: 0x230 }
  - { offsetInCU: 0x1CCE4, offset: 0x264A46, size: 0x8, addend: 0x0, symName: '__ZN4core3ptr37drop_in_place$LT$syn..stmt..Block$GT$17h6fc3254d5688f2c3E', symObjAddr: 0x7420, symBinAddr: 0x77A10, symSize: 0xD0 }
  - { offsetInCU: 0x1CFC2, offset: 0x264D24, size: 0x8, addend: 0x0, symName: '__ZN4core3ptr38drop_in_place$LT$syn..expr..ExprIf$GT$17ha8d3c2042f45d05fE.llvm.14025449986115119833', symObjAddr: 0x74F0, symBinAddr: 0x77AE0, symSize: 0x1B0 }
  - { offsetInCU: 0x1D89C, offset: 0x2655FE, size: 0x8, addend: 0x0, symName: '__ZN4core3ptr38drop_in_place$LT$syn..expr..Member$GT$17h6b0cf84594ce6bceE.llvm.14025449986115119833', symObjAddr: 0x76A0, symBinAddr: 0x77C90, symSize: 0x30 }
  - { offsetInCU: 0x1D998, offset: 0x2656FA, size: 0x8, addend: 0x0, symName: '__ZN4core3ptr38drop_in_place$LT$syn..pat..PatType$GT$17h835dce85ba90235eE.llvm.14025449986115119833', symObjAddr: 0x76D0, symBinAddr: 0x77CC0, symSize: 0x140 }
  - { offsetInCU: 0x1DF4A, offset: 0x265CAC, size: 0x8, addend: 0x0, symName: '__ZN4core3ptr39drop_in_place$LT$proc_macro2..Ident$GT$17ha28fef9769e267d9E.llvm.14025449986115119833', symObjAddr: 0x7810, symBinAddr: 0x77E00, symSize: 0x30 }
  - { offsetInCU: 0x1E15D, offset: 0x265EBF, size: 0x8, addend: 0x0, symName: '__ZN4core3ptr39drop_in_place$LT$syn..buffer..Entry$GT$17he93ada413d4474f7E.llvm.14025449986115119833', symObjAddr: 0x7840, symBinAddr: 0x77E30, symSize: 0xB0 }
  - { offsetInCU: 0x1E545, offset: 0x2662A7, size: 0x8, addend: 0x0, symName: '__ZN4core3ptr39drop_in_place$LT$syn..data..Variant$GT$17h92766dd8637b4069E.llvm.14025449986115119833', symObjAddr: 0x78F0, symBinAddr: 0x77EE0, symSize: 0x2F0 }
  - { offsetInCU: 0x1F1E0, offset: 0x266F42, size: 0x8, addend: 0x0, symName: '__ZN4core3ptr39drop_in_place$LT$syn..item..UseTree$GT$17h7288572c631f954aE.llvm.14025449986115119833', symObjAddr: 0x7BE0, symBinAddr: 0x781D0, symSize: 0x1E0 }
  - { offsetInCU: 0x1F939, offset: 0x26769B, size: 0x8, addend: 0x0, symName: '__ZN4core3ptr40drop_in_place$LT$syn..item..ImplItem$GT$17h98907b2080b0ccb0E', symObjAddr: 0x7DC0, symBinAddr: 0x783B0, symSize: 0x220 }
  - { offsetInCU: 0x1FF86, offset: 0x267CE8, size: 0x8, addend: 0x0, symName: '__ZN4core3ptr40drop_in_place$LT$syn..item..Receiver$GT$17h5e68a437c3b8e574E.llvm.14025449986115119833', symObjAddr: 0x7FE0, symBinAddr: 0x785D0, symSize: 0x130 }
  - { offsetInCU: 0x20584, offset: 0x2682E6, size: 0x8, addend: 0x0, symName: '__ZN4core3ptr40drop_in_place$LT$syn..item..Variadic$GT$17hf9d4ebdb0f5e723aE', symObjAddr: 0x8110, symBinAddr: 0x78700, symSize: 0x120 }
  - { offsetInCU: 0x20A27, offset: 0x268789, size: 0x8, addend: 0x0, symName: '__ZN4core3ptr40drop_in_place$LT$syn..ty..ReturnType$GT$17h035a612e322b6510E.llvm.14025449986115119833', symObjAddr: 0x8230, symBinAddr: 0x78820, symSize: 0x50 }
  - { offsetInCU: 0x20CEC, offset: 0x268A4E, size: 0x8, addend: 0x0, symName: '__ZN4core3ptr41drop_in_place$LT$syn..item..Signature$GT$17h41f785211ad8eb02E', symObjAddr: 0x8280, symBinAddr: 0x78870, symSize: 0x270 }
  - { offsetInCU: 0x21801, offset: 0x269563, size: 0x8, addend: 0x0, symName: '__ZN4core3ptr41drop_in_place$LT$syn..item..TraitItem$GT$17hc74edaa948c160a2E', symObjAddr: 0x84F0, symBinAddr: 0x78AE0, symSize: 0x3D0 }
  - { offsetInCU: 0x2243F, offset: 0x26A1A1, size: 0x8, addend: 0x0, symName: '__ZN4core3ptr41drop_in_place$LT$syn..stmt..LocalInit$GT$17h30b5fda37459e0baE', symObjAddr: 0x88C0, symBinAddr: 0x78EB0, symSize: 0xC0 }
  - { offsetInCU: 0x2272F, offset: 0x26A491, size: 0x8, addend: 0x0, symName: '__ZN4core3ptr42drop_in_place$LT$syn..item..ImplItemFn$GT$17haf8f89161f0a8aa1E', symObjAddr: 0x8980, symBinAddr: 0x78F70, symSize: 0x230 }
  - { offsetInCU: 0x22ED3, offset: 0x26AC35, size: 0x8, addend: 0x0, symName: '__ZN4core3ptr42drop_in_place$LT$syn..path..Constraint$GT$17h367871d1e7e54db0E', symObjAddr: 0x8BB0, symBinAddr: 0x791A0, symSize: 0x160 }
  - { offsetInCU: 0x2346A, offset: 0x26B1CC, size: 0x8, addend: 0x0, symName: '__ZN4core3ptr43drop_in_place$LT$proc_macro2..TokenTree$GT$17h3cbee0aa221130b6E.llvm.14025449986115119833', symObjAddr: 0x8D10, symBinAddr: 0x79300, symSize: 0xB0 }
  - { offsetInCU: 0x237C5, offset: 0x26B527, size: 0x8, addend: 0x0, symName: '__ZN4core3ptr43drop_in_place$LT$syn..data..FieldsNamed$GT$17h56bef6f151514865E', symObjAddr: 0x8DC0, symBinAddr: 0x793B0, symSize: 0x120 }
  - { offsetInCU: 0x23C89, offset: 0x26B9EB, size: 0x8, addend: 0x0, symName: '__ZN4core3ptr43drop_in_place$LT$syn..item..ForeignItem$GT$17h8033abfc56dac52fE', symObjAddr: 0x8EE0, symBinAddr: 0x794D0, symSize: 0x340 }
  - { offsetInCU: 0x2469A, offset: 0x26C3FC, size: 0x8, addend: 0x0, symName: '__ZN4core3ptr43drop_in_place$LT$syn..path..PathSegment$GT$17h903332e979944cf4E.llvm.14025449986115119833', symObjAddr: 0x9220, symBinAddr: 0x79810, symSize: 0x190 }
  - { offsetInCU: 0x24C79, offset: 0x26C9DB, size: 0x8, addend: 0x0, symName: '__ZN4core3ptr44drop_in_place$LT$syn..generics..Generics$GT$17h671de917167f8b66E', symObjAddr: 0x93B0, symBinAddr: 0x799A0, symSize: 0x240 }
  - { offsetInCU: 0x255BA, offset: 0x26D31C, size: 0x8, addend: 0x0, symName: '__ZN4core3ptr44drop_in_place$LT$syn..item..ImplItemType$GT$17hb32b6c30c762cdafE', symObjAddr: 0x95F0, symBinAddr: 0x79BE0, symSize: 0x1F0 }
  - { offsetInCU: 0x25BCD, offset: 0x26D92F, size: 0x8, addend: 0x0, symName: '__ZN4core3ptr44drop_in_place$LT$syn..lifetime..Lifetime$GT$17he37fa474f03de7b1E.llvm.14025449986115119833', symObjAddr: 0x97E0, symBinAddr: 0x79DD0, symSize: 0x30 }
  - { offsetInCU: 0x25D26, offset: 0x26DA88, size: 0x8, addend: 0x0, symName: '__ZN4core3ptr45drop_in_place$LT$proc_macro2..TokenStream$GT$17h76e8e68015f4924dE.llvm.14025449986115119833', symObjAddr: 0x9810, symBinAddr: 0x79E00, symSize: 0x70 }
  - { offsetInCU: 0x25E8D, offset: 0x26DBEF, size: 0x8, addend: 0x0, symName: '__ZN4core3ptr45drop_in_place$LT$syn..generics..TypeParam$GT$17h188a459c1380ac75E.llvm.14025449986115119833', symObjAddr: 0x9880, symBinAddr: 0x79E70, symSize: 0x230 }
  - { offsetInCU: 0x2672B, offset: 0x26E48D, size: 0x8, addend: 0x0, symName: '__ZN4core3ptr45drop_in_place$LT$syn..item..ImplItemConst$GT$17he161f4752ea1c79dE', symObjAddr: 0x9AB0, symBinAddr: 0x7A0A0, symSize: 0x210 }
  - { offsetInCU: 0x26D7C, offset: 0x26EADE, size: 0x8, addend: 0x0, symName: '__ZN4core3ptr45drop_in_place$LT$syn..item..TraitItemType$GT$17h3e36cd56ba987949E', symObjAddr: 0x9CC0, symBinAddr: 0x7A2B0, symSize: 0x290 }
  - { offsetInCU: 0x276E6, offset: 0x26F448, size: 0x8, addend: 0x0, symName: '__ZN4core3ptr45drop_in_place$LT$syn..path..PathArguments$GT$17hdbc6dfac6f3334e6E.llvm.14025449986115119833', symObjAddr: 0x9F50, symBinAddr: 0x7A540, symSize: 0xB0 }
  - { offsetInCU: 0x278B7, offset: 0x26F619, size: 0x8, addend: 0x0, symName: '__ZN4core3ptr46drop_in_place$LT$$u5b$syn..stmt..Stmt$u5d$$GT$17h24e62e137a325f40E.llvm.14025449986115119833', symObjAddr: 0xA000, symBinAddr: 0x7A5F0, symSize: 0x2F0 }
  - { offsetInCU: 0x27F67, offset: 0x26FCC9, size: 0x8, addend: 0x0, symName: '__ZN4core3ptr46drop_in_place$LT$syn..generics..ConstParam$GT$17h7a9b900b2b88bfcdE.llvm.14025449986115119833', symObjAddr: 0xA2F0, symBinAddr: 0x7A8E0, symSize: 0x150 }
  - { offsetInCU: 0x28395, offset: 0x2700F7, size: 0x8, addend: 0x0, symName: '__ZN4core3ptr46drop_in_place$LT$syn..item..TraitItemConst$GT$17h1a851cb668e4b13cE', symObjAddr: 0xA440, symBinAddr: 0x7AA30, symSize: 0x1B0 }
  - { offsetInCU: 0x28876, offset: 0x2705D8, size: 0x8, addend: 0x0, symName: '__ZN4core3ptr47drop_in_place$LT$syn..generics..WhereClause$GT$17h1a748a69ca415614E', symObjAddr: 0xA5F0, symBinAddr: 0x7ABE0, symSize: 0x120 }
  - { offsetInCU: 0x28CFC, offset: 0x270A5E, size: 0x8, addend: 0x0, symName: '__ZN4core3ptr47drop_in_place$LT$syn..item..ForeignItemType$GT$17ha3462b8591c7bc98E', symObjAddr: 0xA710, symBinAddr: 0x7AD00, symSize: 0x1B0 }
  - { offsetInCU: 0x2936A, offset: 0x2710CC, size: 0x8, addend: 0x0, symName: '__ZN4core3ptr47drop_in_place$LT$syn..path..GenericArgument$GT$17h593f06d6ca9a94d2E.llvm.14025449986115119833', symObjAddr: 0xA8C0, symBinAddr: 0x7AEB0, symSize: 0x1C0 }
  - { offsetInCU: 0x2982E, offset: 0x271590, size: 0x8, addend: 0x0, symName: '__ZN4core3ptr48drop_in_place$LT$syn..generics..GenericParam$GT$17hd6859d95c1b7c168E.llvm.14025449986115119833', symObjAddr: 0xAA80, symBinAddr: 0x7B070, symSize: 0x150 }
  - { offsetInCU: 0x29C54, offset: 0x2719B6, size: 0x8, addend: 0x0, symName: '__ZN4core3ptr49drop_in_place$LT$syn..generics..LifetimeParam$GT$17h3a8835ab294bfd16E.llvm.14025449986115119833', symObjAddr: 0xABD0, symBinAddr: 0x7B1C0, symSize: 0xF0 }
  - { offsetInCU: 0x2A05F, offset: 0x271DC1, size: 0x8, addend: 0x0, symName: '__ZN4core3ptr49drop_in_place$LT$syn..generics..PredicateType$GT$17h28460a55196bd45fE.llvm.14025449986115119833', symObjAddr: 0xACC0, symBinAddr: 0x7B2B0, symSize: 0x180 }
  - { offsetInCU: 0x2A517, offset: 0x272279, size: 0x8, addend: 0x0, symName: '__ZN4core3ptr49drop_in_place$LT$syn..item..ForeignItemStatic$GT$17h0b4273b292bce45dE', symObjAddr: 0xAE40, symBinAddr: 0x7B430, symSize: 0x190 }
  - { offsetInCU: 0x2AC19, offset: 0x27297B, size: 0x8, addend: 0x0, symName: '__ZN4core3ptr50drop_in_place$LT$$u5b$syn..item..ImplItem$u5d$$GT$17h9b63e3c09d4f2fecE.llvm.14025449986115119833', symObjAddr: 0xAFD0, symBinAddr: 0x7B5C0, symSize: 0x210 }
  - { offsetInCU: 0x2AF8D, offset: 0x272CEF, size: 0x8, addend: 0x0, symName: '__ZN4core3ptr50drop_in_place$LT$syn..generics..TypeParamBound$GT$17h81b4325b5900604dE.llvm.14025449986115119833', symObjAddr: 0xB1E0, symBinAddr: 0x7B7D0, symSize: 0xA0 }
  - { offsetInCU: 0x2B112, offset: 0x272E74, size: 0x8, addend: 0x0, symName: '__ZN4core3ptr50drop_in_place$LT$syn..generics..WherePredicate$GT$17h1dcd41fbf166681cE.llvm.14025449986115119833', symObjAddr: 0xB280, symBinAddr: 0x7B870, symSize: 0xA0 }
  - { offsetInCU: 0x2B2C2, offset: 0x273024, size: 0x8, addend: 0x0, symName: '__ZN4core3ptr51drop_in_place$LT$$u5b$syn..item..TraitItem$u5d$$GT$17hfac7130e0b19ef2eE.llvm.14025449986115119833', symObjAddr: 0xB320, symBinAddr: 0x7B910, symSize: 0x3E0 }
  - { offsetInCU: 0x2BC64, offset: 0x2739C6, size: 0x8, addend: 0x0, symName: '__ZN4core3ptr52drop_in_place$LT$syn..restriction..VisRestricted$GT$17h3b9d7a9742b1c345E', symObjAddr: 0xB700, symBinAddr: 0x7BCF0, symSize: 0x50 }
  - { offsetInCU: 0x2BDFB, offset: 0x273B5D, size: 0x8, addend: 0x0, symName: '__ZN4core3ptr53drop_in_place$LT$$u5b$syn..item..ForeignItem$u5d$$GT$17h566f3fc649dbb42bE.llvm.14025449986115119833', symObjAddr: 0xB750, symBinAddr: 0x7BD40, symSize: 0x370 }
  - { offsetInCU: 0x2C619, offset: 0x27437B, size: 0x8, addend: 0x0, symName: '__ZN4core3ptr58drop_in_place$LT$alloc..vec..Vec$LT$syn..expr..Arm$GT$$GT$17hff9224aadf2233b8E.llvm.14025449986115119833', symObjAddr: 0xBAE0, symBinAddr: 0x7C0B0, symSize: 0xD0 }
  - { offsetInCU: 0x2C8E0, offset: 0x274642, size: 0x8, addend: 0x0, symName: '__ZN4core3ptr59drop_in_place$LT$alloc..boxed..Box$LT$syn..pat..Pat$GT$$GT$17h622b0c1db21c0742E.llvm.14025449986115119833', symObjAddr: 0xBBB0, symBinAddr: 0x7C180, symSize: 0x50 }
  - { offsetInCU: 0x2CA39, offset: 0x27479B, size: 0x8, addend: 0x0, symName: '__ZN4core3ptr59drop_in_place$LT$alloc..boxed..Box$LT$syn..ty..Type$GT$$GT$17hde45fa887dd8b605E.llvm.14025449986115119833', symObjAddr: 0xBC00, symBinAddr: 0x7C1D0, symSize: 0x50 }
  - { offsetInCU: 0x2CB92, offset: 0x2748F4, size: 0x8, addend: 0x0, symName: '__ZN4core3ptr59drop_in_place$LT$alloc..vec..Vec$LT$syn..item..Item$GT$$GT$17h8590e8c8e196c3c2E.llvm.14025449986115119833', symObjAddr: 0xBC50, symBinAddr: 0x7C220, symSize: 0xD0 }
  - { offsetInCU: 0x2CE59, offset: 0x274BBB, size: 0x8, addend: 0x0, symName: '__ZN4core3ptr59drop_in_place$LT$alloc..vec..Vec$LT$syn..stmt..Stmt$GT$$GT$17h6cf3e54f41bc03bdE.llvm.14025449986115119833', symObjAddr: 0xBD20, symBinAddr: 0x7C2F0, symSize: 0x80 }
  - { offsetInCU: 0x2D111, offset: 0x274E73, size: 0x8, addend: 0x0, symName: '__ZN4core3ptr61drop_in_place$LT$alloc..boxed..Box$LT$syn..expr..Expr$GT$$GT$17hbb42293869113942E', symObjAddr: 0xBDA0, symBinAddr: 0x7C370, symSize: 0x50 }
  - { offsetInCU: 0x2D26A, offset: 0x274FCC, size: 0x8, addend: 0x0, symName: '__ZN4core3ptr61drop_in_place$LT$alloc..boxed..Box$LT$syn..path..Path$GT$$GT$17h038a2aea8fe87c28E', symObjAddr: 0xBDF0, symBinAddr: 0x7C3C0, symSize: 0x100 }
  - { offsetInCU: 0x2D78A, offset: 0x2754EC, size: 0x8, addend: 0x0, symName: '__ZN4core3ptr61drop_in_place$LT$syn..path..ParenthesizedGenericArguments$GT$17h6b1731382637937fE', symObjAddr: 0xBEF0, symBinAddr: 0x7C4C0, symSize: 0x170 }
  - { offsetInCU: 0x2DD87, offset: 0x275AE9, size: 0x8, addend: 0x0, symName: '__ZN4core3ptr62drop_in_place$LT$alloc..boxed..Box$LT$syn..data..Field$GT$$GT$17hd46c7cc6f292f643E', symObjAddr: 0xC060, symBinAddr: 0x7C630, symSize: 0x50 }
  - { offsetInCU: 0x2DEFF, offset: 0x275C61, size: 0x8, addend: 0x0, symName: '__ZN4core3ptr62drop_in_place$LT$alloc..boxed..Box$LT$syn..item..FnArg$GT$$GT$17haeb55dec21588d58E', symObjAddr: 0xC0B0, symBinAddr: 0x7C680, symSize: 0x60 }
  - { offsetInCU: 0x2E075, offset: 0x275DD7, size: 0x8, addend: 0x0, symName: '__ZN4core3ptr62drop_in_place$LT$alloc..boxed..Box$LT$syn..stmt..Block$GT$$GT$17h21dcb5adf0237a12E', symObjAddr: 0xC110, symBinAddr: 0x7C6E0, symSize: 0xE0 }
  - { offsetInCU: 0x2E4CC, offset: 0x27622E, size: 0x8, addend: 0x0, symName: '__ZN4core3ptr62drop_in_place$LT$alloc..vec..Vec$LT$syn..buffer..Entry$GT$$GT$17h17f61a784aa49e8bE.llvm.14025449986115119833', symObjAddr: 0xC1F0, symBinAddr: 0x7C7C0, symSize: 0xC0 }
  - { offsetInCU: 0x2E7A4, offset: 0x276506, size: 0x8, addend: 0x0, symName: '__ZN4core3ptr62drop_in_place$LT$syn..path..AngleBracketedGenericArguments$GT$17hf8fa172f007a1473E', symObjAddr: 0xC2B0, symBinAddr: 0x7C880, symSize: 0x120 }
  - { offsetInCU: 0x2EC2A, offset: 0x27698C, size: 0x8, addend: 0x0, symName: '__ZN4core3ptr63drop_in_place$LT$alloc..vec..Vec$LT$syn..item..ImplItem$GT$$GT$17hc51fca07e67d35aeE.llvm.14025449986115119833', symObjAddr: 0xC3D0, symBinAddr: 0x7C9A0, symSize: 0x80 }
  - { offsetInCU: 0x2EEE2, offset: 0x276C44, size: 0x8, addend: 0x0, symName: '__ZN4core3ptr64drop_in_place$LT$alloc..boxed..Box$LT$syn..data..Variant$GT$$GT$17h9ea21bed4984fdbcE', symObjAddr: 0xC450, symBinAddr: 0x7CA20, symSize: 0x50 }
  - { offsetInCU: 0x2F03B, offset: 0x276D9D, size: 0x8, addend: 0x0, symName: '__ZN4core3ptr64drop_in_place$LT$alloc..boxed..Box$LT$syn..item..UseTree$GT$$GT$17he4d7024582150632E', symObjAddr: 0xC4A0, symBinAddr: 0x7CA70, symSize: 0x50 }
  - { offsetInCU: 0x2F1D2, offset: 0x276F34, size: 0x8, addend: 0x0, symName: '__ZN4core3ptr64drop_in_place$LT$alloc..boxed..Box$LT$syn..pat..FieldPat$GT$$GT$17hbf8f4867d84bd25dE', symObjAddr: 0xC4F0, symBinAddr: 0x7CAC0, symSize: 0x140 }
  - { offsetInCU: 0x2F89C, offset: 0x2775FE, size: 0x8, addend: 0x0, symName: '__ZN4core3ptr64drop_in_place$LT$alloc..boxed..Box$LT$syn..ty..BareFnArg$GT$$GT$17h6be6354eb1d1364dE', symObjAddr: 0xC630, symBinAddr: 0x7CC00, symSize: 0x140 }
  - { offsetInCU: 0x2FE2F, offset: 0x277B91, size: 0x8, addend: 0x0, symName: '__ZN4core3ptr64drop_in_place$LT$alloc..vec..Vec$LT$syn..attr..Attribute$GT$$GT$17he33e25539d5885aeE.llvm.14025449986115119833', symObjAddr: 0xC770, symBinAddr: 0x7CD40, symSize: 0xD0 }
  - { offsetInCU: 0x3012A, offset: 0x277E8C, size: 0x8, addend: 0x0, symName: '__ZN4core3ptr64drop_in_place$LT$alloc..vec..Vec$LT$syn..item..TraitItem$GT$$GT$17hff1cc01ccae80d7aE.llvm.14025449986115119833', symObjAddr: 0xC840, symBinAddr: 0x7CE10, symSize: 0x80 }
  - { offsetInCU: 0x303E2, offset: 0x278144, size: 0x8, addend: 0x0, symName: '__ZN4core3ptr65drop_in_place$LT$$LP$syn..item..FnArg$C$syn..token..Comma$RP$$GT$17heafa789770a727bbE.llvm.14025449986115119833', symObjAddr: 0xC8C0, symBinAddr: 0x7CE90, symSize: 0x20 }
  - { offsetInCU: 0x3047B, offset: 0x2781DD, size: 0x8, addend: 0x0, symName: '__ZN4core3ptr65drop_in_place$LT$alloc..vec..Vec$LT$proc_macro..TokenTree$GT$$GT$17h8abd81f8596dbc59E.llvm.14025449986115119833', symObjAddr: 0xC8E0, symBinAddr: 0x7CEB0, symSize: 0x110 }
  - { offsetInCU: 0x3088D, offset: 0x2785EF, size: 0x8, addend: 0x0, symName: '__ZN4core3ptr65drop_in_place$LT$core..option..Option$LT$syn..expr..Label$GT$$GT$17hac599686b33ef364E', symObjAddr: 0xC9F0, symBinAddr: 0x7CFC0, symSize: 0x30 }
  - { offsetInCU: 0x309C7, offset: 0x278729, size: 0x8, addend: 0x0, symName: '__ZN4core3ptr65drop_in_place$LT$core..option..Option$LT$syn..stmt..Block$GT$$GT$17h74f2551ed24e2d27E', symObjAddr: 0xCA20, symBinAddr: 0x7CFF0, symSize: 0xD0 }
  - { offsetInCU: 0x30CDA, offset: 0x278A3C, size: 0x8, addend: 0x0, symName: '__ZN4core3ptr66drop_in_place$LT$alloc..vec..Vec$LT$proc_macro2..TokenTree$GT$$GT$17hddd511686bdb58d1E', symObjAddr: 0xCAF0, symBinAddr: 0x7D0C0, symSize: 0xC0 }
  - { offsetInCU: 0x30FB2, offset: 0x278D14, size: 0x8, addend: 0x0, symName: '__ZN4core3ptr66drop_in_place$LT$alloc..vec..Vec$LT$syn..item..ForeignItem$GT$$GT$17h1f176e04eaf5e0dfE.llvm.14025449986115119833', symObjAddr: 0xCBB0, symBinAddr: 0x7D180, symSize: 0x80 }
  - { offsetInCU: 0x3126A, offset: 0x278FCC, size: 0x8, addend: 0x0, symName: '__ZN4core3ptr67drop_in_place$LT$$LP$syn..pat..FieldPat$C$syn..token..Comma$RP$$GT$17h27317b85bbb0d5a5E.llvm.14025449986115119833', symObjAddr: 0xCC30, symBinAddr: 0x7D200, symSize: 0x120 }
  - { offsetInCU: 0x317FF, offset: 0x279561, size: 0x8, addend: 0x0, symName: '__ZN4core3ptr67drop_in_place$LT$$LP$syn..ty..BareFnArg$C$syn..token..Comma$RP$$GT$17h983f3d51957c3a07E.llvm.14025449986115119833', symObjAddr: 0xCD50, symBinAddr: 0x7D320, symSize: 0x110 }
  - { offsetInCU: 0x31C7D, offset: 0x2799DF, size: 0x8, addend: 0x0, symName: '__ZN4core3ptr67drop_in_place$LT$alloc..boxed..Box$LT$syn..expr..FieldValue$GT$$GT$17hbbcf67a9d5e9863cE', symObjAddr: 0xCE60, symBinAddr: 0x7D430, symSize: 0x140 }
  - { offsetInCU: 0x321F0, offset: 0x279F52, size: 0x8, addend: 0x0, symName: '__ZN4core3ptr68drop_in_place$LT$alloc..boxed..Box$LT$syn..path..PathSegment$GT$$GT$17h99aaf90b3262bc1eE', symObjAddr: 0xCFA0, symBinAddr: 0x7D570, symSize: 0xF0 }
  - { offsetInCU: 0x325F2, offset: 0x27A354, size: 0x8, addend: 0x0, symName: '__ZN4core3ptr69drop_in_place$LT$core..option..Option$LT$syn..stmt..LocalInit$GT$$GT$17h0978f9ea6e6b3bd1E', symObjAddr: 0xD120, symBinAddr: 0x7D660, symSize: 0xC0 }
  - { offsetInCU: 0x32916, offset: 0x27A678, size: 0x8, addend: 0x0, symName: '__ZN4core3ptr70drop_in_place$LT$$LP$syn..expr..FieldValue$C$syn..token..Comma$RP$$GT$17h7bfdad78936e9ce8E.llvm.14025449986115119833', symObjAddr: 0xD1E0, symBinAddr: 0x7D720, symSize: 0x110 }
  - { offsetInCU: 0x32D55, offset: 0x27AAB7, size: 0x8, addend: 0x0, symName: '__ZN4core3ptr70drop_in_place$LT$core..option..Option$LT$syn..ty..BareVariadic$GT$$GT$17h79a19250e9f043b1E', symObjAddr: 0xD2F0, symBinAddr: 0x7D830, symSize: 0x100 }
  - { offsetInCU: 0x331B4, offset: 0x27AF16, size: 0x8, addend: 0x0, symName: '__ZN4core3ptr72drop_in_place$LT$alloc..boxed..Box$LT$syn..path..GenericArgument$GT$$GT$17hfd308d374af4273dE.llvm.14025449986115119833', symObjAddr: 0xD3F0, symBinAddr: 0x7D930, symSize: 0x190 }
  - { offsetInCU: 0x3367C, offset: 0x27B3DE, size: 0x8, addend: 0x0, symName: '__ZN4core3ptr73drop_in_place$LT$$LP$syn..path..PathSegment$C$syn..token..PathSep$RP$$GT$17he36d39e19c04f3acE.llvm.14025449986115119833', symObjAddr: 0xD580, symBinAddr: 0x7DAC0, symSize: 0xD0 }
  - { offsetInCU: 0x3393F, offset: 0x27B6A1, size: 0x8, addend: 0x0, symName: '__ZN4core3ptr73drop_in_place$LT$alloc..boxed..Box$LT$syn..generics..GenericParam$GT$$GT$17ha26d5d145af4b203E', symObjAddr: 0xD650, symBinAddr: 0x7DB90, symSize: 0x80 }
  - { offsetInCU: 0x33AB5, offset: 0x27B817, size: 0x8, addend: 0x0, symName: '__ZN4core3ptr75drop_in_place$LT$$LP$syn..path..GenericArgument$C$syn..token..Comma$RP$$GT$17hfc5ffe6787775104E.llvm.14025449986115119833', symObjAddr: 0xD6D0, symBinAddr: 0x7DC10, symSize: 0x180 }
  - { offsetInCU: 0x33E43, offset: 0x27BBA5, size: 0x8, addend: 0x0, symName: '__ZN4core3ptr75drop_in_place$LT$alloc..boxed..Box$LT$syn..generics..TypeParamBound$GT$$GT$17h129a4e927e5eb81bE', symObjAddr: 0xD850, symBinAddr: 0x7DD90, symSize: 0x180 }
  - { offsetInCU: 0x3440D, offset: 0x27C16F, size: 0x8, addend: 0x0, symName: '__ZN4core3ptr75drop_in_place$LT$alloc..boxed..Box$LT$syn..generics..WherePredicate$GT$$GT$17h9bdeede2dbadbeb6E', symObjAddr: 0xD9D0, symBinAddr: 0x7DF10, symSize: 0x80 }
  - { offsetInCU: 0x346A4, offset: 0x27C406, size: 0x8, addend: 0x0, symName: '__ZN4core3ptr76drop_in_place$LT$$LP$syn..generics..GenericParam$C$syn..token..Comma$RP$$GT$17hfa938bd7ff9e78c2E.llvm.14025449986115119833', symObjAddr: 0xDA50, symBinAddr: 0x7DF90, symSize: 0x40 }
  - { offsetInCU: 0x346E0, offset: 0x27C442, size: 0x8, addend: 0x0, symName: '__ZN4core3ptr77drop_in_place$LT$$LP$syn..generics..TypeParamBound$C$syn..token..Plus$RP$$GT$17h900d162b03245e2aE.llvm.14025449986115119833', symObjAddr: 0xDA90, symBinAddr: 0x7DFD0, symSize: 0x180 }
  - { offsetInCU: 0x34B7C, offset: 0x27C8DE, size: 0x8, addend: 0x0, symName: '__ZN4core3ptr78drop_in_place$LT$$LP$syn..generics..WherePredicate$C$syn..token..Comma$RP$$GT$17hdfe19ac5c370d71bE.llvm.14025449986115119833', symObjAddr: 0xDC10, symBinAddr: 0x7E150, symSize: 0x60 }
  - { offsetInCU: 0x34D36, offset: 0x27CA98, size: 0x8, addend: 0x0, symName: '__ZN4core3ptr86drop_in_place$LT$$LP$syn..token..If$C$alloc..boxed..Box$LT$syn..expr..Expr$GT$$RP$$GT$17hf09fe3e5c3a4feb0E', symObjAddr: 0xDE10, symBinAddr: 0x7E1B0, symSize: 0x50 }
  - { offsetInCU: 0x34EEC, offset: 0x27CC4E, size: 0x8, addend: 0x0, symName: '__ZN4core3ptr86drop_in_place$LT$syn..punctuated..Punctuated$LT$syn..pat..Pat$C$syn..token..Or$GT$$GT$17h9cc6b5f7b6d3a555E', symObjAddr: 0xDE60, symBinAddr: 0x7E200, symSize: 0x120 }
  - { offsetInCU: 0x35385, offset: 0x27D0E7, size: 0x8, addend: 0x0, symName: '__ZN4core3ptr87drop_in_place$LT$$LP$alloc..boxed..Box$LT$syn..pat..Pat$GT$$C$syn..token..Colon$RP$$GT$17h1f05e7b69125af95E', symObjAddr: 0xDF80, symBinAddr: 0x7E320, symSize: 0x50 }
  - { offsetInCU: 0x3555A, offset: 0x27D2BC, size: 0x8, addend: 0x0, symName: '__ZN4core3ptr87drop_in_place$LT$core..option..Option$LT$alloc..boxed..Box$LT$syn..ty..Type$GT$$GT$$GT$17h103a25a4a7d7374eE', symObjAddr: 0xE0A0, symBinAddr: 0x7E370, symSize: 0x50 }
  - { offsetInCU: 0x356CA, offset: 0x27D42C, size: 0x8, addend: 0x0, symName: '__ZN4core3ptr89drop_in_place$LT$core..option..Option$LT$alloc..boxed..Box$LT$syn..expr..Expr$GT$$GT$$GT$17h9e02509cb2345d44E', symObjAddr: 0xE280, symBinAddr: 0x7E3C0, symSize: 0x50 }
  - { offsetInCU: 0x3583A, offset: 0x27D59C, size: 0x8, addend: 0x0, symName: '__ZN4core3ptr89drop_in_place$LT$syn..punctuated..Punctuated$LT$syn..ty..Type$C$syn..token..Comma$GT$$GT$17he030c4b7f24a5848E.llvm.14025449986115119833', symObjAddr: 0xE2D0, symBinAddr: 0x7E410, symSize: 0x120 }
  - { offsetInCU: 0x35D95, offset: 0x27DAF7, size: 0x8, addend: 0x0, symName: '__ZN4core3ptr90drop_in_place$LT$core..option..Option$LT$alloc..boxed..Box$LT$syn..data..Field$GT$$GT$$GT$17h9f1aee8cd56c6727E', symObjAddr: 0xE730, symBinAddr: 0x7E530, symSize: 0x50 }
  - { offsetInCU: 0x35F05, offset: 0x27DC67, size: 0x8, addend: 0x0, symName: '__ZN4core3ptr90drop_in_place$LT$core..option..Option$LT$alloc..boxed..Box$LT$syn..item..FnArg$GT$$GT$$GT$17h8635495a730dc0bfE', symObjAddr: 0xE780, symBinAddr: 0x7E580, symSize: 0x50 }
  - { offsetInCU: 0x36094, offset: 0x27DDF6, size: 0x8, addend: 0x0, symName: '__ZN4core3ptr91drop_in_place$LT$syn..punctuated..Punctuated$LT$syn..expr..Expr$C$syn..token..Comma$GT$$GT$17h6f261e8f470c81f2E', symObjAddr: 0xE7D0, symBinAddr: 0x7E5D0, symSize: 0x120 }
  - { offsetInCU: 0x36529, offset: 0x27E28B, size: 0x8, addend: 0x0, symName: '__ZN4core3ptr92drop_in_place$LT$core..option..Option$LT$$LP$syn..token..As$C$proc_macro2..Ident$RP$$GT$$GT$17h12a88945917fa9dbE', symObjAddr: 0xE8F0, symBinAddr: 0x7E6F0, symSize: 0x30 }
  - { offsetInCU: 0x36644, offset: 0x27E3A6, size: 0x8, addend: 0x0, symName: '__ZN4core3ptr92drop_in_place$LT$syn..punctuated..Punctuated$LT$syn..data..Field$C$syn..token..Comma$GT$$GT$17hf8968831c552f88dE', symObjAddr: 0xE920, symBinAddr: 0x7E720, symSize: 0x120 }
  - { offsetInCU: 0x36ACA, offset: 0x27E82C, size: 0x8, addend: 0x0, symName: '__ZN4core3ptr92drop_in_place$LT$syn..punctuated..Punctuated$LT$syn..item..FnArg$C$syn..token..Comma$GT$$GT$17h7de33e77eabaea82E', symObjAddr: 0xEA40, symBinAddr: 0x7E840, symSize: 0x150 }
  - { offsetInCU: 0x37053, offset: 0x27EDB5, size: 0x8, addend: 0x0, symName: '__ZN4core3ptr94drop_in_place$LT$syn..punctuated..Punctuated$LT$syn..data..Variant$C$syn..token..Comma$GT$$GT$17h310cd79aba4529ccE', symObjAddr: 0xECF0, symBinAddr: 0x7E990, symSize: 0x120 }
  - { offsetInCU: 0x37526, offset: 0x27F288, size: 0x8, addend: 0x0, symName: '__ZN4core3ptr94drop_in_place$LT$syn..punctuated..Punctuated$LT$syn..pat..FieldPat$C$syn..token..Comma$GT$$GT$17h43ec25af986ef674E', symObjAddr: 0xEE10, symBinAddr: 0x7EAB0, symSize: 0xF0 }
  - { offsetInCU: 0x3787D, offset: 0x27F5DF, size: 0x8, addend: 0x0, symName: '__ZN4core3ptr94drop_in_place$LT$syn..punctuated..Punctuated$LT$syn..ty..BareFnArg$C$syn..token..Comma$GT$$GT$17h7ba4c699ee390ebaE', symObjAddr: 0xEF00, symBinAddr: 0x7EBA0, symSize: 0xF0 }
  - { offsetInCU: 0x37B98, offset: 0x27F8FA, size: 0x8, addend: 0x0, symName: '__ZN4core3ptr95drop_in_place$LT$core..option..Option$LT$$LP$proc_macro2..Ident$C$syn..token..Colon$RP$$GT$$GT$17h59fe297999aa3329E.llvm.14025449986115119833', symObjAddr: 0xEFF0, symBinAddr: 0x7EC90, symSize: 0x30 }
  - { offsetInCU: 0x37CB3, offset: 0x27FA15, size: 0x8, addend: 0x0, symName: '__ZN4core3ptr96drop_in_place$LT$core..option..Option$LT$alloc..boxed..Box$LT$syn..path..PathSegment$GT$$GT$$GT$17h5de12a5a0f9e9ef9E', symObjAddr: 0xF0F0, symBinAddr: 0x7ECC0, symSize: 0xA0 }
  - { offsetInCU: 0x37F8F, offset: 0x27FCF1, size: 0x8, addend: 0x0, symName: '__ZN4core3ptr97drop_in_place$LT$syn..punctuated..Punctuated$LT$syn..expr..FieldValue$C$syn..token..Comma$GT$$GT$17hf58d0a9a09266ab3E', symObjAddr: 0xF1E0, symBinAddr: 0x7ED60, symSize: 0xF0 }
  - { offsetInCU: 0x382E4, offset: 0x280046, size: 0x8, addend: 0x0, symName: '__ZN4core3ptr98drop_in_place$LT$syn..punctuated..Punctuated$LT$syn..lifetime..Lifetime$C$syn..token..Plus$GT$$GT$17h600c2b78f78fd2b9E.llvm.14025449986115119833', symObjAddr: 0xF3A0, symBinAddr: 0x7EE50, symSize: 0xD0 }
  - { offsetInCU: 0x38834, offset: 0x280596, size: 0x8, addend: 0x0, symName: '__ZN42_$LT$$RF$T$u20$as$u20$core..fmt..Debug$GT$3fmt17hd75f14d0cf92e165E', symObjAddr: 0x220, symBinAddr: 0x709B0, symSize: 0x80 }
  - { offsetInCU: 0x39F4F, offset: 0x281CB1, size: 0x8, addend: 0x0, symName: '__ZN48_$LT$T$u20$as$u20$core..clone..CloneToUninit$GT$15clone_to_uninit17h573d7a4ee27ed36aE', symObjAddr: 0x2A0, symBinAddr: 0x70A30, symSize: 0x330 }
  - { offsetInCU: 0x3AF45, offset: 0x282CA7, size: 0x8, addend: 0x0, symName: '__ZN136_$LT$alloc..vec..Vec$LT$T$C$A$GT$$u20$as$u20$alloc..vec..spec_extend..SpecExtend$LT$T$C$alloc..vec..into_iter..IntoIter$LT$T$GT$$GT$$GT$11spec_extend17hccc28cc1a2272c75E', symObjAddr: 0x100, symBinAddr: 0x70910, symSize: 0xA0 }
  - { offsetInCU: 0x3B277, offset: 0x282FD9, size: 0x8, addend: 0x0, symName: '__ZN97_$LT$alloc..vec..Vec$LT$T$C$A$GT$$u20$as$u20$alloc..vec..spec_extend..SpecExtend$LT$T$C$I$GT$$GT$11spec_extend17ha7b17e62345c5d54E', symObjAddr: 0x13200, symBinAddr: 0x7F450, symSize: 0x330 }
  - { offsetInCU: 0x3BC4F, offset: 0x2839B1, size: 0x8, addend: 0x0, symName: '__ZN65_$LT$alloc..vec..Vec$LT$T$C$A$GT$$u20$as$u20$core..fmt..Debug$GT$3fmt17h7df35ea0f5de10d6E', symObjAddr: 0xFA90, symBinAddr: 0x7EFB0, symSize: 0x80 }
  - { offsetInCU: 0x3BE65, offset: 0x283BC7, size: 0x8, addend: 0x0, symName: '__ZN67_$LT$alloc..vec..Vec$LT$T$C$A$GT$$u20$as$u20$core..clone..Clone$GT$5clone17h31bc48edccfa1915E', symObjAddr: 0x106A0, symBinAddr: 0x7F030, symSize: 0x240 }
  - { offsetInCU: 0x3C904, offset: 0x284666, size: 0x8, addend: 0x0, symName: '__ZN70_$LT$alloc..vec..Vec$LT$T$C$A$GT$$u20$as$u20$core..ops..drop..Drop$GT$4drop17h04459a2ad506febfE', symObjAddr: 0x11F60, symBinAddr: 0x7F270, symSize: 0xB0 }
  - { offsetInCU: 0x3C966, offset: 0x2846C8, size: 0x8, addend: 0x0, symName: '__ZN70_$LT$alloc..vec..Vec$LT$T$C$A$GT$$u20$as$u20$core..ops..drop..Drop$GT$4drop17h16fdfee690a97aabE', symObjAddr: 0x12150, symBinAddr: 0x7F320, symSize: 0xB0 }
  - { offsetInCU: 0x3CAE1, offset: 0x284843, size: 0x8, addend: 0x0, symName: '__ZN70_$LT$alloc..vec..Vec$LT$T$C$A$GT$$u20$as$u20$core..ops..drop..Drop$GT$4drop17h24dac77de93830d0E', symObjAddr: 0x12330, symBinAddr: 0x7F3D0, symSize: 0x80 }
  - { offsetInCU: 0x3FAFB, offset: 0x28785D, size: 0x8, addend: 0x0, symName: '__ZN5alloc3vec16Vec$LT$T$C$A$GT$16into_boxed_slice17hf01fc5c9dc27910bE', symObjAddr: 0xF5D0, symBinAddr: 0x7EF20, symSize: 0x90 }
  - { offsetInCU: 0x1E, offset: 0x296B1F, size: 0x8, addend: 0x0, symName: '__ZN4core3ptr100drop_in_place$LT$core..option..Option$LT$alloc..boxed..Box$LT$syn..path..GenericArgument$GT$$GT$$GT$17h3a7c44b9e57fe410E', symObjAddr: 0x0, symBinAddr: 0x7F780, symSize: 0x50 }
  - { offsetInCU: 0xA9, offset: 0x296BAA, size: 0x8, addend: 0x0, symName: '__ZN58_$LT$alloc..string..String$u20$as$u20$core..fmt..Write$GT$10write_char17h04bc467bd68a934bE', symObjAddr: 0x71C0, symBinAddr: 0x86940, symSize: 0x140 }
  - { offsetInCU: 0x4AE, offset: 0x296FAF, size: 0x8, addend: 0x0, symName: '__ZN58_$LT$alloc..string..String$u20$as$u20$core..fmt..Write$GT$9write_str17h46a93205c3443fbaE', symObjAddr: 0x7300, symBinAddr: 0x86A80, symSize: 0x60 }
  - { offsetInCU: 0x1456, offset: 0x297F57, size: 0x8, addend: 0x0, symName: __ZN5alloc5alloc15exchange_malloc17h9a87608d0224859dE, symObjAddr: 0x7360, symBinAddr: 0x86AE0, symSize: 0x40 }
  - { offsetInCU: 0x37F9, offset: 0x29A2FA, size: 0x8, addend: 0x0, symName: '__ZN4core3ptr100drop_in_place$LT$core..option..Option$LT$alloc..boxed..Box$LT$syn..path..GenericArgument$GT$$GT$$GT$17h3a7c44b9e57fe410E', symObjAddr: 0x0, symBinAddr: 0x7F780, symSize: 0x50 }
  - { offsetInCU: 0x39C6, offset: 0x29A4C7, size: 0x8, addend: 0x0, symName: '__ZN4core3ptr102drop_in_place$LT$syn..punctuated..Punctuated$LT$syn..path..GenericArgument$C$syn..token..Comma$GT$$GT$17h8b1978399cfff48bE', symObjAddr: 0x50, symBinAddr: 0x7F7D0, symSize: 0xF0 }
  - { offsetInCU: 0x3CE6, offset: 0x29A7E7, size: 0x8, addend: 0x0, symName: '__ZN4core3ptr103drop_in_place$LT$core..option..Option$LT$alloc..boxed..Box$LT$syn..generics..TypeParamBound$GT$$GT$$GT$17hb14e4384a768542bE', symObjAddr: 0x140, symBinAddr: 0x7F8C0, symSize: 0x50 }
  - { offsetInCU: 0x3EF1, offset: 0x29A9F2, size: 0x8, addend: 0x0, symName: '__ZN4core3ptr103drop_in_place$LT$syn..punctuated..Punctuated$LT$syn..generics..GenericParam$C$syn..token..Comma$GT$$GT$17h0c6077a988036760E', symObjAddr: 0x190, symBinAddr: 0x7F910, symSize: 0xF0 }
  - { offsetInCU: 0x44C5, offset: 0x29AFC6, size: 0x8, addend: 0x0, symName: '__ZN4core3ptr104drop_in_place$LT$syn..punctuated..Punctuated$LT$syn..generics..TypeParamBound$C$syn..token..Plus$GT$$GT$17h724e4d9d1d65061aE', symObjAddr: 0x280, symBinAddr: 0x7FA00, symSize: 0x260 }
  - { offsetInCU: 0x4F0F, offset: 0x29BA10, size: 0x8, addend: 0x0, symName: '__ZN4core3ptr34drop_in_place$LT$syn..lit..Lit$GT$17hd64dde89a262341dE', symObjAddr: 0x4E0, symBinAddr: 0x7FC60, symSize: 0x120 }
  - { offsetInCU: 0x53FD, offset: 0x29BEFE, size: 0x8, addend: 0x0, symName: '__ZN4core3ptr34drop_in_place$LT$syn..pat..Pat$GT$17hf88887878261d63cE', symObjAddr: 0x600, symBinAddr: 0x7FD80, symSize: 0xF70 }
  - { offsetInCU: 0x9316, offset: 0x29FE17, size: 0x8, addend: 0x0, symName: '__ZN4core3ptr34drop_in_place$LT$syn..ty..Type$GT$17ha80dd29b0f9d4a3fE', symObjAddr: 0x1570, symBinAddr: 0x80CF0, symSize: 0x5A0 }
  - { offsetInCU: 0xACB2, offset: 0x2A17B3, size: 0x8, addend: 0x0, symName: '__ZN4core3ptr36drop_in_place$LT$syn..expr..Expr$GT$17h10f573b40ddd212cE.llvm.15963643447187171253', symObjAddr: 0x1B10, symBinAddr: 0x81290, symSize: 0x2760 }
  - { offsetInCU: 0x149A9, offset: 0x2AB4AA, size: 0x8, addend: 0x0, symName: '__ZN4core3ptr36drop_in_place$LT$syn..mac..Macro$GT$17hc3b30a7a8a34cc2dE', symObjAddr: 0x4270, symBinAddr: 0x839F0, symSize: 0x110 }
  - { offsetInCU: 0x14E46, offset: 0x2AB947, size: 0x8, addend: 0x0, symName: '__ZN4core3ptr36drop_in_place$LT$syn..path..Path$GT$17h75c74a97d5f0a03bE', symObjAddr: 0x4380, symBinAddr: 0x83B00, symSize: 0x280 }
  - { offsetInCU: 0x158F3, offset: 0x2AC3F4, size: 0x8, addend: 0x0, symName: '__ZN4core3ptr37drop_in_place$LT$syn..stmt..Block$GT$17h6fc3254d5688f2c3E', symObjAddr: 0x4600, symBinAddr: 0x83D80, symSize: 0xD0 }
  - { offsetInCU: 0x15BCA, offset: 0x2AC6CB, size: 0x8, addend: 0x0, symName: '__ZN4core3ptr38drop_in_place$LT$syn..expr..Member$GT$17h6b0cf84594ce6bceE', symObjAddr: 0x46D0, symBinAddr: 0x83E50, symSize: 0x30 }
  - { offsetInCU: 0x15D61, offset: 0x2AC862, size: 0x8, addend: 0x0, symName: '__ZN4core3ptr38drop_in_place$LT$syn..group..Group$GT$17ha3c6933df6efe66fE', symObjAddr: 0x4700, symBinAddr: 0x83E80, symSize: 0x70 }
  - { offsetInCU: 0x16059, offset: 0x2ACB5A, size: 0x8, addend: 0x0, symName: '__ZN4core3ptr39drop_in_place$LT$proc_macro2..Ident$GT$17ha28fef9769e267d9E', symObjAddr: 0x4770, symBinAddr: 0x83EF0, symSize: 0x30 }
  - { offsetInCU: 0x16174, offset: 0x2ACC75, size: 0x8, addend: 0x0, symName: '__ZN4core3ptr39drop_in_place$LT$syn..lit..LitFloat$GT$17h83bfdc788eb6081bE', symObjAddr: 0x47A0, symBinAddr: 0x83F20, symSize: 0x70 }
  - { offsetInCU: 0x164E6, offset: 0x2ACFE7, size: 0x8, addend: 0x0, symName: '__ZN4core3ptr40drop_in_place$LT$syn..expr..ExprPath$GT$17h1e579ab03db12453E', symObjAddr: 0x4810, symBinAddr: 0x83F90, symSize: 0x110 }
  - { offsetInCU: 0x16949, offset: 0x2AD44A, size: 0x8, addend: 0x0, symName: '__ZN4core3ptr40drop_in_place$LT$syn..ty..ReturnType$GT$17h035a612e322b6510E', symObjAddr: 0x4920, symBinAddr: 0x840A0, symSize: 0x50 }
  - { offsetInCU: 0x16B16, offset: 0x2AD617, size: 0x8, addend: 0x0, symName: '__ZN4core3ptr41drop_in_place$LT$syn..attr..Attribute$GT$17h326c12be3efddb0cE', symObjAddr: 0x4970, symBinAddr: 0x840F0, symSize: 0xA0 }
  - { offsetInCU: 0x16B91, offset: 0x2AD692, size: 0x8, addend: 0x0, symName: '__ZN4core3ptr41drop_in_place$LT$syn..expr..ExprConst$GT$17hbfe19d5d621e6836E', symObjAddr: 0x4A10, symBinAddr: 0x84190, symSize: 0x180 }
  - { offsetInCU: 0x1717E, offset: 0x2ADC7F, size: 0x8, addend: 0x0, symName: '__ZN4core3ptr42drop_in_place$LT$alloc..string..String$GT$17h9acfda4d1b128177E', symObjAddr: 0x4B90, symBinAddr: 0x84310, symSize: 0x20 }
  - { offsetInCU: 0x17286, offset: 0x2ADD87, size: 0x8, addend: 0x0, symName: '__ZN4core3ptr44drop_in_place$LT$syn..lifetime..Lifetime$GT$17he37fa474f03de7b1E', symObjAddr: 0x4BB0, symBinAddr: 0x84330, symSize: 0x30 }
  - { offsetInCU: 0x17382, offset: 0x2ADE83, size: 0x8, addend: 0x0, symName: '__ZN4core3ptr44drop_in_place$LT$syn..parse..ParseBuffer$GT$17hf792ff20095efc35E', symObjAddr: 0x4BE0, symBinAddr: 0x84360, symSize: 0x70 }
  - { offsetInCU: 0x17799, offset: 0x2AE29A, size: 0x8, addend: 0x0, symName: '__ZN4core3ptr45drop_in_place$LT$proc_macro2..TokenStream$GT$17h76e8e68015f4924dE', symObjAddr: 0x4C50, symBinAddr: 0x843D0, symSize: 0x140 }
  - { offsetInCU: 0x17C33, offset: 0x2AE734, size: 0x8, addend: 0x0, symName: '__ZN4core3ptr45drop_in_place$LT$syn..generics..TypeParam$GT$17h188a459c1380ac75E', symObjAddr: 0x4D90, symBinAddr: 0x84510, symSize: 0x230 }
  - { offsetInCU: 0x184A8, offset: 0x2AEFA9, size: 0x8, addend: 0x0, symName: '__ZN4core3ptr46drop_in_place$LT$syn..generics..ConstParam$GT$17h7a9b900b2b88bfcdE', symObjAddr: 0x4FC0, symBinAddr: 0x84740, symSize: 0x150 }
  - { offsetInCU: 0x18929, offset: 0x2AF42A, size: 0x8, addend: 0x0, symName: '__ZN4core3ptr47drop_in_place$LT$syn..path..GenericArgument$GT$17h593f06d6ca9a94d2E', symObjAddr: 0x5110, symBinAddr: 0x84890, symSize: 0x450 }
  - { offsetInCU: 0x1969F, offset: 0x2B01A0, size: 0x8, addend: 0x0, symName: '__ZN4core3ptr49drop_in_place$LT$syn..generics..LifetimeParam$GT$17h3a8835ab294bfd16E', symObjAddr: 0x5560, symBinAddr: 0x84CE0, symSize: 0xF0 }
  - { offsetInCU: 0x19AB6, offset: 0x2B05B7, size: 0x8, addend: 0x0, symName: '__ZN4core3ptr50drop_in_place$LT$syn..generics..TypeParamBound$GT$17h81b4325b5900604dE', symObjAddr: 0x5650, symBinAddr: 0x84DD0, symSize: 0xA0 }
  - { offsetInCU: 0x19C1C, offset: 0x2B071D, size: 0x8, addend: 0x0, symName: '__ZN4core3ptr58drop_in_place$LT$alloc..vec..Vec$LT$syn..expr..Arm$GT$$GT$17hff9224aadf2233b8E', symObjAddr: 0x56F0, symBinAddr: 0x84E70, symSize: 0xD0 }
  - { offsetInCU: 0x19EDC, offset: 0x2B09DD, size: 0x8, addend: 0x0, symName: '__ZN4core3ptr59drop_in_place$LT$alloc..boxed..Box$LT$syn..pat..Pat$GT$$GT$17h622b0c1db21c0742E', symObjAddr: 0x57C0, symBinAddr: 0x84F40, symSize: 0x50 }
  - { offsetInCU: 0x1A035, offset: 0x2B0B36, size: 0x8, addend: 0x0, symName: '__ZN4core3ptr59drop_in_place$LT$alloc..boxed..Box$LT$syn..ty..Type$GT$$GT$17hde45fa887dd8b605E', symObjAddr: 0x5810, symBinAddr: 0x84F90, symSize: 0x50 }
  - { offsetInCU: 0x1A18E, offset: 0x2B0C8F, size: 0x8, addend: 0x0, symName: '__ZN4core3ptr61drop_in_place$LT$alloc..boxed..Box$LT$syn..expr..Expr$GT$$GT$17hbb42293869113942E', symObjAddr: 0x5860, symBinAddr: 0x84FE0, symSize: 0x50 }
  - { offsetInCU: 0x1A2E7, offset: 0x2B0DE8, size: 0x8, addend: 0x0, symName: '__ZN4core3ptr61drop_in_place$LT$syn..path..ParenthesizedGenericArguments$GT$17h6b1731382637937fE', symObjAddr: 0x58B0, symBinAddr: 0x85030, symSize: 0x170 }
  - { offsetInCU: 0x1A8F0, offset: 0x2B13F1, size: 0x8, addend: 0x0, symName: '__ZN4core3ptr63drop_in_place$LT$alloc..boxed..Box$LT$syn..lit..LitRepr$GT$$GT$17h6e3a82ea4de7b84cE', symObjAddr: 0x5A20, symBinAddr: 0x851A0, symSize: 0x60 }
  - { offsetInCU: 0x1ABF7, offset: 0x2B16F8, size: 0x8, addend: 0x0, symName: '__ZN4core3ptr64drop_in_place$LT$alloc..boxed..Box$LT$syn..pat..FieldPat$GT$$GT$17hbf8f4867d84bd25dE', symObjAddr: 0x5A80, symBinAddr: 0x85200, symSize: 0x140 }
  - { offsetInCU: 0x1B2F8, offset: 0x2B1DF9, size: 0x8, addend: 0x0, symName: '__ZN4core3ptr64drop_in_place$LT$alloc..boxed..Box$LT$syn..ty..BareFnArg$GT$$GT$17h6be6354eb1d1364dE', symObjAddr: 0x5BC0, symBinAddr: 0x85340, symSize: 0x140 }
  - { offsetInCU: 0x1B881, offset: 0x2B2382, size: 0x8, addend: 0x0, symName: '__ZN4core3ptr64drop_in_place$LT$alloc..vec..Vec$LT$syn..attr..Attribute$GT$$GT$17he33e25539d5885aeE.llvm.15963643447187171253', symObjAddr: 0x5D00, symBinAddr: 0x85480, symSize: 0xD0 }
  - { offsetInCU: 0x1BB75, offset: 0x2B2676, size: 0x8, addend: 0x0, symName: '__ZN4core3ptr65drop_in_place$LT$alloc..vec..Vec$LT$proc_macro..TokenTree$GT$$GT$17h8abd81f8596dbc59E', symObjAddr: 0x5DD0, symBinAddr: 0x85550, symSize: 0x110 }
  - { offsetInCU: 0x1BF6D, offset: 0x2B2A6E, size: 0x8, addend: 0x0, symName: '__ZN4core3ptr65drop_in_place$LT$core..option..Option$LT$syn..expr..Label$GT$$GT$17hac599686b33ef364E', symObjAddr: 0x5EE0, symBinAddr: 0x85660, symSize: 0x30 }
  - { offsetInCU: 0x1C0A7, offset: 0x2B2BA8, size: 0x8, addend: 0x0, symName: '__ZN4core3ptr65drop_in_place$LT$core..option..Option$LT$syn..path..QSelf$GT$$GT$17h0b8dd5cda5f2cd6bE', symObjAddr: 0x5F10, symBinAddr: 0x85690, symSize: 0x50 }
  - { offsetInCU: 0x1C228, offset: 0x2B2D29, size: 0x8, addend: 0x0, symName: '__ZN4core3ptr66drop_in_place$LT$core..option..Option$LT$syn..pat..PatRest$GT$$GT$17hd5bb3bc28aa78ac1E', symObjAddr: 0x5F60, symBinAddr: 0x856E0, symSize: 0xE0 }
  - { offsetInCU: 0x1C550, offset: 0x2B3051, size: 0x8, addend: 0x0, symName: '__ZN4core3ptr67drop_in_place$LT$alloc..boxed..Box$LT$syn..expr..FieldValue$GT$$GT$17hbbcf67a9d5e9863cE', symObjAddr: 0x6040, symBinAddr: 0x857C0, symSize: 0x140 }
  - { offsetInCU: 0x1CAD8, offset: 0x2B35D9, size: 0x8, addend: 0x0, symName: '__ZN4core3ptr70drop_in_place$LT$core..option..Option$LT$syn..ty..BareVariadic$GT$$GT$17h79a19250e9f043b1E', symObjAddr: 0x6180, symBinAddr: 0x85900, symSize: 0x100 }
  - { offsetInCU: 0x1CF43, offset: 0x2B3A44, size: 0x8, addend: 0x0, symName: '__ZN4core3ptr72drop_in_place$LT$alloc..boxed..Box$LT$syn..path..GenericArgument$GT$$GT$17hfd308d374af4273dE', symObjAddr: 0x6280, symBinAddr: 0x85A00, symSize: 0x2B0 }
  - { offsetInCU: 0x1D954, offset: 0x2B4455, size: 0x8, addend: 0x0, symName: '__ZN4core3ptr72drop_in_place$LT$core..option..Option$LT$syn..lifetime..Lifetime$GT$$GT$17h49cce6f02f9c0590E', symObjAddr: 0x6530, symBinAddr: 0x85CB0, symSize: 0x30 }
  - { offsetInCU: 0x1DA6F, offset: 0x2B4570, size: 0x8, addend: 0x0, symName: '__ZN4core3ptr73drop_in_place$LT$alloc..boxed..Box$LT$syn..generics..GenericParam$GT$$GT$17ha26d5d145af4b203E', symObjAddr: 0x6560, symBinAddr: 0x85CE0, symSize: 0x80 }
  - { offsetInCU: 0x1DBE5, offset: 0x2B46E6, size: 0x8, addend: 0x0, symName: '__ZN4core3ptr75drop_in_place$LT$alloc..boxed..Box$LT$syn..generics..TypeParamBound$GT$$GT$17h129a4e927e5eb81bE', symObjAddr: 0x65E0, symBinAddr: 0x85D60, symSize: 0x1B0 }
  - { offsetInCU: 0x1E2E4, offset: 0x2B4DE5, size: 0x8, addend: 0x0, symName: '__ZN4core3ptr83drop_in_place$LT$core..result..Result$LT$syn..op..BinOp$C$syn..error..Error$GT$$GT$17h495a3ee3d6e6a47dE', symObjAddr: 0x6790, symBinAddr: 0x85F10, symSize: 0x80 }
  - { offsetInCU: 0x1E5FE, offset: 0x2B50FF, size: 0x8, addend: 0x0, symName: '__ZN4core3ptr86drop_in_place$LT$syn..punctuated..Punctuated$LT$syn..pat..Pat$C$syn..token..Or$GT$$GT$17h9cc6b5f7b6d3a555E', symObjAddr: 0x6810, symBinAddr: 0x85F90, symSize: 0x120 }
  - { offsetInCU: 0x1EA79, offset: 0x2B557A, size: 0x8, addend: 0x0, symName: '__ZN4core3ptr87drop_in_place$LT$core..option..Option$LT$alloc..boxed..Box$LT$syn..pat..Pat$GT$$GT$$GT$17h51cd48973d96c411E', symObjAddr: 0x6930, symBinAddr: 0x860B0, symSize: 0x50 }
  - { offsetInCU: 0x1EBE9, offset: 0x2B56EA, size: 0x8, addend: 0x0, symName: '__ZN4core3ptr87drop_in_place$LT$core..option..Option$LT$alloc..boxed..Box$LT$syn..ty..Type$GT$$GT$$GT$17h103a25a4a7d7374eE', symObjAddr: 0x6980, symBinAddr: 0x86100, symSize: 0x50 }
  - { offsetInCU: 0x1ED59, offset: 0x2B585A, size: 0x8, addend: 0x0, symName: '__ZN4core3ptr89drop_in_place$LT$core..option..Option$LT$alloc..boxed..Box$LT$syn..expr..Expr$GT$$GT$$GT$17h9e02509cb2345d44E', symObjAddr: 0x69D0, symBinAddr: 0x86150, symSize: 0x50 }
  - { offsetInCU: 0x1EF07, offset: 0x2B5A08, size: 0x8, addend: 0x0, symName: '__ZN4core3ptr89drop_in_place$LT$syn..punctuated..Punctuated$LT$syn..pat..Pat$C$syn..token..Comma$GT$$GT$17hd3a83c36827f210aE', symObjAddr: 0x6A20, symBinAddr: 0x861A0, symSize: 0x120 }
  - { offsetInCU: 0x1F3D7, offset: 0x2B5ED8, size: 0x8, addend: 0x0, symName: '__ZN4core3ptr91drop_in_place$LT$syn..punctuated..Punctuated$LT$syn..expr..Expr$C$syn..token..Comma$GT$$GT$17h6f261e8f470c81f2E', symObjAddr: 0x6B40, symBinAddr: 0x862C0, symSize: 0x120 }
  - { offsetInCU: 0x1F865, offset: 0x2B6366, size: 0x8, addend: 0x0, symName: '__ZN4core3ptr94drop_in_place$LT$syn..punctuated..Punctuated$LT$syn..pat..FieldPat$C$syn..token..Comma$GT$$GT$17h43ec25af986ef674E', symObjAddr: 0x6C60, symBinAddr: 0x863E0, symSize: 0xF0 }
  - { offsetInCU: 0x1FB64, offset: 0x2B6665, size: 0x8, addend: 0x0, symName: '__ZN4core3ptr94drop_in_place$LT$syn..punctuated..Punctuated$LT$syn..ty..BareFnArg$C$syn..token..Comma$GT$$GT$17h7ba4c699ee390ebaE', symObjAddr: 0x6D50, symBinAddr: 0x864D0, symSize: 0xF0 }
  - { offsetInCU: 0x1FE65, offset: 0x2B6966, size: 0x8, addend: 0x0, symName: '__ZN4core3ptr96drop_in_place$LT$core..option..Option$LT$alloc..boxed..Box$LT$syn..path..PathSegment$GT$$GT$$GT$17h5de12a5a0f9e9ef9E', symObjAddr: 0x6E40, symBinAddr: 0x865C0, symSize: 0x1A0 }
  - { offsetInCU: 0x20526, offset: 0x2B7027, size: 0x8, addend: 0x0, symName: '__ZN4core3ptr97drop_in_place$LT$syn..punctuated..Punctuated$LT$syn..expr..FieldValue$C$syn..token..Comma$GT$$GT$17hf58d0a9a09266ab3E', symObjAddr: 0x6FE0, symBinAddr: 0x86760, symSize: 0xF0 }
  - { offsetInCU: 0x2089F, offset: 0x2B73A0, size: 0x8, addend: 0x0, symName: '__ZN4core3ptr98drop_in_place$LT$syn..punctuated..Punctuated$LT$syn..lifetime..Lifetime$C$syn..token..Plus$GT$$GT$17h600c2b78f78fd2b9E', symObjAddr: 0x70D0, symBinAddr: 0x86850, symSize: 0xD0 }
  - { offsetInCU: 0x214D1, offset: 0x2B7FD2, size: 0x8, addend: 0x0, symName: '__ZN53_$LT$core..fmt..Error$u20$as$u20$core..fmt..Debug$GT$3fmt17h03dc662ab152f3aeE', symObjAddr: 0x71A0, symBinAddr: 0x86920, symSize: 0x20 }
  - { offsetInCU: 0x2C59D, offset: 0x2C309E, size: 0x8, addend: 0x0, symName: __ZN3syn4expr7parsing32parse_with_earlier_boundary_rule17h04da014a226fbbe5E, symObjAddr: 0x73A0, symBinAddr: 0x86B20, symSize: 0x1430 }
  - { offsetInCU: 0x2E8DB, offset: 0x2C53DC, size: 0x8, addend: 0x0, symName: __ZN3syn4expr7parsing14can_begin_expr17h4653549300b8351bE, symObjAddr: 0x87D0, symBinAddr: 0x87F50, symSize: 0x370 }
  - { offsetInCU: 0x2FA0A, offset: 0x2C650B, size: 0x8, addend: 0x0, symName: __ZN3syn4expr7parsing10parse_expr17he948d695e5f3d52eE.llvm.15963643447187171253, symObjAddr: 0x8B40, symBinAddr: 0x882C0, symSize: 0x1330 }
  - { offsetInCU: 0x32832, offset: 0x2C9333, size: 0x8, addend: 0x0, symName: __ZN3syn4expr7parsing15parse_binop_rhs17h6b864ca016112671E, symObjAddr: 0x9E70, symBinAddr: 0x895F0, symSize: 0x4E0 }
  - { offsetInCU: 0x3331E, offset: 0x2C9E1F, size: 0x8, addend: 0x0, symName: __ZN3syn4expr7parsing14ambiguous_expr17h5b5bba9c148d94dbE, symObjAddr: 0xA350, symBinAddr: 0x89AD0, symSize: 0xF0 }
  - { offsetInCU: 0x333A1, offset: 0x2C9EA2, size: 0x8, addend: 0x0, symName: __ZN3syn4expr7parsing10expr_attrs17h79ae24352e9d9d57E, symObjAddr: 0xA440, symBinAddr: 0x89BC0, symSize: 0x250 }
  - { offsetInCU: 0x33909, offset: 0x2CA40A, size: 0x8, addend: 0x0, symName: __ZN3syn4expr7parsing10unary_expr17h1634cdc87bf326dfE, symObjAddr: 0xA690, symBinAddr: 0x89E10, symSize: 0x7C0 }
  - { offsetInCU: 0x34BA4, offset: 0x2CB6A5, size: 0x8, addend: 0x0, symName: __ZN3syn4expr7parsing12trailer_expr17hd6c52758b73443cfE, symObjAddr: 0xAE50, symBinAddr: 0x8A5D0, symSize: 0x1830 }
  - { offsetInCU: 0x385AF, offset: 0x2CF0B0, size: 0x8, addend: 0x0, symName: __ZN3syn4expr7parsing14trailer_helper17h681119187c5a546dE, symObjAddr: 0xC680, symBinAddr: 0x8BE00, symSize: 0x1F80 }
  - { offsetInCU: 0x3C803, offset: 0x2D3304, size: 0x8, addend: 0x0, symName: __ZN3syn4expr7parsing12atom_labeled17h4604f459baf45e1eE, symObjAddr: 0xE600, symBinAddr: 0x8DD80, symSize: 0x590 }
  - { offsetInCU: 0x3D102, offset: 0x2D3C03, size: 0x8, addend: 0x0, symName: __ZN3syn4expr7parsing12expr_builtin17h8b5ff5122f88b230E, symObjAddr: 0xEB90, symBinAddr: 0x8E310, symSize: 0x410 }
  - { offsetInCU: 0x3DD2F, offset: 0x2D4830, size: 0x8, addend: 0x0, symName: __ZN3syn4expr7parsing23path_or_macro_or_struct17he515cb28f35d860eE, symObjAddr: 0xEFA0, symBinAddr: 0x8E720, symSize: 0x130 }
  - { offsetInCU: 0x3DDEB, offset: 0x2D48EC, size: 0x8, addend: 0x0, symName: __ZN3syn4expr7parsing31rest_of_path_or_macro_or_struct17hab8b11d447eb17cdE, symObjAddr: 0xF0D0, symBinAddr: 0x8E850, symSize: 0x3D0 }
  - { offsetInCU: 0x3E563, offset: 0x2D5064, size: 0x8, addend: 0x0, symName: __ZN3syn4expr7parsing14paren_or_tuple17hca3957091eeb9c50E, symObjAddr: 0xF4A0, symBinAddr: 0x8EC20, symSize: 0x780 }
  - { offsetInCU: 0x3EEB2, offset: 0x2D59B3, size: 0x8, addend: 0x0, symName: __ZN3syn4expr7parsing15array_or_repeat17h7503a4cc2fc5aa31E, symObjAddr: 0xFC20, symBinAddr: 0x8F3A0, symSize: 0x950 }
  - { offsetInCU: 0x3FA66, offset: 0x2D6567, size: 0x8, addend: 0x0, symName: __ZN3syn4expr7parsing10expr_group17ha2f3b33138d5864cE, symObjAddr: 0x10570, symBinAddr: 0x8FCF0, symSize: 0x870 }
  - { offsetInCU: 0x405E0, offset: 0x2D70E1, size: 0x8, addend: 0x0, symName: __ZN3syn4expr7parsing8expr_let17hf863f328b939742fE, symObjAddr: 0x10FC0, symBinAddr: 0x90560, symSize: 0x570 }
  - { offsetInCU: 0x40F3C, offset: 0x2D7A3D, size: 0x8, addend: 0x0, symName: __ZN3syn4expr7parsing10expr_unary17h1d4eb12bbc8abbd2E, symObjAddr: 0x11530, symBinAddr: 0x90AD0, symSize: 0x2D0 }
  - { offsetInCU: 0x41513, offset: 0x2D8014, size: 0x8, addend: 0x0, symName: __ZN3syn4expr7parsing12expr_closure17h4e49f531e43f650cE, symObjAddr: 0x11800, symBinAddr: 0x90DA0, symSize: 0x1580 }
  - { offsetInCU: 0x4319F, offset: 0x2D9CA0, size: 0x8, addend: 0x0, symName: __ZN3syn4expr7parsing10expr_break17h3ba483e8fdc57f87E, symObjAddr: 0x12D80, symBinAddr: 0x92320, symSize: 0x720 }
  - { offsetInCU: 0x4422A, offset: 0x2DAD2B, size: 0x8, addend: 0x0, symName: __ZN3syn4expr7parsing18expr_struct_helper17h62f8c2fd9c8d9ae6E, symObjAddr: 0x134A0, symBinAddr: 0x92A40, symSize: 0x980 }
  - { offsetInCU: 0x45169, offset: 0x2DBC6A, size: 0x8, addend: 0x0, symName: __ZN3syn4expr7parsing10expr_range17h3255a6ff02803bdbE, symObjAddr: 0x13E20, symBinAddr: 0x933C0, symSize: 0xF0 }
  - { offsetInCU: 0x4532B, offset: 0x2DBE2C, size: 0x8, addend: 0x0, symName: __ZN3syn4expr7parsing15parse_range_end17hbd7fe95ed93f48b3E, symObjAddr: 0x13F10, symBinAddr: 0x934B0, symSize: 0x11D }
  - { offsetInCU: 0x1E, offset: 0x2EE5E6, size: 0x8, addend: 0x0, symName: __ZN5alloc7raw_vec11finish_grow17h5993caaa74c4fbdfE.llvm.8028830779895567672, symObjAddr: 0x0, symBinAddr: 0x935D0, symSize: 0xA0 }
  - { offsetInCU: 0x69AA, offset: 0x2F4F72, size: 0x8, addend: 0x0, symName: __ZN5alloc7raw_vec11finish_grow17h5993caaa74c4fbdfE.llvm.8028830779895567672, symObjAddr: 0x0, symBinAddr: 0x935D0, symSize: 0xA0 }
  - { offsetInCU: 0x875B, offset: 0x2F6D23, size: 0x8, addend: 0x0, symName: '__ZN5alloc7raw_vec19RawVec$LT$T$C$A$GT$7reserve21do_reserve_and_handle17h1257c9ee09466061E', symObjAddr: 0x1330, symBinAddr: 0x1BF770, symSize: 0xA0 }
  - { offsetInCU: 0x8A53, offset: 0x2F701B, size: 0x8, addend: 0x0, symName: '__ZN5alloc7raw_vec19RawVec$LT$T$C$A$GT$7reserve21do_reserve_and_handle17h30f192da7d596089E', symObjAddr: 0x13D0, symBinAddr: 0x1BF810, symSize: 0xB0 }
  - { offsetInCU: 0x8D7E, offset: 0x2F7346, size: 0x8, addend: 0x0, symName: '__ZN5alloc7raw_vec19RawVec$LT$T$C$A$GT$7reserve21do_reserve_and_handle17h7bcc278903fa73cdE', symObjAddr: 0x1480, symBinAddr: 0x1BF8C0, symSize: 0xB0 }
  - { offsetInCU: 0x90A9, offset: 0x2F7671, size: 0x8, addend: 0x0, symName: '__ZN5alloc7raw_vec19RawVec$LT$T$C$A$GT$7reserve21do_reserve_and_handle17h96ca4a18a0a3ddafE', symObjAddr: 0x15F0, symBinAddr: 0x1BF970, symSize: 0xB0 }
  - { offsetInCU: 0x93D6, offset: 0x2F799E, size: 0x8, addend: 0x0, symName: '__ZN5alloc7raw_vec19RawVec$LT$T$C$A$GT$7reserve21do_reserve_and_handle17hbb3a7e81495482abE', symObjAddr: 0x16A0, symBinAddr: 0x1BFA20, symSize: 0xB0 }
  - { offsetInCU: 0xFEED, offset: 0x2FE4B5, size: 0x8, addend: 0x0, symName: '__ZN5alloc7raw_vec19RawVec$LT$T$C$A$GT$8grow_one17h095fa3667201f4f8E', symObjAddr: 0x1810, symBinAddr: 0x93670, symSize: 0xC0 }
  - { offsetInCU: 0x103BB, offset: 0x2FE983, size: 0x8, addend: 0x0, symName: '__ZN5alloc7raw_vec19RawVec$LT$T$C$A$GT$8grow_one17h17381682e7253ec7E', symObjAddr: 0x18D0, symBinAddr: 0x93730, symSize: 0xC0 }
  - { offsetInCU: 0x10889, offset: 0x2FEE51, size: 0x8, addend: 0x0, symName: '__ZN5alloc7raw_vec19RawVec$LT$T$C$A$GT$8grow_one17h248c03912984705cE', symObjAddr: 0x1990, symBinAddr: 0x937F0, symSize: 0xB0 }
  - { offsetInCU: 0x10D57, offset: 0x2FF31F, size: 0x8, addend: 0x0, symName: '__ZN5alloc7raw_vec19RawVec$LT$T$C$A$GT$8grow_one17h3075326c15ed7061E', symObjAddr: 0x1A40, symBinAddr: 0x938A0, symSize: 0x0 }
  - { offsetInCU: 0x11227, offset: 0x2FF7EF, size: 0x8, addend: 0x0, symName: '__ZN5alloc7raw_vec19RawVec$LT$T$C$A$GT$8grow_one17h313fd240ac0cecb3E', symObjAddr: 0x1B00, symBinAddr: 0x93960, symSize: 0x0 }
  - { offsetInCU: 0x116F5, offset: 0x2FFCBD, size: 0x8, addend: 0x0, symName: '__ZN5alloc7raw_vec19RawVec$LT$T$C$A$GT$8grow_one17h32f85f1d3098de7dE', symObjAddr: 0x1BC0, symBinAddr: 0x93A20, symSize: 0x0 }
  - { offsetInCU: 0x11B59, offset: 0x300121, size: 0x8, addend: 0x0, symName: '__ZN5alloc7raw_vec19RawVec$LT$T$C$A$GT$8grow_one17h46224c298c9c9296E', symObjAddr: 0x1C80, symBinAddr: 0x93AE0, symSize: 0x0 }
  - { offsetInCU: 0x12025, offset: 0x3005ED, size: 0x8, addend: 0x0, symName: '__ZN5alloc7raw_vec19RawVec$LT$T$C$A$GT$8grow_one17h5a605c90d00a8a39E', symObjAddr: 0x1D30, symBinAddr: 0x93B90, symSize: 0xC0 }
  - { offsetInCU: 0x124F3, offset: 0x300ABB, size: 0x8, addend: 0x0, symName: '__ZN5alloc7raw_vec19RawVec$LT$T$C$A$GT$8grow_one17h718e5b8a06d845cbE', symObjAddr: 0x1DF0, symBinAddr: 0x93C50, symSize: 0xC0 }
  - { offsetInCU: 0x12832, offset: 0x300DFA, size: 0x8, addend: 0x0, symName: '__ZN5alloc7raw_vec19RawVec$LT$T$C$A$GT$8grow_one17h72dabde20a137b04E', symObjAddr: 0x1EB0, symBinAddr: 0x93D10, symSize: 0xB0 }
  - { offsetInCU: 0x12CFE, offset: 0x3012C6, size: 0x8, addend: 0x0, symName: '__ZN5alloc7raw_vec19RawVec$LT$T$C$A$GT$8grow_one17h7c2c58db67a15848E', symObjAddr: 0x1F60, symBinAddr: 0x93DC0, symSize: 0x0 }
  - { offsetInCU: 0x131CC, offset: 0x301794, size: 0x8, addend: 0x0, symName: '__ZN5alloc7raw_vec19RawVec$LT$T$C$A$GT$8grow_one17h7d9544ea3e76eae9E', symObjAddr: 0x2020, symBinAddr: 0x93E80, symSize: 0xC0 }
  - { offsetInCU: 0x1369A, offset: 0x301C62, size: 0x8, addend: 0x0, symName: '__ZN5alloc7raw_vec19RawVec$LT$T$C$A$GT$8grow_one17h82b0804d651d4ef5E', symObjAddr: 0x20E0, symBinAddr: 0x93F40, symSize: 0xC0 }
  - { offsetInCU: 0x13B95, offset: 0x30215D, size: 0x8, addend: 0x0, symName: '__ZN5alloc7raw_vec19RawVec$LT$T$C$A$GT$8grow_one17h85907f27c23a559bE', symObjAddr: 0x21A0, symBinAddr: 0x94000, symSize: 0xB0 }
  - { offsetInCU: 0x14061, offset: 0x302629, size: 0x8, addend: 0x0, symName: '__ZN5alloc7raw_vec19RawVec$LT$T$C$A$GT$8grow_one17ha5852730cd02935bE', symObjAddr: 0x2250, symBinAddr: 0x940B0, symSize: 0x0 }
  - { offsetInCU: 0x1452F, offset: 0x302AF7, size: 0x8, addend: 0x0, symName: '__ZN5alloc7raw_vec19RawVec$LT$T$C$A$GT$8grow_one17hb30077ec058bafdfE', symObjAddr: 0x2310, symBinAddr: 0x94170, symSize: 0xB0 }
  - { offsetInCU: 0x149FB, offset: 0x302FC3, size: 0x8, addend: 0x0, symName: '__ZN5alloc7raw_vec19RawVec$LT$T$C$A$GT$8grow_one17hc0723e4af934b43eE', symObjAddr: 0x23C0, symBinAddr: 0x94220, symSize: 0xC0 }
  - { offsetInCU: 0x14D3C, offset: 0x303304, size: 0x8, addend: 0x0, symName: '__ZN5alloc7raw_vec19RawVec$LT$T$C$A$GT$8grow_one17hc9702e9ac871cd96E', symObjAddr: 0x2480, symBinAddr: 0x942E0, symSize: 0xB0 }
  - { offsetInCU: 0x1520A, offset: 0x3037D2, size: 0x8, addend: 0x0, symName: '__ZN5alloc7raw_vec19RawVec$LT$T$C$A$GT$8grow_one17hcf254d991fef210fE', symObjAddr: 0x2530, symBinAddr: 0x94390, symSize: 0xC0 }
  - { offsetInCU: 0x156D8, offset: 0x303CA0, size: 0x8, addend: 0x0, symName: '__ZN5alloc7raw_vec19RawVec$LT$T$C$A$GT$8grow_one17hd89eb202b8db7e1aE', symObjAddr: 0x25F0, symBinAddr: 0x94450, symSize: 0xC0 }
  - { offsetInCU: 0x15A19, offset: 0x303FE1, size: 0x8, addend: 0x0, symName: '__ZN5alloc7raw_vec19RawVec$LT$T$C$A$GT$8grow_one17hdb610d4d82b2394dE', symObjAddr: 0x26B0, symBinAddr: 0x94510, symSize: 0xA0 }
  - { offsetInCU: 0x15EA8, offset: 0x304470, size: 0x8, addend: 0x0, symName: '__ZN5alloc7raw_vec19RawVec$LT$T$C$A$GT$8grow_one17hdc14d76226baa6aaE', symObjAddr: 0x2750, symBinAddr: 0x945B0, symSize: 0xC0 }
  - { offsetInCU: 0x16376, offset: 0x30493E, size: 0x8, addend: 0x0, symName: '__ZN5alloc7raw_vec19RawVec$LT$T$C$A$GT$8grow_one17hfb0e72b592d7c1fcE', symObjAddr: 0x2810, symBinAddr: 0x94670, symSize: 0xC0 }
  - { offsetInCU: 0x1E, offset: 0x304CEB, size: 0x8, addend: 0x0, symName: '__ZN4core3ptr100drop_in_place$LT$core..option..Option$LT$alloc..boxed..Box$LT$syn..path..GenericArgument$GT$$GT$$GT$17h3a7c44b9e57fe410E', symObjAddr: 0x0, symBinAddr: 0x94730, symSize: 0x50 }
  - { offsetInCU: 0x1A4F, offset: 0x30671C, size: 0x8, addend: 0x0, symName: '__ZN4core3ptr100drop_in_place$LT$core..option..Option$LT$alloc..boxed..Box$LT$syn..path..GenericArgument$GT$$GT$$GT$17h3a7c44b9e57fe410E', symObjAddr: 0x0, symBinAddr: 0x94730, symSize: 0x50 }
  - { offsetInCU: 0x1C1C, offset: 0x3068E9, size: 0x8, addend: 0x0, symName: '__ZN4core3ptr102drop_in_place$LT$syn..punctuated..Punctuated$LT$syn..path..GenericArgument$C$syn..token..Comma$GT$$GT$17h8b1978399cfff48bE', symObjAddr: 0x50, symBinAddr: 0x94780, symSize: 0xF0 }
  - { offsetInCU: 0x1F3C, offset: 0x306C09, size: 0x8, addend: 0x0, symName: '__ZN4core3ptr103drop_in_place$LT$core..option..Option$LT$alloc..boxed..Box$LT$syn..generics..TypeParamBound$GT$$GT$$GT$17hb14e4384a768542bE', symObjAddr: 0x140, symBinAddr: 0x94870, symSize: 0x50 }
  - { offsetInCU: 0x2201, offset: 0x306ECE, size: 0x8, addend: 0x0, symName: '__ZN4core3ptr103drop_in_place$LT$core..option..Option$LT$alloc..boxed..Box$LT$syn..generics..WherePredicate$GT$$GT$$GT$17he190813f4819c5dbE', symObjAddr: 0x190, symBinAddr: 0x948C0, symSize: 0xD0 }
  - { offsetInCU: 0x2595, offset: 0x307262, size: 0x8, addend: 0x0, symName: '__ZN4core3ptr103drop_in_place$LT$syn..punctuated..Punctuated$LT$syn..generics..GenericParam$C$syn..token..Comma$GT$$GT$17h0c6077a988036760E', symObjAddr: 0x260, symBinAddr: 0x94990, symSize: 0xF0 }
  - { offsetInCU: 0x2A90, offset: 0x30775D, size: 0x8, addend: 0x0, symName: '__ZN4core3ptr104drop_in_place$LT$syn..punctuated..Punctuated$LT$syn..generics..TypeParamBound$C$syn..token..Plus$GT$$GT$17h724e4d9d1d65061aE', symObjAddr: 0x350, symBinAddr: 0x94A80, symSize: 0x260 }
  - { offsetInCU: 0x345E, offset: 0x30812B, size: 0x8, addend: 0x0, symName: '__ZN4core3ptr115drop_in_place$LT$core..option..Option$LT$$LP$alloc..boxed..Box$LT$syn..pat..Pat$GT$$C$syn..token..Colon$RP$$GT$$GT$17h787822396d5dcd7bE', symObjAddr: 0x5B0, symBinAddr: 0x94CE0, symSize: 0x50 }
  - { offsetInCU: 0x362C, offset: 0x3082F9, size: 0x8, addend: 0x0, symName: '__ZN4core3ptr115drop_in_place$LT$core..option..Option$LT$$LP$syn..token..Brace$C$alloc..vec..Vec$LT$syn..item..Item$GT$$RP$$GT$$GT$17h4f61046186bbd7c9E', symObjAddr: 0x600, symBinAddr: 0x94D30, symSize: 0xD0 }
  - { offsetInCU: 0x3943, offset: 0x308610, size: 0x8, addend: 0x0, symName: '__ZN4core3ptr126drop_in_place$LT$core..option..Option$LT$$LP$syn..token..And$C$core..option..Option$LT$syn..lifetime..Lifetime$GT$$RP$$GT$$GT$17h45c5d73e12cdf6f0E', symObjAddr: 0x6D0, symBinAddr: 0x94E00, symSize: 0x30 }
  - { offsetInCU: 0x3B56, offset: 0x308823, size: 0x8, addend: 0x0, symName: '__ZN4core3ptr34drop_in_place$LT$syn..lit..Lit$GT$17hd64dde89a262341dE', symObjAddr: 0x700, symBinAddr: 0x94E30, symSize: 0x120 }
  - { offsetInCU: 0x4025, offset: 0x308CF2, size: 0x8, addend: 0x0, symName: '__ZN4core3ptr34drop_in_place$LT$syn..pat..Pat$GT$17hf88887878261d63cE', symObjAddr: 0x820, symBinAddr: 0x94F50, symSize: 0xF70 }
  - { offsetInCU: 0x7F1F, offset: 0x30CBEC, size: 0x8, addend: 0x0, symName: '__ZN4core3ptr34drop_in_place$LT$syn..ty..Type$GT$17ha80dd29b0f9d4a3fE', symObjAddr: 0x1790, symBinAddr: 0x95EC0, symSize: 0x5A0 }
  - { offsetInCU: 0x98BB, offset: 0x30E588, size: 0x8, addend: 0x0, symName: '__ZN4core3ptr36drop_in_place$LT$syn..expr..Expr$GT$17h10f573b40ddd212cE', symObjAddr: 0x1D30, symBinAddr: 0x96460, symSize: 0x2760 }
  - { offsetInCU: 0x139D0, offset: 0x31869D, size: 0x8, addend: 0x0, symName: '__ZN4core3ptr36drop_in_place$LT$syn..item..Item$GT$17haa59cf9e39ab8cebE', symObjAddr: 0x4490, symBinAddr: 0x98BC0, symSize: 0x17C0 }
  - { offsetInCU: 0x195DF, offset: 0x31E2AC, size: 0x8, addend: 0x0, symName: '__ZN4core3ptr36drop_in_place$LT$syn..mac..Macro$GT$17hc3b30a7a8a34cc2dE', symObjAddr: 0x5C50, symBinAddr: 0x9A380, symSize: 0x110 }
  - { offsetInCU: 0x19A7C, offset: 0x31E749, size: 0x8, addend: 0x0, symName: '__ZN4core3ptr36drop_in_place$LT$syn..path..Path$GT$17h75c74a97d5f0a03bE', symObjAddr: 0x5D60, symBinAddr: 0x9A490, symSize: 0x280 }
  - { offsetInCU: 0x1A529, offset: 0x31F1F6, size: 0x8, addend: 0x0, symName: '__ZN4core3ptr37drop_in_place$LT$syn..item..FnArg$GT$17h470fdeee5cba5e3aE', symObjAddr: 0x5FE0, symBinAddr: 0x9A710, symSize: 0x160 }
  - { offsetInCU: 0x1AB08, offset: 0x31F7D5, size: 0x8, addend: 0x0, symName: '__ZN4core3ptr37drop_in_place$LT$syn..stmt..Block$GT$17h6fc3254d5688f2c3E', symObjAddr: 0x6140, symBinAddr: 0x9A870, symSize: 0xD0 }
  - { offsetInCU: 0x1ADFE, offset: 0x31FACB, size: 0x8, addend: 0x0, symName: '__ZN4core3ptr38drop_in_place$LT$syn..data..Fields$GT$17h79840861dd1f691dE', symObjAddr: 0x6210, symBinAddr: 0x9A940, symSize: 0x190 }
  - { offsetInCU: 0x1B248, offset: 0x31FF15, size: 0x8, addend: 0x0, symName: '__ZN4core3ptr38drop_in_place$LT$syn..expr..Member$GT$17h6b0cf84594ce6bceE', symObjAddr: 0x63A0, symBinAddr: 0x9AAD0, symSize: 0x30 }
  - { offsetInCU: 0x1B344, offset: 0x320011, size: 0x8, addend: 0x0, symName: '__ZN4core3ptr39drop_in_place$LT$proc_macro2..Ident$GT$17ha28fef9769e267d9E', symObjAddr: 0x63D0, symBinAddr: 0x9AB00, symSize: 0x30 }
  - { offsetInCU: 0x1B49D, offset: 0x32016A, size: 0x8, addend: 0x0, symName: '__ZN4core3ptr39drop_in_place$LT$syn..item..UseTree$GT$17h7288572c631f954aE', symObjAddr: 0x6400, symBinAddr: 0x9AB30, symSize: 0xE0 }
  - { offsetInCU: 0x1B844, offset: 0x320511, size: 0x8, addend: 0x0, symName: '__ZN4core3ptr39drop_in_place$LT$syn..ty..TypeGroup$GT$17hf74b5ab2edcb931fE', symObjAddr: 0x64E0, symBinAddr: 0x9AC10, symSize: 0x50 }
  - { offsetInCU: 0x1BA2B, offset: 0x3206F8, size: 0x8, addend: 0x0, symName: '__ZN4core3ptr40drop_in_place$LT$syn..item..ImplItem$GT$17h98907b2080b0ccb0E', symObjAddr: 0x6530, symBinAddr: 0x9AC60, symSize: 0x6E0 }
  - { offsetInCU: 0x1CF9C, offset: 0x321C69, size: 0x8, addend: 0x0, symName: '__ZN4core3ptr40drop_in_place$LT$syn..item..ItemImpl$GT$17h2e9f0b01a7977a55E', symObjAddr: 0x6C10, symBinAddr: 0x9B340, symSize: 0x1E0 }
  - { offsetInCU: 0x1D75C, offset: 0x322429, size: 0x8, addend: 0x0, symName: '__ZN4core3ptr40drop_in_place$LT$syn..item..Receiver$GT$17h5e68a437c3b8e574E', symObjAddr: 0x6DF0, symBinAddr: 0x9B520, symSize: 0x130 }
  - { offsetInCU: 0x1DD47, offset: 0x322A14, size: 0x8, addend: 0x0, symName: '__ZN4core3ptr40drop_in_place$LT$syn..item..Variadic$GT$17hf9d4ebdb0f5e723aE', symObjAddr: 0x6F20, symBinAddr: 0x9B650, symSize: 0x110 }
  - { offsetInCU: 0x1E1C3, offset: 0x322E90, size: 0x8, addend: 0x0, symName: '__ZN4core3ptr40drop_in_place$LT$syn..ty..ReturnType$GT$17h035a612e322b6510E', symObjAddr: 0x7030, symBinAddr: 0x9B760, symSize: 0x50 }
  - { offsetInCU: 0x1E333, offset: 0x323000, size: 0x8, addend: 0x0, symName: '__ZN4core3ptr41drop_in_place$LT$syn..expr..ExprConst$GT$17hbfe19d5d621e6836E', symObjAddr: 0x7080, symBinAddr: 0x9B7B0, symSize: 0x180 }
  - { offsetInCU: 0x1E93F, offset: 0x32360C, size: 0x8, addend: 0x0, symName: '__ZN4core3ptr41drop_in_place$LT$syn..item..Signature$GT$17h41f785211ad8eb02E', symObjAddr: 0x7200, symBinAddr: 0x9B930, symSize: 0x180 }
  - { offsetInCU: 0x1F01F, offset: 0x323CEC, size: 0x8, addend: 0x0, symName: '__ZN4core3ptr41drop_in_place$LT$syn..item..TraitItem$GT$17hc74edaa948c160a2E', symObjAddr: 0x7380, symBinAddr: 0x9BAB0, symSize: 0x5E0 }
  - { offsetInCU: 0x201DB, offset: 0x324EA8, size: 0x8, addend: 0x0, symName: '__ZN4core3ptr43drop_in_place$LT$syn..data..FieldsNamed$GT$17h56bef6f151514865E', symObjAddr: 0x7960, symBinAddr: 0x9C090, symSize: 0xE0 }
  - { offsetInCU: 0x20501, offset: 0x3251CE, size: 0x8, addend: 0x0, symName: '__ZN4core3ptr44drop_in_place$LT$syn..generics..Generics$GT$17h671de917167f8b66E', symObjAddr: 0x7A40, symBinAddr: 0x9C170, symSize: 0x40 }
  - { offsetInCU: 0x2051E, offset: 0x3251EB, size: 0x8, addend: 0x0, symName: '__ZN4core3ptr44drop_in_place$LT$syn..lifetime..Lifetime$GT$17he37fa474f03de7b1E', symObjAddr: 0x7A80, symBinAddr: 0x9C1B0, symSize: 0x30 }
  - { offsetInCU: 0x20696, offset: 0x325363, size: 0x8, addend: 0x0, symName: '__ZN4core3ptr44drop_in_place$LT$syn..parse..ParseBuffer$GT$17hf792ff20095efc35E', symObjAddr: 0x7AB0, symBinAddr: 0x9C1E0, symSize: 0x70 }
  - { offsetInCU: 0x20AAD, offset: 0x32577A, size: 0x8, addend: 0x0, symName: '__ZN4core3ptr45drop_in_place$LT$proc_macro2..TokenStream$GT$17h76e8e68015f4924dE', symObjAddr: 0x7B20, symBinAddr: 0x9C250, symSize: 0x140 }
  - { offsetInCU: 0x20F47, offset: 0x325C14, size: 0x8, addend: 0x0, symName: '__ZN4core3ptr45drop_in_place$LT$syn..generics..TypeParam$GT$17h188a459c1380ac75E', symObjAddr: 0x7C60, symBinAddr: 0x9C390, symSize: 0x230 }
  - { offsetInCU: 0x217BC, offset: 0x326489, size: 0x8, addend: 0x0, symName: '__ZN4core3ptr46drop_in_place$LT$syn..generics..ConstParam$GT$17h7a9b900b2b88bfcdE', symObjAddr: 0x7E90, symBinAddr: 0x9C5C0, symSize: 0x150 }
  - { offsetInCU: 0x21C3D, offset: 0x32690A, size: 0x8, addend: 0x0, symName: '__ZN4core3ptr47drop_in_place$LT$syn..path..GenericArgument$GT$17h593f06d6ca9a94d2E', symObjAddr: 0x7FE0, symBinAddr: 0x9C710, symSize: 0x450 }
  - { offsetInCU: 0x229B3, offset: 0x327680, size: 0x8, addend: 0x0, symName: '__ZN4core3ptr49drop_in_place$LT$syn..generics..LifetimeParam$GT$17h3a8835ab294bfd16E', symObjAddr: 0x8430, symBinAddr: 0x9CB60, symSize: 0xF0 }
  - { offsetInCU: 0x22DCA, offset: 0x327A97, size: 0x8, addend: 0x0, symName: '__ZN4core3ptr49drop_in_place$LT$syn..restriction..Visibility$GT$17h3e52b998838defb1E', symObjAddr: 0x8520, symBinAddr: 0x9CC50, symSize: 0x60 }
  - { offsetInCU: 0x22F3B, offset: 0x327C08, size: 0x8, addend: 0x0, symName: '__ZN4core3ptr50drop_in_place$LT$syn..generics..TypeParamBound$GT$17h81b4325b5900604dE', symObjAddr: 0x8580, symBinAddr: 0x9CCB0, symSize: 0xA0 }
  - { offsetInCU: 0x230A1, offset: 0x327D6E, size: 0x8, addend: 0x0, symName: '__ZN4core3ptr58drop_in_place$LT$alloc..vec..Vec$LT$syn..expr..Arm$GT$$GT$17hff9224aadf2233b8E', symObjAddr: 0x8620, symBinAddr: 0x9CD50, symSize: 0xD0 }
  - { offsetInCU: 0x23361, offset: 0x32802E, size: 0x8, addend: 0x0, symName: '__ZN4core3ptr59drop_in_place$LT$alloc..boxed..Box$LT$syn..pat..Pat$GT$$GT$17h622b0c1db21c0742E', symObjAddr: 0x86F0, symBinAddr: 0x9CE20, symSize: 0x50 }
  - { offsetInCU: 0x234BA, offset: 0x328187, size: 0x8, addend: 0x0, symName: '__ZN4core3ptr59drop_in_place$LT$alloc..boxed..Box$LT$syn..ty..Type$GT$$GT$17hde45fa887dd8b605E', symObjAddr: 0x8740, symBinAddr: 0x9CE70, symSize: 0x50 }
  - { offsetInCU: 0x23613, offset: 0x3282E0, size: 0x8, addend: 0x0, symName: '__ZN4core3ptr61drop_in_place$LT$alloc..boxed..Box$LT$syn..expr..Expr$GT$$GT$17hbb42293869113942E', symObjAddr: 0x8790, symBinAddr: 0x9CEC0, symSize: 0x50 }
  - { offsetInCU: 0x2376C, offset: 0x328439, size: 0x8, addend: 0x0, symName: '__ZN4core3ptr61drop_in_place$LT$syn..path..ParenthesizedGenericArguments$GT$17h6b1731382637937fE', symObjAddr: 0x87E0, symBinAddr: 0x9CF10, symSize: 0x170 }
  - { offsetInCU: 0x23D75, offset: 0x328A42, size: 0x8, addend: 0x0, symName: '__ZN4core3ptr62drop_in_place$LT$alloc..boxed..Box$LT$syn..stmt..Block$GT$$GT$17h21dcb5adf0237a12E', symObjAddr: 0x8950, symBinAddr: 0x9D080, symSize: 0xE0 }
  - { offsetInCU: 0x24183, offset: 0x328E50, size: 0x8, addend: 0x0, symName: '__ZN4core3ptr63drop_in_place$LT$alloc..boxed..Box$LT$syn..lit..LitRepr$GT$$GT$17h6e3a82ea4de7b84cE', symObjAddr: 0x8A30, symBinAddr: 0x9D160, symSize: 0x60 }
  - { offsetInCU: 0x2444C, offset: 0x329119, size: 0x8, addend: 0x0, symName: '__ZN4core3ptr63drop_in_place$LT$alloc..vec..Vec$LT$syn..item..ImplItem$GT$$GT$17hc51fca07e67d35aeE', symObjAddr: 0x8A90, symBinAddr: 0x9D1C0, symSize: 0x80 }
  - { offsetInCU: 0x24723, offset: 0x3293F0, size: 0x8, addend: 0x0, symName: '__ZN4core3ptr64drop_in_place$LT$alloc..boxed..Box$LT$syn..item..UseTree$GT$$GT$17he4d7024582150632E', symObjAddr: 0x8B10, symBinAddr: 0x9D240, symSize: 0xF0 }
  - { offsetInCU: 0x24C3E, offset: 0x32990B, size: 0x8, addend: 0x0, symName: '__ZN4core3ptr64drop_in_place$LT$alloc..boxed..Box$LT$syn..pat..FieldPat$GT$$GT$17hbf8f4867d84bd25dE', symObjAddr: 0x8C00, symBinAddr: 0x9D330, symSize: 0x140 }
  - { offsetInCU: 0x2533F, offset: 0x32A00C, size: 0x8, addend: 0x0, symName: '__ZN4core3ptr64drop_in_place$LT$alloc..boxed..Box$LT$syn..ty..BareFnArg$GT$$GT$17h6be6354eb1d1364dE', symObjAddr: 0x8D40, symBinAddr: 0x9D470, symSize: 0x140 }
  - { offsetInCU: 0x258C8, offset: 0x32A595, size: 0x8, addend: 0x0, symName: '__ZN4core3ptr64drop_in_place$LT$alloc..vec..Vec$LT$syn..attr..Attribute$GT$$GT$17he33e25539d5885aeE', symObjAddr: 0x8E80, symBinAddr: 0x9D5B0, symSize: 0xD0 }
  - { offsetInCU: 0x25BBC, offset: 0x32A889, size: 0x8, addend: 0x0, symName: '__ZN4core3ptr64drop_in_place$LT$alloc..vec..Vec$LT$syn..item..TraitItem$GT$$GT$17hff1cc01ccae80d7aE', symObjAddr: 0x8F50, symBinAddr: 0x9D680, symSize: 0x80 }
  - { offsetInCU: 0x25E74, offset: 0x32AB41, size: 0x8, addend: 0x0, symName: '__ZN4core3ptr65drop_in_place$LT$alloc..vec..Vec$LT$proc_macro..TokenTree$GT$$GT$17h8abd81f8596dbc59E', symObjAddr: 0x8FD0, symBinAddr: 0x9D700, symSize: 0x110 }
  - { offsetInCU: 0x2626C, offset: 0x32AF39, size: 0x8, addend: 0x0, symName: '__ZN4core3ptr65drop_in_place$LT$core..option..Option$LT$syn..expr..Label$GT$$GT$17hac599686b33ef364E', symObjAddr: 0x90E0, symBinAddr: 0x9D810, symSize: 0x30 }
  - { offsetInCU: 0x263A6, offset: 0x32B073, size: 0x8, addend: 0x0, symName: '__ZN4core3ptr65drop_in_place$LT$core..option..Option$LT$syn..path..QSelf$GT$$GT$17h0b8dd5cda5f2cd6bE', symObjAddr: 0x9110, symBinAddr: 0x9D840, symSize: 0x50 }
  - { offsetInCU: 0x26527, offset: 0x32B1F4, size: 0x8, addend: 0x0, symName: '__ZN4core3ptr65drop_in_place$LT$core..option..Option$LT$syn..stmt..Block$GT$$GT$17h74f2551ed24e2d27E', symObjAddr: 0x9160, symBinAddr: 0x9D890, symSize: 0xD0 }
  - { offsetInCU: 0x267FC, offset: 0x32B4C9, size: 0x8, addend: 0x0, symName: '__ZN4core3ptr66drop_in_place$LT$alloc..vec..Vec$LT$syn..item..ForeignItem$GT$$GT$17h1f176e04eaf5e0dfE', symObjAddr: 0x9230, symBinAddr: 0x9D960, symSize: 0x80 }
  - { offsetInCU: 0x26AB4, offset: 0x32B781, size: 0x8, addend: 0x0, symName: '__ZN4core3ptr66drop_in_place$LT$core..option..Option$LT$syn..pat..PatRest$GT$$GT$17hd5bb3bc28aa78ac1E', symObjAddr: 0x92B0, symBinAddr: 0x9D9E0, symSize: 0xE0 }
  - { offsetInCU: 0x26DDC, offset: 0x32BAA9, size: 0x8, addend: 0x0, symName: '__ZN4core3ptr67drop_in_place$LT$alloc..boxed..Box$LT$syn..expr..FieldValue$GT$$GT$17hbbcf67a9d5e9863cE', symObjAddr: 0x9390, symBinAddr: 0x9DAC0, symSize: 0x140 }
  - { offsetInCU: 0x27364, offset: 0x32C031, size: 0x8, addend: 0x0, symName: '__ZN4core3ptr70drop_in_place$LT$core..option..Option$LT$syn..ty..BareVariadic$GT$$GT$17h79a19250e9f043b1E', symObjAddr: 0x94D0, symBinAddr: 0x9DC00, symSize: 0x100 }
  - { offsetInCU: 0x277CF, offset: 0x32C49C, size: 0x8, addend: 0x0, symName: '__ZN4core3ptr72drop_in_place$LT$alloc..boxed..Box$LT$syn..path..GenericArgument$GT$$GT$17hfd308d374af4273dE', symObjAddr: 0x95D0, symBinAddr: 0x9DD00, symSize: 0x2B0 }
  - { offsetInCU: 0x281E0, offset: 0x32CEAD, size: 0x8, addend: 0x0, symName: '__ZN4core3ptr72drop_in_place$LT$core..option..Option$LT$syn..lifetime..Lifetime$GT$$GT$17h49cce6f02f9c0590E', symObjAddr: 0x9880, symBinAddr: 0x9DFB0, symSize: 0x30 }
  - { offsetInCU: 0x282FB, offset: 0x32CFC8, size: 0x8, addend: 0x0, symName: '__ZN4core3ptr73drop_in_place$LT$alloc..boxed..Box$LT$syn..generics..GenericParam$GT$$GT$17ha26d5d145af4b203E', symObjAddr: 0x98B0, symBinAddr: 0x9DFE0, symSize: 0x80 }
  - { offsetInCU: 0x28471, offset: 0x32D13E, size: 0x8, addend: 0x0, symName: '__ZN4core3ptr75drop_in_place$LT$alloc..boxed..Box$LT$syn..generics..TypeParamBound$GT$$GT$17h129a4e927e5eb81bE', symObjAddr: 0x9930, symBinAddr: 0x9E060, symSize: 0x1B0 }
  - { offsetInCU: 0x28B8F, offset: 0x32D85C, size: 0x8, addend: 0x0, symName: '__ZN4core3ptr75drop_in_place$LT$core..option..Option$LT$syn..generics..WhereClause$GT$$GT$17haaf63f327098cdccE', symObjAddr: 0x9AE0, symBinAddr: 0x9E210, symSize: 0x90 }
  - { offsetInCU: 0x28E83, offset: 0x32DB50, size: 0x8, addend: 0x0, symName: '__ZN4core3ptr86drop_in_place$LT$syn..punctuated..Punctuated$LT$syn..pat..Pat$C$syn..token..Or$GT$$GT$17h9cc6b5f7b6d3a555E', symObjAddr: 0x9B70, symBinAddr: 0x9E2A0, symSize: 0x120 }
  - { offsetInCU: 0x292FE, offset: 0x32DFCB, size: 0x8, addend: 0x0, symName: '__ZN4core3ptr87drop_in_place$LT$core..option..Option$LT$alloc..boxed..Box$LT$syn..pat..Pat$GT$$GT$$GT$17h51cd48973d96c411E', symObjAddr: 0x9C90, symBinAddr: 0x9E3C0, symSize: 0x50 }
  - { offsetInCU: 0x2946E, offset: 0x32E13B, size: 0x8, addend: 0x0, symName: '__ZN4core3ptr87drop_in_place$LT$core..option..Option$LT$alloc..boxed..Box$LT$syn..ty..Type$GT$$GT$$GT$17h103a25a4a7d7374eE', symObjAddr: 0x9CE0, symBinAddr: 0x9E410, symSize: 0x50 }
  - { offsetInCU: 0x295DE, offset: 0x32E2AB, size: 0x8, addend: 0x0, symName: '__ZN4core3ptr89drop_in_place$LT$core..option..Option$LT$alloc..boxed..Box$LT$syn..expr..Expr$GT$$GT$$GT$17h9e02509cb2345d44E', symObjAddr: 0x9D30, symBinAddr: 0x9E460, symSize: 0x50 }
  - { offsetInCU: 0x2978C, offset: 0x32E459, size: 0x8, addend: 0x0, symName: '__ZN4core3ptr89drop_in_place$LT$syn..punctuated..Punctuated$LT$syn..pat..Pat$C$syn..token..Comma$GT$$GT$17hd3a83c36827f210aE', symObjAddr: 0x9D80, symBinAddr: 0x9E4B0, symSize: 0x120 }
  - { offsetInCU: 0x29C5C, offset: 0x32E929, size: 0x8, addend: 0x0, symName: '__ZN4core3ptr90drop_in_place$LT$core..option..Option$LT$alloc..boxed..Box$LT$syn..data..Field$GT$$GT$$GT$17h9f1aee8cd56c6727E', symObjAddr: 0x9EA0, symBinAddr: 0x9E5D0, symSize: 0x1B0 }
  - { offsetInCU: 0x2A34E, offset: 0x32F01B, size: 0x8, addend: 0x0, symName: '__ZN4core3ptr90drop_in_place$LT$core..option..Option$LT$alloc..boxed..Box$LT$syn..item..FnArg$GT$$GT$$GT$17h8635495a730dc0bfE', symObjAddr: 0xA050, symBinAddr: 0x9E780, symSize: 0x50 }
  - { offsetInCU: 0x2A4EF, offset: 0x32F1BC, size: 0x8, addend: 0x0, symName: '__ZN4core3ptr91drop_in_place$LT$syn..punctuated..Punctuated$LT$syn..expr..Expr$C$syn..token..Comma$GT$$GT$17h6f261e8f470c81f2E', symObjAddr: 0xA0A0, symBinAddr: 0x9E7D0, symSize: 0x120 }
  - { offsetInCU: 0x2A97D, offset: 0x32F64A, size: 0x8, addend: 0x0, symName: '__ZN4core3ptr92drop_in_place$LT$core..option..Option$LT$$LP$syn..token..As$C$proc_macro2..Ident$RP$$GT$$GT$17h12a88945917fa9dbE', symObjAddr: 0xA1C0, symBinAddr: 0x9E8F0, symSize: 0x30 }
  - { offsetInCU: 0x2AAD6, offset: 0x32F7A3, size: 0x8, addend: 0x0, symName: '__ZN4core3ptr92drop_in_place$LT$core..option..Option$LT$alloc..boxed..Box$LT$syn..data..Variant$GT$$GT$$GT$17hb65f9b5d99f448afE', symObjAddr: 0xA1F0, symBinAddr: 0x9E920, symSize: 0x170 }
  - { offsetInCU: 0x2B102, offset: 0x32FDCF, size: 0x8, addend: 0x0, symName: '__ZN4core3ptr92drop_in_place$LT$syn..punctuated..Punctuated$LT$syn..item..FnArg$C$syn..token..Comma$GT$$GT$17h7de33e77eabaea82E', symObjAddr: 0xA360, symBinAddr: 0x9EA90, symSize: 0x130 }
  - { offsetInCU: 0x2B568, offset: 0x330235, size: 0x8, addend: 0x0, symName: '__ZN4core3ptr94drop_in_place$LT$syn..punctuated..Punctuated$LT$syn..data..Variant$C$syn..token..Comma$GT$$GT$17h310cd79aba4529ccE', symObjAddr: 0xA490, symBinAddr: 0x9EBC0, symSize: 0xE0 }
  - { offsetInCU: 0x2B8C8, offset: 0x330595, size: 0x8, addend: 0x0, symName: '__ZN4core3ptr94drop_in_place$LT$syn..punctuated..Punctuated$LT$syn..item..UseTree$C$syn..token..Comma$GT$$GT$17h6236871345889df7E', symObjAddr: 0xA570, symBinAddr: 0x9ECA0, symSize: 0xF0 }
  - { offsetInCU: 0x2BC0E, offset: 0x3308DB, size: 0x8, addend: 0x0, symName: '__ZN4core3ptr94drop_in_place$LT$syn..punctuated..Punctuated$LT$syn..pat..FieldPat$C$syn..token..Comma$GT$$GT$17h43ec25af986ef674E', symObjAddr: 0xA660, symBinAddr: 0x9ED90, symSize: 0xF0 }
  - { offsetInCU: 0x2BF0D, offset: 0x330BDA, size: 0x8, addend: 0x0, symName: '__ZN4core3ptr94drop_in_place$LT$syn..punctuated..Punctuated$LT$syn..ty..BareFnArg$C$syn..token..Comma$GT$$GT$17h7ba4c699ee390ebaE', symObjAddr: 0xA750, symBinAddr: 0x9EE80, symSize: 0xF0 }
  - { offsetInCU: 0x2C20E, offset: 0x330EDB, size: 0x8, addend: 0x0, symName: '__ZN4core3ptr96drop_in_place$LT$core..option..Option$LT$alloc..boxed..Box$LT$syn..path..PathSegment$GT$$GT$$GT$17h5de12a5a0f9e9ef9E', symObjAddr: 0xA840, symBinAddr: 0x9EF70, symSize: 0x1A0 }
  - { offsetInCU: 0x2C8CF, offset: 0x33159C, size: 0x8, addend: 0x0, symName: '__ZN4core3ptr97drop_in_place$LT$syn..punctuated..Punctuated$LT$syn..expr..FieldValue$C$syn..token..Comma$GT$$GT$17hf58d0a9a09266ab3E', symObjAddr: 0xA9E0, symBinAddr: 0x9F110, symSize: 0xF0 }
  - { offsetInCU: 0x2CC48, offset: 0x331915, size: 0x8, addend: 0x0, symName: '__ZN4core3ptr98drop_in_place$LT$syn..punctuated..Punctuated$LT$syn..lifetime..Lifetime$C$syn..token..Plus$GT$$GT$17h600c2b78f78fd2b9E', symObjAddr: 0xAAD0, symBinAddr: 0x9F200, symSize: 0xD0 }
  - { offsetInCU: 0x341C3, offset: 0x338E90, size: 0x8, addend: 0x0, symName: __ZN3syn4item7parsing18parse_rest_of_item17ha26e4acb71011a19E, symObjAddr: 0xAC50, symBinAddr: 0x9F380, symSize: 0x4180 }
  - { offsetInCU: 0x40A23, offset: 0x3456F0, size: 0x8, addend: 0x0, symName: __ZN3syn4item7parsing12parse_macro217hf6831cf9afcd0b55E, symObjAddr: 0xFC80, symBinAddr: 0xA43B0, symSize: 0x8D0 }
  - { offsetInCU: 0x42571, offset: 0x34723E, size: 0x8, addend: 0x0, symName: __ZN3syn4item7parsing14parse_item_use17h48b98338f7612e03E, symObjAddr: 0x10550, symBinAddr: 0xA4C80, symSize: 0x580 }
  - { offsetInCU: 0x43005, offset: 0x347CD2, size: 0x8, addend: 0x0, symName: __ZN3syn4item7parsing14parse_use_tree17h3459008fc061dfc3E, symObjAddr: 0x10AD0, symBinAddr: 0xA5200, symSize: 0xEA0 }
  - { offsetInCU: 0x45A84, offset: 0x34A751, size: 0x8, addend: 0x0, symName: __ZN3syn4item7parsing14peek_signature17h6fcb1c3323e18828E, symObjAddr: 0x11970, symBinAddr: 0xA60A0, symSize: 0x3E0 }
  - { offsetInCU: 0x46DDE, offset: 0x34BAAB, size: 0x8, addend: 0x0, symName: __ZN3syn4item7parsing16parse_rest_of_fn17hd069073817548a43E, symObjAddr: 0x11D50, symBinAddr: 0xA6480, symSize: 0x540 }
  - { offsetInCU: 0x47B0D, offset: 0x34C7DA, size: 0x8, addend: 0x0, symName: __ZN3syn4item7parsing24parse_fn_arg_or_variadic17h2531ec3f9cf1e73bE, symObjAddr: 0x12290, symBinAddr: 0xA69C0, symSize: 0xE20 }
  - { offsetInCU: 0x4A7A6, offset: 0x34F473, size: 0x8, addend: 0x0, symName: __ZN3syn4item7parsing13parse_fn_args17hef126a53be169aa0E, symObjAddr: 0x130B0, symBinAddr: 0xA77E0, symSize: 0x7D0 }
  - { offsetInCU: 0x4B608, offset: 0x3502D5, size: 0x8, addend: 0x0, symName: __ZN3syn4item7parsing23parse_foreign_item_type17h802ebbe8ec67c11cE, symObjAddr: 0x13880, symBinAddr: 0xA7FB0, symSize: 0x450 }
  - { offsetInCU: 0x4BCE4, offset: 0x3509B1, size: 0x8, addend: 0x0, symName: __ZN3syn4item7parsing15parse_item_type17ha00b234c7541791bE, symObjAddr: 0x13CD0, symBinAddr: 0xA8400, symSize: 0x5F0 }
  - { offsetInCU: 0x4C720, offset: 0x3513ED, size: 0x8, addend: 0x0, symName: __ZN3syn4item7parsing26parse_trait_or_trait_alias17h869d58d0d710f92eE, symObjAddr: 0x142C0, symBinAddr: 0xA89F0, symSize: 0x880 }
  - { offsetInCU: 0x4E079, offset: 0x352D46, size: 0x8, addend: 0x0, symName: __ZN3syn4item7parsing19parse_rest_of_trait17hcfaaa983dae95479E, symObjAddr: 0x14B40, symBinAddr: 0xA9270, symSize: 0xB90 }
  - { offsetInCU: 0x4F861, offset: 0x35452E, size: 0x8, addend: 0x0, symName: __ZN3syn4item7parsing26parse_start_of_trait_alias17h30b54fc2a2c484e2E, symObjAddr: 0x156D0, symBinAddr: 0xA9E00, symSize: 0x4B0 }
  - { offsetInCU: 0x502CA, offset: 0x354F97, size: 0x8, addend: 0x0, symName: __ZN3syn4item7parsing25parse_rest_of_trait_alias17hc3ff4bca2b4f24ffE, symObjAddr: 0x15B80, symBinAddr: 0xAA2B0, symSize: 0x670 }
  - { offsetInCU: 0x50F62, offset: 0x355C2F, size: 0x8, addend: 0x0, symName: __ZN3syn4item7parsing21parse_trait_item_type17h346cdab40b3c4f88E, symObjAddr: 0x161F0, symBinAddr: 0xAA920, symSize: 0x4D0 }
  - { offsetInCU: 0x51755, offset: 0x356422, size: 0x8, addend: 0x0, symName: __ZN3syn4item7parsing10parse_impl17hdf5cb50f2b1c1c56E, symObjAddr: 0x166C0, symBinAddr: 0xAADF0, symSize: 0x1700 }
  - { offsetInCU: 0x535CF, offset: 0x35829C, size: 0x8, addend: 0x0, symName: __ZN3syn4item7parsing18parse_impl_item_fn17h8007279fefb73b29E, symObjAddr: 0x17DC0, symBinAddr: 0xAC4F0, symSize: 0x770 }
  - { offsetInCU: 0x54327, offset: 0x358FF4, size: 0x8, addend: 0x0, symName: __ZN3syn4item7parsing20parse_impl_item_type17hcc883153d233f1e7E, symObjAddr: 0x18530, symBinAddr: 0xACC60, symSize: 0x49B }
  - { offsetInCU: 0x59A49, offset: 0x35E716, size: 0x8, addend: 0x0, symName: __ZN5alloc5alloc15exchange_malloc17h9a87608d0224859dE, symObjAddr: 0xAC10, symBinAddr: 0x9F340, symSize: 0x40 }
  - { offsetInCU: 0x5D6D8, offset: 0x3623A5, size: 0x8, addend: 0x0, symName: '__ZN5alloc3vec16Vec$LT$T$C$A$GT$4push17h8559c656bf8cfdb7E', symObjAddr: 0xABA0, symBinAddr: 0x9F2D0, symSize: 0x70 }
  - { offsetInCU: 0x5E797, offset: 0x363464, size: 0x8, addend: 0x0, symName: __ZN3syn4item7parsing16FlexibleItemType5parse17ha5c93c92e512e37dE, symObjAddr: 0xEDD0, symBinAddr: 0xA3500, symSize: 0xA20 }
  - { offsetInCU: 0x5F4C6, offset: 0x364193, size: 0x8, addend: 0x0, symName: __ZN3syn4item7parsing16FlexibleItemType21parse_optional_bounds17h6e18b1c664fc4e1bE, symObjAddr: 0xF7F0, symBinAddr: 0xA3F20, symSize: 0x340 }
  - { offsetInCU: 0x5FBD0, offset: 0x36489D, size: 0x8, addend: 0x0, symName: __ZN3syn4item7parsing16FlexibleItemType25parse_optional_definition17hf229b9de02f2ada3E, symObjAddr: 0xFB30, symBinAddr: 0xA4260, symSize: 0x150 }
  - { offsetInCU: 0x55F, offset: 0x37055C, size: 0x8, addend: 0x0, symName: '__ZN3syn8generics8printing80_$LT$impl$u20$quote..to_tokens..ToTokens$u20$for$u20$syn..generics..Generics$GT$9to_tokens17hd4a2af35b3698905E', symObjAddr: 0xF4D0, symBinAddr: 0xBAA80, symSize: 0x220 }
  - { offsetInCU: 0xD66, offset: 0x370D63, size: 0x8, addend: 0x0, symName: '__ZN3syn8generics8printing86_$LT$impl$u20$quote..to_tokens..ToTokens$u20$for$u20$syn..generics..BoundLifetimes$GT$9to_tokens17hd15a7a043033bd7bE', symObjAddr: 0x10110, symBinAddr: 0xBACA0, symSize: 0x160 }
  - { offsetInCU: 0x126C, offset: 0x371269, size: 0x8, addend: 0x0, symName: '__ZN3syn8generics8printing81_$LT$impl$u20$quote..to_tokens..ToTokens$u20$for$u20$syn..generics..TypeParam$GT$9to_tokens17had0957bfff47d1f9E', symObjAddr: 0x10490, symBinAddr: 0xBAE00, symSize: 0x1E0 }
  - { offsetInCU: 0x19A8, offset: 0x3719A5, size: 0x8, addend: 0x0, symName: '__ZN3syn8generics8printing82_$LT$impl$u20$quote..to_tokens..ToTokens$u20$for$u20$syn..generics..TraitBound$GT$9to_tokens17h377c6cef550ec1bfE', symObjAddr: 0x10670, symBinAddr: 0xBAFE0, symSize: 0x200 }
  - { offsetInCU: 0x1FF8, offset: 0x371FF5, size: 0x8, addend: 0x0, symName: '__ZN3syn8generics8printing82_$LT$impl$u20$quote..to_tokens..ToTokens$u20$for$u20$syn..generics..ConstParam$GT$9to_tokens17hee7453fb2d0e238bE', symObjAddr: 0x108A0, symBinAddr: 0xBB1E0, symSize: 0x1D0 }
  - { offsetInCU: 0x2399, offset: 0x372396, size: 0x8, addend: 0x0, symName: '__ZN3syn8generics8printing83_$LT$impl$u20$quote..to_tokens..ToTokens$u20$for$u20$syn..generics..WhereClause$GT$9to_tokens17h909a6fdfe3e31442E', symObjAddr: 0x10A70, symBinAddr: 0xBB3B0, symSize: 0x120 }
  - { offsetInCU: 0x2943, offset: 0x372940, size: 0x8, addend: 0x0, symName: '__ZN3syn8generics8printing85_$LT$impl$u20$quote..to_tokens..ToTokens$u20$for$u20$syn..generics..PredicateType$GT$9to_tokens17h8b4ffaf01fdc18f1E', symObjAddr: 0x10CF0, symBinAddr: 0xBB4D0, symSize: 0x320 }
  - { offsetInCU: 0x343C, offset: 0x373439, size: 0x8, addend: 0x0, symName: '__ZN3syn8generics7parsing71_$LT$impl$u20$syn..parse..Parse$u20$for$u20$syn..generics..Generics$GT$5parse17h41c098435a7be9a0E', symObjAddr: 0x8920, symBinAddr: 0xB4AB0, symSize: 0x1100 }
  - { offsetInCU: 0x5AFA, offset: 0x375AF7, size: 0x8, addend: 0x0, symName: '__ZN3syn8generics7parsing76_$LT$impl$u20$syn..parse..Parse$u20$for$u20$syn..generics..LifetimeParam$GT$5parse17h5d8a6609f02a7b5bE', symObjAddr: 0xA520, symBinAddr: 0xB5BB0, symSize: 0x800 }
  - { offsetInCU: 0x6B84, offset: 0x376B81, size: 0x8, addend: 0x0, symName: '__ZN3syn8generics7parsing77_$LT$impl$u20$syn..parse..Parse$u20$for$u20$syn..generics..BoundLifetimes$GT$5parse17hc16736384c98dd41E', symObjAddr: 0xAD20, symBinAddr: 0xB63B0, symSize: 0x6A0 }
  - { offsetInCU: 0x78F2, offset: 0x3778EF, size: 0x8, addend: 0x0, symName: '__ZN3syn8generics7parsing72_$LT$impl$u20$syn..parse..Parse$u20$for$u20$syn..generics..TypeParam$GT$5parse17h9c7ea43a33d4115aE', symObjAddr: 0xB3C0, symBinAddr: 0xB6A50, symSize: 0x770 }
  - { offsetInCU: 0x8A35, offset: 0x378A32, size: 0x8, addend: 0x0, symName: '__ZN3syn8generics7parsing77_$LT$impl$u20$syn..parse..Parse$u20$for$u20$syn..generics..TypeParamBound$GT$5parse17h25e623b87f173e12E', symObjAddr: 0xBB30, symBinAddr: 0xB71C0, symSize: 0x1250 }
  - { offsetInCU: 0xC3DD, offset: 0x37C3DA, size: 0x8, addend: 0x0, symName: '__ZN3syn8generics7parsing73_$LT$impl$u20$syn..parse..Parse$u20$for$u20$syn..generics..TraitBound$GT$5parse17h690a689474a7b206E', symObjAddr: 0xD250, symBinAddr: 0xB88E0, symSize: 0x6B0 }
  - { offsetInCU: 0xD31E, offset: 0x37D31B, size: 0x8, addend: 0x0, symName: '__ZN3syn8generics7parsing73_$LT$impl$u20$syn..parse..Parse$u20$for$u20$syn..generics..ConstParam$GT$5parse17h7d6405b926c1a94eE', symObjAddr: 0xD9E0, symBinAddr: 0xB8F90, symSize: 0x970 }
  - { offsetInCU: 0xE7E4, offset: 0x37E7E1, size: 0x8, addend: 0x0, symName: '__ZN3syn8generics7parsing74_$LT$impl$u20$syn..parse..Parse$u20$for$u20$syn..generics..WhereClause$GT$5parse17hd23830e75acad64dE', symObjAddr: 0xE350, symBinAddr: 0xB9900, symSize: 0x3B0 }
  - { offsetInCU: 0xF29E, offset: 0x37F29B, size: 0x8, addend: 0x0, symName: '__ZN3syn8generics7parsing77_$LT$impl$u20$syn..parse..Parse$u20$for$u20$syn..generics..WherePredicate$GT$5parse17h70c29b17190c019cE', symObjAddr: 0xE700, symBinAddr: 0xB9CB0, symSize: 0xDD0 }
  - { offsetInCU: 0x111AE, offset: 0x3811AB, size: 0x8, addend: 0x0, symName: '__ZN74_$LT$syn..generics..GenericParam$u20$as$u20$quote..to_tokens..ToTokens$GT$9to_tokens17h597acb1380a7ac96E', symObjAddr: 0x11010, symBinAddr: 0xBB7F0, symSize: 0x270 }
  - { offsetInCU: 0x18EF8, offset: 0x388EF5, size: 0x8, addend: 0x0, symName: '__ZN4core3ptr100drop_in_place$LT$core..option..Option$LT$alloc..boxed..Box$LT$syn..path..GenericArgument$GT$$GT$$GT$17h3a7c44b9e57fe410E', symObjAddr: 0x360, symBinAddr: 0xAD100, symSize: 0x50 }
  - { offsetInCU: 0x19103, offset: 0x389100, size: 0x8, addend: 0x0, symName: '__ZN4core3ptr100drop_in_place$LT$syn..punctuated..Punctuated$LT$syn..path..PathSegment$C$syn..token..PathSep$GT$$GT$17he41ef64147139591E', symObjAddr: 0x3B0, symBinAddr: 0xAD150, symSize: 0x170 }
  - { offsetInCU: 0x1977C, offset: 0x389779, size: 0x8, addend: 0x0, symName: '__ZN4core3ptr103drop_in_place$LT$core..option..Option$LT$alloc..boxed..Box$LT$syn..generics..TypeParamBound$GT$$GT$$GT$17hb14e4384a768542bE', symObjAddr: 0x520, symBinAddr: 0xAD2C0, symSize: 0x50 }
  - { offsetInCU: 0x199A6, offset: 0x3899A3, size: 0x8, addend: 0x0, symName: '__ZN4core3ptr103drop_in_place$LT$core..option..Option$LT$alloc..boxed..Box$LT$syn..generics..WherePredicate$GT$$GT$$GT$17he190813f4819c5dbE', symObjAddr: 0x570, symBinAddr: 0xAD310, symSize: 0xD0 }
  - { offsetInCU: 0x19D3A, offset: 0x389D37, size: 0x8, addend: 0x0, symName: '__ZN4core3ptr103drop_in_place$LT$syn..punctuated..Punctuated$LT$syn..generics..GenericParam$C$syn..token..Comma$GT$$GT$17h0c6077a988036760E.llvm.1278538373299499664', symObjAddr: 0x640, symBinAddr: 0xAD3E0, symSize: 0xF0 }
  - { offsetInCU: 0x1A19A, offset: 0x38A197, size: 0x8, addend: 0x0, symName: '__ZN4core3ptr104drop_in_place$LT$syn..punctuated..Punctuated$LT$syn..generics..TypeParamBound$C$syn..token..Plus$GT$$GT$17h724e4d9d1d65061aE', symObjAddr: 0x730, symBinAddr: 0xAD4D0, symSize: 0x170 }
  - { offsetInCU: 0x1A734, offset: 0x38A731, size: 0x8, addend: 0x0, symName: '__ZN4core3ptr105drop_in_place$LT$syn..punctuated..Punctuated$LT$syn..generics..WherePredicate$C$syn..token..Comma$GT$$GT$17h18b5b213db2a676cE', symObjAddr: 0x8A0, symBinAddr: 0xAD640, symSize: 0x80 }
  - { offsetInCU: 0x1AA34, offset: 0x38AA31, size: 0x8, addend: 0x0, symName: '__ZN4core3ptr34drop_in_place$LT$syn..lit..Lit$GT$17hd64dde89a262341dE', symObjAddr: 0x920, symBinAddr: 0xAD6C0, symSize: 0x120 }
  - { offsetInCU: 0x1AF60, offset: 0x38AF5D, size: 0x8, addend: 0x0, symName: '__ZN4core3ptr34drop_in_place$LT$syn..pat..Pat$GT$17hf88887878261d63cE', symObjAddr: 0xA40, symBinAddr: 0xAD7E0, symSize: 0x1100 }
  - { offsetInCU: 0x1F5F8, offset: 0x38F5F5, size: 0x8, addend: 0x0, symName: '__ZN4core3ptr34drop_in_place$LT$syn..ty..Type$GT$17ha80dd29b0f9d4a3fE.llvm.1278538373299499664', symObjAddr: 0x1B40, symBinAddr: 0xAE8E0, symSize: 0x520 }
  - { offsetInCU: 0x20C8C, offset: 0x390C89, size: 0x8, addend: 0x0, symName: '__ZN4core3ptr36drop_in_place$LT$syn..expr..Expr$GT$17h10f573b40ddd212cE.llvm.1278538373299499664', symObjAddr: 0x2060, symBinAddr: 0xAEE00, symSize: 0x2840 }
  - { offsetInCU: 0x2AD6A, offset: 0x39AD67, size: 0x8, addend: 0x0, symName: '__ZN4core3ptr36drop_in_place$LT$syn..mac..Macro$GT$17hc3b30a7a8a34cc2dE', symObjAddr: 0x48A0, symBinAddr: 0xB1640, symSize: 0x40 }
  - { offsetInCU: 0x2AE20, offset: 0x39AE1D, size: 0x8, addend: 0x0, symName: '__ZN4core3ptr36drop_in_place$LT$syn..path..Path$GT$17h75c74a97d5f0a03bE', symObjAddr: 0x48E0, symBinAddr: 0xB1680, symSize: 0x280 }
  - { offsetInCU: 0x2B8CD, offset: 0x39B8CA, size: 0x8, addend: 0x0, symName: '__ZN4core3ptr37drop_in_place$LT$syn..stmt..Block$GT$17h6fc3254d5688f2c3E', symObjAddr: 0x4B60, symBinAddr: 0xB1900, symSize: 0xD0 }
  - { offsetInCU: 0x2BBA4, offset: 0x39BBA1, size: 0x8, addend: 0x0, symName: '__ZN4core3ptr38drop_in_place$LT$syn..expr..Member$GT$17h6b0cf84594ce6bceE', symObjAddr: 0x4C30, symBinAddr: 0xB19D0, symSize: 0x30 }
  - { offsetInCU: 0x2BCA0, offset: 0x39BC9D, size: 0x8, addend: 0x0, symName: '__ZN4core3ptr39drop_in_place$LT$proc_macro2..Ident$GT$17ha28fef9769e267d9E.llvm.1278538373299499664', symObjAddr: 0x4C60, symBinAddr: 0xB1A00, symSize: 0x30 }
  - { offsetInCU: 0x2BD7D, offset: 0x39BD7A, size: 0x8, addend: 0x0, symName: '__ZN4core3ptr40drop_in_place$LT$syn..ty..ReturnType$GT$17h035a612e322b6510E', symObjAddr: 0x4C90, symBinAddr: 0xB1A30, symSize: 0x50 }
  - { offsetInCU: 0x2BEED, offset: 0x39BEEA, size: 0x8, addend: 0x0, symName: '__ZN4core3ptr41drop_in_place$LT$syn..expr..ExprConst$GT$17hbfe19d5d621e6836E', symObjAddr: 0x4CE0, symBinAddr: 0xB1A80, symSize: 0x180 }
  - { offsetInCU: 0x2C4DA, offset: 0x39C4D7, size: 0x8, addend: 0x0, symName: '__ZN4core3ptr44drop_in_place$LT$syn..lifetime..Lifetime$GT$17he37fa474f03de7b1E.llvm.1278538373299499664', symObjAddr: 0x4EA0, symBinAddr: 0xB1C00, symSize: 0x30 }
  - { offsetInCU: 0x2C652, offset: 0x39C64F, size: 0x8, addend: 0x0, symName: '__ZN4core3ptr44drop_in_place$LT$syn..parse..ParseBuffer$GT$17hf792ff20095efc35E', symObjAddr: 0x4ED0, symBinAddr: 0xB1C30, symSize: 0x70 }
  - { offsetInCU: 0x2CA69, offset: 0x39CA66, size: 0x8, addend: 0x0, symName: '__ZN4core3ptr45drop_in_place$LT$proc_macro2..TokenStream$GT$17h76e8e68015f4924dE.llvm.1278538373299499664', symObjAddr: 0x4F40, symBinAddr: 0xB1CA0, symSize: 0x140 }
  - { offsetInCU: 0x2CF03, offset: 0x39CF00, size: 0x8, addend: 0x0, symName: '__ZN4core3ptr45drop_in_place$LT$syn..generics..TypeParam$GT$17h188a459c1380ac75E.llvm.1278538373299499664', symObjAddr: 0x5080, symBinAddr: 0xB1DE0, symSize: 0x230 }
  - { offsetInCU: 0x2D778, offset: 0x39D775, size: 0x8, addend: 0x0, symName: '__ZN4core3ptr45drop_in_place$LT$syn..path..PathArguments$GT$17hdbc6dfac6f3334e6E', symObjAddr: 0x52B0, symBinAddr: 0xB2010, symSize: 0x190 }
  - { offsetInCU: 0x2DC48, offset: 0x39DC45, size: 0x8, addend: 0x0, symName: '__ZN4core3ptr46drop_in_place$LT$syn..generics..ConstParam$GT$17h7a9b900b2b88bfcdE.llvm.1278538373299499664', symObjAddr: 0x5440, symBinAddr: 0xB21A0, symSize: 0x150 }
  - { offsetInCU: 0x2E06C, offset: 0x39E069, size: 0x8, addend: 0x0, symName: '__ZN4core3ptr46drop_in_place$LT$syn..generics..TraitBound$GT$17hbfe193394d805ef5E.llvm.1278538373299499664', symObjAddr: 0x5590, symBinAddr: 0xB22F0, symSize: 0x130 }
  - { offsetInCU: 0x2E50F, offset: 0x39E50C, size: 0x8, addend: 0x0, symName: '__ZN4core3ptr47drop_in_place$LT$syn..path..GenericArgument$GT$17h593f06d6ca9a94d2E', symObjAddr: 0x56C0, symBinAddr: 0xB2420, symSize: 0x4A0 }
  - { offsetInCU: 0x2F615, offset: 0x39F612, size: 0x8, addend: 0x0, symName: '__ZN4core3ptr49drop_in_place$LT$syn..generics..LifetimeParam$GT$17h3a8835ab294bfd16E.llvm.1278538373299499664', symObjAddr: 0x5B60, symBinAddr: 0xB28C0, symSize: 0xF0 }
  - { offsetInCU: 0x2FA4B, offset: 0x39FA48, size: 0x8, addend: 0x0, symName: '__ZN4core3ptr50drop_in_place$LT$syn..generics..TypeParamBound$GT$17h81b4325b5900604dE', symObjAddr: 0x5CC0, symBinAddr: 0xB29B0, symSize: 0xA0 }
  - { offsetInCU: 0x2FBB1, offset: 0x39FBAE, size: 0x8, addend: 0x0, symName: '__ZN4core3ptr58drop_in_place$LT$alloc..vec..Vec$LT$syn..expr..Arm$GT$$GT$17hff9224aadf2233b8E', symObjAddr: 0x5DA0, symBinAddr: 0xB2A50, symSize: 0xD0 }
  - { offsetInCU: 0x2FE71, offset: 0x39FE6E, size: 0x8, addend: 0x0, symName: '__ZN4core3ptr59drop_in_place$LT$alloc..boxed..Box$LT$syn..pat..Pat$GT$$GT$17h622b0c1db21c0742E', symObjAddr: 0x5E70, symBinAddr: 0xB2B20, symSize: 0x50 }
  - { offsetInCU: 0x2FFCA, offset: 0x39FFC7, size: 0x8, addend: 0x0, symName: '__ZN4core3ptr59drop_in_place$LT$alloc..boxed..Box$LT$syn..ty..Type$GT$$GT$17hde45fa887dd8b605E', symObjAddr: 0x5EC0, symBinAddr: 0xB2B70, symSize: 0x50 }
  - { offsetInCU: 0x30123, offset: 0x3A0120, size: 0x8, addend: 0x0, symName: '__ZN4core3ptr61drop_in_place$LT$alloc..boxed..Box$LT$syn..expr..Expr$GT$$GT$17hbb42293869113942E', symObjAddr: 0x5F10, symBinAddr: 0xB2BC0, symSize: 0x50 }
  - { offsetInCU: 0x302F8, offset: 0x3A02F5, size: 0x8, addend: 0x0, symName: '__ZN4core3ptr61drop_in_place$LT$syn..path..ParenthesizedGenericArguments$GT$17h6b1731382637937fE', symObjAddr: 0x5F60, symBinAddr: 0xB2C10, symSize: 0x170 }
  - { offsetInCU: 0x308EE, offset: 0x3A08EB, size: 0x8, addend: 0x0, symName: '__ZN4core3ptr62drop_in_place$LT$syn..path..AngleBracketedGenericArguments$GT$17hf8fa172f007a1473E', symObjAddr: 0x60F0, symBinAddr: 0xB2D80, symSize: 0x120 }
  - { offsetInCU: 0x30D39, offset: 0x3A0D36, size: 0x8, addend: 0x0, symName: '__ZN4core3ptr63drop_in_place$LT$alloc..boxed..Box$LT$syn..lit..LitRepr$GT$$GT$17h6e3a82ea4de7b84cE', symObjAddr: 0x6210, symBinAddr: 0xB2EA0, symSize: 0x60 }
  - { offsetInCU: 0x31040, offset: 0x3A103D, size: 0x8, addend: 0x0, symName: '__ZN4core3ptr64drop_in_place$LT$alloc..boxed..Box$LT$syn..pat..FieldPat$GT$$GT$17hbf8f4867d84bd25dE', symObjAddr: 0x6270, symBinAddr: 0xB2F00, symSize: 0x140 }
  - { offsetInCU: 0x31741, offset: 0x3A173E, size: 0x8, addend: 0x0, symName: '__ZN4core3ptr64drop_in_place$LT$alloc..boxed..Box$LT$syn..ty..BareFnArg$GT$$GT$17h6be6354eb1d1364dE', symObjAddr: 0x63B0, symBinAddr: 0xB3040, symSize: 0x140 }
  - { offsetInCU: 0x31CCA, offset: 0x3A1CC7, size: 0x8, addend: 0x0, symName: '__ZN4core3ptr64drop_in_place$LT$alloc..vec..Vec$LT$syn..attr..Attribute$GT$$GT$17he33e25539d5885aeE.llvm.1278538373299499664', symObjAddr: 0x64F0, symBinAddr: 0xB3180, symSize: 0xD0 }
  - { offsetInCU: 0x31FBE, offset: 0x3A1FBB, size: 0x8, addend: 0x0, symName: '__ZN4core3ptr65drop_in_place$LT$alloc..vec..Vec$LT$proc_macro..TokenTree$GT$$GT$17h8abd81f8596dbc59E', symObjAddr: 0x65E0, symBinAddr: 0xB3250, symSize: 0x110 }
  - { offsetInCU: 0x323B6, offset: 0x3A23B3, size: 0x8, addend: 0x0, symName: '__ZN4core3ptr65drop_in_place$LT$core..option..Option$LT$syn..expr..Label$GT$$GT$17hac599686b33ef364E', symObjAddr: 0x66F0, symBinAddr: 0xB3360, symSize: 0x30 }
  - { offsetInCU: 0x324F0, offset: 0x3A24ED, size: 0x8, addend: 0x0, symName: '__ZN4core3ptr66drop_in_place$LT$core..option..Option$LT$syn..pat..PatRest$GT$$GT$17hd5bb3bc28aa78ac1E', symObjAddr: 0x6720, symBinAddr: 0xB3390, symSize: 0xE0 }
  - { offsetInCU: 0x32818, offset: 0x3A2815, size: 0x8, addend: 0x0, symName: '__ZN4core3ptr67drop_in_place$LT$alloc..boxed..Box$LT$syn..expr..FieldValue$GT$$GT$17hbbcf67a9d5e9863cE', symObjAddr: 0x6800, symBinAddr: 0xB3470, symSize: 0x140 }
  - { offsetInCU: 0x32D81, offset: 0x3A2D7E, size: 0x8, addend: 0x0, symName: '__ZN4core3ptr68drop_in_place$LT$alloc..boxed..Box$LT$syn..path..PathSegment$GT$$GT$17h99aaf90b3262bc1eE', symObjAddr: 0x6940, symBinAddr: 0xB35B0, symSize: 0x1B0 }
  - { offsetInCU: 0x3348F, offset: 0x3A348C, size: 0x8, addend: 0x0, symName: '__ZN4core3ptr70drop_in_place$LT$core..option..Option$LT$syn..ty..BareVariadic$GT$$GT$17h79a19250e9f043b1E', symObjAddr: 0x6AF0, symBinAddr: 0xB3760, symSize: 0x100 }
  - { offsetInCU: 0x338FA, offset: 0x3A38F7, size: 0x8, addend: 0x0, symName: '__ZN4core3ptr72drop_in_place$LT$alloc..boxed..Box$LT$syn..path..GenericArgument$GT$$GT$17hfd308d374af4273dE', symObjAddr: 0x6BF0, symBinAddr: 0xB3860, symSize: 0x2B0 }
  - { offsetInCU: 0x342B2, offset: 0x3A42AF, size: 0x8, addend: 0x0, symName: '__ZN4core3ptr72drop_in_place$LT$core..option..Option$LT$syn..lifetime..Lifetime$GT$$GT$17h49cce6f02f9c0590E', symObjAddr: 0x6EA0, symBinAddr: 0xB3B10, symSize: 0x30 }
  - { offsetInCU: 0x343CD, offset: 0x3A43CA, size: 0x8, addend: 0x0, symName: '__ZN4core3ptr73drop_in_place$LT$alloc..boxed..Box$LT$syn..generics..GenericParam$GT$$GT$17ha26d5d145af4b203E.llvm.1278538373299499664', symObjAddr: 0x6ED0, symBinAddr: 0xB3B40, symSize: 0x80 }
  - { offsetInCU: 0x34543, offset: 0x3A4540, size: 0x8, addend: 0x0, symName: '__ZN4core3ptr75drop_in_place$LT$alloc..boxed..Box$LT$syn..generics..TypeParamBound$GT$$GT$17h129a4e927e5eb81bE', symObjAddr: 0x6F50, symBinAddr: 0xB3BC0, symSize: 0x1B0 }
  - { offsetInCU: 0x34C61, offset: 0x3A4C5E, size: 0x8, addend: 0x0, symName: '__ZN4core3ptr86drop_in_place$LT$syn..punctuated..Punctuated$LT$syn..pat..Pat$C$syn..token..Or$GT$$GT$17h9cc6b5f7b6d3a555E', symObjAddr: 0x71B0, symBinAddr: 0xB3D70, symSize: 0x120 }
  - { offsetInCU: 0x350DC, offset: 0x3A50D9, size: 0x8, addend: 0x0, symName: '__ZN4core3ptr87drop_in_place$LT$core..option..Option$LT$alloc..boxed..Box$LT$syn..pat..Pat$GT$$GT$$GT$17h51cd48973d96c411E', symObjAddr: 0x72D0, symBinAddr: 0xB3E90, symSize: 0x50 }
  - { offsetInCU: 0x3524C, offset: 0x3A5249, size: 0x8, addend: 0x0, symName: '__ZN4core3ptr87drop_in_place$LT$core..option..Option$LT$alloc..boxed..Box$LT$syn..ty..Type$GT$$GT$$GT$17h103a25a4a7d7374eE', symObjAddr: 0x7320, symBinAddr: 0xB3EE0, symSize: 0x50 }
  - { offsetInCU: 0x353BC, offset: 0x3A53B9, size: 0x8, addend: 0x0, symName: '__ZN4core3ptr89drop_in_place$LT$core..option..Option$LT$alloc..boxed..Box$LT$syn..expr..Expr$GT$$GT$$GT$17h9e02509cb2345d44E', symObjAddr: 0x7370, symBinAddr: 0xB3F30, symSize: 0x50 }
  - { offsetInCU: 0x3556A, offset: 0x3A5567, size: 0x8, addend: 0x0, symName: '__ZN4core3ptr89drop_in_place$LT$syn..punctuated..Punctuated$LT$syn..pat..Pat$C$syn..token..Comma$GT$$GT$17hd3a83c36827f210aE', symObjAddr: 0x73C0, symBinAddr: 0xB3F80, symSize: 0x120 }
  - { offsetInCU: 0x359FC, offset: 0x3A59F9, size: 0x8, addend: 0x0, symName: '__ZN4core3ptr89drop_in_place$LT$syn..punctuated..Punctuated$LT$syn..ty..Type$C$syn..token..Comma$GT$$GT$17he030c4b7f24a5848E', symObjAddr: 0x74E0, symBinAddr: 0xB40A0, symSize: 0x120 }
  - { offsetInCU: 0x35E77, offset: 0x3A5E74, size: 0x8, addend: 0x0, symName: '__ZN4core3ptr90drop_in_place$LT$core..option..Option$LT$syn..path..AngleBracketedGenericArguments$GT$$GT$17ha307713a95a0671eE', symObjAddr: 0x7600, symBinAddr: 0xB41C0, symSize: 0x130 }
  - { offsetInCU: 0x36319, offset: 0x3A6316, size: 0x8, addend: 0x0, symName: '__ZN4core3ptr91drop_in_place$LT$syn..punctuated..Punctuated$LT$syn..expr..Expr$C$syn..token..Comma$GT$$GT$17h6f261e8f470c81f2E', symObjAddr: 0x7730, symBinAddr: 0xB42F0, symSize: 0x120 }
  - { offsetInCU: 0x367A7, offset: 0x3A67A4, size: 0x8, addend: 0x0, symName: '__ZN4core3ptr94drop_in_place$LT$syn..punctuated..Punctuated$LT$syn..pat..FieldPat$C$syn..token..Comma$GT$$GT$17h43ec25af986ef674E', symObjAddr: 0x7850, symBinAddr: 0xB4410, symSize: 0xF0 }
  - { offsetInCU: 0x36AA6, offset: 0x3A6AA3, size: 0x8, addend: 0x0, symName: '__ZN4core3ptr94drop_in_place$LT$syn..punctuated..Punctuated$LT$syn..ty..BareFnArg$C$syn..token..Comma$GT$$GT$17h7ba4c699ee390ebaE', symObjAddr: 0x7940, symBinAddr: 0xB4500, symSize: 0xF0 }
  - { offsetInCU: 0x36DA7, offset: 0x3A6DA4, size: 0x8, addend: 0x0, symName: '__ZN4core3ptr96drop_in_place$LT$core..option..Option$LT$alloc..boxed..Box$LT$syn..path..PathSegment$GT$$GT$$GT$17h5de12a5a0f9e9ef9E', symObjAddr: 0x7A30, symBinAddr: 0xB45F0, symSize: 0xA0 }
  - { offsetInCU: 0x37026, offset: 0x3A7023, size: 0x8, addend: 0x0, symName: '__ZN4core3ptr97drop_in_place$LT$syn..punctuated..Punctuated$LT$syn..expr..FieldValue$C$syn..token..Comma$GT$$GT$17hf58d0a9a09266ab3E', symObjAddr: 0x7AD0, symBinAddr: 0xB4690, symSize: 0xF0 }
  - { offsetInCU: 0x37323, offset: 0x3A7320, size: 0x8, addend: 0x0, symName: '__ZN4core3ptr98drop_in_place$LT$alloc..vec..Vec$LT$$LP$syn..path..GenericArgument$C$syn..token..Comma$RP$$GT$$GT$17h0dee282a026d5a38E', symObjAddr: 0x7BC0, symBinAddr: 0xB4780, symSize: 0xD0 }
  - { offsetInCU: 0x37663, offset: 0x3A7660, size: 0x8, addend: 0x0, symName: '__ZN4core3ptr98drop_in_place$LT$syn..punctuated..Punctuated$LT$syn..lifetime..Lifetime$C$syn..token..Plus$GT$$GT$17h600c2b78f78fd2b9E.llvm.1278538373299499664', symObjAddr: 0x7C90, symBinAddr: 0xB4850, symSize: 0xD0 }
  - { offsetInCU: 0x3F593, offset: 0x3AF590, size: 0x8, addend: 0x0, symName: '__ZN52_$LT$$RF$T$u20$as$u20$quote..to_tokens..ToTokens$GT$9to_tokens17h105a97bdbe744db0E', symObjAddr: 0x7E10, symBinAddr: 0xB4920, symSize: 0x190 }
  - { offsetInCU: 0x40F60, offset: 0x3B0F5D, size: 0x8, addend: 0x0, symName: '__ZN3syn8generics7parsing47_$LT$impl$u20$syn..generics..TypeParamBound$GT$14parse_multiple17h33e6fbea8f6e153bE', symObjAddr: 0xCD80, symBinAddr: 0xB8410, symSize: 0x4D0 }
  - { offsetInCU: 0xF23, offset: 0x3BB19C, size: 0x8, addend: 0x0, symName: '__ZN64_$LT$syn..token..Comma$u20$as$u20$quote..to_tokens..ToTokens$GT$9to_tokens17h832a5ffc78b55b16E', symObjAddr: 0x5070, symBinAddr: 0xBC940, symSize: 0x30 }
  - { offsetInCU: 0xF7C, offset: 0x3BB1F5, size: 0x8, addend: 0x0, symName: '__ZN60_$LT$syn..token..Underscore$u20$as$u20$syn..token..Token$GT$4peek17haec0894d2e05662cE', symObjAddr: 0xAD0, symBinAddr: 0xBBCB0, symSize: 0x1F0 }
  - { offsetInCU: 0x1833, offset: 0x3BBAAC, size: 0x8, addend: 0x0, symName: '__ZN55_$LT$syn..token..Paren$u20$as$u20$syn..token..Token$GT$4peek17h57c2615f1c93669bE', symObjAddr: 0xF20, symBinAddr: 0xBBFC0, symSize: 0xA0 }
  - { offsetInCU: 0x1A34, offset: 0x3BBCAD, size: 0x8, addend: 0x0, symName: '__ZN55_$LT$syn..token..Brace$u20$as$u20$syn..token..Token$GT$4peek17h73c23ce965996843E', symObjAddr: 0xFC0, symBinAddr: 0xBC060, symSize: 0xA0 }
  - { offsetInCU: 0x1C35, offset: 0x3BBEAE, size: 0x8, addend: 0x0, symName: '__ZN57_$LT$syn..token..Bracket$u20$as$u20$syn..token..Token$GT$4peek17h872c9349a83dc2aaE', symObjAddr: 0x1060, symBinAddr: 0xBC100, symSize: 0xA0 }
  - { offsetInCU: 0x1E36, offset: 0x3BC0AF, size: 0x8, addend: 0x0, symName: '__ZN57_$LT$syn..token..As$u20$as$u20$core..default..Default$GT$7default17h6e21ca7a67d70738E', symObjAddr: 0x12A0, symBinAddr: 0xBC1A0, symSize: 0x0 }
  - { offsetInCU: 0x1E87, offset: 0x3BC100, size: 0x8, addend: 0x0, symName: '__ZN52_$LT$syn..token..As$u20$as$u20$syn..parse..Parse$GT$5parse17h8279010a971a5b00E', symObjAddr: 0x1350, symBinAddr: 0xBC1B0, symSize: 0x60 }
  - { offsetInCU: 0x1F3C, offset: 0x3BC1B5, size: 0x8, addend: 0x0, symName: '__ZN55_$LT$syn..token..Async$u20$as$u20$syn..token..Token$GT$4peek17hec3d206c6ab2af4dE', symObjAddr: 0x14D0, symBinAddr: 0xBC210, symSize: 0x20 }
  - { offsetInCU: 0x1F73, offset: 0x3BC1EC, size: 0x8, addend: 0x0, symName: '__ZN54_$LT$syn..token..Auto$u20$as$u20$syn..token..Token$GT$4peek17h78aa4921345bdad2E', symObjAddr: 0x15F0, symBinAddr: 0xBC230, symSize: 0x20 }
  - { offsetInCU: 0x2031, offset: 0x3BC2AA, size: 0x8, addend: 0x0, symName: '__ZN55_$LT$syn..token..Const$u20$as$u20$syn..parse..Parse$GT$5parse17h4d7f78de797b5b9dE', symObjAddr: 0x1B30, symBinAddr: 0xBC250, symSize: 0x60 }
  - { offsetInCU: 0x20B9, offset: 0x3BC332, size: 0x8, addend: 0x0, symName: '__ZN55_$LT$syn..token..Const$u20$as$u20$syn..token..Token$GT$4peek17h377299e8bbcdfde8E', symObjAddr: 0x1B90, symBinAddr: 0xBC2B0, symSize: 0x20 }
  - { offsetInCU: 0x20F0, offset: 0x3BC369, size: 0x8, addend: 0x0, symName: '__ZN55_$LT$syn..token..Crate$u20$as$u20$syn..token..Token$GT$4peek17h41bdfdc9696d7a0cE', symObjAddr: 0x1DD0, symBinAddr: 0xBC2D0, symSize: 0x20 }
  - { offsetInCU: 0x2127, offset: 0x3BC3A0, size: 0x8, addend: 0x0, symName: '__ZN53_$LT$syn..token..Dyn$u20$as$u20$syn..parse..Parse$GT$5parse17ha918c5aa2904e233E', symObjAddr: 0x20D0, symBinAddr: 0xBC2F0, symSize: 0x60 }
  - { offsetInCU: 0x21AF, offset: 0x3BC428, size: 0x8, addend: 0x0, symName: '__ZN54_$LT$syn..token..Else$u20$as$u20$syn..parse..Parse$GT$5parse17h45e080b72d435097E', symObjAddr: 0x21F0, symBinAddr: 0xBC350, symSize: 0x60 }
  - { offsetInCU: 0x2237, offset: 0x3BC4B0, size: 0x8, addend: 0x0, symName: '__ZN54_$LT$syn..token..Enum$u20$as$u20$syn..token..Token$GT$4peek17h5b346af13c7af550E', symObjAddr: 0x2370, symBinAddr: 0xBC3B0, symSize: 0x20 }
  - { offsetInCU: 0x226E, offset: 0x3BC4E7, size: 0x8, addend: 0x0, symName: '__ZN56_$LT$syn..token..Extern$u20$as$u20$syn..token..Token$GT$4peek17h4d12b1045a886c67E', symObjAddr: 0x2490, symBinAddr: 0xBC3D0, symSize: 0x20 }
  - { offsetInCU: 0x22A5, offset: 0x3BC51E, size: 0x8, addend: 0x0, symName: '__ZN52_$LT$syn..token..Fn$u20$as$u20$syn..token..Token$GT$4peek17h72891b673cf8306dE', symObjAddr: 0x26D0, symBinAddr: 0xBC3F0, symSize: 0x20 }
  - { offsetInCU: 0x22DC, offset: 0x3BC555, size: 0x8, addend: 0x0, symName: '__ZN53_$LT$syn..token..For$u20$as$u20$syn..parse..Parse$GT$5parse17h685510a59deff120E', symObjAddr: 0x2790, symBinAddr: 0xBC410, symSize: 0x60 }
  - { offsetInCU: 0x2364, offset: 0x3BC5DD, size: 0x8, addend: 0x0, symName: '__ZN54_$LT$syn..token..Impl$u20$as$u20$syn..token..Token$GT$4peek17h2c90e0f4bad3b8a1E', symObjAddr: 0x2A30, symBinAddr: 0xBC470, symSize: 0x20 }
  - { offsetInCU: 0x23C8, offset: 0x3BC641, size: 0x8, addend: 0x0, symName: '__ZN52_$LT$syn..token..In$u20$as$u20$syn..parse..Parse$GT$5parse17h1c18d23d989fcf2fE', symObjAddr: 0x2AF0, symBinAddr: 0xBC490, symSize: 0x60 }
  - { offsetInCU: 0x247D, offset: 0x3BC6F6, size: 0x8, addend: 0x0, symName: '__ZN55_$LT$syn..token..Macro$u20$as$u20$syn..token..Token$GT$4peek17he0611b0349443e81E', symObjAddr: 0x2EB0, symBinAddr: 0xBC4F0, symSize: 0x20 }
  - { offsetInCU: 0x24E1, offset: 0x3BC75A, size: 0x8, addend: 0x0, symName: '__ZN53_$LT$syn..token..Mod$u20$as$u20$syn..token..Token$GT$4peek17h74a4826dd47e3e6eE', symObjAddr: 0x30F0, symBinAddr: 0xBC510, symSize: 0x20 }
  - { offsetInCU: 0x2518, offset: 0x3BC791, size: 0x8, addend: 0x0, symName: '__ZN63_$LT$syn..token..Move$u20$as$u20$quote..to_tokens..ToTokens$GT$9to_tokens17hfc53a9310558a724E', symObjAddr: 0x3130, symBinAddr: 0xBC530, symSize: 0x80 }
  - { offsetInCU: 0x264E, offset: 0x3BC8C7, size: 0x8, addend: 0x0, symName: '__ZN54_$LT$syn..token..Move$u20$as$u20$syn..token..Token$GT$4peek17h7d01db15b0371cceE', symObjAddr: 0x3210, symBinAddr: 0xBC5B0, symSize: 0x20 }
  - { offsetInCU: 0x2685, offset: 0x3BC8FE, size: 0x8, addend: 0x0, symName: '__ZN62_$LT$syn..token..Mut$u20$as$u20$quote..to_tokens..ToTokens$GT$9to_tokens17h65e7aec4e00a824aE', symObjAddr: 0x3250, symBinAddr: 0xBC5D0, symSize: 0x80 }
  - { offsetInCU: 0x27BB, offset: 0x3BCA34, size: 0x8, addend: 0x0, symName: '__ZN53_$LT$syn..token..Mut$u20$as$u20$syn..token..Token$GT$4peek17h98e42bddef3e0a22E', symObjAddr: 0x3330, symBinAddr: 0xBC650, symSize: 0x20 }
  - { offsetInCU: 0x281F, offset: 0x3BCA98, size: 0x8, addend: 0x0, symName: '__ZN53_$LT$syn..token..Ref$u20$as$u20$syn..token..Token$GT$4peek17h3da8beae293f82f6E', symObjAddr: 0x37B0, symBinAddr: 0xBC670, symSize: 0x20 }
  - { offsetInCU: 0x2856, offset: 0x3BCACF, size: 0x8, addend: 0x0, symName: '__ZN58_$LT$syn..token..SelfType$u20$as$u20$syn..token..Token$GT$4peek17hc1ce6132e604b21cE', symObjAddr: 0x39F0, symBinAddr: 0xBC690, symSize: 0x20 }
  - { offsetInCU: 0x288D, offset: 0x3BCB06, size: 0x8, addend: 0x0, symName: '__ZN59_$LT$syn..token..SelfValue$u20$as$u20$syn..token..Token$GT$4peek17hff0104bc0d4d51baE', symObjAddr: 0x3B10, symBinAddr: 0xBC6B0, symSize: 0x20 }
  - { offsetInCU: 0x28C4, offset: 0x3BCB3D, size: 0x8, addend: 0x0, symName: '__ZN56_$LT$syn..token..Static$u20$as$u20$syn..parse..Parse$GT$5parse17h4347f0d5ba2722bcE', symObjAddr: 0x3BD0, symBinAddr: 0xBC6D0, symSize: 0x60 }
  - { offsetInCU: 0x294C, offset: 0x3BCBC5, size: 0x8, addend: 0x0, symName: '__ZN56_$LT$syn..token..Static$u20$as$u20$syn..token..Token$GT$4peek17h5ec219d5f1c91b93E', symObjAddr: 0x3C30, symBinAddr: 0xBC730, symSize: 0x20 }
  - { offsetInCU: 0x2983, offset: 0x3BCBFC, size: 0x8, addend: 0x0, symName: '__ZN56_$LT$syn..token..Struct$u20$as$u20$syn..token..Token$GT$4peek17h5edcf684e7ec6370E', symObjAddr: 0x3D50, symBinAddr: 0xBC750, symSize: 0x20 }
  - { offsetInCU: 0x29BA, offset: 0x3BCC33, size: 0x8, addend: 0x0, symName: '__ZN55_$LT$syn..token..Super$u20$as$u20$syn..token..Token$GT$4peek17ha609af2487b5bfa9E', symObjAddr: 0x3E70, symBinAddr: 0xBC770, symSize: 0x20 }
  - { offsetInCU: 0x29F1, offset: 0x3BCC6A, size: 0x8, addend: 0x0, symName: '__ZN55_$LT$syn..token..Trait$u20$as$u20$syn..token..Token$GT$4peek17hcfd44ad9738ca41fE', symObjAddr: 0x3F90, symBinAddr: 0xBC790, symSize: 0x20 }
  - { offsetInCU: 0x2A55, offset: 0x3BCCCE, size: 0x8, addend: 0x0, symName: '__ZN53_$LT$syn..token..Try$u20$as$u20$syn..token..Token$GT$4peek17h34e6cdd2fa15187cE', symObjAddr: 0x40B0, symBinAddr: 0xBC7B0, symSize: 0x20 }
  - { offsetInCU: 0x2A8C, offset: 0x3BCD05, size: 0x8, addend: 0x0, symName: '__ZN54_$LT$syn..token..Type$u20$as$u20$syn..token..Token$GT$4peek17hca9c5e9bd0dd640dE', symObjAddr: 0x41D0, symBinAddr: 0xBC7D0, symSize: 0x20 }
  - { offsetInCU: 0x2AC3, offset: 0x3BCD3C, size: 0x8, addend: 0x0, symName: '__ZN55_$LT$syn..token..Union$u20$as$u20$syn..token..Token$GT$4peek17hfe4da05fa09964ffE', symObjAddr: 0x4410, symBinAddr: 0xBC7F0, symSize: 0x20 }
  - { offsetInCU: 0x2B27, offset: 0x3BCDA0, size: 0x8, addend: 0x0, symName: '__ZN56_$LT$syn..token..Unsafe$u20$as$u20$syn..parse..Parse$GT$5parse17h9c545ae7480a661bE', symObjAddr: 0x44D0, symBinAddr: 0xBC810, symSize: 0x60 }
  - { offsetInCU: 0x2BAF, offset: 0x3BCE28, size: 0x8, addend: 0x0, symName: '__ZN56_$LT$syn..token..Unsafe$u20$as$u20$syn..token..Token$GT$4peek17h8fab9a2efb3ee4c7E', symObjAddr: 0x4530, symBinAddr: 0xBC870, symSize: 0x20 }
  - { offsetInCU: 0x2BE6, offset: 0x3BCE5F, size: 0x8, addend: 0x0, symName: '__ZN53_$LT$syn..token..Use$u20$as$u20$syn..token..Token$GT$4peek17h370b8b005f72ed4aE', symObjAddr: 0x4770, symBinAddr: 0xBC890, symSize: 0x20 }
  - { offsetInCU: 0x2C77, offset: 0x3BCEF0, size: 0x8, addend: 0x0, symName: '__ZN53_$LT$syn..token..And$u20$as$u20$syn..token..Token$GT$4peek17h4ed3a008d858f163E', symObjAddr: 0x4C90, symBinAddr: 0xBC8B0, symSize: 0x20 }
  - { offsetInCU: 0x2CDB, offset: 0x3BCF54, size: 0x8, addend: 0x0, symName: '__ZN55_$LT$syn..token..Colon$u20$as$u20$syn..parse..Parse$GT$5parse17h3063cb3e3ebc34a9E', symObjAddr: 0x5000, symBinAddr: 0xBC8D0, symSize: 0x50 }
  - { offsetInCU: 0x2D3E, offset: 0x3BCFB7, size: 0x8, addend: 0x0, symName: '__ZN55_$LT$syn..token..Colon$u20$as$u20$syn..token..Token$GT$4peek17he80a5de17f24d5edE', symObjAddr: 0x5050, symBinAddr: 0xBC920, symSize: 0x20 }
  - { offsetInCU: 0x2D75, offset: 0x3BCFEE, size: 0x8, addend: 0x0, symName: '__ZN55_$LT$syn..token..Comma$u20$as$u20$syn..parse..Parse$GT$5parse17hb823018bf88ed6f3E', symObjAddr: 0x50A0, symBinAddr: 0xBC970, symSize: 0x50 }
  - { offsetInCU: 0x2DD8, offset: 0x3BD051, size: 0x8, addend: 0x0, symName: '__ZN55_$LT$syn..token..Comma$u20$as$u20$syn..token..Token$GT$4peek17h26e1aacea26147a4E', symObjAddr: 0x50F0, symBinAddr: 0xBC9C0, symSize: 0x20 }
  - { offsetInCU: 0x2E3C, offset: 0x3BD0B5, size: 0x8, addend: 0x0, symName: '__ZN53_$LT$syn..token..Dot$u20$as$u20$syn..token..Token$GT$4peek17h3281d72a1d61740fE', symObjAddr: 0x5230, symBinAddr: 0xBC9E0, symSize: 0x20 }
  - { offsetInCU: 0x2EA0, offset: 0x3BD119, size: 0x8, addend: 0x0, symName: '__ZN56_$LT$syn..token..DotDot$u20$as$u20$syn..token..Token$GT$4peek17ha63e1c7cbaa5f07fE', symObjAddr: 0x52D0, symBinAddr: 0xBCA00, symSize: 0x20 }
  - { offsetInCU: 0x2ED7, offset: 0x3BD150, size: 0x8, addend: 0x0, symName: '__ZN59_$LT$syn..token..DotDotDot$u20$as$u20$syn..token..Token$GT$4peek17hecd050b6405d9aa0E', symObjAddr: 0x5390, symBinAddr: 0xBCA20, symSize: 0x20 }
  - { offsetInCU: 0x2F0E, offset: 0x3BD187, size: 0x8, addend: 0x0, symName: '__ZN58_$LT$syn..token..DotDotEq$u20$as$u20$syn..token..Token$GT$4peek17h9d3b070298fd3201E', symObjAddr: 0x5450, symBinAddr: 0xBCA40, symSize: 0x20 }
  - { offsetInCU: 0x2F72, offset: 0x3BD1EB, size: 0x8, addend: 0x0, symName: '__ZN52_$LT$syn..token..Eq$u20$as$u20$syn..parse..Parse$GT$5parse17h48510f330b26a2a8E', symObjAddr: 0x54A0, symBinAddr: 0xBCA60, symSize: 0x50 }
  - { offsetInCU: 0x2FD5, offset: 0x3BD24E, size: 0x8, addend: 0x0, symName: '__ZN52_$LT$syn..token..Eq$u20$as$u20$syn..token..Token$GT$4peek17ha038331794dca79cE', symObjAddr: 0x54F0, symBinAddr: 0xBCAB0, symSize: 0x20 }
  - { offsetInCU: 0x300C, offset: 0x3BD285, size: 0x8, addend: 0x0, symName: '__ZN52_$LT$syn..token..Gt$u20$as$u20$syn..parse..Parse$GT$5parse17h685c1b33fdd3602dE', symObjAddr: 0x5720, symBinAddr: 0xBCAD0, symSize: 0x50 }
  - { offsetInCU: 0x306F, offset: 0x3BD2E8, size: 0x8, addend: 0x0, symName: '__ZN52_$LT$syn..token..Gt$u20$as$u20$syn..token..Token$GT$4peek17h28c72eb0c24e86bbE', symObjAddr: 0x5770, symBinAddr: 0xBCB20, symSize: 0x20 }
  - { offsetInCU: 0x30A6, offset: 0x3BD31F, size: 0x8, addend: 0x0, symName: '__ZN52_$LT$syn..token..Lt$u20$as$u20$syn..token..Token$GT$4peek17hb09f0ef836a6a928E', symObjAddr: 0x5950, symBinAddr: 0xBCB40, symSize: 0x20 }
  - { offsetInCU: 0x310A, offset: 0x3BD383, size: 0x8, addend: 0x0, symName: '__ZN53_$LT$syn..token..Not$u20$as$u20$syn..parse..Parse$GT$5parse17h0e126244166e20f8E', symObjAddr: 0x5B80, symBinAddr: 0xBCB60, symSize: 0x50 }
  - { offsetInCU: 0x316D, offset: 0x3BD3E6, size: 0x8, addend: 0x0, symName: '__ZN53_$LT$syn..token..Not$u20$as$u20$syn..token..Token$GT$4peek17h20b2571300a10670E', symObjAddr: 0x5BD0, symBinAddr: 0xBCBB0, symSize: 0x20 }
  - { offsetInCU: 0x31A4, offset: 0x3BD41D, size: 0x8, addend: 0x0, symName: '__ZN52_$LT$syn..token..Or$u20$as$u20$syn..token..Token$GT$4peek17haf7e709e752de2d5E', symObjAddr: 0x5C70, symBinAddr: 0xBCBD0, symSize: 0x20 }
  - { offsetInCU: 0x31DB, offset: 0x3BD454, size: 0x8, addend: 0x0, symName: '__ZN57_$LT$syn..token..PathSep$u20$as$u20$syn..token..Token$GT$4peek17h734c6a0408fb2004E', symObjAddr: 0x5E50, symBinAddr: 0xBCBF0, symSize: 0x20 }
  - { offsetInCU: 0x3212, offset: 0x3BD48B, size: 0x8, addend: 0x0, symName: '__ZN54_$LT$syn..token..Plus$u20$as$u20$syn..parse..Parse$GT$5parse17h6443c7d34616ae6cE', symObjAddr: 0x5FE0, symBinAddr: 0xBCC10, symSize: 0x50 }
  - { offsetInCU: 0x32A2, offset: 0x3BD51B, size: 0x8, addend: 0x0, symName: '__ZN55_$LT$syn..token..Pound$u20$as$u20$syn..token..Token$GT$4peek17h12eda5e1e3c78599E', symObjAddr: 0x6170, symBinAddr: 0xBCC60, symSize: 0x20 }
  - { offsetInCU: 0x3306, offset: 0x3BD57F, size: 0x8, addend: 0x0, symName: '__ZN58_$LT$syn..token..Question$u20$as$u20$syn..token..Token$GT$4peek17hb56a1f23ffedbbd1E', symObjAddr: 0x6210, symBinAddr: 0xBCC80, symSize: 0x20 }
  - { offsetInCU: 0x336A, offset: 0x3BD5E3, size: 0x8, addend: 0x0, symName: '__ZN54_$LT$syn..token..Semi$u20$as$u20$syn..parse..Parse$GT$5parse17h922f96200e79aea7E', symObjAddr: 0x6300, symBinAddr: 0xBCCA0, symSize: 0x50 }
  - { offsetInCU: 0x33CD, offset: 0x3BD646, size: 0x8, addend: 0x0, symName: '__ZN54_$LT$syn..token..Semi$u20$as$u20$syn..token..Token$GT$4peek17h50c830ee30ef3530E', symObjAddr: 0x6350, symBinAddr: 0xBCCF0, symSize: 0x20 }
  - { offsetInCU: 0x3404, offset: 0x3BD67D, size: 0x8, addend: 0x0, symName: '__ZN55_$LT$syn..token..ShlEq$u20$as$u20$syn..parse..Parse$GT$5parse17hffdec08a82c79705E', symObjAddr: 0x6440, symBinAddr: 0xBCD10, symSize: 0x70 }
  - { offsetInCU: 0x34BA, offset: 0x3BD733, size: 0x8, addend: 0x0, symName: '__ZN55_$LT$syn..token..ShrEq$u20$as$u20$syn..parse..Parse$GT$5parse17hd4adaf197d5b2e87E', symObjAddr: 0x65A0, symBinAddr: 0xBCD80, symSize: 0x70 }
  - { offsetInCU: 0x3570, offset: 0x3BD7E9, size: 0x8, addend: 0x0, symName: '__ZN54_$LT$syn..token..Star$u20$as$u20$syn..token..Token$GT$4peek17h14add24fe44afe84E', symObjAddr: 0x67F0, symBinAddr: 0xBCDF0, symSize: 0x20 }
  - { offsetInCU: 0xA9AA, offset: 0x3C4C23, size: 0x8, addend: 0x0, symName: '__ZN4core3ptr45drop_in_place$LT$proc_macro2..TokenStream$GT$17h76e8e68015f4924dE.llvm.2200051395882591536', symObjAddr: 0x720, symBinAddr: 0xBBA60, symSize: 0x140 }
  - { offsetInCU: 0xAE06, offset: 0x3C507F, size: 0x8, addend: 0x0, symName: '__ZN4core3ptr65drop_in_place$LT$alloc..vec..Vec$LT$proc_macro..TokenTree$GT$$GT$17h8abd81f8596dbc59E.llvm.2200051395882591536', symObjAddr: 0x860, symBinAddr: 0xBBBA0, symSize: 0x110 }
  - { offsetInCU: 0x10542, offset: 0x3CA7BB, size: 0x8, addend: 0x0, symName: __ZN3syn5token5Group8surround17heff89b5b653592dfE, symObjAddr: 0xE00, symBinAddr: 0xBBEA0, symSize: 0x120 }
  - { offsetInCU: 0x1073A, offset: 0x3CA9B3, size: 0x8, addend: 0x0, symName: __ZN3syn5token5Brace8surround17h054d6fe3dea87f3aE, symObjAddr: 0x6FA0, symBinAddr: 0xBCE10, symSize: 0x0 }
  - { offsetInCU: 0x109CC, offset: 0x3CAC45, size: 0x8, addend: 0x0, symName: __ZN3syn5token5Brace8surround17h177bd1fb5200ae88E, symObjAddr: 0x7120, symBinAddr: 0xBCF90, symSize: 0x130 }
  - { offsetInCU: 0x10C50, offset: 0x3CAEC9, size: 0x8, addend: 0x0, symName: __ZN3syn5token5Brace8surround17h203049190772705cE, symObjAddr: 0x7250, symBinAddr: 0xBD0C0, symSize: 0x200 }
  - { offsetInCU: 0x112F4, offset: 0x3CB56D, size: 0x8, addend: 0x0, symName: __ZN3syn5token5Brace8surround17h296fbc9aacc45e8dE, symObjAddr: 0x7450, symBinAddr: 0xBD2C0, symSize: 0x150 }
  - { offsetInCU: 0x11608, offset: 0x3CB881, size: 0x8, addend: 0x0, symName: __ZN3syn5token5Brace8surround17h3cd15e098182f2caE, symObjAddr: 0x75A0, symBinAddr: 0xBD410, symSize: 0x220 }
  - { offsetInCU: 0x11AF1, offset: 0x3CBD6A, size: 0x8, addend: 0x0, symName: __ZN3syn5token5Brace8surround17h57503f340a17145cE, symObjAddr: 0x7960, symBinAddr: 0xBD630, symSize: 0x220 }
  - { offsetInCU: 0x11F8D, offset: 0x3CC206, size: 0x8, addend: 0x0, symName: __ZN3syn5token5Brace8surround17h5add098b3195aebcE, symObjAddr: 0x7B80, symBinAddr: 0xBD850, symSize: 0x200 }
  - { offsetInCU: 0x126CD, offset: 0x3CC946, size: 0x8, addend: 0x0, symName: __ZN3syn5token5Brace8surround17h73c06cfc29e80b79E, symObjAddr: 0x80A0, symBinAddr: 0xBDA50, symSize: 0x200 }
  - { offsetInCU: 0x12D71, offset: 0x3CCFEA, size: 0x8, addend: 0x0, symName: __ZN3syn5token5Brace8surround17h81a192f6e1ba3b25E, symObjAddr: 0x82A0, symBinAddr: 0xBDC50, symSize: 0x220 }
  - { offsetInCU: 0x13263, offset: 0x3CD4DC, size: 0x8, addend: 0x0, symName: __ZN3syn5token5Brace8surround17h885eae5b5f18a737E, symObjAddr: 0x84C0, symBinAddr: 0xBDE70, symSize: 0x230 }
  - { offsetInCU: 0x13916, offset: 0x3CDB8F, size: 0x8, addend: 0x0, symName: __ZN3syn5token5Brace8surround17h8dc2f11f6889f4faE, symObjAddr: 0x86F0, symBinAddr: 0xBE0A0, symSize: 0x0 }
  - { offsetInCU: 0x13FBA, offset: 0x3CE233, size: 0x8, addend: 0x0, symName: __ZN3syn5token5Brace8surround17h8f64d8eb67893fd1E, symObjAddr: 0x88F0, symBinAddr: 0xBE2A0, symSize: 0x220 }
  - { offsetInCU: 0x14450, offset: 0x3CE6C9, size: 0x8, addend: 0x0, symName: __ZN3syn5token5Brace8surround17h9105a8ad28ee9eacE, symObjAddr: 0x8B10, symBinAddr: 0xBE4C0, symSize: 0x220 }
  - { offsetInCU: 0x14A08, offset: 0x3CEC81, size: 0x8, addend: 0x0, symName: __ZN3syn5token5Brace8surround17ha088df153eae400eE, symObjAddr: 0x8D30, symBinAddr: 0xBE6E0, symSize: 0x260 }
  - { offsetInCU: 0x1517D, offset: 0x3CF3F6, size: 0x8, addend: 0x0, symName: __ZN3syn5token5Brace8surround17hbe01d651f653d8afE, symObjAddr: 0x8F90, symBinAddr: 0xBE940, symSize: 0x590 }
  - { offsetInCU: 0x15D7B, offset: 0x3CFFF4, size: 0x8, addend: 0x0, symName: __ZN3syn5token5Brace8surround17hc01d55ce5137971fE, symObjAddr: 0x9520, symBinAddr: 0xBEED0, symSize: 0x220 }
  - { offsetInCU: 0x1620C, offset: 0x3D0485, size: 0x8, addend: 0x0, symName: __ZN3syn5token5Brace8surround17hcac216a5876b7b90E, symObjAddr: 0x9740, symBinAddr: 0xBF0F0, symSize: 0x180 }
  - { offsetInCU: 0x1649E, offset: 0x3D0717, size: 0x8, addend: 0x0, symName: __ZN3syn5token5Brace8surround17hd179764b3f344586E, symObjAddr: 0x98C0, symBinAddr: 0xBF270, symSize: 0x220 }
  - { offsetInCU: 0x169A9, offset: 0x3D0C22, size: 0x8, addend: 0x0, symName: __ZN3syn5token5Brace8surround17hd326a20e95a92237E, symObjAddr: 0x9AE0, symBinAddr: 0xBF490, symSize: 0x470 }
  - { offsetInCU: 0x175A2, offset: 0x3D181B, size: 0x8, addend: 0x0, symName: __ZN3syn5token5Brace8surround17hdec488e9714715d6E, symObjAddr: 0x9F50, symBinAddr: 0xBF900, symSize: 0x1B0 }
  - { offsetInCU: 0x17B21, offset: 0x3D1D9A, size: 0x8, addend: 0x0, symName: __ZN3syn5token5Brace8surround17heb4093c015441ecaE, symObjAddr: 0xA100, symBinAddr: 0xBFAB0, symSize: 0x200 }
  - { offsetInCU: 0x18188, offset: 0x3D2401, size: 0x8, addend: 0x0, symName: __ZN3syn5token7Bracket8surround17h39ed741deec0cbbcE, symObjAddr: 0xA320, symBinAddr: 0xBFCB0, symSize: 0x130 }
  - { offsetInCU: 0x18371, offset: 0x3D25EA, size: 0x8, addend: 0x0, symName: __ZN3syn5token7Bracket8surround17h4010ca43394a9eecE, symObjAddr: 0xA450, symBinAddr: 0xBFDE0, symSize: 0x1A0 }
  - { offsetInCU: 0x188EB, offset: 0x3D2B64, size: 0x8, addend: 0x0, symName: __ZN3syn5token7Bracket8surround17h5da20462893431d0E, symObjAddr: 0xA790, symBinAddr: 0xBFF80, symSize: 0x130 }
  - { offsetInCU: 0x18B01, offset: 0x3D2D7A, size: 0x8, addend: 0x0, symName: __ZN3syn5token7Bracket8surround17ha5aff01b8fd5a0e1E, symObjAddr: 0xA9F0, symBinAddr: 0xC00B0, symSize: 0x160 }
  - { offsetInCU: 0x18D38, offset: 0x3D2FB1, size: 0x8, addend: 0x0, symName: __ZN3syn5token7Bracket8surround17hc7c268cb755c8c19E, symObjAddr: 0xAB50, symBinAddr: 0xC0210, symSize: 0x150 }
  - { offsetInCU: 0x18F97, offset: 0x3D3210, size: 0x8, addend: 0x0, symName: __ZN3syn5token7Bracket8surround17hfab81345bbdd2f89E, symObjAddr: 0xACA0, symBinAddr: 0xC0360, symSize: 0x130 }
  - { offsetInCU: 0x19185, offset: 0x3D33FE, size: 0x8, addend: 0x0, symName: __ZN3syn5token5Paren8surround17h0c12e09da3aa8e34E, symObjAddr: 0xADF0, symBinAddr: 0xC0490, symSize: 0x1F0 }
  - { offsetInCU: 0x194A9, offset: 0x3D3722, size: 0x8, addend: 0x0, symName: __ZN3syn5token5Paren8surround17h16e802a9434a262fE, symObjAddr: 0xAFE0, symBinAddr: 0xC0680, symSize: 0x210 }
  - { offsetInCU: 0x19C07, offset: 0x3D3E80, size: 0x8, addend: 0x0, symName: __ZN3syn5token5Paren8surround17h28d44f6895295df5E, symObjAddr: 0xB1F0, symBinAddr: 0xC0890, symSize: 0x1FC0 }
  - { offsetInCU: 0x216AA, offset: 0x3DB923, size: 0x8, addend: 0x0, symName: __ZN3syn5token5Paren8surround17h38eece4b36020a96E, symObjAddr: 0xD1B0, symBinAddr: 0xC2850, symSize: 0x1A0 }
  - { offsetInCU: 0x21C86, offset: 0x3DBEFF, size: 0x8, addend: 0x0, symName: __ZN3syn5token5Paren8surround17h4007655ded83f205E, symObjAddr: 0xD350, symBinAddr: 0xC29F0, symSize: 0x240 }
  - { offsetInCU: 0x22333, offset: 0x3DC5AC, size: 0x8, addend: 0x0, symName: __ZN3syn5token5Paren8surround17h4549913c098e8324E, symObjAddr: 0xD590, symBinAddr: 0xC2C30, symSize: 0x590 }
  - { offsetInCU: 0x22F72, offset: 0x3DD1EB, size: 0x8, addend: 0x0, symName: __ZN3syn5token5Paren8surround17h4bee939971f7badbE, symObjAddr: 0xDB20, symBinAddr: 0xC31C0, symSize: 0x1A0 }
  - { offsetInCU: 0x234A3, offset: 0x3DD71C, size: 0x8, addend: 0x0, symName: __ZN3syn5token5Paren8surround17h659862ce9b85cd3fE, symObjAddr: 0xDE60, symBinAddr: 0xC3360, symSize: 0x120 }
  - { offsetInCU: 0x2370C, offset: 0x3DD985, size: 0x8, addend: 0x0, symName: __ZN3syn5token5Paren8surround17h65f8affeb8dd01f8E, symObjAddr: 0xDF80, symBinAddr: 0xC3480, symSize: 0x260 }
  - { offsetInCU: 0x23E39, offset: 0x3DE0B2, size: 0x8, addend: 0x0, symName: __ZN3syn5token5Paren8surround17h8213022939b4c94aE, symObjAddr: 0xE1E0, symBinAddr: 0xC36E0, symSize: 0x210 }
  - { offsetInCU: 0x244AF, offset: 0x3DE728, size: 0x8, addend: 0x0, symName: __ZN3syn5token5Paren8surround17h913431f398679f5cE, symObjAddr: 0xE3F0, symBinAddr: 0xC38F0, symSize: 0x460 }
  - { offsetInCU: 0x25077, offset: 0x3DF2F0, size: 0x8, addend: 0x0, symName: __ZN3syn5token5Paren8surround17h94193c74c4feae5eE, symObjAddr: 0xE850, symBinAddr: 0xC3D50, symSize: 0x120 }
  - { offsetInCU: 0x2529A, offset: 0x3DF513, size: 0x8, addend: 0x0, symName: __ZN3syn5token5Paren8surround17hab374b99a74045c1E, symObjAddr: 0xE970, symBinAddr: 0xC3E70, symSize: 0x180 }
  - { offsetInCU: 0x255D5, offset: 0x3DF84E, size: 0x8, addend: 0x0, symName: __ZN3syn5token5Paren8surround17hc5047487c1c6e5cbE, symObjAddr: 0xEAF0, symBinAddr: 0xC3FF0, symSize: 0x130 }
  - { offsetInCU: 0x257A3, offset: 0x3DFA1C, size: 0x8, addend: 0x0, symName: __ZN3syn5token5Paren8surround17hd13f0c3754c57ba1E, symObjAddr: 0xEC20, symBinAddr: 0xC4120, symSize: 0x1A0 }
  - { offsetInCU: 0x25CF6, offset: 0x3DFF6F, size: 0x8, addend: 0x0, symName: __ZN3syn5token5Paren8surround17hef6358969a27e005E, symObjAddr: 0xF000, symBinAddr: 0xC42C0, symSize: 0x1BA }
  - { offsetInCU: 0x142D, offset: 0x3EA782, size: 0x8, addend: 0x0, symName: '__ZN3syn2ty8printing76_$LT$impl$u20$quote..to_tokens..ToTokens$u20$for$u20$syn..ty..TypeBareFn$GT$9to_tokens17h9ada785e3c4ac8beE', symObjAddr: 0xB6E0, symBinAddr: 0xCDC00, symSize: 0x210 }
  - { offsetInCU: 0x1B15, offset: 0x3EAE6A, size: 0x8, addend: 0x0, symName: '__ZN3syn2ty8printing78_$LT$impl$u20$quote..to_tokens..ToTokens$u20$for$u20$syn..ty..BareVariadic$GT$9to_tokens17hd841e8aff45580ffE', symObjAddr: 0xBF60, symBinAddr: 0xCDE10, symSize: 0x130 }
  - { offsetInCU: 0x1DE5, offset: 0x3EB13A, size: 0x8, addend: 0x0, symName: '__ZN3syn2ty7parsing64_$LT$impl$u20$syn..parse..Parse$u20$for$u20$syn..ty..TypePtr$GT$5parse17hb3a631f8b5050729E', symObjAddr: 0x86C0, symBinAddr: 0xCB9C0, symSize: 0x440 }
  - { offsetInCU: 0x2A21, offset: 0x3EBD76, size: 0x8, addend: 0x0, symName: '__ZN3syn2ty7parsing70_$LT$impl$u20$syn..parse..Parse$u20$for$u20$syn..ty..TypeReference$GT$5parse17h28b5cea3a2a5f18cE', symObjAddr: 0x8B00, symBinAddr: 0xCBE00, symSize: 0x3C0 }
  - { offsetInCU: 0x318F, offset: 0x3EC4E4, size: 0x8, addend: 0x0, symName: '__ZN3syn2ty7parsing67_$LT$impl$u20$syn..parse..Parse$u20$for$u20$syn..ty..TypeBareFn$GT$5parse17hc7333311caab7003E', symObjAddr: 0x8EC0, symBinAddr: 0xCC1C0, symSize: 0x1020 }
  - { offsetInCU: 0x4E7A, offset: 0x3EE1CF, size: 0x8, addend: 0x0, symName: '__ZN3syn2ty7parsing66_$LT$impl$u20$syn..parse..Parse$u20$for$u20$syn..ty..TypeNever$GT$5parse17hedcf4bce6d4b8acdE', symObjAddr: 0x9EE0, symBinAddr: 0xCD1E0, symSize: 0x50 }
  - { offsetInCU: 0x4F28, offset: 0x3EE27D, size: 0x8, addend: 0x0, symName: '__ZN3syn2ty7parsing72_$LT$impl$u20$syn..parse..Parse$u20$for$u20$syn..ty..TypeTraitObject$GT$5parse17h2a2e48674bf544ceE', symObjAddr: 0xA790, symBinAddr: 0xCD3F0, symSize: 0x190 }
  - { offsetInCU: 0x556A, offset: 0x3EE8BF, size: 0x8, addend: 0x0, symName: '__ZN3syn2ty7parsing66_$LT$impl$u20$syn..parse..Parse$u20$for$u20$syn..ty..TypeGroup$GT$5parse17h320d676d6240d83aE', symObjAddr: 0xAF50, symBinAddr: 0xCD9E0, symSize: 0x220 }
  - { offsetInCU: 0x5AF1, offset: 0x3EEE46, size: 0x8, addend: 0x0, symName: '__ZN60_$LT$syn..ty..Type$u20$as$u20$quote..to_tokens..ToTokens$GT$9to_tokens17hc517846047fbd8d3E', symObjAddr: 0xC130, symBinAddr: 0xCDF40, symSize: 0x800 }
  - { offsetInCU: 0x7F25, offset: 0x3F127A, size: 0x8, addend: 0x0, symName: '__ZN77_$LT$$RF$$u5b$syn..attr..Attribute$u5d$$u20$as$u20$syn..attr..FilterAttrs$GT$5outer8is_outer17h41e17c2f166a63adE.llvm.7433280464014642904', symObjAddr: 0x7F60, symBinAddr: 0xCB9A0, symSize: 0x20 }
  - { offsetInCU: 0xD240, offset: 0x3F6595, size: 0x8, addend: 0x0, symName: '__ZN4core3ptr100drop_in_place$LT$core..option..Option$LT$alloc..boxed..Box$LT$syn..path..GenericArgument$GT$$GT$$GT$17h3a7c44b9e57fe410E', symObjAddr: 0x1D0, symBinAddr: 0xC4480, symSize: 0x50 }
  - { offsetInCU: 0xD5DE, offset: 0x3F6933, size: 0x8, addend: 0x0, symName: '__ZN4core3ptr100drop_in_place$LT$syn..punctuated..Punctuated$LT$syn..path..PathSegment$C$syn..token..PathSep$GT$$GT$17he41ef64147139591E', symObjAddr: 0x220, symBinAddr: 0xC44D0, symSize: 0x2B0 }
  - { offsetInCU: 0xE094, offset: 0x3F73E9, size: 0x8, addend: 0x0, symName: '__ZN4core3ptr103drop_in_place$LT$core..option..Option$LT$alloc..boxed..Box$LT$syn..generics..TypeParamBound$GT$$GT$$GT$17hb14e4384a768542bE', symObjAddr: 0x4D0, symBinAddr: 0xC4780, symSize: 0x50 }
  - { offsetInCU: 0xE29F, offset: 0x3F75F4, size: 0x8, addend: 0x0, symName: '__ZN4core3ptr103drop_in_place$LT$syn..punctuated..Punctuated$LT$syn..generics..GenericParam$C$syn..token..Comma$GT$$GT$17h0c6077a988036760E', symObjAddr: 0x520, symBinAddr: 0xC47D0, symSize: 0xF0 }
  - { offsetInCU: 0xE79A, offset: 0x3F7AEF, size: 0x8, addend: 0x0, symName: '__ZN4core3ptr104drop_in_place$LT$syn..punctuated..Punctuated$LT$syn..generics..TypeParamBound$C$syn..token..Plus$GT$$GT$17h724e4d9d1d65061aE', symObjAddr: 0x610, symBinAddr: 0xC48C0, symSize: 0x190 }
  - { offsetInCU: 0xEE39, offset: 0x3F818E, size: 0x8, addend: 0x0, symName: '__ZN4core3ptr34drop_in_place$LT$syn..lit..Lit$GT$17hd64dde89a262341dE', symObjAddr: 0x7A0, symBinAddr: 0xC4A50, symSize: 0x120 }
  - { offsetInCU: 0xF327, offset: 0x3F867C, size: 0x8, addend: 0x0, symName: '__ZN4core3ptr34drop_in_place$LT$syn..pat..Pat$GT$17hf88887878261d63cE', symObjAddr: 0x8C0, symBinAddr: 0xC4B70, symSize: 0x1100 }
  - { offsetInCU: 0x139A0, offset: 0x3FCCF5, size: 0x8, addend: 0x0, symName: '__ZN4core3ptr34drop_in_place$LT$syn..ty..Type$GT$17ha80dd29b0f9d4a3fE.llvm.7433280464014642904', symObjAddr: 0x19C0, symBinAddr: 0xC5C70, symSize: 0x510 }
  - { offsetInCU: 0x15006, offset: 0x3FE35B, size: 0x8, addend: 0x0, symName: '__ZN4core3ptr36drop_in_place$LT$syn..expr..Expr$GT$17h10f573b40ddd212cE', symObjAddr: 0x1ED0, symBinAddr: 0xC6180, symSize: 0x2840 }
  - { offsetInCU: 0x1F0E4, offset: 0x408439, size: 0x8, addend: 0x0, symName: '__ZN4core3ptr36drop_in_place$LT$syn..mac..Macro$GT$17hc3b30a7a8a34cc2dE', symObjAddr: 0x4710, symBinAddr: 0xC89C0, symSize: 0x40 }
  - { offsetInCU: 0x1F11E, offset: 0x408473, size: 0x8, addend: 0x0, symName: '__ZN4core3ptr36drop_in_place$LT$syn..path..Path$GT$17h75c74a97d5f0a03bE', symObjAddr: 0x4750, symBinAddr: 0xC8A00, symSize: 0x280 }
  - { offsetInCU: 0x1FBCB, offset: 0x408F20, size: 0x8, addend: 0x0, symName: '__ZN4core3ptr37drop_in_place$LT$syn..stmt..Block$GT$17h6fc3254d5688f2c3E', symObjAddr: 0x49D0, symBinAddr: 0xC8C80, symSize: 0xD0 }
  - { offsetInCU: 0x1FEA2, offset: 0x4091F7, size: 0x8, addend: 0x0, symName: '__ZN4core3ptr38drop_in_place$LT$syn..expr..Member$GT$17h6b0cf84594ce6bceE', symObjAddr: 0x4AA0, symBinAddr: 0xC8D50, symSize: 0x30 }
  - { offsetInCU: 0x20039, offset: 0x40938E, size: 0x8, addend: 0x0, symName: '__ZN4core3ptr38drop_in_place$LT$syn..group..Group$GT$17ha3c6933df6efe66fE.llvm.7433280464014642904', symObjAddr: 0x4AD0, symBinAddr: 0xC8D80, symSize: 0x70 }
  - { offsetInCU: 0x20331, offset: 0x409686, size: 0x8, addend: 0x0, symName: '__ZN4core3ptr39drop_in_place$LT$proc_macro2..Ident$GT$17ha28fef9769e267d9E', symObjAddr: 0x4B40, symBinAddr: 0xC8DF0, symSize: 0x30 }
  - { offsetInCU: 0x2040E, offset: 0x409763, size: 0x8, addend: 0x0, symName: '__ZN4core3ptr40drop_in_place$LT$syn..ty..ReturnType$GT$17h035a612e322b6510E', symObjAddr: 0x4B70, symBinAddr: 0xC8E20, symSize: 0x50 }
  - { offsetInCU: 0x2057E, offset: 0x4098D3, size: 0x8, addend: 0x0, symName: '__ZN4core3ptr41drop_in_place$LT$syn..expr..ExprConst$GT$17hbfe19d5d621e6836E', symObjAddr: 0x4BC0, symBinAddr: 0xC8E70, symSize: 0x180 }
  - { offsetInCU: 0x20B6B, offset: 0x409EC0, size: 0x8, addend: 0x0, symName: '__ZN4core3ptr44drop_in_place$LT$syn..lifetime..Lifetime$GT$17he37fa474f03de7b1E', symObjAddr: 0x4D40, symBinAddr: 0xC8FF0, symSize: 0x30 }
  - { offsetInCU: 0x20C67, offset: 0x409FBC, size: 0x8, addend: 0x0, symName: '__ZN4core3ptr44drop_in_place$LT$syn..parse..ParseBuffer$GT$17hf792ff20095efc35E', symObjAddr: 0x4D70, symBinAddr: 0xC9020, symSize: 0x70 }
  - { offsetInCU: 0x2107E, offset: 0x40A3D3, size: 0x8, addend: 0x0, symName: '__ZN4core3ptr45drop_in_place$LT$proc_macro2..TokenStream$GT$17h76e8e68015f4924dE.llvm.7433280464014642904', symObjAddr: 0x4DE0, symBinAddr: 0xC9090, symSize: 0x140 }
  - { offsetInCU: 0x21518, offset: 0x40A86D, size: 0x8, addend: 0x0, symName: '__ZN4core3ptr45drop_in_place$LT$syn..generics..TypeParam$GT$17h188a459c1380ac75E', symObjAddr: 0x4F20, symBinAddr: 0xC91D0, symSize: 0x230 }
  - { offsetInCU: 0x21D8D, offset: 0x40B0E2, size: 0x8, addend: 0x0, symName: '__ZN4core3ptr46drop_in_place$LT$syn..generics..ConstParam$GT$17h7a9b900b2b88bfcdE', symObjAddr: 0x5150, symBinAddr: 0xC9400, symSize: 0x150 }
  - { offsetInCU: 0x2220E, offset: 0x40B563, size: 0x8, addend: 0x0, symName: '__ZN4core3ptr47drop_in_place$LT$syn..path..GenericArgument$GT$17h593f06d6ca9a94d2E', symObjAddr: 0x52A0, symBinAddr: 0xC9550, symSize: 0x4A0 }
  - { offsetInCU: 0x23314, offset: 0x40C669, size: 0x8, addend: 0x0, symName: '__ZN4core3ptr49drop_in_place$LT$syn..generics..LifetimeParam$GT$17h3a8835ab294bfd16E', symObjAddr: 0x5740, symBinAddr: 0xC99F0, symSize: 0xF0 }
  - { offsetInCU: 0x2372B, offset: 0x40CA80, size: 0x8, addend: 0x0, symName: '__ZN4core3ptr50drop_in_place$LT$syn..generics..TypeParamBound$GT$17h81b4325b5900604dE', symObjAddr: 0x5830, symBinAddr: 0xC9AE0, symSize: 0x1C0 }
  - { offsetInCU: 0x23C88, offset: 0x40CFDD, size: 0x8, addend: 0x0, symName: '__ZN4core3ptr58drop_in_place$LT$alloc..vec..Vec$LT$syn..expr..Arm$GT$$GT$17hff9224aadf2233b8E', symObjAddr: 0x59F0, symBinAddr: 0xC9CA0, symSize: 0xD0 }
  - { offsetInCU: 0x23F48, offset: 0x40D29D, size: 0x8, addend: 0x0, symName: '__ZN4core3ptr59drop_in_place$LT$alloc..boxed..Box$LT$syn..pat..Pat$GT$$GT$17h622b0c1db21c0742E', symObjAddr: 0x5AC0, symBinAddr: 0xC9D70, symSize: 0x50 }
  - { offsetInCU: 0x240A1, offset: 0x40D3F6, size: 0x8, addend: 0x0, symName: '__ZN4core3ptr59drop_in_place$LT$alloc..boxed..Box$LT$syn..ty..Type$GT$$GT$17hde45fa887dd8b605E', symObjAddr: 0x5B10, symBinAddr: 0xC9DC0, symSize: 0x50 }
  - { offsetInCU: 0x241FA, offset: 0x40D54F, size: 0x8, addend: 0x0, symName: '__ZN4core3ptr61drop_in_place$LT$alloc..boxed..Box$LT$syn..expr..Expr$GT$$GT$17hbb42293869113942E', symObjAddr: 0x5B60, symBinAddr: 0xC9E10, symSize: 0x50 }
  - { offsetInCU: 0x243CF, offset: 0x40D724, size: 0x8, addend: 0x0, symName: '__ZN4core3ptr61drop_in_place$LT$syn..path..ParenthesizedGenericArguments$GT$17h6b1731382637937fE', symObjAddr: 0x5C20, symBinAddr: 0xC9E60, symSize: 0x170 }
  - { offsetInCU: 0x249C5, offset: 0x40DD1A, size: 0x8, addend: 0x0, symName: '__ZN4core3ptr62drop_in_place$LT$syn..path..AngleBracketedGenericArguments$GT$17hf8fa172f007a1473E', symObjAddr: 0x5D90, symBinAddr: 0xC9FD0, symSize: 0x120 }
  - { offsetInCU: 0x24E10, offset: 0x40E165, size: 0x8, addend: 0x0, symName: '__ZN4core3ptr63drop_in_place$LT$alloc..boxed..Box$LT$syn..lit..LitRepr$GT$$GT$17h6e3a82ea4de7b84cE', symObjAddr: 0x5EB0, symBinAddr: 0xCA0F0, symSize: 0x60 }
  - { offsetInCU: 0x25117, offset: 0x40E46C, size: 0x8, addend: 0x0, symName: '__ZN4core3ptr64drop_in_place$LT$alloc..boxed..Box$LT$syn..pat..FieldPat$GT$$GT$17hbf8f4867d84bd25dE', symObjAddr: 0x5F10, symBinAddr: 0xCA150, symSize: 0x140 }
  - { offsetInCU: 0x25818, offset: 0x40EB6D, size: 0x8, addend: 0x0, symName: '__ZN4core3ptr64drop_in_place$LT$alloc..boxed..Box$LT$syn..ty..BareFnArg$GT$$GT$17h6be6354eb1d1364dE', symObjAddr: 0x6050, symBinAddr: 0xCA290, symSize: 0x140 }
  - { offsetInCU: 0x25DA1, offset: 0x40F0F6, size: 0x8, addend: 0x0, symName: '__ZN4core3ptr64drop_in_place$LT$alloc..vec..Vec$LT$syn..attr..Attribute$GT$$GT$17he33e25539d5885aeE.llvm.7433280464014642904', symObjAddr: 0x6190, symBinAddr: 0xCA3D0, symSize: 0xD0 }
  - { offsetInCU: 0x26095, offset: 0x40F3EA, size: 0x8, addend: 0x0, symName: '__ZN4core3ptr65drop_in_place$LT$alloc..vec..Vec$LT$proc_macro..TokenTree$GT$$GT$17h8abd81f8596dbc59E.llvm.7433280464014642904', symObjAddr: 0x6260, symBinAddr: 0xCA4A0, symSize: 0x110 }
  - { offsetInCU: 0x2648D, offset: 0x40F7E2, size: 0x8, addend: 0x0, symName: '__ZN4core3ptr65drop_in_place$LT$core..option..Option$LT$syn..expr..Label$GT$$GT$17hac599686b33ef364E', symObjAddr: 0x6370, symBinAddr: 0xCA5B0, symSize: 0x30 }
  - { offsetInCU: 0x265C7, offset: 0x40F91C, size: 0x8, addend: 0x0, symName: '__ZN4core3ptr66drop_in_place$LT$core..option..Option$LT$syn..pat..PatRest$GT$$GT$17hd5bb3bc28aa78ac1E', symObjAddr: 0x6450, symBinAddr: 0xCA5E0, symSize: 0xE0 }
  - { offsetInCU: 0x268EF, offset: 0x40FC44, size: 0x8, addend: 0x0, symName: '__ZN4core3ptr67drop_in_place$LT$alloc..boxed..Box$LT$syn..expr..FieldValue$GT$$GT$17hbbcf67a9d5e9863cE', symObjAddr: 0x6530, symBinAddr: 0xCA6C0, symSize: 0x140 }
  - { offsetInCU: 0x26E58, offset: 0x4101AD, size: 0x8, addend: 0x0, symName: '__ZN4core3ptr68drop_in_place$LT$alloc..boxed..Box$LT$syn..path..PathSegment$GT$$GT$17h99aaf90b3262bc1eE', symObjAddr: 0x6670, symBinAddr: 0xCA800, symSize: 0x1B0 }
  - { offsetInCU: 0x27566, offset: 0x4108BB, size: 0x8, addend: 0x0, symName: '__ZN4core3ptr70drop_in_place$LT$core..option..Option$LT$syn..ty..BareVariadic$GT$$GT$17h79a19250e9f043b1E', symObjAddr: 0x6820, symBinAddr: 0xCA9B0, symSize: 0x100 }
  - { offsetInCU: 0x279D1, offset: 0x410D26, size: 0x8, addend: 0x0, symName: '__ZN4core3ptr72drop_in_place$LT$alloc..boxed..Box$LT$syn..path..GenericArgument$GT$$GT$17hfd308d374af4273dE', symObjAddr: 0x6920, symBinAddr: 0xCAAB0, symSize: 0x1D0 }
  - { offsetInCU: 0x27F6C, offset: 0x4112C1, size: 0x8, addend: 0x0, symName: '__ZN4core3ptr73drop_in_place$LT$alloc..boxed..Box$LT$syn..generics..GenericParam$GT$$GT$17ha26d5d145af4b203E', symObjAddr: 0x6AF0, symBinAddr: 0xCAC80, symSize: 0x80 }
  - { offsetInCU: 0x280E2, offset: 0x411437, size: 0x8, addend: 0x0, symName: '__ZN4core3ptr75drop_in_place$LT$alloc..boxed..Box$LT$syn..generics..TypeParamBound$GT$$GT$17h129a4e927e5eb81bE', symObjAddr: 0x6B70, symBinAddr: 0xCAD00, symSize: 0xC0 }
  - { offsetInCU: 0x28436, offset: 0x41178B, size: 0x8, addend: 0x0, symName: '__ZN4core3ptr86drop_in_place$LT$syn..punctuated..Punctuated$LT$syn..pat..Pat$C$syn..token..Or$GT$$GT$17h9cc6b5f7b6d3a555E', symObjAddr: 0x6C50, symBinAddr: 0xCADC0, symSize: 0x120 }
  - { offsetInCU: 0x288B1, offset: 0x411C06, size: 0x8, addend: 0x0, symName: '__ZN4core3ptr87drop_in_place$LT$core..option..Option$LT$alloc..boxed..Box$LT$syn..pat..Pat$GT$$GT$$GT$17h51cd48973d96c411E', symObjAddr: 0x6D70, symBinAddr: 0xCAEE0, symSize: 0x50 }
  - { offsetInCU: 0x28A21, offset: 0x411D76, size: 0x8, addend: 0x0, symName: '__ZN4core3ptr87drop_in_place$LT$core..option..Option$LT$alloc..boxed..Box$LT$syn..ty..Type$GT$$GT$$GT$17h103a25a4a7d7374eE', symObjAddr: 0x6DC0, symBinAddr: 0xCAF30, symSize: 0x50 }
  - { offsetInCU: 0x28B91, offset: 0x411EE6, size: 0x8, addend: 0x0, symName: '__ZN4core3ptr89drop_in_place$LT$core..option..Option$LT$alloc..boxed..Box$LT$syn..expr..Expr$GT$$GT$$GT$17h9e02509cb2345d44E', symObjAddr: 0x6E10, symBinAddr: 0xCAF80, symSize: 0x50 }
  - { offsetInCU: 0x28D3F, offset: 0x412094, size: 0x8, addend: 0x0, symName: '__ZN4core3ptr89drop_in_place$LT$syn..punctuated..Punctuated$LT$syn..pat..Pat$C$syn..token..Comma$GT$$GT$17hd3a83c36827f210aE', symObjAddr: 0x6E60, symBinAddr: 0xCAFD0, symSize: 0x120 }
  - { offsetInCU: 0x291D1, offset: 0x412526, size: 0x8, addend: 0x0, symName: '__ZN4core3ptr89drop_in_place$LT$syn..punctuated..Punctuated$LT$syn..ty..Type$C$syn..token..Comma$GT$$GT$17he030c4b7f24a5848E', symObjAddr: 0x6F80, symBinAddr: 0xCB0F0, symSize: 0x120 }
  - { offsetInCU: 0x2964C, offset: 0x4129A1, size: 0x8, addend: 0x0, symName: '__ZN4core3ptr90drop_in_place$LT$core..option..Option$LT$syn..path..AngleBracketedGenericArguments$GT$$GT$17ha307713a95a0671eE', symObjAddr: 0x70A0, symBinAddr: 0xCB210, symSize: 0x130 }
  - { offsetInCU: 0x29AEE, offset: 0x412E43, size: 0x8, addend: 0x0, symName: '__ZN4core3ptr91drop_in_place$LT$syn..punctuated..Punctuated$LT$syn..expr..Expr$C$syn..token..Comma$GT$$GT$17h6f261e8f470c81f2E', symObjAddr: 0x71D0, symBinAddr: 0xCB340, symSize: 0x120 }
  - { offsetInCU: 0x29F7C, offset: 0x4132D1, size: 0x8, addend: 0x0, symName: '__ZN4core3ptr94drop_in_place$LT$syn..punctuated..Punctuated$LT$syn..pat..FieldPat$C$syn..token..Comma$GT$$GT$17h43ec25af986ef674E', symObjAddr: 0x72F0, symBinAddr: 0xCB460, symSize: 0xF0 }
  - { offsetInCU: 0x2A27B, offset: 0x4135D0, size: 0x8, addend: 0x0, symName: '__ZN4core3ptr94drop_in_place$LT$syn..punctuated..Punctuated$LT$syn..ty..BareFnArg$C$syn..token..Comma$GT$$GT$17h7ba4c699ee390ebaE', symObjAddr: 0x73E0, symBinAddr: 0xCB550, symSize: 0xF0 }
  - { offsetInCU: 0x2A57C, offset: 0x4138D1, size: 0x8, addend: 0x0, symName: '__ZN4core3ptr95drop_in_place$LT$core..option..Option$LT$$LP$proc_macro2..Ident$C$syn..token..Colon$RP$$GT$$GT$17h59fe297999aa3329E.llvm.7433280464014642904', symObjAddr: 0x74D0, symBinAddr: 0xCB640, symSize: 0x30 }
  - { offsetInCU: 0x2A697, offset: 0x4139EC, size: 0x8, addend: 0x0, symName: '__ZN4core3ptr96drop_in_place$LT$core..option..Option$LT$alloc..boxed..Box$LT$syn..path..PathSegment$GT$$GT$$GT$17h5de12a5a0f9e9ef9E', symObjAddr: 0x7500, symBinAddr: 0xCB670, symSize: 0xA0 }
  - { offsetInCU: 0x2A916, offset: 0x413C6B, size: 0x8, addend: 0x0, symName: '__ZN4core3ptr97drop_in_place$LT$syn..punctuated..Punctuated$LT$syn..expr..FieldValue$C$syn..token..Comma$GT$$GT$17hf58d0a9a09266ab3E', symObjAddr: 0x75A0, symBinAddr: 0xCB710, symSize: 0xF0 }
  - { offsetInCU: 0x2AC13, offset: 0x413F68, size: 0x8, addend: 0x0, symName: '__ZN4core3ptr98drop_in_place$LT$alloc..vec..Vec$LT$$LP$syn..path..GenericArgument$C$syn..token..Comma$RP$$GT$$GT$17h0dee282a026d5a38E', symObjAddr: 0x7690, symBinAddr: 0xCB800, symSize: 0xD0 }
  - { offsetInCU: 0x2AF53, offset: 0x4142A8, size: 0x8, addend: 0x0, symName: '__ZN4core3ptr98drop_in_place$LT$syn..punctuated..Punctuated$LT$syn..lifetime..Lifetime$C$syn..token..Plus$GT$$GT$17h600c2b78f78fd2b9E', symObjAddr: 0x7760, symBinAddr: 0xCB8D0, symSize: 0xD0 }
  - { offsetInCU: 0x32A58, offset: 0x41BDAD, size: 0x8, addend: 0x0, symName: '__ZN3syn2ty7parsing37_$LT$impl$u20$syn..ty..ReturnType$GT$5parse17h76bf66c5704e5568E.llvm.7433280464014642904', symObjAddr: 0xA5B0, symBinAddr: 0xCD230, symSize: 0x1C0 }
  - { offsetInCU: 0x32F51, offset: 0x41C2A6, size: 0x8, addend: 0x0, symName: '__ZN3syn2ty7parsing42_$LT$impl$u20$syn..ty..TypeTraitObject$GT$12parse_bounds17hcce0f5f0c06eac47E', symObjAddr: 0xAAB0, symBinAddr: 0xCD580, symSize: 0x200 }
  - { offsetInCU: 0x3350A, offset: 0x41C85F, size: 0x8, addend: 0x0, symName: '__ZN3syn2ty7parsing40_$LT$impl$u20$syn..ty..TypeImplTrait$GT$5parse17h57ff6f0ea678d301E', symObjAddr: 0xACF0, symBinAddr: 0xCD780, symSize: 0x260 }
  - { offsetInCU: 0x1E, offset: 0x42304B, size: 0x8, addend: 0x0, symName: '__ZN4core3fmt3num52_$LT$impl$u20$core..fmt..Debug$u20$for$u20$usize$GT$3fmt17h9e5c63f85393f427E', symObjAddr: 0x0, symBinAddr: 0xCE740, symSize: 0x30 }
  - { offsetInCU: 0x50D, offset: 0x42353A, size: 0x8, addend: 0x0, symName: '__ZN4core3ptr46drop_in_place$LT$alloc..vec..Vec$LT$u8$GT$$GT$17hac40de56aef3363bE', symObjAddr: 0x30, symBinAddr: 0xCE770, symSize: 0x20 }
  - { offsetInCU: 0x615, offset: 0x423642, size: 0x8, addend: 0x0, symName: '__ZN4core3ptr48drop_in_place$LT$alloc..ffi..c_str..NulError$GT$17h22b4ea6536ce838bE', symObjAddr: 0x50, symBinAddr: 0xCE790, symSize: 0x20 }
  - { offsetInCU: 0x71D, offset: 0x42374A, size: 0x8, addend: 0x0, symName: '__ZN4core3ptr49drop_in_place$LT$alloc..string..FromUtf8Error$GT$17heaaeee83f03b2b7bE', symObjAddr: 0x70, symBinAddr: 0xCE7B0, symSize: 0x20 }
  - { offsetInCU: 0x2376, offset: 0x4253A3, size: 0x8, addend: 0x0, symName: '__ZN4core3fmt3num52_$LT$impl$u20$core..fmt..Debug$u20$for$u20$usize$GT$3fmt17h9e5c63f85393f427E', symObjAddr: 0x0, symBinAddr: 0xCE740, symSize: 0x30 }
  - { offsetInCU: 0x3D91, offset: 0x426DBE, size: 0x8, addend: 0x0, symName: '__ZN65_$LT$alloc..string..FromUtf8Error$u20$as$u20$core..fmt..Debug$GT$3fmt17h0c1e2aafb1cc24ffE', symObjAddr: 0xE0, symBinAddr: 0xCE820, symSize: 0x70 }
  - { offsetInCU: 0x449F, offset: 0x4274CC, size: 0x8, addend: 0x0, symName: '__ZN64_$LT$alloc..ffi..c_str..NulError$u20$as$u20$core..fmt..Debug$GT$3fmt17h75cdff7a4e3710ebE', symObjAddr: 0x90, symBinAddr: 0xCE7D0, symSize: 0x50 }
  - { offsetInCU: 0x5015, offset: 0x428042, size: 0x8, addend: 0x0, symName: __ZN3syn3lit5value13parse_lit_str17h9a56025a1403992cE, symObjAddr: 0x170, symBinAddr: 0xCE890, symSize: 0x8F0 }
  - { offsetInCU: 0x6921, offset: 0x42994E, size: 0x8, addend: 0x0, symName: __ZN3syn3lit5value17parse_lit_str_raw17h71a7a6b74a99cbf4E, symObjAddr: 0xA60, symBinAddr: 0xCF180, symSize: 0x3C0 }
  - { offsetInCU: 0x7BCD, offset: 0x42ABFA, size: 0x8, addend: 0x0, symName: __ZN3syn3lit5value18parse_lit_byte_str17he5816c9781ee600cE, symObjAddr: 0xE20, symBinAddr: 0xCF540, symSize: 0x600 }
  - { offsetInCU: 0x8FE1, offset: 0x42C00E, size: 0x8, addend: 0x0, symName: __ZN3syn3lit5value15parse_lit_c_str17h8ea0e7f1f657a4ccE, symObjAddr: 0x1420, symBinAddr: 0xCFB40, symSize: 0xD50 }
  - { offsetInCU: 0xAD65, offset: 0x42DD92, size: 0x8, addend: 0x0, symName: __ZN3syn3lit5value14parse_lit_byte17h1a7c10a21ef1f8adE, symObjAddr: 0x2170, symBinAddr: 0xD0890, symSize: 0x380 }
  - { offsetInCU: 0xB829, offset: 0x42E856, size: 0x8, addend: 0x0, symName: __ZN3syn3lit5value14parse_lit_char17h1b6fdda66c901312E, symObjAddr: 0x24F0, symBinAddr: 0xD0C10, symSize: 0x530 }
  - { offsetInCU: 0xC53C, offset: 0x42F569, size: 0x8, addend: 0x0, symName: __ZN3syn3lit5value11backslash_x17had5b4021e53b86d3E, symObjAddr: 0x2A20, symBinAddr: 0xD1140, symSize: 0x160 }
  - { offsetInCU: 0xC7DC, offset: 0x42F809, size: 0x8, addend: 0x0, symName: __ZN3syn3lit5value11backslash_x17hea0a6f2f0138e96cE, symObjAddr: 0x2B80, symBinAddr: 0xD12A0, symSize: 0x140 }
  - { offsetInCU: 0xCA0E, offset: 0x42FA3B, size: 0x8, addend: 0x0, symName: __ZN3syn3lit5value11backslash_u17hc546eddee006fb27E, symObjAddr: 0x2CC0, symBinAddr: 0xD13E0, symSize: 0x340 }
  - { offsetInCU: 0xD160, offset: 0x43018D, size: 0x8, addend: 0x0, symName: __ZN3syn3lit5value13parse_lit_int17h8a54417df181638cE, symObjAddr: 0x3000, symBinAddr: 0xD1720, symSize: 0x710 }
  - { offsetInCU: 0xE780, offset: 0x4317AD, size: 0x8, addend: 0x0, symName: __ZN3syn3lit5value15parse_lit_float17h48254a3bf7939b78E, symObjAddr: 0x3710, symBinAddr: 0xD1E30, symSize: 0x7A0 }
  - { offsetInCU: 0xF983, offset: 0x4329B0, size: 0x8, addend: 0x0, symName: __ZN3syn3lit5value11backslash_u18panic_cold_display17ha129ad0961798f3eE, symObjAddr: 0x3EB0, symBinAddr: 0x1BFAD0, symSize: 0x59 }
  - { offsetInCU: 0x21BD, offset: 0x4365D8, size: 0x8, addend: 0x0, symName: '__ZN77_$LT$$RF$$u5b$syn..attr..Attribute$u5d$$u20$as$u20$syn..attr..FilterAttrs$GT$5outer8is_outer17h41e17c2f166a63adE.llvm.15906860425259147884', symObjAddr: 0x7BC0, symBinAddr: 0xD2640, symSize: 0x20 }
  - { offsetInCU: 0x3345, offset: 0x437760, size: 0x8, addend: 0x0, symName: '__ZN3syn3pat8printing75_$LT$impl$u20$quote..to_tokens..ToTokens$u20$for$u20$syn..pat..PatIdent$GT$9to_tokens17h773c7ddcca1eed4aE', symObjAddr: 0x9130, symBinAddr: 0xD3730, symSize: 0x1F0 }
  - { offsetInCU: 0x38C5, offset: 0x437CE0, size: 0x8, addend: 0x0, symName: '__ZN3syn3pat8printing74_$LT$impl$u20$quote..to_tokens..ToTokens$u20$for$u20$syn..pat..PatRest$GT$9to_tokens17h5a916ef9f4d32210E', symObjAddr: 0x96B0, symBinAddr: 0xD3920, symSize: 0xD0 }
  - { offsetInCU: 0x3B66, offset: 0x437F81, size: 0x8, addend: 0x0, symName: '__ZN3syn3pat8printing74_$LT$impl$u20$quote..to_tokens..ToTokens$u20$for$u20$syn..pat..PatType$GT$9to_tokens17hc06b7f213d6b0d4dE', symObjAddr: 0x9AC0, symBinAddr: 0xD39F0, symSize: 0xE0 }
  - { offsetInCU: 0x3DCF, offset: 0x4381EA, size: 0x8, addend: 0x0, symName: '__ZN60_$LT$syn..pat..Pat$u20$as$u20$quote..to_tokens..ToTokens$GT$9to_tokens17h0cf42f7c25d434c6E', symObjAddr: 0x9DD0, symBinAddr: 0xD3AD0, symSize: 0xF20 }
  - { offsetInCU: 0x9AD2, offset: 0x43DEED, size: 0x8, addend: 0x0, symName: '__ZN4core3ptr44drop_in_place$LT$syn..parse..ParseBuffer$GT$17hf792ff20095efc35E', symObjAddr: 0x4CC0, symBinAddr: 0xD25D0, symSize: 0x70 }
  - { offsetInCU: 0xEBF6, offset: 0x443011, size: 0x8, addend: 0x0, symName: '__ZN3syn3pat7parsing31_$LT$impl$u20$syn..pat..Pat$GT$12parse_single17had5917816d6a4d92E', symObjAddr: 0x7CC0, symBinAddr: 0xD2660, symSize: 0xFF0 }
  - { offsetInCU: 0x13B1D, offset: 0x447F38, size: 0x8, addend: 0x0, symName: '__ZN3syn3pat7parsing31_$LT$impl$u20$syn..pat..Pat$GT$29parse_multi_with_leading_vert17h1037b3b98e13f049E', symObjAddr: 0x8CD0, symBinAddr: 0xD3650, symSize: 0xE0 }
  - { offsetInCU: 0x35, offset: 0x44CAAD, size: 0x8, addend: 0x0, symName: _anon.0b050a9e0cbe0aeeb92af8a853766f2a.0.llvm.661229634610467167, symObjAddr: 0xDFA0, symBinAddr: 0x2192A8, symSize: 0x0 }
  - { offsetInCU: 0x1E7A, offset: 0x44E8F2, size: 0x8, addend: 0x0, symName: '__ZN4core3ptr100drop_in_place$LT$syn..punctuated..Punctuated$LT$syn..path..PathSegment$C$syn..token..PathSep$GT$$GT$17he41ef64147139591E.llvm.661229634610467167', symObjAddr: 0x410, symBinAddr: 0xD49F0, symSize: 0x170 }
  - { offsetInCU: 0x2512, offset: 0x44EF8A, size: 0x8, addend: 0x0, symName: '__ZN4core3ptr101drop_in_place$LT$core..option..Option$LT$alloc..boxed..Box$LT$syn..generics..GenericParam$GT$$GT$$GT$17h2bff155591650989E', symObjAddr: 0x580, symBinAddr: 0xD4B60, symSize: 0x90 }
  - { offsetInCU: 0x26F6, offset: 0x44F16E, size: 0x8, addend: 0x0, symName: '__ZN4core3ptr102drop_in_place$LT$syn..punctuated..Punctuated$LT$syn..path..GenericArgument$C$syn..token..Comma$GT$$GT$17h8b1978399cfff48bE.llvm.661229634610467167', symObjAddr: 0x610, symBinAddr: 0xD4BF0, symSize: 0xF0 }
  - { offsetInCU: 0x2A29, offset: 0x44F4A1, size: 0x8, addend: 0x0, symName: '__ZN4core3ptr103drop_in_place$LT$core..option..Option$LT$alloc..boxed..Box$LT$syn..generics..TypeParamBound$GT$$GT$$GT$17hb14e4384a768542bE', symObjAddr: 0x700, symBinAddr: 0xD4CE0, symSize: 0x50 }
  - { offsetInCU: 0x2BF6, offset: 0x44F66E, size: 0x8, addend: 0x0, symName: '__ZN4core3ptr103drop_in_place$LT$syn..punctuated..Punctuated$LT$syn..generics..GenericParam$C$syn..token..Comma$GT$$GT$17h0c6077a988036760E', symObjAddr: 0x750, symBinAddr: 0xD4D30, symSize: 0xF0 }
  - { offsetInCU: 0x30FD, offset: 0x44FB75, size: 0x8, addend: 0x0, symName: '__ZN4core3ptr104drop_in_place$LT$syn..punctuated..Punctuated$LT$syn..generics..TypeParamBound$C$syn..token..Plus$GT$$GT$17h724e4d9d1d65061aE', symObjAddr: 0x840, symBinAddr: 0xD4E20, symSize: 0x260 }
  - { offsetInCU: 0x3B4D, offset: 0x4505C5, size: 0x8, addend: 0x0, symName: '__ZN4core3ptr34drop_in_place$LT$syn..lit..Lit$GT$17hd64dde89a262341dE', symObjAddr: 0xAA0, symBinAddr: 0xD5080, symSize: 0x120 }
  - { offsetInCU: 0x405A, offset: 0x450AD2, size: 0x8, addend: 0x0, symName: '__ZN4core3ptr34drop_in_place$LT$syn..pat..Pat$GT$17hf88887878261d63cE', symObjAddr: 0xBC0, symBinAddr: 0xD51A0, symSize: 0x1100 }
  - { offsetInCU: 0x86F2, offset: 0x45516A, size: 0x8, addend: 0x0, symName: '__ZN4core3ptr34drop_in_place$LT$syn..ty..Type$GT$17ha80dd29b0f9d4a3fE.llvm.661229634610467167', symObjAddr: 0x1CC0, symBinAddr: 0xD62A0, symSize: 0x520 }
  - { offsetInCU: 0x9D67, offset: 0x4567DF, size: 0x8, addend: 0x0, symName: '__ZN4core3ptr36drop_in_place$LT$syn..expr..Expr$GT$17h10f573b40ddd212cE.llvm.661229634610467167', symObjAddr: 0x21E0, symBinAddr: 0xD67C0, symSize: 0x2830 }
  - { offsetInCU: 0x13E6A, offset: 0x4608E2, size: 0x8, addend: 0x0, symName: '__ZN4core3ptr36drop_in_place$LT$syn..mac..Macro$GT$17hc3b30a7a8a34cc2dE', symObjAddr: 0x4A10, symBinAddr: 0xD8FF0, symSize: 0x40 }
  - { offsetInCU: 0x13EC3, offset: 0x46093B, size: 0x8, addend: 0x0, symName: '__ZN4core3ptr36drop_in_place$LT$syn..path..Path$GT$17h75c74a97d5f0a03bE.llvm.661229634610467167', symObjAddr: 0x4A50, symBinAddr: 0xD9030, symSize: 0x1A0 }
  - { offsetInCU: 0x1454D, offset: 0x460FC5, size: 0x8, addend: 0x0, symName: '__ZN4core3ptr37drop_in_place$LT$syn..stmt..Block$GT$17h6fc3254d5688f2c3E', symObjAddr: 0x4BF0, symBinAddr: 0xD91D0, symSize: 0xD0 }
  - { offsetInCU: 0x14824, offset: 0x46129C, size: 0x8, addend: 0x0, symName: '__ZN4core3ptr38drop_in_place$LT$syn..expr..Member$GT$17h6b0cf84594ce6bceE', symObjAddr: 0x4CC0, symBinAddr: 0xD92A0, symSize: 0x30 }
  - { offsetInCU: 0x14920, offset: 0x461398, size: 0x8, addend: 0x0, symName: '__ZN4core3ptr38drop_in_place$LT$syn..ty..TypePath$GT$17h6f484b80634b66aeE', symObjAddr: 0x4CF0, symBinAddr: 0xD92D0, symSize: 0x70 }
  - { offsetInCU: 0x14A9D, offset: 0x461515, size: 0x8, addend: 0x0, symName: '__ZN4core3ptr39drop_in_place$LT$proc_macro2..Ident$GT$17ha28fef9769e267d9E.llvm.661229634610467167', symObjAddr: 0x4D60, symBinAddr: 0xD9340, symSize: 0x30 }
  - { offsetInCU: 0x14B7A, offset: 0x4615F2, size: 0x8, addend: 0x0, symName: '__ZN4core3ptr40drop_in_place$LT$syn..ty..ReturnType$GT$17h035a612e322b6510E.llvm.661229634610467167', symObjAddr: 0x4D90, symBinAddr: 0xD9370, symSize: 0x50 }
  - { offsetInCU: 0x14CEA, offset: 0x461762, size: 0x8, addend: 0x0, symName: '__ZN4core3ptr41drop_in_place$LT$syn..expr..ExprConst$GT$17hbfe19d5d621e6836E', symObjAddr: 0x4DE0, symBinAddr: 0xD93C0, symSize: 0x180 }
  - { offsetInCU: 0x152F6, offset: 0x461D6E, size: 0x8, addend: 0x0, symName: '__ZN4core3ptr42drop_in_place$LT$syn..path..Constraint$GT$17h367871d1e7e54db0E.llvm.661229634610467167', symObjAddr: 0x5040, symBinAddr: 0xD9540, symSize: 0x160 }
  - { offsetInCU: 0x15865, offset: 0x4622DD, size: 0x8, addend: 0x0, symName: '__ZN4core3ptr44drop_in_place$LT$syn..lifetime..Lifetime$GT$17he37fa474f03de7b1E.llvm.661229634610467167', symObjAddr: 0x51A0, symBinAddr: 0xD96A0, symSize: 0x30 }
  - { offsetInCU: 0x159DD, offset: 0x462455, size: 0x8, addend: 0x0, symName: '__ZN4core3ptr44drop_in_place$LT$syn..parse..ParseBuffer$GT$17hf792ff20095efc35E', symObjAddr: 0x51D0, symBinAddr: 0xD96D0, symSize: 0x70 }
  - { offsetInCU: 0x15DF4, offset: 0x46286C, size: 0x8, addend: 0x0, symName: '__ZN4core3ptr45drop_in_place$LT$proc_macro2..TokenStream$GT$17h76e8e68015f4924dE', symObjAddr: 0x5240, symBinAddr: 0xD9740, symSize: 0x140 }
  - { offsetInCU: 0x1626F, offset: 0x462CE7, size: 0x8, addend: 0x0, symName: '__ZN4core3ptr45drop_in_place$LT$syn..generics..TypeParam$GT$17h188a459c1380ac75E', symObjAddr: 0x5380, symBinAddr: 0xD9880, symSize: 0x140 }
  - { offsetInCU: 0x166B8, offset: 0x463130, size: 0x8, addend: 0x0, symName: '__ZN4core3ptr45drop_in_place$LT$syn..path..PathArguments$GT$17hdbc6dfac6f3334e6E.llvm.661229634610467167', symObjAddr: 0x54C0, symBinAddr: 0xD99C0, symSize: 0xB0 }
  - { offsetInCU: 0x16889, offset: 0x463301, size: 0x8, addend: 0x0, symName: '__ZN4core3ptr46drop_in_place$LT$syn..generics..ConstParam$GT$17h7a9b900b2b88bfcdE', symObjAddr: 0x5570, symBinAddr: 0xD9A70, symSize: 0x150 }
  - { offsetInCU: 0x16CAD, offset: 0x463725, size: 0x8, addend: 0x0, symName: '__ZN4core3ptr49drop_in_place$LT$syn..generics..LifetimeParam$GT$17h3a8835ab294bfd16E', symObjAddr: 0x56C0, symBinAddr: 0xD9BC0, symSize: 0xF0 }
  - { offsetInCU: 0x170C4, offset: 0x463B3C, size: 0x8, addend: 0x0, symName: '__ZN4core3ptr50drop_in_place$LT$syn..generics..TypeParamBound$GT$17h81b4325b5900604dE', symObjAddr: 0x57B0, symBinAddr: 0xD9CB0, symSize: 0x1C0 }
  - { offsetInCU: 0x17621, offset: 0x464099, size: 0x8, addend: 0x0, symName: '__ZN4core3ptr58drop_in_place$LT$alloc..vec..Vec$LT$syn..expr..Arm$GT$$GT$17hff9224aadf2233b8E', symObjAddr: 0x5970, symBinAddr: 0xD9E70, symSize: 0xD0 }
  - { offsetInCU: 0x178E1, offset: 0x464359, size: 0x8, addend: 0x0, symName: '__ZN4core3ptr59drop_in_place$LT$alloc..boxed..Box$LT$syn..pat..Pat$GT$$GT$17h622b0c1db21c0742E', symObjAddr: 0x5A40, symBinAddr: 0xD9F40, symSize: 0x50 }
  - { offsetInCU: 0x17A3A, offset: 0x4644B2, size: 0x8, addend: 0x0, symName: '__ZN4core3ptr59drop_in_place$LT$alloc..boxed..Box$LT$syn..ty..Type$GT$$GT$17hde45fa887dd8b605E.llvm.661229634610467167', symObjAddr: 0x5A90, symBinAddr: 0xD9F90, symSize: 0x50 }
  - { offsetInCU: 0x17B93, offset: 0x46460B, size: 0x8, addend: 0x0, symName: '__ZN4core3ptr61drop_in_place$LT$alloc..boxed..Box$LT$syn..expr..Expr$GT$$GT$17hbb42293869113942E', symObjAddr: 0x5AE0, symBinAddr: 0xD9FE0, symSize: 0x50 }
  - { offsetInCU: 0x17D68, offset: 0x4647E0, size: 0x8, addend: 0x0, symName: '__ZN4core3ptr61drop_in_place$LT$syn..path..ParenthesizedGenericArguments$GT$17h6b1731382637937fE.llvm.661229634610467167', symObjAddr: 0x5B30, symBinAddr: 0xDA030, symSize: 0x170 }
  - { offsetInCU: 0x1835E, offset: 0x464DD6, size: 0x8, addend: 0x0, symName: '__ZN4core3ptr63drop_in_place$LT$alloc..boxed..Box$LT$syn..lit..LitRepr$GT$$GT$17h6e3a82ea4de7b84cE', symObjAddr: 0x5CA0, symBinAddr: 0xDA1A0, symSize: 0x60 }
  - { offsetInCU: 0x18665, offset: 0x4650DD, size: 0x8, addend: 0x0, symName: '__ZN4core3ptr64drop_in_place$LT$alloc..boxed..Box$LT$syn..pat..FieldPat$GT$$GT$17hbf8f4867d84bd25dE', symObjAddr: 0x5D00, symBinAddr: 0xDA200, symSize: 0x140 }
  - { offsetInCU: 0x18D66, offset: 0x4657DE, size: 0x8, addend: 0x0, symName: '__ZN4core3ptr64drop_in_place$LT$alloc..boxed..Box$LT$syn..ty..BareFnArg$GT$$GT$17h6be6354eb1d1364dE', symObjAddr: 0x5E40, symBinAddr: 0xDA340, symSize: 0x140 }
  - { offsetInCU: 0x192EF, offset: 0x465D67, size: 0x8, addend: 0x0, symName: '__ZN4core3ptr65drop_in_place$LT$alloc..vec..Vec$LT$proc_macro..TokenTree$GT$$GT$17h8abd81f8596dbc59E', symObjAddr: 0x5F80, symBinAddr: 0xDA480, symSize: 0x110 }
  - { offsetInCU: 0x196E7, offset: 0x46615F, size: 0x8, addend: 0x0, symName: '__ZN4core3ptr65drop_in_place$LT$core..option..Option$LT$syn..expr..Label$GT$$GT$17hac599686b33ef364E', symObjAddr: 0x6090, symBinAddr: 0xDA590, symSize: 0x30 }
  - { offsetInCU: 0x19821, offset: 0x466299, size: 0x8, addend: 0x0, symName: '__ZN4core3ptr66drop_in_place$LT$core..option..Option$LT$syn..pat..PatRest$GT$$GT$17hd5bb3bc28aa78ac1E', symObjAddr: 0x60C0, symBinAddr: 0xDA5C0, symSize: 0xE0 }
  - { offsetInCU: 0x19B49, offset: 0x4665C1, size: 0x8, addend: 0x0, symName: '__ZN4core3ptr67drop_in_place$LT$alloc..boxed..Box$LT$syn..expr..FieldValue$GT$$GT$17hbbcf67a9d5e9863cE', symObjAddr: 0x61A0, symBinAddr: 0xDA6A0, symSize: 0x140 }
  - { offsetInCU: 0x1A0B2, offset: 0x466B2A, size: 0x8, addend: 0x0, symName: '__ZN4core3ptr68drop_in_place$LT$alloc..boxed..Box$LT$syn..path..PathSegment$GT$$GT$17h99aaf90b3262bc1eE.llvm.661229634610467167', symObjAddr: 0x62E0, symBinAddr: 0xDA7E0, symSize: 0xF0 }
  - { offsetInCU: 0x1A4D3, offset: 0x466F4B, size: 0x8, addend: 0x0, symName: '__ZN4core3ptr70drop_in_place$LT$core..option..Option$LT$syn..ty..BareVariadic$GT$$GT$17h79a19250e9f043b1E', symObjAddr: 0x63D0, symBinAddr: 0xDA8D0, symSize: 0x100 }
  - { offsetInCU: 0x1A97C, offset: 0x4673F4, size: 0x8, addend: 0x0, symName: '__ZN4core3ptr72drop_in_place$LT$alloc..boxed..Box$LT$syn..path..GenericArgument$GT$$GT$17hfd308d374af4273dE.llvm.661229634610467167', symObjAddr: 0x64D0, symBinAddr: 0xDA9D0, symSize: 0x190 }
  - { offsetInCU: 0x1AE57, offset: 0x4678CF, size: 0x8, addend: 0x0, symName: '__ZN4core3ptr72drop_in_place$LT$core..option..Option$LT$syn..lifetime..Lifetime$GT$$GT$17h49cce6f02f9c0590E', symObjAddr: 0x6660, symBinAddr: 0xDAB60, symSize: 0x30 }
  - { offsetInCU: 0x1AF91, offset: 0x467A09, size: 0x8, addend: 0x0, symName: '__ZN4core3ptr73drop_in_place$LT$alloc..boxed..Box$LT$syn..generics..GenericParam$GT$$GT$17ha26d5d145af4b203E', symObjAddr: 0x66C0, symBinAddr: 0xDAB90, symSize: 0x80 }
  - { offsetInCU: 0x1B107, offset: 0x467B7F, size: 0x8, addend: 0x0, symName: '__ZN4core3ptr75drop_in_place$LT$alloc..boxed..Box$LT$syn..generics..TypeParamBound$GT$$GT$17h129a4e927e5eb81bE', symObjAddr: 0x6740, symBinAddr: 0xDAC10, symSize: 0x190 }
  - { offsetInCU: 0x1B812, offset: 0x46828A, size: 0x8, addend: 0x0, symName: '__ZN4core3ptr86drop_in_place$LT$syn..punctuated..Punctuated$LT$syn..pat..Pat$C$syn..token..Or$GT$$GT$17h9cc6b5f7b6d3a555E', symObjAddr: 0x68D0, symBinAddr: 0xDADA0, symSize: 0x120 }
  - { offsetInCU: 0x1BC8D, offset: 0x468705, size: 0x8, addend: 0x0, symName: '__ZN4core3ptr87drop_in_place$LT$core..option..Option$LT$alloc..boxed..Box$LT$syn..pat..Pat$GT$$GT$$GT$17h51cd48973d96c411E', symObjAddr: 0x69F0, symBinAddr: 0xDAEC0, symSize: 0x50 }
  - { offsetInCU: 0x1BDFD, offset: 0x468875, size: 0x8, addend: 0x0, symName: '__ZN4core3ptr87drop_in_place$LT$core..option..Option$LT$alloc..boxed..Box$LT$syn..ty..Type$GT$$GT$$GT$17h103a25a4a7d7374eE.llvm.661229634610467167', symObjAddr: 0x6A40, symBinAddr: 0xDAF10, symSize: 0x50 }
  - { offsetInCU: 0x1BF6D, offset: 0x4689E5, size: 0x8, addend: 0x0, symName: '__ZN4core3ptr89drop_in_place$LT$core..option..Option$LT$alloc..boxed..Box$LT$syn..expr..Expr$GT$$GT$$GT$17h9e02509cb2345d44E', symObjAddr: 0x6A90, symBinAddr: 0xDAF60, symSize: 0x50 }
  - { offsetInCU: 0x1C11B, offset: 0x468B93, size: 0x8, addend: 0x0, symName: '__ZN4core3ptr89drop_in_place$LT$syn..punctuated..Punctuated$LT$syn..pat..Pat$C$syn..token..Comma$GT$$GT$17hd3a83c36827f210aE', symObjAddr: 0x6AE0, symBinAddr: 0xDAFB0, symSize: 0x120 }
  - { offsetInCU: 0x1C5AD, offset: 0x469025, size: 0x8, addend: 0x0, symName: '__ZN4core3ptr89drop_in_place$LT$syn..punctuated..Punctuated$LT$syn..ty..Type$C$syn..token..Comma$GT$$GT$17he030c4b7f24a5848E.llvm.661229634610467167', symObjAddr: 0x6C00, symBinAddr: 0xDB0D0, symSize: 0x120 }
  - { offsetInCU: 0x1CA66, offset: 0x4694DE, size: 0x8, addend: 0x0, symName: '__ZN4core3ptr91drop_in_place$LT$syn..punctuated..Punctuated$LT$syn..expr..Expr$C$syn..token..Comma$GT$$GT$17h6f261e8f470c81f2E', symObjAddr: 0x6D40, symBinAddr: 0xDB1F0, symSize: 0x120 }
  - { offsetInCU: 0x1CEF4, offset: 0x46996C, size: 0x8, addend: 0x0, symName: '__ZN4core3ptr94drop_in_place$LT$syn..punctuated..Punctuated$LT$syn..pat..FieldPat$C$syn..token..Comma$GT$$GT$17h43ec25af986ef674E', symObjAddr: 0x6E60, symBinAddr: 0xDB310, symSize: 0xF0 }
  - { offsetInCU: 0x1D1F3, offset: 0x469C6B, size: 0x8, addend: 0x0, symName: '__ZN4core3ptr94drop_in_place$LT$syn..punctuated..Punctuated$LT$syn..ty..BareFnArg$C$syn..token..Comma$GT$$GT$17h7ba4c699ee390ebaE', symObjAddr: 0x6F50, symBinAddr: 0xDB400, symSize: 0xF0 }
  - { offsetInCU: 0x1D4F4, offset: 0x469F6C, size: 0x8, addend: 0x0, symName: '__ZN4core3ptr96drop_in_place$LT$core..option..Option$LT$alloc..boxed..Box$LT$syn..path..PathSegment$GT$$GT$$GT$17h5de12a5a0f9e9ef9E.llvm.661229634610467167', symObjAddr: 0x7040, symBinAddr: 0xDB4F0, symSize: 0xA0 }
  - { offsetInCU: 0x1D792, offset: 0x46A20A, size: 0x8, addend: 0x0, symName: '__ZN4core3ptr97drop_in_place$LT$syn..punctuated..Punctuated$LT$syn..expr..FieldValue$C$syn..token..Comma$GT$$GT$17hf58d0a9a09266ab3E', symObjAddr: 0x70E0, symBinAddr: 0xDB590, symSize: 0xF0 }
  - { offsetInCU: 0x1DB0B, offset: 0x46A583, size: 0x8, addend: 0x0, symName: '__ZN4core3ptr98drop_in_place$LT$syn..punctuated..Punctuated$LT$syn..lifetime..Lifetime$C$syn..token..Plus$GT$$GT$17h600c2b78f78fd2b9E', symObjAddr: 0x71D0, symBinAddr: 0xDB680, symSize: 0xD0 }
  - { offsetInCU: 0x23E28, offset: 0x4708A0, size: 0x8, addend: 0x0, symName: '__ZN3syn4path8printing72_$LT$impl$u20$quote..to_tokens..ToTokens$u20$for$u20$syn..path..Path$GT$9to_tokens17hf860120c9afc213aE', symObjAddr: 0xA470, symBinAddr: 0xDE270, symSize: 0x50 }
  - { offsetInCU: 0x23F63, offset: 0x4709DB, size: 0x8, addend: 0x0, symName: '__ZN3syn4path8printing83_$LT$impl$u20$quote..to_tokens..ToTokens$u20$for$u20$syn..path..GenericArgument$GT$9to_tokens17h805a5129364dcb73E', symObjAddr: 0xA600, symBinAddr: 0xDE2C0, symSize: 0x1D0 }
  - { offsetInCU: 0x242F1, offset: 0x470D69, size: 0x8, addend: 0x0, symName: '__ZN3syn4path8printing98_$LT$impl$u20$quote..to_tokens..ToTokens$u20$for$u20$syn..path..AngleBracketedGenericArguments$GT$9to_tokens17h077559fcda79fba1E', symObjAddr: 0xA7D0, symBinAddr: 0xDE490, symSize: 0x200 }
  - { offsetInCU: 0x24A8F, offset: 0x471507, size: 0x8, addend: 0x0, symName: '__ZN64_$LT$syn..path..Path$u20$as$u20$core..convert..From$LT$T$GT$$GT$4from17hbd85b831f343d415E', symObjAddr: 0x76F0, symBinAddr: 0xDB750, symSize: 0xD0 }
  - { offsetInCU: 0x24B47, offset: 0x4715BF, size: 0x8, addend: 0x0, symName: '__ZN3syn4path7parsing63_$LT$impl$u20$syn..parse..Parse$u20$for$u20$syn..path..Path$GT$5parse17hce19bebd7e07c100E', symObjAddr: 0x7A90, symBinAddr: 0xDB930, symSize: 0x20 }
  - { offsetInCU: 0x24B7D, offset: 0x4715F5, size: 0x8, addend: 0x0, symName: '__ZN3syn4path7parsing74_$LT$impl$u20$syn..parse..Parse$u20$for$u20$syn..path..GenericArgument$GT$5parse17hde9d8ada4733ca72E', symObjAddr: 0x7AB0, symBinAddr: 0xDB950, symSize: 0x1160 }
  - { offsetInCU: 0x263CE, offset: 0x472E46, size: 0x8, addend: 0x0, symName: '__ZN3syn4path7parsing89_$LT$impl$u20$syn..parse..Parse$u20$for$u20$syn..path..AngleBracketedGenericArguments$GT$5parse17h96a4c20c6a6191c9E', symObjAddr: 0x8FE0, symBinAddr: 0xDCE00, symSize: 0xC0 }
  - { offsetInCU: 0x2659F, offset: 0x473017, size: 0x8, addend: 0x0, symName: '__ZN3syn4path7parsing88_$LT$impl$u20$syn..parse..Parse$u20$for$u20$syn..path..ParenthesizedGenericArguments$GT$5parse17haf45186e506dcd96E', symObjAddr: 0x90A0, symBinAddr: 0xDCEC0, symSize: 0x500 }
  - { offsetInCU: 0x2D651, offset: 0x47A0C9, size: 0x8, addend: 0x0, symName: __ZN3syn4path4Path8is_ident17h19105ddf9028eaf5E, symObjAddr: 0x77C0, symBinAddr: 0xDB820, symSize: 0x110 }
  - { offsetInCU: 0x2E516, offset: 0x47AF8E, size: 0x8, addend: 0x0, symName: '__ZN3syn4path7parsing59_$LT$impl$u20$syn..path..AngleBracketedGenericArguments$GT$8do_parse17h9dd6471b3506b23bE.llvm.661229634610467167', symObjAddr: 0x8C90, symBinAddr: 0xDCAB0, symSize: 0x350 }
  - { offsetInCU: 0x2EDF6, offset: 0x47B86E, size: 0x8, addend: 0x0, symName: '__ZN3syn4path7parsing40_$LT$impl$u20$syn..path..PathSegment$GT$12parse_helper17h29b96fcf996789ddE', symObjAddr: 0x95C0, symBinAddr: 0xDD3C0, symSize: 0x360 }
  - { offsetInCU: 0x2FA7F, offset: 0x47C4F7, size: 0x8, addend: 0x0, symName: '__ZN3syn4path7parsing33_$LT$impl$u20$syn..path..Path$GT$15parse_mod_style17h1aa28225ce8e8465E', symObjAddr: 0x9920, symBinAddr: 0xDD720, symSize: 0x420 }
  - { offsetInCU: 0x30428, offset: 0x47CEA0, size: 0x8, addend: 0x0, symName: '__ZN3syn4path7parsing33_$LT$impl$u20$syn..path..Path$GT$12parse_helper17h4163216e5c260008E', symObjAddr: 0x9D40, symBinAddr: 0xDDB40, symSize: 0x2F0 }
  - { offsetInCU: 0x307A1, offset: 0x47D219, size: 0x8, addend: 0x0, symName: '__ZN3syn4path7parsing33_$LT$impl$u20$syn..path..Path$GT$10parse_rest17h5197131c3c9a8d38E', symObjAddr: 0xA030, symBinAddr: 0xDDE30, symSize: 0x390 }
  - { offsetInCU: 0x30E74, offset: 0x47D8EC, size: 0x8, addend: 0x0, symName: '__ZN3syn4path7parsing33_$LT$impl$u20$syn..path..Path$GT$12is_mod_style17hb1baf805e22818f3E', symObjAddr: 0xA3C0, symBinAddr: 0xDE1C0, symSize: 0xB0 }
  - { offsetInCU: 0x1E, offset: 0x4829AA, size: 0x8, addend: 0x0, symName: '__ZN4core3ptr100drop_in_place$LT$core..option..Option$LT$alloc..boxed..Box$LT$syn..path..GenericArgument$GT$$GT$$GT$17h3a7c44b9e57fe410E', symObjAddr: 0x0, symBinAddr: 0xDE690, symSize: 0x50 }
  - { offsetInCU: 0x1861, offset: 0x4841ED, size: 0x8, addend: 0x0, symName: '__ZN4core3ptr100drop_in_place$LT$core..option..Option$LT$alloc..boxed..Box$LT$syn..path..GenericArgument$GT$$GT$$GT$17h3a7c44b9e57fe410E', symObjAddr: 0x0, symBinAddr: 0xDE690, symSize: 0x50 }
  - { offsetInCU: 0x1AE8, offset: 0x484474, size: 0x8, addend: 0x0, symName: '__ZN4core3ptr100drop_in_place$LT$syn..punctuated..Punctuated$LT$syn..path..PathSegment$C$syn..token..PathSep$GT$$GT$17he41ef64147139591E', symObjAddr: 0x50, symBinAddr: 0xDE6E0, symSize: 0x170 }
  - { offsetInCU: 0x2161, offset: 0x484AED, size: 0x8, addend: 0x0, symName: '__ZN4core3ptr103drop_in_place$LT$core..option..Option$LT$alloc..boxed..Box$LT$syn..generics..TypeParamBound$GT$$GT$$GT$17hb14e4384a768542bE', symObjAddr: 0x1C0, symBinAddr: 0xDE850, symSize: 0x50 }
  - { offsetInCU: 0x236C, offset: 0x484CF8, size: 0x8, addend: 0x0, symName: '__ZN4core3ptr103drop_in_place$LT$syn..punctuated..Punctuated$LT$syn..generics..GenericParam$C$syn..token..Comma$GT$$GT$17h0c6077a988036760E', symObjAddr: 0x210, symBinAddr: 0xDE8A0, symSize: 0xF0 }
  - { offsetInCU: 0x2886, offset: 0x485212, size: 0x8, addend: 0x0, symName: '__ZN4core3ptr104drop_in_place$LT$syn..punctuated..Punctuated$LT$syn..generics..TypeParamBound$C$syn..token..Plus$GT$$GT$17h724e4d9d1d65061aE', symObjAddr: 0x300, symBinAddr: 0xDE990, symSize: 0x260 }
  - { offsetInCU: 0x32D0, offset: 0x485C5C, size: 0x8, addend: 0x0, symName: '__ZN4core3ptr34drop_in_place$LT$syn..lit..Lit$GT$17hd64dde89a262341dE', symObjAddr: 0x560, symBinAddr: 0xDEBF0, symSize: 0x120 }
  - { offsetInCU: 0x37BE, offset: 0x48614A, size: 0x8, addend: 0x0, symName: '__ZN4core3ptr34drop_in_place$LT$syn..pat..Pat$GT$17hf88887878261d63cE', symObjAddr: 0x680, symBinAddr: 0xDED10, symSize: 0x1100 }
  - { offsetInCU: 0x7CE2, offset: 0x48A66E, size: 0x8, addend: 0x0, symName: '__ZN4core3ptr34drop_in_place$LT$syn..ty..Type$GT$17ha80dd29b0f9d4a3fE', symObjAddr: 0x1780, symBinAddr: 0xDFE10, symSize: 0x370 }
  - { offsetInCU: 0x8CA7, offset: 0x48B633, size: 0x8, addend: 0x0, symName: '__ZN4core3ptr36drop_in_place$LT$syn..expr..Expr$GT$17h10f573b40ddd212cE', symObjAddr: 0x1AF0, symBinAddr: 0xE0180, symSize: 0x2840 }
  - { offsetInCU: 0x12D85, offset: 0x495711, size: 0x8, addend: 0x0, symName: '__ZN4core3ptr36drop_in_place$LT$syn..mac..Macro$GT$17hc3b30a7a8a34cc2dE', symObjAddr: 0x4330, symBinAddr: 0xE29C0, symSize: 0x40 }
  - { offsetInCU: 0x12E3B, offset: 0x4957C7, size: 0x8, addend: 0x0, symName: '__ZN4core3ptr36drop_in_place$LT$syn..path..Path$GT$17h75c74a97d5f0a03bE', symObjAddr: 0x4370, symBinAddr: 0xE2A00, symSize: 0x280 }
  - { offsetInCU: 0x138E8, offset: 0x496274, size: 0x8, addend: 0x0, symName: '__ZN4core3ptr37drop_in_place$LT$syn..stmt..Block$GT$17h6fc3254d5688f2c3E', symObjAddr: 0x45F0, symBinAddr: 0xE2C80, symSize: 0xD0 }
  - { offsetInCU: 0x13BBF, offset: 0x49654B, size: 0x8, addend: 0x0, symName: '__ZN4core3ptr38drop_in_place$LT$syn..expr..Member$GT$17h6b0cf84594ce6bceE', symObjAddr: 0x46C0, symBinAddr: 0xE2D50, symSize: 0x30 }
  - { offsetInCU: 0x13CBB, offset: 0x496647, size: 0x8, addend: 0x0, symName: '__ZN4core3ptr38drop_in_place$LT$syn..ty..TypePath$GT$17h6f484b80634b66aeE', symObjAddr: 0x46F0, symBinAddr: 0xE2D80, symSize: 0x70 }
  - { offsetInCU: 0x13E38, offset: 0x4967C4, size: 0x8, addend: 0x0, symName: '__ZN4core3ptr39drop_in_place$LT$proc_macro2..Ident$GT$17ha28fef9769e267d9E', symObjAddr: 0x4760, symBinAddr: 0xE2DF0, symSize: 0x30 }
  - { offsetInCU: 0x13F53, offset: 0x4968DF, size: 0x8, addend: 0x0, symName: '__ZN4core3ptr39drop_in_place$LT$syn..ty..BareFnArg$GT$17h06523caf0a2ebe3aE', symObjAddr: 0x4790, symBinAddr: 0xE2E20, symSize: 0x110 }
  - { offsetInCU: 0x14376, offset: 0x496D02, size: 0x8, addend: 0x0, symName: '__ZN4core3ptr40drop_in_place$LT$syn..ty..ReturnType$GT$17h035a612e322b6510E', symObjAddr: 0x48A0, symBinAddr: 0xE2F30, symSize: 0x50 }
  - { offsetInCU: 0x1463B, offset: 0x496FC7, size: 0x8, addend: 0x0, symName: '__ZN4core3ptr40drop_in_place$LT$syn..ty..TypeBareFn$GT$17h5f3260f854352573E', symObjAddr: 0x48F0, symBinAddr: 0xE2F80, symSize: 0x240 }
  - { offsetInCU: 0x14FBB, offset: 0x497947, size: 0x8, addend: 0x0, symName: '__ZN4core3ptr41drop_in_place$LT$syn..expr..ExprConst$GT$17hbfe19d5d621e6836E', symObjAddr: 0x4B30, symBinAddr: 0xE31C0, symSize: 0x180 }
  - { offsetInCU: 0x155A8, offset: 0x497F34, size: 0x8, addend: 0x0, symName: '__ZN4core3ptr44drop_in_place$LT$syn..lifetime..Lifetime$GT$17he37fa474f03de7b1E', symObjAddr: 0x4CB0, symBinAddr: 0xE3340, symSize: 0x30 }
  - { offsetInCU: 0x15720, offset: 0x4980AC, size: 0x8, addend: 0x0, symName: '__ZN4core3ptr44drop_in_place$LT$syn..parse..ParseBuffer$GT$17hf792ff20095efc35E', symObjAddr: 0x4CE0, symBinAddr: 0xE3370, symSize: 0x70 }
  - { offsetInCU: 0x15B37, offset: 0x4984C3, size: 0x8, addend: 0x0, symName: '__ZN4core3ptr45drop_in_place$LT$proc_macro2..TokenStream$GT$17h76e8e68015f4924dE', symObjAddr: 0x4D50, symBinAddr: 0xE33E0, symSize: 0x140 }
  - { offsetInCU: 0x15FD1, offset: 0x49895D, size: 0x8, addend: 0x0, symName: '__ZN4core3ptr45drop_in_place$LT$syn..generics..TypeParam$GT$17h188a459c1380ac75E', symObjAddr: 0x4E90, symBinAddr: 0xE3520, symSize: 0x230 }
  - { offsetInCU: 0x16846, offset: 0x4991D2, size: 0x8, addend: 0x0, symName: '__ZN4core3ptr45drop_in_place$LT$syn..path..PathArguments$GT$17hdbc6dfac6f3334e6E', symObjAddr: 0x50C0, symBinAddr: 0xE3750, symSize: 0x190 }
  - { offsetInCU: 0x16D16, offset: 0x4996A2, size: 0x8, addend: 0x0, symName: '__ZN4core3ptr46drop_in_place$LT$syn..generics..ConstParam$GT$17h7a9b900b2b88bfcdE', symObjAddr: 0x5250, symBinAddr: 0xE38E0, symSize: 0x150 }
  - { offsetInCU: 0x17197, offset: 0x499B23, size: 0x8, addend: 0x0, symName: '__ZN4core3ptr47drop_in_place$LT$syn..path..GenericArgument$GT$17h593f06d6ca9a94d2E', symObjAddr: 0x53A0, symBinAddr: 0xE3A30, symSize: 0x4A0 }
  - { offsetInCU: 0x1829D, offset: 0x49AC29, size: 0x8, addend: 0x0, symName: '__ZN4core3ptr49drop_in_place$LT$syn..generics..LifetimeParam$GT$17h3a8835ab294bfd16E', symObjAddr: 0x5840, symBinAddr: 0xE3ED0, symSize: 0xF0 }
  - { offsetInCU: 0x186B4, offset: 0x49B040, size: 0x8, addend: 0x0, symName: '__ZN4core3ptr50drop_in_place$LT$syn..generics..TypeParamBound$GT$17h81b4325b5900604dE', symObjAddr: 0x5930, symBinAddr: 0xE3FC0, symSize: 0xA0 }
  - { offsetInCU: 0x1881A, offset: 0x49B1A6, size: 0x8, addend: 0x0, symName: '__ZN4core3ptr58drop_in_place$LT$alloc..vec..Vec$LT$syn..expr..Arm$GT$$GT$17hff9224aadf2233b8E', symObjAddr: 0x59D0, symBinAddr: 0xE4060, symSize: 0xD0 }
  - { offsetInCU: 0x18ADA, offset: 0x49B466, size: 0x8, addend: 0x0, symName: '__ZN4core3ptr59drop_in_place$LT$alloc..boxed..Box$LT$syn..pat..Pat$GT$$GT$17h622b0c1db21c0742E', symObjAddr: 0x5AA0, symBinAddr: 0xE4130, symSize: 0x50 }
  - { offsetInCU: 0x18C33, offset: 0x49B5BF, size: 0x8, addend: 0x0, symName: '__ZN4core3ptr59drop_in_place$LT$alloc..boxed..Box$LT$syn..ty..Type$GT$$GT$17hde45fa887dd8b605E', symObjAddr: 0x5AF0, symBinAddr: 0xE4180, symSize: 0x50 }
  - { offsetInCU: 0x18D8C, offset: 0x49B718, size: 0x8, addend: 0x0, symName: '__ZN4core3ptr61drop_in_place$LT$alloc..boxed..Box$LT$syn..expr..Expr$GT$$GT$17hbb42293869113942E', symObjAddr: 0x5B40, symBinAddr: 0xE41D0, symSize: 0x50 }
  - { offsetInCU: 0x18F61, offset: 0x49B8ED, size: 0x8, addend: 0x0, symName: '__ZN4core3ptr61drop_in_place$LT$syn..path..ParenthesizedGenericArguments$GT$17h6b1731382637937fE', symObjAddr: 0x5B90, symBinAddr: 0xE4220, symSize: 0x170 }
  - { offsetInCU: 0x19557, offset: 0x49BEE3, size: 0x8, addend: 0x0, symName: '__ZN4core3ptr62drop_in_place$LT$syn..path..AngleBracketedGenericArguments$GT$17hf8fa172f007a1473E', symObjAddr: 0x5D00, symBinAddr: 0xE4390, symSize: 0x120 }
  - { offsetInCU: 0x199A2, offset: 0x49C32E, size: 0x8, addend: 0x0, symName: '__ZN4core3ptr63drop_in_place$LT$alloc..boxed..Box$LT$syn..lit..LitRepr$GT$$GT$17h6e3a82ea4de7b84cE', symObjAddr: 0x5E20, symBinAddr: 0xE44B0, symSize: 0x60 }
  - { offsetInCU: 0x19CA9, offset: 0x49C635, size: 0x8, addend: 0x0, symName: '__ZN4core3ptr64drop_in_place$LT$alloc..boxed..Box$LT$syn..pat..FieldPat$GT$$GT$17hbf8f4867d84bd25dE', symObjAddr: 0x5E80, symBinAddr: 0xE4510, symSize: 0x140 }
  - { offsetInCU: 0x1A36C, offset: 0x49CCF8, size: 0x8, addend: 0x0, symName: '__ZN4core3ptr64drop_in_place$LT$alloc..boxed..Box$LT$syn..ty..BareFnArg$GT$$GT$17h6be6354eb1d1364dE', symObjAddr: 0x5FC0, symBinAddr: 0xE4650, symSize: 0x140 }
  - { offsetInCU: 0x1A8E2, offset: 0x49D26E, size: 0x8, addend: 0x0, symName: '__ZN4core3ptr64drop_in_place$LT$alloc..vec..Vec$LT$syn..attr..Attribute$GT$$GT$17he33e25539d5885aeE', symObjAddr: 0x6100, symBinAddr: 0xE4790, symSize: 0xD0 }
  - { offsetInCU: 0x1ABD6, offset: 0x49D562, size: 0x8, addend: 0x0, symName: '__ZN4core3ptr65drop_in_place$LT$alloc..vec..Vec$LT$proc_macro..TokenTree$GT$$GT$17h8abd81f8596dbc59E', symObjAddr: 0x61D0, symBinAddr: 0xE4860, symSize: 0x110 }
  - { offsetInCU: 0x1AFCE, offset: 0x49D95A, size: 0x8, addend: 0x0, symName: '__ZN4core3ptr65drop_in_place$LT$core..option..Option$LT$syn..expr..Label$GT$$GT$17hac599686b33ef364E', symObjAddr: 0x62E0, symBinAddr: 0xE4970, symSize: 0x30 }
  - { offsetInCU: 0x1B108, offset: 0x49DA94, size: 0x8, addend: 0x0, symName: '__ZN4core3ptr65drop_in_place$LT$core..option..Option$LT$syn..path..QSelf$GT$$GT$17h0b8dd5cda5f2cd6bE', symObjAddr: 0x6310, symBinAddr: 0xE49A0, symSize: 0x50 }
  - { offsetInCU: 0x1B289, offset: 0x49DC15, size: 0x8, addend: 0x0, symName: '__ZN4core3ptr66drop_in_place$LT$core..option..Option$LT$syn..pat..PatRest$GT$$GT$17hd5bb3bc28aa78ac1E', symObjAddr: 0x6360, symBinAddr: 0xE49F0, symSize: 0xE0 }
  - { offsetInCU: 0x1B5B1, offset: 0x49DF3D, size: 0x8, addend: 0x0, symName: '__ZN4core3ptr67drop_in_place$LT$alloc..boxed..Box$LT$syn..expr..FieldValue$GT$$GT$17hbbcf67a9d5e9863cE', symObjAddr: 0x6440, symBinAddr: 0xE4AD0, symSize: 0x140 }
  - { offsetInCU: 0x1BB1A, offset: 0x49E4A6, size: 0x8, addend: 0x0, symName: '__ZN4core3ptr68drop_in_place$LT$alloc..boxed..Box$LT$syn..path..PathSegment$GT$$GT$17h99aaf90b3262bc1eE', symObjAddr: 0x6580, symBinAddr: 0xE4C10, symSize: 0x1B0 }
  - { offsetInCU: 0x1C228, offset: 0x49EBB4, size: 0x8, addend: 0x0, symName: '__ZN4core3ptr70drop_in_place$LT$core..option..Option$LT$syn..ty..BareVariadic$GT$$GT$17h79a19250e9f043b1E', symObjAddr: 0x6730, symBinAddr: 0xE4DC0, symSize: 0x100 }
  - { offsetInCU: 0x1C693, offset: 0x49F01F, size: 0x8, addend: 0x0, symName: '__ZN4core3ptr72drop_in_place$LT$alloc..boxed..Box$LT$syn..path..GenericArgument$GT$$GT$17hfd308d374af4273dE', symObjAddr: 0x6830, symBinAddr: 0xE4EC0, symSize: 0x2B0 }
  - { offsetInCU: 0x1D04B, offset: 0x49F9D7, size: 0x8, addend: 0x0, symName: '__ZN4core3ptr72drop_in_place$LT$core..option..Option$LT$syn..lifetime..Lifetime$GT$$GT$17h49cce6f02f9c0590E', symObjAddr: 0x6AE0, symBinAddr: 0xE5170, symSize: 0x30 }
  - { offsetInCU: 0x1D166, offset: 0x49FAF2, size: 0x8, addend: 0x0, symName: '__ZN4core3ptr73drop_in_place$LT$alloc..boxed..Box$LT$syn..generics..GenericParam$GT$$GT$17ha26d5d145af4b203E', symObjAddr: 0x6B10, symBinAddr: 0xE51A0, symSize: 0x80 }
  - { offsetInCU: 0x1D2DC, offset: 0x49FC68, size: 0x8, addend: 0x0, symName: '__ZN4core3ptr75drop_in_place$LT$alloc..boxed..Box$LT$syn..generics..TypeParamBound$GT$$GT$17h129a4e927e5eb81bE', symObjAddr: 0x6B90, symBinAddr: 0xE5220, symSize: 0x1B0 }
  - { offsetInCU: 0x1D9DB, offset: 0x4A0367, size: 0x8, addend: 0x0, symName: '__ZN4core3ptr86drop_in_place$LT$syn..punctuated..Punctuated$LT$syn..pat..Pat$C$syn..token..Or$GT$$GT$17h9cc6b5f7b6d3a555E', symObjAddr: 0x6D40, symBinAddr: 0xE53D0, symSize: 0x120 }
  - { offsetInCU: 0x1DE56, offset: 0x4A07E2, size: 0x8, addend: 0x0, symName: '__ZN4core3ptr87drop_in_place$LT$core..option..Option$LT$alloc..boxed..Box$LT$syn..pat..Pat$GT$$GT$$GT$17h51cd48973d96c411E', symObjAddr: 0x6E60, symBinAddr: 0xE54F0, symSize: 0x50 }
  - { offsetInCU: 0x1DFC6, offset: 0x4A0952, size: 0x8, addend: 0x0, symName: '__ZN4core3ptr87drop_in_place$LT$core..option..Option$LT$alloc..boxed..Box$LT$syn..ty..Type$GT$$GT$$GT$17h103a25a4a7d7374eE', symObjAddr: 0x6EB0, symBinAddr: 0xE5540, symSize: 0x50 }
  - { offsetInCU: 0x1E136, offset: 0x4A0AC2, size: 0x8, addend: 0x0, symName: '__ZN4core3ptr89drop_in_place$LT$core..option..Option$LT$alloc..boxed..Box$LT$syn..expr..Expr$GT$$GT$$GT$17h9e02509cb2345d44E', symObjAddr: 0x6F00, symBinAddr: 0xE5590, symSize: 0x50 }
  - { offsetInCU: 0x1E2E4, offset: 0x4A0C70, size: 0x8, addend: 0x0, symName: '__ZN4core3ptr89drop_in_place$LT$syn..punctuated..Punctuated$LT$syn..pat..Pat$C$syn..token..Comma$GT$$GT$17hd3a83c36827f210aE', symObjAddr: 0x6F50, symBinAddr: 0xE55E0, symSize: 0x120 }
  - { offsetInCU: 0x1E776, offset: 0x4A1102, size: 0x8, addend: 0x0, symName: '__ZN4core3ptr89drop_in_place$LT$syn..punctuated..Punctuated$LT$syn..ty..Type$C$syn..token..Comma$GT$$GT$17he030c4b7f24a5848E', symObjAddr: 0x7070, symBinAddr: 0xE5700, symSize: 0x120 }
  - { offsetInCU: 0x1EBF1, offset: 0x4A157D, size: 0x8, addend: 0x0, symName: '__ZN4core3ptr90drop_in_place$LT$core..option..Option$LT$syn..path..AngleBracketedGenericArguments$GT$$GT$17ha307713a95a0671eE', symObjAddr: 0x7190, symBinAddr: 0xE5820, symSize: 0x130 }
  - { offsetInCU: 0x1F093, offset: 0x4A1A1F, size: 0x8, addend: 0x0, symName: '__ZN4core3ptr91drop_in_place$LT$syn..punctuated..Punctuated$LT$syn..expr..Expr$C$syn..token..Comma$GT$$GT$17h6f261e8f470c81f2E', symObjAddr: 0x72C0, symBinAddr: 0xE5950, symSize: 0x120 }
  - { offsetInCU: 0x1F521, offset: 0x4A1EAD, size: 0x8, addend: 0x0, symName: '__ZN4core3ptr92drop_in_place$LT$core..option..Option$LT$alloc..boxed..Box$LT$syn..ty..BareFnArg$GT$$GT$$GT$17h4cd94c9c19d1a032E', symObjAddr: 0x73E0, symBinAddr: 0xE5A70, symSize: 0x50 }
  - { offsetInCU: 0x1F691, offset: 0x4A201D, size: 0x8, addend: 0x0, symName: '__ZN4core3ptr94drop_in_place$LT$syn..punctuated..Punctuated$LT$syn..pat..FieldPat$C$syn..token..Comma$GT$$GT$17h43ec25af986ef674E', symObjAddr: 0x7430, symBinAddr: 0xE5AC0, symSize: 0xF0 }
  - { offsetInCU: 0x1F990, offset: 0x4A231C, size: 0x8, addend: 0x0, symName: '__ZN4core3ptr94drop_in_place$LT$syn..punctuated..Punctuated$LT$syn..ty..BareFnArg$C$syn..token..Comma$GT$$GT$17h7ba4c699ee390ebaE', symObjAddr: 0x7520, symBinAddr: 0xE5BB0, symSize: 0xF0 }
  - { offsetInCU: 0x1FC91, offset: 0x4A261D, size: 0x8, addend: 0x0, symName: '__ZN4core3ptr96drop_in_place$LT$core..option..Option$LT$alloc..boxed..Box$LT$syn..path..PathSegment$GT$$GT$$GT$17h5de12a5a0f9e9ef9E', symObjAddr: 0x7610, symBinAddr: 0xE5CA0, symSize: 0xA0 }
  - { offsetInCU: 0x1FF10, offset: 0x4A289C, size: 0x8, addend: 0x0, symName: '__ZN4core3ptr97drop_in_place$LT$syn..punctuated..Punctuated$LT$syn..expr..FieldValue$C$syn..token..Comma$GT$$GT$17hf58d0a9a09266ab3E', symObjAddr: 0x76B0, symBinAddr: 0xE5D40, symSize: 0xF0 }
  - { offsetInCU: 0x2020D, offset: 0x4A2B99, size: 0x8, addend: 0x0, symName: '__ZN4core3ptr98drop_in_place$LT$alloc..vec..Vec$LT$$LP$syn..path..GenericArgument$C$syn..token..Comma$RP$$GT$$GT$17h0dee282a026d5a38E', symObjAddr: 0x77A0, symBinAddr: 0xE5E30, symSize: 0xD0 }
  - { offsetInCU: 0x2054D, offset: 0x4A2ED9, size: 0x8, addend: 0x0, symName: '__ZN4core3ptr98drop_in_place$LT$syn..punctuated..Punctuated$LT$syn..lifetime..Lifetime$C$syn..token..Plus$GT$$GT$17h600c2b78f78fd2b9E', symObjAddr: 0x7870, symBinAddr: 0xE5F00, symSize: 0xD0 }
  - { offsetInCU: 0x256A5, offset: 0x4A8031, size: 0x8, addend: 0x0, symName: __ZN3syn2ty7parsing8ambig_ty17hc9e14757ece56b97E, symObjAddr: 0x7980, symBinAddr: 0xE6010, symSize: 0x3F30 }
  - { offsetInCU: 0x2F5DF, offset: 0x4B1F6B, size: 0x8, addend: 0x0, symName: __ZN3syn2ty7parsing17parse_bare_fn_arg17hca0453b7e81f84abE, symObjAddr: 0xB8B0, symBinAddr: 0xE9F40, symSize: 0xCA0 }
  - { offsetInCU: 0x31864, offset: 0x4B41F0, size: 0x8, addend: 0x0, symName: __ZN3syn2ty7parsing19parse_bare_variadic17h39c18671415c91ecE, symObjAddr: 0xC550, symBinAddr: 0xEABE0, symSize: 0x5E1 }
  - { offsetInCU: 0x370AD, offset: 0x4B9A39, size: 0x8, addend: 0x0, symName: __ZN5alloc5alloc15exchange_malloc17h9a87608d0224859dE, symObjAddr: 0x7940, symBinAddr: 0xE5FD0, symSize: 0x40 }
  - { offsetInCU: 0x1E, offset: 0x4C469E, size: 0x8, addend: 0x0, symName: __ZN4core3ops8function6FnOnce9call_once17h9b6e03ddcec114ceE, symObjAddr: 0x0, symBinAddr: 0xEB1D0, symSize: 0x140 }
  - { offsetInCU: 0x18FF, offset: 0x4C5F7F, size: 0x8, addend: 0x0, symName: '__ZN4core3ptr100drop_in_place$LT$core..option..Option$LT$alloc..boxed..Box$LT$syn..path..GenericArgument$GT$$GT$$GT$17h3a7c44b9e57fe410E', symObjAddr: 0x140, symBinAddr: 0xEB310, symSize: 0x50 }
  - { offsetInCU: 0x1C9D, offset: 0x4C631D, size: 0x8, addend: 0x0, symName: '__ZN4core3ptr100drop_in_place$LT$syn..punctuated..Punctuated$LT$syn..path..PathSegment$C$syn..token..PathSep$GT$$GT$17he41ef64147139591E', symObjAddr: 0x190, symBinAddr: 0xEB360, symSize: 0x2B0 }
  - { offsetInCU: 0x2734, offset: 0x4C6DB4, size: 0x8, addend: 0x0, symName: '__ZN4core3ptr102drop_in_place$LT$syn..punctuated..Punctuated$LT$syn..path..GenericArgument$C$syn..token..Comma$GT$$GT$17h8b1978399cfff48bE', symObjAddr: 0x440, symBinAddr: 0xEB610, symSize: 0xF0 }
  - { offsetInCU: 0x2A54, offset: 0x4C70D4, size: 0x8, addend: 0x0, symName: '__ZN4core3ptr103drop_in_place$LT$core..option..Option$LT$alloc..boxed..Box$LT$syn..generics..TypeParamBound$GT$$GT$$GT$17hb14e4384a768542bE', symObjAddr: 0x530, symBinAddr: 0xEB700, symSize: 0x50 }
  - { offsetInCU: 0x2C5F, offset: 0x4C72DF, size: 0x8, addend: 0x0, symName: '__ZN4core3ptr103drop_in_place$LT$syn..punctuated..Punctuated$LT$syn..generics..GenericParam$C$syn..token..Comma$GT$$GT$17h0c6077a988036760E', symObjAddr: 0x580, symBinAddr: 0xEB750, symSize: 0xF0 }
  - { offsetInCU: 0x3179, offset: 0x4C77F9, size: 0x8, addend: 0x0, symName: '__ZN4core3ptr104drop_in_place$LT$syn..punctuated..Punctuated$LT$syn..generics..TypeParamBound$C$syn..token..Plus$GT$$GT$17h724e4d9d1d65061aE', symObjAddr: 0x670, symBinAddr: 0xEB840, symSize: 0x260 }
  - { offsetInCU: 0x3BC3, offset: 0x4C8243, size: 0x8, addend: 0x0, symName: '__ZN4core3ptr34drop_in_place$LT$syn..lit..Lit$GT$17hd64dde89a262341dE', symObjAddr: 0x8D0, symBinAddr: 0xEBAA0, symSize: 0x120 }
  - { offsetInCU: 0x4092, offset: 0x4C8712, size: 0x8, addend: 0x0, symName: '__ZN4core3ptr34drop_in_place$LT$syn..pat..Pat$GT$17hf88887878261d63cE.llvm.7756622533301018396', symObjAddr: 0x9F0, symBinAddr: 0xEBBC0, symSize: 0x1100 }
  - { offsetInCU: 0x870B, offset: 0x4CCD8B, size: 0x8, addend: 0x0, symName: '__ZN4core3ptr34drop_in_place$LT$syn..ty..Type$GT$17ha80dd29b0f9d4a3fE', symObjAddr: 0x1AF0, symBinAddr: 0xECCC0, symSize: 0x460 }
  - { offsetInCU: 0x9905, offset: 0x4CDF85, size: 0x8, addend: 0x0, symName: '__ZN4core3ptr36drop_in_place$LT$syn..expr..Expr$GT$17h10f573b40ddd212cE', symObjAddr: 0x1F50, symBinAddr: 0xED120, symSize: 0x2680 }
  - { offsetInCU: 0x1320D, offset: 0x4D788D, size: 0x8, addend: 0x0, symName: '__ZN4core3ptr36drop_in_place$LT$syn..mac..Macro$GT$17hc3b30a7a8a34cc2dE', symObjAddr: 0x45D0, symBinAddr: 0xEF7A0, symSize: 0x40 }
  - { offsetInCU: 0x13247, offset: 0x4D78C7, size: 0x8, addend: 0x0, symName: '__ZN4core3ptr36drop_in_place$LT$syn..path..Path$GT$17h75c74a97d5f0a03bE', symObjAddr: 0x4610, symBinAddr: 0xEF7E0, symSize: 0x280 }
  - { offsetInCU: 0x13CF4, offset: 0x4D8374, size: 0x8, addend: 0x0, symName: '__ZN4core3ptr37drop_in_place$LT$syn..stmt..Block$GT$17h6fc3254d5688f2c3E', symObjAddr: 0x4890, symBinAddr: 0xEFA60, symSize: 0xD0 }
  - { offsetInCU: 0x13FCB, offset: 0x4D864B, size: 0x8, addend: 0x0, symName: '__ZN4core3ptr38drop_in_place$LT$syn..expr..Member$GT$17h6b0cf84594ce6bceE', symObjAddr: 0x4960, symBinAddr: 0xEFB30, symSize: 0x30 }
  - { offsetInCU: 0x140C7, offset: 0x4D8747, size: 0x8, addend: 0x0, symName: '__ZN4core3ptr39drop_in_place$LT$proc_macro2..Ident$GT$17ha28fef9769e267d9E', symObjAddr: 0x4990, symBinAddr: 0xEFB60, symSize: 0x30 }
  - { offsetInCU: 0x141A4, offset: 0x4D8824, size: 0x8, addend: 0x0, symName: '__ZN4core3ptr40drop_in_place$LT$syn..ty..ReturnType$GT$17h035a612e322b6510E', symObjAddr: 0x49C0, symBinAddr: 0xEFB90, symSize: 0x50 }
  - { offsetInCU: 0x14314, offset: 0x4D8994, size: 0x8, addend: 0x0, symName: '__ZN4core3ptr41drop_in_place$LT$syn..expr..ExprConst$GT$17hbfe19d5d621e6836E', symObjAddr: 0x4A10, symBinAddr: 0xEFBE0, symSize: 0x180 }
  - { offsetInCU: 0x14901, offset: 0x4D8F81, size: 0x8, addend: 0x0, symName: '__ZN4core3ptr41drop_in_place$LT$syn..expr..ExprRange$GT$17h5f34acbd70b64c7fE', symObjAddr: 0x4B90, symBinAddr: 0xEFD60, symSize: 0x160 }
  - { offsetInCU: 0x14EC9, offset: 0x4D9549, size: 0x8, addend: 0x0, symName: '__ZN4core3ptr44drop_in_place$LT$syn..lifetime..Lifetime$GT$17he37fa474f03de7b1E', symObjAddr: 0x4CF0, symBinAddr: 0xEFEC0, symSize: 0x30 }
  - { offsetInCU: 0x15041, offset: 0x4D96C1, size: 0x8, addend: 0x0, symName: '__ZN4core3ptr44drop_in_place$LT$syn..parse..ParseBuffer$GT$17hf792ff20095efc35E.llvm.7756622533301018396', symObjAddr: 0x4D20, symBinAddr: 0xEFEF0, symSize: 0x70 }
  - { offsetInCU: 0x15458, offset: 0x4D9AD8, size: 0x8, addend: 0x0, symName: '__ZN4core3ptr45drop_in_place$LT$proc_macro2..TokenStream$GT$17h76e8e68015f4924dE', symObjAddr: 0x4D90, symBinAddr: 0xEFF60, symSize: 0x140 }
  - { offsetInCU: 0x158F2, offset: 0x4D9F72, size: 0x8, addend: 0x0, symName: '__ZN4core3ptr45drop_in_place$LT$syn..generics..TypeParam$GT$17h188a459c1380ac75E', symObjAddr: 0x4ED0, symBinAddr: 0xF00A0, symSize: 0x230 }
  - { offsetInCU: 0x16167, offset: 0x4DA7E7, size: 0x8, addend: 0x0, symName: '__ZN4core3ptr46drop_in_place$LT$syn..generics..ConstParam$GT$17h7a9b900b2b88bfcdE', symObjAddr: 0x5100, symBinAddr: 0xF02D0, symSize: 0x150 }
  - { offsetInCU: 0x165E8, offset: 0x4DAC68, size: 0x8, addend: 0x0, symName: '__ZN4core3ptr47drop_in_place$LT$syn..path..GenericArgument$GT$17h593f06d6ca9a94d2E', symObjAddr: 0x5250, symBinAddr: 0xF0420, symSize: 0x450 }
  - { offsetInCU: 0x1735E, offset: 0x4DB9DE, size: 0x8, addend: 0x0, symName: '__ZN4core3ptr49drop_in_place$LT$syn..generics..LifetimeParam$GT$17h3a8835ab294bfd16E', symObjAddr: 0x56A0, symBinAddr: 0xF0870, symSize: 0xF0 }
  - { offsetInCU: 0x17775, offset: 0x4DBDF5, size: 0x8, addend: 0x0, symName: '__ZN4core3ptr50drop_in_place$LT$syn..generics..TypeParamBound$GT$17h81b4325b5900604dE', symObjAddr: 0x5790, symBinAddr: 0xF0960, symSize: 0xA0 }
  - { offsetInCU: 0x178DB, offset: 0x4DBF5B, size: 0x8, addend: 0x0, symName: '__ZN4core3ptr53drop_in_place$LT$syn..pat..parsing..PatRangeBound$GT$17h893942965b8bddb3E', symObjAddr: 0x5830, symBinAddr: 0xF0A00, symSize: 0x230 }
  - { offsetInCU: 0x18071, offset: 0x4DC6F1, size: 0x8, addend: 0x0, symName: '__ZN4core3ptr58drop_in_place$LT$alloc..vec..Vec$LT$syn..expr..Arm$GT$$GT$17hff9224aadf2233b8E', symObjAddr: 0x5A60, symBinAddr: 0xF0C30, symSize: 0xD0 }
  - { offsetInCU: 0x18331, offset: 0x4DC9B1, size: 0x8, addend: 0x0, symName: '__ZN4core3ptr59drop_in_place$LT$alloc..boxed..Box$LT$syn..pat..Pat$GT$$GT$17h622b0c1db21c0742E', symObjAddr: 0x5B30, symBinAddr: 0xF0D00, symSize: 0x50 }
  - { offsetInCU: 0x1848A, offset: 0x4DCB0A, size: 0x8, addend: 0x0, symName: '__ZN4core3ptr59drop_in_place$LT$alloc..boxed..Box$LT$syn..ty..Type$GT$$GT$17hde45fa887dd8b605E', symObjAddr: 0x5B80, symBinAddr: 0xF0D50, symSize: 0x50 }
  - { offsetInCU: 0x185E3, offset: 0x4DCC63, size: 0x8, addend: 0x0, symName: '__ZN4core3ptr61drop_in_place$LT$alloc..boxed..Box$LT$syn..expr..Expr$GT$$GT$17hbb42293869113942E', symObjAddr: 0x5BD0, symBinAddr: 0xF0DA0, symSize: 0x50 }
  - { offsetInCU: 0x187B8, offset: 0x4DCE38, size: 0x8, addend: 0x0, symName: '__ZN4core3ptr61drop_in_place$LT$syn..path..ParenthesizedGenericArguments$GT$17h6b1731382637937fE', symObjAddr: 0x5C20, symBinAddr: 0xF0DF0, symSize: 0x170 }
  - { offsetInCU: 0x18DAE, offset: 0x4DD42E, size: 0x8, addend: 0x0, symName: '__ZN4core3ptr63drop_in_place$LT$alloc..boxed..Box$LT$syn..lit..LitRepr$GT$$GT$17h6e3a82ea4de7b84cE', symObjAddr: 0x5D90, symBinAddr: 0xF0F60, symSize: 0x60 }
  - { offsetInCU: 0x190B5, offset: 0x4DD735, size: 0x8, addend: 0x0, symName: '__ZN4core3ptr64drop_in_place$LT$alloc..boxed..Box$LT$syn..pat..FieldPat$GT$$GT$17hbf8f4867d84bd25dE', symObjAddr: 0x5DF0, symBinAddr: 0xF0FC0, symSize: 0x140 }
  - { offsetInCU: 0x197B6, offset: 0x4DDE36, size: 0x8, addend: 0x0, symName: '__ZN4core3ptr64drop_in_place$LT$alloc..boxed..Box$LT$syn..ty..BareFnArg$GT$$GT$17h6be6354eb1d1364dE', symObjAddr: 0x5F30, symBinAddr: 0xF1100, symSize: 0x140 }
  - { offsetInCU: 0x19D3F, offset: 0x4DE3BF, size: 0x8, addend: 0x0, symName: '__ZN4core3ptr64drop_in_place$LT$alloc..vec..Vec$LT$syn..attr..Attribute$GT$$GT$17he33e25539d5885aeE.llvm.7756622533301018396', symObjAddr: 0x6070, symBinAddr: 0xF1240, symSize: 0xD0 }
  - { offsetInCU: 0x1A033, offset: 0x4DE6B3, size: 0x8, addend: 0x0, symName: '__ZN4core3ptr65drop_in_place$LT$alloc..vec..Vec$LT$proc_macro..TokenTree$GT$$GT$17h8abd81f8596dbc59E', symObjAddr: 0x6140, symBinAddr: 0xF1310, symSize: 0x110 }
  - { offsetInCU: 0x1A42B, offset: 0x4DEAAB, size: 0x8, addend: 0x0, symName: '__ZN4core3ptr65drop_in_place$LT$core..option..Option$LT$syn..expr..Label$GT$$GT$17hac599686b33ef364E', symObjAddr: 0x6250, symBinAddr: 0xF1420, symSize: 0x30 }
  - { offsetInCU: 0x1A565, offset: 0x4DEBE5, size: 0x8, addend: 0x0, symName: '__ZN4core3ptr65drop_in_place$LT$core..option..Option$LT$syn..path..QSelf$GT$$GT$17h0b8dd5cda5f2cd6bE', symObjAddr: 0x6280, symBinAddr: 0xF1450, symSize: 0x50 }
  - { offsetInCU: 0x1A6E6, offset: 0x4DED66, size: 0x8, addend: 0x0, symName: '__ZN4core3ptr66drop_in_place$LT$core..option..Option$LT$syn..pat..PatRest$GT$$GT$17hd5bb3bc28aa78ac1E', symObjAddr: 0x62D0, symBinAddr: 0xF14A0, symSize: 0xE0 }
  - { offsetInCU: 0x1AA0E, offset: 0x4DF08E, size: 0x8, addend: 0x0, symName: '__ZN4core3ptr67drop_in_place$LT$alloc..boxed..Box$LT$syn..expr..FieldValue$GT$$GT$17hbbcf67a9d5e9863cE', symObjAddr: 0x63B0, symBinAddr: 0xF1580, symSize: 0x140 }
  - { offsetInCU: 0x1AF77, offset: 0x4DF5F7, size: 0x8, addend: 0x0, symName: '__ZN4core3ptr68drop_in_place$LT$alloc..boxed..Box$LT$syn..path..PathSegment$GT$$GT$17h99aaf90b3262bc1eE', symObjAddr: 0x64F0, symBinAddr: 0xF16C0, symSize: 0x1B0 }
  - { offsetInCU: 0x1B685, offset: 0x4DFD05, size: 0x8, addend: 0x0, symName: '__ZN4core3ptr70drop_in_place$LT$core..option..Option$LT$syn..ty..BareVariadic$GT$$GT$17h79a19250e9f043b1E', symObjAddr: 0x66A0, symBinAddr: 0xF1870, symSize: 0x100 }
  - { offsetInCU: 0x1BAF0, offset: 0x4E0170, size: 0x8, addend: 0x0, symName: '__ZN4core3ptr72drop_in_place$LT$alloc..boxed..Box$LT$syn..path..GenericArgument$GT$$GT$17hfd308d374af4273dE', symObjAddr: 0x67A0, symBinAddr: 0xF1970, symSize: 0x2B0 }
  - { offsetInCU: 0x1C501, offset: 0x4E0B81, size: 0x8, addend: 0x0, symName: '__ZN4core3ptr72drop_in_place$LT$core..option..Option$LT$syn..lifetime..Lifetime$GT$$GT$17h49cce6f02f9c0590E', symObjAddr: 0x6A50, symBinAddr: 0xF1C20, symSize: 0x30 }
  - { offsetInCU: 0x1C61C, offset: 0x4E0C9C, size: 0x8, addend: 0x0, symName: '__ZN4core3ptr73drop_in_place$LT$alloc..boxed..Box$LT$syn..generics..GenericParam$GT$$GT$17ha26d5d145af4b203E', symObjAddr: 0x6A80, symBinAddr: 0xF1C50, symSize: 0x80 }
  - { offsetInCU: 0x1C792, offset: 0x4E0E12, size: 0x8, addend: 0x0, symName: '__ZN4core3ptr75drop_in_place$LT$alloc..boxed..Box$LT$syn..generics..TypeParamBound$GT$$GT$17h129a4e927e5eb81bE', symObjAddr: 0x6B00, symBinAddr: 0xF1CD0, symSize: 0x1B0 }
  - { offsetInCU: 0x1CE91, offset: 0x4E1511, size: 0x8, addend: 0x0, symName: '__ZN4core3ptr86drop_in_place$LT$syn..punctuated..Punctuated$LT$syn..pat..Pat$C$syn..token..Or$GT$$GT$17h9cc6b5f7b6d3a555E', symObjAddr: 0x6CB0, symBinAddr: 0xF1E80, symSize: 0x120 }
  - { offsetInCU: 0x1D323, offset: 0x4E19A3, size: 0x8, addend: 0x0, symName: '__ZN4core3ptr87drop_in_place$LT$core..option..Option$LT$alloc..boxed..Box$LT$syn..pat..Pat$GT$$GT$$GT$17h51cd48973d96c411E', symObjAddr: 0x6DD0, symBinAddr: 0xF1FA0, symSize: 0x50 }
  - { offsetInCU: 0x1D493, offset: 0x4E1B13, size: 0x8, addend: 0x0, symName: '__ZN4core3ptr87drop_in_place$LT$core..option..Option$LT$alloc..boxed..Box$LT$syn..ty..Type$GT$$GT$$GT$17h103a25a4a7d7374eE', symObjAddr: 0x6E20, symBinAddr: 0xF1FF0, symSize: 0x50 }
  - { offsetInCU: 0x1D603, offset: 0x4E1C83, size: 0x8, addend: 0x0, symName: '__ZN4core3ptr89drop_in_place$LT$core..option..Option$LT$alloc..boxed..Box$LT$syn..expr..Expr$GT$$GT$$GT$17h9e02509cb2345d44E', symObjAddr: 0x6E70, symBinAddr: 0xF2040, symSize: 0x50 }
  - { offsetInCU: 0x1D7B1, offset: 0x4E1E31, size: 0x8, addend: 0x0, symName: '__ZN4core3ptr89drop_in_place$LT$syn..punctuated..Punctuated$LT$syn..pat..Pat$C$syn..token..Comma$GT$$GT$17hd3a83c36827f210aE', symObjAddr: 0x6EC0, symBinAddr: 0xF2090, symSize: 0x120 }
  - { offsetInCU: 0x1DC2C, offset: 0x4E22AC, size: 0x8, addend: 0x0, symName: '__ZN4core3ptr89drop_in_place$LT$syn..punctuated..Punctuated$LT$syn..ty..Type$C$syn..token..Comma$GT$$GT$17he030c4b7f24a5848E', symObjAddr: 0x6FE0, symBinAddr: 0xF21B0, symSize: 0x120 }
  - { offsetInCU: 0x1E0E5, offset: 0x4E2765, size: 0x8, addend: 0x0, symName: '__ZN4core3ptr91drop_in_place$LT$syn..punctuated..Punctuated$LT$syn..expr..Expr$C$syn..token..Comma$GT$$GT$17h6f261e8f470c81f2E', symObjAddr: 0x7100, symBinAddr: 0xF22D0, symSize: 0x120 }
  - { offsetInCU: 0x1E573, offset: 0x4E2BF3, size: 0x8, addend: 0x0, symName: '__ZN4core3ptr94drop_in_place$LT$syn..punctuated..Punctuated$LT$syn..pat..FieldPat$C$syn..token..Comma$GT$$GT$17h43ec25af986ef674E', symObjAddr: 0x7220, symBinAddr: 0xF23F0, symSize: 0xF0 }
  - { offsetInCU: 0x1E872, offset: 0x4E2EF2, size: 0x8, addend: 0x0, symName: '__ZN4core3ptr94drop_in_place$LT$syn..punctuated..Punctuated$LT$syn..ty..BareFnArg$C$syn..token..Comma$GT$$GT$17h7ba4c699ee390ebaE', symObjAddr: 0x7310, symBinAddr: 0xF24E0, symSize: 0xF0 }
  - { offsetInCU: 0x1EB73, offset: 0x4E31F3, size: 0x8, addend: 0x0, symName: '__ZN4core3ptr96drop_in_place$LT$core..option..Option$LT$alloc..boxed..Box$LT$syn..path..PathSegment$GT$$GT$$GT$17h5de12a5a0f9e9ef9E', symObjAddr: 0x7400, symBinAddr: 0xF25D0, symSize: 0x1A0 }
  - { offsetInCU: 0x1F234, offset: 0x4E38B4, size: 0x8, addend: 0x0, symName: '__ZN4core3ptr97drop_in_place$LT$syn..punctuated..Punctuated$LT$syn..expr..FieldValue$C$syn..token..Comma$GT$$GT$17hf58d0a9a09266ab3E', symObjAddr: 0x75A0, symBinAddr: 0xF2770, symSize: 0xF0 }
  - { offsetInCU: 0x1F5AD, offset: 0x4E3C2D, size: 0x8, addend: 0x0, symName: '__ZN4core3ptr98drop_in_place$LT$syn..punctuated..Punctuated$LT$syn..lifetime..Lifetime$C$syn..token..Plus$GT$$GT$17h600c2b78f78fd2b9E', symObjAddr: 0x7690, symBinAddr: 0xF2860, symSize: 0xD0 }
  - { offsetInCU: 0x2398D, offset: 0x4E800D, size: 0x8, addend: 0x0, symName: __ZN4core3ops8function6FnOnce9call_once17h9b6e03ddcec114ceE, symObjAddr: 0x0, symBinAddr: 0xEB1D0, symSize: 0x140 }
  - { offsetInCU: 0x2435A, offset: 0x4E89DA, size: 0x8, addend: 0x0, symName: __ZN3syn3pat7parsing14multi_pat_impl17hcb7ead266b19167eE, symObjAddr: 0x77A0, symBinAddr: 0xF2970, symSize: 0x3E0 }
  - { offsetInCU: 0x24D16, offset: 0x4E9396, size: 0x8, addend: 0x0, symName: __ZN3syn3pat7parsing36pat_path_or_macro_or_struct_or_range17h08835c5e4942d9d8E, symObjAddr: 0x7B80, symBinAddr: 0xF2D50, symSize: 0x2380 }
  - { offsetInCU: 0x28AEF, offset: 0x4ED16F, size: 0x8, addend: 0x0, symName: __ZN3syn3pat7parsing8pat_wild17h64f82d40ff9e29f1E, symObjAddr: 0x9F00, symBinAddr: 0xF50D0, symSize: 0xA0 }
  - { offsetInCU: 0x28BFA, offset: 0x4ED27A, size: 0x8, addend: 0x0, symName: __ZN3syn3pat7parsing7pat_box17hd1a87ed47fc58e23E, symObjAddr: 0x9FA0, symBinAddr: 0xF5170, symSize: 0x210 }
  - { offsetInCU: 0x28F3A, offset: 0x4ED5BA, size: 0x8, addend: 0x0, symName: __ZN3syn3pat7parsing9pat_ident17h3c5ee63b13f21fffE, symObjAddr: 0xA1B0, symBinAddr: 0xF5380, symSize: 0x560 }
  - { offsetInCU: 0x299CF, offset: 0x4EE04F, size: 0x8, addend: 0x0, symName: __ZN3syn3pat7parsing19pat_range_half_open17ha7d76f1492ca26d0E, symObjAddr: 0xA710, symBinAddr: 0xF58E0, symSize: 0x340 }
  - { offsetInCU: 0x29D96, offset: 0x4EE416, size: 0x8, addend: 0x0, symName: __ZN3syn3pat7parsing18pat_paren_or_tuple17h690eced4637a57e1E, symObjAddr: 0xAA50, symBinAddr: 0xF5C20, symSize: 0x640 }
  - { offsetInCU: 0x2A536, offset: 0x4EEBB6, size: 0x8, addend: 0x0, symName: __ZN3syn3pat7parsing13pat_reference17h9ef5d031dc8f4ab0E, symObjAddr: 0xB090, symBinAddr: 0xF6260, symSize: 0x290 }
  - { offsetInCU: 0x2A90F, offset: 0x4EEF8F, size: 0x8, addend: 0x0, symName: __ZN3syn3pat7parsing16pat_lit_or_range17ha14b698b01ae22d4E, symObjAddr: 0xB320, symBinAddr: 0xF64F0, symSize: 0x5F0 }
  - { offsetInCU: 0x2ADE1, offset: 0x4EF461, size: 0x8, addend: 0x0, symName: __ZN3syn3pat7parsing15pat_range_bound17h172deddd44ae615bE, symObjAddr: 0xB910, symBinAddr: 0xF6AE0, symSize: 0x8D0 }
  - { offsetInCU: 0x2D888, offset: 0x4F1F08, size: 0x8, addend: 0x0, symName: __ZN3syn3pat7parsing9pat_slice17h874a0b9b7b7be077E, symObjAddr: 0xC1E0, symBinAddr: 0xF73B0, symSize: 0x560 }
  - { offsetInCU: 0x2DF90, offset: 0x4F2610, size: 0x8, addend: 0x0, symName: __ZN3syn3pat7parsing9pat_const17hc41f9db9c713cd11E, symObjAddr: 0xC740, symBinAddr: 0xF7910, symSize: 0x480 }
  - { offsetInCU: 0x35059, offset: 0x4F96D9, size: 0x8, addend: 0x0, symName: __ZN5alloc5alloc15exchange_malloc17h9a87608d0224859dE, symObjAddr: 0x7760, symBinAddr: 0xF2930, symSize: 0x40 }
  - { offsetInCU: 0xAD3, offset: 0x502D0F, size: 0x8, addend: 0x0, symName: '__ZN4core3ptr39drop_in_place$LT$proc_macro2..Group$GT$17h0ac55e407d7f86aaE', symObjAddr: 0x1A0, symBinAddr: 0xF7D90, symSize: 0x60 }
  - { offsetInCU: 0xD17, offset: 0x502F53, size: 0x8, addend: 0x0, symName: '__ZN4core3ptr39drop_in_place$LT$syn..buffer..Entry$GT$17he93ada413d4474f7E', symObjAddr: 0x200, symBinAddr: 0xF7DF0, symSize: 0xB0 }
  - { offsetInCU: 0x10A2, offset: 0x5032DE, size: 0x8, addend: 0x0, symName: '__ZN4core3ptr43drop_in_place$LT$proc_macro2..TokenTree$GT$17h3cbee0aa221130b6E', symObjAddr: 0x2B0, symBinAddr: 0xF7EA0, symSize: 0xB0 }
  - { offsetInCU: 0x1479, offset: 0x5036B5, size: 0x8, addend: 0x0, symName: '__ZN4core3ptr44drop_in_place$LT$syn..parse..ParseBuffer$GT$17hf792ff20095efc35E', symObjAddr: 0x360, symBinAddr: 0xF7F50, symSize: 0x70 }
  - { offsetInCU: 0x1798, offset: 0x5039D4, size: 0x8, addend: 0x0, symName: '__ZN4core3ptr45drop_in_place$LT$syn..buffer..TokenBuffer$GT$17h4face1781af8e982E', symObjAddr: 0x510, symBinAddr: 0xF7FC0, symSize: 0xC0 }
  - { offsetInCU: 0x745C, offset: 0x509698, size: 0x8, addend: 0x0, symName: '__ZN80_$LT$syn..parse..ParseBuffer$u20$as$u20$syn..parse..discouraged..Speculative$GT$10advance_to17h8552dc1473c4af37E', symObjAddr: 0x7B0, symBinAddr: 0xF8080, symSize: 0x290 }
  - { offsetInCU: 0x88FB, offset: 0x50AB37, size: 0x8, addend: 0x0, symName: '__ZN65_$LT$syn..parse..ParseBuffer$u20$as$u20$core..ops..drop..Drop$GT$4drop17ha77b9960245e0306E', symObjAddr: 0xC70, symBinAddr: 0xF8310, symSize: 0xC0 }
  - { offsetInCU: 0x8FE9, offset: 0x50B225, size: 0x8, addend: 0x0, symName: __ZN3syn5parse16inner_unexpected17hea160681ca46ec39E.llvm.3461354391674049029, symObjAddr: 0xE30, symBinAddr: 0xF83D0, symSize: 0x130 }
  - { offsetInCU: 0x98DF, offset: 0x50BB1B, size: 0x8, addend: 0x0, symName: __ZN3syn5parse33span_of_unexpected_ignoring_nones17hf1471203b634f50cE, symObjAddr: 0xF60, symBinAddr: 0xF8500, symSize: 0x150 }
  - { offsetInCU: 0x9DDB, offset: 0x50C017, size: 0x8, addend: 0x0, symName: __ZN3syn5parse11ParseBuffer5peek25peek217hf011eb9f29f6fe05E, symObjAddr: 0x1A80, symBinAddr: 0xF8990, symSize: 0xD0 }
  - { offsetInCU: 0xA0A1, offset: 0x50C2DD, size: 0x8, addend: 0x0, symName: __ZN3syn5parse11ParseBuffer5peek35peek317h1d6952f5a637a402E, symObjAddr: 0x1B50, symBinAddr: 0xF8A60, symSize: 0x180 }
  - { offsetInCU: 0xA6F9, offset: 0x50C935, size: 0x8, addend: 0x0, symName: __ZN3syn5parse6Parser9parse_str17hcdce4a38967bcd6dE, symObjAddr: 0x4930, symBinAddr: 0xFAC50, symSize: 0x450 }
  - { offsetInCU: 0xB5B9, offset: 0x50D7F5, size: 0x8, addend: 0x0, symName: __ZN3syn5parse22tokens_to_parse_buffer17hf0a8f75f1c4c233cE, symObjAddr: 0x4D80, symBinAddr: 0xFB0A0, symSize: 0xC0 }
  - { offsetInCU: 0xCA23, offset: 0x50EC5F, size: 0x8, addend: 0x0, symName: __ZN3syn5parse11ParseBuffer5parse17h06d3607261818cccE, symObjAddr: 0x1150, symBinAddr: 0xF8650, symSize: 0xF0 }
  - { offsetInCU: 0xCB29, offset: 0x50ED65, size: 0x8, addend: 0x0, symName: __ZN3syn5parse11ParseBuffer5parse17h7679fb3bed6c3649E, symObjAddr: 0x14B0, symBinAddr: 0xF8740, symSize: 0xA0 }
  - { offsetInCU: 0xCC65, offset: 0x50EEA1, size: 0x8, addend: 0x0, symName: __ZN3syn5parse11ParseBuffer5parse17ha3d65457d4c31951E, symObjAddr: 0x16B0, symBinAddr: 0xF87E0, symSize: 0xC0 }
  - { offsetInCU: 0xCE39, offset: 0x50F075, size: 0x8, addend: 0x0, symName: __ZN3syn5parse11ParseBuffer5parse17he0b47fa98efe2c40E, symObjAddr: 0x1910, symBinAddr: 0xF88A0, symSize: 0xF0 }
  - { offsetInCU: 0xD1B1, offset: 0x50F3ED, size: 0x8, addend: 0x0, symName: __ZN3syn5parse11ParseBuffer4fork17h00391a4a608a24ccE, symObjAddr: 0x1CD0, symBinAddr: 0xF8BE0, symSize: 0x80 }
  - { offsetInCU: 0xD482, offset: 0x50F6BE, size: 0x8, addend: 0x0, symName: __ZN3syn5parse11ParseBuffer4step17h217d66dbd572176eE, symObjAddr: 0x1D50, symBinAddr: 0xF8C60, symSize: 0x280 }
  - { offsetInCU: 0xDB1A, offset: 0x50FD56, size: 0x8, addend: 0x0, symName: __ZN3syn5parse11ParseBuffer4step17h274d1792c9ae3cceE, symObjAddr: 0x1FD0, symBinAddr: 0xF8EE0, symSize: 0x160 }
  - { offsetInCU: 0xE00D, offset: 0x510249, size: 0x8, addend: 0x0, symName: __ZN3syn5parse11ParseBuffer4step17h37fbc1b9bfb77535E, symObjAddr: 0x2130, symBinAddr: 0xF9040, symSize: 0x3E0 }
  - { offsetInCU: 0xE7C5, offset: 0x510A01, size: 0x8, addend: 0x0, symName: __ZN3syn5parse11ParseBuffer4step17h3847c280bd762f50E, symObjAddr: 0x2510, symBinAddr: 0xF9420, symSize: 0x2B0 }
  - { offsetInCU: 0xF345, offset: 0x511581, size: 0x8, addend: 0x0, symName: __ZN3syn5parse11ParseBuffer4step17h57f3a6af31397e0aE, symObjAddr: 0x27C0, symBinAddr: 0xF96D0, symSize: 0x240 }
  - { offsetInCU: 0xFE2D, offset: 0x512069, size: 0x8, addend: 0x0, symName: __ZN3syn5parse11ParseBuffer4step17h65c247b0ccf0c497E, symObjAddr: 0x2A00, symBinAddr: 0xF9910, symSize: 0x2D0 }
  - { offsetInCU: 0x10D81, offset: 0x512FBD, size: 0x8, addend: 0x0, symName: __ZN3syn5parse11ParseBuffer4step17h68b4358d9d624d06E, symObjAddr: 0x2E80, symBinAddr: 0xF9BE0, symSize: 0x370 }
  - { offsetInCU: 0x118BD, offset: 0x513AF9, size: 0x8, addend: 0x0, symName: __ZN3syn5parse11ParseBuffer4step17h81a19a7a073c4234E, symObjAddr: 0x31F0, symBinAddr: 0xF9F50, symSize: 0x360 }
  - { offsetInCU: 0x1286F, offset: 0x514AAB, size: 0x8, addend: 0x0, symName: __ZN3syn5parse11ParseBuffer4step17hdfa6f9b923d36733E, symObjAddr: 0x39E0, symBinAddr: 0xFA2B0, symSize: 0x240 }
  - { offsetInCU: 0x13368, offset: 0x5155A4, size: 0x8, addend: 0x0, symName: __ZN3syn5parse11ParseBuffer4step17he9e767cac2006e85E, symObjAddr: 0x3C20, symBinAddr: 0xFA4F0, symSize: 0x100 }
  - { offsetInCU: 0x136CB, offset: 0x515907, size: 0x8, addend: 0x0, symName: __ZN3syn5parse11ParseBuffer4step17hff2f288ba652b1b5E, symObjAddr: 0x3D20, symBinAddr: 0xFA5F0, symSize: 0x5B0 }
  - { offsetInCU: 0x14B63, offset: 0x516D9F, size: 0x8, addend: 0x0, symName: __ZN3syn5parse11ParseBuffer16check_unexpected17h104a0f7d0d55e579E, symObjAddr: 0x4360, symBinAddr: 0xFABA0, symSize: 0xB0 }
  - { offsetInCU: 0xA9, offset: 0x522AAD, size: 0x8, addend: 0x0, symName: '__ZN58_$LT$alloc..string..String$u20$as$u20$core..fmt..Write$GT$10write_char17h04bc467bd68a934bE', symObjAddr: 0x510, symBinAddr: 0xFB4E0, symSize: 0x140 }
  - { offsetInCU: 0x4AE, offset: 0x522EB2, size: 0x8, addend: 0x0, symName: '__ZN58_$LT$alloc..string..String$u20$as$u20$core..fmt..Write$GT$9write_str17h46a93205c3443fbaE', symObjAddr: 0x650, symBinAddr: 0xFB620, symSize: 0x60 }
  - { offsetInCU: 0x737, offset: 0x52313B, size: 0x8, addend: 0x0, symName: '__ZN60_$LT$alloc..string..String$u20$as$u20$core..fmt..Display$GT$3fmt17h0d0eb46f3054e2dfE', symObjAddr: 0x6B0, symBinAddr: 0xFB680, symSize: 0x20 }
  - { offsetInCU: 0x16FB, offset: 0x5240FF, size: 0x8, addend: 0x0, symName: '__ZN4core3ptr116drop_in_place$LT$core..option..Option$LT$$LP$alloc..boxed..Box$LT$str$GT$$C$alloc..boxed..Box$LT$str$GT$$RP$$GT$$GT$17he8b8b1f8f4e3021dE', symObjAddr: 0xB0, symBinAddr: 0xFB160, symSize: 0x50 }
  - { offsetInCU: 0x194A, offset: 0x52434E, size: 0x8, addend: 0x0, symName: '__ZN4core3ptr34drop_in_place$LT$syn..lit..Lit$GT$17hd64dde89a262341dE.llvm.12702177955715691065', symObjAddr: 0x100, symBinAddr: 0xFB1B0, symSize: 0x130 }
  - { offsetInCU: 0x1AE1, offset: 0x5244E5, size: 0x8, addend: 0x0, symName: '__ZN4core3ptr38drop_in_place$LT$syn..lit..LitRepr$GT$17h76df5237e8f2090eE', symObjAddr: 0x230, symBinAddr: 0xFB2E0, symSize: 0x50 }
  - { offsetInCU: 0x1B01, offset: 0x524505, size: 0x8, addend: 0x0, symName: '__ZN4core3ptr38drop_in_place$LT$syn..lit..LitRepr$GT$17h76df5237e8f2090eE', symObjAddr: 0x230, symBinAddr: 0xFB2E0, symSize: 0x50 }
  - { offsetInCU: 0x1B1F, offset: 0x524523, size: 0x8, addend: 0x0, symName: '__ZN4core3ptr38drop_in_place$LT$syn..lit..LitRepr$GT$17h76df5237e8f2090eE', symObjAddr: 0x230, symBinAddr: 0xFB2E0, symSize: 0x50 }
  - { offsetInCU: 0x1CFC, offset: 0x524700, size: 0x8, addend: 0x0, symName: '__ZN4core3ptr41drop_in_place$LT$syn..lit..LitIntRepr$GT$17h5da975d03af49903E', symObjAddr: 0x2B0, symBinAddr: 0xFB330, symSize: 0x60 }
  - { offsetInCU: 0x1F9C, offset: 0x5249A0, size: 0x8, addend: 0x0, symName: '__ZN4core3ptr42drop_in_place$LT$alloc..string..String$GT$17h9acfda4d1b128177E', symObjAddr: 0x310, symBinAddr: 0xFB390, symSize: 0x20 }
  - { offsetInCU: 0x2120, offset: 0x524B24, size: 0x8, addend: 0x0, symName: '__ZN4core3ptr44drop_in_place$LT$syn..parse..ParseBuffer$GT$17hf792ff20095efc35E.llvm.12702177955715691065', symObjAddr: 0x3E0, symBinAddr: 0xFB3B0, symSize: 0x70 }
  - { offsetInCU: 0x245E, offset: 0x524E62, size: 0x8, addend: 0x0, symName: '__ZN4core3ptr82drop_in_place$LT$core..result..Result$LT$syn..lit..Lit$C$syn..error..Error$GT$$GT$17hf1136f4253209c5dE.llvm.12702177955715691065', symObjAddr: 0x450, symBinAddr: 0xFB420, symSize: 0xA0 }
  - { offsetInCU: 0x2CAE, offset: 0x5256B2, size: 0x8, addend: 0x0, symName: '__ZN53_$LT$core..fmt..Error$u20$as$u20$core..fmt..Debug$GT$3fmt17h03dc662ab152f3aeE', symObjAddr: 0x4F0, symBinAddr: 0xFB4C0, symSize: 0x20 }
  - { offsetInCU: 0x4508, offset: 0x526F0C, size: 0x8, addend: 0x0, symName: '__ZN3syn3lit7parsing64_$LT$impl$u20$syn..parse..Parse$u20$for$u20$syn..lit..LitStr$GT$5parse17h29cedd14579fa0b8E', symObjAddr: 0x27D0, symBinAddr: 0xFB8F0, symSize: 0x2C0 }
  - { offsetInCU: 0x51FD, offset: 0x527C01, size: 0x8, addend: 0x0, symName: '__ZN3syn3lit7parsing64_$LT$impl$u20$syn..parse..Parse$u20$for$u20$syn..lit..LitInt$GT$5parse17h2829241c126ca9faE', symObjAddr: 0x3590, symBinAddr: 0xFBBB0, symSize: 0x2D0 }
  - { offsetInCU: 0x5F85, offset: 0x528989, size: 0x8, addend: 0x0, symName: '__ZN3syn3lit7parsing66_$LT$impl$u20$syn..parse..Parse$u20$for$u20$syn..lit..LitFloat$GT$5parse17h8570af54e06d9048E', symObjAddr: 0x3860, symBinAddr: 0xFBE80, symSize: 0x2D0 }
  - { offsetInCU: 0x6D0D, offset: 0x529711, size: 0x8, addend: 0x0, symName: '__ZN3syn3lit7parsing61_$LT$impl$u20$syn..token..Token$u20$for$u20$syn..lit..Lit$GT$4peek17h5d798b6431514540E', symObjAddr: 0x4CD0, symBinAddr: 0xFCCB0, symSize: 0x100 }
  - { offsetInCU: 0x71E3, offset: 0x529BE7, size: 0x8, addend: 0x0, symName: '__ZN3syn3lit7parsing64_$LT$impl$u20$syn..token..Token$u20$for$u20$syn..lit..LitStr$GT$4peek17haa39af066f858f73E', symObjAddr: 0x4DD0, symBinAddr: 0xFCDB0, symSize: 0x100 }
  - { offsetInCU: 0x76B9, offset: 0x52A0BD, size: 0x8, addend: 0x0, symName: '__ZN3syn3lit7parsing64_$LT$impl$u20$syn..token..Token$u20$for$u20$syn..lit..LitInt$GT$4peek17hb31cda7530c7b81bE', symObjAddr: 0x52D0, symBinAddr: 0xFCEB0, symSize: 0x100 }
  - { offsetInCU: 0x7B8F, offset: 0x52A593, size: 0x8, addend: 0x0, symName: '__ZN3syn3lit7parsing66_$LT$impl$u20$syn..token..Token$u20$for$u20$syn..lit..LitFloat$GT$4peek17h68d045ada6444c20E', symObjAddr: 0x53D0, symBinAddr: 0xFCFB0, symSize: 0x100 }
  - { offsetInCU: 0x8239, offset: 0x52AC3D, size: 0x8, addend: 0x0, symName: '__ZN3syn3lit8printing73_$LT$impl$u20$quote..to_tokens..ToTokens$u20$for$u20$syn..lit..LitInt$GT$9to_tokens17h15ff59ada79fbcf9E', symObjAddr: 0x3D40, symBinAddr: 0xFC150, symSize: 0x0 }
  - { offsetInCU: 0x82A8, offset: 0x52ACAC, size: 0x8, addend: 0x0, symName: '__ZN60_$LT$syn..lit..Lit$u20$as$u20$quote..to_tokens..ToTokens$GT$9to_tokens17hcac8c6a82e18e9bfE', symObjAddr: 0x4930, symBinAddr: 0xFCBC0, symSize: 0xF0 }
  - { offsetInCU: 0x8B6E, offset: 0x52B572, size: 0x8, addend: 0x0, symName: __ZN3syn3lit6LitStr5value17hb871d91cafbe7097E, symObjAddr: 0x910, symBinAddr: 0xFB6A0, symSize: 0x160 }
  - { offsetInCU: 0x914A, offset: 0x52BB4E, size: 0x8, addend: 0x0, symName: __ZN3syn3lit7LitByte3new17h17f65f0d4d99cff3E, symObjAddr: 0x1270, symBinAddr: 0xFB800, symSize: 0xF0 }
  - { offsetInCU: 0x96F8, offset: 0x52C0FC, size: 0x8, addend: 0x0, symName: '__ZN3syn3lit5value31_$LT$impl$u20$syn..lit..Lit$GT$3new17h2c8384479ddb50d5E', symObjAddr: 0x3DE0, symBinAddr: 0xFC160, symSize: 0xA60 }
  - { offsetInCU: 0x1CF5, offset: 0x53084B, size: 0x8, addend: 0x0, symName: '__ZN4core3ptr100drop_in_place$LT$core..option..Option$LT$alloc..boxed..Box$LT$syn..path..GenericArgument$GT$$GT$$GT$17h3a7c44b9e57fe410E', symObjAddr: 0xC0, symBinAddr: 0xFD0B0, symSize: 0x50 }
  - { offsetInCU: 0x1EC2, offset: 0x530A18, size: 0x8, addend: 0x0, symName: '__ZN4core3ptr102drop_in_place$LT$syn..punctuated..Punctuated$LT$syn..path..GenericArgument$C$syn..token..Comma$GT$$GT$17h8b1978399cfff48bE', symObjAddr: 0x110, symBinAddr: 0xFD100, symSize: 0xF0 }
  - { offsetInCU: 0x21E2, offset: 0x530D38, size: 0x8, addend: 0x0, symName: '__ZN4core3ptr103drop_in_place$LT$core..option..Option$LT$alloc..boxed..Box$LT$syn..generics..TypeParamBound$GT$$GT$$GT$17hb14e4384a768542bE', symObjAddr: 0x200, symBinAddr: 0xFD1F0, symSize: 0x50 }
  - { offsetInCU: 0x23ED, offset: 0x530F43, size: 0x8, addend: 0x0, symName: '__ZN4core3ptr103drop_in_place$LT$syn..punctuated..Punctuated$LT$syn..generics..GenericParam$C$syn..token..Comma$GT$$GT$17h0c6077a988036760E', symObjAddr: 0x250, symBinAddr: 0xFD240, symSize: 0xF0 }
  - { offsetInCU: 0x29C1, offset: 0x531517, size: 0x8, addend: 0x0, symName: '__ZN4core3ptr104drop_in_place$LT$syn..punctuated..Punctuated$LT$syn..generics..TypeParamBound$C$syn..token..Plus$GT$$GT$17h724e4d9d1d65061aE', symObjAddr: 0x340, symBinAddr: 0xFD330, symSize: 0x260 }
  - { offsetInCU: 0x340B, offset: 0x531F61, size: 0x8, addend: 0x0, symName: '__ZN4core3ptr34drop_in_place$LT$syn..lit..Lit$GT$17hd64dde89a262341dE', symObjAddr: 0x5A0, symBinAddr: 0xFD590, symSize: 0x120 }
  - { offsetInCU: 0x38F9, offset: 0x53244F, size: 0x8, addend: 0x0, symName: '__ZN4core3ptr34drop_in_place$LT$syn..pat..Pat$GT$17hf88887878261d63cE', symObjAddr: 0x6C0, symBinAddr: 0xFD6B0, symSize: 0xF70 }
  - { offsetInCU: 0x7812, offset: 0x536368, size: 0x8, addend: 0x0, symName: '__ZN4core3ptr34drop_in_place$LT$syn..ty..Type$GT$17ha80dd29b0f9d4a3fE.llvm.9450532158266639121', symObjAddr: 0x1630, symBinAddr: 0xFE620, symSize: 0x5A0 }
  - { offsetInCU: 0x91AE, offset: 0x537D04, size: 0x8, addend: 0x0, symName: '__ZN4core3ptr36drop_in_place$LT$syn..expr..Expr$GT$17h10f573b40ddd212cE', symObjAddr: 0x1BD0, symBinAddr: 0xFEBC0, symSize: 0x2760 }
  - { offsetInCU: 0x12EA5, offset: 0x5419FB, size: 0x8, addend: 0x0, symName: '__ZN4core3ptr36drop_in_place$LT$syn..mac..Macro$GT$17hc3b30a7a8a34cc2dE', symObjAddr: 0x4330, symBinAddr: 0x101320, symSize: 0x110 }
  - { offsetInCU: 0x13342, offset: 0x541E98, size: 0x8, addend: 0x0, symName: '__ZN4core3ptr36drop_in_place$LT$syn..path..Path$GT$17h75c74a97d5f0a03bE.llvm.9450532158266639121', symObjAddr: 0x4440, symBinAddr: 0x101430, symSize: 0x280 }
  - { offsetInCU: 0x13DEF, offset: 0x542945, size: 0x8, addend: 0x0, symName: '__ZN4core3ptr37drop_in_place$LT$syn..stmt..Block$GT$17h6fc3254d5688f2c3E', symObjAddr: 0x46C0, symBinAddr: 0x1016B0, symSize: 0xD0 }
  - { offsetInCU: 0x14161, offset: 0x542CB7, size: 0x8, addend: 0x0, symName: '__ZN4core3ptr38drop_in_place$LT$syn..data..Fields$GT$17h79840861dd1f691dE.llvm.9450532158266639121', symObjAddr: 0x4790, symBinAddr: 0x101780, symSize: 0x190 }
  - { offsetInCU: 0x145AB, offset: 0x543101, size: 0x8, addend: 0x0, symName: '__ZN4core3ptr38drop_in_place$LT$syn..expr..Member$GT$17h6b0cf84594ce6bceE', symObjAddr: 0x4920, symBinAddr: 0x101910, symSize: 0x30 }
  - { offsetInCU: 0x146A7, offset: 0x5431FD, size: 0x8, addend: 0x0, symName: '__ZN4core3ptr39drop_in_place$LT$proc_macro2..Ident$GT$17ha28fef9769e267d9E.llvm.9450532158266639121', symObjAddr: 0x4950, symBinAddr: 0x101940, symSize: 0x30 }
  - { offsetInCU: 0x14784, offset: 0x5432DA, size: 0x8, addend: 0x0, symName: '__ZN4core3ptr40drop_in_place$LT$syn..ty..ReturnType$GT$17h035a612e322b6510E', symObjAddr: 0x4980, symBinAddr: 0x101970, symSize: 0x50 }
  - { offsetInCU: 0x148F4, offset: 0x54344A, size: 0x8, addend: 0x0, symName: '__ZN4core3ptr41drop_in_place$LT$syn..expr..ExprConst$GT$17hbfe19d5d621e6836E', symObjAddr: 0x49D0, symBinAddr: 0x1019C0, symSize: 0x180 }
  - { offsetInCU: 0x14EE1, offset: 0x543A37, size: 0x8, addend: 0x0, symName: '__ZN4core3ptr43drop_in_place$LT$syn..data..FieldsNamed$GT$17h56bef6f151514865E', symObjAddr: 0x4B50, symBinAddr: 0x101B40, symSize: 0xE0 }
  - { offsetInCU: 0x15207, offset: 0x543D5D, size: 0x8, addend: 0x0, symName: '__ZN4core3ptr44drop_in_place$LT$syn..lifetime..Lifetime$GT$17he37fa474f03de7b1E', symObjAddr: 0x4C30, symBinAddr: 0x101C20, symSize: 0x30 }
  - { offsetInCU: 0x1537F, offset: 0x543ED5, size: 0x8, addend: 0x0, symName: '__ZN4core3ptr44drop_in_place$LT$syn..parse..ParseBuffer$GT$17hf792ff20095efc35E.llvm.9450532158266639121', symObjAddr: 0x4C60, symBinAddr: 0x101C50, symSize: 0x70 }
  - { offsetInCU: 0x15796, offset: 0x5442EC, size: 0x8, addend: 0x0, symName: '__ZN4core3ptr45drop_in_place$LT$proc_macro2..TokenStream$GT$17h76e8e68015f4924dE', symObjAddr: 0x4CD0, symBinAddr: 0x101CC0, symSize: 0x140 }
  - { offsetInCU: 0x15C30, offset: 0x544786, size: 0x8, addend: 0x0, symName: '__ZN4core3ptr45drop_in_place$LT$syn..generics..TypeParam$GT$17h188a459c1380ac75E', symObjAddr: 0x4E10, symBinAddr: 0x101E00, symSize: 0x230 }
  - { offsetInCU: 0x164A5, offset: 0x544FFB, size: 0x8, addend: 0x0, symName: '__ZN4core3ptr46drop_in_place$LT$syn..generics..ConstParam$GT$17h7a9b900b2b88bfcdE', symObjAddr: 0x5040, symBinAddr: 0x102030, symSize: 0x150 }
  - { offsetInCU: 0x16926, offset: 0x54547C, size: 0x8, addend: 0x0, symName: '__ZN4core3ptr47drop_in_place$LT$syn..path..GenericArgument$GT$17h593f06d6ca9a94d2E', symObjAddr: 0x5190, symBinAddr: 0x102180, symSize: 0x450 }
  - { offsetInCU: 0x1769C, offset: 0x5461F2, size: 0x8, addend: 0x0, symName: '__ZN4core3ptr49drop_in_place$LT$syn..generics..LifetimeParam$GT$17h3a8835ab294bfd16E', symObjAddr: 0x55E0, symBinAddr: 0x1025D0, symSize: 0xF0 }
  - { offsetInCU: 0x17AF1, offset: 0x546647, size: 0x8, addend: 0x0, symName: '__ZN4core3ptr49drop_in_place$LT$syn..restriction..Visibility$GT$17h3e52b998838defb1E.llvm.9450532158266639121', symObjAddr: 0x56D0, symBinAddr: 0x1026C0, symSize: 0x60 }
  - { offsetInCU: 0x17C66, offset: 0x5467BC, size: 0x8, addend: 0x0, symName: '__ZN4core3ptr50drop_in_place$LT$syn..generics..TypeParamBound$GT$17h81b4325b5900604dE', symObjAddr: 0x5730, symBinAddr: 0x102720, symSize: 0xA0 }
  - { offsetInCU: 0x17DCC, offset: 0x546922, size: 0x8, addend: 0x0, symName: '__ZN4core3ptr58drop_in_place$LT$alloc..vec..Vec$LT$syn..expr..Arm$GT$$GT$17hff9224aadf2233b8E', symObjAddr: 0x57D0, symBinAddr: 0x1027C0, symSize: 0xD0 }
  - { offsetInCU: 0x1808C, offset: 0x546BE2, size: 0x8, addend: 0x0, symName: '__ZN4core3ptr59drop_in_place$LT$alloc..boxed..Box$LT$syn..pat..Pat$GT$$GT$17h622b0c1db21c0742E', symObjAddr: 0x58A0, symBinAddr: 0x102890, symSize: 0x50 }
  - { offsetInCU: 0x181E5, offset: 0x546D3B, size: 0x8, addend: 0x0, symName: '__ZN4core3ptr59drop_in_place$LT$alloc..boxed..Box$LT$syn..ty..Type$GT$$GT$17hde45fa887dd8b605E', symObjAddr: 0x58F0, symBinAddr: 0x1028E0, symSize: 0x50 }
  - { offsetInCU: 0x1833E, offset: 0x546E94, size: 0x8, addend: 0x0, symName: '__ZN4core3ptr61drop_in_place$LT$alloc..boxed..Box$LT$syn..expr..Expr$GT$$GT$17hbb42293869113942E', symObjAddr: 0x5940, symBinAddr: 0x102930, symSize: 0x50 }
  - { offsetInCU: 0x18497, offset: 0x546FED, size: 0x8, addend: 0x0, symName: '__ZN4core3ptr61drop_in_place$LT$syn..path..ParenthesizedGenericArguments$GT$17h6b1731382637937fE', symObjAddr: 0x5990, symBinAddr: 0x102980, symSize: 0x170 }
  - { offsetInCU: 0x18AA0, offset: 0x5475F6, size: 0x8, addend: 0x0, symName: '__ZN4core3ptr63drop_in_place$LT$alloc..boxed..Box$LT$syn..lit..LitRepr$GT$$GT$17h6e3a82ea4de7b84cE', symObjAddr: 0x5B00, symBinAddr: 0x102AF0, symSize: 0x60 }
  - { offsetInCU: 0x18DA7, offset: 0x5478FD, size: 0x8, addend: 0x0, symName: '__ZN4core3ptr64drop_in_place$LT$alloc..boxed..Box$LT$syn..pat..FieldPat$GT$$GT$17hbf8f4867d84bd25dE', symObjAddr: 0x5B60, symBinAddr: 0x102B50, symSize: 0x140 }
  - { offsetInCU: 0x194A8, offset: 0x547FFE, size: 0x8, addend: 0x0, symName: '__ZN4core3ptr64drop_in_place$LT$alloc..boxed..Box$LT$syn..ty..BareFnArg$GT$$GT$17h6be6354eb1d1364dE', symObjAddr: 0x5CA0, symBinAddr: 0x102C90, symSize: 0x140 }
  - { offsetInCU: 0x19A31, offset: 0x548587, size: 0x8, addend: 0x0, symName: '__ZN4core3ptr64drop_in_place$LT$alloc..vec..Vec$LT$syn..attr..Attribute$GT$$GT$17he33e25539d5885aeE.llvm.9450532158266639121', symObjAddr: 0x5DE0, symBinAddr: 0x102DD0, symSize: 0xD0 }
  - { offsetInCU: 0x19D25, offset: 0x54887B, size: 0x8, addend: 0x0, symName: '__ZN4core3ptr65drop_in_place$LT$alloc..vec..Vec$LT$proc_macro..TokenTree$GT$$GT$17h8abd81f8596dbc59E', symObjAddr: 0x5EB0, symBinAddr: 0x102EA0, symSize: 0x110 }
  - { offsetInCU: 0x1A11D, offset: 0x548C73, size: 0x8, addend: 0x0, symName: '__ZN4core3ptr65drop_in_place$LT$core..option..Option$LT$syn..expr..Label$GT$$GT$17hac599686b33ef364E', symObjAddr: 0x5FC0, symBinAddr: 0x102FB0, symSize: 0x30 }
  - { offsetInCU: 0x1A257, offset: 0x548DAD, size: 0x8, addend: 0x0, symName: '__ZN4core3ptr66drop_in_place$LT$core..option..Option$LT$syn..pat..PatRest$GT$$GT$17hd5bb3bc28aa78ac1E', symObjAddr: 0x5FF0, symBinAddr: 0x102FE0, symSize: 0xE0 }
  - { offsetInCU: 0x1A57F, offset: 0x5490D5, size: 0x8, addend: 0x0, symName: '__ZN4core3ptr67drop_in_place$LT$alloc..boxed..Box$LT$syn..expr..FieldValue$GT$$GT$17hbbcf67a9d5e9863cE', symObjAddr: 0x60D0, symBinAddr: 0x1030C0, symSize: 0x140 }
  - { offsetInCU: 0x1AAE8, offset: 0x54963E, size: 0x8, addend: 0x0, symName: '__ZN4core3ptr67drop_in_place$LT$core..option..Option$LT$proc_macro2..Ident$GT$$GT$17h430b2bec25099623E.llvm.9450532158266639121', symObjAddr: 0x6210, symBinAddr: 0x103200, symSize: 0x30 }
  - { offsetInCU: 0x1AC03, offset: 0x549759, size: 0x8, addend: 0x0, symName: '__ZN4core3ptr70drop_in_place$LT$core..option..Option$LT$syn..ty..BareVariadic$GT$$GT$17h79a19250e9f043b1E', symObjAddr: 0x6240, symBinAddr: 0x103230, symSize: 0x100 }
  - { offsetInCU: 0x1B06E, offset: 0x549BC4, size: 0x8, addend: 0x0, symName: '__ZN4core3ptr72drop_in_place$LT$alloc..boxed..Box$LT$syn..path..GenericArgument$GT$$GT$17hfd308d374af4273dE', symObjAddr: 0x6340, symBinAddr: 0x103330, symSize: 0x2B0 }
  - { offsetInCU: 0x1BA7F, offset: 0x54A5D5, size: 0x8, addend: 0x0, symName: '__ZN4core3ptr72drop_in_place$LT$core..option..Option$LT$syn..lifetime..Lifetime$GT$$GT$17h49cce6f02f9c0590E', symObjAddr: 0x65F0, symBinAddr: 0x1035E0, symSize: 0x30 }
  - { offsetInCU: 0x1BB9A, offset: 0x54A6F0, size: 0x8, addend: 0x0, symName: '__ZN4core3ptr73drop_in_place$LT$alloc..boxed..Box$LT$syn..generics..GenericParam$GT$$GT$17ha26d5d145af4b203E', symObjAddr: 0x6620, symBinAddr: 0x103610, symSize: 0x80 }
  - { offsetInCU: 0x1BD10, offset: 0x54A866, size: 0x8, addend: 0x0, symName: '__ZN4core3ptr75drop_in_place$LT$alloc..boxed..Box$LT$syn..generics..TypeParamBound$GT$$GT$17h129a4e927e5eb81bE', symObjAddr: 0x66A0, symBinAddr: 0x103690, symSize: 0x1B0 }
  - { offsetInCU: 0x1C40F, offset: 0x54AF65, size: 0x8, addend: 0x0, symName: '__ZN4core3ptr86drop_in_place$LT$syn..punctuated..Punctuated$LT$syn..pat..Pat$C$syn..token..Or$GT$$GT$17h9cc6b5f7b6d3a555E', symObjAddr: 0x6850, symBinAddr: 0x103840, symSize: 0x120 }
  - { offsetInCU: 0x1C88A, offset: 0x54B3E0, size: 0x8, addend: 0x0, symName: '__ZN4core3ptr87drop_in_place$LT$core..option..Option$LT$alloc..boxed..Box$LT$syn..pat..Pat$GT$$GT$$GT$17h51cd48973d96c411E', symObjAddr: 0x6970, symBinAddr: 0x103960, symSize: 0x50 }
  - { offsetInCU: 0x1C9FA, offset: 0x54B550, size: 0x8, addend: 0x0, symName: '__ZN4core3ptr87drop_in_place$LT$core..option..Option$LT$alloc..boxed..Box$LT$syn..ty..Type$GT$$GT$$GT$17h103a25a4a7d7374eE', symObjAddr: 0x69C0, symBinAddr: 0x1039B0, symSize: 0x50 }
  - { offsetInCU: 0x1CB6A, offset: 0x54B6C0, size: 0x8, addend: 0x0, symName: '__ZN4core3ptr89drop_in_place$LT$core..option..Option$LT$alloc..boxed..Box$LT$syn..expr..Expr$GT$$GT$$GT$17h9e02509cb2345d44E', symObjAddr: 0x6A30, symBinAddr: 0x103A00, symSize: 0x50 }
  - { offsetInCU: 0x1CD18, offset: 0x54B86E, size: 0x8, addend: 0x0, symName: '__ZN4core3ptr89drop_in_place$LT$syn..punctuated..Punctuated$LT$syn..pat..Pat$C$syn..token..Comma$GT$$GT$17hd3a83c36827f210aE', symObjAddr: 0x6A80, symBinAddr: 0x103A50, symSize: 0x120 }
  - { offsetInCU: 0x1D226, offset: 0x54BD7C, size: 0x8, addend: 0x0, symName: '__ZN4core3ptr90drop_in_place$LT$core..option..Option$LT$alloc..boxed..Box$LT$syn..data..Field$GT$$GT$$GT$17h9f1aee8cd56c6727E', symObjAddr: 0x6BA0, symBinAddr: 0x103B70, symSize: 0x1B0 }
  - { offsetInCU: 0x1D940, offset: 0x54C496, size: 0x8, addend: 0x0, symName: '__ZN4core3ptr91drop_in_place$LT$syn..punctuated..Punctuated$LT$syn..expr..Expr$C$syn..token..Comma$GT$$GT$17h6f261e8f470c81f2E', symObjAddr: 0x6D50, symBinAddr: 0x103D20, symSize: 0x120 }
  - { offsetInCU: 0x1DDCE, offset: 0x54C924, size: 0x8, addend: 0x0, symName: '__ZN4core3ptr94drop_in_place$LT$syn..punctuated..Punctuated$LT$syn..pat..FieldPat$C$syn..token..Comma$GT$$GT$17h43ec25af986ef674E', symObjAddr: 0x6F50, symBinAddr: 0x103E40, symSize: 0xF0 }
  - { offsetInCU: 0x1E0CD, offset: 0x54CC23, size: 0x8, addend: 0x0, symName: '__ZN4core3ptr94drop_in_place$LT$syn..punctuated..Punctuated$LT$syn..ty..BareFnArg$C$syn..token..Comma$GT$$GT$17h7ba4c699ee390ebaE', symObjAddr: 0x7040, symBinAddr: 0x103F30, symSize: 0xF0 }
  - { offsetInCU: 0x1E3CE, offset: 0x54CF24, size: 0x8, addend: 0x0, symName: '__ZN4core3ptr96drop_in_place$LT$core..option..Option$LT$alloc..boxed..Box$LT$syn..path..PathSegment$GT$$GT$$GT$17h5de12a5a0f9e9ef9E', symObjAddr: 0x7130, symBinAddr: 0x104020, symSize: 0x1A0 }
  - { offsetInCU: 0x1EA8F, offset: 0x54D5E5, size: 0x8, addend: 0x0, symName: '__ZN4core3ptr97drop_in_place$LT$syn..punctuated..Punctuated$LT$syn..expr..FieldValue$C$syn..token..Comma$GT$$GT$17hf58d0a9a09266ab3E', symObjAddr: 0x72D0, symBinAddr: 0x1041C0, symSize: 0xF0 }
  - { offsetInCU: 0x1EE08, offset: 0x54D95E, size: 0x8, addend: 0x0, symName: '__ZN4core3ptr98drop_in_place$LT$syn..punctuated..Punctuated$LT$syn..lifetime..Lifetime$C$syn..token..Plus$GT$$GT$17h600c2b78f78fd2b9E', symObjAddr: 0x73C0, symBinAddr: 0x1042B0, symSize: 0xD0 }
  - { offsetInCU: 0x2851A, offset: 0x557070, size: 0x8, addend: 0x0, symName: '__ZN3syn4data8printing75_$LT$impl$u20$quote..to_tokens..ToTokens$u20$for$u20$syn..data..Variant$GT$9to_tokens17hedfc9237de218959E', symObjAddr: 0x92F0, symBinAddr: 0x1059F0, symSize: 0x150 }
  - { offsetInCU: 0x2877E, offset: 0x5572D4, size: 0x8, addend: 0x0, symName: '__ZN3syn4data7parsing66_$LT$impl$u20$syn..parse..Parse$u20$for$u20$syn..data..Variant$GT$5parse17he21b56bc9b3b54a4E', symObjAddr: 0x7C80, symBinAddr: 0x104380, symSize: 0x760 }
  - { offsetInCU: 0x295B9, offset: 0x55810F, size: 0x8, addend: 0x0, symName: '__ZN3syn4data7parsing70_$LT$impl$u20$syn..parse..Parse$u20$for$u20$syn..data..FieldsNamed$GT$5parse17h69058e95d450a269E', symObjAddr: 0x83E0, symBinAddr: 0x104AE0, symSize: 0x1B0 }
  - { offsetInCU: 0x298AC, offset: 0x558402, size: 0x8, addend: 0x0, symName: '__ZN3syn4data7parsing72_$LT$impl$u20$syn..parse..Parse$u20$for$u20$syn..data..FieldsUnnamed$GT$5parse17hc8ac056d62f840aeE', symObjAddr: 0x8590, symBinAddr: 0x104C90, symSize: 0x1B0 }
  - { offsetInCU: 0x2C0C6, offset: 0x55AC1C, size: 0x8, addend: 0x0, symName: '__ZN3syn4data7parsing34_$LT$impl$u20$syn..data..Field$GT$11parse_named17h7c12ebc5755e32a2E', symObjAddr: 0x8740, symBinAddr: 0x104E40, symSize: 0x7F0 }
  - { offsetInCU: 0x2D147, offset: 0x55BC9D, size: 0x8, addend: 0x0, symName: '__ZN3syn4data7parsing34_$LT$impl$u20$syn..data..Field$GT$13parse_unnamed17h7a73a63feeb864cbE', symObjAddr: 0x8F30, symBinAddr: 0x105630, symSize: 0x3C0 }
  - { offsetInCU: 0x4AFA, offset: 0x563A3E, size: 0x8, addend: 0x0, symName: '__ZN64_$LT$alloc..boxed..Box$LT$T$GT$$u20$as$u20$syn..parse..Parse$GT$5parse17h16c97e47082dd8f0E', symObjAddr: 0x7D90, symBinAddr: 0x10CEC0, symSize: 0x1A0 }
  - { offsetInCU: 0x817A, offset: 0x5670BE, size: 0x8, addend: 0x0, symName: '__ZN4core3ptr100drop_in_place$LT$core..option..Option$LT$alloc..boxed..Box$LT$syn..path..GenericArgument$GT$$GT$$GT$17h3a7c44b9e57fe410E', symObjAddr: 0x90, symBinAddr: 0x105B40, symSize: 0x50 }
  - { offsetInCU: 0x8518, offset: 0x56745C, size: 0x8, addend: 0x0, symName: '__ZN4core3ptr100drop_in_place$LT$syn..punctuated..Punctuated$LT$syn..path..PathSegment$C$syn..token..PathSep$GT$$GT$17he41ef64147139591E', symObjAddr: 0xE0, symBinAddr: 0x105B90, symSize: 0x2B0 }
  - { offsetInCU: 0x8FCE, offset: 0x567F12, size: 0x8, addend: 0x0, symName: '__ZN4core3ptr103drop_in_place$LT$core..option..Option$LT$alloc..boxed..Box$LT$syn..generics..TypeParamBound$GT$$GT$$GT$17hb14e4384a768542bE', symObjAddr: 0x390, symBinAddr: 0x105E40, symSize: 0x50 }
  - { offsetInCU: 0x91D9, offset: 0x56811D, size: 0x8, addend: 0x0, symName: '__ZN4core3ptr103drop_in_place$LT$syn..punctuated..Punctuated$LT$syn..generics..GenericParam$C$syn..token..Comma$GT$$GT$17h0c6077a988036760E', symObjAddr: 0x3E0, symBinAddr: 0x105E90, symSize: 0xF0 }
  - { offsetInCU: 0x96D4, offset: 0x568618, size: 0x8, addend: 0x0, symName: '__ZN4core3ptr104drop_in_place$LT$syn..punctuated..Punctuated$LT$syn..generics..TypeParamBound$C$syn..token..Plus$GT$$GT$17h724e4d9d1d65061aE', symObjAddr: 0x4D0, symBinAddr: 0x105F80, symSize: 0x190 }
  - { offsetInCU: 0x9D73, offset: 0x568CB7, size: 0x8, addend: 0x0, symName: '__ZN4core3ptr34drop_in_place$LT$syn..lit..Lit$GT$17hd64dde89a262341dE', symObjAddr: 0x660, symBinAddr: 0x106110, symSize: 0x120 }
  - { offsetInCU: 0xA261, offset: 0x5691A5, size: 0x8, addend: 0x0, symName: '__ZN4core3ptr34drop_in_place$LT$syn..pat..Pat$GT$17hf88887878261d63cE', symObjAddr: 0x780, symBinAddr: 0x106230, symSize: 0x1100 }
  - { offsetInCU: 0xE8DA, offset: 0x56D81E, size: 0x8, addend: 0x0, symName: '__ZN4core3ptr34drop_in_place$LT$syn..ty..Type$GT$17ha80dd29b0f9d4a3fE.llvm.8765826069129567590', symObjAddr: 0x1880, symBinAddr: 0x107330, symSize: 0x520 }
  - { offsetInCU: 0xFF30, offset: 0x56EE74, size: 0x8, addend: 0x0, symName: '__ZN4core3ptr36drop_in_place$LT$syn..expr..Expr$GT$17h10f573b40ddd212cE.llvm.8765826069129567590', symObjAddr: 0x1DA0, symBinAddr: 0x107850, symSize: 0x2840 }
  - { offsetInCU: 0x1A00E, offset: 0x578F52, size: 0x8, addend: 0x0, symName: '__ZN4core3ptr36drop_in_place$LT$syn..mac..Macro$GT$17hc3b30a7a8a34cc2dE', symObjAddr: 0x45E0, symBinAddr: 0x10A090, symSize: 0x40 }
  - { offsetInCU: 0x1A048, offset: 0x578F8C, size: 0x8, addend: 0x0, symName: '__ZN4core3ptr36drop_in_place$LT$syn..path..Path$GT$17h75c74a97d5f0a03bE', symObjAddr: 0x4620, symBinAddr: 0x10A0D0, symSize: 0x280 }
  - { offsetInCU: 0x1AAF5, offset: 0x579A39, size: 0x8, addend: 0x0, symName: '__ZN4core3ptr37drop_in_place$LT$syn..stmt..Block$GT$17h6fc3254d5688f2c3E', symObjAddr: 0x48A0, symBinAddr: 0x10A350, symSize: 0xD0 }
  - { offsetInCU: 0x1ADCC, offset: 0x579D10, size: 0x8, addend: 0x0, symName: '__ZN4core3ptr38drop_in_place$LT$syn..expr..Member$GT$17h6b0cf84594ce6bceE', symObjAddr: 0x4970, symBinAddr: 0x10A420, symSize: 0x30 }
  - { offsetInCU: 0x1AEC8, offset: 0x579E0C, size: 0x8, addend: 0x0, symName: '__ZN4core3ptr39drop_in_place$LT$proc_macro2..Ident$GT$17ha28fef9769e267d9E', symObjAddr: 0x49A0, symBinAddr: 0x10A450, symSize: 0x30 }
  - { offsetInCU: 0x1AFA5, offset: 0x579EE9, size: 0x8, addend: 0x0, symName: '__ZN4core3ptr40drop_in_place$LT$syn..ty..ReturnType$GT$17h035a612e322b6510E', symObjAddr: 0x49D0, symBinAddr: 0x10A480, symSize: 0x50 }
  - { offsetInCU: 0x1B115, offset: 0x57A059, size: 0x8, addend: 0x0, symName: '__ZN4core3ptr41drop_in_place$LT$syn..expr..ExprConst$GT$17hbfe19d5d621e6836E', symObjAddr: 0x4A20, symBinAddr: 0x10A4D0, symSize: 0x180 }
  - { offsetInCU: 0x1B702, offset: 0x57A646, size: 0x8, addend: 0x0, symName: '__ZN4core3ptr44drop_in_place$LT$syn..lifetime..Lifetime$GT$17he37fa474f03de7b1E', symObjAddr: 0x4BA0, symBinAddr: 0x10A650, symSize: 0x30 }
  - { offsetInCU: 0x1B934, offset: 0x57A878, size: 0x8, addend: 0x0, symName: '__ZN4core3ptr45drop_in_place$LT$proc_macro2..TokenStream$GT$17h76e8e68015f4924dE', symObjAddr: 0x4BD0, symBinAddr: 0x10A680, symSize: 0x140 }
  - { offsetInCU: 0x1BDCE, offset: 0x57AD12, size: 0x8, addend: 0x0, symName: '__ZN4core3ptr45drop_in_place$LT$syn..generics..TypeParam$GT$17h188a459c1380ac75E', symObjAddr: 0x4D10, symBinAddr: 0x10A7C0, symSize: 0x230 }
  - { offsetInCU: 0x1C643, offset: 0x57B587, size: 0x8, addend: 0x0, symName: '__ZN4core3ptr46drop_in_place$LT$syn..generics..ConstParam$GT$17h7a9b900b2b88bfcdE', symObjAddr: 0x4F40, symBinAddr: 0x10A9F0, symSize: 0x150 }
  - { offsetInCU: 0x1CAC4, offset: 0x57BA08, size: 0x8, addend: 0x0, symName: '__ZN4core3ptr47drop_in_place$LT$syn..path..GenericArgument$GT$17h593f06d6ca9a94d2E', symObjAddr: 0x5090, symBinAddr: 0x10AB40, symSize: 0x4A0 }
  - { offsetInCU: 0x1DBCA, offset: 0x57CB0E, size: 0x8, addend: 0x0, symName: '__ZN4core3ptr49drop_in_place$LT$syn..generics..LifetimeParam$GT$17h3a8835ab294bfd16E', symObjAddr: 0x5530, symBinAddr: 0x10AFE0, symSize: 0xF0 }
  - { offsetInCU: 0x1DFE1, offset: 0x57CF25, size: 0x8, addend: 0x0, symName: '__ZN4core3ptr50drop_in_place$LT$syn..generics..TypeParamBound$GT$17h81b4325b5900604dE', symObjAddr: 0x5620, symBinAddr: 0x10B0D0, symSize: 0x1C0 }
  - { offsetInCU: 0x1E53E, offset: 0x57D482, size: 0x8, addend: 0x0, symName: '__ZN4core3ptr58drop_in_place$LT$alloc..vec..Vec$LT$syn..expr..Arm$GT$$GT$17hff9224aadf2233b8E', symObjAddr: 0x57E0, symBinAddr: 0x10B290, symSize: 0xD0 }
  - { offsetInCU: 0x1E7FE, offset: 0x57D742, size: 0x8, addend: 0x0, symName: '__ZN4core3ptr59drop_in_place$LT$alloc..boxed..Box$LT$syn..pat..Pat$GT$$GT$17h622b0c1db21c0742E', symObjAddr: 0x58B0, symBinAddr: 0x10B360, symSize: 0x50 }
  - { offsetInCU: 0x1E957, offset: 0x57D89B, size: 0x8, addend: 0x0, symName: '__ZN4core3ptr59drop_in_place$LT$alloc..boxed..Box$LT$syn..ty..Type$GT$$GT$17hde45fa887dd8b605E', symObjAddr: 0x5900, symBinAddr: 0x10B3B0, symSize: 0x50 }
  - { offsetInCU: 0x1EAB0, offset: 0x57D9F4, size: 0x8, addend: 0x0, symName: '__ZN4core3ptr61drop_in_place$LT$alloc..boxed..Box$LT$syn..expr..Expr$GT$$GT$17hbb42293869113942E', symObjAddr: 0x5950, symBinAddr: 0x10B400, symSize: 0x50 }
  - { offsetInCU: 0x1EC85, offset: 0x57DBC9, size: 0x8, addend: 0x0, symName: '__ZN4core3ptr61drop_in_place$LT$syn..path..ParenthesizedGenericArguments$GT$17h6b1731382637937fE', symObjAddr: 0x59A0, symBinAddr: 0x10B450, symSize: 0x170 }
  - { offsetInCU: 0x1F27B, offset: 0x57E1BF, size: 0x8, addend: 0x0, symName: '__ZN4core3ptr62drop_in_place$LT$syn..path..AngleBracketedGenericArguments$GT$17hf8fa172f007a1473E', symObjAddr: 0x5B10, symBinAddr: 0x10B5C0, symSize: 0x120 }
  - { offsetInCU: 0x1F6C6, offset: 0x57E60A, size: 0x8, addend: 0x0, symName: '__ZN4core3ptr63drop_in_place$LT$alloc..boxed..Box$LT$syn..lit..LitRepr$GT$$GT$17h6e3a82ea4de7b84cE', symObjAddr: 0x5C30, symBinAddr: 0x10B6E0, symSize: 0x60 }
  - { offsetInCU: 0x1F9CD, offset: 0x57E911, size: 0x8, addend: 0x0, symName: '__ZN4core3ptr64drop_in_place$LT$alloc..boxed..Box$LT$syn..pat..FieldPat$GT$$GT$17hbf8f4867d84bd25dE', symObjAddr: 0x5C90, symBinAddr: 0x10B740, symSize: 0x140 }
  - { offsetInCU: 0x200CE, offset: 0x57F012, size: 0x8, addend: 0x0, symName: '__ZN4core3ptr64drop_in_place$LT$alloc..boxed..Box$LT$syn..ty..BareFnArg$GT$$GT$17h6be6354eb1d1364dE', symObjAddr: 0x5DD0, symBinAddr: 0x10B880, symSize: 0x140 }
  - { offsetInCU: 0x20657, offset: 0x57F59B, size: 0x8, addend: 0x0, symName: '__ZN4core3ptr65drop_in_place$LT$alloc..vec..Vec$LT$proc_macro..TokenTree$GT$$GT$17h8abd81f8596dbc59E', symObjAddr: 0x5F10, symBinAddr: 0x10B9C0, symSize: 0x110 }
  - { offsetInCU: 0x20A4F, offset: 0x57F993, size: 0x8, addend: 0x0, symName: '__ZN4core3ptr65drop_in_place$LT$core..option..Option$LT$syn..expr..Label$GT$$GT$17hac599686b33ef364E', symObjAddr: 0x6020, symBinAddr: 0x10BAD0, symSize: 0x30 }
  - { offsetInCU: 0x20B89, offset: 0x57FACD, size: 0x8, addend: 0x0, symName: '__ZN4core3ptr66drop_in_place$LT$core..option..Option$LT$syn..pat..PatRest$GT$$GT$17hd5bb3bc28aa78ac1E', symObjAddr: 0x6050, symBinAddr: 0x10BB00, symSize: 0xE0 }
  - { offsetInCU: 0x20EB1, offset: 0x57FDF5, size: 0x8, addend: 0x0, symName: '__ZN4core3ptr67drop_in_place$LT$alloc..boxed..Box$LT$syn..expr..FieldValue$GT$$GT$17hbbcf67a9d5e9863cE', symObjAddr: 0x6130, symBinAddr: 0x10BBE0, symSize: 0x140 }
  - { offsetInCU: 0x2141A, offset: 0x58035E, size: 0x8, addend: 0x0, symName: '__ZN4core3ptr68drop_in_place$LT$alloc..boxed..Box$LT$syn..path..PathSegment$GT$$GT$17h99aaf90b3262bc1eE', symObjAddr: 0x6270, symBinAddr: 0x10BD20, symSize: 0x1B0 }
  - { offsetInCU: 0x21B28, offset: 0x580A6C, size: 0x8, addend: 0x0, symName: '__ZN4core3ptr70drop_in_place$LT$core..option..Option$LT$syn..ty..BareVariadic$GT$$GT$17h79a19250e9f043b1E', symObjAddr: 0x6420, symBinAddr: 0x10BED0, symSize: 0x100 }
  - { offsetInCU: 0x21F93, offset: 0x580ED7, size: 0x8, addend: 0x0, symName: '__ZN4core3ptr72drop_in_place$LT$alloc..boxed..Box$LT$syn..path..GenericArgument$GT$$GT$17hfd308d374af4273dE', symObjAddr: 0x6520, symBinAddr: 0x10BFD0, symSize: 0x1D0 }
  - { offsetInCU: 0x2252E, offset: 0x581472, size: 0x8, addend: 0x0, symName: '__ZN4core3ptr72drop_in_place$LT$core..option..Option$LT$syn..lifetime..Lifetime$GT$$GT$17h49cce6f02f9c0590E', symObjAddr: 0x66F0, symBinAddr: 0x10C1A0, symSize: 0x30 }
  - { offsetInCU: 0x22649, offset: 0x58158D, size: 0x8, addend: 0x0, symName: '__ZN4core3ptr73drop_in_place$LT$alloc..boxed..Box$LT$syn..generics..GenericParam$GT$$GT$17ha26d5d145af4b203E', symObjAddr: 0x6720, symBinAddr: 0x10C1D0, symSize: 0x80 }
  - { offsetInCU: 0x227BF, offset: 0x581703, size: 0x8, addend: 0x0, symName: '__ZN4core3ptr75drop_in_place$LT$alloc..boxed..Box$LT$syn..generics..TypeParamBound$GT$$GT$17h129a4e927e5eb81bE', symObjAddr: 0x67A0, symBinAddr: 0x10C250, symSize: 0xC0 }
  - { offsetInCU: 0x22B13, offset: 0x581A57, size: 0x8, addend: 0x0, symName: '__ZN4core3ptr86drop_in_place$LT$syn..punctuated..Punctuated$LT$syn..pat..Pat$C$syn..token..Or$GT$$GT$17h9cc6b5f7b6d3a555E', symObjAddr: 0x6860, symBinAddr: 0x10C310, symSize: 0x120 }
  - { offsetInCU: 0x22F8E, offset: 0x581ED2, size: 0x8, addend: 0x0, symName: '__ZN4core3ptr87drop_in_place$LT$core..option..Option$LT$alloc..boxed..Box$LT$syn..pat..Pat$GT$$GT$$GT$17h51cd48973d96c411E', symObjAddr: 0x6980, symBinAddr: 0x10C430, symSize: 0x50 }
  - { offsetInCU: 0x230FE, offset: 0x582042, size: 0x8, addend: 0x0, symName: '__ZN4core3ptr87drop_in_place$LT$core..option..Option$LT$alloc..boxed..Box$LT$syn..ty..Type$GT$$GT$$GT$17h103a25a4a7d7374eE', symObjAddr: 0x69D0, symBinAddr: 0x10C480, symSize: 0x50 }
  - { offsetInCU: 0x2326E, offset: 0x5821B2, size: 0x8, addend: 0x0, symName: '__ZN4core3ptr89drop_in_place$LT$core..option..Option$LT$alloc..boxed..Box$LT$syn..expr..Expr$GT$$GT$$GT$17h9e02509cb2345d44E', symObjAddr: 0x6A20, symBinAddr: 0x10C4D0, symSize: 0x50 }
  - { offsetInCU: 0x2341C, offset: 0x582360, size: 0x8, addend: 0x0, symName: '__ZN4core3ptr89drop_in_place$LT$syn..punctuated..Punctuated$LT$syn..pat..Pat$C$syn..token..Comma$GT$$GT$17hd3a83c36827f210aE', symObjAddr: 0x6A70, symBinAddr: 0x10C520, symSize: 0x120 }
  - { offsetInCU: 0x238AE, offset: 0x5827F2, size: 0x8, addend: 0x0, symName: '__ZN4core3ptr89drop_in_place$LT$syn..punctuated..Punctuated$LT$syn..ty..Type$C$syn..token..Comma$GT$$GT$17he030c4b7f24a5848E', symObjAddr: 0x6B90, symBinAddr: 0x10C640, symSize: 0x120 }
  - { offsetInCU: 0x23D29, offset: 0x582C6D, size: 0x8, addend: 0x0, symName: '__ZN4core3ptr90drop_in_place$LT$core..option..Option$LT$syn..path..AngleBracketedGenericArguments$GT$$GT$17ha307713a95a0671eE', symObjAddr: 0x6CB0, symBinAddr: 0x10C760, symSize: 0x130 }
  - { offsetInCU: 0x241CB, offset: 0x58310F, size: 0x8, addend: 0x0, symName: '__ZN4core3ptr91drop_in_place$LT$syn..punctuated..Punctuated$LT$syn..expr..Expr$C$syn..token..Comma$GT$$GT$17h6f261e8f470c81f2E', symObjAddr: 0x6DE0, symBinAddr: 0x10C890, symSize: 0x120 }
  - { offsetInCU: 0x24659, offset: 0x58359D, size: 0x8, addend: 0x0, symName: '__ZN4core3ptr94drop_in_place$LT$syn..punctuated..Punctuated$LT$syn..pat..FieldPat$C$syn..token..Comma$GT$$GT$17h43ec25af986ef674E', symObjAddr: 0x6F00, symBinAddr: 0x10C9B0, symSize: 0xF0 }
  - { offsetInCU: 0x24958, offset: 0x58389C, size: 0x8, addend: 0x0, symName: '__ZN4core3ptr94drop_in_place$LT$syn..punctuated..Punctuated$LT$syn..ty..BareFnArg$C$syn..token..Comma$GT$$GT$17h7ba4c699ee390ebaE', symObjAddr: 0x6FF0, symBinAddr: 0x10CAA0, symSize: 0xF0 }
  - { offsetInCU: 0x24C59, offset: 0x583B9D, size: 0x8, addend: 0x0, symName: '__ZN4core3ptr96drop_in_place$LT$core..option..Option$LT$alloc..boxed..Box$LT$syn..path..PathSegment$GT$$GT$$GT$17h5de12a5a0f9e9ef9E', symObjAddr: 0x70E0, symBinAddr: 0x10CB90, symSize: 0xA0 }
  - { offsetInCU: 0x24ED8, offset: 0x583E1C, size: 0x8, addend: 0x0, symName: '__ZN4core3ptr97drop_in_place$LT$syn..punctuated..Punctuated$LT$syn..expr..FieldValue$C$syn..token..Comma$GT$$GT$17hf58d0a9a09266ab3E', symObjAddr: 0x7180, symBinAddr: 0x10CC30, symSize: 0xF0 }
  - { offsetInCU: 0x251D5, offset: 0x584119, size: 0x8, addend: 0x0, symName: '__ZN4core3ptr98drop_in_place$LT$alloc..vec..Vec$LT$$LP$syn..path..GenericArgument$C$syn..token..Comma$RP$$GT$$GT$17h0dee282a026d5a38E', symObjAddr: 0x7270, symBinAddr: 0x10CD20, symSize: 0xD0 }
  - { offsetInCU: 0x25515, offset: 0x584459, size: 0x8, addend: 0x0, symName: '__ZN4core3ptr98drop_in_place$LT$syn..punctuated..Punctuated$LT$syn..lifetime..Lifetime$C$syn..token..Plus$GT$$GT$17h600c2b78f78fd2b9E', symObjAddr: 0x7340, symBinAddr: 0x10CDF0, symSize: 0xD0 }
  - { offsetInCU: 0x1A7B, offset: 0x58BEEA, size: 0x8, addend: 0x0, symName: '__ZN4core3ptr100drop_in_place$LT$core..option..Option$LT$alloc..boxed..Box$LT$syn..path..GenericArgument$GT$$GT$$GT$17h3a7c44b9e57fe410E.llvm.7955335909727030745', symObjAddr: 0x310, symBinAddr: 0x10D060, symSize: 0x50 }
  - { offsetInCU: 0x1E19, offset: 0x58C288, size: 0x8, addend: 0x0, symName: '__ZN4core3ptr100drop_in_place$LT$syn..punctuated..Punctuated$LT$syn..path..PathSegment$C$syn..token..PathSep$GT$$GT$17he41ef64147139591E', symObjAddr: 0x360, symBinAddr: 0x10D0B0, symSize: 0x2B0 }
  - { offsetInCU: 0x28CF, offset: 0x58CD3E, size: 0x8, addend: 0x0, symName: '__ZN4core3ptr103drop_in_place$LT$core..option..Option$LT$alloc..boxed..Box$LT$syn..generics..TypeParamBound$GT$$GT$$GT$17hb14e4384a768542bE', symObjAddr: 0x610, symBinAddr: 0x10D360, symSize: 0x50 }
  - { offsetInCU: 0x2ADA, offset: 0x58CF49, size: 0x8, addend: 0x0, symName: '__ZN4core3ptr103drop_in_place$LT$syn..punctuated..Punctuated$LT$syn..generics..GenericParam$C$syn..token..Comma$GT$$GT$17h0c6077a988036760E.llvm.7955335909727030745', symObjAddr: 0x660, symBinAddr: 0x10D3B0, symSize: 0xF0 }
  - { offsetInCU: 0x2F1B, offset: 0x58D38A, size: 0x8, addend: 0x0, symName: '__ZN4core3ptr104drop_in_place$LT$syn..punctuated..Punctuated$LT$syn..generics..TypeParamBound$C$syn..token..Plus$GT$$GT$17h724e4d9d1d65061aE', symObjAddr: 0x750, symBinAddr: 0x10D4A0, symSize: 0x120 }
  - { offsetInCU: 0x341C, offset: 0x58D88B, size: 0x8, addend: 0x0, symName: '__ZN4core3ptr34drop_in_place$LT$syn..lit..Lit$GT$17hd64dde89a262341dE', symObjAddr: 0x870, symBinAddr: 0x10D5C0, symSize: 0x120 }
  - { offsetInCU: 0x3929, offset: 0x58DD98, size: 0x8, addend: 0x0, symName: '__ZN4core3ptr34drop_in_place$LT$syn..pat..Pat$GT$17hf88887878261d63cE', symObjAddr: 0x990, symBinAddr: 0x10D6E0, symSize: 0x1100 }
  - { offsetInCU: 0x7FFF, offset: 0x59246E, size: 0x8, addend: 0x0, symName: '__ZN4core3ptr34drop_in_place$LT$syn..ty..Type$GT$17ha80dd29b0f9d4a3fE.llvm.7955335909727030745', symObjAddr: 0x1A90, symBinAddr: 0x10E7E0, symSize: 0x520 }
  - { offsetInCU: 0x9655, offset: 0x593AC4, size: 0x8, addend: 0x0, symName: '__ZN4core3ptr36drop_in_place$LT$syn..expr..Expr$GT$17h10f573b40ddd212cE.llvm.7955335909727030745', symObjAddr: 0x1FB0, symBinAddr: 0x10ED00, symSize: 0x2840 }
  - { offsetInCU: 0x13733, offset: 0x59DBA2, size: 0x8, addend: 0x0, symName: '__ZN4core3ptr36drop_in_place$LT$syn..mac..Macro$GT$17hc3b30a7a8a34cc2dE', symObjAddr: 0x47F0, symBinAddr: 0x111540, symSize: 0x40 }
  - { offsetInCU: 0x1376D, offset: 0x59DBDC, size: 0x8, addend: 0x0, symName: '__ZN4core3ptr36drop_in_place$LT$syn..path..Path$GT$17h75c74a97d5f0a03bE.llvm.7955335909727030745', symObjAddr: 0x4830, symBinAddr: 0x111580, symSize: 0x150 }
  - { offsetInCU: 0x13CE8, offset: 0x59E157, size: 0x8, addend: 0x0, symName: '__ZN4core3ptr37drop_in_place$LT$syn..stmt..Block$GT$17h6fc3254d5688f2c3E', symObjAddr: 0x4B00, symBinAddr: 0x1116D0, symSize: 0xD0 }
  - { offsetInCU: 0x13FBF, offset: 0x59E42E, size: 0x8, addend: 0x0, symName: '__ZN4core3ptr39drop_in_place$LT$proc_macro2..Ident$GT$17ha28fef9769e267d9E', symObjAddr: 0x4BD0, symBinAddr: 0x1117A0, symSize: 0x30 }
  - { offsetInCU: 0x1409C, offset: 0x59E50B, size: 0x8, addend: 0x0, symName: '__ZN4core3ptr40drop_in_place$LT$syn..ty..ReturnType$GT$17h035a612e322b6510E', symObjAddr: 0x4C00, symBinAddr: 0x1117D0, symSize: 0x50 }
  - { offsetInCU: 0x14269, offset: 0x59E6D8, size: 0x8, addend: 0x0, symName: '__ZN4core3ptr41drop_in_place$LT$syn..attr..Attribute$GT$17h326c12be3efddb0cE.llvm.7955335909727030745', symObjAddr: 0x4C50, symBinAddr: 0x111820, symSize: 0xA0 }
  - { offsetInCU: 0x142E4, offset: 0x59E753, size: 0x8, addend: 0x0, symName: '__ZN4core3ptr41drop_in_place$LT$syn..expr..ExprConst$GT$17hbfe19d5d621e6836E', symObjAddr: 0x4CF0, symBinAddr: 0x1118C0, symSize: 0x180 }
  - { offsetInCU: 0x14A07, offset: 0x59EE76, size: 0x8, addend: 0x0, symName: '__ZN4core3ptr43drop_in_place$LT$proc_macro2..TokenTree$GT$17h3cbee0aa221130b6E.llvm.7955335909727030745', symObjAddr: 0x4E70, symBinAddr: 0x111A40, symSize: 0xB0 }
  - { offsetInCU: 0x14D62, offset: 0x59F1D1, size: 0x8, addend: 0x0, symName: '__ZN4core3ptr43drop_in_place$LT$syn..path..PathSegment$GT$17h903332e979944cf4E.llvm.7955335909727030745', symObjAddr: 0x4F20, symBinAddr: 0x111AF0, symSize: 0x190 }
  - { offsetInCU: 0x152C6, offset: 0x59F735, size: 0x8, addend: 0x0, symName: '__ZN4core3ptr44drop_in_place$LT$syn..lifetime..Lifetime$GT$17he37fa474f03de7b1E', symObjAddr: 0x50B0, symBinAddr: 0x111C80, symSize: 0x30 }
  - { offsetInCU: 0x1545D, offset: 0x59F8CC, size: 0x8, addend: 0x0, symName: '__ZN4core3ptr45drop_in_place$LT$proc_macro2..TokenStream$GT$17h76e8e68015f4924dE.llvm.7955335909727030745', symObjAddr: 0x50E0, symBinAddr: 0x111CB0, symSize: 0x140 }
  - { offsetInCU: 0x158F7, offset: 0x59FD66, size: 0x8, addend: 0x0, symName: '__ZN4core3ptr45drop_in_place$LT$syn..generics..TypeParam$GT$17h188a459c1380ac75E.llvm.7955335909727030745', symObjAddr: 0x5240, symBinAddr: 0x111DF0, symSize: 0x230 }
  - { offsetInCU: 0x1616C, offset: 0x5A05DB, size: 0x8, addend: 0x0, symName: '__ZN4core3ptr46drop_in_place$LT$syn..generics..ConstParam$GT$17h7a9b900b2b88bfcdE.llvm.7955335909727030745', symObjAddr: 0x5470, symBinAddr: 0x112020, symSize: 0x150 }
  - { offsetInCU: 0x165ED, offset: 0x5A0A5C, size: 0x8, addend: 0x0, symName: '__ZN4core3ptr47drop_in_place$LT$syn..path..GenericArgument$GT$17h593f06d6ca9a94d2E.llvm.7955335909727030745', symObjAddr: 0x55C0, symBinAddr: 0x112170, symSize: 0x4A0 }
  - { offsetInCU: 0x176F3, offset: 0x5A1B62, size: 0x8, addend: 0x0, symName: '__ZN4core3ptr49drop_in_place$LT$syn..generics..LifetimeParam$GT$17h3a8835ab294bfd16E.llvm.7955335909727030745', symObjAddr: 0x5A60, symBinAddr: 0x112610, symSize: 0xF0 }
  - { offsetInCU: 0x17B29, offset: 0x5A1F98, size: 0x8, addend: 0x0, symName: '__ZN4core3ptr50drop_in_place$LT$syn..generics..TypeParamBound$GT$17h81b4325b5900604dE.llvm.7955335909727030745', symObjAddr: 0x5BB0, symBinAddr: 0x112700, symSize: 0x1C0 }
  - { offsetInCU: 0x18099, offset: 0x5A2508, size: 0x8, addend: 0x0, symName: '__ZN4core3ptr58drop_in_place$LT$alloc..vec..Vec$LT$syn..expr..Arm$GT$$GT$17hff9224aadf2233b8E', symObjAddr: 0x5D70, symBinAddr: 0x1128C0, symSize: 0xD0 }
  - { offsetInCU: 0x18359, offset: 0x5A27C8, size: 0x8, addend: 0x0, symName: '__ZN4core3ptr59drop_in_place$LT$alloc..boxed..Box$LT$syn..pat..Pat$GT$$GT$17h622b0c1db21c0742E', symObjAddr: 0x5E40, symBinAddr: 0x112990, symSize: 0x50 }
  - { offsetInCU: 0x184B2, offset: 0x5A2921, size: 0x8, addend: 0x0, symName: '__ZN4core3ptr59drop_in_place$LT$alloc..boxed..Box$LT$syn..ty..Type$GT$$GT$17hde45fa887dd8b605E.llvm.7955335909727030745', symObjAddr: 0x5E90, symBinAddr: 0x1129E0, symSize: 0x50 }
  - { offsetInCU: 0x1860B, offset: 0x5A2A7A, size: 0x8, addend: 0x0, symName: '__ZN4core3ptr61drop_in_place$LT$alloc..boxed..Box$LT$syn..expr..Expr$GT$$GT$17hbb42293869113942E', symObjAddr: 0x5EE0, symBinAddr: 0x112A30, symSize: 0x50 }
  - { offsetInCU: 0x187E0, offset: 0x5A2C4F, size: 0x8, addend: 0x0, symName: '__ZN4core3ptr61drop_in_place$LT$syn..path..ParenthesizedGenericArguments$GT$17h6b1731382637937fE.llvm.7955335909727030745', symObjAddr: 0x5F30, symBinAddr: 0x112A80, symSize: 0x170 }
  - { offsetInCU: 0x18DD6, offset: 0x5A3245, size: 0x8, addend: 0x0, symName: '__ZN4core3ptr62drop_in_place$LT$syn..path..AngleBracketedGenericArguments$GT$17hf8fa172f007a1473E.llvm.7955335909727030745', symObjAddr: 0x60A0, symBinAddr: 0x112BF0, symSize: 0x120 }
  - { offsetInCU: 0x19221, offset: 0x5A3690, size: 0x8, addend: 0x0, symName: '__ZN4core3ptr63drop_in_place$LT$alloc..boxed..Box$LT$syn..lit..LitRepr$GT$$GT$17h6e3a82ea4de7b84cE', symObjAddr: 0x61C0, symBinAddr: 0x112D10, symSize: 0x60 }
  - { offsetInCU: 0x19528, offset: 0x5A3997, size: 0x8, addend: 0x0, symName: '__ZN4core3ptr64drop_in_place$LT$alloc..boxed..Box$LT$syn..pat..FieldPat$GT$$GT$17hbf8f4867d84bd25dE', symObjAddr: 0x6220, symBinAddr: 0x112D70, symSize: 0x140 }
  - { offsetInCU: 0x19C29, offset: 0x5A4098, size: 0x8, addend: 0x0, symName: '__ZN4core3ptr64drop_in_place$LT$alloc..boxed..Box$LT$syn..ty..BareFnArg$GT$$GT$17h6be6354eb1d1364dE', symObjAddr: 0x6360, symBinAddr: 0x112EB0, symSize: 0x140 }
  - { offsetInCU: 0x1A1B2, offset: 0x5A4621, size: 0x8, addend: 0x0, symName: '__ZN4core3ptr65drop_in_place$LT$alloc..vec..Vec$LT$proc_macro..TokenTree$GT$$GT$17h8abd81f8596dbc59E.llvm.7955335909727030745', symObjAddr: 0x64A0, symBinAddr: 0x112FF0, symSize: 0x110 }
  - { offsetInCU: 0x1A5AA, offset: 0x5A4A19, size: 0x8, addend: 0x0, symName: '__ZN4core3ptr65drop_in_place$LT$core..option..Option$LT$syn..expr..Label$GT$$GT$17hac599686b33ef364E', symObjAddr: 0x65B0, symBinAddr: 0x113100, symSize: 0x30 }
  - { offsetInCU: 0x1A6E4, offset: 0x5A4B53, size: 0x8, addend: 0x0, symName: '__ZN4core3ptr66drop_in_place$LT$core..option..Option$LT$syn..pat..PatRest$GT$$GT$17hd5bb3bc28aa78ac1E', symObjAddr: 0x65E0, symBinAddr: 0x113130, symSize: 0xE0 }
  - { offsetInCU: 0x1AA0C, offset: 0x5A4E7B, size: 0x8, addend: 0x0, symName: '__ZN4core3ptr67drop_in_place$LT$alloc..boxed..Box$LT$syn..expr..FieldValue$GT$$GT$17hbbcf67a9d5e9863cE', symObjAddr: 0x66C0, symBinAddr: 0x113210, symSize: 0x140 }
  - { offsetInCU: 0x1AF75, offset: 0x5A53E4, size: 0x8, addend: 0x0, symName: '__ZN4core3ptr67drop_in_place$LT$core..option..Option$LT$proc_macro2..Ident$GT$$GT$17h430b2bec25099623E.llvm.7955335909727030745', symObjAddr: 0x6800, symBinAddr: 0x113350, symSize: 0x30 }
  - { offsetInCU: 0x1B071, offset: 0x5A54E0, size: 0x8, addend: 0x0, symName: '__ZN4core3ptr68drop_in_place$LT$alloc..boxed..Box$LT$syn..path..PathSegment$GT$$GT$17h99aaf90b3262bc1eE', symObjAddr: 0x6830, symBinAddr: 0x113380, symSize: 0x1B0 }
  - { offsetInCU: 0x1B77F, offset: 0x5A5BEE, size: 0x8, addend: 0x0, symName: '__ZN4core3ptr70drop_in_place$LT$core..option..Option$LT$syn..ty..BareVariadic$GT$$GT$17h79a19250e9f043b1E', symObjAddr: 0x69E0, symBinAddr: 0x113530, symSize: 0x100 }
  - { offsetInCU: 0x1BBEA, offset: 0x5A6059, size: 0x8, addend: 0x0, symName: '__ZN4core3ptr72drop_in_place$LT$alloc..boxed..Box$LT$syn..path..GenericArgument$GT$$GT$17hfd308d374af4273dE', symObjAddr: 0x6AE0, symBinAddr: 0x113630, symSize: 0x2B0 }
  - { offsetInCU: 0x1C5A2, offset: 0x5A6A11, size: 0x8, addend: 0x0, symName: '__ZN4core3ptr72drop_in_place$LT$core..option..Option$LT$syn..lifetime..Lifetime$GT$$GT$17h49cce6f02f9c0590E', symObjAddr: 0x6D90, symBinAddr: 0x1138E0, symSize: 0x30 }
  - { offsetInCU: 0x1C6BD, offset: 0x5A6B2C, size: 0x8, addend: 0x0, symName: '__ZN4core3ptr73drop_in_place$LT$alloc..boxed..Box$LT$syn..generics..GenericParam$GT$$GT$17ha26d5d145af4b203E.llvm.7955335909727030745', symObjAddr: 0x6DC0, symBinAddr: 0x113910, symSize: 0x80 }
  - { offsetInCU: 0x1C833, offset: 0x5A6CA2, size: 0x8, addend: 0x0, symName: '__ZN4core3ptr75drop_in_place$LT$alloc..boxed..Box$LT$syn..generics..TypeParamBound$GT$$GT$17h129a4e927e5eb81bE', symObjAddr: 0x6E40, symBinAddr: 0x113990, symSize: 0x50 }
  - { offsetInCU: 0x1C9E9, offset: 0x5A6E58, size: 0x8, addend: 0x0, symName: '__ZN4core3ptr86drop_in_place$LT$syn..punctuated..Punctuated$LT$syn..pat..Pat$C$syn..token..Or$GT$$GT$17h9cc6b5f7b6d3a555E', symObjAddr: 0x6E90, symBinAddr: 0x1139E0, symSize: 0x120 }
  - { offsetInCU: 0x1CE64, offset: 0x5A72D3, size: 0x8, addend: 0x0, symName: '__ZN4core3ptr87drop_in_place$LT$core..option..Option$LT$alloc..boxed..Box$LT$syn..pat..Pat$GT$$GT$$GT$17h51cd48973d96c411E', symObjAddr: 0x6FB0, symBinAddr: 0x113B00, symSize: 0x50 }
  - { offsetInCU: 0x1CFD4, offset: 0x5A7443, size: 0x8, addend: 0x0, symName: '__ZN4core3ptr87drop_in_place$LT$core..option..Option$LT$alloc..boxed..Box$LT$syn..ty..Type$GT$$GT$$GT$17h103a25a4a7d7374eE.llvm.7955335909727030745', symObjAddr: 0x7000, symBinAddr: 0x113B50, symSize: 0x50 }
  - { offsetInCU: 0x1D144, offset: 0x5A75B3, size: 0x8, addend: 0x0, symName: '__ZN4core3ptr89drop_in_place$LT$core..option..Option$LT$alloc..boxed..Box$LT$syn..expr..Expr$GT$$GT$$GT$17h9e02509cb2345d44E', symObjAddr: 0x7050, symBinAddr: 0x113BA0, symSize: 0x50 }
  - { offsetInCU: 0x1D2F2, offset: 0x5A7761, size: 0x8, addend: 0x0, symName: '__ZN4core3ptr89drop_in_place$LT$syn..punctuated..Punctuated$LT$syn..pat..Pat$C$syn..token..Comma$GT$$GT$17hd3a83c36827f210aE', symObjAddr: 0x70A0, symBinAddr: 0x113BF0, symSize: 0x120 }
  - { offsetInCU: 0x1D784, offset: 0x5A7BF3, size: 0x8, addend: 0x0, symName: '__ZN4core3ptr89drop_in_place$LT$syn..punctuated..Punctuated$LT$syn..ty..Type$C$syn..token..Comma$GT$$GT$17he030c4b7f24a5848E', symObjAddr: 0x71C0, symBinAddr: 0x113D10, symSize: 0x120 }
  - { offsetInCU: 0x1DBFF, offset: 0x5A806E, size: 0x8, addend: 0x0, symName: '__ZN4core3ptr90drop_in_place$LT$core..option..Option$LT$syn..path..AngleBracketedGenericArguments$GT$$GT$17ha307713a95a0671eE', symObjAddr: 0x72E0, symBinAddr: 0x113E30, symSize: 0x130 }
  - { offsetInCU: 0x1E0A1, offset: 0x5A8510, size: 0x8, addend: 0x0, symName: '__ZN4core3ptr91drop_in_place$LT$syn..punctuated..Punctuated$LT$syn..expr..Expr$C$syn..token..Comma$GT$$GT$17h6f261e8f470c81f2E', symObjAddr: 0x7410, symBinAddr: 0x113F60, symSize: 0x120 }
  - { offsetInCU: 0x1E52F, offset: 0x5A899E, size: 0x8, addend: 0x0, symName: '__ZN4core3ptr94drop_in_place$LT$syn..punctuated..Punctuated$LT$syn..pat..FieldPat$C$syn..token..Comma$GT$$GT$17h43ec25af986ef674E', symObjAddr: 0x7530, symBinAddr: 0x114080, symSize: 0xF0 }
  - { offsetInCU: 0x1E82E, offset: 0x5A8C9D, size: 0x8, addend: 0x0, symName: '__ZN4core3ptr94drop_in_place$LT$syn..punctuated..Punctuated$LT$syn..ty..BareFnArg$C$syn..token..Comma$GT$$GT$17h7ba4c699ee390ebaE', symObjAddr: 0x7620, symBinAddr: 0x114170, symSize: 0xF0 }
  - { offsetInCU: 0x1EB2F, offset: 0x5A8F9E, size: 0x8, addend: 0x0, symName: '__ZN4core3ptr96drop_in_place$LT$core..option..Option$LT$alloc..boxed..Box$LT$syn..path..PathSegment$GT$$GT$$GT$17h5de12a5a0f9e9ef9E.llvm.7955335909727030745', symObjAddr: 0x7710, symBinAddr: 0x114260, symSize: 0xA0 }
  - { offsetInCU: 0x1EDAE, offset: 0x5A921D, size: 0x8, addend: 0x0, symName: '__ZN4core3ptr97drop_in_place$LT$syn..punctuated..Punctuated$LT$syn..expr..FieldValue$C$syn..token..Comma$GT$$GT$17hf58d0a9a09266ab3E', symObjAddr: 0x77B0, symBinAddr: 0x114300, symSize: 0xF0 }
  - { offsetInCU: 0x1F0AB, offset: 0x5A951A, size: 0x8, addend: 0x0, symName: '__ZN4core3ptr98drop_in_place$LT$alloc..vec..Vec$LT$$LP$syn..path..GenericArgument$C$syn..token..Comma$RP$$GT$$GT$17h0dee282a026d5a38E', symObjAddr: 0x78A0, symBinAddr: 0x1143F0, symSize: 0xD0 }
  - { offsetInCU: 0x1F3EB, offset: 0x5A985A, size: 0x8, addend: 0x0, symName: '__ZN4core3ptr98drop_in_place$LT$syn..punctuated..Punctuated$LT$syn..lifetime..Lifetime$C$syn..token..Plus$GT$$GT$17h600c2b78f78fd2b9E', symObjAddr: 0x7970, symBinAddr: 0x1144C0, symSize: 0xD0 }
  - { offsetInCU: 0x27843, offset: 0x5B1CB2, size: 0x8, addend: 0x0, symName: '__ZN86_$LT$alloc..vec..into_iter..IntoIter$LT$T$C$A$GT$$u20$as$u20$core..ops..drop..Drop$GT$4drop17h01c737b7380b18f7E', symObjAddr: 0x7A90, symBinAddr: 0x114590, symSize: 0xE0 }
  - { offsetInCU: 0x27BAD, offset: 0x5B201C, size: 0x8, addend: 0x0, symName: '__ZN86_$LT$alloc..vec..into_iter..IntoIter$LT$T$C$A$GT$$u20$as$u20$core..ops..drop..Drop$GT$4drop17h131f39fdb6f3bff2E', symObjAddr: 0x7B70, symBinAddr: 0x114670, symSize: 0xF0 }
  - { offsetInCU: 0x27F4F, offset: 0x5B23BE, size: 0x8, addend: 0x0, symName: '__ZN86_$LT$alloc..vec..into_iter..IntoIter$LT$T$C$A$GT$$u20$as$u20$core..ops..drop..Drop$GT$4drop17h15cd32790fe9423aE', symObjAddr: 0x7C60, symBinAddr: 0x114760, symSize: 0xD0 }
  - { offsetInCU: 0x282BC, offset: 0x5B272B, size: 0x8, addend: 0x0, symName: '__ZN86_$LT$alloc..vec..into_iter..IntoIter$LT$T$C$A$GT$$u20$as$u20$core..ops..drop..Drop$GT$4drop17h787fd5412b0330e8E', symObjAddr: 0x7E20, symBinAddr: 0x114830, symSize: 0xD0 }
  - { offsetInCU: 0x28626, offset: 0x5B2A95, size: 0x8, addend: 0x0, symName: '__ZN86_$LT$alloc..vec..into_iter..IntoIter$LT$T$C$A$GT$$u20$as$u20$core..ops..drop..Drop$GT$4drop17h9f73653820e83f2eE', symObjAddr: 0x7EF0, symBinAddr: 0x114900, symSize: 0x110 }
  - { offsetInCU: 0x28A1C, offset: 0x5B2E8B, size: 0x8, addend: 0x0, symName: '__ZN86_$LT$alloc..vec..into_iter..IntoIter$LT$T$C$A$GT$$u20$as$u20$core..ops..drop..Drop$GT$4drop17ha58af8a068bef4e3E', symObjAddr: 0x8000, symBinAddr: 0x114A10, symSize: 0xD0 }
  - { offsetInCU: 0x94B, offset: 0x5B84AD, size: 0x8, addend: 0x0, symName: '__ZN3syn4stmt7parsing64_$LT$impl$u20$syn..parse..Parse$u20$for$u20$syn..stmt..Block$GT$5parse17hf4b94ecaf52ce2c1E', symObjAddr: 0xB6F0, symBinAddr: 0x11FDE0, symSize: 0x1F0 }
  - { offsetInCU: 0xC73, offset: 0x5B87D5, size: 0x8, addend: 0x0, symName: '__ZN3syn4stmt8printing72_$LT$impl$u20$quote..to_tokens..ToTokens$u20$for$u20$syn..stmt..Stmt$GT$9to_tokens17hd89e4ad8b5b328f7E', symObjAddr: 0xB920, symBinAddr: 0x11FFD0, symSize: 0x1F0 }
  - { offsetInCU: 0x11FB, offset: 0x5B8D5D, size: 0x8, addend: 0x0, symName: '__ZN3syn4stmt8printing73_$LT$impl$u20$quote..to_tokens..ToTokens$u20$for$u20$syn..stmt..Local$GT$9to_tokens17hd98b8152860f91baE', symObjAddr: 0xBB10, symBinAddr: 0x1201C0, symSize: 0x3A0 }
  - { offsetInCU: 0x7E50, offset: 0x5BF9B2, size: 0x8, addend: 0x0, symName: '__ZN4core3ptr100drop_in_place$LT$core..option..Option$LT$alloc..boxed..Box$LT$syn..path..GenericArgument$GT$$GT$$GT$17h3a7c44b9e57fe410E', symObjAddr: 0x210, symBinAddr: 0x114AE0, symSize: 0x50 }
  - { offsetInCU: 0x81EE, offset: 0x5BFD50, size: 0x8, addend: 0x0, symName: '__ZN4core3ptr100drop_in_place$LT$syn..punctuated..Punctuated$LT$syn..path..PathSegment$C$syn..token..PathSep$GT$$GT$17he41ef64147139591E', symObjAddr: 0x260, symBinAddr: 0x114B30, symSize: 0x2B0 }
  - { offsetInCU: 0x8CA4, offset: 0x5C0806, size: 0x8, addend: 0x0, symName: '__ZN4core3ptr103drop_in_place$LT$core..option..Option$LT$alloc..boxed..Box$LT$syn..generics..TypeParamBound$GT$$GT$$GT$17hb14e4384a768542bE', symObjAddr: 0x510, symBinAddr: 0x114DE0, symSize: 0x50 }
  - { offsetInCU: 0x8EED, offset: 0x5C0A4F, size: 0x8, addend: 0x0, symName: '__ZN4core3ptr103drop_in_place$LT$core..option..Option$LT$alloc..boxed..Box$LT$syn..generics..WherePredicate$GT$$GT$$GT$17he190813f4819c5dbE', symObjAddr: 0x560, symBinAddr: 0x114E30, symSize: 0xD0 }
  - { offsetInCU: 0x9281, offset: 0x5C0DE3, size: 0x8, addend: 0x0, symName: '__ZN4core3ptr103drop_in_place$LT$syn..punctuated..Punctuated$LT$syn..generics..GenericParam$C$syn..token..Comma$GT$$GT$17h0c6077a988036760E', symObjAddr: 0x630, symBinAddr: 0x114F00, symSize: 0xF0 }
  - { offsetInCU: 0x971F, offset: 0x5C1281, size: 0x8, addend: 0x0, symName: '__ZN4core3ptr104drop_in_place$LT$syn..punctuated..Punctuated$LT$syn..generics..TypeParamBound$C$syn..token..Plus$GT$$GT$17h724e4d9d1d65061aE', symObjAddr: 0x720, symBinAddr: 0x114FF0, symSize: 0x190 }
  - { offsetInCU: 0x9D42, offset: 0x5C18A4, size: 0x8, addend: 0x0, symName: '__ZN4core3ptr115drop_in_place$LT$core..option..Option$LT$$LP$alloc..boxed..Box$LT$syn..pat..Pat$GT$$C$syn..token..Colon$RP$$GT$$GT$17h787822396d5dcd7bE', symObjAddr: 0x8B0, symBinAddr: 0x115180, symSize: 0x50 }
  - { offsetInCU: 0x9F10, offset: 0x5C1A72, size: 0x8, addend: 0x0, symName: '__ZN4core3ptr115drop_in_place$LT$core..option..Option$LT$$LP$syn..token..Brace$C$alloc..vec..Vec$LT$syn..item..Item$GT$$RP$$GT$$GT$17h4f61046186bbd7c9E', symObjAddr: 0x900, symBinAddr: 0x1151D0, symSize: 0xD0 }
  - { offsetInCU: 0xA227, offset: 0x5C1D89, size: 0x8, addend: 0x0, symName: '__ZN4core3ptr116drop_in_place$LT$core..option..Option$LT$$LP$syn..token..Else$C$alloc..boxed..Box$LT$syn..expr..Expr$GT$$RP$$GT$$GT$17h60c68b89176741daE', symObjAddr: 0x9D0, symBinAddr: 0x1152A0, symSize: 0x50 }
  - { offsetInCU: 0xA3EC, offset: 0x5C1F4E, size: 0x8, addend: 0x0, symName: '__ZN4core3ptr126drop_in_place$LT$core..option..Option$LT$$LP$syn..token..And$C$core..option..Option$LT$syn..lifetime..Lifetime$GT$$RP$$GT$$GT$17h45c5d73e12cdf6f0E', symObjAddr: 0xA20, symBinAddr: 0x1152F0, symSize: 0x30 }
  - { offsetInCU: 0xA5FF, offset: 0x5C2161, size: 0x8, addend: 0x0, symName: '__ZN4core3ptr34drop_in_place$LT$syn..lit..Lit$GT$17hd64dde89a262341dE', symObjAddr: 0xA50, symBinAddr: 0x115320, symSize: 0x120 }
  - { offsetInCU: 0xAAAF, offset: 0x5C2611, size: 0x8, addend: 0x0, symName: '__ZN4core3ptr34drop_in_place$LT$syn..pat..Pat$GT$17hf88887878261d63cE.llvm.14439054045321439521', symObjAddr: 0xB70, symBinAddr: 0x115440, symSize: 0x1100 }
  - { offsetInCU: 0xF109, offset: 0x5C6C6B, size: 0x8, addend: 0x0, symName: '__ZN4core3ptr34drop_in_place$LT$syn..ty..Type$GT$17ha80dd29b0f9d4a3fE', symObjAddr: 0x1C70, symBinAddr: 0x116540, symSize: 0x520 }
  - { offsetInCU: 0x10740, offset: 0x5C82A2, size: 0x8, addend: 0x0, symName: '__ZN4core3ptr36drop_in_place$LT$syn..expr..Expr$GT$17h10f573b40ddd212cE.llvm.14439054045321439521', symObjAddr: 0x2190, symBinAddr: 0x116A60, symSize: 0x2840 }
  - { offsetInCU: 0x1ACB9, offset: 0x5D281B, size: 0x8, addend: 0x0, symName: '__ZN4core3ptr36drop_in_place$LT$syn..item..Item$GT$17haa59cf9e39ab8cebE', symObjAddr: 0x49D0, symBinAddr: 0x1192A0, symSize: 0x1970 }
  - { offsetInCU: 0x20FF3, offset: 0x5D8B55, size: 0x8, addend: 0x0, symName: '__ZN4core3ptr36drop_in_place$LT$syn..mac..Macro$GT$17hc3b30a7a8a34cc2dE', symObjAddr: 0x6340, symBinAddr: 0x11AC10, symSize: 0x40 }
  - { offsetInCU: 0x2102D, offset: 0x5D8B8F, size: 0x8, addend: 0x0, symName: '__ZN4core3ptr36drop_in_place$LT$syn..path..Path$GT$17h75c74a97d5f0a03bE', symObjAddr: 0x6380, symBinAddr: 0x11AC50, symSize: 0x280 }
  - { offsetInCU: 0x21B18, offset: 0x5D967A, size: 0x8, addend: 0x0, symName: '__ZN4core3ptr36drop_in_place$LT$syn..stmt..Stmt$GT$17hc4f94563f060e25dE', symObjAddr: 0x6600, symBinAddr: 0x11AED0, symSize: 0x230 }
  - { offsetInCU: 0x2216A, offset: 0x5D9CCC, size: 0x8, addend: 0x0, symName: '__ZN4core3ptr37drop_in_place$LT$syn..stmt..Block$GT$17h6fc3254d5688f2c3E', symObjAddr: 0x6830, symBinAddr: 0x11B100, symSize: 0xD0 }
  - { offsetInCU: 0x22460, offset: 0x5D9FC2, size: 0x8, addend: 0x0, symName: '__ZN4core3ptr38drop_in_place$LT$syn..data..Fields$GT$17h79840861dd1f691dE', symObjAddr: 0x6900, symBinAddr: 0x11B1D0, symSize: 0x190 }
  - { offsetInCU: 0x228AA, offset: 0x5DA40C, size: 0x8, addend: 0x0, symName: '__ZN4core3ptr38drop_in_place$LT$syn..expr..Member$GT$17h6b0cf84594ce6bceE', symObjAddr: 0x6A90, symBinAddr: 0x11B360, symSize: 0x30 }
  - { offsetInCU: 0x229A6, offset: 0x5DA508, size: 0x8, addend: 0x0, symName: '__ZN4core3ptr39drop_in_place$LT$proc_macro2..Ident$GT$17ha28fef9769e267d9E', symObjAddr: 0x6AC0, symBinAddr: 0x11B390, symSize: 0x30 }
  - { offsetInCU: 0x22B9A, offset: 0x5DA6FC, size: 0x8, addend: 0x0, symName: '__ZN4core3ptr39drop_in_place$LT$syn..item..UseTree$GT$17h7288572c631f954aE', symObjAddr: 0x6AF0, symBinAddr: 0x11B3C0, symSize: 0x1E0 }
  - { offsetInCU: 0x232CB, offset: 0x5DAE2D, size: 0x8, addend: 0x0, symName: '__ZN4core3ptr40drop_in_place$LT$syn..ty..ReturnType$GT$17h035a612e322b6510E', symObjAddr: 0x6CD0, symBinAddr: 0x11B5A0, symSize: 0x50 }
  - { offsetInCU: 0x2343B, offset: 0x5DAF9D, size: 0x8, addend: 0x0, symName: '__ZN4core3ptr41drop_in_place$LT$syn..expr..ExprConst$GT$17hbfe19d5d621e6836E', symObjAddr: 0x6D20, symBinAddr: 0x11B5F0, symSize: 0x180 }
  - { offsetInCU: 0x23A85, offset: 0x5DB5E7, size: 0x8, addend: 0x0, symName: '__ZN4core3ptr41drop_in_place$LT$syn..item..Signature$GT$17h41f785211ad8eb02E', symObjAddr: 0x6EA0, symBinAddr: 0x11B770, symSize: 0x230 }
  - { offsetInCU: 0x24324, offset: 0x5DBE86, size: 0x8, addend: 0x0, symName: '__ZN4core3ptr43drop_in_place$LT$syn..data..FieldsNamed$GT$17h56bef6f151514865E', symObjAddr: 0x70D0, symBinAddr: 0x11B9A0, symSize: 0xE0 }
  - { offsetInCU: 0x2464A, offset: 0x5DC1AC, size: 0x8, addend: 0x0, symName: '__ZN4core3ptr44drop_in_place$LT$syn..generics..Generics$GT$17h671de917167f8b66E', symObjAddr: 0x71B0, symBinAddr: 0x11BA80, symSize: 0x40 }
  - { offsetInCU: 0x24667, offset: 0x5DC1C9, size: 0x8, addend: 0x0, symName: '__ZN4core3ptr44drop_in_place$LT$syn..lifetime..Lifetime$GT$17he37fa474f03de7b1E', symObjAddr: 0x71F0, symBinAddr: 0x11BAC0, symSize: 0x30 }
  - { offsetInCU: 0x247DF, offset: 0x5DC341, size: 0x8, addend: 0x0, symName: '__ZN4core3ptr44drop_in_place$LT$syn..parse..ParseBuffer$GT$17hf792ff20095efc35E.llvm.14439054045321439521', symObjAddr: 0x7220, symBinAddr: 0x11BAF0, symSize: 0x70 }
  - { offsetInCU: 0x24BF6, offset: 0x5DC758, size: 0x8, addend: 0x0, symName: '__ZN4core3ptr45drop_in_place$LT$proc_macro2..TokenStream$GT$17h76e8e68015f4924dE', symObjAddr: 0x7290, symBinAddr: 0x11BB60, symSize: 0x140 }
  - { offsetInCU: 0x25090, offset: 0x5DCBF2, size: 0x8, addend: 0x0, symName: '__ZN4core3ptr45drop_in_place$LT$syn..generics..TypeParam$GT$17h188a459c1380ac75E', symObjAddr: 0x73D0, symBinAddr: 0x11BCA0, symSize: 0x230 }
  - { offsetInCU: 0x25905, offset: 0x5DD467, size: 0x8, addend: 0x0, symName: '__ZN4core3ptr46drop_in_place$LT$syn..generics..ConstParam$GT$17h7a9b900b2b88bfcdE', symObjAddr: 0x7600, symBinAddr: 0x11BED0, symSize: 0x150 }
  - { offsetInCU: 0x25D86, offset: 0x5DD8E8, size: 0x8, addend: 0x0, symName: '__ZN4core3ptr47drop_in_place$LT$syn..path..GenericArgument$GT$17h593f06d6ca9a94d2E', symObjAddr: 0x7750, symBinAddr: 0x11C020, symSize: 0x4A0 }
  - { offsetInCU: 0x26E8C, offset: 0x5DE9EE, size: 0x8, addend: 0x0, symName: '__ZN4core3ptr49drop_in_place$LT$syn..generics..LifetimeParam$GT$17h3a8835ab294bfd16E', symObjAddr: 0x7BF0, symBinAddr: 0x11C4C0, symSize: 0xF0 }
  - { offsetInCU: 0x272A3, offset: 0x5DEE05, size: 0x8, addend: 0x0, symName: '__ZN4core3ptr49drop_in_place$LT$syn..restriction..Visibility$GT$17h3e52b998838defb1E', symObjAddr: 0x7CE0, symBinAddr: 0x11C5B0, symSize: 0x60 }
  - { offsetInCU: 0x27414, offset: 0x5DEF76, size: 0x8, addend: 0x0, symName: '__ZN4core3ptr50drop_in_place$LT$syn..generics..TypeParamBound$GT$17h81b4325b5900604dE', symObjAddr: 0x7D40, symBinAddr: 0x11C610, symSize: 0x1C0 }
  - { offsetInCU: 0x27971, offset: 0x5DF4D3, size: 0x8, addend: 0x0, symName: '__ZN4core3ptr58drop_in_place$LT$alloc..vec..Vec$LT$syn..expr..Arm$GT$$GT$17hff9224aadf2233b8E', symObjAddr: 0x7F00, symBinAddr: 0x11C7D0, symSize: 0xD0 }
  - { offsetInCU: 0x27C31, offset: 0x5DF793, size: 0x8, addend: 0x0, symName: '__ZN4core3ptr59drop_in_place$LT$alloc..boxed..Box$LT$syn..pat..Pat$GT$$GT$17h622b0c1db21c0742E', symObjAddr: 0x7FD0, symBinAddr: 0x11C8A0, symSize: 0x50 }
  - { offsetInCU: 0x27D8A, offset: 0x5DF8EC, size: 0x8, addend: 0x0, symName: '__ZN4core3ptr59drop_in_place$LT$alloc..boxed..Box$LT$syn..ty..Type$GT$$GT$17hde45fa887dd8b605E', symObjAddr: 0x8020, symBinAddr: 0x11C8F0, symSize: 0x50 }
  - { offsetInCU: 0x27EE3, offset: 0x5DFA45, size: 0x8, addend: 0x0, symName: '__ZN4core3ptr59drop_in_place$LT$alloc..vec..Vec$LT$syn..stmt..Stmt$GT$$GT$17h6cf3e54f41bc03bdE.llvm.14439054045321439521', symObjAddr: 0x8070, symBinAddr: 0x11C940, symSize: 0xD0 }
  - { offsetInCU: 0x281A3, offset: 0x5DFD05, size: 0x8, addend: 0x0, symName: '__ZN4core3ptr61drop_in_place$LT$alloc..boxed..Box$LT$syn..expr..Expr$GT$$GT$17hbb42293869113942E.llvm.14439054045321439521', symObjAddr: 0x8140, symBinAddr: 0x11CA10, symSize: 0x50 }
  - { offsetInCU: 0x28378, offset: 0x5DFEDA, size: 0x8, addend: 0x0, symName: '__ZN4core3ptr61drop_in_place$LT$syn..path..ParenthesizedGenericArguments$GT$17h6b1731382637937fE', symObjAddr: 0x8190, symBinAddr: 0x11CA60, symSize: 0x170 }
  - { offsetInCU: 0x2896E, offset: 0x5E04D0, size: 0x8, addend: 0x0, symName: '__ZN4core3ptr62drop_in_place$LT$alloc..boxed..Box$LT$syn..stmt..Block$GT$$GT$17h21dcb5adf0237a12E', symObjAddr: 0x8300, symBinAddr: 0x11CBD0, symSize: 0xE0 }
  - { offsetInCU: 0x28D7C, offset: 0x5E08DE, size: 0x8, addend: 0x0, symName: '__ZN4core3ptr62drop_in_place$LT$syn..path..AngleBracketedGenericArguments$GT$17hf8fa172f007a1473E', symObjAddr: 0x83E0, symBinAddr: 0x11CCB0, symSize: 0x120 }
  - { offsetInCU: 0x291C7, offset: 0x5E0D29, size: 0x8, addend: 0x0, symName: '__ZN4core3ptr63drop_in_place$LT$alloc..boxed..Box$LT$syn..lit..LitRepr$GT$$GT$17h6e3a82ea4de7b84cE', symObjAddr: 0x8500, symBinAddr: 0x11CDD0, symSize: 0x60 }
  - { offsetInCU: 0x29490, offset: 0x5E0FF2, size: 0x8, addend: 0x0, symName: '__ZN4core3ptr63drop_in_place$LT$alloc..vec..Vec$LT$syn..item..ImplItem$GT$$GT$17hc51fca07e67d35aeE', symObjAddr: 0x8560, symBinAddr: 0x11CE30, symSize: 0x80 }
  - { offsetInCU: 0x29748, offset: 0x5E12AA, size: 0x8, addend: 0x0, symName: '__ZN4core3ptr64drop_in_place$LT$alloc..boxed..Box$LT$syn..item..UseTree$GT$$GT$17he4d7024582150632E', symObjAddr: 0x85E0, symBinAddr: 0x11CEB0, symSize: 0x50 }
  - { offsetInCU: 0x298DF, offset: 0x5E1441, size: 0x8, addend: 0x0, symName: '__ZN4core3ptr64drop_in_place$LT$alloc..boxed..Box$LT$syn..pat..FieldPat$GT$$GT$17hbf8f4867d84bd25dE', symObjAddr: 0x8630, symBinAddr: 0x11CF00, symSize: 0x140 }
  - { offsetInCU: 0x29FE0, offset: 0x5E1B42, size: 0x8, addend: 0x0, symName: '__ZN4core3ptr64drop_in_place$LT$alloc..boxed..Box$LT$syn..ty..BareFnArg$GT$$GT$17h6be6354eb1d1364dE', symObjAddr: 0x8770, symBinAddr: 0x11D040, symSize: 0x140 }
  - { offsetInCU: 0x2A569, offset: 0x5E20CB, size: 0x8, addend: 0x0, symName: '__ZN4core3ptr64drop_in_place$LT$alloc..vec..Vec$LT$syn..item..TraitItem$GT$$GT$17hff1cc01ccae80d7aE', symObjAddr: 0x8980, symBinAddr: 0x11D180, symSize: 0x80 }
  - { offsetInCU: 0x2A821, offset: 0x5E2383, size: 0x8, addend: 0x0, symName: '__ZN4core3ptr65drop_in_place$LT$alloc..vec..Vec$LT$proc_macro..TokenTree$GT$$GT$17h8abd81f8596dbc59E', symObjAddr: 0x8A00, symBinAddr: 0x11D200, symSize: 0x110 }
  - { offsetInCU: 0x2AC19, offset: 0x5E277B, size: 0x8, addend: 0x0, symName: '__ZN4core3ptr65drop_in_place$LT$core..option..Option$LT$syn..expr..Label$GT$$GT$17hac599686b33ef364E', symObjAddr: 0x8B10, symBinAddr: 0x11D310, symSize: 0x30 }
  - { offsetInCU: 0x2AD53, offset: 0x5E28B5, size: 0x8, addend: 0x0, symName: '__ZN4core3ptr66drop_in_place$LT$alloc..vec..Vec$LT$syn..item..ForeignItem$GT$$GT$17h1f176e04eaf5e0dfE', symObjAddr: 0x8B40, symBinAddr: 0x11D340, symSize: 0x80 }
  - { offsetInCU: 0x2B00B, offset: 0x5E2B6D, size: 0x8, addend: 0x0, symName: '__ZN4core3ptr66drop_in_place$LT$core..option..Option$LT$syn..pat..PatRest$GT$$GT$17hd5bb3bc28aa78ac1E', symObjAddr: 0x8BC0, symBinAddr: 0x11D3C0, symSize: 0xE0 }
  - { offsetInCU: 0x2B333, offset: 0x5E2E95, size: 0x8, addend: 0x0, symName: '__ZN4core3ptr67drop_in_place$LT$alloc..boxed..Box$LT$syn..expr..FieldValue$GT$$GT$17hbbcf67a9d5e9863cE', symObjAddr: 0x8CA0, symBinAddr: 0x11D4A0, symSize: 0x140 }
  - { offsetInCU: 0x2B89C, offset: 0x5E33FE, size: 0x8, addend: 0x0, symName: '__ZN4core3ptr68drop_in_place$LT$alloc..boxed..Box$LT$syn..path..PathSegment$GT$$GT$17h99aaf90b3262bc1eE', symObjAddr: 0x8DE0, symBinAddr: 0x11D5E0, symSize: 0x1B0 }
  - { offsetInCU: 0x2BFC9, offset: 0x5E3B2B, size: 0x8, addend: 0x0, symName: '__ZN4core3ptr68drop_in_place$LT$core..option..Option$LT$syn..item..Variadic$GT$$GT$17hbfd9a809a8c7f20eE', symObjAddr: 0x8F90, symBinAddr: 0x11D790, symSize: 0x120 }
  - { offsetInCU: 0x2C47D, offset: 0x5E3FDF, size: 0x8, addend: 0x0, symName: '__ZN4core3ptr69drop_in_place$LT$core..option..Option$LT$syn..stmt..LocalInit$GT$$GT$17h0978f9ea6e6b3bd1E', symObjAddr: 0x90B0, symBinAddr: 0x11D8B0, symSize: 0xC0 }
  - { offsetInCU: 0x2C79F, offset: 0x5E4301, size: 0x8, addend: 0x0, symName: '__ZN4core3ptr70drop_in_place$LT$core..option..Option$LT$syn..ty..BareVariadic$GT$$GT$17h79a19250e9f043b1E', symObjAddr: 0x9170, symBinAddr: 0x11D970, symSize: 0x100 }
  - { offsetInCU: 0x2CC0A, offset: 0x5E476C, size: 0x8, addend: 0x0, symName: '__ZN4core3ptr72drop_in_place$LT$alloc..boxed..Box$LT$syn..path..GenericArgument$GT$$GT$17hfd308d374af4273dE', symObjAddr: 0x9270, symBinAddr: 0x11DA70, symSize: 0x1D0 }
  - { offsetInCU: 0x2D1A5, offset: 0x5E4D07, size: 0x8, addend: 0x0, symName: '__ZN4core3ptr72drop_in_place$LT$core..option..Option$LT$syn..lifetime..Lifetime$GT$$GT$17h49cce6f02f9c0590E', symObjAddr: 0x9440, symBinAddr: 0x11DC40, symSize: 0x30 }
  - { offsetInCU: 0x2D2C0, offset: 0x5E4E22, size: 0x8, addend: 0x0, symName: '__ZN4core3ptr73drop_in_place$LT$alloc..boxed..Box$LT$syn..generics..GenericParam$GT$$GT$17ha26d5d145af4b203E', symObjAddr: 0x9470, symBinAddr: 0x11DC70, symSize: 0x80 }
  - { offsetInCU: 0x2D436, offset: 0x5E4F98, size: 0x8, addend: 0x0, symName: '__ZN4core3ptr75drop_in_place$LT$alloc..boxed..Box$LT$syn..generics..TypeParamBound$GT$$GT$17h129a4e927e5eb81bE', symObjAddr: 0x94F0, symBinAddr: 0x11DCF0, symSize: 0xC0 }
  - { offsetInCU: 0x2D7A9, offset: 0x5E530B, size: 0x8, addend: 0x0, symName: '__ZN4core3ptr75drop_in_place$LT$core..option..Option$LT$syn..generics..WhereClause$GT$$GT$17haaf63f327098cdccE', symObjAddr: 0x95B0, symBinAddr: 0x11DDB0, symSize: 0x90 }
  - { offsetInCU: 0x2DA9D, offset: 0x5E55FF, size: 0x8, addend: 0x0, symName: '__ZN4core3ptr86drop_in_place$LT$syn..punctuated..Punctuated$LT$syn..pat..Pat$C$syn..token..Or$GT$$GT$17h9cc6b5f7b6d3a555E', symObjAddr: 0x9640, symBinAddr: 0x11DE40, symSize: 0x120 }
  - { offsetInCU: 0x2DF18, offset: 0x5E5A7A, size: 0x8, addend: 0x0, symName: '__ZN4core3ptr87drop_in_place$LT$core..option..Option$LT$alloc..boxed..Box$LT$syn..pat..Pat$GT$$GT$$GT$17h51cd48973d96c411E', symObjAddr: 0x9760, symBinAddr: 0x11DF60, symSize: 0x50 }
  - { offsetInCU: 0x2E088, offset: 0x5E5BEA, size: 0x8, addend: 0x0, symName: '__ZN4core3ptr87drop_in_place$LT$core..option..Option$LT$alloc..boxed..Box$LT$syn..ty..Type$GT$$GT$$GT$17h103a25a4a7d7374eE', symObjAddr: 0x97B0, symBinAddr: 0x11DFB0, symSize: 0x50 }
  - { offsetInCU: 0x2E1F8, offset: 0x5E5D5A, size: 0x8, addend: 0x0, symName: '__ZN4core3ptr89drop_in_place$LT$core..option..Option$LT$alloc..boxed..Box$LT$syn..expr..Expr$GT$$GT$$GT$17h9e02509cb2345d44E', symObjAddr: 0x9800, symBinAddr: 0x11E000, symSize: 0x50 }
  - { offsetInCU: 0x2E3A6, offset: 0x5E5F08, size: 0x8, addend: 0x0, symName: '__ZN4core3ptr89drop_in_place$LT$syn..punctuated..Punctuated$LT$syn..pat..Pat$C$syn..token..Comma$GT$$GT$17hd3a83c36827f210aE', symObjAddr: 0x9850, symBinAddr: 0x11E050, symSize: 0x120 }
  - { offsetInCU: 0x2E838, offset: 0x5E639A, size: 0x8, addend: 0x0, symName: '__ZN4core3ptr89drop_in_place$LT$syn..punctuated..Punctuated$LT$syn..ty..Type$C$syn..token..Comma$GT$$GT$17he030c4b7f24a5848E', symObjAddr: 0x9970, symBinAddr: 0x11E170, symSize: 0x120 }
  - { offsetInCU: 0x2ECF1, offset: 0x5E6853, size: 0x8, addend: 0x0, symName: '__ZN4core3ptr90drop_in_place$LT$core..option..Option$LT$alloc..boxed..Box$LT$syn..data..Field$GT$$GT$$GT$17h9f1aee8cd56c6727E', symObjAddr: 0x9A90, symBinAddr: 0x11E290, symSize: 0x1B0 }
  - { offsetInCU: 0x2F440, offset: 0x5E6FA2, size: 0x8, addend: 0x0, symName: '__ZN4core3ptr90drop_in_place$LT$core..option..Option$LT$alloc..boxed..Box$LT$syn..item..FnArg$GT$$GT$$GT$17h8635495a730dc0bfE', symObjAddr: 0x9C40, symBinAddr: 0x11E440, symSize: 0x250 }
  - { offsetInCU: 0x2FE98, offset: 0x5E79FA, size: 0x8, addend: 0x0, symName: '__ZN4core3ptr90drop_in_place$LT$core..option..Option$LT$syn..path..AngleBracketedGenericArguments$GT$$GT$17ha307713a95a0671eE', symObjAddr: 0x9E90, symBinAddr: 0x11E690, symSize: 0x130 }
  - { offsetInCU: 0x3033A, offset: 0x5E7E9C, size: 0x8, addend: 0x0, symName: '__ZN4core3ptr91drop_in_place$LT$syn..punctuated..Punctuated$LT$syn..expr..Expr$C$syn..token..Comma$GT$$GT$17h6f261e8f470c81f2E', symObjAddr: 0x9FC0, symBinAddr: 0x11E7C0, symSize: 0x120 }
  - { offsetInCU: 0x307C8, offset: 0x5E832A, size: 0x8, addend: 0x0, symName: '__ZN4core3ptr92drop_in_place$LT$core..option..Option$LT$$LP$syn..token..As$C$proc_macro2..Ident$RP$$GT$$GT$17h12a88945917fa9dbE', symObjAddr: 0xA0E0, symBinAddr: 0x11E8E0, symSize: 0x30 }
  - { offsetInCU: 0x3095F, offset: 0x5E84C1, size: 0x8, addend: 0x0, symName: '__ZN4core3ptr92drop_in_place$LT$core..option..Option$LT$alloc..boxed..Box$LT$syn..data..Variant$GT$$GT$$GT$17hb65f9b5d99f448afE', symObjAddr: 0xA110, symBinAddr: 0x11E910, symSize: 0x170 }
  - { offsetInCU: 0x30F2E, offset: 0x5E8A90, size: 0x8, addend: 0x0, symName: '__ZN4core3ptr92drop_in_place$LT$syn..punctuated..Punctuated$LT$syn..item..FnArg$C$syn..token..Comma$GT$$GT$17h7de33e77eabaea82E', symObjAddr: 0xA280, symBinAddr: 0x11EA80, symSize: 0xE0 }
  - { offsetInCU: 0x31229, offset: 0x5E8D8B, size: 0x8, addend: 0x0, symName: '__ZN4core3ptr94drop_in_place$LT$syn..punctuated..Punctuated$LT$syn..data..Variant$C$syn..token..Comma$GT$$GT$17h310cd79aba4529ccE', symObjAddr: 0xA360, symBinAddr: 0x11EB60, symSize: 0xE0 }
  - { offsetInCU: 0x3152C, offset: 0x5E908E, size: 0x8, addend: 0x0, symName: '__ZN4core3ptr94drop_in_place$LT$syn..punctuated..Punctuated$LT$syn..pat..FieldPat$C$syn..token..Comma$GT$$GT$17h43ec25af986ef674E', symObjAddr: 0xA440, symBinAddr: 0x11EC40, symSize: 0xF0 }
  - { offsetInCU: 0x3182B, offset: 0x5E938D, size: 0x8, addend: 0x0, symName: '__ZN4core3ptr94drop_in_place$LT$syn..punctuated..Punctuated$LT$syn..ty..BareFnArg$C$syn..token..Comma$GT$$GT$17h7ba4c699ee390ebaE', symObjAddr: 0xA530, symBinAddr: 0x11ED30, symSize: 0xF0 }
  - { offsetInCU: 0x31B2C, offset: 0x5E968E, size: 0x8, addend: 0x0, symName: '__ZN4core3ptr96drop_in_place$LT$core..option..Option$LT$alloc..boxed..Box$LT$syn..path..PathSegment$GT$$GT$$GT$17h5de12a5a0f9e9ef9E', symObjAddr: 0xA620, symBinAddr: 0x11EE20, symSize: 0xA0 }
  - { offsetInCU: 0x31DAB, offset: 0x5E990D, size: 0x8, addend: 0x0, symName: '__ZN4core3ptr97drop_in_place$LT$syn..punctuated..Punctuated$LT$syn..expr..FieldValue$C$syn..token..Comma$GT$$GT$17hf58d0a9a09266ab3E', symObjAddr: 0xA6C0, symBinAddr: 0x11EEC0, symSize: 0xF0 }
  - { offsetInCU: 0x320A8, offset: 0x5E9C0A, size: 0x8, addend: 0x0, symName: '__ZN4core3ptr98drop_in_place$LT$alloc..vec..Vec$LT$$LP$syn..path..GenericArgument$C$syn..token..Comma$RP$$GT$$GT$17h0dee282a026d5a38E', symObjAddr: 0xA7B0, symBinAddr: 0x11EFB0, symSize: 0xD0 }
  - { offsetInCU: 0x323E8, offset: 0x5E9F4A, size: 0x8, addend: 0x0, symName: '__ZN4core3ptr98drop_in_place$LT$syn..punctuated..Punctuated$LT$syn..lifetime..Lifetime$C$syn..token..Plus$GT$$GT$17h600c2b78f78fd2b9E', symObjAddr: 0xA880, symBinAddr: 0x11F080, symSize: 0xD0 }
  - { offsetInCU: 0x385DC, offset: 0x5F013E, size: 0x8, addend: 0x0, symName: '__ZN5alloc3vec16Vec$LT$T$C$A$GT$4push17h404853eece414a17E', symObjAddr: 0xA960, symBinAddr: 0x11F150, symSize: 0x70 }
  - { offsetInCU: 0x38870, offset: 0x5F03D2, size: 0x8, addend: 0x0, symName: '__ZN3syn4stmt7parsing34_$LT$impl$u20$syn..stmt..Block$GT$12parse_within17h21d336074077a012E', symObjAddr: 0xAAD0, symBinAddr: 0x11F1C0, symSize: 0xC20 }
  - { offsetInCU: 0x1E, offset: 0x5F51E1, size: 0x8, addend: 0x0, symName: '__ZN4core3ptr100drop_in_place$LT$core..option..Option$LT$alloc..boxed..Box$LT$syn..path..GenericArgument$GT$$GT$$GT$17h3a7c44b9e57fe410E', symObjAddr: 0x0, symBinAddr: 0x120560, symSize: 0x50 }
