---
triple:          'x86_64-apple-darwin'
binary-path:     "/Users/justinlanouette/Chaos/ChaöS-Token/hello_world/target/release/deps/libark_serialize_derive-19f51b3836fdbda2.dylib"
relocations:
  - { offsetInCU: 0x1E, offset: 0x1E, size: 0x8, addend: 0x0, symName: '__ZN48_$LT$T$u20$as$u20$core..clone..CloneToUninit$GT$15clone_to_uninit17h928ad9563c576317E', symObjAddr: 0x0, symBinAddr: 0x1C60, symSize: 0x330 }
  - { offsetInCU: 0x18BB, offset: 0x18BB, size: 0x8, addend: 0x0, symName: '__ZN4core3ptr100drop_in_place$LT$core..option..Option$LT$alloc..boxed..Box$LT$syn..generics..LifetimeDef$GT$$GT$$GT$17hbe26351241f166acE', symObjAddr: 0x330, symBinAddr: 0x1F90, symSize: 0x50 }
  - { offsetInCU: 0x1A4A, offset: 0x1A4A, size: 0x8, addend: 0x0, symName: '__ZN4core3ptr100drop_in_place$LT$core..option..Option$LT$alloc..boxed..Box$LT$syn..path..GenericArgument$GT$$GT$$GT$17h666748ca71ff3dbfE', symObjAddr: 0x380, symBinAddr: 0x1FE0, symSize: 0x50 }
  - { offsetInCU: 0x1BD9, offset: 0x1BD9, size: 0x8, addend: 0x0, symName: '__ZN4core3ptr101drop_in_place$LT$core..option..Option$LT$alloc..boxed..Box$LT$syn..generics..GenericParam$GT$$GT$$GT$17h7e591987f08f8a13E', symObjAddr: 0x3D0, symBinAddr: 0x2030, symSize: 0x50 }
  - { offsetInCU: 0x1E9E, offset: 0x1E9E, size: 0x8, addend: 0x0, symName: '__ZN4core3ptr102drop_in_place$LT$syn..punctuated..Punctuated$LT$syn..generics..LifetimeDef$C$syn..token..Comma$GT$$GT$17h846ce7f6c0f2e4c3E', symObjAddr: 0x420, symBinAddr: 0x2080, symSize: 0x170 }
  - { offsetInCU: 0x2395, offset: 0x2395, size: 0x8, addend: 0x0, symName: '__ZN4core3ptr102drop_in_place$LT$syn..punctuated..Punctuated$LT$syn..path..GenericArgument$C$syn..token..Comma$GT$$GT$17ha5e3de1e266d97c9E.llvm.5539649288794301635', symObjAddr: 0x590, symBinAddr: 0x21F0, symSize: 0xF0 }
  - { offsetInCU: 0x2734, offset: 0x2734, size: 0x8, addend: 0x0, symName: '__ZN4core3ptr103drop_in_place$LT$core..option..Option$LT$alloc..boxed..Box$LT$syn..generics..TypeParamBound$GT$$GT$$GT$17hfeec5ed64741cc4bE', symObjAddr: 0x680, symBinAddr: 0x22E0, symSize: 0xA0 }
  - { offsetInCU: 0x2A23, offset: 0x2A23, size: 0x8, addend: 0x0, symName: '__ZN4core3ptr103drop_in_place$LT$core..option..Option$LT$alloc..boxed..Box$LT$syn..generics..WherePredicate$GT$$GT$$GT$17ha38568c788b2be78E', symObjAddr: 0x720, symBinAddr: 0x2380, symSize: 0x50 }
  - { offsetInCU: 0x2C4D, offset: 0x2C4D, size: 0x8, addend: 0x0, symName: '__ZN4core3ptr103drop_in_place$LT$syn..punctuated..Punctuated$LT$syn..generics..GenericParam$C$syn..token..Comma$GT$$GT$17h8032e6d1f294f536E', symObjAddr: 0x770, symBinAddr: 0x23D0, symSize: 0x1A0 }
  - { offsetInCU: 0x3239, offset: 0x3239, size: 0x8, addend: 0x0, symName: '__ZN4core3ptr103drop_in_place$LT$syn..punctuated..Punctuated$LT$syn..generics..TypeParamBound$C$syn..token..Add$GT$$GT$17h42839728032e1c04E', symObjAddr: 0x910, symBinAddr: 0x2570, symSize: 0x2E0 }
  - { offsetInCU: 0x4027, offset: 0x4027, size: 0x8, addend: 0x0, symName: '__ZN4core3ptr105drop_in_place$LT$syn..punctuated..Punctuated$LT$syn..generics..WherePredicate$C$syn..token..Comma$GT$$GT$17h6488ddd38160c630E', symObjAddr: 0xBF0, symBinAddr: 0x2850, symSize: 0x1A0 }
  - { offsetInCU: 0x469D, offset: 0x469D, size: 0x8, addend: 0x0, symName: '__ZN4core3ptr108drop_in_place$LT$syn..punctuated..Punctuated$LT$syn..expr..GenericMethodArgument$C$syn..token..Comma$GT$$GT$17h536f20bec431f44aE', symObjAddr: 0xD90, symBinAddr: 0x29F0, symSize: 0x150 }
  - { offsetInCU: 0x4B81, offset: 0x4B81, size: 0x8, addend: 0x0, symName: '__ZN4core3ptr126drop_in_place$LT$core..option..Option$LT$$LP$syn..token..And$C$core..option..Option$LT$syn..lifetime..Lifetime$GT$$RP$$GT$$GT$17h204eaf33b7f57a84E', symObjAddr: 0xEE0, symBinAddr: 0x2B40, symSize: 0x30 }
  - { offsetInCU: 0x4E10, offset: 0x4E10, size: 0x8, addend: 0x0, symName: '__ZN4core3ptr33drop_in_place$LT$syn..ty..Abi$GT$17h24dd2d15d10c1869E', symObjAddr: 0xF10, symBinAddr: 0x2B70, symSize: 0x70 }
  - { offsetInCU: 0x4E2C, offset: 0x4E2C, size: 0x8, addend: 0x0, symName: '__ZN4core3ptr33drop_in_place$LT$syn..ty..Abi$GT$17h24dd2d15d10c1869E', symObjAddr: 0xF10, symBinAddr: 0x2B70, symSize: 0x70 }
  - { offsetInCU: 0x5104, offset: 0x5104, size: 0x8, addend: 0x0, symName: '__ZN4core3ptr34drop_in_place$LT$syn..lit..Lit$GT$17h67dd77fa47b8339fE', symObjAddr: 0xF80, symBinAddr: 0x2BE0, symSize: 0x110 }
  - { offsetInCU: 0x5538, offset: 0x5538, size: 0x8, addend: 0x0, symName: '__ZN4core3ptr34drop_in_place$LT$syn..pat..Pat$GT$17hf4038579752ef7ecE.llvm.5539649288794301635', symObjAddr: 0x1090, symBinAddr: 0x2CF0, symSize: 0xB20 }
  - { offsetInCU: 0x8D1E, offset: 0x8D1E, size: 0x8, addend: 0x0, symName: '__ZN4core3ptr34drop_in_place$LT$syn..ty..Type$GT$17h0e8bf9e377e7dff6E.llvm.5539649288794301635', symObjAddr: 0x1BB0, symBinAddr: 0x3810, symSize: 0x410 }
  - { offsetInCU: 0x9A77, offset: 0x9A77, size: 0x8, addend: 0x0, symName: '__ZN4core3ptr35drop_in_place$LT$syn..expr..Arm$GT$17h19a1152357265652E.llvm.5539649288794301635', symObjAddr: 0x1FC0, symBinAddr: 0x3C20, symSize: 0x1A0 }
  - { offsetInCU: 0xA6CD, offset: 0xA6CD, size: 0x8, addend: 0x0, symName: '__ZN4core3ptr36drop_in_place$LT$syn..expr..Expr$GT$17h6daaadd6c9cc8c8fE.llvm.5539649288794301635', symObjAddr: 0x2160, symBinAddr: 0x3DC0, symSize: 0x1F80 }
  - { offsetInCU: 0x14A31, offset: 0x14A31, size: 0x8, addend: 0x0, symName: '__ZN4core3ptr36drop_in_place$LT$syn..item..Item$GT$17hcd3cee3cb4089b98E.llvm.5539649288794301635', symObjAddr: 0x40E0, symBinAddr: 0x5D40, symSize: 0x1710 }
  - { offsetInCU: 0x1B61F, offset: 0x1B61F, size: 0x8, addend: 0x0, symName: '__ZN4core3ptr36drop_in_place$LT$syn..mac..Macro$GT$17h36829856bc2be92cE', symObjAddr: 0x57F0, symBinAddr: 0x7450, symSize: 0xE0 }
  - { offsetInCU: 0x1B9C5, offset: 0x1B9C5, size: 0x8, addend: 0x0, symName: '__ZN4core3ptr36drop_in_place$LT$syn..path..Path$GT$17h7679bff301ed1018E.llvm.5539649288794301635', symObjAddr: 0x58D0, symBinAddr: 0x7530, symSize: 0x160 }
  - { offsetInCU: 0x1BF6D, offset: 0x1BF6D, size: 0x8, addend: 0x0, symName: '__ZN4core3ptr36drop_in_place$LT$syn..stmt..Stmt$GT$17h4a05eeceeb6f0e8dE.llvm.5539649288794301635', symObjAddr: 0x5A30, symBinAddr: 0x7690, symSize: 0x140 }
  - { offsetInCU: 0x1C3FF, offset: 0x1C3FF, size: 0x8, addend: 0x0, symName: '__ZN4core3ptr37drop_in_place$LT$syn..data..Field$GT$17h3a552ade92458475E.llvm.5539649288794301635', symObjAddr: 0x5B70, symBinAddr: 0x77D0, symSize: 0x1B0 }
  - { offsetInCU: 0x1C9F9, offset: 0x1C9F9, size: 0x8, addend: 0x0, symName: '__ZN4core3ptr37drop_in_place$LT$syn..item..FnArg$GT$17h7f31f49e40ca5b75E', symObjAddr: 0x5D20, symBinAddr: 0x7980, symSize: 0x190 }
  - { offsetInCU: 0x1D39B, offset: 0x1D39B, size: 0x8, addend: 0x0, symName: '__ZN4core3ptr37drop_in_place$LT$syn..stmt..Block$GT$17h534907c7327c91b0E', symObjAddr: 0x5EB0, symBinAddr: 0x7B10, symSize: 0xD0 }
  - { offsetInCU: 0x1D679, offset: 0x1D679, size: 0x8, addend: 0x0, symName: '__ZN4core3ptr38drop_in_place$LT$syn..expr..Member$GT$17hd51f52742f680e47E.llvm.5539649288794301635', symObjAddr: 0x5F80, symBinAddr: 0x7BE0, symSize: 0x30 }
  - { offsetInCU: 0x1D775, offset: 0x1D775, size: 0x8, addend: 0x0, symName: '__ZN4core3ptr38drop_in_place$LT$syn..pat..PatType$GT$17h3970fba93af268eeE', symObjAddr: 0x5FB0, symBinAddr: 0x7C10, symSize: 0x160 }
  - { offsetInCU: 0x1DD2D, offset: 0x1DD2D, size: 0x8, addend: 0x0, symName: '__ZN4core3ptr38drop_in_place$LT$syn..ty..Variadic$GT$17h3f5195a9c2e8e949E', symObjAddr: 0x6110, symBinAddr: 0x7D70, symSize: 0x80 }
  - { offsetInCU: 0x1DFFC, offset: 0x1DFFC, size: 0x8, addend: 0x0, symName: '__ZN4core3ptr39drop_in_place$LT$proc_macro2..Ident$GT$17h2517518c7515e723E', symObjAddr: 0x6190, symBinAddr: 0x7DF0, symSize: 0x30 }
  - { offsetInCU: 0x1E136, offset: 0x1E136, size: 0x8, addend: 0x0, symName: '__ZN4core3ptr39drop_in_place$LT$syn..data..Variant$GT$17h7b94c33342d5e5e1E.llvm.5539649288794301635', symObjAddr: 0x61C0, symBinAddr: 0x7E20, symSize: 0x330 }
  - { offsetInCU: 0x1EDDF, offset: 0x1EDDF, size: 0x8, addend: 0x0, symName: '__ZN4core3ptr39drop_in_place$LT$syn..item..UseTree$GT$17hdd5a805fb5a55197E', symObjAddr: 0x64F0, symBinAddr: 0x8150, symSize: 0x1F0 }
  - { offsetInCU: 0x1F5B7, offset: 0x1F5B7, size: 0x8, addend: 0x0, symName: '__ZN4core3ptr39drop_in_place$LT$syn..pat..PatTuple$GT$17he7364ae96bac9e62E', symObjAddr: 0x66E0, symBinAddr: 0x8340, symSize: 0x1F0 }
  - { offsetInCU: 0x1FD5B, offset: 0x1FD5B, size: 0x8, addend: 0x0, symName: '__ZN4core3ptr40drop_in_place$LT$syn..item..ImplItem$GT$17he16adcc325bc7459E', symObjAddr: 0x68D0, symBinAddr: 0x8530, symSize: 0x1F0 }
  - { offsetInCU: 0x20367, offset: 0x20367, size: 0x8, addend: 0x0, symName: '__ZN4core3ptr40drop_in_place$LT$syn..item..Receiver$GT$17h0f981a5609b2cfc7E', symObjAddr: 0x6AC0, symBinAddr: 0x8720, symSize: 0x140 }
  - { offsetInCU: 0x207F5, offset: 0x207F5, size: 0x8, addend: 0x0, symName: '__ZN4core3ptr40drop_in_place$LT$syn..ty..ReturnType$GT$17hd3f3c77ab2db8414E.llvm.5539649288794301635', symObjAddr: 0x6C00, symBinAddr: 0x8860, symSize: 0x50 }
  - { offsetInCU: 0x20965, offset: 0x20965, size: 0x8, addend: 0x0, symName: '__ZN4core3ptr41drop_in_place$LT$syn..attr..Attribute$GT$17h922074c116cadb87E.llvm.5539649288794301635', symObjAddr: 0x6C50, symBinAddr: 0x88B0, symSize: 0x40 }
  - { offsetInCU: 0x20AD5, offset: 0x20AD5, size: 0x8, addend: 0x0, symName: '__ZN4core3ptr41drop_in_place$LT$syn..item..Signature$GT$17h640b858f104e3478E', symObjAddr: 0x6C90, symBinAddr: 0x88F0, symSize: 0x2C0 }
  - { offsetInCU: 0x219B8, offset: 0x219B8, size: 0x8, addend: 0x0, symName: '__ZN4core3ptr43drop_in_place$LT$proc_macro2..TokenTree$GT$17h8a6fbd20fb3df16dE.llvm.5539649288794301635', symObjAddr: 0x6F50, symBinAddr: 0x8BB0, symSize: 0x180 }
  - { offsetInCU: 0x221FE, offset: 0x221FE, size: 0x8, addend: 0x0, symName: '__ZN4core3ptr43drop_in_place$LT$syn..data..FieldsNamed$GT$17ha30c9339e49b5d32E', symObjAddr: 0x70D0, symBinAddr: 0x8D30, symSize: 0x120 }
  - { offsetInCU: 0x226DD, offset: 0x226DD, size: 0x8, addend: 0x0, symName: '__ZN4core3ptr43drop_in_place$LT$syn..path..PathSegment$GT$17h4825a0216da03981E.llvm.5539649288794301635', symObjAddr: 0x71F0, symBinAddr: 0x8E50, symSize: 0x170 }
  - { offsetInCU: 0x22CD7, offset: 0x22CD7, size: 0x8, addend: 0x0, symName: '__ZN4core3ptr44drop_in_place$LT$syn..generics..Generics$GT$17hee5e8fc0c72e03c7E', symObjAddr: 0x7360, symBinAddr: 0x8FC0, symSize: 0x230 }
  - { offsetInCU: 0x23614, offset: 0x23614, size: 0x8, addend: 0x0, symName: '__ZN4core3ptr44drop_in_place$LT$syn..item..ImplItemType$GT$17hcab4dcf7b35197f4E', symObjAddr: 0x7590, symBinAddr: 0x91F0, symSize: 0x200 }
  - { offsetInCU: 0x23C31, offset: 0x23C31, size: 0x8, addend: 0x0, symName: '__ZN4core3ptr44drop_in_place$LT$syn..lifetime..Lifetime$GT$17h826d03abdf62fec0E.llvm.5539649288794301635', symObjAddr: 0x7790, symBinAddr: 0x93F0, symSize: 0x30 }
  - { offsetInCU: 0x23D8A, offset: 0x23D8A, size: 0x8, addend: 0x0, symName: '__ZN4core3ptr45drop_in_place$LT$proc_macro2..TokenStream$GT$17h4f519549e61c8b11E.llvm.5539649288794301635', symObjAddr: 0x77C0, symBinAddr: 0x9420, symSize: 0x70 }
  - { offsetInCU: 0x23EBF, offset: 0x23EBF, size: 0x8, addend: 0x0, symName: '__ZN4core3ptr45drop_in_place$LT$syn..data..VisRestricted$GT$17h37fb71ee8589ada3E', symObjAddr: 0x7830, symBinAddr: 0x9490, symSize: 0x100 }
  - { offsetInCU: 0x24382, offset: 0x24382, size: 0x8, addend: 0x0, symName: '__ZN4core3ptr45drop_in_place$LT$syn..generics..TypeParam$GT$17h63c29cc60ae5ef67E.llvm.5539649288794301635', symObjAddr: 0x7930, symBinAddr: 0x9590, symSize: 0x260 }
  - { offsetInCU: 0x24D3F, offset: 0x24D3F, size: 0x8, addend: 0x0, symName: '__ZN4core3ptr45drop_in_place$LT$syn..item..ImplItemConst$GT$17hb75d255e2cd24993E', symObjAddr: 0x7B90, symBinAddr: 0x97F0, symSize: 0x1D0 }
  - { offsetInCU: 0x25319, offset: 0x25319, size: 0x8, addend: 0x0, symName: '__ZN4core3ptr45drop_in_place$LT$syn..item..TraitItemType$GT$17h3ac9f42deb69e7e1E', symObjAddr: 0x7D60, symBinAddr: 0x99C0, symSize: 0x2D0 }
  - { offsetInCU: 0x25DAF, offset: 0x25DAF, size: 0x8, addend: 0x0, symName: '__ZN4core3ptr46drop_in_place$LT$syn..generics..ConstParam$GT$17h9874ed13501a1f3bE.llvm.5539649288794301635', symObjAddr: 0x8030, symBinAddr: 0x9C90, symSize: 0x180 }
  - { offsetInCU: 0x261E7, offset: 0x261E7, size: 0x8, addend: 0x0, symName: '__ZN4core3ptr46drop_in_place$LT$syn..item..ImplItemMethod$GT$17h40734f81d469d0ddE', symObjAddr: 0x81B0, symBinAddr: 0x9E10, symSize: 0x240 }
  - { offsetInCU: 0x26965, offset: 0x26965, size: 0x8, addend: 0x0, symName: '__ZN4core3ptr46drop_in_place$LT$syn..item..TraitItemConst$GT$17h1272e7c90daf3c90E', symObjAddr: 0x83F0, symBinAddr: 0xA050, symSize: 0x180 }
  - { offsetInCU: 0x26DCF, offset: 0x26DCF, size: 0x8, addend: 0x0, symName: '__ZN4core3ptr47drop_in_place$LT$syn..generics..LifetimeDef$GT$17hd9a91582ccc778edE.llvm.5539649288794301635', symObjAddr: 0x8570, symBinAddr: 0xA1D0, symSize: 0xB0 }
  - { offsetInCU: 0x27197, offset: 0x27197, size: 0x8, addend: 0x0, symName: '__ZN4core3ptr47drop_in_place$LT$syn..generics..WhereClause$GT$17h3d11be7309c6a83eE', symObjAddr: 0x8620, symBinAddr: 0xA280, symSize: 0x120 }
  - { offsetInCU: 0x27657, offset: 0x27657, size: 0x8, addend: 0x0, symName: '__ZN4core3ptr47drop_in_place$LT$syn..path..GenericArgument$GT$17hc10ad5f41fc42055E', symObjAddr: 0x8740, symBinAddr: 0xA3A0, symSize: 0x110 }
  - { offsetInCU: 0x27972, offset: 0x27972, size: 0x8, addend: 0x0, symName: '__ZN4core3ptr48drop_in_place$LT$syn..generics..GenericParam$GT$17h649ded3252a3c048E', symObjAddr: 0x8850, symBinAddr: 0xA4B0, symSize: 0xF0 }
  - { offsetInCU: 0x27D57, offset: 0x27D57, size: 0x8, addend: 0x0, symName: '__ZN4core3ptr49drop_in_place$LT$syn..generics..PredicateType$GT$17h3762fc209ed3e1d9E.llvm.5539649288794301635', symObjAddr: 0x8940, symBinAddr: 0xA5A0, symSize: 0x230 }
  - { offsetInCU: 0x2877B, offset: 0x2877B, size: 0x8, addend: 0x0, symName: '__ZN4core3ptr49drop_in_place$LT$syn..item..ForeignItemStatic$GT$17h1f47c5bf7e32ffc7E', symObjAddr: 0x8B70, symBinAddr: 0xA7D0, symSize: 0x1D0 }
  - { offsetInCU: 0x28F3F, offset: 0x28F3F, size: 0x8, addend: 0x0, symName: '__ZN4core3ptr50drop_in_place$LT$$u5b$syn..item..ImplItem$u5d$$GT$17he071313ccdb2b070E', symObjAddr: 0x8D40, symBinAddr: 0xA9A0, symSize: 0x420 }
  - { offsetInCU: 0x2969D, offset: 0x2969D, size: 0x8, addend: 0x0, symName: '__ZN4core3ptr50drop_in_place$LT$syn..generics..BoundLifetimes$GT$17h89f2fb460401950dE.llvm.5539649288794301635', symObjAddr: 0x9160, symBinAddr: 0xADC0, symSize: 0x110 }
  - { offsetInCU: 0x29B1D, offset: 0x29B1D, size: 0x8, addend: 0x0, symName: '__ZN4core3ptr50drop_in_place$LT$syn..generics..TypeParamBound$GT$17h2ecd36900274056cE', symObjAddr: 0x9270, symBinAddr: 0xAED0, symSize: 0x80 }
  - { offsetInCU: 0x29CA2, offset: 0x29CA2, size: 0x8, addend: 0x0, symName: '__ZN4core3ptr50drop_in_place$LT$syn..generics..WherePredicate$GT$17hc838c0dabf3ea21aE', symObjAddr: 0x92F0, symBinAddr: 0xAF50, symSize: 0x110 }
  - { offsetInCU: 0x29E42, offset: 0x29E42, size: 0x8, addend: 0x0, symName: '__ZN4core3ptr51drop_in_place$LT$$u5b$syn..attr..Attribute$u5d$$GT$17h8216c245fe19b7e9E.llvm.5539649288794301635', symObjAddr: 0x9400, symBinAddr: 0xB060, symSize: 0x1A0 }
  - { offsetInCU: 0x2A228, offset: 0x2A228, size: 0x8, addend: 0x0, symName: '__ZN4core3ptr51drop_in_place$LT$$u5b$syn..item..TraitItem$u5d$$GT$17h220727c35675eaebE', symObjAddr: 0x95A0, symBinAddr: 0xB200, symSize: 0xA70 }
  - { offsetInCU: 0x2BFCD, offset: 0x2BFCD, size: 0x8, addend: 0x0, symName: '__ZN4core3ptr53drop_in_place$LT$$u5b$syn..item..ForeignItem$u5d$$GT$17h2cdd05900683484dE', symObjAddr: 0xA010, symBinAddr: 0xBC70, symSize: 0xEC0 }
  - { offsetInCU: 0x2EF81, offset: 0x2EF81, size: 0x8, addend: 0x0, symName: '__ZN4core3ptr58drop_in_place$LT$alloc..vec..Vec$LT$syn..expr..Arm$GT$$GT$17h4159b786ed045cb8E', symObjAddr: 0xAED0, symBinAddr: 0xCB30, symSize: 0xD0 }
  - { offsetInCU: 0x2F248, offset: 0x2F248, size: 0x8, addend: 0x0, symName: '__ZN4core3ptr59drop_in_place$LT$alloc..boxed..Box$LT$syn..pat..Pat$GT$$GT$17hdc0724d76d32dba5E.llvm.5539649288794301635', symObjAddr: 0xAFA0, symBinAddr: 0xCC00, symSize: 0x50 }
  - { offsetInCU: 0x2F3A1, offset: 0x2F3A1, size: 0x8, addend: 0x0, symName: '__ZN4core3ptr59drop_in_place$LT$alloc..boxed..Box$LT$syn..ty..Type$GT$$GT$17h52b7b6a45c18e7a6E', symObjAddr: 0xAFF0, symBinAddr: 0xCC50, symSize: 0x50 }
  - { offsetInCU: 0x2F4FA, offset: 0x2F4FA, size: 0x8, addend: 0x0, symName: '__ZN4core3ptr59drop_in_place$LT$alloc..vec..Vec$LT$syn..item..Item$GT$$GT$17h8e9ae555b123640cE', symObjAddr: 0xB040, symBinAddr: 0xCCA0, symSize: 0xD0 }
  - { offsetInCU: 0x2F7C1, offset: 0x2F7C1, size: 0x8, addend: 0x0, symName: '__ZN4core3ptr61drop_in_place$LT$alloc..boxed..Box$LT$syn..expr..Expr$GT$$GT$17haa86d58680159672E.llvm.5539649288794301635', symObjAddr: 0xB110, symBinAddr: 0xCD70, symSize: 0x50 }
  - { offsetInCU: 0x2F91A, offset: 0x2F91A, size: 0x8, addend: 0x0, symName: '__ZN4core3ptr61drop_in_place$LT$alloc..boxed..Box$LT$syn..path..Path$GT$$GT$17hc8e96fae6dfe16bfE', symObjAddr: 0xB160, symBinAddr: 0xCDC0, symSize: 0x50 }
  - { offsetInCU: 0x2FB4A, offset: 0x2FB4A, size: 0x8, addend: 0x0, symName: '__ZN4core3ptr61drop_in_place$LT$syn..path..ParenthesizedGenericArguments$GT$17h2aa87508f4fe4835E.llvm.5539649288794301635', symObjAddr: 0xB1B0, symBinAddr: 0xCE10, symSize: 0x170 }
  - { offsetInCU: 0x30147, offset: 0x30147, size: 0x8, addend: 0x0, symName: '__ZN4core3ptr62drop_in_place$LT$alloc..boxed..Box$LT$syn..data..Field$GT$$GT$17h2dbd30012e963fcbE', symObjAddr: 0xB320, symBinAddr: 0xCF80, symSize: 0x50 }
  - { offsetInCU: 0x302BF, offset: 0x302BF, size: 0x8, addend: 0x0, symName: '__ZN4core3ptr62drop_in_place$LT$alloc..boxed..Box$LT$syn..item..FnArg$GT$$GT$17h837ad357ae617580E', symObjAddr: 0xB370, symBinAddr: 0xCFD0, symSize: 0x60 }
  - { offsetInCU: 0x30435, offset: 0x30435, size: 0x8, addend: 0x0, symName: '__ZN4core3ptr62drop_in_place$LT$alloc..boxed..Box$LT$syn..stmt..Block$GT$$GT$17hddee10483cc14b15E', symObjAddr: 0xB3D0, symBinAddr: 0xD030, symSize: 0xE0 }
  - { offsetInCU: 0x3084E, offset: 0x3084E, size: 0x8, addend: 0x0, symName: '__ZN4core3ptr62drop_in_place$LT$syn..path..AngleBracketedGenericArguments$GT$17h3b77ebeb01d27ca1E.llvm.5539649288794301635', symObjAddr: 0xB4B0, symBinAddr: 0xD110, symSize: 0x120 }
  - { offsetInCU: 0x30CD0, offset: 0x30CD0, size: 0x8, addend: 0x0, symName: '__ZN4core3ptr63drop_in_place$LT$alloc..vec..Vec$LT$syn..item..ImplItem$GT$$GT$17h346c16ff49ac7625E', symObjAddr: 0xB5D0, symBinAddr: 0xD230, symSize: 0x80 }
  - { offsetInCU: 0x30F88, offset: 0x30F88, size: 0x8, addend: 0x0, symName: '__ZN4core3ptr64drop_in_place$LT$alloc..boxed..Box$LT$syn..data..Variant$GT$$GT$17h37c7dcf81baba2b7E', symObjAddr: 0xB650, symBinAddr: 0xD2B0, symSize: 0x50 }
  - { offsetInCU: 0x310E1, offset: 0x310E1, size: 0x8, addend: 0x0, symName: '__ZN4core3ptr64drop_in_place$LT$alloc..boxed..Box$LT$syn..item..UseTree$GT$$GT$17h796e98ecda70336bE', symObjAddr: 0xB6A0, symBinAddr: 0xD300, symSize: 0x50 }
  - { offsetInCU: 0x31278, offset: 0x31278, size: 0x8, addend: 0x0, symName: '__ZN4core3ptr64drop_in_place$LT$alloc..boxed..Box$LT$syn..pat..FieldPat$GT$$GT$17haf9dc02d2a94e29bE', symObjAddr: 0xB6F0, symBinAddr: 0xD350, symSize: 0x100 }
  - { offsetInCU: 0x3193D, offset: 0x3193D, size: 0x8, addend: 0x0, symName: '__ZN4core3ptr64drop_in_place$LT$alloc..boxed..Box$LT$syn..ty..BareFnArg$GT$$GT$17h150fe786aa581705E', symObjAddr: 0xB7F0, symBinAddr: 0xD450, symSize: 0xA0 }
  - { offsetInCU: 0x31BE1, offset: 0x31BE1, size: 0x8, addend: 0x0, symName: '__ZN4core3ptr64drop_in_place$LT$alloc..vec..Vec$LT$syn..attr..Attribute$GT$$GT$17hefcd9dd449bf0839E.llvm.5539649288794301635', symObjAddr: 0xB890, symBinAddr: 0xD4F0, symSize: 0xF0 }
  - { offsetInCU: 0x31EC1, offset: 0x31EC1, size: 0x8, addend: 0x0, symName: '__ZN4core3ptr64drop_in_place$LT$alloc..vec..Vec$LT$syn..item..TraitItem$GT$$GT$17h8db0c58f17b75fabE', symObjAddr: 0xB980, symBinAddr: 0xD5E0, symSize: 0x80 }
  - { offsetInCU: 0x32179, offset: 0x32179, size: 0x8, addend: 0x0, symName: '__ZN4core3ptr65drop_in_place$LT$$LP$syn..item..FnArg$C$syn..token..Comma$RP$$GT$17hba8122172226c4b1E', symObjAddr: 0xBA00, symBinAddr: 0xD660, symSize: 0x20 }
  - { offsetInCU: 0x321B5, offset: 0x321B5, size: 0x8, addend: 0x0, symName: '__ZN4core3ptr65drop_in_place$LT$alloc..vec..Vec$LT$proc_macro..TokenTree$GT$$GT$17h95ddd3cd51fa59e3E.llvm.5539649288794301635', symObjAddr: 0xBA20, symBinAddr: 0xD680, symSize: 0x110 }
  - { offsetInCU: 0x325B4, offset: 0x325B4, size: 0x8, addend: 0x0, symName: '__ZN4core3ptr65drop_in_place$LT$core..option..Option$LT$syn..expr..Label$GT$$GT$17h0c8998d9c3180861E', symObjAddr: 0xBB30, symBinAddr: 0xD790, symSize: 0x30 }
  - { offsetInCU: 0x326EE, offset: 0x326EE, size: 0x8, addend: 0x0, symName: '__ZN4core3ptr65drop_in_place$LT$core..option..Option$LT$syn..stmt..Block$GT$$GT$17hc188aa8ba899433dE', symObjAddr: 0xBB60, symBinAddr: 0xD7C0, symSize: 0xD0 }
  - { offsetInCU: 0x329E2, offset: 0x329E2, size: 0x8, addend: 0x0, symName: '__ZN4core3ptr66drop_in_place$LT$alloc..vec..Vec$LT$proc_macro2..TokenTree$GT$$GT$17h8186083120c10e65E', symObjAddr: 0xBC30, symBinAddr: 0xD890, symSize: 0xC0 }
  - { offsetInCU: 0x32CBA, offset: 0x32CBA, size: 0x8, addend: 0x0, symName: '__ZN4core3ptr66drop_in_place$LT$alloc..vec..Vec$LT$syn..item..ForeignItem$GT$$GT$17h39082c5b3dd54b78E', symObjAddr: 0xBCF0, symBinAddr: 0xD950, symSize: 0x80 }
  - { offsetInCU: 0x32F72, offset: 0x32F72, size: 0x8, addend: 0x0, symName: '__ZN4core3ptr67drop_in_place$LT$$LP$syn..pat..FieldPat$C$syn..token..Comma$RP$$GT$17h1e1969aa7d2abc88E.llvm.5539649288794301635', symObjAddr: 0xBD70, symBinAddr: 0xD9D0, symSize: 0xF0 }
  - { offsetInCU: 0x334C4, offset: 0x334C4, size: 0x8, addend: 0x0, symName: '__ZN4core3ptr67drop_in_place$LT$$LP$syn..ty..BareFnArg$C$syn..token..Comma$RP$$GT$17h5d5062de4fcceb00E.llvm.5539649288794301635', symObjAddr: 0xBE60, symBinAddr: 0xDAC0, symSize: 0x80 }
  - { offsetInCU: 0x33640, offset: 0x33640, size: 0x8, addend: 0x0, symName: '__ZN4core3ptr67drop_in_place$LT$alloc..boxed..Box$LT$syn..expr..FieldValue$GT$$GT$17hf917334750e0c372E', symObjAddr: 0xBEE0, symBinAddr: 0xDB40, symSize: 0xE0 }
  - { offsetInCU: 0x33B7D, offset: 0x33B7D, size: 0x8, addend: 0x0, symName: '__ZN4core3ptr68drop_in_place$LT$alloc..boxed..Box$LT$syn..path..PathSegment$GT$$GT$17hdd97f8a6cd3cb3c1E', symObjAddr: 0xBFC0, symBinAddr: 0xDC20, symSize: 0xD0 }
  - { offsetInCU: 0x33FB4, offset: 0x33FB4, size: 0x8, addend: 0x0, symName: '__ZN4core3ptr68drop_in_place$LT$alloc..vec..Vec$LT$proc_macro2..TokenStream$GT$$GT$17h2a95f48bf74b5e76E', symObjAddr: 0xC090, symBinAddr: 0xDCF0, symSize: 0xC0 }
  - { offsetInCU: 0x3428C, offset: 0x3428C, size: 0x8, addend: 0x0, symName: '__ZN4core3ptr70drop_in_place$LT$$LP$syn..expr..FieldValue$C$syn..token..Comma$RP$$GT$17h876d63336b003fe6E.llvm.5539649288794301635', symObjAddr: 0xC150, symBinAddr: 0xDDB0, symSize: 0xD0 }
  - { offsetInCU: 0x34686, offset: 0x34686, size: 0x8, addend: 0x0, symName: '__ZN4core3ptr72drop_in_place$LT$$LP$syn..path..PathSegment$C$syn..token..Colon2$RP$$GT$17h82cdc290505dc873E.llvm.5539649288794301635', symObjAddr: 0xC220, symBinAddr: 0xDE80, symSize: 0xC0 }
  - { offsetInCU: 0x34949, offset: 0x34949, size: 0x8, addend: 0x0, symName: '__ZN4core3ptr72drop_in_place$LT$alloc..boxed..Box$LT$syn..generics..LifetimeDef$GT$$GT$17hb2636691474b87f1E', symObjAddr: 0xC2E0, symBinAddr: 0xDF40, symSize: 0x80 }
  - { offsetInCU: 0x34BF8, offset: 0x34BF8, size: 0x8, addend: 0x0, symName: '__ZN4core3ptr72drop_in_place$LT$alloc..boxed..Box$LT$syn..path..GenericArgument$GT$$GT$17hbe1b6c37dc131dedE.llvm.5539649288794301635', symObjAddr: 0xC360, symBinAddr: 0xDFC0, symSize: 0x220 }
  - { offsetInCU: 0x35468, offset: 0x35468, size: 0x8, addend: 0x0, symName: '__ZN4core3ptr73drop_in_place$LT$alloc..boxed..Box$LT$syn..generics..GenericParam$GT$$GT$17h8b0211e4c974f2bbE', symObjAddr: 0xC580, symBinAddr: 0xE1E0, symSize: 0x80 }
  - { offsetInCU: 0x355DE, offset: 0x355DE, size: 0x8, addend: 0x0, symName: '__ZN4core3ptr75drop_in_place$LT$$LP$syn..generics..LifetimeDef$C$syn..token..Comma$RP$$GT$17h8366e4bf16fe8827E.llvm.5539649288794301635', symObjAddr: 0xC600, symBinAddr: 0xE260, symSize: 0x60 }
  - { offsetInCU: 0x3571B, offset: 0x3571B, size: 0x8, addend: 0x0, symName: '__ZN4core3ptr75drop_in_place$LT$$LP$syn..path..GenericArgument$C$syn..token..Comma$RP$$GT$17h89bb2d0c493b283cE.llvm.5539649288794301635', symObjAddr: 0xC660, symBinAddr: 0xE2C0, symSize: 0x220 }
  - { offsetInCU: 0x35E4F, offset: 0x35E4F, size: 0x8, addend: 0x0, symName: '__ZN4core3ptr75drop_in_place$LT$alloc..boxed..Box$LT$syn..generics..TypeParamBound$GT$$GT$17hf6c233b62435a906E', symObjAddr: 0xC880, symBinAddr: 0xE4E0, symSize: 0x150 }
  - { offsetInCU: 0x363FC, offset: 0x363FC, size: 0x8, addend: 0x0, symName: '__ZN4core3ptr75drop_in_place$LT$alloc..boxed..Box$LT$syn..generics..WherePredicate$GT$$GT$17hb4f618a8e3dc78b9E', symObjAddr: 0xC9D0, symBinAddr: 0xE630, symSize: 0xD0 }
  - { offsetInCU: 0x366A4, offset: 0x366A4, size: 0x8, addend: 0x0, symName: '__ZN4core3ptr76drop_in_place$LT$$LP$syn..generics..GenericParam$C$syn..token..Comma$RP$$GT$17he64e7db45ea42edcE.llvm.5539649288794301635', symObjAddr: 0xCAA0, symBinAddr: 0xE700, symSize: 0x50 }
  - { offsetInCU: 0x366E0, offset: 0x366E0, size: 0x8, addend: 0x0, symName: '__ZN4core3ptr76drop_in_place$LT$$LP$syn..generics..TypeParamBound$C$syn..token..Add$RP$$GT$17h0d8f02f1603af346E.llvm.5539649288794301635', symObjAddr: 0xCAF0, symBinAddr: 0xE750, symSize: 0x160 }
  - { offsetInCU: 0x36B5F, offset: 0x36B5F, size: 0x8, addend: 0x0, symName: '__ZN4core3ptr78drop_in_place$LT$$LP$syn..generics..WherePredicate$C$syn..token..Comma$RP$$GT$17hf7f6bff4d14fcb3aE.llvm.5539649288794301635', symObjAddr: 0xCC50, symBinAddr: 0xE8B0, symSize: 0xA0 }
  - { offsetInCU: 0x36CD7, offset: 0x36CD7, size: 0x8, addend: 0x0, symName: '__ZN4core3ptr78drop_in_place$LT$alloc..boxed..Box$LT$syn..expr..GenericMethodArgument$GT$$GT$17h00bdd80c737e945eE', symObjAddr: 0xCCF0, symBinAddr: 0xE950, symSize: 0x60 }
  - { offsetInCU: 0x36E4D, offset: 0x36E4D, size: 0x8, addend: 0x0, symName: '__ZN4core3ptr81drop_in_place$LT$$LP$syn..expr..GenericMethodArgument$C$syn..token..Comma$RP$$GT$17h7cecae9de6cee422E.llvm.5539649288794301635', symObjAddr: 0xCD50, symBinAddr: 0xE9B0, symSize: 0x30 }
  - { offsetInCU: 0x36E89, offset: 0x36E89, size: 0x8, addend: 0x0, symName: '__ZN4core3ptr86drop_in_place$LT$$LP$syn..token..If$C$alloc..boxed..Box$LT$syn..expr..Expr$GT$$RP$$GT$17hee45262a7fb4053fE', symObjAddr: 0xCD80, symBinAddr: 0xE9E0, symSize: 0x50 }
  - { offsetInCU: 0x37001, offset: 0x37001, size: 0x8, addend: 0x0, symName: '__ZN4core3ptr86drop_in_place$LT$$u5b$$LP$syn..generics..TypeParamBound$C$syn..token..Add$RP$$u5d$$GT$17hc660e74eb0684320E', symObjAddr: 0xCDD0, symBinAddr: 0xEA30, symSize: 0xE0 }
  - { offsetInCU: 0x37234, offset: 0x37234, size: 0x8, addend: 0x0, symName: '__ZN4core3ptr86drop_in_place$LT$syn..punctuated..Punctuated$LT$syn..pat..Pat$C$syn..token..Or$GT$$GT$17h5e27d4a18e27baacE', symObjAddr: 0xCEB0, symBinAddr: 0xEB10, symSize: 0x120 }
  - { offsetInCU: 0x376CD, offset: 0x376CD, size: 0x8, addend: 0x0, symName: '__ZN4core3ptr87drop_in_place$LT$core..option..Option$LT$alloc..boxed..Box$LT$syn..pat..Pat$GT$$GT$$GT$17h5d97deefae5f58d4E', symObjAddr: 0xCFD0, symBinAddr: 0xEC30, symSize: 0x50 }
  - { offsetInCU: 0x3783D, offset: 0x3783D, size: 0x8, addend: 0x0, symName: '__ZN4core3ptr87drop_in_place$LT$core..option..Option$LT$alloc..boxed..Box$LT$syn..ty..Type$GT$$GT$$GT$17h4e3af2861b268376E', symObjAddr: 0xD020, symBinAddr: 0xEC80, symSize: 0x50 }
  - { offsetInCU: 0x379AD, offset: 0x379AD, size: 0x8, addend: 0x0, symName: '__ZN4core3ptr89drop_in_place$LT$core..option..Option$LT$alloc..boxed..Box$LT$syn..expr..Expr$GT$$GT$$GT$17h9b20c586f6fbc962E', symObjAddr: 0xD070, symBinAddr: 0xECD0, symSize: 0x50 }
  - { offsetInCU: 0x37B1D, offset: 0x37B1D, size: 0x8, addend: 0x0, symName: '__ZN4core3ptr89drop_in_place$LT$syn..punctuated..Punctuated$LT$syn..ty..Type$C$syn..token..Comma$GT$$GT$17h4f5f58a59499600bE.llvm.5539649288794301635', symObjAddr: 0xD0C0, symBinAddr: 0xED20, symSize: 0x120 }
  - { offsetInCU: 0x37F9F, offset: 0x37F9F, size: 0x8, addend: 0x0, symName: '__ZN4core3ptr90drop_in_place$LT$core..option..Option$LT$alloc..boxed..Box$LT$syn..data..Field$GT$$GT$$GT$17h454deb16e3a4eef1E', symObjAddr: 0xD1E0, symBinAddr: 0xEE40, symSize: 0x50 }
  - { offsetInCU: 0x3810F, offset: 0x3810F, size: 0x8, addend: 0x0, symName: '__ZN4core3ptr90drop_in_place$LT$core..option..Option$LT$alloc..boxed..Box$LT$syn..item..FnArg$GT$$GT$$GT$17hef360843225aea6aE', symObjAddr: 0xD230, symBinAddr: 0xEE90, symSize: 0x50 }
  - { offsetInCU: 0x382FB, offset: 0x382FB, size: 0x8, addend: 0x0, symName: '__ZN4core3ptr91drop_in_place$LT$syn..punctuated..Punctuated$LT$syn..expr..Expr$C$syn..token..Comma$GT$$GT$17hd58eb524d598db47E', symObjAddr: 0xD280, symBinAddr: 0xEEE0, symSize: 0x120 }
  - { offsetInCU: 0x38790, offset: 0x38790, size: 0x8, addend: 0x0, symName: '__ZN4core3ptr92drop_in_place$LT$core..option..Option$LT$$LP$syn..token..As$C$proc_macro2..Ident$RP$$GT$$GT$17h747c6c7f4cab685bE', symObjAddr: 0xD3A0, symBinAddr: 0xF000, symSize: 0x30 }
  - { offsetInCU: 0x388AB, offset: 0x388AB, size: 0x8, addend: 0x0, symName: '__ZN4core3ptr92drop_in_place$LT$syn..punctuated..Punctuated$LT$syn..data..Field$C$syn..token..Comma$GT$$GT$17h2f752626d9ab431cE', symObjAddr: 0xD3D0, symBinAddr: 0xF030, symSize: 0x120 }
  - { offsetInCU: 0x38D2D, offset: 0x38D2D, size: 0x8, addend: 0x0, symName: '__ZN4core3ptr92drop_in_place$LT$syn..punctuated..Punctuated$LT$syn..item..FnArg$C$syn..token..Comma$GT$$GT$17h9606aceb38307ccaE', symObjAddr: 0xD4F0, symBinAddr: 0xF150, symSize: 0x150 }
  - { offsetInCU: 0x39278, offset: 0x39278, size: 0x8, addend: 0x0, symName: '__ZN4core3ptr94drop_in_place$LT$syn..punctuated..Punctuated$LT$syn..data..Variant$C$syn..token..Comma$GT$$GT$17h67933d61518bd986E', symObjAddr: 0xD640, symBinAddr: 0xF2A0, symSize: 0x120 }
  - { offsetInCU: 0x39789, offset: 0x39789, size: 0x8, addend: 0x0, symName: '__ZN4core3ptr94drop_in_place$LT$syn..punctuated..Punctuated$LT$syn..pat..FieldPat$C$syn..token..Comma$GT$$GT$17he151a7a5b61a7aa7E', symObjAddr: 0xD760, symBinAddr: 0xF3C0, symSize: 0xF0 }
  - { offsetInCU: 0x39B3D, offset: 0x39B3D, size: 0x8, addend: 0x0, symName: '__ZN4core3ptr94drop_in_place$LT$syn..punctuated..Punctuated$LT$syn..ty..BareFnArg$C$syn..token..Comma$GT$$GT$17hf06606e9ac170988E', symObjAddr: 0xD850, symBinAddr: 0xF4B0, symSize: 0x1B0 }
  - { offsetInCU: 0x3A003, offset: 0x3A003, size: 0x8, addend: 0x0, symName: '__ZN4core3ptr95drop_in_place$LT$core..option..Option$LT$$LP$proc_macro2..Ident$C$syn..token..Colon$RP$$GT$$GT$17he485e9433b5ed431E.llvm.5539649288794301635', symObjAddr: 0xDA00, symBinAddr: 0xF660, symSize: 0x30 }
  - { offsetInCU: 0x3A11E, offset: 0x3A11E, size: 0x8, addend: 0x0, symName: '__ZN4core3ptr96drop_in_place$LT$core..option..Option$LT$alloc..boxed..Box$LT$syn..path..PathSegment$GT$$GT$$GT$17hf4da121085436543E.llvm.5539649288794301635', symObjAddr: 0xDA30, symBinAddr: 0xF690, symSize: 0x90 }
  - { offsetInCU: 0x3A438, offset: 0x3A438, size: 0x8, addend: 0x0, symName: '__ZN4core3ptr97drop_in_place$LT$syn..punctuated..Punctuated$LT$syn..expr..FieldValue$C$syn..token..Comma$GT$$GT$17hf5a66fabf6df3124E', symObjAddr: 0xDB10, symBinAddr: 0xF720, symSize: 0xF0 }
  - { offsetInCU: 0x3A7EA, offset: 0x3A7EA, size: 0x8, addend: 0x0, symName: '__ZN4core3ptr97drop_in_place$LT$syn..punctuated..Punctuated$LT$syn..lifetime..Lifetime$C$syn..token..Add$GT$$GT$17h94fe2e5ec591b333E.llvm.5539649288794301635', symObjAddr: 0xDC00, symBinAddr: 0xF810, symSize: 0xD0 }
  - { offsetInCU: 0x3AC5C, offset: 0x3AC5C, size: 0x8, addend: 0x0, symName: '__ZN4core3ptr99drop_in_place$LT$syn..punctuated..Punctuated$LT$syn..path..PathSegment$C$syn..token..Colon2$GT$$GT$17h28b5ab1dba9dfc6bE.llvm.5539649288794301635', symObjAddr: 0xDCD0, symBinAddr: 0xF8E0, symSize: 0x1A0 }
  - { offsetInCU: 0x3D6D0, offset: 0x3D6D0, size: 0x8, addend: 0x0, symName: '__ZN48_$LT$T$u20$as$u20$core..clone..CloneToUninit$GT$15clone_to_uninit17h928ad9563c576317E', symObjAddr: 0x0, symBinAddr: 0x1C60, symSize: 0x330 }
  - { offsetInCU: 0x4004C, offset: 0x4004C, size: 0x8, addend: 0x0, symName: '__ZN70_$LT$alloc..vec..Vec$LT$T$C$A$GT$$u20$as$u20$core..ops..drop..Drop$GT$4drop17h089f54ff4038fd3aE', symObjAddr: 0xE0F0, symBinAddr: 0xFA80, symSize: 0xD0 }
  - { offsetInCU: 0x40199, offset: 0x40199, size: 0x8, addend: 0x0, symName: '__ZN70_$LT$alloc..vec..Vec$LT$T$C$A$GT$$u20$as$u20$core..ops..drop..Drop$GT$4drop17h764d1ae8b5240809E', symObjAddr: 0xE5F0, symBinAddr: 0xFB50, symSize: 0xB0 }
  - { offsetInCU: 0x402D0, offset: 0x402D0, size: 0x8, addend: 0x0, symName: '__ZN70_$LT$alloc..vec..Vec$LT$T$C$A$GT$$u20$as$u20$core..ops..drop..Drop$GT$4drop17hf5e53554ecc6558fE', symObjAddr: 0xE9F0, symBinAddr: 0xFC00, symSize: 0xC0 }
  - { offsetInCU: 0x4054C, offset: 0x4054C, size: 0x8, addend: 0x0, symName: '__ZN98_$LT$alloc..vec..Vec$LT$T$GT$$u20$as$u20$alloc..vec..spec_from_iter..SpecFromIter$LT$T$C$I$GT$$GT$9from_iter17h2f3c92832f350154E', symObjAddr: 0xEB30, symBinAddr: 0xFCC0, symSize: 0x353 }
  - { offsetInCU: 0x1E, offset: 0x4C9DF, size: 0x8, addend: 0x0, symName: __ZN5alloc7raw_vec11finish_grow17he24db5032311547dE.llvm.509094557159822117, symObjAddr: 0x0, symBinAddr: 0x10020, symSize: 0xA0 }
  - { offsetInCU: 0x1CC4, offset: 0x4E685, size: 0x8, addend: 0x0, symName: __ZN5alloc7raw_vec11finish_grow17he24db5032311547dE.llvm.509094557159822117, symObjAddr: 0x0, symBinAddr: 0x10020, symSize: 0xA0 }
  - { offsetInCU: 0x224A, offset: 0x4EC0B, size: 0x8, addend: 0x0, symName: '__ZN5alloc7raw_vec19RawVec$LT$T$C$A$GT$7reserve21do_reserve_and_handle17h50e5b7180784e255E', symObjAddr: 0x160, symBinAddr: 0x1AE1D0, symSize: 0xB0 }
  - { offsetInCU: 0x2575, offset: 0x4EF36, size: 0x8, addend: 0x0, symName: '__ZN5alloc7raw_vec19RawVec$LT$T$C$A$GT$7reserve21do_reserve_and_handle17h69c3c68c1c2115a3E', symObjAddr: 0x210, symBinAddr: 0x1AE280, symSize: 0xA0 }
  - { offsetInCU: 0x3461, offset: 0x4FE22, size: 0x8, addend: 0x0, symName: '__ZN5alloc7raw_vec19RawVec$LT$T$C$A$GT$8grow_one17h16f812a84c7da3d3E', symObjAddr: 0x2B0, symBinAddr: 0x100C0, symSize: 0xC0 }
  - { offsetInCU: 0x37A2, offset: 0x50163, size: 0x8, addend: 0x0, symName: '__ZN5alloc7raw_vec19RawVec$LT$T$C$A$GT$8grow_one17hcd822e91d2fff012E', symObjAddr: 0x370, symBinAddr: 0x10180, symSize: 0xA0 }
  - { offsetInCU: 0x3AA4, offset: 0x50465, size: 0x8, addend: 0x0, symName: '__ZN5alloc7raw_vec19RawVec$LT$T$C$A$GT$8grow_one17hde9964a967c80f8aE', symObjAddr: 0x410, symBinAddr: 0x10220, symSize: 0xB0 }
  - { offsetInCU: 0x3F70, offset: 0x50931, size: 0x8, addend: 0x0, symName: '__ZN5alloc7raw_vec19RawVec$LT$T$C$A$GT$8grow_one17hfc84fd54ca388d53E', symObjAddr: 0x4C0, symBinAddr: 0x102D0, symSize: 0xC0 }
  - { offsetInCU: 0x1752, offset: 0x523D6, size: 0x8, addend: 0x0, symName: '__ZN4core3ptr45drop_in_place$LT$proc_macro2..TokenStream$GT$17h4f519549e61c8b11E', symObjAddr: 0x20, symBinAddr: 0x10390, symSize: 0x140 }
  - { offsetInCU: 0x1BAE, offset: 0x52832, size: 0x8, addend: 0x0, symName: '__ZN4core3ptr65drop_in_place$LT$alloc..vec..Vec$LT$proc_macro..TokenTree$GT$$GT$17h95ddd3cd51fa59e3E', symObjAddr: 0x160, symBinAddr: 0x104D0, symSize: 0x110 }
  - { offsetInCU: 0x1FC5, offset: 0x52C49, size: 0x8, addend: 0x0, symName: '__ZN4core3ptr68drop_in_place$LT$alloc..vec..Vec$LT$proc_macro2..TokenStream$GT$$GT$17h2a95f48bf74b5e76E', symObjAddr: 0x270, symBinAddr: 0x105E0, symSize: 0xC0 }
  - { offsetInCU: 0x22A2, offset: 0x52F26, size: 0x8, addend: 0x0, symName: '__ZN4core3ptr89drop_in_place$LT$alloc..vec..Vec$LT$ark_serialize_derive..serialize..IdentOrIndex$GT$$GT$17h501ff9c3d0f0348cE', symObjAddr: 0x330, symBinAddr: 0x106A0, symSize: 0x90 }
  - { offsetInCU: 0xBA84, offset: 0x5C708, size: 0x8, addend: 0x0, symName: __ZN20ark_serialize_derive11deserialize16impl_valid_field17hcab19a1ccfd8a055E, symObjAddr: 0x3C0, symBinAddr: 0x10730, symSize: 0x6F0 }
  - { offsetInCU: 0xC9BF, offset: 0x5D643, size: 0x8, addend: 0x0, symName: __ZN20ark_serialize_derive11deserialize22impl_deserialize_field17h9d3468f391e147a4E.llvm.17760672739686318426, symObjAddr: 0xAB0, symBinAddr: 0x10E20, symSize: 0x360 }
  - { offsetInCU: 0xD3AF, offset: 0x5E033, size: 0x8, addend: 0x0, symName: __ZN20ark_serialize_derive11deserialize26impl_canonical_deserialize17hd3bf9991b95dad37E, symObjAddr: 0xE10, symBinAddr: 0x11180, symSize: 0x1D5E }
  - { offsetInCU: 0x1E, offset: 0x6333E, size: 0x8, addend: 0x0, symName: '__ZN40_$LT$F$u20$as$u20$syn..parse..Parser$GT$6parse217h7e3a1560e89f5503E', symObjAddr: 0x0, symBinAddr: 0x12EE0, symSize: 0x380 }
  - { offsetInCU: 0xA02, offset: 0x63D22, size: 0x8, addend: 0x0, symName: '__ZN4core3ptr100drop_in_place$LT$core..option..Option$LT$alloc..boxed..Box$LT$syn..generics..LifetimeDef$GT$$GT$$GT$17hbe26351241f166acE', symObjAddr: 0x380, symBinAddr: 0x13260, symSize: 0x50 }
  - { offsetInCU: 0xB84, offset: 0x63EA4, size: 0x8, addend: 0x0, symName: '__ZN4core3ptr100drop_in_place$LT$core..option..Option$LT$alloc..boxed..Box$LT$syn..path..GenericArgument$GT$$GT$$GT$17h666748ca71ff3dbfE', symObjAddr: 0x3D0, symBinAddr: 0x132B0, symSize: 0x50 }
  - { offsetInCU: 0xE68, offset: 0x64188, size: 0x8, addend: 0x0, symName: '__ZN4core3ptr101drop_in_place$LT$core..option..Option$LT$alloc..boxed..Box$LT$syn..generics..GenericParam$GT$$GT$$GT$17h7e591987f08f8a13E', symObjAddr: 0x420, symBinAddr: 0x13300, symSize: 0x310 }
  - { offsetInCU: 0x18A3, offset: 0x64BC3, size: 0x8, addend: 0x0, symName: '__ZN4core3ptr103drop_in_place$LT$core..option..Option$LT$alloc..boxed..Box$LT$syn..generics..WherePredicate$GT$$GT$$GT$17ha38568c788b2be78E', symObjAddr: 0x730, symBinAddr: 0x13610, symSize: 0x120 }
  - { offsetInCU: 0x1CB5, offset: 0x64FD5, size: 0x8, addend: 0x0, symName: '__ZN4core3ptr103drop_in_place$LT$syn..punctuated..Punctuated$LT$syn..generics..TypeParamBound$C$syn..token..Add$GT$$GT$17h42839728032e1c04E', symObjAddr: 0x850, symBinAddr: 0x13730, symSize: 0x200 }
  - { offsetInCU: 0x25A6, offset: 0x658C6, size: 0x8, addend: 0x0, symName: '__ZN4core3ptr108drop_in_place$LT$syn..punctuated..Punctuated$LT$syn..expr..GenericMethodArgument$C$syn..token..Comma$GT$$GT$17h536f20bec431f44aE', symObjAddr: 0xA50, symBinAddr: 0x13930, symSize: 0x150 }
  - { offsetInCU: 0x2AFF, offset: 0x65E1F, size: 0x8, addend: 0x0, symName: '__ZN4core3ptr34drop_in_place$LT$syn..lit..Lit$GT$17h67dd77fa47b8339fE', symObjAddr: 0xBA0, symBinAddr: 0x13A80, symSize: 0x110 }
  - { offsetInCU: 0x2F71, offset: 0x66291, size: 0x8, addend: 0x0, symName: '__ZN4core3ptr34drop_in_place$LT$syn..pat..Pat$GT$17hf4038579752ef7ecE', symObjAddr: 0xCB0, symBinAddr: 0x13B90, symSize: 0x1050 }
  - { offsetInCU: 0x6930, offset: 0x69C50, size: 0x8, addend: 0x0, symName: '__ZN4core3ptr34drop_in_place$LT$syn..ty..Type$GT$17h0e8bf9e377e7dff6E', symObjAddr: 0x1D00, symBinAddr: 0x14BE0, symSize: 0x5F0 }
  - { offsetInCU: 0x84DF, offset: 0x6B7FF, size: 0x8, addend: 0x0, symName: '__ZN4core3ptr36drop_in_place$LT$syn..expr..Expr$GT$17h6daaadd6c9cc8c8fE', symObjAddr: 0x22F0, symBinAddr: 0x151D0, symSize: 0x31D0 }
  - { offsetInCU: 0x12A68, offset: 0x75D88, size: 0x8, addend: 0x0, symName: '__ZN4core3ptr36drop_in_place$LT$syn..mac..Macro$GT$17h36829856bc2be92cE', symObjAddr: 0x54C0, symBinAddr: 0x183A0, symSize: 0xE0 }
  - { offsetInCU: 0x12E6E, offset: 0x7618E, size: 0x8, addend: 0x0, symName: '__ZN4core3ptr36drop_in_place$LT$syn..path..Path$GT$17h7679bff301ed1018E', symObjAddr: 0x55A0, symBinAddr: 0x18480, symSize: 0x230 }
  - { offsetInCU: 0x13804, offset: 0x76B24, size: 0x8, addend: 0x0, symName: '__ZN4core3ptr37drop_in_place$LT$syn..stmt..Block$GT$17h534907c7327c91b0E', symObjAddr: 0x57D0, symBinAddr: 0x186B0, symSize: 0xD0 }
  - { offsetInCU: 0x13B76, offset: 0x76E96, size: 0x8, addend: 0x0, symName: '__ZN4core3ptr38drop_in_place$LT$syn..data..Fields$GT$17h29ed7347ccbdff80E', symObjAddr: 0x58A0, symBinAddr: 0x18780, symSize: 0x180 }
  - { offsetInCU: 0x14076, offset: 0x77396, size: 0x8, addend: 0x0, symName: '__ZN4core3ptr38drop_in_place$LT$syn..derive..Data$GT$17h3d54d088dfb0586dE', symObjAddr: 0x5A20, symBinAddr: 0x18900, symSize: 0x1C0 }
  - { offsetInCU: 0x14718, offset: 0x77A38, size: 0x8, addend: 0x0, symName: '__ZN4core3ptr38drop_in_place$LT$syn..expr..Member$GT$17hd51f52742f680e47E', symObjAddr: 0x5BE0, symBinAddr: 0x18AC0, symSize: 0x30 }
  - { offsetInCU: 0x14814, offset: 0x77B34, size: 0x8, addend: 0x0, symName: '__ZN4core3ptr39drop_in_place$LT$proc_macro2..Ident$GT$17h2517518c7515e723E', symObjAddr: 0x5C10, symBinAddr: 0x18AF0, symSize: 0x30 }
  - { offsetInCU: 0x14A27, offset: 0x77D47, size: 0x8, addend: 0x0, symName: '__ZN4core3ptr39drop_in_place$LT$syn..buffer..Entry$GT$17hc9d63d16fb288a90E', symObjAddr: 0x5C40, symBinAddr: 0x18B20, symSize: 0xB0 }
  - { offsetInCU: 0x14DB2, offset: 0x780D2, size: 0x8, addend: 0x0, symName: '__ZN4core3ptr39drop_in_place$LT$syn..pat..PatTuple$GT$17he7364ae96bac9e62E', symObjAddr: 0x5CF0, symBinAddr: 0x18BD0, symSize: 0x100 }
  - { offsetInCU: 0x150BB, offset: 0x783DB, size: 0x8, addend: 0x0, symName: '__ZN4core3ptr40drop_in_place$LT$syn..ty..ReturnType$GT$17hd3f3c77ab2db8414E', symObjAddr: 0x5DF0, symBinAddr: 0x18CD0, symSize: 0x50 }
  - { offsetInCU: 0x15269, offset: 0x78589, size: 0x8, addend: 0x0, symName: '__ZN4core3ptr42drop_in_place$LT$syn..data..Visibility$GT$17h69d8132c5bc64704E', symObjAddr: 0x5E40, symBinAddr: 0x18D20, symSize: 0x60 }
  - { offsetInCU: 0x15437, offset: 0x78757, size: 0x8, addend: 0x0, symName: '__ZN4core3ptr44drop_in_place$LT$syn..generics..Generics$GT$17hee5e8fc0c72e03c7E', symObjAddr: 0x5EA0, symBinAddr: 0x18D80, symSize: 0xA0 }
  - { offsetInCU: 0x156A3, offset: 0x789C3, size: 0x8, addend: 0x0, symName: '__ZN4core3ptr44drop_in_place$LT$syn..lifetime..Lifetime$GT$17h826d03abdf62fec0E', symObjAddr: 0x5F40, symBinAddr: 0x18E20, symSize: 0x30 }
  - { offsetInCU: 0x1579F, offset: 0x78ABF, size: 0x8, addend: 0x0, symName: '__ZN4core3ptr44drop_in_place$LT$syn..parse..ParseBuffer$GT$17h6e82b75302581f85E', symObjAddr: 0x5F70, symBinAddr: 0x18E50, symSize: 0x70 }
  - { offsetInCU: 0x15B1B, offset: 0x78E3B, size: 0x8, addend: 0x0, symName: '__ZN4core3ptr45drop_in_place$LT$proc_macro2..TokenStream$GT$17h4f519549e61c8b11E', symObjAddr: 0x5FE0, symBinAddr: 0x18EC0, symSize: 0x140 }
  - { offsetInCU: 0x15F77, offset: 0x79297, size: 0x8, addend: 0x0, symName: '__ZN4core3ptr45drop_in_place$LT$syn..buffer..TokenBuffer$GT$17h3ea3f27e5c06355dE', symObjAddr: 0x6120, symBinAddr: 0x19000, symSize: 0xC0 }
  - { offsetInCU: 0x161C0, offset: 0x794E0, size: 0x8, addend: 0x0, symName: '__ZN4core3ptr45drop_in_place$LT$syn..derive..DeriveInput$GT$17h53c36a502be6e212E', symObjAddr: 0x61E0, symBinAddr: 0x190C0, symSize: 0x190 }
  - { offsetInCU: 0x1672C, offset: 0x79A4C, size: 0x8, addend: 0x0, symName: '__ZN4core3ptr47drop_in_place$LT$syn..generics..LifetimeDef$GT$17hd9a91582ccc778edE', symObjAddr: 0x6370, symBinAddr: 0x19250, symSize: 0x120 }
  - { offsetInCU: 0x16B87, offset: 0x79EA7, size: 0x8, addend: 0x0, symName: '__ZN4core3ptr47drop_in_place$LT$syn..path..GenericArgument$GT$17hc10ad5f41fc42055E', symObjAddr: 0x6490, symBinAddr: 0x19370, symSize: 0x110 }
  - { offsetInCU: 0x16EB5, offset: 0x7A1D5, size: 0x8, addend: 0x0, symName: '__ZN4core3ptr58drop_in_place$LT$alloc..vec..Vec$LT$syn..expr..Arm$GT$$GT$17h4159b786ed045cb8E', symObjAddr: 0x65A0, symBinAddr: 0x19480, symSize: 0xD0 }
  - { offsetInCU: 0x17175, offset: 0x7A495, size: 0x8, addend: 0x0, symName: '__ZN4core3ptr59drop_in_place$LT$alloc..boxed..Box$LT$syn..pat..Pat$GT$$GT$17hdc0724d76d32dba5E', symObjAddr: 0x6670, symBinAddr: 0x19550, symSize: 0x50 }
  - { offsetInCU: 0x172CE, offset: 0x7A5EE, size: 0x8, addend: 0x0, symName: '__ZN4core3ptr59drop_in_place$LT$alloc..boxed..Box$LT$syn..ty..Type$GT$$GT$17h52b7b6a45c18e7a6E', symObjAddr: 0x66C0, symBinAddr: 0x195A0, symSize: 0x50 }
  - { offsetInCU: 0x17427, offset: 0x7A747, size: 0x8, addend: 0x0, symName: '__ZN4core3ptr61drop_in_place$LT$alloc..boxed..Box$LT$syn..expr..Expr$GT$$GT$17haa86d58680159672E', symObjAddr: 0x6710, symBinAddr: 0x195F0, symSize: 0x50 }
  - { offsetInCU: 0x17580, offset: 0x7A8A0, size: 0x8, addend: 0x0, symName: '__ZN4core3ptr61drop_in_place$LT$syn..path..ParenthesizedGenericArguments$GT$17h2aa87508f4fe4835E', symObjAddr: 0x6760, symBinAddr: 0x19640, symSize: 0x170 }
  - { offsetInCU: 0x17B89, offset: 0x7AEA9, size: 0x8, addend: 0x0, symName: '__ZN4core3ptr63drop_in_place$LT$alloc..boxed..Box$LT$syn..lit..LitRepr$GT$$GT$17h3fb1a5b67379feefE', symObjAddr: 0x68D0, symBinAddr: 0x197B0, symSize: 0x60 }
  - { offsetInCU: 0x17E90, offset: 0x7B1B0, size: 0x8, addend: 0x0, symName: '__ZN4core3ptr64drop_in_place$LT$alloc..boxed..Box$LT$syn..pat..FieldPat$GT$$GT$17haf9dc02d2a94e29bE', symObjAddr: 0x6930, symBinAddr: 0x19810, symSize: 0x180 }
  - { offsetInCU: 0x185AD, offset: 0x7B8CD, size: 0x8, addend: 0x0, symName: '__ZN4core3ptr64drop_in_place$LT$alloc..boxed..Box$LT$syn..ty..BareFnArg$GT$$GT$17h150fe786aa581705E', symObjAddr: 0x6AB0, symBinAddr: 0x19990, symSize: 0x160 }
  - { offsetInCU: 0x18B43, offset: 0x7BE63, size: 0x8, addend: 0x0, symName: '__ZN4core3ptr65drop_in_place$LT$alloc..vec..Vec$LT$proc_macro..TokenTree$GT$$GT$17h95ddd3cd51fa59e3E', symObjAddr: 0x6C10, symBinAddr: 0x19AF0, symSize: 0x110 }
  - { offsetInCU: 0x18F3B, offset: 0x7C25B, size: 0x8, addend: 0x0, symName: '__ZN4core3ptr65drop_in_place$LT$core..option..Option$LT$syn..expr..Label$GT$$GT$17h0c8998d9c3180861E', symObjAddr: 0x6D20, symBinAddr: 0x19C00, symSize: 0x30 }
  - { offsetInCU: 0x19075, offset: 0x7C395, size: 0x8, addend: 0x0, symName: '__ZN4core3ptr66drop_in_place$LT$core..option..Option$LT$syn..ty..Variadic$GT$$GT$17hc17b3dca3677a430E', symObjAddr: 0x6D50, symBinAddr: 0x19C30, symSize: 0xF0 }
  - { offsetInCU: 0x1939F, offset: 0x7C6BF, size: 0x8, addend: 0x0, symName: '__ZN4core3ptr67drop_in_place$LT$alloc..boxed..Box$LT$syn..expr..FieldValue$GT$$GT$17hf917334750e0c372E', symObjAddr: 0x6E40, symBinAddr: 0x19D20, symSize: 0x160 }
  - { offsetInCU: 0x19915, offset: 0x7CC35, size: 0x8, addend: 0x0, symName: '__ZN4core3ptr72drop_in_place$LT$core..option..Option$LT$syn..lifetime..Lifetime$GT$$GT$17h890b5de0e6c8e8f7E', symObjAddr: 0x6FA0, symBinAddr: 0x19E80, symSize: 0x30 }
  - { offsetInCU: 0x19A30, offset: 0x7CD50, size: 0x8, addend: 0x0, symName: '__ZN4core3ptr75drop_in_place$LT$alloc..boxed..Box$LT$syn..generics..TypeParamBound$GT$$GT$17hf6c233b62435a906E', symObjAddr: 0x6FD0, symBinAddr: 0x19EB0, symSize: 0x140 }
  - { offsetInCU: 0x1A007, offset: 0x7D327, size: 0x8, addend: 0x0, symName: '__ZN4core3ptr75drop_in_place$LT$core..option..Option$LT$syn..generics..WhereClause$GT$$GT$17h4b9a96201d4d50a4E', symObjAddr: 0x7110, symBinAddr: 0x19FF0, symSize: 0xF0 }
  - { offsetInCU: 0x1A329, offset: 0x7D649, size: 0x8, addend: 0x0, symName: '__ZN4core3ptr78drop_in_place$LT$alloc..boxed..Box$LT$syn..expr..GenericMethodArgument$GT$$GT$17h00bdd80c737e945eE', symObjAddr: 0x7200, symBinAddr: 0x1A0E0, symSize: 0x60 }
  - { offsetInCU: 0x1A53A, offset: 0x7D85A, size: 0x8, addend: 0x0, symName: '__ZN4core3ptr78drop_in_place$LT$core..option..Option$LT$syn..generics..BoundLifetimes$GT$$GT$17h4abcbb7b1a9a0ad3E', symObjAddr: 0x7260, symBinAddr: 0x1A140, symSize: 0xC0 }
  - { offsetInCU: 0x1A970, offset: 0x7DC90, size: 0x8, addend: 0x0, symName: '__ZN4core3ptr86drop_in_place$LT$syn..punctuated..Punctuated$LT$syn..pat..Pat$C$syn..token..Or$GT$$GT$17h5e27d4a18e27baacE', symObjAddr: 0x7320, symBinAddr: 0x1A200, symSize: 0x120 }
  - { offsetInCU: 0x1ADEB, offset: 0x7E10B, size: 0x8, addend: 0x0, symName: '__ZN4core3ptr87drop_in_place$LT$core..option..Option$LT$alloc..boxed..Box$LT$syn..pat..Pat$GT$$GT$$GT$17h5d97deefae5f58d4E', symObjAddr: 0x7440, symBinAddr: 0x1A320, symSize: 0x50 }
  - { offsetInCU: 0x1AF5B, offset: 0x7E27B, size: 0x8, addend: 0x0, symName: '__ZN4core3ptr87drop_in_place$LT$core..option..Option$LT$alloc..boxed..Box$LT$syn..ty..Type$GT$$GT$$GT$17h4e3af2861b268376E', symObjAddr: 0x7490, symBinAddr: 0x1A370, symSize: 0x50 }
  - { offsetInCU: 0x1B0CB, offset: 0x7E3EB, size: 0x8, addend: 0x0, symName: '__ZN4core3ptr89drop_in_place$LT$core..option..Option$LT$alloc..boxed..Box$LT$syn..expr..Expr$GT$$GT$$GT$17h9b20c586f6fbc962E', symObjAddr: 0x74E0, symBinAddr: 0x1A3C0, symSize: 0x50 }
  - { offsetInCU: 0x1B279, offset: 0x7E599, size: 0x8, addend: 0x0, symName: '__ZN4core3ptr89drop_in_place$LT$syn..punctuated..Punctuated$LT$syn..pat..Pat$C$syn..token..Comma$GT$$GT$17h4fb30a7ed1d667a8E', symObjAddr: 0x7530, symBinAddr: 0x1A410, symSize: 0x120 }
  - { offsetInCU: 0x1B768, offset: 0x7EA88, size: 0x8, addend: 0x0, symName: '__ZN4core3ptr90drop_in_place$LT$core..option..Option$LT$alloc..boxed..Box$LT$syn..data..Field$GT$$GT$$GT$17h454deb16e3a4eef1E', symObjAddr: 0x7650, symBinAddr: 0x1A530, symSize: 0x1D0 }
  - { offsetInCU: 0x1BE63, offset: 0x7F183, size: 0x8, addend: 0x0, symName: '__ZN4core3ptr91drop_in_place$LT$syn..punctuated..Punctuated$LT$syn..expr..Expr$C$syn..token..Comma$GT$$GT$17hd58eb524d598db47E', symObjAddr: 0x7820, symBinAddr: 0x1A700, symSize: 0x120 }
  - { offsetInCU: 0x1C36D, offset: 0x7F68D, size: 0x8, addend: 0x0, symName: '__ZN4core3ptr92drop_in_place$LT$core..option..Option$LT$alloc..boxed..Box$LT$syn..data..Variant$GT$$GT$$GT$17h3755c177a9311643E', symObjAddr: 0x7940, symBinAddr: 0x1A820, symSize: 0x1A0 }
  - { offsetInCU: 0x1C934, offset: 0x7FC54, size: 0x8, addend: 0x0, symName: '__ZN4core3ptr94drop_in_place$LT$syn..punctuated..Punctuated$LT$syn..pat..FieldPat$C$syn..token..Comma$GT$$GT$17he151a7a5b61a7aa7E', symObjAddr: 0x7AE0, symBinAddr: 0x1A9C0, symSize: 0xF0 }
  - { offsetInCU: 0x1CC33, offset: 0x7FF53, size: 0x8, addend: 0x0, symName: '__ZN4core3ptr94drop_in_place$LT$syn..punctuated..Punctuated$LT$syn..ty..BareFnArg$C$syn..token..Comma$GT$$GT$17hf06606e9ac170988E', symObjAddr: 0x7BD0, symBinAddr: 0x1AAB0, symSize: 0x90 }
  - { offsetInCU: 0x1CEA3, offset: 0x801C3, size: 0x8, addend: 0x0, symName: '__ZN4core3ptr96drop_in_place$LT$core..option..Option$LT$alloc..boxed..Box$LT$syn..path..PathSegment$GT$$GT$$GT$17hf4da121085436543E', symObjAddr: 0x7C60, symBinAddr: 0x1AB40, symSize: 0x180 }
  - { offsetInCU: 0x1D560, offset: 0x80880, size: 0x8, addend: 0x0, symName: '__ZN4core3ptr97drop_in_place$LT$syn..punctuated..Punctuated$LT$syn..expr..FieldValue$C$syn..token..Comma$GT$$GT$17hf5a66fabf6df3124E', symObjAddr: 0x7DE0, symBinAddr: 0x1ACC0, symSize: 0xF0 }
  - { offsetInCU: 0x1D8D9, offset: 0x80BF9, size: 0x8, addend: 0x0, symName: '__ZN4core3ptr97drop_in_place$LT$syn..punctuated..Punctuated$LT$syn..lifetime..Lifetime$C$syn..token..Add$GT$$GT$17h94fe2e5ec591b333E', symObjAddr: 0x7ED0, symBinAddr: 0x1ADB0, symSize: 0xC6 }
  - { offsetInCU: 0x1E2B7, offset: 0x815D7, size: 0x8, addend: 0x0, symName: '__ZN40_$LT$F$u20$as$u20$syn..parse..Parser$GT$6parse217h7e3a1560e89f5503E', symObjAddr: 0x0, symBinAddr: 0x12EE0, symSize: 0x380 }
  - { offsetInCU: 0x1E, offset: 0x8FBC6, size: 0x8, addend: 0x0, symName: __ZN10proc_macro6bridge6client14HandleCounters3get17h2c76d49220b98e92E, symObjAddr: 0x0, symBinAddr: 0x1AE80, symSize: 0x10 }
  - { offsetInCU: 0x40, offset: 0x8FBE8, size: 0x8, addend: 0x0, symName: ___rustc_proc_macro_decls_107d4618a96dc025__, symObjAddr: 0x8F38, symBinAddr: 0x204268, symSize: 0x0 }
  - { offsetInCU: 0x4F, offset: 0x8FBF7, size: 0x8, addend: 0x0, symName: __ZN20ark_serialize_derive26derive_canonical_serialize17h13309ad73116eb9cE, symObjAddr: 0x7AD0, symBinAddr: 0x22950, symSize: 0x160 }
  - { offsetInCU: 0x39F, offset: 0x8FF47, size: 0x8, addend: 0x0, symName: __ZN20ark_serialize_derive28derive_canonical_deserialize17hf7974ad5134b9335E, symObjAddr: 0x7C30, symBinAddr: 0x22AB0, symSize: 0x152 }
  - { offsetInCU: 0x3E77, offset: 0x93A1F, size: 0x8, addend: 0x0, symName: '__ZN4core3ptr100drop_in_place$LT$core..option..Option$LT$alloc..boxed..Box$LT$syn..generics..LifetimeDef$GT$$GT$$GT$17hbe26351241f166acE', symObjAddr: 0x10, symBinAddr: 0x1AE90, symSize: 0x50 }
  - { offsetInCU: 0x3FF9, offset: 0x93BA1, size: 0x8, addend: 0x0, symName: '__ZN4core3ptr100drop_in_place$LT$core..option..Option$LT$alloc..boxed..Box$LT$syn..path..GenericArgument$GT$$GT$$GT$17h666748ca71ff3dbfE', symObjAddr: 0x60, symBinAddr: 0x1AEE0, symSize: 0x50 }
  - { offsetInCU: 0x42DD, offset: 0x93E85, size: 0x8, addend: 0x0, symName: '__ZN4core3ptr101drop_in_place$LT$core..option..Option$LT$alloc..boxed..Box$LT$syn..generics..GenericParam$GT$$GT$$GT$17h7e591987f08f8a13E.llvm.10103721055355967149', symObjAddr: 0xB0, symBinAddr: 0x1AF30, symSize: 0x310 }
  - { offsetInCU: 0x4D18, offset: 0x948C0, size: 0x8, addend: 0x0, symName: '__ZN4core3ptr103drop_in_place$LT$core..option..Option$LT$alloc..boxed..Box$LT$syn..generics..WherePredicate$GT$$GT$$GT$17ha38568c788b2be78E.llvm.10103721055355967149', symObjAddr: 0x3C0, symBinAddr: 0x1B240, symSize: 0x120 }
  - { offsetInCU: 0x512A, offset: 0x94CD2, size: 0x8, addend: 0x0, symName: '__ZN4core3ptr103drop_in_place$LT$syn..punctuated..Punctuated$LT$syn..generics..TypeParamBound$C$syn..token..Add$GT$$GT$17h42839728032e1c04E', symObjAddr: 0x4E0, symBinAddr: 0x1B360, symSize: 0x200 }
  - { offsetInCU: 0x5A1B, offset: 0x955C3, size: 0x8, addend: 0x0, symName: '__ZN4core3ptr108drop_in_place$LT$syn..punctuated..Punctuated$LT$syn..expr..GenericMethodArgument$C$syn..token..Comma$GT$$GT$17h536f20bec431f44aE', symObjAddr: 0x6E0, symBinAddr: 0x1B560, symSize: 0x150 }
  - { offsetInCU: 0x5F74, offset: 0x95B1C, size: 0x8, addend: 0x0, symName: '__ZN4core3ptr34drop_in_place$LT$syn..lit..Lit$GT$17h67dd77fa47b8339fE', symObjAddr: 0x830, symBinAddr: 0x1B6B0, symSize: 0x110 }
  - { offsetInCU: 0x63E6, offset: 0x95F8E, size: 0x8, addend: 0x0, symName: '__ZN4core3ptr34drop_in_place$LT$syn..pat..Pat$GT$17hf4038579752ef7ecE', symObjAddr: 0x940, symBinAddr: 0x1B7C0, symSize: 0x1050 }
  - { offsetInCU: 0x9DA5, offset: 0x9994D, size: 0x8, addend: 0x0, symName: '__ZN4core3ptr34drop_in_place$LT$syn..ty..Type$GT$17h0e8bf9e377e7dff6E', symObjAddr: 0x1990, symBinAddr: 0x1C810, symSize: 0x5F0 }
  - { offsetInCU: 0xB954, offset: 0x9B4FC, size: 0x8, addend: 0x0, symName: '__ZN4core3ptr36drop_in_place$LT$syn..expr..Expr$GT$17h6daaadd6c9cc8c8fE', symObjAddr: 0x1F80, symBinAddr: 0x1CE00, symSize: 0x31D0 }
  - { offsetInCU: 0x15EDD, offset: 0xA5A85, size: 0x8, addend: 0x0, symName: '__ZN4core3ptr36drop_in_place$LT$syn..mac..Macro$GT$17h36829856bc2be92cE', symObjAddr: 0x5150, symBinAddr: 0x1FFD0, symSize: 0xE0 }
  - { offsetInCU: 0x162E3, offset: 0xA5E8B, size: 0x8, addend: 0x0, symName: '__ZN4core3ptr36drop_in_place$LT$syn..path..Path$GT$17h7679bff301ed1018E.llvm.10103721055355967149', symObjAddr: 0x5230, symBinAddr: 0x200B0, symSize: 0x230 }
  - { offsetInCU: 0x16C79, offset: 0xA6821, size: 0x8, addend: 0x0, symName: '__ZN4core3ptr37drop_in_place$LT$syn..stmt..Block$GT$17h534907c7327c91b0E', symObjAddr: 0x5460, symBinAddr: 0x202E0, symSize: 0xD0 }
  - { offsetInCU: 0x16FEB, offset: 0xA6B93, size: 0x8, addend: 0x0, symName: '__ZN4core3ptr38drop_in_place$LT$syn..data..Fields$GT$17h29ed7347ccbdff80E', symObjAddr: 0x5530, symBinAddr: 0x203B0, symSize: 0x180 }
  - { offsetInCU: 0x174EB, offset: 0xA7093, size: 0x8, addend: 0x0, symName: '__ZN4core3ptr38drop_in_place$LT$syn..derive..Data$GT$17h3d54d088dfb0586dE.llvm.10103721055355967149', symObjAddr: 0x56B0, symBinAddr: 0x20530, symSize: 0x1C0 }
  - { offsetInCU: 0x17BCB, offset: 0xA7773, size: 0x8, addend: 0x0, symName: '__ZN4core3ptr38drop_in_place$LT$syn..error..Error$GT$17h836cd686126b7ea8E.llvm.10103721055355967149', symObjAddr: 0x5870, symBinAddr: 0x206F0, symSize: 0x80 }
  - { offsetInCU: 0x17E78, offset: 0xA7A20, size: 0x8, addend: 0x0, symName: '__ZN4core3ptr38drop_in_place$LT$syn..expr..Member$GT$17hd51f52742f680e47E', symObjAddr: 0x58F0, symBinAddr: 0x20770, symSize: 0x30 }
  - { offsetInCU: 0x17F74, offset: 0xA7B1C, size: 0x8, addend: 0x0, symName: '__ZN4core3ptr39drop_in_place$LT$proc_macro2..Ident$GT$17h2517518c7515e723E.llvm.10103721055355967149', symObjAddr: 0x5920, symBinAddr: 0x207A0, symSize: 0x30 }
  - { offsetInCU: 0x18051, offset: 0xA7BF9, size: 0x8, addend: 0x0, symName: '__ZN4core3ptr39drop_in_place$LT$syn..pat..PatTuple$GT$17he7364ae96bac9e62E', symObjAddr: 0x5950, symBinAddr: 0x207D0, symSize: 0x100 }
  - { offsetInCU: 0x1835A, offset: 0xA7F02, size: 0x8, addend: 0x0, symName: '__ZN4core3ptr40drop_in_place$LT$syn..ty..ReturnType$GT$17hd3f3c77ab2db8414E', symObjAddr: 0x5A50, symBinAddr: 0x208D0, symSize: 0x50 }
  - { offsetInCU: 0x18508, offset: 0xA80B0, size: 0x8, addend: 0x0, symName: '__ZN4core3ptr42drop_in_place$LT$syn..data..Visibility$GT$17h69d8132c5bc64704E.llvm.10103721055355967149', symObjAddr: 0x5AA0, symBinAddr: 0x20920, symSize: 0x60 }
  - { offsetInCU: 0x186D6, offset: 0xA827E, size: 0x8, addend: 0x0, symName: '__ZN4core3ptr44drop_in_place$LT$syn..generics..Generics$GT$17hee5e8fc0c72e03c7E.llvm.10103721055355967149', symObjAddr: 0x5B00, symBinAddr: 0x20980, symSize: 0xA0 }
  - { offsetInCU: 0x18942, offset: 0xA84EA, size: 0x8, addend: 0x0, symName: '__ZN4core3ptr44drop_in_place$LT$syn..lifetime..Lifetime$GT$17h826d03abdf62fec0E', symObjAddr: 0x5BA0, symBinAddr: 0x20A20, symSize: 0x30 }
  - { offsetInCU: 0x18B74, offset: 0xA871C, size: 0x8, addend: 0x0, symName: '__ZN4core3ptr45drop_in_place$LT$proc_macro2..TokenStream$GT$17h4f519549e61c8b11E', symObjAddr: 0x5BD0, symBinAddr: 0x20A50, symSize: 0x140 }
  - { offsetInCU: 0x18FEF, offset: 0xA8B97, size: 0x8, addend: 0x0, symName: '__ZN4core3ptr45drop_in_place$LT$syn..derive..DeriveInput$GT$17h53c36a502be6e212E.llvm.10103721055355967149', symObjAddr: 0x5D10, symBinAddr: 0x20B90, symSize: 0x190 }
  - { offsetInCU: 0x1955B, offset: 0xA9103, size: 0x8, addend: 0x0, symName: '__ZN4core3ptr47drop_in_place$LT$syn..generics..LifetimeDef$GT$17hd9a91582ccc778edE', symObjAddr: 0x5EA0, symBinAddr: 0x20D20, symSize: 0x120 }
  - { offsetInCU: 0x199B6, offset: 0xA955E, size: 0x8, addend: 0x0, symName: '__ZN4core3ptr47drop_in_place$LT$syn..path..GenericArgument$GT$17hc10ad5f41fc42055E', symObjAddr: 0x5FC0, symBinAddr: 0x20E40, symSize: 0x110 }
  - { offsetInCU: 0x19CE4, offset: 0xA988C, size: 0x8, addend: 0x0, symName: '__ZN4core3ptr58drop_in_place$LT$alloc..vec..Vec$LT$syn..expr..Arm$GT$$GT$17h4159b786ed045cb8E', symObjAddr: 0x60D0, symBinAddr: 0x20F50, symSize: 0xD0 }
  - { offsetInCU: 0x19FA4, offset: 0xA9B4C, size: 0x8, addend: 0x0, symName: '__ZN4core3ptr59drop_in_place$LT$alloc..boxed..Box$LT$syn..pat..Pat$GT$$GT$17hdc0724d76d32dba5E', symObjAddr: 0x61A0, symBinAddr: 0x21020, symSize: 0x50 }
  - { offsetInCU: 0x1A0FD, offset: 0xA9CA5, size: 0x8, addend: 0x0, symName: '__ZN4core3ptr59drop_in_place$LT$alloc..boxed..Box$LT$syn..ty..Type$GT$$GT$17h52b7b6a45c18e7a6E', symObjAddr: 0x61F0, symBinAddr: 0x21070, symSize: 0x50 }
  - { offsetInCU: 0x1A256, offset: 0xA9DFE, size: 0x8, addend: 0x0, symName: '__ZN4core3ptr61drop_in_place$LT$alloc..boxed..Box$LT$syn..expr..Expr$GT$$GT$17haa86d58680159672E', symObjAddr: 0x6240, symBinAddr: 0x210C0, symSize: 0x50 }
  - { offsetInCU: 0x1A3AF, offset: 0xA9F57, size: 0x8, addend: 0x0, symName: '__ZN4core3ptr61drop_in_place$LT$syn..path..ParenthesizedGenericArguments$GT$17h2aa87508f4fe4835E', symObjAddr: 0x6290, symBinAddr: 0x21110, symSize: 0x170 }
  - { offsetInCU: 0x1A9B8, offset: 0xAA560, size: 0x8, addend: 0x0, symName: '__ZN4core3ptr63drop_in_place$LT$alloc..boxed..Box$LT$syn..lit..LitRepr$GT$$GT$17h3fb1a5b67379feefE', symObjAddr: 0x6400, symBinAddr: 0x21280, symSize: 0x60 }
  - { offsetInCU: 0x1ACBF, offset: 0xAA867, size: 0x8, addend: 0x0, symName: '__ZN4core3ptr64drop_in_place$LT$alloc..boxed..Box$LT$syn..pat..FieldPat$GT$$GT$17haf9dc02d2a94e29bE', symObjAddr: 0x6460, symBinAddr: 0x212E0, symSize: 0x180 }
  - { offsetInCU: 0x1B3DC, offset: 0xAAF84, size: 0x8, addend: 0x0, symName: '__ZN4core3ptr64drop_in_place$LT$alloc..boxed..Box$LT$syn..ty..BareFnArg$GT$$GT$17h150fe786aa581705E', symObjAddr: 0x65E0, symBinAddr: 0x21460, symSize: 0x160 }
  - { offsetInCU: 0x1B972, offset: 0xAB51A, size: 0x8, addend: 0x0, symName: '__ZN4core3ptr65drop_in_place$LT$alloc..vec..Vec$LT$proc_macro..TokenTree$GT$$GT$17h95ddd3cd51fa59e3E', symObjAddr: 0x6740, symBinAddr: 0x215C0, symSize: 0x110 }
  - { offsetInCU: 0x1BD6A, offset: 0xAB912, size: 0x8, addend: 0x0, symName: '__ZN4core3ptr65drop_in_place$LT$core..option..Option$LT$syn..expr..Label$GT$$GT$17h0c8998d9c3180861E', symObjAddr: 0x6850, symBinAddr: 0x216D0, symSize: 0x30 }
  - { offsetInCU: 0x1BEA4, offset: 0xABA4C, size: 0x8, addend: 0x0, symName: '__ZN4core3ptr66drop_in_place$LT$core..option..Option$LT$syn..ty..Variadic$GT$$GT$17hc17b3dca3677a430E', symObjAddr: 0x6880, symBinAddr: 0x21700, symSize: 0xF0 }
  - { offsetInCU: 0x1C1CE, offset: 0xABD76, size: 0x8, addend: 0x0, symName: '__ZN4core3ptr67drop_in_place$LT$alloc..boxed..Box$LT$syn..expr..FieldValue$GT$$GT$17hf917334750e0c372E', symObjAddr: 0x6970, symBinAddr: 0x217F0, symSize: 0x160 }
  - { offsetInCU: 0x1C744, offset: 0xAC2EC, size: 0x8, addend: 0x0, symName: '__ZN4core3ptr72drop_in_place$LT$core..option..Option$LT$syn..lifetime..Lifetime$GT$$GT$17h890b5de0e6c8e8f7E', symObjAddr: 0x6AD0, symBinAddr: 0x21950, symSize: 0x30 }
  - { offsetInCU: 0x1C85F, offset: 0xAC407, size: 0x8, addend: 0x0, symName: '__ZN4core3ptr75drop_in_place$LT$alloc..boxed..Box$LT$syn..generics..TypeParamBound$GT$$GT$17hf6c233b62435a906E', symObjAddr: 0x6B00, symBinAddr: 0x21980, symSize: 0x140 }
  - { offsetInCU: 0x1CE36, offset: 0xAC9DE, size: 0x8, addend: 0x0, symName: '__ZN4core3ptr75drop_in_place$LT$core..option..Option$LT$syn..generics..WhereClause$GT$$GT$17h4b9a96201d4d50a4E.llvm.10103721055355967149', symObjAddr: 0x6C40, symBinAddr: 0x21AC0, symSize: 0xF0 }
  - { offsetInCU: 0x1D158, offset: 0xACD00, size: 0x8, addend: 0x0, symName: '__ZN4core3ptr78drop_in_place$LT$alloc..boxed..Box$LT$syn..expr..GenericMethodArgument$GT$$GT$17h00bdd80c737e945eE', symObjAddr: 0x6D30, symBinAddr: 0x21BB0, symSize: 0x60 }
  - { offsetInCU: 0x1D369, offset: 0xACF11, size: 0x8, addend: 0x0, symName: '__ZN4core3ptr78drop_in_place$LT$core..option..Option$LT$syn..generics..BoundLifetimes$GT$$GT$17h4abcbb7b1a9a0ad3E', symObjAddr: 0x6D90, symBinAddr: 0x21C10, symSize: 0xC0 }
  - { offsetInCU: 0x1D79F, offset: 0xAD347, size: 0x8, addend: 0x0, symName: '__ZN4core3ptr86drop_in_place$LT$syn..punctuated..Punctuated$LT$syn..pat..Pat$C$syn..token..Or$GT$$GT$17h5e27d4a18e27baacE', symObjAddr: 0x6E50, symBinAddr: 0x21CD0, symSize: 0x120 }
  - { offsetInCU: 0x1DC1A, offset: 0xAD7C2, size: 0x8, addend: 0x0, symName: '__ZN4core3ptr87drop_in_place$LT$core..option..Option$LT$alloc..boxed..Box$LT$syn..pat..Pat$GT$$GT$$GT$17h5d97deefae5f58d4E', symObjAddr: 0x6F70, symBinAddr: 0x21DF0, symSize: 0x50 }
  - { offsetInCU: 0x1DD8A, offset: 0xAD932, size: 0x8, addend: 0x0, symName: '__ZN4core3ptr87drop_in_place$LT$core..option..Option$LT$alloc..boxed..Box$LT$syn..ty..Type$GT$$GT$$GT$17h4e3af2861b268376E', symObjAddr: 0x6FC0, symBinAddr: 0x21E40, symSize: 0x50 }
  - { offsetInCU: 0x1DEFA, offset: 0xADAA2, size: 0x8, addend: 0x0, symName: '__ZN4core3ptr89drop_in_place$LT$core..option..Option$LT$alloc..boxed..Box$LT$syn..expr..Expr$GT$$GT$$GT$17h9b20c586f6fbc962E', symObjAddr: 0x7010, symBinAddr: 0x21E90, symSize: 0x50 }
  - { offsetInCU: 0x1E0A8, offset: 0xADC50, size: 0x8, addend: 0x0, symName: '__ZN4core3ptr89drop_in_place$LT$syn..punctuated..Punctuated$LT$syn..pat..Pat$C$syn..token..Comma$GT$$GT$17h4fb30a7ed1d667a8E', symObjAddr: 0x7060, symBinAddr: 0x21EE0, symSize: 0x120 }
  - { offsetInCU: 0x1E597, offset: 0xAE13F, size: 0x8, addend: 0x0, symName: '__ZN4core3ptr90drop_in_place$LT$core..option..Option$LT$alloc..boxed..Box$LT$syn..data..Field$GT$$GT$$GT$17h454deb16e3a4eef1E', symObjAddr: 0x7180, symBinAddr: 0x22000, symSize: 0x1D0 }
  - { offsetInCU: 0x1EC92, offset: 0xAE83A, size: 0x8, addend: 0x0, symName: '__ZN4core3ptr91drop_in_place$LT$syn..punctuated..Punctuated$LT$syn..expr..Expr$C$syn..token..Comma$GT$$GT$17hd58eb524d598db47E', symObjAddr: 0x7350, symBinAddr: 0x221D0, symSize: 0x120 }
  - { offsetInCU: 0x1F19C, offset: 0xAED44, size: 0x8, addend: 0x0, symName: '__ZN4core3ptr92drop_in_place$LT$core..option..Option$LT$alloc..boxed..Box$LT$syn..data..Variant$GT$$GT$$GT$17h3755c177a9311643E', symObjAddr: 0x7470, symBinAddr: 0x222F0, symSize: 0x1A0 }
  - { offsetInCU: 0x1F763, offset: 0xAF30B, size: 0x8, addend: 0x0, symName: '__ZN4core3ptr94drop_in_place$LT$syn..punctuated..Punctuated$LT$syn..pat..FieldPat$C$syn..token..Comma$GT$$GT$17he151a7a5b61a7aa7E', symObjAddr: 0x7610, symBinAddr: 0x22490, symSize: 0xF0 }
  - { offsetInCU: 0x1FA62, offset: 0xAF60A, size: 0x8, addend: 0x0, symName: '__ZN4core3ptr94drop_in_place$LT$syn..punctuated..Punctuated$LT$syn..ty..BareFnArg$C$syn..token..Comma$GT$$GT$17hf06606e9ac170988E', symObjAddr: 0x7700, symBinAddr: 0x22580, symSize: 0x90 }
  - { offsetInCU: 0x1FCD2, offset: 0xAF87A, size: 0x8, addend: 0x0, symName: '__ZN4core3ptr96drop_in_place$LT$core..option..Option$LT$alloc..boxed..Box$LT$syn..path..PathSegment$GT$$GT$$GT$17hf4da121085436543E', symObjAddr: 0x7790, symBinAddr: 0x22610, symSize: 0x180 }
  - { offsetInCU: 0x2038F, offset: 0xAFF37, size: 0x8, addend: 0x0, symName: '__ZN4core3ptr97drop_in_place$LT$syn..punctuated..Punctuated$LT$syn..expr..FieldValue$C$syn..token..Comma$GT$$GT$17hf5a66fabf6df3124E', symObjAddr: 0x7910, symBinAddr: 0x22790, symSize: 0xF0 }
  - { offsetInCU: 0x20708, offset: 0xB02B0, size: 0x8, addend: 0x0, symName: '__ZN4core3ptr97drop_in_place$LT$syn..punctuated..Punctuated$LT$syn..lifetime..Lifetime$C$syn..token..Add$GT$$GT$17h94fe2e5ec591b333E', symObjAddr: 0x7A00, symBinAddr: 0x22880, symSize: 0xD0 }
  - { offsetInCU: 0x21259, offset: 0xB0E01, size: 0x8, addend: 0x0, symName: __ZN10proc_macro6bridge6client14HandleCounters3get17h2c76d49220b98e92E, symObjAddr: 0x0, symBinAddr: 0x1AE80, symSize: 0x10 }
  - { offsetInCU: 0x1E, offset: 0xBBA30, size: 0x8, addend: 0x0, symName: '__ZN4core3ptr45drop_in_place$LT$proc_macro2..TokenStream$GT$17h4f519549e61c8b11E', symObjAddr: 0x0, symBinAddr: 0x22C10, symSize: 0x140 }
  - { offsetInCU: 0xFAA, offset: 0xBC9BC, size: 0x8, addend: 0x0, symName: '__ZN4core3ptr45drop_in_place$LT$proc_macro2..TokenStream$GT$17h4f519549e61c8b11E', symObjAddr: 0x0, symBinAddr: 0x22C10, symSize: 0x140 }
  - { offsetInCU: 0x1406, offset: 0xBCE18, size: 0x8, addend: 0x0, symName: '__ZN4core3ptr65drop_in_place$LT$alloc..vec..Vec$LT$proc_macro..TokenTree$GT$$GT$17h95ddd3cd51fa59e3E', symObjAddr: 0x140, symBinAddr: 0x22D50, symSize: 0x110 }
  - { offsetInCU: 0x181D, offset: 0xBD22F, size: 0x8, addend: 0x0, symName: '__ZN4core3ptr68drop_in_place$LT$alloc..vec..Vec$LT$proc_macro2..TokenStream$GT$$GT$17h2a95f48bf74b5e76E', symObjAddr: 0x250, symBinAddr: 0x22E60, symSize: 0xC0 }
  - { offsetInCU: 0x1AFA, offset: 0xBD50C, size: 0x8, addend: 0x0, symName: '__ZN4core3ptr89drop_in_place$LT$alloc..vec..Vec$LT$ark_serialize_derive..serialize..IdentOrIndex$GT$$GT$17h501ff9c3d0f0348cE', symObjAddr: 0x310, symBinAddr: 0x22F20, symSize: 0x90 }
  - { offsetInCU: 0x33D3, offset: 0xBEDE5, size: 0x8, addend: 0x0, symName: __ZN20ark_serialize_derive9serialize20impl_serialize_field17h42092028b83083c7E, symObjAddr: 0x3C0, symBinAddr: 0x22FB0, symSize: 0x640 }
  - { offsetInCU: 0x417F, offset: 0xBFB91, size: 0x8, addend: 0x0, symName: __ZN20ark_serialize_derive9serialize24impl_canonical_serialize17h14d9eb0b408fc1f8E, symObjAddr: 0xA00, symBinAddr: 0x235F0, symSize: 0xF21 }
  - { offsetInCU: 0x1E, offset: 0xCBF96, size: 0x8, addend: 0x0, symName: '__ZN100_$LT$syn..punctuated..PrivateIter$LT$T$C$P$GT$$u20$as$u20$core..iter..traits..iterator..Iterator$GT$4next17h26ccdbf449d5309aE.llvm.7762172718373006137', symObjAddr: 0x0, symBinAddr: 0x24520, symSize: 0x30 }
  - { offsetInCU: 0x35, offset: 0xCBFAD, size: 0x8, addend: 0x0, symName: _anon.6cb550e90b84c2a434c63731bc611b01.1.llvm.7762172718373006137, symObjAddr: 0x490, symBinAddr: 0x2042F8, symSize: 0x0 }
  - { offsetInCU: 0x57D, offset: 0xCC4F5, size: 0x8, addend: 0x0, symName: '__ZN100_$LT$syn..punctuated..PrivateIter$LT$T$C$P$GT$$u20$as$u20$core..iter..traits..iterator..Iterator$GT$4next17h26ccdbf449d5309aE.llvm.7762172718373006137', symObjAddr: 0x0, symBinAddr: 0x24520, symSize: 0x30 }
  - { offsetInCU: 0x82D, offset: 0xCC7A5, size: 0x8, addend: 0x0, symName: '__ZN111_$LT$syn..punctuated..PrivateIter$LT$T$C$P$GT$$u20$as$u20$core..iter..traits..exact_size..ExactSizeIterator$GT$3len17h981e086ae9805f3bE.llvm.7762172718373006137', symObjAddr: 0x30, symBinAddr: 0x24550, symSize: 0x30 }
  - { offsetInCU: 0x978, offset: 0xCC8F0, size: 0x8, addend: 0x0, symName: '__ZN115_$LT$syn..punctuated..PrivateIter$LT$T$C$P$GT$$u20$as$u20$core..iter..traits..double_ended..DoubleEndedIterator$GT$9next_back17he26a489479a94a91E.llvm.7762172718373006137', symObjAddr: 0x60, symBinAddr: 0x24580, symSize: 0x30 }
  - { offsetInCU: 0xCA9, offset: 0xCCC21, size: 0x8, addend: 0x0, symName: '__ZN57_$LT$I$u20$as$u20$syn..punctuated..IterTrait$LT$T$GT$$GT$9clone_box17hd61dad265d1bafa0E.llvm.7762172718373006137', symObjAddr: 0x360, symBinAddr: 0x24810, symSize: 0x60 }
  - { offsetInCU: 0x9427, offset: 0xD539F, size: 0x8, addend: 0x0, symName: __ZN4core4iter6traits10exact_size17ExactSizeIterator8is_empty17ha59c9ec6b72b12a2E.llvm.7762172718373006137, symObjAddr: 0x100, symBinAddr: 0x245B0, symSize: 0x30 }
  - { offsetInCU: 0x95A0, offset: 0xD5518, size: 0x8, addend: 0x0, symName: __ZN4core4iter6traits12double_ended19DoubleEndedIterator15advance_back_by17hc8d198f74b199bd8E.llvm.7762172718373006137, symObjAddr: 0x130, symBinAddr: 0x245E0, symSize: 0x80 }
  - { offsetInCU: 0x9805, offset: 0xD577D, size: 0x8, addend: 0x0, symName: __ZN4core4iter6traits12double_ended19DoubleEndedIterator8nth_back17h7f856d7e2f976cf2E.llvm.7762172718373006137, symObjAddr: 0x1B0, symBinAddr: 0x24660, symSize: 0xA0 }
  - { offsetInCU: 0x9CA0, offset: 0xD5C18, size: 0x8, addend: 0x0, symName: __ZN4core4iter6traits8iterator8Iterator10advance_by17h39df3cef4619c0ffE.llvm.7762172718373006137, symObjAddr: 0x250, symBinAddr: 0x24700, symSize: 0x70 }
  - { offsetInCU: 0x9FF2, offset: 0xD5F6A, size: 0x8, addend: 0x0, symName: __ZN4core4iter6traits8iterator8Iterator3nth17h48fcf4979597f24dE.llvm.7762172718373006137, symObjAddr: 0x2C0, symBinAddr: 0x24770, symSize: 0x80 }
  - { offsetInCU: 0xA58C, offset: 0xD6504, size: 0x8, addend: 0x0, symName: __ZN4core4iter6traits8iterator8Iterator9size_hint17h304fdac99cac720aE.llvm.7762172718373006137, symObjAddr: 0x340, symBinAddr: 0x247F0, symSize: 0x20 }
  - { offsetInCU: 0x1E, offset: 0xD824F, size: 0x8, addend: 0x0, symName: '__ZN4core3ptr73drop_in_place$LT$core..cell..UnsafeCell$LT$syn..parse..Unexpected$GT$$GT$17h7bcda61c0e23b34cE.llvm.14508998880268043548', symObjAddr: 0x0, symBinAddr: 0x24870, symSize: 0x50 }
  - { offsetInCU: 0xB7D, offset: 0xD8DAE, size: 0x8, addend: 0x0, symName: '__ZN4core3ptr73drop_in_place$LT$core..cell..UnsafeCell$LT$syn..parse..Unexpected$GT$$GT$17h7bcda61c0e23b34cE.llvm.14508998880268043548', symObjAddr: 0x0, symBinAddr: 0x24870, symSize: 0x50 }
  - { offsetInCU: 0x171C, offset: 0xD994D, size: 0x8, addend: 0x0, symName: '__ZN68_$LT$alloc..rc..Rc$LT$T$C$A$GT$$u20$as$u20$core..ops..drop..Drop$GT$4drop17h9805e9938f6fa692E', symObjAddr: 0x100, symBinAddr: 0x248C0, symSize: 0xE0 }
  - { offsetInCU: 0x1C3D, offset: 0xD9E6E, size: 0x8, addend: 0x0, symName: '__ZN68_$LT$alloc..rc..Rc$LT$T$C$A$GT$$u20$as$u20$core..ops..drop..Drop$GT$4drop17he186dfd3b6fe36a4E', symObjAddr: 0x1E0, symBinAddr: 0x249A0, symSize: 0x40 }
  - { offsetInCU: 0x2149, offset: 0xDA37A, size: 0x8, addend: 0x0, symName: '__ZN80_$LT$alloc..rc..UniqueRcUninit$LT$T$C$A$GT$$u20$as$u20$core..ops..drop..Drop$GT$4drop17h78e642ffa0d17a26E', symObjAddr: 0x220, symBinAddr: 0x249E0, symSize: 0x4F }
  - { offsetInCU: 0x7AF, offset: 0xDB57A, size: 0x8, addend: 0x0, symName: '__ZN68_$LT$$RF$str$u20$as$u20$proc_macro..bridge..rpc..Encode$LT$S$GT$$GT$6encode17h2403011c31ad1072E', symObjAddr: 0x80, symBinAddr: 0x24A30, symSize: 0x230 }
  - { offsetInCU: 0x491, offset: 0xDC04A, size: 0x8, addend: 0x0, symName: __ZN10proc_macro6bridge6client10run_client17h1b65ab0b4689f35aE, symObjAddr: 0x190, symBinAddr: 0x24C60, symSize: 0x2E0 }
  - { offsetInCU: 0xB6C, offset: 0xDC725, size: 0x8, addend: 0x0, symName: __ZN10proc_macro6bridge6client10run_client17h7360671a6ac6dc88E, symObjAddr: 0x470, symBinAddr: 0x24F40, symSize: 0x2DB }
  - { offsetInCU: 0x1E, offset: 0xDE5AC, size: 0x8, addend: 0x0, symName: __ZN4core3fmt5Write9write_fmt17ha209055e48a4cb61E, symObjAddr: 0x0, symBinAddr: 0x25220, symSize: 0x20 }
  - { offsetInCU: 0x98, offset: 0xDE626, size: 0x8, addend: 0x0, symName: '__ZN58_$LT$alloc..string..String$u20$as$u20$core..fmt..Write$GT$10write_char17h04bc467bd68a934bE', symObjAddr: 0x40, symBinAddr: 0x25260, symSize: 0x140 }
  - { offsetInCU: 0x49D, offset: 0xDEA2B, size: 0x8, addend: 0x0, symName: '__ZN58_$LT$alloc..string..String$u20$as$u20$core..fmt..Write$GT$9write_str17h46a93205c3443fbaE', symObjAddr: 0x180, symBinAddr: 0x253A0, symSize: 0x5B }
  - { offsetInCU: 0xAC1, offset: 0xDF04F, size: 0x8, addend: 0x0, symName: '__ZN4core3ptr42drop_in_place$LT$alloc..string..String$GT$17hd10d092e3aea69baE', symObjAddr: 0x20, symBinAddr: 0x25240, symSize: 0x20 }
  - { offsetInCU: 0xE54, offset: 0xDF3E2, size: 0x8, addend: 0x0, symName: __ZN4core3fmt5Write9write_fmt17ha209055e48a4cb61E, symObjAddr: 0x0, symBinAddr: 0x25220, symSize: 0x20 }
  - { offsetInCU: 0x1E, offset: 0xDFE97, size: 0x8, addend: 0x0, symName: __ZN3syn5error5Error3new17h7961d83f62c2f9e9E, symObjAddr: 0x0, symBinAddr: 0x25400, symSize: 0xF0 }
  - { offsetInCU: 0x35, offset: 0xDFEAE, size: 0x8, addend: 0x0, symName: _anon.60b6decef4e7f98e9967b92d24993f16.0.llvm.372580483591404472, symObjAddr: 0x300, symBinAddr: 0x2043E0, symSize: 0x0 }
  - { offsetInCU: 0x157, offset: 0xDFFD0, size: 0x8, addend: 0x0, symName: '__ZN58_$LT$alloc..string..String$u20$as$u20$core..fmt..Write$GT$10write_char17h04bc467bd68a934bE.llvm.372580483591404472', symObjAddr: 0x130, symBinAddr: 0x25530, symSize: 0x140 }
  - { offsetInCU: 0x55D, offset: 0xE03D6, size: 0x8, addend: 0x0, symName: '__ZN58_$LT$alloc..string..String$u20$as$u20$core..fmt..Write$GT$9write_str17h46a93205c3443fbaE.llvm.372580483591404472', symObjAddr: 0x270, symBinAddr: 0x25670, symSize: 0x5B }
  - { offsetInCU: 0xCD6, offset: 0xE0B4F, size: 0x8, addend: 0x0, symName: '__ZN4core3ptr42drop_in_place$LT$alloc..string..String$GT$17hd10d092e3aea69baE.llvm.372580483591404472', symObjAddr: 0xF0, symBinAddr: 0x254F0, symSize: 0x20 }
  - { offsetInCU: 0xF66, offset: 0xE0DDF, size: 0x8, addend: 0x0, symName: '__ZN53_$LT$core..fmt..Error$u20$as$u20$core..fmt..Debug$GT$3fmt17h03dc662ab152f3aeE.llvm.372580483591404472', symObjAddr: 0x110, symBinAddr: 0x25510, symSize: 0x20 }
  - { offsetInCU: 0x12FA, offset: 0xE1173, size: 0x8, addend: 0x0, symName: _anon.60b6decef4e7f98e9967b92d24993f16.4.llvm.372580483591404472, symObjAddr: 0x348, symBinAddr: 0x204428, symSize: 0x0 }
  - { offsetInCU: 0x1654, offset: 0xE14CD, size: 0x8, addend: 0x0, symName: __ZN3syn5error5Error3new17h7961d83f62c2f9e9E, symObjAddr: 0x0, symBinAddr: 0x25400, symSize: 0xF0 }
  - { offsetInCU: 0x1E, offset: 0xE1D23, size: 0x8, addend: 0x0, symName: '__ZN120_$LT$proc_macro2..fallback..TokenStream$u20$as$u20$core..iter..traits..collect..Extend$LT$proc_macro2..TokenTree$GT$$GT$6extend17h5e16d86ad2a0b41fE', symObjAddr: 0x0, symBinAddr: 0x256D0, symSize: 0x280 }
  - { offsetInCU: 0x9AC, offset: 0xE26B1, size: 0x8, addend: 0x0, symName: '__ZN120_$LT$proc_macro2..fallback..TokenStream$u20$as$u20$core..iter..traits..collect..Extend$LT$proc_macro2..TokenTree$GT$$GT$6extend17h5e16d86ad2a0b41fE', symObjAddr: 0x0, symBinAddr: 0x256D0, symSize: 0x280 }
  - { offsetInCU: 0x1B82, offset: 0xE3887, size: 0x8, addend: 0x0, symName: '__ZN4core3ptr45drop_in_place$LT$proc_macro2..TokenStream$GT$17h4f519549e61c8b11E', symObjAddr: 0x280, symBinAddr: 0x25950, symSize: 0x140 }
  - { offsetInCU: 0x1FDE, offset: 0xE3CE3, size: 0x8, addend: 0x0, symName: '__ZN4core3ptr56drop_in_place$LT$proc_macro2..token_stream..IntoIter$GT$17hafdc29097d0f454aE', symObjAddr: 0x3C0, symBinAddr: 0x25A90, symSize: 0x20 }
  - { offsetInCU: 0x208E, offset: 0xE3D93, size: 0x8, addend: 0x0, symName: '__ZN4core3ptr65drop_in_place$LT$alloc..vec..Vec$LT$proc_macro..TokenTree$GT$$GT$17h95ddd3cd51fa59e3E', symObjAddr: 0x3E0, symBinAddr: 0x25AB0, symSize: 0x107 }
  - { offsetInCU: 0x1E, offset: 0xE5A6E, size: 0x8, addend: 0x0, symName: '__ZN4core3ptr43drop_in_place$LT$proc_macro2..TokenTree$GT$17h8a6fbd20fb3df16dE.llvm.2045517439374218460', symObjAddr: 0x0, symBinAddr: 0x25BC0, symSize: 0xB0 }
  - { offsetInCU: 0xF36, offset: 0xE6986, size: 0x8, addend: 0x0, symName: '__ZN4core3ptr43drop_in_place$LT$proc_macro2..TokenTree$GT$17h8a6fbd20fb3df16dE.llvm.2045517439374218460', symObjAddr: 0x0, symBinAddr: 0x25BC0, symSize: 0xB0 }
  - { offsetInCU: 0x1BF6, offset: 0xE7646, size: 0x8, addend: 0x0, symName: '__ZN86_$LT$alloc..vec..into_iter..IntoIter$LT$T$C$A$GT$$u20$as$u20$core..ops..drop..Drop$GT$4drop17h24a22b1266687311E', symObjAddr: 0xB0, symBinAddr: 0x25C70, symSize: 0xD0 }
  - { offsetInCU: 0x1F60, offset: 0xE79B0, size: 0x8, addend: 0x0, symName: '__ZN86_$LT$alloc..vec..into_iter..IntoIter$LT$T$C$A$GT$$u20$as$u20$core..ops..drop..Drop$GT$4drop17h6a68da6df590b610E', symObjAddr: 0x180, symBinAddr: 0x25D40, symSize: 0x105 }
  - { offsetInCU: 0x1E, offset: 0xE86A4, size: 0x8, addend: 0x0, symName: '__ZN10proc_macro6bridge104_$LT$impl$u20$proc_macro..bridge..rpc..Encode$LT$S$GT$$u20$for$u20$core..result..Result$LT$T$C$E$GT$$GT$6encode17h1a6f4de5073df540E', symObjAddr: 0x0, symBinAddr: 0x25E50, symSize: 0x280 }
  - { offsetInCU: 0x170, offset: 0xE87F6, size: 0x8, addend: 0x0, symName: '__ZN10proc_macro6bridge104_$LT$impl$u20$proc_macro..bridge..rpc..Encode$LT$S$GT$$u20$for$u20$core..result..Result$LT$T$C$E$GT$$GT$6encode17h1a6f4de5073df540E', symObjAddr: 0x0, symBinAddr: 0x25E50, symSize: 0x280 }
  - { offsetInCU: 0x4FC, offset: 0xE8B82, size: 0x8, addend: 0x0, symName: '__ZN10proc_macro6bridge104_$LT$impl$u20$proc_macro..bridge..rpc..Encode$LT$S$GT$$u20$for$u20$core..result..Result$LT$T$C$E$GT$$GT$6encode17h6af3b4a9a6f74e12E', symObjAddr: 0x280, symBinAddr: 0x260D0, symSize: 0x300 }
  - { offsetInCU: 0x1E, offset: 0xE9924, size: 0x8, addend: 0x0, symName: '__ZN10proc_macro6bridge100_$LT$impl$u20$proc_macro..bridge..rpc..Encode$LT$S$GT$$u20$for$u20$core..option..Option$LT$T$GT$$GT$6encode17hba4b775adfac61daE', symObjAddr: 0x0, symBinAddr: 0x263D0, symSize: 0x350 }
  - { offsetInCU: 0x354, offset: 0xE9C5A, size: 0x8, addend: 0x0, symName: '__ZN10proc_macro6bridge100_$LT$impl$u20$proc_macro..bridge..rpc..Encode$LT$S$GT$$u20$for$u20$core..option..Option$LT$T$GT$$GT$6encode17hba4b775adfac61daE', symObjAddr: 0x0, symBinAddr: 0x263D0, symSize: 0x350 }
  - { offsetInCU: 0x8F9, offset: 0xEA1FF, size: 0x8, addend: 0x0, symName: '__ZN10proc_macro6bridge100_$LT$impl$u20$proc_macro..bridge..rpc..Encode$LT$S$GT$$u20$for$u20$core..option..Option$LT$T$GT$$GT$6encode17he4fac8a082bb6465E', symObjAddr: 0x350, symBinAddr: 0x26720, symSize: 0x23C }
  - { offsetInCU: 0x1E, offset: 0xEA9ED, size: 0x8, addend: 0x0, symName: '__ZN115_$LT$proc_macro2..imp..TokenStream$u20$as$u20$core..iter..traits..collect..Extend$LT$proc_macro2..TokenTree$GT$$GT$6extend17hd7b87700f3f6daaeE', symObjAddr: 0x0, symBinAddr: 0x26960, symSize: 0x110 }
  - { offsetInCU: 0x78B, offset: 0xEB15A, size: 0x8, addend: 0x0, symName: '__ZN115_$LT$proc_macro2..imp..TokenStream$u20$as$u20$core..iter..traits..collect..Extend$LT$proc_macro2..TokenTree$GT$$GT$6extend17hd7b87700f3f6daaeE', symObjAddr: 0x0, symBinAddr: 0x26960, symSize: 0x110 }
  - { offsetInCU: 0x15DD, offset: 0xEBFAC, size: 0x8, addend: 0x0, symName: '__ZN4core3ptr56drop_in_place$LT$proc_macro2..token_stream..IntoIter$GT$17hafdc29097d0f454aE.llvm.15098660213023646698', symObjAddr: 0x110, symBinAddr: 0x26A70, symSize: 0x1C }
  - { offsetInCU: 0x1E, offset: 0xEC301, size: 0x8, addend: 0x0, symName: __ZN10proc_macro6bridge14selfless_reify31reify_to_extern_c_fn_hrt_bridge7wrapper17h8b5e8826e344ad41E, symObjAddr: 0x0, symBinAddr: 0x26A90, symSize: 0x30 }
  - { offsetInCU: 0x1CF, offset: 0xEC4B2, size: 0x8, addend: 0x0, symName: __ZN10proc_macro6bridge14selfless_reify31reify_to_extern_c_fn_hrt_bridge7wrapper17h8b5e8826e344ad41E, symObjAddr: 0x0, symBinAddr: 0x26A90, symSize: 0x30 }
  - { offsetInCU: 0x248, offset: 0xEC52B, size: 0x8, addend: 0x0, symName: __ZN10proc_macro6bridge14selfless_reify31reify_to_extern_c_fn_hrt_bridge7wrapper17hb99b3735a1322c4fE, symObjAddr: 0x30, symBinAddr: 0x26AC0, symSize: 0x25 }
  - { offsetInCU: 0x1E, offset: 0xEC782, size: 0x8, addend: 0x0, symName: '__ZN77_$LT$$LP$A$C$B$RP$$u20$as$u20$proc_macro..bridge..rpc..DecodeMut$LT$S$GT$$GT$6decode17hcfa9cd79a1910f64E', symObjAddr: 0x0, symBinAddr: 0x26AF0, symSize: 0xCA }
  - { offsetInCU: 0xB4, offset: 0xEC818, size: 0x8, addend: 0x0, symName: '__ZN77_$LT$$LP$A$C$B$RP$$u20$as$u20$proc_macro..bridge..rpc..DecodeMut$LT$S$GT$$GT$6decode17hcfa9cd79a1910f64E', symObjAddr: 0x0, symBinAddr: 0x26AF0, symSize: 0xCA }
  - { offsetInCU: 0x1E, offset: 0xEDA81, size: 0x8, addend: 0x0, symName: '__ZN44_$LT$$RF$T$u20$as$u20$core..fmt..Display$GT$3fmt17hef0a8d563bf21d1cE', symObjAddr: 0x0, symBinAddr: 0x26BC0, symSize: 0xD }
  - { offsetInCU: 0x64, offset: 0xEDAC7, size: 0x8, addend: 0x0, symName: '__ZN44_$LT$$RF$T$u20$as$u20$core..fmt..Display$GT$3fmt17hef0a8d563bf21d1cE', symObjAddr: 0x0, symBinAddr: 0x26BC0, symSize: 0xD }
  - { offsetInCU: 0xB2, offset: 0xEE0EE, size: 0x8, addend: 0x0, symName: '__ZN58_$LT$alloc..string..String$u20$as$u20$core..fmt..Write$GT$10write_char17h04bc467bd68a934bE', symObjAddr: 0xC7F0, symBinAddr: 0x32B00, symSize: 0x140 }
  - { offsetInCU: 0x4B7, offset: 0xEE4F3, size: 0x8, addend: 0x0, symName: '__ZN58_$LT$alloc..string..String$u20$as$u20$core..fmt..Write$GT$9write_str17h46a93205c3443fbaE', symObjAddr: 0xC930, symBinAddr: 0x32C40, symSize: 0x60 }
  - { offsetInCU: 0x4C9A, offset: 0xF2CD6, size: 0x8, addend: 0x0, symName: '__ZN4core3ptr100drop_in_place$LT$$LP$syn..data..Visibility$C$core..option..Option$LT$syn..token..Default$GT$$RP$$GT$17hf4681ce2d035d32cE', symObjAddr: 0x5B0, symBinAddr: 0x26C10, symSize: 0x60 }
  - { offsetInCU: 0x4E38, offset: 0xF2E74, size: 0x8, addend: 0x0, symName: '__ZN4core3ptr100drop_in_place$LT$core..option..Option$LT$alloc..boxed..Box$LT$syn..generics..LifetimeDef$GT$$GT$$GT$17h75a6086997697dd7E', symObjAddr: 0x610, symBinAddr: 0x26C70, symSize: 0x50 }
  - { offsetInCU: 0x4FBA, offset: 0xF2FF6, size: 0x8, addend: 0x0, symName: '__ZN4core3ptr100drop_in_place$LT$core..option..Option$LT$alloc..boxed..Box$LT$syn..path..GenericArgument$GT$$GT$$GT$17h3d29ec00a8f1918dE', symObjAddr: 0x660, symBinAddr: 0x26CC0, symSize: 0x50 }
  - { offsetInCU: 0x5222, offset: 0xF325E, size: 0x8, addend: 0x0, symName: '__ZN4core3ptr101drop_in_place$LT$core..option..Option$LT$alloc..boxed..Box$LT$syn..generics..GenericParam$GT$$GT$$GT$17h1fee4f1c7bd902c4E', symObjAddr: 0x6B0, symBinAddr: 0x26D10, symSize: 0x310 }
  - { offsetInCU: 0x5C1F, offset: 0xF3C5B, size: 0x8, addend: 0x0, symName: '__ZN4core3ptr103drop_in_place$LT$core..option..Option$LT$alloc..boxed..Box$LT$syn..generics..TypeParamBound$GT$$GT$$GT$17h6cee73bc2b2ecea8E', symObjAddr: 0x9C0, symBinAddr: 0x27020, symSize: 0x90 }
  - { offsetInCU: 0x5F56, offset: 0xF3F92, size: 0x8, addend: 0x0, symName: '__ZN4core3ptr103drop_in_place$LT$core..option..Option$LT$alloc..boxed..Box$LT$syn..generics..WherePredicate$GT$$GT$$GT$17headad361972eced7E', symObjAddr: 0xA50, symBinAddr: 0x270B0, symSize: 0x120 }
  - { offsetInCU: 0x6270, offset: 0xF42AC, size: 0x8, addend: 0x0, symName: '__ZN4core3ptr103drop_in_place$LT$syn..punctuated..Punctuated$LT$syn..generics..GenericParam$C$syn..token..Comma$GT$$GT$17hae00367f0c570156E', symObjAddr: 0xB70, symBinAddr: 0x271D0, symSize: 0x70 }
  - { offsetInCU: 0x658B, offset: 0xF45C7, size: 0x8, addend: 0x0, symName: '__ZN4core3ptr103drop_in_place$LT$syn..punctuated..Punctuated$LT$syn..generics..TypeParamBound$C$syn..token..Add$GT$$GT$17he811d520c92af08aE', symObjAddr: 0xBE0, symBinAddr: 0x27240, symSize: 0x1C0 }
  - { offsetInCU: 0x6DDC, offset: 0xF4E18, size: 0x8, addend: 0x0, symName: '__ZN4core3ptr108drop_in_place$LT$syn..punctuated..Punctuated$LT$syn..expr..GenericMethodArgument$C$syn..token..Comma$GT$$GT$17h92cbabe4862b2183E', symObjAddr: 0xDA0, symBinAddr: 0x27400, symSize: 0x150 }
  - { offsetInCU: 0x72D8, offset: 0xF5314, size: 0x8, addend: 0x0, symName: '__ZN4core3ptr115drop_in_place$LT$core..option..Option$LT$$LP$syn..token..Brace$C$alloc..vec..Vec$LT$syn..item..Item$GT$$RP$$GT$$GT$17hab9d60ee568bdf60E', symObjAddr: 0xEF0, symBinAddr: 0x27550, symSize: 0xD0 }
  - { offsetInCU: 0x75EF, offset: 0xF562B, size: 0x8, addend: 0x0, symName: '__ZN4core3ptr126drop_in_place$LT$core..option..Option$LT$$LP$syn..token..And$C$core..option..Option$LT$syn..lifetime..Lifetime$GT$$RP$$GT$$GT$17h5979d670cb45416cE', symObjAddr: 0xFC0, symBinAddr: 0x27620, symSize: 0x30 }
  - { offsetInCU: 0x789D, offset: 0xF58D9, size: 0x8, addend: 0x0, symName: '__ZN4core3ptr34drop_in_place$LT$syn..lit..Lit$GT$17hbe1efe749a08dd9aE', symObjAddr: 0x1070, symBinAddr: 0x27650, symSize: 0x110 }
  - { offsetInCU: 0x7CF0, offset: 0xF5D2C, size: 0x8, addend: 0x0, symName: '__ZN4core3ptr34drop_in_place$LT$syn..pat..Pat$GT$17h3201f642e43ac2a2E', symObjAddr: 0x1180, symBinAddr: 0x27760, symSize: 0xFA0 }
  - { offsetInCU: 0xB2A5, offset: 0xF92E1, size: 0x8, addend: 0x0, symName: '__ZN4core3ptr34drop_in_place$LT$syn..ty..Type$GT$17hfb5d159a08190130E', symObjAddr: 0x2120, symBinAddr: 0x28700, symSize: 0x4B0 }
  - { offsetInCU: 0xC8DC, offset: 0xFA918, size: 0x8, addend: 0x0, symName: '__ZN4core3ptr36drop_in_place$LT$syn..expr..Expr$GT$17hf1921d1b09462bc3E', symObjAddr: 0x25D0, symBinAddr: 0x28BB0, symSize: 0x3110 }
  - { offsetInCU: 0x16B63, offset: 0x104B9F, size: 0x8, addend: 0x0, symName: '__ZN4core3ptr36drop_in_place$LT$syn..item..Item$GT$17hf1fe4e69bb0a9b43E', symObjAddr: 0x56E0, symBinAddr: 0x2BCC0, symSize: 0x120 }
  - { offsetInCU: 0x16BB2, offset: 0x104BEE, size: 0x8, addend: 0x0, symName: '__ZN4core3ptr36drop_in_place$LT$syn..mac..Macro$GT$17h205613d7ad575f72E', symObjAddr: 0x5800, symBinAddr: 0x2BDE0, symSize: 0x100 }
  - { offsetInCU: 0x16FDA, offset: 0x105016, size: 0x8, addend: 0x0, symName: '__ZN4core3ptr36drop_in_place$LT$syn..path..Path$GT$17he6d0bec66d66b98aE', symObjAddr: 0x5900, symBinAddr: 0x2BEE0, symSize: 0x230 }
  - { offsetInCU: 0x17970, offset: 0x1059AC, size: 0x8, addend: 0x0, symName: '__ZN4core3ptr37drop_in_place$LT$syn..stmt..Block$GT$17h3aa429e75a234230E', symObjAddr: 0x5B30, symBinAddr: 0x2C110, symSize: 0xD0 }
  - { offsetInCU: 0x17CE2, offset: 0x105D1E, size: 0x8, addend: 0x0, symName: '__ZN4core3ptr38drop_in_place$LT$syn..data..Fields$GT$17h0c48fa2402a42137E', symObjAddr: 0x5C00, symBinAddr: 0x2C1E0, symSize: 0x180 }
  - { offsetInCU: 0x18128, offset: 0x106164, size: 0x8, addend: 0x0, symName: '__ZN4core3ptr38drop_in_place$LT$syn..expr..Member$GT$17ha113d37a67d27aafE', symObjAddr: 0x5D80, symBinAddr: 0x2C360, symSize: 0x30 }
  - { offsetInCU: 0x18243, offset: 0x10627F, size: 0x8, addend: 0x0, symName: '__ZN4core3ptr38drop_in_place$LT$syn..item..ItemFn$GT$17h92bc8390e1d02672E', symObjAddr: 0x5DB0, symBinAddr: 0x2C390, symSize: 0x230 }
  - { offsetInCU: 0x18AE3, offset: 0x106B1F, size: 0x8, addend: 0x0, symName: '__ZN4core3ptr38drop_in_place$LT$syn..pat..PatType$GT$17h833e3c7992399b01E.llvm.2762174853176263616', symObjAddr: 0x5FE0, symBinAddr: 0x2C5C0, symSize: 0x160 }
  - { offsetInCU: 0x191AB, offset: 0x1071E7, size: 0x8, addend: 0x0, symName: '__ZN4core3ptr39drop_in_place$LT$proc_macro2..Group$GT$17ha95b199d42755248E', symObjAddr: 0x6140, symBinAddr: 0x2C720, symSize: 0x60 }
  - { offsetInCU: 0x1930A, offset: 0x107346, size: 0x8, addend: 0x0, symName: '__ZN4core3ptr39drop_in_place$LT$proc_macro2..Ident$GT$17hdeec010483268a0dE', symObjAddr: 0x61A0, symBinAddr: 0x2C780, symSize: 0x30 }
  - { offsetInCU: 0x19406, offset: 0x107442, size: 0x8, addend: 0x0, symName: '__ZN4core3ptr39drop_in_place$LT$syn..item..ItemMod$GT$17hd095082f1c98971dE', symObjAddr: 0x61D0, symBinAddr: 0x2C7B0, symSize: 0x210 }
  - { offsetInCU: 0x19C3F, offset: 0x107C7B, size: 0x8, addend: 0x0, symName: '__ZN4core3ptr39drop_in_place$LT$syn..item..ItemUse$GT$17hfee3fd59e1327e89E', symObjAddr: 0x63E0, symBinAddr: 0x2C9C0, symSize: 0x150 }
  - { offsetInCU: 0x1A140, offset: 0x10817C, size: 0x8, addend: 0x0, symName: '__ZN4core3ptr39drop_in_place$LT$syn..item..UseTree$GT$17h78d4ed19b48b8cbfE', symObjAddr: 0x65A0, symBinAddr: 0x2CB10, symSize: 0xE0 }
  - { offsetInCU: 0x1A4E7, offset: 0x108523, size: 0x8, addend: 0x0, symName: '__ZN4core3ptr39drop_in_place$LT$syn..pat..PatTuple$GT$17h96faeea9832d4c4bE', symObjAddr: 0x6680, symBinAddr: 0x2CBF0, symSize: 0x100 }
  - { offsetInCU: 0x1A80F, offset: 0x10884B, size: 0x8, addend: 0x0, symName: '__ZN4core3ptr40drop_in_place$LT$syn..item..ImplItem$GT$17hb8d8f44c0f04c0e3E', symObjAddr: 0x6780, symBinAddr: 0x2CCF0, symSize: 0x1B0 }
  - { offsetInCU: 0x1AB8C, offset: 0x108BC8, size: 0x8, addend: 0x0, symName: '__ZN4core3ptr40drop_in_place$LT$syn..item..ItemEnum$GT$17hc99b161df783a633E', symObjAddr: 0x6930, symBinAddr: 0x2CEA0, symSize: 0x250 }
  - { offsetInCU: 0x1B45B, offset: 0x109497, size: 0x8, addend: 0x0, symName: '__ZN4core3ptr40drop_in_place$LT$syn..item..ItemImpl$GT$17haba540031ec64537E', symObjAddr: 0x6B80, symBinAddr: 0x2D0F0, symSize: 0x1E0 }
  - { offsetInCU: 0x1BBEB, offset: 0x109C27, size: 0x8, addend: 0x0, symName: '__ZN4core3ptr40drop_in_place$LT$syn..item..ItemType$GT$17hf26044957f69ac44E', symObjAddr: 0x6D60, symBinAddr: 0x2D2D0, symSize: 0x1C0 }
  - { offsetInCU: 0x1C2C3, offset: 0x10A2FF, size: 0x8, addend: 0x0, symName: '__ZN4core3ptr40drop_in_place$LT$syn..item..Receiver$GT$17hc8a432a931462f79E.llvm.2762174853176263616', symObjAddr: 0x6F20, symBinAddr: 0x2D490, symSize: 0x120 }
  - { offsetInCU: 0x1C73A, offset: 0x10A776, size: 0x8, addend: 0x0, symName: '__ZN4core3ptr40drop_in_place$LT$syn..ty..ReturnType$GT$17h6f97c9fdb958983eE', symObjAddr: 0x7050, symBinAddr: 0x2D5B0, symSize: 0x50 }
  - { offsetInCU: 0x1C8AA, offset: 0x10A8E6, size: 0x8, addend: 0x0, symName: '__ZN4core3ptr41drop_in_place$LT$syn..item..ItemConst$GT$17hf37a2991989c7e8eE', symObjAddr: 0x70A0, symBinAddr: 0x2D600, symSize: 0x1E0 }
  - { offsetInCU: 0x1D0CD, offset: 0x10B109, size: 0x8, addend: 0x0, symName: '__ZN4core3ptr41drop_in_place$LT$syn..item..ItemMacro$GT$17h4cf9ca59f66b14edE', symObjAddr: 0x7280, symBinAddr: 0x2D7E0, symSize: 0x120 }
  - { offsetInCU: 0x1D50B, offset: 0x10B547, size: 0x8, addend: 0x0, symName: '__ZN4core3ptr41drop_in_place$LT$syn..item..ItemTrait$GT$17h2de0174f2f014913E', symObjAddr: 0x73A0, symBinAddr: 0x2D900, symSize: 0x220 }
  - { offsetInCU: 0x1DD30, offset: 0x10BD6C, size: 0x8, addend: 0x0, symName: '__ZN4core3ptr41drop_in_place$LT$syn..item..ItemUnion$GT$17h03d15eff3b9ef21aE', symObjAddr: 0x75C0, symBinAddr: 0x2DB20, symSize: 0x250 }
  - { offsetInCU: 0x1E5B9, offset: 0x10C5F5, size: 0x8, addend: 0x0, symName: '__ZN4core3ptr41drop_in_place$LT$syn..item..Signature$GT$17hd57cfba25994ce69E', symObjAddr: 0x7810, symBinAddr: 0x2DD70, symSize: 0x210 }
  - { offsetInCU: 0x1EE93, offset: 0x10CECF, size: 0x8, addend: 0x0, symName: '__ZN4core3ptr41drop_in_place$LT$syn..item..TraitItem$GT$17h4b7d90364e3eddf8E', symObjAddr: 0x7A20, symBinAddr: 0x2DF80, symSize: 0x1B0 }
  - { offsetInCU: 0x1F1B3, offset: 0x10D1EF, size: 0x8, addend: 0x0, symName: '__ZN4core3ptr42drop_in_place$LT$alloc..string..String$GT$17hef974c60cd9900dbE', symObjAddr: 0x7C20, symBinAddr: 0x2E130, symSize: 0x20 }
  - { offsetInCU: 0x1F2BB, offset: 0x10D2F7, size: 0x8, addend: 0x0, symName: '__ZN4core3ptr42drop_in_place$LT$syn..data..Visibility$GT$17h27e8b6ad307fcbc7E', symObjAddr: 0x7C40, symBinAddr: 0x2E150, symSize: 0x60 }
  - { offsetInCU: 0x1F430, offset: 0x10D46C, size: 0x8, addend: 0x0, symName: '__ZN4core3ptr42drop_in_place$LT$syn..item..ItemMacro2$GT$17h642967b8eb4a8104E', symObjAddr: 0x7CA0, symBinAddr: 0x2E1B0, symSize: 0x170 }
  - { offsetInCU: 0x1F979, offset: 0x10D9B5, size: 0x8, addend: 0x0, symName: '__ZN4core3ptr42drop_in_place$LT$syn..item..ItemStatic$GT$17hc6b586b851814ed2E', symObjAddr: 0x7E10, symBinAddr: 0x2E320, symSize: 0x1E0 }
  - { offsetInCU: 0x2017D, offset: 0x10E1B9, size: 0x8, addend: 0x0, symName: '__ZN4core3ptr42drop_in_place$LT$syn..item..ItemStruct$GT$17h3f822312b443c40dE', symObjAddr: 0x7FF0, symBinAddr: 0x2E500, symSize: 0x190 }
  - { offsetInCU: 0x206ED, offset: 0x10E729, size: 0x8, addend: 0x0, symName: '__ZN4core3ptr43drop_in_place$LT$syn..data..FieldsNamed$GT$17h73293dd81bcfeab6E', symObjAddr: 0x8180, symBinAddr: 0x2E690, symSize: 0xE0 }
  - { offsetInCU: 0x20A2E, offset: 0x10EA6A, size: 0x8, addend: 0x0, symName: '__ZN4core3ptr43drop_in_place$LT$syn..item..ForeignItem$GT$17h21c815f2fbdfe296E', symObjAddr: 0x8260, symBinAddr: 0x2E770, symSize: 0x1A0 }
  - { offsetInCU: 0x20D6D, offset: 0x10EDA9, size: 0x8, addend: 0x0, symName: '__ZN4core3ptr44drop_in_place$LT$syn..generics..Generics$GT$17he0d6eb6045503c84E', symObjAddr: 0x8400, symBinAddr: 0x2E910, symSize: 0xA0 }
  - { offsetInCU: 0x20FD9, offset: 0x10F015, size: 0x8, addend: 0x0, symName: '__ZN4core3ptr44drop_in_place$LT$syn..item..ImplItemType$GT$17hfa117ac59836f12aE', symObjAddr: 0x84A0, symBinAddr: 0x2E9B0, symSize: 0x190 }
  - { offsetInCU: 0x21522, offset: 0x10F55E, size: 0x8, addend: 0x0, symName: '__ZN4core3ptr44drop_in_place$LT$syn..lifetime..Lifetime$GT$17h3858225df033648aE', symObjAddr: 0x8630, symBinAddr: 0x2EB40, symSize: 0x30 }
  - { offsetInCU: 0x2169A, offset: 0x10F6D6, size: 0x8, addend: 0x0, symName: '__ZN4core3ptr44drop_in_place$LT$syn..parse..ParseBuffer$GT$17h19c266fcccc430cbE', symObjAddr: 0x8660, symBinAddr: 0x2EB70, symSize: 0x70 }
  - { offsetInCU: 0x21A16, offset: 0x10FA52, size: 0x8, addend: 0x0, symName: '__ZN4core3ptr45drop_in_place$LT$proc_macro2..TokenStream$GT$17h2507cb30e765dc85E', symObjAddr: 0x86D0, symBinAddr: 0x2EBE0, symSize: 0x140 }
  - { offsetInCU: 0x21E72, offset: 0x10FEAE, size: 0x8, addend: 0x0, symName: '__ZN4core3ptr45drop_in_place$LT$syn..item..ForeignItemFn$GT$17hac464df7ca671242E', symObjAddr: 0x8810, symBinAddr: 0x2ED20, symSize: 0x160 }
  - { offsetInCU: 0x22306, offset: 0x110342, size: 0x8, addend: 0x0, symName: '__ZN4core3ptr45drop_in_place$LT$syn..item..ImplItemConst$GT$17hcd481022683c9056E', symObjAddr: 0x8970, symBinAddr: 0x2EE80, symSize: 0x1A0 }
  - { offsetInCU: 0x2288D, offset: 0x1108C9, size: 0x8, addend: 0x0, symName: '__ZN4core3ptr45drop_in_place$LT$syn..item..TraitItemType$GT$17hff73dc4d6b73b6f1E', symObjAddr: 0x8C10, symBinAddr: 0x2F020, symSize: 0x190 }
  - { offsetInCU: 0x22CCD, offset: 0x110D09, size: 0x8, addend: 0x0, symName: '__ZN4core3ptr46drop_in_place$LT$syn..item..ImplItemMethod$GT$17h81d5acf604d84d52E', symObjAddr: 0x8DA0, symBinAddr: 0x2F1B0, symSize: 0x230 }
  - { offsetInCU: 0x23479, offset: 0x1114B5, size: 0x8, addend: 0x0, symName: '__ZN4core3ptr46drop_in_place$LT$syn..item..ItemForeignMod$GT$17he0cb10e3a3005942E', symObjAddr: 0x8FD0, symBinAddr: 0x2F3E0, symSize: 0x1C0 }
  - { offsetInCU: 0x23D9E, offset: 0x111DDA, size: 0x8, addend: 0x0, symName: '__ZN4core3ptr46drop_in_place$LT$syn..item..ItemTraitAlias$GT$17h92af75cf6c1f4732E', symObjAddr: 0x9190, symBinAddr: 0x2F5A0, symSize: 0x190 }
  - { offsetInCU: 0x24342, offset: 0x11237E, size: 0x8, addend: 0x0, symName: '__ZN4core3ptr46drop_in_place$LT$syn..item..TraitItemConst$GT$17ha3f3e5595f870971E', symObjAddr: 0x9320, symBinAddr: 0x2F730, symSize: 0x170 }
  - { offsetInCU: 0x24782, offset: 0x1127BE, size: 0x8, addend: 0x0, symName: '__ZN4core3ptr47drop_in_place$LT$syn..generics..LifetimeDef$GT$17hd04bc9e6ed9dfb47E', symObjAddr: 0x9490, symBinAddr: 0x2F8A0, symSize: 0x120 }
  - { offsetInCU: 0x24B9F, offset: 0x112BDB, size: 0x8, addend: 0x0, symName: '__ZN4core3ptr47drop_in_place$LT$syn..item..ForeignItemType$GT$17h1c4d82a7ec021a30E', symObjAddr: 0x95B0, symBinAddr: 0x2F9C0, symSize: 0x170 }
  - { offsetInCU: 0x25141, offset: 0x11317D, size: 0x8, addend: 0x0, symName: '__ZN4core3ptr47drop_in_place$LT$syn..item..ItemExternCrate$GT$17h97b05889785eea32E', symObjAddr: 0x9720, symBinAddr: 0x2FB30, symSize: 0x1A0 }
  - { offsetInCU: 0x257E1, offset: 0x11381D, size: 0x8, addend: 0x0, symName: '__ZN4core3ptr47drop_in_place$LT$syn..item..TraitItemMethod$GT$17h21cb304020f3ba1eE', symObjAddr: 0x98C0, symBinAddr: 0x2FCD0, symSize: 0x1F0 }
  - { offsetInCU: 0x25E1F, offset: 0x113E5B, size: 0x8, addend: 0x0, symName: '__ZN4core3ptr47drop_in_place$LT$syn..path..GenericArgument$GT$17h8c0a0d8c6deaefb4E', symObjAddr: 0x9AB0, symBinAddr: 0x2FEC0, symSize: 0x110 }
  - { offsetInCU: 0x2613A, offset: 0x114176, size: 0x8, addend: 0x0, symName: '__ZN4core3ptr49drop_in_place$LT$syn..item..ForeignItemStatic$GT$17hfe9f44f9dab5bcd1E', symObjAddr: 0x9BC0, symBinAddr: 0x2FFD0, symSize: 0x190 }
  - { offsetInCU: 0x267F1, offset: 0x11482D, size: 0x8, addend: 0x0, symName: '__ZN4core3ptr58drop_in_place$LT$alloc..vec..Vec$LT$syn..expr..Arm$GT$$GT$17hf3db0825f3d9c861E', symObjAddr: 0x9D50, symBinAddr: 0x30160, symSize: 0xD0 }
  - { offsetInCU: 0x26AB1, offset: 0x114AED, size: 0x8, addend: 0x0, symName: '__ZN4core3ptr59drop_in_place$LT$alloc..boxed..Box$LT$syn..pat..Pat$GT$$GT$17h7037ce9bbd3729c6E', symObjAddr: 0x9E20, symBinAddr: 0x30230, symSize: 0x50 }
  - { offsetInCU: 0x26C0A, offset: 0x114C46, size: 0x8, addend: 0x0, symName: '__ZN4core3ptr59drop_in_place$LT$alloc..boxed..Box$LT$syn..ty..Type$GT$$GT$17h2eccd13329dbe4faE', symObjAddr: 0x9E70, symBinAddr: 0x30280, symSize: 0x50 }
  - { offsetInCU: 0x26D63, offset: 0x114D9F, size: 0x8, addend: 0x0, symName: '__ZN4core3ptr59drop_in_place$LT$alloc..vec..Vec$LT$syn..item..Item$GT$$GT$17h544d8e20d05b2f97E', symObjAddr: 0x9EC0, symBinAddr: 0x302D0, symSize: 0xD0 }
  - { offsetInCU: 0x27023, offset: 0x11505F, size: 0x8, addend: 0x0, symName: '__ZN4core3ptr59drop_in_place$LT$alloc..vec..Vec$LT$syn..stmt..Stmt$GT$$GT$17hed4646381107e302E', symObjAddr: 0x9F90, symBinAddr: 0x303A0, symSize: 0xD0 }
  - { offsetInCU: 0x272E3, offset: 0x11531F, size: 0x8, addend: 0x0, symName: '__ZN4core3ptr61drop_in_place$LT$alloc..boxed..Box$LT$syn..expr..Expr$GT$$GT$17h66094ddc89015516E', symObjAddr: 0xA060, symBinAddr: 0x30470, symSize: 0x50 }
  - { offsetInCU: 0x274B8, offset: 0x1154F4, size: 0x8, addend: 0x0, symName: '__ZN4core3ptr61drop_in_place$LT$syn..path..ParenthesizedGenericArguments$GT$17h21be9b1d7a6fab55E', symObjAddr: 0xA120, symBinAddr: 0x304C0, symSize: 0x170 }
  - { offsetInCU: 0x27AAE, offset: 0x115AEA, size: 0x8, addend: 0x0, symName: '__ZN4core3ptr62drop_in_place$LT$alloc..boxed..Box$LT$syn..stmt..Block$GT$$GT$17h0633c21446a415f4E', symObjAddr: 0xA290, symBinAddr: 0x30630, symSize: 0xE0 }
  - { offsetInCU: 0x27EC0, offset: 0x115EFC, size: 0x8, addend: 0x0, symName: '__ZN4core3ptr63drop_in_place$LT$alloc..boxed..Box$LT$syn..lit..LitRepr$GT$$GT$17h9c509b794406150eE', symObjAddr: 0xA370, symBinAddr: 0x30710, symSize: 0x60 }
  - { offsetInCU: 0x28189, offset: 0x1161C5, size: 0x8, addend: 0x0, symName: '__ZN4core3ptr63drop_in_place$LT$alloc..vec..Vec$LT$syn..item..ImplItem$GT$$GT$17ha4d5b54edb0d5cb7E', symObjAddr: 0xA3D0, symBinAddr: 0x30770, symSize: 0x80 }
  - { offsetInCU: 0x28460, offset: 0x11649C, size: 0x8, addend: 0x0, symName: '__ZN4core3ptr64drop_in_place$LT$alloc..boxed..Box$LT$syn..item..UseTree$GT$$GT$17h2fbb30105f88b737E', symObjAddr: 0xA450, symBinAddr: 0x307F0, symSize: 0x100 }
  - { offsetInCU: 0x289AD, offset: 0x1169E9, size: 0x8, addend: 0x0, symName: '__ZN4core3ptr64drop_in_place$LT$alloc..boxed..Box$LT$syn..pat..FieldPat$GT$$GT$17hb167b355d0d4733fE', symObjAddr: 0xA550, symBinAddr: 0x308F0, symSize: 0x180 }
  - { offsetInCU: 0x290CA, offset: 0x117106, size: 0x8, addend: 0x0, symName: '__ZN4core3ptr64drop_in_place$LT$alloc..boxed..Box$LT$syn..ty..BareFnArg$GT$$GT$17h6488be9448346678E', symObjAddr: 0xA6D0, symBinAddr: 0x30A70, symSize: 0x160 }
  - { offsetInCU: 0x29660, offset: 0x11769C, size: 0x8, addend: 0x0, symName: '__ZN4core3ptr64drop_in_place$LT$alloc..vec..Vec$LT$syn..attr..Attribute$GT$$GT$17h386324d8ea9bc309E.llvm.2762174853176263616', symObjAddr: 0xA830, symBinAddr: 0x30BD0, symSize: 0xF0 }
  - { offsetInCU: 0x29956, offset: 0x117992, size: 0x8, addend: 0x0, symName: '__ZN4core3ptr64drop_in_place$LT$alloc..vec..Vec$LT$syn..item..TraitItem$GT$$GT$17h0ef3c4b7ce592e9eE', symObjAddr: 0xA920, symBinAddr: 0x30CC0, symSize: 0x80 }
  - { offsetInCU: 0x29C0E, offset: 0x117C4A, size: 0x8, addend: 0x0, symName: '__ZN4core3ptr65drop_in_place$LT$alloc..vec..Vec$LT$proc_macro..TokenTree$GT$$GT$17hc3670dd5608d5259E', symObjAddr: 0xA9A0, symBinAddr: 0x30D40, symSize: 0x110 }
  - { offsetInCU: 0x2A006, offset: 0x118042, size: 0x8, addend: 0x0, symName: '__ZN4core3ptr65drop_in_place$LT$core..option..Option$LT$syn..expr..Label$GT$$GT$17ha723640fd01bec5dE', symObjAddr: 0xAAB0, symBinAddr: 0x30E50, symSize: 0x30 }
  - { offsetInCU: 0x2A140, offset: 0x11817C, size: 0x8, addend: 0x0, symName: '__ZN4core3ptr65drop_in_place$LT$core..option..Option$LT$syn..stmt..Block$GT$$GT$17hdff81fd7cb2986caE', symObjAddr: 0xAAE0, symBinAddr: 0x30E80, symSize: 0xD0 }
  - { offsetInCU: 0x2A415, offset: 0x118451, size: 0x8, addend: 0x0, symName: '__ZN4core3ptr66drop_in_place$LT$alloc..vec..Vec$LT$syn..item..ForeignItem$GT$$GT$17hc5d281d65e9f4398E', symObjAddr: 0xABB0, symBinAddr: 0x30F50, symSize: 0x80 }
  - { offsetInCU: 0x2A6CD, offset: 0x118709, size: 0x8, addend: 0x0, symName: '__ZN4core3ptr66drop_in_place$LT$core..option..Option$LT$syn..ty..Variadic$GT$$GT$17hc32134bb3933b0dfE', symObjAddr: 0xAC30, symBinAddr: 0x30FD0, symSize: 0xF0 }
  - { offsetInCU: 0x2A9F7, offset: 0x118A33, size: 0x8, addend: 0x0, symName: '__ZN4core3ptr67drop_in_place$LT$alloc..boxed..Box$LT$syn..expr..FieldValue$GT$$GT$17h8df780aa600ea8c2E', symObjAddr: 0xAD20, symBinAddr: 0x310C0, symSize: 0x160 }
  - { offsetInCU: 0x2AF6D, offset: 0x118FA9, size: 0x8, addend: 0x0, symName: '__ZN4core3ptr67drop_in_place$LT$core..option..Option$LT$proc_macro2..Ident$GT$$GT$17h67578850954384a1E', symObjAddr: 0xAE80, symBinAddr: 0x31220, symSize: 0x30 }
  - { offsetInCU: 0x2B088, offset: 0x1190C4, size: 0x8, addend: 0x0, symName: '__ZN4core3ptr68drop_in_place$LT$alloc..boxed..Box$LT$syn..path..PathSegment$GT$$GT$17h1957b54eed39c0bbE', symObjAddr: 0xAEB0, symBinAddr: 0x31250, symSize: 0x190 }
  - { offsetInCU: 0x2B7B1, offset: 0x1197ED, size: 0x8, addend: 0x0, symName: '__ZN4core3ptr72drop_in_place$LT$alloc..boxed..Box$LT$syn..path..GenericArgument$GT$$GT$17ha8f8136d0c2b505bE', symObjAddr: 0xB040, symBinAddr: 0x313E0, symSize: 0x180 }
  - { offsetInCU: 0x2BE51, offset: 0x119E8D, size: 0x8, addend: 0x0, symName: '__ZN4core3ptr72drop_in_place$LT$core..option..Option$LT$syn..lifetime..Lifetime$GT$$GT$17h31b55b93749c174dE', symObjAddr: 0xB1C0, symBinAddr: 0x31560, symSize: 0x30 }
  - { offsetInCU: 0x2BF6C, offset: 0x119FA8, size: 0x8, addend: 0x0, symName: '__ZN4core3ptr75drop_in_place$LT$alloc..boxed..Box$LT$syn..generics..TypeParamBound$GT$$GT$17h8f156ce07ea0b8b2E', symObjAddr: 0xB1F0, symBinAddr: 0x31590, symSize: 0x140 }
  - { offsetInCU: 0x2C543, offset: 0x11A57F, size: 0x8, addend: 0x0, symName: '__ZN4core3ptr75drop_in_place$LT$core..option..Option$LT$syn..generics..WhereClause$GT$$GT$17h9a6b9b305741da86E', symObjAddr: 0xB330, symBinAddr: 0x316D0, symSize: 0xF0 }
  - { offsetInCU: 0x2C865, offset: 0x11A8A1, size: 0x8, addend: 0x0, symName: '__ZN4core3ptr78drop_in_place$LT$alloc..boxed..Box$LT$syn..expr..GenericMethodArgument$GT$$GT$17h3384c00b5bd54c2aE', symObjAddr: 0xB420, symBinAddr: 0x317C0, symSize: 0x60 }
  - { offsetInCU: 0x2CA76, offset: 0x11AAB2, size: 0x8, addend: 0x0, symName: '__ZN4core3ptr78drop_in_place$LT$core..option..Option$LT$syn..generics..BoundLifetimes$GT$$GT$17h8175e66ad0c4a156E', symObjAddr: 0xB480, symBinAddr: 0x31820, symSize: 0x120 }
  - { offsetInCU: 0x2CF3B, offset: 0x11AF77, size: 0x8, addend: 0x0, symName: '__ZN4core3ptr86drop_in_place$LT$syn..punctuated..Punctuated$LT$syn..pat..Pat$C$syn..token..Or$GT$$GT$17h1078c5d178d382b7E', symObjAddr: 0xB5A0, symBinAddr: 0x31940, symSize: 0x120 }
  - { offsetInCU: 0x2D3B6, offset: 0x11B3F2, size: 0x8, addend: 0x0, symName: '__ZN4core3ptr87drop_in_place$LT$core..option..Option$LT$alloc..boxed..Box$LT$syn..pat..Pat$GT$$GT$$GT$17ha7f5fe0e6f73e820E', symObjAddr: 0xB6E0, symBinAddr: 0x31A60, symSize: 0x50 }
  - { offsetInCU: 0x2D526, offset: 0x11B562, size: 0x8, addend: 0x0, symName: '__ZN4core3ptr87drop_in_place$LT$core..option..Option$LT$alloc..boxed..Box$LT$syn..ty..Type$GT$$GT$$GT$17hc8292da82d129de3E', symObjAddr: 0xB730, symBinAddr: 0x31AB0, symSize: 0x50 }
  - { offsetInCU: 0x2D696, offset: 0x11B6D2, size: 0x8, addend: 0x0, symName: '__ZN4core3ptr89drop_in_place$LT$core..option..Option$LT$alloc..boxed..Box$LT$syn..expr..Expr$GT$$GT$$GT$17hdc211ccd33f196f2E', symObjAddr: 0xB7A0, symBinAddr: 0x31B00, symSize: 0x50 }
  - { offsetInCU: 0x2D844, offset: 0x11B880, size: 0x8, addend: 0x0, symName: '__ZN4core3ptr89drop_in_place$LT$syn..punctuated..Punctuated$LT$syn..pat..Pat$C$syn..token..Comma$GT$$GT$17hf8371102b0500adcE', symObjAddr: 0xB7F0, symBinAddr: 0x31B50, symSize: 0x120 }
  - { offsetInCU: 0x2DCD6, offset: 0x11BD12, size: 0x8, addend: 0x0, symName: '__ZN4core3ptr89drop_in_place$LT$syn..punctuated..Punctuated$LT$syn..ty..Type$C$syn..token..Comma$GT$$GT$17h1c6e43341fabea97E', symObjAddr: 0xB910, symBinAddr: 0x31C70, symSize: 0x120 }
  - { offsetInCU: 0x2E18F, offset: 0x11C1CB, size: 0x8, addend: 0x0, symName: '__ZN4core3ptr90drop_in_place$LT$core..option..Option$LT$alloc..boxed..Box$LT$syn..data..Field$GT$$GT$$GT$17he146e9f4e32c136fE', symObjAddr: 0xBA30, symBinAddr: 0x31D90, symSize: 0x1C0 }
  - { offsetInCU: 0x2E893, offset: 0x11C8CF, size: 0x8, addend: 0x0, symName: '__ZN4core3ptr90drop_in_place$LT$core..option..Option$LT$alloc..boxed..Box$LT$syn..item..FnArg$GT$$GT$$GT$17ha72e545cf6ea6548E', symObjAddr: 0xBBF0, symBinAddr: 0x31F50, symSize: 0x70 }
  - { offsetInCU: 0x2EA4B, offset: 0x11CA87, size: 0x8, addend: 0x0, symName: '__ZN4core3ptr91drop_in_place$LT$syn..punctuated..Punctuated$LT$syn..expr..Expr$C$syn..token..Comma$GT$$GT$17hd2dfeb0c522d9a18E', symObjAddr: 0xBC60, symBinAddr: 0x31FC0, symSize: 0x120 }
  - { offsetInCU: 0x2EED9, offset: 0x11CF15, size: 0x8, addend: 0x0, symName: '__ZN4core3ptr92drop_in_place$LT$core..option..Option$LT$$LP$syn..token..As$C$proc_macro2..Ident$RP$$GT$$GT$17hdb8e08992a006501E', symObjAddr: 0xBD80, symBinAddr: 0x320E0, symSize: 0x30 }
  - { offsetInCU: 0x2F032, offset: 0x11D06E, size: 0x8, addend: 0x0, symName: '__ZN4core3ptr92drop_in_place$LT$core..option..Option$LT$alloc..boxed..Box$LT$syn..data..Variant$GT$$GT$$GT$17h9c9c8f3c1dc56a70E', symObjAddr: 0xBDB0, symBinAddr: 0x32110, symSize: 0x1A0 }
  - { offsetInCU: 0x2F656, offset: 0x11D692, size: 0x8, addend: 0x0, symName: '__ZN4core3ptr92drop_in_place$LT$syn..punctuated..Punctuated$LT$syn..item..FnArg$C$syn..token..Comma$GT$$GT$17h3049a14d789de61dE', symObjAddr: 0xBF50, symBinAddr: 0x322B0, symSize: 0x140 }
  - { offsetInCU: 0x2FAD3, offset: 0x11DB0F, size: 0x8, addend: 0x0, symName: '__ZN4core3ptr94drop_in_place$LT$syn..punctuated..Punctuated$LT$syn..data..Variant$C$syn..token..Comma$GT$$GT$17hb4480d65f74dc9d7E', symObjAddr: 0xC090, symBinAddr: 0x323F0, symSize: 0xE0 }
  - { offsetInCU: 0x2FE33, offset: 0x11DE6F, size: 0x8, addend: 0x0, symName: '__ZN4core3ptr94drop_in_place$LT$syn..punctuated..Punctuated$LT$syn..item..UseTree$C$syn..token..Comma$GT$$GT$17ha837d38586774c87E', symObjAddr: 0xC170, symBinAddr: 0x324D0, symSize: 0xF0 }
  - { offsetInCU: 0x30175, offset: 0x11E1B1, size: 0x8, addend: 0x0, symName: '__ZN4core3ptr94drop_in_place$LT$syn..punctuated..Punctuated$LT$syn..pat..FieldPat$C$syn..token..Comma$GT$$GT$17h612cbc9066d5afb1E', symObjAddr: 0xC260, symBinAddr: 0x325C0, symSize: 0xF0 }
  - { offsetInCU: 0x30474, offset: 0x11E4B0, size: 0x8, addend: 0x0, symName: '__ZN4core3ptr94drop_in_place$LT$syn..punctuated..Punctuated$LT$syn..ty..BareFnArg$C$syn..token..Comma$GT$$GT$17ha9a668ce9972795bE', symObjAddr: 0xC350, symBinAddr: 0x326B0, symSize: 0xF0 }
  - { offsetInCU: 0x30771, offset: 0x11E7AD, size: 0x8, addend: 0x0, symName: '__ZN4core3ptr96drop_in_place$LT$core..option..Option$LT$alloc..boxed..Box$LT$syn..path..PathSegment$GT$$GT$$GT$17h2e81cbe3c70bb71cE', symObjAddr: 0xC440, symBinAddr: 0x327A0, symSize: 0x180 }
  - { offsetInCU: 0x30E2E, offset: 0x11EE6A, size: 0x8, addend: 0x0, symName: '__ZN4core3ptr97drop_in_place$LT$syn..punctuated..Punctuated$LT$syn..expr..FieldValue$C$syn..token..Comma$GT$$GT$17h11a5fffb46adfb11E', symObjAddr: 0xC5C0, symBinAddr: 0x32920, symSize: 0xF0 }
  - { offsetInCU: 0x311A7, offset: 0x11F1E3, size: 0x8, addend: 0x0, symName: '__ZN4core3ptr97drop_in_place$LT$syn..punctuated..Punctuated$LT$syn..lifetime..Lifetime$C$syn..token..Add$GT$$GT$17h5c54dea2c838d109E', symObjAddr: 0xC6B0, symBinAddr: 0x32A10, symSize: 0xD0 }
  - { offsetInCU: 0x31E47, offset: 0x11FE83, size: 0x8, addend: 0x0, symName: '__ZN53_$LT$core..fmt..Error$u20$as$u20$core..fmt..Debug$GT$3fmt17h03dc662ab152f3aeE', symObjAddr: 0xC7D0, symBinAddr: 0x32AE0, symSize: 0x20 }
  - { offsetInCU: 0x3F6F0, offset: 0x12D72C, size: 0x8, addend: 0x0, symName: '__ZN3syn4item7parsing63_$LT$impl$u20$syn..parse..Parse$u20$for$u20$syn..item..Item$GT$5parse17hd5092b6f019cd3c8E', symObjAddr: 0xD550, symBinAddr: 0x32ED0, symSize: 0x48A0 }
  - { offsetInCU: 0x4D90E, offset: 0x13B94A, size: 0x8, addend: 0x0, symName: '__ZN3syn4item7parsing68_$LT$impl$u20$syn..parse..Parse$u20$for$u20$syn..item..ItemMacro$GT$5parse17h31dd6e83a6883425E', symObjAddr: 0x11DF0, symBinAddr: 0x37770, symSize: 0x620 }
  - { offsetInCU: 0x4E3B2, offset: 0x13C3EE, size: 0x8, addend: 0x0, symName: '__ZN3syn4item7parsing69_$LT$impl$u20$syn..parse..Parse$u20$for$u20$syn..item..ItemMacro2$GT$5parse17hcf95eda47eb68e7aE', symObjAddr: 0x12410, symBinAddr: 0x37D90, symSize: 0xC30 }
  - { offsetInCU: 0x5019C, offset: 0x13E1D8, size: 0x8, addend: 0x0, symName: '__ZN3syn4item7parsing74_$LT$impl$u20$syn..parse..Parse$u20$for$u20$syn..item..ItemExternCrate$GT$5parse17hae0345cc168adf0eE', symObjAddr: 0x13040, symBinAddr: 0x389C0, symSize: 0x930 }
  - { offsetInCU: 0x51507, offset: 0x13F543, size: 0x8, addend: 0x0, symName: '__ZN3syn4item7parsing66_$LT$impl$u20$syn..parse..Parse$u20$for$u20$syn..item..ItemUse$GT$5parse17h5d348ec602c9bbe4E', symObjAddr: 0x13970, symBinAddr: 0x392F0, symSize: 0x800 }
  - { offsetInCU: 0x52007, offset: 0x140043, size: 0x8, addend: 0x0, symName: '__ZN3syn4item7parsing66_$LT$impl$u20$syn..parse..Parse$u20$for$u20$syn..item..UseTree$GT$5parse17hf6a79245528f6b50E', symObjAddr: 0x14170, symBinAddr: 0x39AF0, symSize: 0xA90 }
  - { offsetInCU: 0x544FD, offset: 0x142539, size: 0x8, addend: 0x0, symName: '__ZN3syn4item7parsing68_$LT$impl$u20$syn..parse..Parse$u20$for$u20$syn..item..Signature$GT$5parse17h48c646b2b2858734E', symObjAddr: 0x16420, symBinAddr: 0x3A580, symSize: 0x9D0 }
  - { offsetInCU: 0x554E9, offset: 0x143525, size: 0x8, addend: 0x0, symName: '__ZN3syn4item7parsing64_$LT$impl$u20$syn..parse..Parse$u20$for$u20$syn..item..FnArg$GT$5parse17h6d8e7150f511bd86E', symObjAddr: 0x17130, symBinAddr: 0x3AF50, symSize: 0x710 }
  - { offsetInCU: 0x569E9, offset: 0x144A25, size: 0x8, addend: 0x0, symName: '__ZN3syn4item7parsing67_$LT$impl$u20$syn..parse..Parse$u20$for$u20$syn..item..Receiver$GT$5parse17h7c57eea315a0342bE', symObjAddr: 0x17840, symBinAddr: 0x3B660, symSize: 0x420 }
  - { offsetInCU: 0x57013, offset: 0x14504F, size: 0x8, addend: 0x0, symName: '__ZN3syn4item7parsing66_$LT$impl$u20$syn..parse..Parse$u20$for$u20$syn..item..ItemMod$GT$5parse17h7fe32aa4c994dc9bE', symObjAddr: 0x17C60, symBinAddr: 0x3BA80, symSize: 0xC90 }
  - { offsetInCU: 0x58C9E, offset: 0x146CDA, size: 0x8, addend: 0x0, symName: '__ZN3syn4item7parsing73_$LT$impl$u20$syn..parse..Parse$u20$for$u20$syn..item..ItemForeignMod$GT$5parse17hcca74002a17b2fcbE', symObjAddr: 0x188F0, symBinAddr: 0x3C710, symSize: 0x670 }
  - { offsetInCU: 0x5A16F, offset: 0x1481AB, size: 0x8, addend: 0x0, symName: '__ZN3syn4item7parsing70_$LT$impl$u20$syn..parse..Parse$u20$for$u20$syn..item..ForeignItem$GT$5parse17h24f40baa602f1278E', symObjAddr: 0x18F60, symBinAddr: 0x3CD80, symSize: 0x1B10 }
  - { offsetInCU: 0x5E8A5, offset: 0x14C8E1, size: 0x8, addend: 0x0, symName: '__ZN3syn4item7parsing69_$LT$impl$u20$syn..parse..Parse$u20$for$u20$syn..item..ItemStruct$GT$5parse17he3cfb27f1405a441E', symObjAddr: 0x1C9C0, symBinAddr: 0x3E890, symSize: 0x700 }
  - { offsetInCU: 0x5F39E, offset: 0x14D3DA, size: 0x8, addend: 0x0, symName: '__ZN3syn4item7parsing67_$LT$impl$u20$syn..parse..Parse$u20$for$u20$syn..item..ItemEnum$GT$5parse17hb2912ec4b9be8655E', symObjAddr: 0x1D0C0, symBinAddr: 0x3EF90, symSize: 0x700 }
  - { offsetInCU: 0x5FE9C, offset: 0x14DED8, size: 0x8, addend: 0x0, symName: '__ZN3syn4item7parsing68_$LT$impl$u20$syn..parse..Parse$u20$for$u20$syn..item..ItemUnion$GT$5parse17hc3f05c1ec1b84162E', symObjAddr: 0x1D7C0, symBinAddr: 0x3F690, symSize: 0x700 }
  - { offsetInCU: 0x6098B, offset: 0x14E9C7, size: 0x8, addend: 0x0, symName: '__ZN3syn4item7parsing68_$LT$impl$u20$syn..parse..Parse$u20$for$u20$syn..item..ItemTrait$GT$5parse17h99b2153937d5d77aE', symObjAddr: 0x1DEC0, symBinAddr: 0x3FD90, symSize: 0x640 }
  - { offsetInCU: 0x616C0, offset: 0x14F6FC, size: 0x8, addend: 0x0, symName: '__ZN3syn4item7parsing68_$LT$impl$u20$syn..parse..Parse$u20$for$u20$syn..item..TraitItem$GT$5parse17h4e734d2779733d06E', symObjAddr: 0x1E650, symBinAddr: 0x403D0, symSize: 0x14D0 }
  - { offsetInCU: 0x66A3E, offset: 0x154A7A, size: 0x8, addend: 0x0, symName: '__ZN3syn4item7parsing73_$LT$impl$u20$syn..parse..Parse$u20$for$u20$syn..item..TraitItemConst$GT$5parse17h1b0135dfda89c9c6E', symObjAddr: 0x1FB20, symBinAddr: 0x418A0, symSize: 0xAC0 }
  - { offsetInCU: 0x686A3, offset: 0x1566DF, size: 0x8, addend: 0x0, symName: '__ZN3syn4item7parsing74_$LT$impl$u20$syn..parse..Parse$u20$for$u20$syn..item..TraitItemMethod$GT$5parse17hc56523647cfaf282E', symObjAddr: 0x205E0, symBinAddr: 0x42360, symSize: 0x7F0 }
  - { offsetInCU: 0x69CEC, offset: 0x157D28, size: 0x8, addend: 0x0, symName: '__ZN3syn4item7parsing67_$LT$impl$u20$syn..parse..Parse$u20$for$u20$syn..item..ImplItem$GT$5parse17hd0abc4995f0e27e6E', symObjAddr: 0x218C0, symBinAddr: 0x42B50, symSize: 0x1CE0 }
  - { offsetInCU: 0x6F8D2, offset: 0x15D90E, size: 0x8, addend: 0x0, symName: '__ZN3syn4item7parsing73_$LT$impl$u20$syn..parse..Parse$u20$for$u20$syn..item..ImplItemMethod$GT$5parse17h40b89290a7d05ae0E', symObjAddr: 0x243E0, symBinAddr: 0x44830, symSize: 0x7B0 }
  - { offsetInCU: 0x7083E, offset: 0x15E87A, size: 0x8, addend: 0x0, symName: '__ZN3syn4item7parsing72_$LT$impl$u20$syn..parse..Parse$u20$for$u20$syn..item..ImplItemMacro$GT$5parse17h684a98d429e3ccb0E', symObjAddr: 0x25480, symBinAddr: 0x44FE0, symSize: 0x0 }
  - { offsetInCU: 0x70DBE, offset: 0x15EDFA, size: 0x8, addend: 0x0, symName: '__ZN3syn4item8printing83_$LT$impl$u20$quote..to_tokens..ToTokens$u20$for$u20$syn..item..ItemExternCrate$GT$9to_tokens17h7f9bd73caf323e58E', symObjAddr: 0x257D0, symBinAddr: 0x45330, symSize: 0x250 }
  - { offsetInCU: 0x713E0, offset: 0x15F41C, size: 0x8, addend: 0x0, symName: '__ZN3syn4item8printing78_$LT$impl$u20$quote..to_tokens..ToTokens$u20$for$u20$syn..item..ItemStatic$GT$9to_tokens17h08058ed00f2b3dddE', symObjAddr: 0x25BB0, symBinAddr: 0x45580, symSize: 0x230 }
  - { offsetInCU: 0x71A0E, offset: 0x15FA4A, size: 0x8, addend: 0x0, symName: '__ZN3syn4item8printing75_$LT$impl$u20$quote..to_tokens..ToTokens$u20$for$u20$syn..item..ItemMod$GT$9to_tokens17hc86d6254ff17a890E', symObjAddr: 0x260B0, symBinAddr: 0x457B0, symSize: 0x1D0 }
  - { offsetInCU: 0x71E6E, offset: 0x15FEAA, size: 0x8, addend: 0x0, symName: '__ZN3syn4item8printing76_$LT$impl$u20$quote..to_tokens..ToTokens$u20$for$u20$syn..item..ItemType$GT$9to_tokens17hb83cbc1a01934084E', symObjAddr: 0x263F0, symBinAddr: 0x45980, symSize: 0x1D0 }
  - { offsetInCU: 0x72290, offset: 0x1602CC, size: 0x8, addend: 0x0, symName: '__ZN3syn4item8printing76_$LT$impl$u20$quote..to_tokens..ToTokens$u20$for$u20$syn..item..ItemEnum$GT$9to_tokens17h842d495a33b205f9E', symObjAddr: 0x265C0, symBinAddr: 0x45B50, symSize: 0x1A0 }
  - { offsetInCU: 0x7262A, offset: 0x160666, size: 0x8, addend: 0x0, symName: '__ZN3syn4item8printing78_$LT$impl$u20$quote..to_tokens..ToTokens$u20$for$u20$syn..item..ItemStruct$GT$9to_tokens17h10e0d38d73f156efE', symObjAddr: 0x26760, symBinAddr: 0x45CF0, symSize: 0x230 }
  - { offsetInCU: 0x72B49, offset: 0x160B85, size: 0x8, addend: 0x0, symName: '__ZN3syn4item8printing77_$LT$impl$u20$quote..to_tokens..ToTokens$u20$for$u20$syn..item..ItemUnion$GT$9to_tokens17h21c08048e1f3d099E', symObjAddr: 0x26990, symBinAddr: 0x45F20, symSize: 0x1A0 }
  - { offsetInCU: 0x72F53, offset: 0x160F8F, size: 0x8, addend: 0x0, symName: '__ZN3syn4item8printing77_$LT$impl$u20$quote..to_tokens..ToTokens$u20$for$u20$syn..item..ItemTrait$GT$9to_tokens17h0ddcf38549076bc2E', symObjAddr: 0x26B30, symBinAddr: 0x460C0, symSize: 0x310 }
  - { offsetInCU: 0x73860, offset: 0x16189C, size: 0x8, addend: 0x0, symName: '__ZN3syn4item8printing82_$LT$impl$u20$quote..to_tokens..ToTokens$u20$for$u20$syn..item..ItemTraitAlias$GT$9to_tokens17hf80e15e3335a9024E', symObjAddr: 0x26E40, symBinAddr: 0x463D0, symSize: 0x1F0 }
  - { offsetInCU: 0x73E01, offset: 0x161E3D, size: 0x8, addend: 0x0, symName: '__ZN3syn4item8printing76_$LT$impl$u20$quote..to_tokens..ToTokens$u20$for$u20$syn..item..ItemImpl$GT$9to_tokens17h30df070e852a5931E', symObjAddr: 0x27030, symBinAddr: 0x465C0, symSize: 0x360 }
  - { offsetInCU: 0x74726, offset: 0x162762, size: 0x8, addend: 0x0, symName: '__ZN3syn4item8printing77_$LT$impl$u20$quote..to_tokens..ToTokens$u20$for$u20$syn..item..ItemMacro$GT$9to_tokens17h481af589de6f9dcbE', symObjAddr: 0x27390, symBinAddr: 0x46920, symSize: 0x1D0 }
  - { offsetInCU: 0x74C85, offset: 0x162CC1, size: 0x8, addend: 0x0, symName: '__ZN3syn4item8printing82_$LT$impl$u20$quote..to_tokens..ToTokens$u20$for$u20$syn..item..TraitItemConst$GT$9to_tokens17h48ef6e80aa5ee690E', symObjAddr: 0x27820, symBinAddr: 0x46AF0, symSize: 0x1E0 }
  - { offsetInCU: 0x750E6, offset: 0x163122, size: 0x8, addend: 0x0, symName: '__ZN3syn4item8printing81_$LT$impl$u20$quote..to_tokens..ToTokens$u20$for$u20$syn..item..TraitItemType$GT$9to_tokens17ha773e15de198d60bE', symObjAddr: 0x27B60, symBinAddr: 0x46CD0, symSize: 0x290 }
  - { offsetInCU: 0x75782, offset: 0x1637BE, size: 0x8, addend: 0x0, symName: '__ZN3syn4item8printing81_$LT$impl$u20$quote..to_tokens..ToTokens$u20$for$u20$syn..item..ImplItemConst$GT$9to_tokens17h93720e24ccbf6f9aE', symObjAddr: 0x27DF0, symBinAddr: 0x46F60, symSize: 0x250 }
  - { offsetInCU: 0x75CC6, offset: 0x163D02, size: 0x8, addend: 0x0, symName: '__ZN3syn4item8printing82_$LT$impl$u20$quote..to_tokens..ToTokens$u20$for$u20$syn..item..ImplItemMethod$GT$9to_tokens17h6dcd8d204ee3d041E', symObjAddr: 0x28040, symBinAddr: 0x471B0, symSize: 0x2C0 }
  - { offsetInCU: 0x765F1, offset: 0x16462D, size: 0x8, addend: 0x0, symName: '__ZN3syn4item8printing80_$LT$impl$u20$quote..to_tokens..ToTokens$u20$for$u20$syn..item..ImplItemType$GT$9to_tokens17h10f82f78812ca34bE', symObjAddr: 0x28300, symBinAddr: 0x47470, symSize: 0x240 }
  - { offsetInCU: 0x76B8C, offset: 0x164BC8, size: 0x8, addend: 0x0, symName: '__ZN3syn4item8printing85_$LT$impl$u20$quote..to_tokens..ToTokens$u20$for$u20$syn..item..ForeignItemStatic$GT$9to_tokens17heca0d869ed2edd6aE', symObjAddr: 0x28760, symBinAddr: 0x476B0, symSize: 0x210 }
  - { offsetInCU: 0x77114, offset: 0x165150, size: 0x8, addend: 0x0, symName: '__ZN3syn4item8printing77_$LT$impl$u20$quote..to_tokens..ToTokens$u20$for$u20$syn..item..Signature$GT$9to_tokens17hd3d401bd2710c1d3E', symObjAddr: 0x28AE0, symBinAddr: 0x478C0, symSize: 0x340 }
  - { offsetInCU: 0x77916, offset: 0x165952, size: 0x8, addend: 0x0, symName: '__ZN3syn4item8printing76_$LT$impl$u20$quote..to_tokens..ToTokens$u20$for$u20$syn..item..Receiver$GT$9to_tokens17h7bfe4f0f0a2e4435E', symObjAddr: 0x28E20, symBinAddr: 0x47C00, symSize: 0x220 }
  - { offsetInCU: 0x77FCA, offset: 0x166006, size: 0x8, addend: 0x0, symName: '__ZN62_$LT$syn..item..Item$u20$as$u20$quote..to_tokens..ToTokens$GT$9to_tokens17hcfb6fa0e89cea6efE', symObjAddr: 0x29040, symBinAddr: 0x47E20, symSize: 0x810 }
  - { offsetInCU: 0x7930D, offset: 0x167349, size: 0x8, addend: 0x0, symName: '__ZN65_$LT$syn..item..UseTree$u20$as$u20$quote..to_tokens..ToTokens$GT$9to_tokens17h73b4f1c675b83d74E', symObjAddr: 0x29850, symBinAddr: 0x48630, symSize: 0x180 }
  - { offsetInCU: 0x79626, offset: 0x167662, size: 0x8, addend: 0x0, symName: '__ZN69_$LT$syn..item..ForeignItem$u20$as$u20$quote..to_tokens..ToTokens$GT$9to_tokens17h5811b213ecf647c3E', symObjAddr: 0x299D0, symBinAddr: 0x487B0, symSize: 0x350 }
  - { offsetInCU: 0x79EF9, offset: 0x167F35, size: 0x8, addend: 0x0, symName: '__ZN67_$LT$syn..item..TraitItem$u20$as$u20$quote..to_tokens..ToTokens$GT$9to_tokens17he9bf5a11f5abb64eE', symObjAddr: 0x29D20, symBinAddr: 0x48B00, symSize: 0x2E0 }
  - { offsetInCU: 0x7A591, offset: 0x1685CD, size: 0x8, addend: 0x0, symName: '__ZN66_$LT$syn..item..ImplItem$u20$as$u20$quote..to_tokens..ToTokens$GT$9to_tokens17hc241889665e48d04E', symObjAddr: 0x2A000, symBinAddr: 0x48DE0, symSize: 0x1B0 }
  - { offsetInCU: 0x7E558, offset: 0x16C594, size: 0x8, addend: 0x0, symName: '__ZN5alloc3vec16Vec$LT$T$C$A$GT$15append_elements17h515b13e7a2841833E', symObjAddr: 0xC990, symBinAddr: 0x32CA0, symSize: 0x70 }
  - { offsetInCU: 0x7E774, offset: 0x16C7B0, size: 0x8, addend: 0x0, symName: __ZN3syn4item4Item13replace_attrs17h27bc8d233ea7e24cE, symObjAddr: 0xD2C0, symBinAddr: 0x32D10, symSize: 0x1C0 }
  - { offsetInCU: 0x1E, offset: 0x17DA83, size: 0x8, addend: 0x0, symName: '__ZN4core3ptr100drop_in_place$LT$core..option..Option$LT$alloc..boxed..Box$LT$syn..generics..LifetimeDef$GT$$GT$$GT$17h75a6086997697dd7E.llvm.16532739692444164112', symObjAddr: 0x0, symBinAddr: 0x48F90, symSize: 0x50 }
  - { offsetInCU: 0x35, offset: 0x17DA9A, size: 0x8, addend: 0x0, symName: _anon.6d16f1a36471c80d3de82dc9b4f7a556.1.llvm.16532739692444164112, symObjAddr: 0x154A0, symBinAddr: 0x204528, symSize: 0x0 }
  - { offsetInCU: 0x16A1, offset: 0x17F106, size: 0x8, addend: 0x0, symName: '__ZN111_$LT$syn..punctuated..PrivateIter$LT$T$C$P$GT$$u20$as$u20$core..iter..traits..exact_size..ExactSizeIterator$GT$3len17h8fa82698cc6a5ffdE.llvm.16532739692444164112', symObjAddr: 0x124C0, symBinAddr: 0x54910, symSize: 0x0 }
  - { offsetInCU: 0x176C, offset: 0x17F1D1, size: 0x8, addend: 0x0, symName: '__ZN111_$LT$syn..punctuated..PrivateIter$LT$T$C$P$GT$$u20$as$u20$core..iter..traits..exact_size..ExactSizeIterator$GT$3len17hf961cff6ad363ebcE.llvm.16532739692444164112', symObjAddr: 0x12520, symBinAddr: 0x54940, symSize: 0x30 }
  - { offsetInCU: 0x19F6, offset: 0x17F45B, size: 0x8, addend: 0x0, symName: '__ZN115_$LT$syn..punctuated..PrivateIter$LT$T$C$P$GT$$u20$as$u20$core..iter..traits..double_ended..DoubleEndedIterator$GT$9next_back17h210283d510923a6eE.llvm.16532739692444164112', symObjAddr: 0x123D0, symBinAddr: 0x548B0, symSize: 0x0 }
  - { offsetInCU: 0x1C9D, offset: 0x17F702, size: 0x8, addend: 0x0, symName: '__ZN115_$LT$syn..punctuated..PrivateIter$LT$T$C$P$GT$$u20$as$u20$core..iter..traits..double_ended..DoubleEndedIterator$GT$9next_back17h511dcfc6e4846953E.llvm.16532739692444164112', symObjAddr: 0x12400, symBinAddr: 0x548E0, symSize: 0x30 }
  - { offsetInCU: 0x2122, offset: 0x17FB87, size: 0x8, addend: 0x0, symName: '__ZN100_$LT$syn..punctuated..PrivateIter$LT$T$C$P$GT$$u20$as$u20$core..iter..traits..iterator..Iterator$GT$4next17h5819dccff3ef97b2E.llvm.16532739692444164112', symObjAddr: 0x12310, symBinAddr: 0x54820, symSize: 0x0 }
  - { offsetInCU: 0x23C1, offset: 0x17FE26, size: 0x8, addend: 0x0, symName: '__ZN100_$LT$syn..punctuated..PrivateIter$LT$T$C$P$GT$$u20$as$u20$core..iter..traits..iterator..Iterator$GT$4next17h6d856dbf85f5e49bE.llvm.16532739692444164112', symObjAddr: 0x12340, symBinAddr: 0x54850, symSize: 0x30 }
  - { offsetInCU: 0x263B, offset: 0x1800A0, size: 0x8, addend: 0x0, symName: '__ZN100_$LT$syn..punctuated..PrivateIter$LT$T$C$P$GT$$u20$as$u20$core..iter..traits..iterator..Iterator$GT$4next17h7d8b0100903e1490E.llvm.16532739692444164112', symObjAddr: 0x123A0, symBinAddr: 0x54880, symSize: 0x30 }
  - { offsetInCU: 0x2DC9, offset: 0x18082E, size: 0x8, addend: 0x0, symName: '__ZN138_$LT$syn..punctuated..Punctuated$LT$T$C$P$GT$$u20$as$u20$core..iter..traits..collect..Extend$LT$syn..punctuated..Pair$LT$T$C$P$GT$$GT$$GT$6extend17h46e8b111646272d1E', symObjAddr: 0x110F0, symBinAddr: 0x54220, symSize: 0x340 }
  - { offsetInCU: 0x3695, offset: 0x1810FA, size: 0x8, addend: 0x0, symName: '__ZN102_$LT$syn..punctuated..Punctuated$LT$T$C$P$GT$$u20$as$u20$core..iter..traits..collect..IntoIterator$GT$9into_iter17h83e18cee80a4ec2fE', symObjAddr: 0x11710, symBinAddr: 0x54560, symSize: 0x2C0 }
  - { offsetInCU: 0x4D87, offset: 0x1827EC, size: 0x8, addend: 0x0, symName: '__ZN57_$LT$I$u20$as$u20$syn..punctuated..IterTrait$LT$T$GT$$GT$9clone_box17h7da52e90c4987b08E.llvm.16532739692444164112', symObjAddr: 0x12610, symBinAddr: 0x54970, symSize: 0x60 }
  - { offsetInCU: 0x4F94, offset: 0x1829F9, size: 0x8, addend: 0x0, symName: '__ZN57_$LT$I$u20$as$u20$syn..punctuated..IterTrait$LT$T$GT$$GT$9clone_box17hf91e00e1143972f2E.llvm.16532739692444164112', symObjAddr: 0x12670, symBinAddr: 0x549D0, symSize: 0x60 }
  - { offsetInCU: 0x51A7, offset: 0x182C0C, size: 0x8, addend: 0x0, symName: '__ZN97_$LT$syn..punctuated..Punctuated$LT$T$C$P$GT$$u20$as$u20$core..ops..index..Index$LT$usize$GT$$GT$5index17ha3e39e7328b6f7abE', symObjAddr: 0x126D0, symBinAddr: 0x54A30, symSize: 0x50 }
  - { offsetInCU: 0x52F4, offset: 0x182D59, size: 0x8, addend: 0x0, symName: '__ZN3syn10punctuated8printing97_$LT$impl$u20$quote..to_tokens..ToTokens$u20$for$u20$syn..punctuated..Punctuated$LT$T$C$P$GT$$GT$9to_tokens17h4c504ab6a95422ddE', symObjAddr: 0x12880, symBinAddr: 0x54A80, symSize: 0x150 }
  - { offsetInCU: 0x10772, offset: 0x18E1D7, size: 0x8, addend: 0x0, symName: '__ZN4core3ptr100drop_in_place$LT$core..option..Option$LT$alloc..boxed..Box$LT$syn..generics..LifetimeDef$GT$$GT$$GT$17h75a6086997697dd7E.llvm.16532739692444164112', symObjAddr: 0x0, symBinAddr: 0x48F90, symSize: 0x50 }
  - { offsetInCU: 0x108F4, offset: 0x18E359, size: 0x8, addend: 0x0, symName: '__ZN4core3ptr100drop_in_place$LT$core..option..Option$LT$alloc..boxed..Box$LT$syn..path..GenericArgument$GT$$GT$$GT$17h3d29ec00a8f1918dE.llvm.16532739692444164112', symObjAddr: 0x50, symBinAddr: 0x48FE0, symSize: 0x50 }
  - { offsetInCU: 0x10BD8, offset: 0x18E63D, size: 0x8, addend: 0x0, symName: '__ZN4core3ptr103drop_in_place$LT$core..option..Option$LT$alloc..boxed..Box$LT$syn..generics..TypeParamBound$GT$$GT$$GT$17h6cee73bc2b2ecea8E.llvm.16532739692444164112', symObjAddr: 0x170, symBinAddr: 0x49030, symSize: 0x150 }
  - { offsetInCU: 0x11196, offset: 0x18EBFB, size: 0x8, addend: 0x0, symName: '__ZN4core3ptr103drop_in_place$LT$syn..punctuated..Punctuated$LT$syn..generics..TypeParamBound$C$syn..token..Add$GT$$GT$17he811d520c92af08aE.llvm.16532739692444164112', symObjAddr: 0x2C0, symBinAddr: 0x49180, symSize: 0xF0 }
  - { offsetInCU: 0x1174F, offset: 0x18F1B4, size: 0x8, addend: 0x0, symName: '__ZN4core3ptr108drop_in_place$LT$syn..punctuated..Punctuated$LT$syn..expr..GenericMethodArgument$C$syn..token..Comma$GT$$GT$17h92cbabe4862b2183E', symObjAddr: 0x4A0, symBinAddr: 0x49270, symSize: 0x150 }
  - { offsetInCU: 0x11C2C, offset: 0x18F691, size: 0x8, addend: 0x0, symName: '__ZN4core3ptr126drop_in_place$LT$core..option..Option$LT$$LP$syn..token..And$C$core..option..Option$LT$syn..lifetime..Lifetime$GT$$RP$$GT$$GT$17h5979d670cb45416cE', symObjAddr: 0x5F0, symBinAddr: 0x493C0, symSize: 0x30 }
  - { offsetInCU: 0x11E3F, offset: 0x18F8A4, size: 0x8, addend: 0x0, symName: '__ZN4core3ptr34drop_in_place$LT$syn..lit..Lit$GT$17hbe1efe749a08dd9aE', symObjAddr: 0x620, symBinAddr: 0x493F0, symSize: 0x110 }
  - { offsetInCU: 0x122EF, offset: 0x18FD54, size: 0x8, addend: 0x0, symName: '__ZN4core3ptr34drop_in_place$LT$syn..pat..Pat$GT$17h3201f642e43ac2a2E.llvm.16532739692444164112', symObjAddr: 0x730, symBinAddr: 0x49500, symSize: 0x1190 }
  - { offsetInCU: 0x161E8, offset: 0x193C4D, size: 0x8, addend: 0x0, symName: '__ZN4core3ptr34drop_in_place$LT$syn..ty..Type$GT$17hfb5d159a08190130E.llvm.16532739692444164112', symObjAddr: 0x18C0, symBinAddr: 0x4A690, symSize: 0x580 }
  - { offsetInCU: 0x17AF9, offset: 0x19555E, size: 0x8, addend: 0x0, symName: '__ZN4core3ptr36drop_in_place$LT$syn..expr..Expr$GT$17hf1921d1b09462bc3E.llvm.16532739692444164112', symObjAddr: 0x2100, symBinAddr: 0x4AC10, symSize: 0x3290 }
  - { offsetInCU: 0x2238A, offset: 0x19FDEF, size: 0x8, addend: 0x0, symName: '__ZN4core3ptr36drop_in_place$LT$syn..mac..Macro$GT$17h205613d7ad575f72E', symObjAddr: 0x5390, symBinAddr: 0x4DEA0, symSize: 0x40 }
  - { offsetInCU: 0x223C4, offset: 0x19FE29, size: 0x8, addend: 0x0, symName: '__ZN4core3ptr36drop_in_place$LT$syn..path..Path$GT$17he6d0bec66d66b98aE.llvm.16532739692444164112', symObjAddr: 0x53D0, symBinAddr: 0x4DEE0, symSize: 0xE0 }
  - { offsetInCU: 0x226D3, offset: 0x1A0138, size: 0x8, addend: 0x0, symName: '__ZN4core3ptr37drop_in_place$LT$syn..data..Field$GT$17h6bfcb460cfa4c863E.llvm.16532739692444164112', symObjAddr: 0x54B0, symBinAddr: 0x4DFC0, symSize: 0x150 }
  - { offsetInCU: 0x22B11, offset: 0x1A0576, size: 0x8, addend: 0x0, symName: '__ZN4core3ptr37drop_in_place$LT$syn..item..FnArg$GT$17h52a13b3505938de2E.llvm.16532739692444164112', symObjAddr: 0x5600, symBinAddr: 0x4E110, symSize: 0x290 }
  - { offsetInCU: 0x23568, offset: 0x1A0FCD, size: 0x8, addend: 0x0, symName: '__ZN4core3ptr37drop_in_place$LT$syn..stmt..Block$GT$17h3aa429e75a234230E', symObjAddr: 0x5890, symBinAddr: 0x4E3A0, symSize: 0xD0 }
  - { offsetInCU: 0x2383F, offset: 0x1A12A4, size: 0x8, addend: 0x0, symName: '__ZN4core3ptr38drop_in_place$LT$syn..expr..Member$GT$17ha113d37a67d27aafE.llvm.16532739692444164112', symObjAddr: 0x5960, symBinAddr: 0x4E470, symSize: 0x30 }
  - { offsetInCU: 0x2393B, offset: 0x1A13A0, size: 0x8, addend: 0x0, symName: '__ZN4core3ptr39drop_in_place$LT$proc_macro2..Ident$GT$17hdeec010483268a0dE', symObjAddr: 0x5990, symBinAddr: 0x4E4A0, symSize: 0x30 }
  - { offsetInCU: 0x23A75, offset: 0x1A14DA, size: 0x8, addend: 0x0, symName: '__ZN4core3ptr39drop_in_place$LT$syn..data..Variant$GT$17hdf59a2045a52b17cE', symObjAddr: 0x59C0, symBinAddr: 0x4E4D0, symSize: 0x170 }
  - { offsetInCU: 0x23F75, offset: 0x1A19DA, size: 0x8, addend: 0x0, symName: '__ZN4core3ptr39drop_in_place$LT$syn..item..UseTree$GT$17h78d4ed19b48b8cbfE', symObjAddr: 0x5B30, symBinAddr: 0x4E640, symSize: 0xE0 }
  - { offsetInCU: 0x2433B, offset: 0x1A1DA0, size: 0x8, addend: 0x0, symName: '__ZN4core3ptr39drop_in_place$LT$syn..pat..FieldPat$GT$17hbb4451e28b58676aE.llvm.16532739692444164112', symObjAddr: 0x5C10, symBinAddr: 0x4E720, symSize: 0x150 }
  - { offsetInCU: 0x2489D, offset: 0x1A2302, size: 0x8, addend: 0x0, symName: '__ZN4core3ptr39drop_in_place$LT$syn..pat..PatTuple$GT$17h96faeea9832d4c4bE', symObjAddr: 0x5D60, symBinAddr: 0x4E870, symSize: 0x100 }
  - { offsetInCU: 0x24BE4, offset: 0x1A2649, size: 0x8, addend: 0x0, symName: '__ZN4core3ptr39drop_in_place$LT$syn..ty..BareFnArg$GT$17hed52ce54f3b53a34E.llvm.16532739692444164112', symObjAddr: 0x5E60, symBinAddr: 0x4E970, symSize: 0x120 }
  - { offsetInCU: 0x24FF1, offset: 0x1A2A56, size: 0x8, addend: 0x0, symName: '__ZN4core3ptr40drop_in_place$LT$syn..ty..ReturnType$GT$17h6f97c9fdb958983eE', symObjAddr: 0x5F80, symBinAddr: 0x4EA90, symSize: 0x50 }
  - { offsetInCU: 0x2519F, offset: 0x1A2C04, size: 0x8, addend: 0x0, symName: '__ZN4core3ptr42drop_in_place$LT$syn..data..Visibility$GT$17h27e8b6ad307fcbc7E', symObjAddr: 0x6000, symBinAddr: 0x4EAE0, symSize: 0x120 }
  - { offsetInCU: 0x255F5, offset: 0x1A305A, size: 0x8, addend: 0x0, symName: '__ZN4core3ptr42drop_in_place$LT$syn..expr..FieldValue$GT$17h42a16bcbdc918058E.llvm.16532739692444164112', symObjAddr: 0x6120, symBinAddr: 0x4EC00, symSize: 0x120 }
  - { offsetInCU: 0x25A9C, offset: 0x1A3501, size: 0x8, addend: 0x0, symName: '__ZN4core3ptr43drop_in_place$LT$syn..path..PathSegment$GT$17h3d0f44137dd31bf9E.llvm.16532739692444164112', symObjAddr: 0x6240, symBinAddr: 0x4ED20, symSize: 0x170 }
  - { offsetInCU: 0x25FFC, offset: 0x1A3A61, size: 0x8, addend: 0x0, symName: '__ZN4core3ptr44drop_in_place$LT$syn..lifetime..Lifetime$GT$17h3858225df033648aE.llvm.16532739692444164112', symObjAddr: 0x63B0, symBinAddr: 0x4EE90, symSize: 0x30 }
  - { offsetInCU: 0x2622E, offset: 0x1A3C93, size: 0x8, addend: 0x0, symName: '__ZN4core3ptr45drop_in_place$LT$proc_macro2..TokenStream$GT$17h2507cb30e765dc85E', symObjAddr: 0x63E0, symBinAddr: 0x4EEC0, symSize: 0x140 }
  - { offsetInCU: 0x2668A, offset: 0x1A40EF, size: 0x8, addend: 0x0, symName: '__ZN4core3ptr47drop_in_place$LT$syn..generics..LifetimeDef$GT$17hd04bc9e6ed9dfb47E.llvm.16532739692444164112', symObjAddr: 0x6520, symBinAddr: 0x4F000, symSize: 0x120 }
  - { offsetInCU: 0x26AE5, offset: 0x1A454A, size: 0x8, addend: 0x0, symName: '__ZN4core3ptr47drop_in_place$LT$syn..path..GenericArgument$GT$17h8c0a0d8c6deaefb4E.llvm.16532739692444164112', symObjAddr: 0x6640, symBinAddr: 0x4F120, symSize: 0x110 }
  - { offsetInCU: 0x26E7C, offset: 0x1A48E1, size: 0x8, addend: 0x0, symName: '__ZN4core3ptr48drop_in_place$LT$syn..generics..GenericParam$GT$17h9292481f35bf25edE.llvm.16532739692444164112', symObjAddr: 0x6750, symBinAddr: 0x4F230, symSize: 0x300 }
  - { offsetInCU: 0x276A0, offset: 0x1A5105, size: 0x8, addend: 0x0, symName: '__ZN4core3ptr50drop_in_place$LT$syn..generics..TypeParamBound$GT$17h8d9a306b4a7f920fE.llvm.16532739692444164112', symObjAddr: 0x6A50, symBinAddr: 0x4F530, symSize: 0x150 }
  - { offsetInCU: 0x27B13, offset: 0x1A5578, size: 0x8, addend: 0x0, symName: '__ZN4core3ptr50drop_in_place$LT$syn..generics..WherePredicate$GT$17h1fc5b3da95266304E.llvm.16532739692444164112', symObjAddr: 0x6BA0, symBinAddr: 0x4F680, symSize: 0x100 }
  - { offsetInCU: 0x27C9A, offset: 0x1A56FF, size: 0x8, addend: 0x0, symName: '__ZN4core3ptr53drop_in_place$LT$syn..expr..GenericMethodArgument$GT$17h74a5a2396c2f7da6E.llvm.16532739692444164112', symObjAddr: 0x6CA0, symBinAddr: 0x4F780, symSize: 0x30 }
  - { offsetInCU: 0x27CB7, offset: 0x1A571C, size: 0x8, addend: 0x0, symName: '__ZN4core3ptr58drop_in_place$LT$alloc..vec..Vec$LT$syn..expr..Arm$GT$$GT$17hf3db0825f3d9c861E', symObjAddr: 0x6CD0, symBinAddr: 0x4F7B0, symSize: 0xD0 }
  - { offsetInCU: 0x27F77, offset: 0x1A59DC, size: 0x8, addend: 0x0, symName: '__ZN4core3ptr59drop_in_place$LT$alloc..boxed..Box$LT$syn..pat..Pat$GT$$GT$17h7037ce9bbd3729c6E.llvm.16532739692444164112', symObjAddr: 0x6DA0, symBinAddr: 0x4F880, symSize: 0x50 }
  - { offsetInCU: 0x280D0, offset: 0x1A5B35, size: 0x8, addend: 0x0, symName: '__ZN4core3ptr59drop_in_place$LT$alloc..boxed..Box$LT$syn..ty..Type$GT$$GT$17h2eccd13329dbe4faE.llvm.16532739692444164112', symObjAddr: 0x6DF0, symBinAddr: 0x4F8D0, symSize: 0x50 }
  - { offsetInCU: 0x28229, offset: 0x1A5C8E, size: 0x8, addend: 0x0, symName: '__ZN4core3ptr61drop_in_place$LT$alloc..boxed..Box$LT$syn..expr..Expr$GT$$GT$17h66094ddc89015516E.llvm.16532739692444164112', symObjAddr: 0x6F10, symBinAddr: 0x4F920, symSize: 0x50 }
  - { offsetInCU: 0x283FE, offset: 0x1A5E63, size: 0x8, addend: 0x0, symName: '__ZN4core3ptr61drop_in_place$LT$syn..path..ParenthesizedGenericArguments$GT$17h21be9b1d7a6fab55E.llvm.16532739692444164112', symObjAddr: 0x6F60, symBinAddr: 0x4F970, symSize: 0x170 }
  - { offsetInCU: 0x28A07, offset: 0x1A646C, size: 0x8, addend: 0x0, symName: '__ZN4core3ptr63drop_in_place$LT$alloc..boxed..Box$LT$syn..lit..LitRepr$GT$$GT$17h9c509b794406150eE', symObjAddr: 0x7170, symBinAddr: 0x4FAE0, symSize: 0x60 }
  - { offsetInCU: 0x28CEF, offset: 0x1A6754, size: 0x8, addend: 0x0, symName: '__ZN4core3ptr64drop_in_place$LT$alloc..boxed..Box$LT$syn..item..UseTree$GT$$GT$17h2fbb30105f88b737E', symObjAddr: 0x7220, symBinAddr: 0x4FB40, symSize: 0x100 }
  - { offsetInCU: 0x2921D, offset: 0x1A6C82, size: 0x8, addend: 0x0, symName: '__ZN4core3ptr64drop_in_place$LT$alloc..boxed..Box$LT$syn..pat..FieldPat$GT$$GT$17hb167b355d0d4733fE', symObjAddr: 0x7320, symBinAddr: 0x4FC40, symSize: 0x180 }
  - { offsetInCU: 0x298FC, offset: 0x1A7361, size: 0x8, addend: 0x0, symName: '__ZN4core3ptr64drop_in_place$LT$alloc..boxed..Box$LT$syn..ty..BareFnArg$GT$$GT$17h6488be9448346678E', symObjAddr: 0x74A0, symBinAddr: 0x4FDC0, symSize: 0x160 }
  - { offsetInCU: 0x29E92, offset: 0x1A78F7, size: 0x8, addend: 0x0, symName: '__ZN4core3ptr65drop_in_place$LT$alloc..vec..Vec$LT$proc_macro..TokenTree$GT$$GT$17hc3670dd5608d5259E', symObjAddr: 0x7600, symBinAddr: 0x4FF20, symSize: 0x110 }
  - { offsetInCU: 0x2A28A, offset: 0x1A7CEF, size: 0x8, addend: 0x0, symName: '__ZN4core3ptr65drop_in_place$LT$core..option..Option$LT$syn..expr..Label$GT$$GT$17ha723640fd01bec5dE', symObjAddr: 0x7710, symBinAddr: 0x50030, symSize: 0x30 }
  - { offsetInCU: 0x2A3C4, offset: 0x1A7E29, size: 0x8, addend: 0x0, symName: '__ZN4core3ptr66drop_in_place$LT$core..option..Option$LT$syn..ty..Variadic$GT$$GT$17hc32134bb3933b0dfE', symObjAddr: 0x7740, symBinAddr: 0x50060, symSize: 0xF0 }
  - { offsetInCU: 0x2A6EE, offset: 0x1A8153, size: 0x8, addend: 0x0, symName: '__ZN4core3ptr67drop_in_place$LT$alloc..boxed..Box$LT$syn..expr..FieldValue$GT$$GT$17h8df780aa600ea8c2E', symObjAddr: 0x78A0, symBinAddr: 0x50150, symSize: 0x160 }
  - { offsetInCU: 0x2ACC1, offset: 0x1A8726, size: 0x8, addend: 0x0, symName: '__ZN4core3ptr73drop_in_place$LT$alloc..vec..Vec$LT$syn..generics..TypeParamBound$GT$$GT$17h5d27515ea87a306aE.llvm.16532739692444164112', symObjAddr: 0x7CF0, symBinAddr: 0x502B0, symSize: 0xC0 }
  - { offsetInCU: 0x2AF92, offset: 0x1A89F7, size: 0x8, addend: 0x0, symName: '__ZN4core3ptr75drop_in_place$LT$alloc..boxed..Box$LT$syn..generics..TypeParamBound$GT$$GT$17h8f156ce07ea0b8b2E', symObjAddr: 0x7DB0, symBinAddr: 0x50370, symSize: 0x90 }
  - { offsetInCU: 0x2B255, offset: 0x1A8CBA, size: 0x8, addend: 0x0, symName: '__ZN4core3ptr78drop_in_place$LT$alloc..boxed..Box$LT$syn..expr..GenericMethodArgument$GT$$GT$17h3384c00b5bd54c2aE', symObjAddr: 0x7E90, symBinAddr: 0x50400, symSize: 0x60 }
  - { offsetInCU: 0x2B466, offset: 0x1A8ECB, size: 0x8, addend: 0x0, symName: '__ZN4core3ptr78drop_in_place$LT$core..option..Option$LT$syn..generics..BoundLifetimes$GT$$GT$17h8175e66ad0c4a156E.llvm.16532739692444164112', symObjAddr: 0x7EF0, symBinAddr: 0x50460, symSize: 0x120 }
  - { offsetInCU: 0x2B8CE, offset: 0x1A9333, size: 0x8, addend: 0x0, symName: '__ZN4core3ptr81drop_in_place$LT$$LP$syn..expr..GenericMethodArgument$C$syn..token..Comma$RP$$GT$17h6cb8506ab56d85d6E.llvm.16532739692444164112', symObjAddr: 0x80E0, symBinAddr: 0x50580, symSize: 0x30 }
  - { offsetInCU: 0x2B97A, offset: 0x1A93DF, size: 0x8, addend: 0x0, symName: '__ZN4core3ptr86drop_in_place$LT$syn..punctuated..Punctuated$LT$syn..pat..Pat$C$syn..token..Or$GT$$GT$17h1078c5d178d382b7E', symObjAddr: 0x82B0, symBinAddr: 0x505B0, symSize: 0x120 }
  - { offsetInCU: 0x2BE14, offset: 0x1A9879, size: 0x8, addend: 0x0, symName: '__ZN4core3ptr87drop_in_place$LT$core..option..Option$LT$alloc..boxed..Box$LT$syn..pat..Pat$GT$$GT$$GT$17ha7f5fe0e6f73e820E', symObjAddr: 0x84A0, symBinAddr: 0x506D0, symSize: 0x50 }
  - { offsetInCU: 0x2BF84, offset: 0x1A99E9, size: 0x8, addend: 0x0, symName: '__ZN4core3ptr87drop_in_place$LT$core..option..Option$LT$alloc..boxed..Box$LT$syn..ty..Type$GT$$GT$$GT$17hc8292da82d129de3E.llvm.16532739692444164112', symObjAddr: 0x84F0, symBinAddr: 0x50720, symSize: 0x50 }
  - { offsetInCU: 0x2C113, offset: 0x1A9B78, size: 0x8, addend: 0x0, symName: '__ZN4core3ptr89drop_in_place$LT$core..option..Option$LT$alloc..boxed..Box$LT$syn..expr..Expr$GT$$GT$$GT$17hdc211ccd33f196f2E', symObjAddr: 0x86E0, symBinAddr: 0x50770, symSize: 0x50 }
  - { offsetInCU: 0x2C2C1, offset: 0x1A9D26, size: 0x8, addend: 0x0, symName: '__ZN4core3ptr89drop_in_place$LT$syn..punctuated..Punctuated$LT$syn..pat..Pat$C$syn..token..Comma$GT$$GT$17hf8371102b0500adcE', symObjAddr: 0x8730, symBinAddr: 0x507C0, symSize: 0x120 }
  - { offsetInCU: 0x2C753, offset: 0x1AA1B8, size: 0x8, addend: 0x0, symName: '__ZN4core3ptr89drop_in_place$LT$syn..punctuated..Punctuated$LT$syn..ty..Type$C$syn..token..Comma$GT$$GT$17h1c6e43341fabea97E.llvm.16532739692444164112', symObjAddr: 0x8850, symBinAddr: 0x508E0, symSize: 0x120 }
  - { offsetInCU: 0x2CC2B, offset: 0x1AA690, size: 0x8, addend: 0x0, symName: '__ZN4core3ptr90drop_in_place$LT$core..option..Option$LT$alloc..boxed..Box$LT$syn..data..Field$GT$$GT$$GT$17he146e9f4e32c136fE.llvm.16532739692444164112', symObjAddr: 0x8CA0, symBinAddr: 0x50A00, symSize: 0x50 }
  - { offsetInCU: 0x2CDAD, offset: 0x1AA812, size: 0x8, addend: 0x0, symName: '__ZN4core3ptr91drop_in_place$LT$syn..punctuated..Punctuated$LT$syn..expr..Expr$C$syn..token..Comma$GT$$GT$17hd2dfeb0c522d9a18E.llvm.16532739692444164112', symObjAddr: 0x8CF0, symBinAddr: 0x50A50, symSize: 0x120 }
  - { offsetInCU: 0x2D25A, offset: 0x1AACBF, size: 0x8, addend: 0x0, symName: '__ZN4core3ptr92drop_in_place$LT$core..option..Option$LT$alloc..boxed..Box$LT$syn..data..Variant$GT$$GT$$GT$17h9c9c8f3c1dc56a70E', symObjAddr: 0x8E10, symBinAddr: 0x50B70, symSize: 0x50 }
  - { offsetInCU: 0x2D3FB, offset: 0x1AAE60, size: 0x8, addend: 0x0, symName: '__ZN4core3ptr92drop_in_place$LT$syn..punctuated..Punctuated$LT$syn..data..Field$C$syn..token..Comma$GT$$GT$17h907c4fed8ae64bc3E', symObjAddr: 0x8E60, symBinAddr: 0x50BC0, symSize: 0x120 }
  - { offsetInCU: 0x2D8C6, offset: 0x1AB32B, size: 0x8, addend: 0x0, symName: '__ZN4core3ptr94drop_in_place$LT$syn..punctuated..Punctuated$LT$syn..data..Variant$C$syn..token..Comma$GT$$GT$17hb4480d65f74dc9d7E', symObjAddr: 0x91B0, symBinAddr: 0x50CE0, symSize: 0x120 }
  - { offsetInCU: 0x2DD72, offset: 0x1AB7D7, size: 0x8, addend: 0x0, symName: '__ZN4core3ptr94drop_in_place$LT$syn..punctuated..Punctuated$LT$syn..item..UseTree$C$syn..token..Comma$GT$$GT$17ha837d38586774c87E', symObjAddr: 0x92D0, symBinAddr: 0x50E00, symSize: 0xF0 }
  - { offsetInCU: 0x2E0B4, offset: 0x1ABB19, size: 0x8, addend: 0x0, symName: '__ZN4core3ptr94drop_in_place$LT$syn..punctuated..Punctuated$LT$syn..pat..FieldPat$C$syn..token..Comma$GT$$GT$17h612cbc9066d5afb1E', symObjAddr: 0x93C0, symBinAddr: 0x50EF0, symSize: 0xF0 }
  - { offsetInCU: 0x2E3B3, offset: 0x1ABE18, size: 0x8, addend: 0x0, symName: '__ZN4core3ptr94drop_in_place$LT$syn..punctuated..Punctuated$LT$syn..ty..BareFnArg$C$syn..token..Comma$GT$$GT$17ha9a668ce9972795bE', symObjAddr: 0x94B0, symBinAddr: 0x50FE0, symSize: 0xF0 }
  - { offsetInCU: 0x2E6B0, offset: 0x1AC115, size: 0x8, addend: 0x0, symName: '__ZN4core3ptr95drop_in_place$LT$core..option..Option$LT$$LP$proc_macro2..Ident$C$syn..token..Colon$RP$$GT$$GT$17h7314df562090eafdE.llvm.16532739692444164112', symObjAddr: 0x9670, symBinAddr: 0x510D0, symSize: 0x30 }
  - { offsetInCU: 0x2E809, offset: 0x1AC26E, size: 0x8, addend: 0x0, symName: '__ZN4core3ptr96drop_in_place$LT$core..option..Option$LT$alloc..boxed..Box$LT$syn..path..PathSegment$GT$$GT$$GT$17h2e81cbe3c70bb71cE.llvm.16532739692444164112', symObjAddr: 0x96A0, symBinAddr: 0x51100, symSize: 0x180 }
  - { offsetInCU: 0x2EEE5, offset: 0x1AC94A, size: 0x8, addend: 0x0, symName: '__ZN4core3ptr97drop_in_place$LT$syn..punctuated..Punctuated$LT$syn..expr..FieldValue$C$syn..token..Comma$GT$$GT$17h11a5fffb46adfb11E', symObjAddr: 0x99B0, symBinAddr: 0x51280, symSize: 0xF0 }
  - { offsetInCU: 0x2F220, offset: 0x1ACC85, size: 0x8, addend: 0x0, symName: '__ZN4core3ptr97drop_in_place$LT$syn..punctuated..Punctuated$LT$syn..lifetime..Lifetime$C$syn..token..Add$GT$$GT$17h5c54dea2c838d109E.llvm.16532739692444164112', symObjAddr: 0x9AA0, symBinAddr: 0x51370, symSize: 0xD0 }
  - { offsetInCU: 0x2F710, offset: 0x1AD175, size: 0x8, addend: 0x0, symName: '__ZN4core3ptr98drop_in_place$LT$syn..punctuated..IntoPairs$LT$syn..path..PathSegment$C$syn..token..Colon2$GT$$GT$17ha9c816c5dc080402E', symObjAddr: 0x9D00, symBinAddr: 0x51440, symSize: 0x50 }
  - { offsetInCU: 0x2F7E6, offset: 0x1AD24B, size: 0x8, addend: 0x0, symName: '__ZN4core3ptr99drop_in_place$LT$alloc..vec..Vec$LT$$LP$syn..generics..TypeParamBound$C$syn..token..Add$RP$$GT$$GT$17h1faee7dfcf042dc4E.llvm.16532739692444164112', symObjAddr: 0x9DB0, symBinAddr: 0x51490, symSize: 0x60 }
  - { offsetInCU: 0x2FA32, offset: 0x1AD497, size: 0x8, addend: 0x0, symName: '__ZN4core3ptr99drop_in_place$LT$syn..punctuated..Punctuated$LT$syn..path..PathSegment$C$syn..token..Colon2$GT$$GT$17hb961e4d7989a33ceE', symObjAddr: 0x9E10, symBinAddr: 0x514F0, symSize: 0x120 }
  - { offsetInCU: 0x3828F, offset: 0x1B5CF4, size: 0x8, addend: 0x0, symName: __ZN4core4iter6traits10exact_size17ExactSizeIterator8is_empty17h1bc6241bf1888e40E.llvm.16532739692444164112, symObjAddr: 0x9F30, symBinAddr: 0x51610, symSize: 0x30 }
  - { offsetInCU: 0x38461, offset: 0x1B5EC6, size: 0x8, addend: 0x0, symName: __ZN4core4iter6traits10exact_size17ExactSizeIterator8is_empty17h8b7c40384e5a97c9E.llvm.16532739692444164112, symObjAddr: 0x9FC0, symBinAddr: 0x51640, symSize: 0x0 }
  - { offsetInCU: 0x385DA, offset: 0x1B603F, size: 0x8, addend: 0x0, symName: __ZN4core4iter6traits12double_ended19DoubleEndedIterator15advance_back_by17h056355dfb82b04c9E.llvm.16532739692444164112, symObjAddr: 0x9FF0, symBinAddr: 0x51670, symSize: 0x0 }
  - { offsetInCU: 0x38821, offset: 0x1B6286, size: 0x8, addend: 0x0, symName: __ZN4core4iter6traits12double_ended19DoubleEndedIterator15advance_back_by17h653dda07e28b399cE.llvm.16532739692444164112, symObjAddr: 0xA0F0, symBinAddr: 0x516F0, symSize: 0x70 }
  - { offsetInCU: 0x38A86, offset: 0x1B64EB, size: 0x8, addend: 0x0, symName: __ZN4core4iter6traits12double_ended19DoubleEndedIterator8nth_back17h1a8b2eaf5ff7e46eE.llvm.16532739692444164112, symObjAddr: 0xA1D0, symBinAddr: 0x51760, symSize: 0x0 }
  - { offsetInCU: 0x38F61, offset: 0x1B69C6, size: 0x8, addend: 0x0, symName: __ZN4core4iter6traits12double_ended19DoubleEndedIterator8nth_back17hed9022273c30defeE.llvm.16532739692444164112, symObjAddr: 0xA3B0, symBinAddr: 0x51800, symSize: 0xA0 }
  - { offsetInCU: 0x393FC, offset: 0x1B6E61, size: 0x8, addend: 0x0, symName: __ZN4core4iter6traits8iterator8Iterator10advance_by17h2ca4f3f814760fa1E.llvm.16532739692444164112, symObjAddr: 0xA4C0, symBinAddr: 0x518A0, symSize: 0x0 }
  - { offsetInCU: 0x396FD, offset: 0x1B7162, size: 0x8, addend: 0x0, symName: __ZN4core4iter6traits8iterator8Iterator10advance_by17he4016f4f7eb36f58E.llvm.16532739692444164112, symObjAddr: 0xA590, symBinAddr: 0x51910, symSize: 0x60 }
  - { offsetInCU: 0x39A4F, offset: 0x1B74B4, size: 0x8, addend: 0x0, symName: __ZN4core4iter6traits8iterator8Iterator3nth17ha8257b76d5889cb4E.llvm.16532739692444164112, symObjAddr: 0xA6F0, symBinAddr: 0x51970, symSize: 0x0 }
  - { offsetInCU: 0x3A03A, offset: 0x1B7A9F, size: 0x8, addend: 0x0, symName: __ZN4core4iter6traits8iterator8Iterator3nth17he19de029313aec56E.llvm.16532739692444164112, symObjAddr: 0xA770, symBinAddr: 0x519F0, symSize: 0x80 }
  - { offsetInCU: 0x3A5D4, offset: 0x1B8039, size: 0x8, addend: 0x0, symName: __ZN4core4iter6traits8iterator8Iterator9size_hint17h0104108dabb19d93E.llvm.16532739692444164112, symObjAddr: 0xA7F0, symBinAddr: 0x51A70, symSize: 0x0 }
  - { offsetInCU: 0x3BE35, offset: 0x1B989A, size: 0x8, addend: 0x0, symName: _anon.6d16f1a36471c80d3de82dc9b4f7a556.7.llvm.16532739692444164112, symObjAddr: 0x156C8, symBinAddr: 0x2045E0, symSize: 0x0 }
  - { offsetInCU: 0x3DEEC, offset: 0x1BB951, size: 0x8, addend: 0x0, symName: '__ZN3syn10punctuated23Punctuated$LT$T$C$P$GT$4iter17hb5b1f3ac16f65eacE', symObjAddr: 0xAA10, symBinAddr: 0x51A90, symSize: 0x70 }
  - { offsetInCU: 0x3E860, offset: 0x1BC2C5, size: 0x8, addend: 0x0, symName: '__ZN3syn10punctuated23Punctuated$LT$T$C$P$GT$10push_value17h14b7c2c4fe5ffb09E', symObjAddr: 0xAF00, symBinAddr: 0x51B00, symSize: 0xA0 }
  - { offsetInCU: 0x3EA9F, offset: 0x1BC504, size: 0x8, addend: 0x0, symName: '__ZN3syn10punctuated23Punctuated$LT$T$C$P$GT$10push_value17h39f3d53d0765bd8bE', symObjAddr: 0xAFA0, symBinAddr: 0x51BA0, symSize: 0x0 }
  - { offsetInCU: 0x3ECD2, offset: 0x1BC737, size: 0x8, addend: 0x0, symName: '__ZN3syn10punctuated23Punctuated$LT$T$C$P$GT$10push_value17h3ebbefe6892129a3E', symObjAddr: 0xB070, symBinAddr: 0x51C70, symSize: 0xA0 }
  - { offsetInCU: 0x3EF04, offset: 0x1BC969, size: 0x8, addend: 0x0, symName: '__ZN3syn10punctuated23Punctuated$LT$T$C$P$GT$10push_value17h6654a5202d87b9adE', symObjAddr: 0xB110, symBinAddr: 0x51D10, symSize: 0xD0 }
  - { offsetInCU: 0x3F137, offset: 0x1BCB9C, size: 0x8, addend: 0x0, symName: '__ZN3syn10punctuated23Punctuated$LT$T$C$P$GT$10push_value17h68728aa7418e1828E', symObjAddr: 0xB1E0, symBinAddr: 0x51DE0, symSize: 0xE0 }
  - { offsetInCU: 0x3F474, offset: 0x1BCED9, size: 0x8, addend: 0x0, symName: '__ZN3syn10punctuated23Punctuated$LT$T$C$P$GT$10push_value17h734c18a193061288E', symObjAddr: 0xB2C0, symBinAddr: 0x51EC0, symSize: 0xD0 }
  - { offsetInCU: 0x3F699, offset: 0x1BD0FE, size: 0x8, addend: 0x0, symName: '__ZN3syn10punctuated23Punctuated$LT$T$C$P$GT$10push_value17h738c10366c9a624bE', symObjAddr: 0xB390, symBinAddr: 0x51F90, symSize: 0xD0 }
  - { offsetInCU: 0x3F8CC, offset: 0x1BD331, size: 0x8, addend: 0x0, symName: '__ZN3syn10punctuated23Punctuated$LT$T$C$P$GT$10push_value17h8a453bad6a782ffeE', symObjAddr: 0xB460, symBinAddr: 0x52060, symSize: 0xD0 }
  - { offsetInCU: 0x3FAF2, offset: 0x1BD557, size: 0x8, addend: 0x0, symName: '__ZN3syn10punctuated23Punctuated$LT$T$C$P$GT$10push_value17h958c5485234fa2d2E', symObjAddr: 0xB530, symBinAddr: 0x52130, symSize: 0xA0 }
  - { offsetInCU: 0x3FD3E, offset: 0x1BD7A3, size: 0x8, addend: 0x0, symName: '__ZN3syn10punctuated23Punctuated$LT$T$C$P$GT$10push_value17ha121070897ba71bbE', symObjAddr: 0xB5D0, symBinAddr: 0x521D0, symSize: 0xD0 }
  - { offsetInCU: 0x3FF71, offset: 0x1BD9D6, size: 0x8, addend: 0x0, symName: '__ZN3syn10punctuated23Punctuated$LT$T$C$P$GT$10push_value17hc23a986ec6344064E', symObjAddr: 0xB6A0, symBinAddr: 0x522A0, symSize: 0xD0 }
  - { offsetInCU: 0x401A3, offset: 0x1BDC08, size: 0x8, addend: 0x0, symName: '__ZN3syn10punctuated23Punctuated$LT$T$C$P$GT$10push_value17hc8fea27b62230799E', symObjAddr: 0xB770, symBinAddr: 0x52370, symSize: 0xD0 }
  - { offsetInCU: 0x403D6, offset: 0x1BDE3B, size: 0x8, addend: 0x0, symName: '__ZN3syn10punctuated23Punctuated$LT$T$C$P$GT$10push_value17hd58984c4db98708fE', symObjAddr: 0xB840, symBinAddr: 0x52440, symSize: 0xD0 }
  - { offsetInCU: 0x40609, offset: 0x1BE06E, size: 0x8, addend: 0x0, symName: '__ZN3syn10punctuated23Punctuated$LT$T$C$P$GT$10push_value17he9d5642b6abab872E', symObjAddr: 0xB910, symBinAddr: 0x52510, symSize: 0xD0 }
  - { offsetInCU: 0x40865, offset: 0x1BE2CA, size: 0x8, addend: 0x0, symName: '__ZN3syn10punctuated23Punctuated$LT$T$C$P$GT$10push_punct17h05097ced3e641863E', symObjAddr: 0xB9E0, symBinAddr: 0x525E0, symSize: 0xE0 }
  - { offsetInCU: 0x40C15, offset: 0x1BE67A, size: 0x8, addend: 0x0, symName: '__ZN3syn10punctuated23Punctuated$LT$T$C$P$GT$10push_punct17h11ba52321bf5bea8E', symObjAddr: 0xBAC0, symBinAddr: 0x526C0, symSize: 0xE0 }
  - { offsetInCU: 0x40FE5, offset: 0x1BEA4A, size: 0x8, addend: 0x0, symName: '__ZN3syn10punctuated23Punctuated$LT$T$C$P$GT$10push_punct17h2dceda0901d1267aE', symObjAddr: 0xBBA0, symBinAddr: 0x527A0, symSize: 0xE0 }
  - { offsetInCU: 0x413B5, offset: 0x1BEE1A, size: 0x8, addend: 0x0, symName: '__ZN3syn10punctuated23Punctuated$LT$T$C$P$GT$10push_punct17h30da73095861d121E', symObjAddr: 0xBC80, symBinAddr: 0x52880, symSize: 0xE0 }
  - { offsetInCU: 0x417D3, offset: 0x1BF238, size: 0x8, addend: 0x0, symName: '__ZN3syn10punctuated23Punctuated$LT$T$C$P$GT$10push_punct17h400c66537f83dc5bE', symObjAddr: 0xBD60, symBinAddr: 0x52960, symSize: 0x120 }
  - { offsetInCU: 0x41D03, offset: 0x1BF768, size: 0x8, addend: 0x0, symName: '__ZN3syn10punctuated23Punctuated$LT$T$C$P$GT$10push_punct17h500d37b1c0505005E', symObjAddr: 0xBE80, symBinAddr: 0x52A80, symSize: 0xE0 }
  - { offsetInCU: 0x420D3, offset: 0x1BFB38, size: 0x8, addend: 0x0, symName: '__ZN3syn10punctuated23Punctuated$LT$T$C$P$GT$10push_punct17h53a23ce0aae9ffc1E', symObjAddr: 0xBF60, symBinAddr: 0x52B60, symSize: 0xC0 }
  - { offsetInCU: 0x42496, offset: 0x1BFEFB, size: 0x8, addend: 0x0, symName: '__ZN3syn10punctuated23Punctuated$LT$T$C$P$GT$10push_punct17h70a79c86c88cff65E', symObjAddr: 0xC020, symBinAddr: 0x52C20, symSize: 0xC0 }
  - { offsetInCU: 0x42873, offset: 0x1C02D8, size: 0x8, addend: 0x0, symName: '__ZN3syn10punctuated23Punctuated$LT$T$C$P$GT$10push_punct17h79f957a4f7bfa4bdE', symObjAddr: 0xC0E0, symBinAddr: 0x52CE0, symSize: 0xD0 }
  - { offsetInCU: 0x42C43, offset: 0x1C06A8, size: 0x8, addend: 0x0, symName: '__ZN3syn10punctuated23Punctuated$LT$T$C$P$GT$10push_punct17h9ff63fe42d8a305bE', symObjAddr: 0xC1B0, symBinAddr: 0x52DB0, symSize: 0xE0 }
  - { offsetInCU: 0x43013, offset: 0x1C0A78, size: 0x8, addend: 0x0, symName: '__ZN3syn10punctuated23Punctuated$LT$T$C$P$GT$10push_punct17haa5636a409edefeeE', symObjAddr: 0xC290, symBinAddr: 0x52E90, symSize: 0xE0 }
  - { offsetInCU: 0x433E3, offset: 0x1C0E48, size: 0x8, addend: 0x0, symName: '__ZN3syn10punctuated23Punctuated$LT$T$C$P$GT$10push_punct17had77e3ca97751ca0E', symObjAddr: 0xC370, symBinAddr: 0x52F70, symSize: 0x100 }
  - { offsetInCU: 0x437B3, offset: 0x1C1218, size: 0x8, addend: 0x0, symName: '__ZN3syn10punctuated23Punctuated$LT$T$C$P$GT$10push_punct17hd1e26f9cc5ff1a0fE', symObjAddr: 0xC470, symBinAddr: 0x53070, symSize: 0xD0 }
  - { offsetInCU: 0x43B90, offset: 0x1C15F5, size: 0x8, addend: 0x0, symName: '__ZN3syn10punctuated23Punctuated$LT$T$C$P$GT$10push_punct17hd921c69c8d719ce4E', symObjAddr: 0xC540, symBinAddr: 0x53140, symSize: 0xE0 }
  - { offsetInCU: 0x43F53, offset: 0x1C19B8, size: 0x8, addend: 0x0, symName: '__ZN3syn10punctuated23Punctuated$LT$T$C$P$GT$10push_punct17he79340c1cde0cc34E', symObjAddr: 0xC620, symBinAddr: 0x53220, symSize: 0xE0 }
  - { offsetInCU: 0x44316, offset: 0x1C1D7B, size: 0x8, addend: 0x0, symName: '__ZN3syn10punctuated23Punctuated$LT$T$C$P$GT$10push_punct17hec278db3946341f0E', symObjAddr: 0xC700, symBinAddr: 0x53300, symSize: 0xE0 }
  - { offsetInCU: 0x44795, offset: 0x1C21FA, size: 0x8, addend: 0x0, symName: '__ZN3syn10punctuated23Punctuated$LT$T$C$P$GT$3pop17h5d3ca22f68e5e0caE', symObjAddr: 0xC7E0, symBinAddr: 0x533E0, symSize: 0x90 }
  - { offsetInCU: 0x44B83, offset: 0x1C25E8, size: 0x8, addend: 0x0, symName: '__ZN3syn10punctuated23Punctuated$LT$T$C$P$GT$4push17hcfa9ee726330b377E', symObjAddr: 0xC870, symBinAddr: 0x53470, symSize: 0x130 }
  - { offsetInCU: 0x44EF2, offset: 0x1C2957, size: 0x8, addend: 0x0, symName: '__ZN3syn10punctuated23Punctuated$LT$T$C$P$GT$6insert17h4136fb255bf8292aE', symObjAddr: 0xC9A0, symBinAddr: 0x535A0, symSize: 0x170 }
  - { offsetInCU: 0x452D8, offset: 0x1C2D3D, size: 0x8, addend: 0x0, symName: '__ZN3syn10punctuated23Punctuated$LT$T$C$P$GT$5clear17h2c657785aa52c10eE', symObjAddr: 0xCB10, symBinAddr: 0x53710, symSize: 0xA0 }
  - { offsetInCU: 0x456F9, offset: 0x1C315E, size: 0x8, addend: 0x0, symName: '__ZN3syn10punctuated23Punctuated$LT$T$C$P$GT$21parse_terminated_with17h0d42de968702d743E', symObjAddr: 0xCBB0, symBinAddr: 0x537B0, symSize: 0x320 }
  - { offsetInCU: 0x460CA, offset: 0x1C3B2F, size: 0x8, addend: 0x0, symName: '__ZN3syn10punctuated23Punctuated$LT$T$C$P$GT$21parse_terminated_with17h5843760d31b55a9fE', symObjAddr: 0xD3E0, symBinAddr: 0x53AD0, symSize: 0x330 }
  - { offsetInCU: 0x46B1D, offset: 0x1C4582, size: 0x8, addend: 0x0, symName: '__ZN3syn10punctuated23Punctuated$LT$T$C$P$GT$21parse_terminated_with17ha0e926b3a5c69310E', symObjAddr: 0xD8E0, symBinAddr: 0x53E00, symSize: 0x420 }
  - { offsetInCU: 0x1D58, offset: 0x1CB412, size: 0x8, addend: 0x0, symName: '__ZN3syn4expr8printing82_$LT$impl$u20$quote..to_tokens..ToTokens$u20$for$u20$syn..expr..ExprMethodCall$GT$9to_tokens17h52deca7c2bdcde8fE', symObjAddr: 0x11080, symBinAddr: 0x62850, symSize: 0x260 }
  - { offsetInCU: 0x2824, offset: 0x1CBEDE, size: 0x8, addend: 0x0, symName: '__ZN3syn4expr8printing77_$LT$impl$u20$quote..to_tokens..ToTokens$u20$for$u20$syn..expr..ExprWhile$GT$9to_tokens17hb73b17451a9f393bE', symObjAddr: 0x11DD0, symBinAddr: 0x62AB0, symSize: 0x220 }
  - { offsetInCU: 0x2F1B, offset: 0x1CC5D5, size: 0x8, addend: 0x0, symName: '__ZN3syn4expr8printing79_$LT$impl$u20$quote..to_tokens..ToTokens$u20$for$u20$syn..expr..ExprForLoop$GT$9to_tokens17hc158e0517546c263E', symObjAddr: 0x11FF0, symBinAddr: 0x62CD0, symSize: 0x2A0 }
  - { offsetInCU: 0x3849, offset: 0x1CCF03, size: 0x8, addend: 0x0, symName: '__ZN3syn4expr8printing79_$LT$impl$u20$quote..to_tokens..ToTokens$u20$for$u20$syn..expr..ExprClosure$GT$9to_tokens17h02addd229d205f12E', symObjAddr: 0x12C10, symBinAddr: 0x62F70, symSize: 0x350 }
  - { offsetInCU: 0x4581, offset: 0x1CDC3B, size: 0x8, addend: 0x0, symName: '__ZN3syn4expr8printing74_$LT$impl$u20$quote..to_tokens..ToTokens$u20$for$u20$syn..expr..Member$GT$9to_tokens17hc47f96e76f134d40E', symObjAddr: 0x134F0, symBinAddr: 0x632C0, symSize: 0xC0 }
  - { offsetInCU: 0x484E, offset: 0x1CDF08, size: 0x8, addend: 0x0, symName: '__ZN3syn4expr8printing73_$LT$impl$u20$quote..to_tokens..ToTokens$u20$for$u20$syn..expr..Index$GT$9to_tokens17h24b137fc9fb1190eE', symObjAddr: 0x135B0, symBinAddr: 0x63380, symSize: 0xB0 }
  - { offsetInCU: 0x4DC5, offset: 0x1CE47F, size: 0x8, addend: 0x0, symName: '__ZN3syn4expr8printing78_$LT$impl$u20$quote..to_tokens..ToTokens$u20$for$u20$syn..expr..FieldValue$GT$9to_tokens17hca3924738fecf8aaE', symObjAddr: 0x14670, symBinAddr: 0x63430, symSize: 0x1C0 }
  - { offsetInCU: 0x5453, offset: 0x1CEB0D, size: 0x8, addend: 0x0, symName: '__ZN3syn4expr8printing71_$LT$impl$u20$quote..to_tokens..ToTokens$u20$for$u20$syn..expr..Arm$GT$9to_tokens17hfe03b45f4f23e934E', symObjAddr: 0x14830, symBinAddr: 0x635F0, symSize: 0x1D0 }
  - { offsetInCU: 0x58A4, offset: 0x1CEF5E, size: 0x8, addend: 0x0, symName: '__ZN69_$LT$syn..expr..Index$u20$as$u20$core..convert..From$LT$usize$GT$$GT$4from17h2ea9d7ed34d38008E', symObjAddr: 0xA110, symBinAddr: 0x5C9B0, symSize: 0x40 }
  - { offsetInCU: 0x58CC, offset: 0x1CEF86, size: 0x8, addend: 0x0, symName: '__ZN3syn4expr7parsing63_$LT$impl$u20$syn..parse..Parse$u20$for$u20$syn..expr..Expr$GT$5parse17hc5dd14a6ed6ae10aE', symObjAddr: 0xA160, symBinAddr: 0x5C9F0, symSize: 0xF0 }
  - { offsetInCU: 0x597C, offset: 0x1CF036, size: 0x8, addend: 0x0, symName: '__ZN3syn4expr7parsing66_$LT$impl$u20$syn..parse..Parse$u20$for$u20$syn..expr..ExprLit$GT$5parse17hcc638e3114e2713bE', symObjAddr: 0xAB80, symBinAddr: 0x5CAE0, symSize: 0xF0 }
  - { offsetInCU: 0x5A8F, offset: 0x1CF149, size: 0x8, addend: 0x0, symName: '__ZN3syn4expr7parsing80_$LT$impl$u20$syn..parse..Parse$u20$for$u20$syn..expr..GenericMethodArgument$GT$5parse17h9e0e87e386c05d46E', symObjAddr: 0xAC90, symBinAddr: 0x5CBD0, symSize: 0x2E0 }
  - { offsetInCU: 0x5E30, offset: 0x1CF4EA, size: 0x8, addend: 0x0, symName: '__ZN3syn4expr7parsing74_$LT$impl$u20$syn..parse..Parse$u20$for$u20$syn..expr..MethodTurbofish$GT$5parse17hc687ec8e69e7b20fE', symObjAddr: 0xAF70, symBinAddr: 0x5CEB0, symSize: 0x350 }
  - { offsetInCU: 0x6343, offset: 0x1CF9FD, size: 0x8, addend: 0x0, symName: '__ZN3syn4expr7parsing66_$LT$impl$u20$syn..parse..Parse$u20$for$u20$syn..expr..ExprLet$GT$5parse17hb569fb53f5daeca8E', symObjAddr: 0xB2C0, symBinAddr: 0x5D200, symSize: 0x4C0 }
  - { offsetInCU: 0x68E9, offset: 0x1CFFA3, size: 0x8, addend: 0x0, symName: '__ZN3syn4expr7parsing65_$LT$impl$u20$syn..parse..Parse$u20$for$u20$syn..expr..ExprIf$GT$5parse17hc3bbb8a442518a70E', symObjAddr: 0xB780, symBinAddr: 0x5D6C0, symSize: 0x700 }
  - { offsetInCU: 0x7298, offset: 0x1D0952, size: 0x8, addend: 0x0, symName: '__ZN3syn4expr7parsing70_$LT$impl$u20$syn..parse..Parse$u20$for$u20$syn..expr..ExprForLoop$GT$5parse17h70f397294e42a49dE', symObjAddr: 0xBE80, symBinAddr: 0x5DDC0, symSize: 0xA40 }
  - { offsetInCU: 0x8172, offset: 0x1D182C, size: 0x8, addend: 0x0, symName: '__ZN3syn4expr7parsing67_$LT$impl$u20$syn..parse..Parse$u20$for$u20$syn..expr..ExprLoop$GT$5parse17h2feb6f1c5e586e7dE', symObjAddr: 0xC8C0, symBinAddr: 0x5E800, symSize: 0x560 }
  - { offsetInCU: 0x8E6F, offset: 0x1D2529, size: 0x8, addend: 0x0, symName: '__ZN3syn4expr7parsing68_$LT$impl$u20$syn..parse..Parse$u20$for$u20$syn..expr..ExprMatch$GT$5parse17hd6f41d4fa4c8de12E', symObjAddr: 0xCE20, symBinAddr: 0x5ED60, symSize: 0x820 }
  - { offsetInCU: 0x9DC1, offset: 0x1D347B, size: 0x8, addend: 0x0, symName: '__ZN3syn4expr7parsing71_$LT$impl$u20$syn..parse..Parse$u20$for$u20$syn..expr..ExprTryBlock$GT$5parse17h5554543154d3c4b6E', symObjAddr: 0xD9A0, symBinAddr: 0x5F580, symSize: 0x140 }
  - { offsetInCU: 0x9F53, offset: 0x1D360D, size: 0x8, addend: 0x0, symName: '__ZN3syn4expr7parsing68_$LT$impl$u20$syn..parse..Parse$u20$for$u20$syn..expr..ExprYield$GT$5parse17hc3f7685155a8ca99E', symObjAddr: 0xDAE0, symBinAddr: 0x5F6C0, symSize: 0x150 }
  - { offsetInCU: 0xA2D8, offset: 0x1D3992, size: 0x8, addend: 0x0, symName: '__ZN3syn4expr7parsing68_$LT$impl$u20$syn..parse..Parse$u20$for$u20$syn..expr..ExprAsync$GT$5parse17he43ed43a6e470a06E', symObjAddr: 0xDC30, symBinAddr: 0x5F810, symSize: 0x1D0 }
  - { offsetInCU: 0xA5ED, offset: 0x1D3CA7, size: 0x8, addend: 0x0, symName: '__ZN3syn4expr7parsing68_$LT$impl$u20$syn..parse..Parse$u20$for$u20$syn..expr..ExprWhile$GT$5parse17h94fbc04744e04bd5E', symObjAddr: 0xDE00, symBinAddr: 0x5F9E0, symSize: 0x8A0 }
  - { offsetInCU: 0xB315, offset: 0x1D49CF, size: 0x8, addend: 0x0, symName: '__ZN3syn4expr7parsing64_$LT$impl$u20$syn..parse..Parse$u20$for$u20$syn..expr..Label$GT$5parse17h4b99929e595412a8E', symObjAddr: 0xE6A0, symBinAddr: 0x60280, symSize: 0x230 }
  - { offsetInCU: 0xB7CE, offset: 0x1D4E88, size: 0x8, addend: 0x0, symName: '__ZN3syn4expr7parsing71_$LT$impl$u20$syn..parse..Parse$u20$for$u20$syn..expr..ExprContinue$GT$5parse17hd8b0e00434855c5dE', symObjAddr: 0xE8D0, symBinAddr: 0x604B0, symSize: 0x1B0 }
  - { offsetInCU: 0xB951, offset: 0x1D500B, size: 0x8, addend: 0x0, symName: '__ZN3syn4expr7parsing69_$LT$impl$u20$syn..parse..Parse$u20$for$u20$syn..expr..FieldValue$GT$5parse17h789c7fa607c23413E', symObjAddr: 0xEA80, symBinAddr: 0x60660, symSize: 0x6D0 }
  - { offsetInCU: 0xC415, offset: 0x1D5ACF, size: 0x8, addend: 0x0, symName: '__ZN3syn4expr7parsing69_$LT$impl$u20$syn..parse..Parse$u20$for$u20$syn..expr..ExprUnsafe$GT$5parse17ha2c47789b9924b10E', symObjAddr: 0xF210, symBinAddr: 0x60D30, symSize: 0x3A0 }
  - { offsetInCU: 0xCC59, offset: 0x1D6313, size: 0x8, addend: 0x0, symName: '__ZN3syn4expr7parsing68_$LT$impl$u20$syn..parse..Parse$u20$for$u20$syn..expr..ExprBlock$GT$5parse17h5f8eacd79eed7a3aE', symObjAddr: 0xF5B0, symBinAddr: 0x610D0, symSize: 0x540 }
  - { offsetInCU: 0xD948, offset: 0x1D7002, size: 0x8, addend: 0x0, symName: '__ZN3syn4expr7parsing70_$LT$impl$u20$syn..parse..Parse$u20$for$u20$syn..expr..RangeLimits$GT$5parse17h55d2abebfdd8f5b2E', symObjAddr: 0xFAF0, symBinAddr: 0x61610, symSize: 0x330 }
  - { offsetInCU: 0xE801, offset: 0x1D7EBB, size: 0x8, addend: 0x0, symName: '__ZN3syn4expr7parsing67_$LT$impl$u20$syn..parse..Parse$u20$for$u20$syn..expr..ExprPath$GT$5parse17h5999d7526d4caa01E', symObjAddr: 0xFE20, symBinAddr: 0x61940, symSize: 0x270 }
  - { offsetInCU: 0xEC51, offset: 0x1D830B, size: 0x8, addend: 0x0, symName: '__ZN3syn4expr7parsing65_$LT$impl$u20$syn..parse..Parse$u20$for$u20$syn..expr..Member$GT$5parse17h3c1f6e1ffd72b36eE', symObjAddr: 0x10090, symBinAddr: 0x61BB0, symSize: 0xE0 }
  - { offsetInCU: 0xEEC2, offset: 0x1D857C, size: 0x8, addend: 0x0, symName: '__ZN3syn4expr7parsing62_$LT$impl$u20$syn..parse..Parse$u20$for$u20$syn..expr..Arm$GT$5parse17h4853f2ad1c1812eeE', symObjAddr: 0x10170, symBinAddr: 0x61C90, symSize: 0xA40 }
  - { offsetInCU: 0xFE02, offset: 0x1D94BC, size: 0x8, addend: 0x0, symName: '__ZN3syn4expr7parsing64_$LT$impl$u20$syn..parse..Parse$u20$for$u20$syn..expr..Index$GT$5parse17hde4030d96c40375eE', symObjAddr: 0x10BB0, symBinAddr: 0x626D0, symSize: 0x180 }
  - { offsetInCU: 0x1048A, offset: 0x1D9B44, size: 0x8, addend: 0x0, symName: '__ZN62_$LT$syn..expr..Expr$u20$as$u20$quote..to_tokens..ToTokens$GT$9to_tokens17h26366c1ee5ef5979E', symObjAddr: 0x14A00, symBinAddr: 0x637C0, symSize: 0x2820 }
  - { offsetInCU: 0x1F546, offset: 0x1E8C00, size: 0x8, addend: 0x0, symName: '__ZN4core3ptr100drop_in_place$LT$core..option..Option$LT$alloc..boxed..Box$LT$syn..generics..LifetimeDef$GT$$GT$$GT$17h75a6086997697dd7E', symObjAddr: 0x300, symBinAddr: 0x54BD0, symSize: 0x150 }
  - { offsetInCU: 0x1FAC2, offset: 0x1E917C, size: 0x8, addend: 0x0, symName: '__ZN4core3ptr100drop_in_place$LT$core..option..Option$LT$alloc..boxed..Box$LT$syn..path..GenericArgument$GT$$GT$$GT$17h3d29ec00a8f1918dE', symObjAddr: 0x450, symBinAddr: 0x54D20, symSize: 0x50 }
  - { offsetInCU: 0x1FD0B, offset: 0x1E93C5, size: 0x8, addend: 0x0, symName: '__ZN4core3ptr103drop_in_place$LT$syn..punctuated..Punctuated$LT$syn..generics..TypeParamBound$C$syn..token..Add$GT$$GT$17he811d520c92af08aE', symObjAddr: 0x4A0, symBinAddr: 0x54D70, symSize: 0xF0 }
  - { offsetInCU: 0x2027A, offset: 0x1E9934, size: 0x8, addend: 0x0, symName: '__ZN4core3ptr106drop_in_place$LT$core..option..Option$LT$alloc..boxed..Box$LT$syn..expr..GenericMethodArgument$GT$$GT$$GT$17h96ed0a5acdf7b53bE', symObjAddr: 0x590, symBinAddr: 0x54E60, symSize: 0x70 }
  - { offsetInCU: 0x2045E, offset: 0x1E9B18, size: 0x8, addend: 0x0, symName: '__ZN4core3ptr108drop_in_place$LT$syn..punctuated..Punctuated$LT$syn..expr..GenericMethodArgument$C$syn..token..Comma$GT$$GT$17h92cbabe4862b2183E', symObjAddr: 0x600, symBinAddr: 0x54ED0, symSize: 0x150 }
  - { offsetInCU: 0x20911, offset: 0x1E9FCB, size: 0x8, addend: 0x0, symName: '__ZN4core3ptr114drop_in_place$LT$core..option..Option$LT$$LP$syn..token..If$C$alloc..boxed..Box$LT$syn..expr..Expr$GT$$RP$$GT$$GT$17hf2aa3e1ea6c77ac4E.llvm.8444515518860579797', symObjAddr: 0x750, symBinAddr: 0x55020, symSize: 0x50 }
  - { offsetInCU: 0x20B40, offset: 0x1EA1FA, size: 0x8, addend: 0x0, symName: '__ZN4core3ptr34drop_in_place$LT$syn..lit..Lit$GT$17hbe1efe749a08dd9aE', symObjAddr: 0x7A0, symBinAddr: 0x55070, symSize: 0x120 }
  - { offsetInCU: 0x2105A, offset: 0x1EA714, size: 0x8, addend: 0x0, symName: '__ZN4core3ptr34drop_in_place$LT$syn..pat..Pat$GT$17h3201f642e43ac2a2E.llvm.8444515518860579797', symObjAddr: 0x8C0, symBinAddr: 0x55190, symSize: 0x1190 }
  - { offsetInCU: 0x24F72, offset: 0x1EE62C, size: 0x8, addend: 0x0, symName: '__ZN4core3ptr34drop_in_place$LT$syn..ty..Type$GT$17hfb5d159a08190130E.llvm.8444515518860579797', symObjAddr: 0x1A50, symBinAddr: 0x56320, symSize: 0x580 }
  - { offsetInCU: 0x261F9, offset: 0x1EF8B3, size: 0x8, addend: 0x0, symName: '__ZN4core3ptr35drop_in_place$LT$syn..expr..Arm$GT$17h2f058dcaecfc86d5E', symObjAddr: 0x1FD0, symBinAddr: 0x568A0, symSize: 0x190 }
  - { offsetInCU: 0x26B75, offset: 0x1F022F, size: 0x8, addend: 0x0, symName: '__ZN4core3ptr36drop_in_place$LT$syn..expr..Expr$GT$17hf1921d1b09462bc3E.llvm.8444515518860579797', symObjAddr: 0x2160, symBinAddr: 0x56A30, symSize: 0x1E60 }
  - { offsetInCU: 0x2D431, offset: 0x1F6AEB, size: 0x8, addend: 0x0, symName: '__ZN4core3ptr36drop_in_place$LT$syn..mac..Macro$GT$17h205613d7ad575f72E', symObjAddr: 0x3FC0, symBinAddr: 0x58890, symSize: 0x40 }
  - { offsetInCU: 0x2D582, offset: 0x1F6C3C, size: 0x8, addend: 0x0, symName: '__ZN4core3ptr36drop_in_place$LT$syn..path..Path$GT$17he6d0bec66d66b98aE', symObjAddr: 0x4000, symBinAddr: 0x588D0, symSize: 0x230 }
  - { offsetInCU: 0x2DF56, offset: 0x1F7610, size: 0x8, addend: 0x0, symName: '__ZN4core3ptr37drop_in_place$LT$syn..lit..LitInt$GT$17h81ad5befc6ce2d73E.llvm.8444515518860579797', symObjAddr: 0x4230, symBinAddr: 0x58B00, symSize: 0x70 }
  - { offsetInCU: 0x2E306, offset: 0x1F79C0, size: 0x8, addend: 0x0, symName: '__ZN4core3ptr37drop_in_place$LT$syn..stmt..Block$GT$17h3aa429e75a234230E', symObjAddr: 0x42A0, symBinAddr: 0x58B70, symSize: 0xD0 }
  - { offsetInCU: 0x2E63A, offset: 0x1F7CF4, size: 0x8, addend: 0x0, symName: '__ZN4core3ptr38drop_in_place$LT$syn..expr..ExprIf$GT$17hec63a1943e3da109E', symObjAddr: 0x4370, symBinAddr: 0x58C40, symSize: 0x220 }
  - { offsetInCU: 0x2EEFC, offset: 0x1F85B6, size: 0x8, addend: 0x0, symName: '__ZN4core3ptr38drop_in_place$LT$syn..expr..Member$GT$17ha113d37a67d27aafE.llvm.8444515518860579797', symObjAddr: 0x4590, symBinAddr: 0x58E60, symSize: 0x30 }
  - { offsetInCU: 0x2EFF8, offset: 0x1F86B2, size: 0x8, addend: 0x0, symName: '__ZN4core3ptr39drop_in_place$LT$proc_macro2..Ident$GT$17hdeec010483268a0dE', symObjAddr: 0x45C0, symBinAddr: 0x58E90, symSize: 0x30 }
  - { offsetInCU: 0x2F0D5, offset: 0x1F878F, size: 0x8, addend: 0x0, symName: '__ZN4core3ptr39drop_in_place$LT$syn..pat..PatTuple$GT$17h96faeea9832d4c4bE', symObjAddr: 0x4950, symBinAddr: 0x58EC0, symSize: 0x100 }
  - { offsetInCU: 0x2F41C, offset: 0x1F8AD6, size: 0x8, addend: 0x0, symName: '__ZN4core3ptr40drop_in_place$LT$syn..expr..ExprLoop$GT$17h9e505579fd62ef6fE', symObjAddr: 0x4CE0, symBinAddr: 0x58FC0, symSize: 0x1D0 }
  - { offsetInCU: 0x2FB4B, offset: 0x1F9205, size: 0x8, addend: 0x0, symName: '__ZN4core3ptr40drop_in_place$LT$syn..ty..ReturnType$GT$17h6f97c9fdb958983eE', symObjAddr: 0x4FF0, symBinAddr: 0x59190, symSize: 0x50 }
  - { offsetInCU: 0x2FCBB, offset: 0x1F9375, size: 0x8, addend: 0x0, symName: '__ZN4core3ptr41drop_in_place$LT$syn..expr..ExprAsync$GT$17ha9124cede2896008E', symObjAddr: 0x5170, symBinAddr: 0x591E0, symSize: 0x1B0 }
  - { offsetInCU: 0x302AE, offset: 0x1F9968, size: 0x8, addend: 0x0, symName: '__ZN4core3ptr41drop_in_place$LT$syn..expr..ExprBlock$GT$17h7a5a7c5008d30d27E', symObjAddr: 0x5320, symBinAddr: 0x59390, symSize: 0x1D0 }
  - { offsetInCU: 0x309FC, offset: 0x1FA0B6, size: 0x8, addend: 0x0, symName: '__ZN4core3ptr41drop_in_place$LT$syn..expr..ExprWhile$GT$17hf221395746fac5b6E', symObjAddr: 0x5EC0, symBinAddr: 0x59560, symSize: 0x220 }
  - { offsetInCU: 0x31336, offset: 0x1FA9F0, size: 0x8, addend: 0x0, symName: '__ZN4core3ptr42drop_in_place$LT$syn..expr..ExprStruct$GT$17hcd4a233ae9f7b2e4E', symObjAddr: 0x6380, symBinAddr: 0x59780, symSize: 0x250 }
  - { offsetInCU: 0x31C40, offset: 0x1FB2FA, size: 0x8, addend: 0x0, symName: '__ZN4core3ptr42drop_in_place$LT$syn..expr..ExprUnsafe$GT$17h1385f05be3ed92a0E', symObjAddr: 0x65D0, symBinAddr: 0x599D0, symSize: 0x1B0 }
  - { offsetInCU: 0x32233, offset: 0x1FB8ED, size: 0x8, addend: 0x0, symName: '__ZN4core3ptr42drop_in_place$LT$syn..expr..FieldValue$GT$17h42a16bcbdc918058E', symObjAddr: 0x6780, symBinAddr: 0x59B80, symSize: 0x140 }
  - { offsetInCU: 0x326BF, offset: 0x1FBD79, size: 0x8, addend: 0x0, symName: '__ZN4core3ptr43drop_in_place$LT$syn..expr..ExprClosure$GT$17h33394450256957a8E', symObjAddr: 0x68C0, symBinAddr: 0x59CC0, symSize: 0x270 }
  - { offsetInCU: 0x33118, offset: 0x1FC7D2, size: 0x8, addend: 0x0, symName: '__ZN4core3ptr43drop_in_place$LT$syn..expr..ExprForLoop$GT$17hdb72d4fbe32f57c8E', symObjAddr: 0x6B30, symBinAddr: 0x59F30, symSize: 0x240 }
  - { offsetInCU: 0x3398F, offset: 0x1FD049, size: 0x8, addend: 0x0, symName: '__ZN4core3ptr44drop_in_place$LT$syn..lifetime..Lifetime$GT$17h3858225df033648aE', symObjAddr: 0x6E80, symBinAddr: 0x5A170, symSize: 0x30 }
  - { offsetInCU: 0x33B07, offset: 0x1FD1C1, size: 0x8, addend: 0x0, symName: '__ZN4core3ptr44drop_in_place$LT$syn..parse..ParseBuffer$GT$17h19c266fcccc430cbE', symObjAddr: 0x6EB0, symBinAddr: 0x5A1A0, symSize: 0x70 }
  - { offsetInCU: 0x33F1E, offset: 0x1FD5D8, size: 0x8, addend: 0x0, symName: '__ZN4core3ptr45drop_in_place$LT$proc_macro2..TokenStream$GT$17h2507cb30e765dc85E.llvm.8444515518860579797', symObjAddr: 0x6F20, symBinAddr: 0x5A210, symSize: 0x140 }
  - { offsetInCU: 0x34434, offset: 0x1FDAEE, size: 0x8, addend: 0x0, symName: '__ZN4core3ptr46drop_in_place$LT$syn..expr..ExprMethodCall$GT$17hc2c41e6c148679f7E', symObjAddr: 0x7190, symBinAddr: 0x5A350, symSize: 0x3A0 }
  - { offsetInCU: 0x352D4, offset: 0x1FE98E, size: 0x8, addend: 0x0, symName: '__ZN4core3ptr47drop_in_place$LT$syn..expr..MethodTurbofish$GT$17hfb737c85726076f0E', symObjAddr: 0x7530, symBinAddr: 0x5A6F0, symSize: 0x150 }
  - { offsetInCU: 0x3579E, offset: 0x1FEE58, size: 0x8, addend: 0x0, symName: '__ZN4core3ptr47drop_in_place$LT$syn..path..GenericArgument$GT$17h8c0a0d8c6deaefb4E', symObjAddr: 0x7680, symBinAddr: 0x5A840, symSize: 0x110 }
  - { offsetInCU: 0x35AB9, offset: 0x1FF173, size: 0x8, addend: 0x0, symName: '__ZN4core3ptr58drop_in_place$LT$alloc..vec..Vec$LT$syn..expr..Arm$GT$$GT$17hf3db0825f3d9c861E', symObjAddr: 0x7790, symBinAddr: 0x5A950, symSize: 0xD0 }
  - { offsetInCU: 0x35D79, offset: 0x1FF433, size: 0x8, addend: 0x0, symName: '__ZN4core3ptr59drop_in_place$LT$alloc..boxed..Box$LT$syn..pat..Pat$GT$$GT$17h7037ce9bbd3729c6E', symObjAddr: 0x7860, symBinAddr: 0x5AA20, symSize: 0x50 }
  - { offsetInCU: 0x35ED2, offset: 0x1FF58C, size: 0x8, addend: 0x0, symName: '__ZN4core3ptr59drop_in_place$LT$alloc..boxed..Box$LT$syn..ty..Type$GT$$GT$17h2eccd13329dbe4faE', symObjAddr: 0x78B0, symBinAddr: 0x5AA70, symSize: 0x50 }
  - { offsetInCU: 0x3602B, offset: 0x1FF6E5, size: 0x8, addend: 0x0, symName: '__ZN4core3ptr59drop_in_place$LT$alloc..vec..Vec$LT$syn..stmt..Stmt$GT$$GT$17hed4646381107e302E', symObjAddr: 0x7900, symBinAddr: 0x5AAC0, symSize: 0xD0 }
  - { offsetInCU: 0x362EB, offset: 0x1FF9A5, size: 0x8, addend: 0x0, symName: '__ZN4core3ptr61drop_in_place$LT$alloc..boxed..Box$LT$syn..expr..Expr$GT$$GT$17h66094ddc89015516E', symObjAddr: 0x79D0, symBinAddr: 0x5AB90, symSize: 0x50 }
  - { offsetInCU: 0x364C0, offset: 0x1FFB7A, size: 0x8, addend: 0x0, symName: '__ZN4core3ptr61drop_in_place$LT$syn..path..ParenthesizedGenericArguments$GT$17h21be9b1d7a6fab55E', symObjAddr: 0x7A20, symBinAddr: 0x5ABE0, symSize: 0x170 }
  - { offsetInCU: 0x36AB6, offset: 0x200170, size: 0x8, addend: 0x0, symName: '__ZN4core3ptr63drop_in_place$LT$alloc..boxed..Box$LT$syn..lit..LitRepr$GT$$GT$17h9c509b794406150eE', symObjAddr: 0x7B90, symBinAddr: 0x5AD50, symSize: 0x60 }
  - { offsetInCU: 0x36D9E, offset: 0x200458, size: 0x8, addend: 0x0, symName: '__ZN4core3ptr64drop_in_place$LT$alloc..boxed..Box$LT$syn..pat..FieldPat$GT$$GT$17hb167b355d0d4733fE', symObjAddr: 0x7BF0, symBinAddr: 0x5ADB0, symSize: 0x180 }
  - { offsetInCU: 0x374BB, offset: 0x200B75, size: 0x8, addend: 0x0, symName: '__ZN4core3ptr64drop_in_place$LT$alloc..boxed..Box$LT$syn..ty..BareFnArg$GT$$GT$17h6488be9448346678E', symObjAddr: 0x7D70, symBinAddr: 0x5AF30, symSize: 0x160 }
  - { offsetInCU: 0x37A51, offset: 0x20110B, size: 0x8, addend: 0x0, symName: '__ZN4core3ptr64drop_in_place$LT$alloc..vec..Vec$LT$syn..attr..Attribute$GT$$GT$17h386324d8ea9bc309E.llvm.8444515518860579797', symObjAddr: 0x7ED0, symBinAddr: 0x5B090, symSize: 0xF0 }
  - { offsetInCU: 0x37D47, offset: 0x201401, size: 0x8, addend: 0x0, symName: '__ZN4core3ptr65drop_in_place$LT$alloc..vec..Vec$LT$proc_macro..TokenTree$GT$$GT$17hc3670dd5608d5259E.llvm.8444515518860579797', symObjAddr: 0x7FC0, symBinAddr: 0x5B180, symSize: 0x110 }
  - { offsetInCU: 0x3813F, offset: 0x2017F9, size: 0x8, addend: 0x0, symName: '__ZN4core3ptr65drop_in_place$LT$core..option..Option$LT$syn..expr..Label$GT$$GT$17ha723640fd01bec5dE', symObjAddr: 0x80D0, symBinAddr: 0x5B290, symSize: 0x30 }
  - { offsetInCU: 0x38279, offset: 0x201933, size: 0x8, addend: 0x0, symName: '__ZN4core3ptr65drop_in_place$LT$core..option..Option$LT$syn..path..QSelf$GT$$GT$17h213ca1c3399df9f2E', symObjAddr: 0x8100, symBinAddr: 0x5B2C0, symSize: 0x50 }
  - { offsetInCU: 0x38410, offset: 0x201ACA, size: 0x8, addend: 0x0, symName: '__ZN4core3ptr66drop_in_place$LT$core..option..Option$LT$syn..ty..Variadic$GT$$GT$17hc32134bb3933b0dfE', symObjAddr: 0x8150, symBinAddr: 0x5B310, symSize: 0xF0 }
  - { offsetInCU: 0x3873A, offset: 0x201DF4, size: 0x8, addend: 0x0, symName: '__ZN4core3ptr67drop_in_place$LT$alloc..boxed..Box$LT$syn..expr..FieldValue$GT$$GT$17h8df780aa600ea8c2E', symObjAddr: 0x8240, symBinAddr: 0x5B400, symSize: 0x160 }
  - { offsetInCU: 0x38CBC, offset: 0x202376, size: 0x8, addend: 0x0, symName: '__ZN4core3ptr68drop_in_place$LT$alloc..boxed..Box$LT$syn..path..PathSegment$GT$$GT$17h1957b54eed39c0bbE', symObjAddr: 0x83A0, symBinAddr: 0x5B560, symSize: 0x190 }
  - { offsetInCU: 0x393C6, offset: 0x202A80, size: 0x8, addend: 0x0, symName: '__ZN4core3ptr72drop_in_place$LT$alloc..boxed..Box$LT$syn..path..GenericArgument$GT$$GT$17ha8f8136d0c2b505bE', symObjAddr: 0x8530, symBinAddr: 0x5B6F0, symSize: 0x120 }
  - { offsetInCU: 0x3983E, offset: 0x202EF8, size: 0x8, addend: 0x0, symName: '__ZN4core3ptr72drop_in_place$LT$core..option..Option$LT$syn..lifetime..Lifetime$GT$$GT$17h31b55b93749c174dE', symObjAddr: 0x8650, symBinAddr: 0x5B810, symSize: 0x30 }
  - { offsetInCU: 0x39959, offset: 0x203013, size: 0x8, addend: 0x0, symName: '__ZN4core3ptr75drop_in_place$LT$alloc..boxed..Box$LT$syn..generics..TypeParamBound$GT$$GT$17h8f156ce07ea0b8b2E', symObjAddr: 0x8680, symBinAddr: 0x5B840, symSize: 0x90 }
  - { offsetInCU: 0x39C98, offset: 0x203352, size: 0x8, addend: 0x0, symName: '__ZN4core3ptr78drop_in_place$LT$core..option..Option$LT$syn..generics..BoundLifetimes$GT$$GT$17h8175e66ad0c4a156E', symObjAddr: 0x8730, symBinAddr: 0x5B8D0, symSize: 0xE0 }
  - { offsetInCU: 0x39FF6, offset: 0x2036B0, size: 0x8, addend: 0x0, symName: '__ZN4core3ptr86drop_in_place$LT$syn..punctuated..Punctuated$LT$syn..pat..Pat$C$syn..token..Or$GT$$GT$17h1078c5d178d382b7E', symObjAddr: 0x8810, symBinAddr: 0x5B9B0, symSize: 0x120 }
  - { offsetInCU: 0x3A471, offset: 0x203B2B, size: 0x8, addend: 0x0, symName: '__ZN4core3ptr87drop_in_place$LT$core..option..Option$LT$alloc..boxed..Box$LT$syn..pat..Pat$GT$$GT$$GT$17ha7f5fe0e6f73e820E', symObjAddr: 0x8930, symBinAddr: 0x5BAD0, symSize: 0x50 }
  - { offsetInCU: 0x3A5E1, offset: 0x203C9B, size: 0x8, addend: 0x0, symName: '__ZN4core3ptr87drop_in_place$LT$core..option..Option$LT$alloc..boxed..Box$LT$syn..ty..Type$GT$$GT$$GT$17hc8292da82d129de3E', symObjAddr: 0x8980, symBinAddr: 0x5BB20, symSize: 0x50 }
  - { offsetInCU: 0x3A751, offset: 0x203E0B, size: 0x8, addend: 0x0, symName: '__ZN4core3ptr88drop_in_place$LT$$LP$syn..token..Else$C$alloc..boxed..Box$LT$syn..expr..Expr$GT$$RP$$GT$17h7dd7c259e93fb46bE', symObjAddr: 0x89D0, symBinAddr: 0x5BB70, symSize: 0x50 }
  - { offsetInCU: 0x3A8C9, offset: 0x203F83, size: 0x8, addend: 0x0, symName: '__ZN4core3ptr89drop_in_place$LT$core..option..Option$LT$alloc..boxed..Box$LT$syn..expr..Expr$GT$$GT$$GT$17hdc211ccd33f196f2E', symObjAddr: 0x8A20, symBinAddr: 0x5BBC0, symSize: 0x50 }
  - { offsetInCU: 0x3AA39, offset: 0x2040F3, size: 0x8, addend: 0x0, symName: '__ZN4core3ptr89drop_in_place$LT$syn..punctuated..Punctuated$LT$syn..pat..Pat$C$syn..token..Comma$GT$$GT$17hf8371102b0500adcE', symObjAddr: 0x8A70, symBinAddr: 0x5BC10, symSize: 0x120 }
  - { offsetInCU: 0x3AEB8, offset: 0x204572, size: 0x8, addend: 0x0, symName: '__ZN4core3ptr89drop_in_place$LT$syn..punctuated..Punctuated$LT$syn..ty..Type$C$syn..token..Comma$GT$$GT$17h1c6e43341fabea97E', symObjAddr: 0x8B90, symBinAddr: 0x5BD30, symSize: 0x120 }
  - { offsetInCU: 0x3B333, offset: 0x2049ED, size: 0x8, addend: 0x0, symName: '__ZN4core3ptr91drop_in_place$LT$syn..punctuated..Punctuated$LT$syn..expr..Expr$C$syn..token..Comma$GT$$GT$17hd2dfeb0c522d9a18E', symObjAddr: 0x8CB0, symBinAddr: 0x5BE50, symSize: 0x120 }
  - { offsetInCU: 0x3B7AE, offset: 0x204E68, size: 0x8, addend: 0x0, symName: '__ZN4core3ptr94drop_in_place$LT$syn..punctuated..Punctuated$LT$syn..pat..FieldPat$C$syn..token..Comma$GT$$GT$17h612cbc9066d5afb1E', symObjAddr: 0x8DD0, symBinAddr: 0x5BF70, symSize: 0xF0 }
  - { offsetInCU: 0x3BAAD, offset: 0x205167, size: 0x8, addend: 0x0, symName: '__ZN4core3ptr94drop_in_place$LT$syn..punctuated..Punctuated$LT$syn..ty..BareFnArg$C$syn..token..Comma$GT$$GT$17ha9a668ce9972795bE', symObjAddr: 0x8EC0, symBinAddr: 0x5C060, symSize: 0xF0 }
  - { offsetInCU: 0x3BDAA, offset: 0x205464, size: 0x8, addend: 0x0, symName: '__ZN4core3ptr95drop_in_place$LT$core..option..Option$LT$$LP$proc_macro2..Ident$C$syn..token..Colon$RP$$GT$$GT$17h7314df562090eafdE', symObjAddr: 0x8FB0, symBinAddr: 0x5C150, symSize: 0x30 }
  - { offsetInCU: 0x3BEC5, offset: 0x20557F, size: 0x8, addend: 0x0, symName: '__ZN4core3ptr95drop_in_place$LT$core..option..Option$LT$alloc..boxed..Box$LT$syn..expr..FieldValue$GT$$GT$$GT$17hd0d57ae8c6b091c1E', symObjAddr: 0x8FE0, symBinAddr: 0x5C180, symSize: 0x50 }
  - { offsetInCU: 0x3C035, offset: 0x2056EF, size: 0x8, addend: 0x0, symName: '__ZN4core3ptr96drop_in_place$LT$core..option..Option$LT$alloc..boxed..Box$LT$syn..path..PathSegment$GT$$GT$$GT$17h2e81cbe3c70bb71cE', symObjAddr: 0x9030, symBinAddr: 0x5C1D0, symSize: 0x180 }
  - { offsetInCU: 0x3C6F2, offset: 0x205DAC, size: 0x8, addend: 0x0, symName: '__ZN4core3ptr97drop_in_place$LT$syn..punctuated..Punctuated$LT$syn..expr..FieldValue$C$syn..token..Comma$GT$$GT$17h11a5fffb46adfb11E', symObjAddr: 0x91B0, symBinAddr: 0x5C350, symSize: 0xF0 }
  - { offsetInCU: 0x3CA6B, offset: 0x206125, size: 0x8, addend: 0x0, symName: '__ZN4core3ptr97drop_in_place$LT$syn..punctuated..Punctuated$LT$syn..lifetime..Lifetime$C$syn..token..Add$GT$$GT$17h5c54dea2c838d109E', symObjAddr: 0x92A0, symBinAddr: 0x5C440, symSize: 0xD0 }
  - { offsetInCU: 0x3CEDF, offset: 0x206599, size: 0x8, addend: 0x0, symName: '__ZN4core3ptr99drop_in_place$LT$syn..punctuated..Punctuated$LT$syn..path..PathSegment$C$syn..token..Colon2$GT$$GT$17hb961e4d7989a33ceE', symObjAddr: 0x9370, symBinAddr: 0x5C510, symSize: 0x250 }
  - { offsetInCU: 0x431F5, offset: 0x20C8AF, size: 0x8, addend: 0x0, symName: __ZN5alloc5alloc15exchange_malloc17h9a87608d0224859dE, symObjAddr: 0x9610, symBinAddr: 0x5C760, symSize: 0x40 }
  - { offsetInCU: 0x472FC, offset: 0x2109B6, size: 0x8, addend: 0x0, symName: __ZN3syn4expr4Expr13replace_attrs17h45273f69f34fc620E, symObjAddr: 0x9E60, symBinAddr: 0x5C7A0, symSize: 0x210 }
  - { offsetInCU: 0x142F, offset: 0x21D838, size: 0x8, addend: 0x0, symName: '__ZN4core3ptr100drop_in_place$LT$core..option..Option$LT$alloc..boxed..Box$LT$syn..generics..LifetimeDef$GT$$GT$$GT$17h75a6086997697dd7E.llvm.2919429348807089406', symObjAddr: 0x560, symBinAddr: 0x663D0, symSize: 0x50 }
  - { offsetInCU: 0x15BE, offset: 0x21D9C7, size: 0x8, addend: 0x0, symName: '__ZN4core3ptr100drop_in_place$LT$core..option..Option$LT$alloc..boxed..Box$LT$syn..path..GenericArgument$GT$$GT$$GT$17h3d29ec00a8f1918dE', symObjAddr: 0x5B0, symBinAddr: 0x66420, symSize: 0x50 }
  - { offsetInCU: 0x17AA, offset: 0x21DBB3, size: 0x8, addend: 0x0, symName: '__ZN4core3ptr101drop_in_place$LT$core..option..Option$LT$alloc..boxed..Box$LT$syn..generics..GenericParam$GT$$GT$$GT$17h1fee4f1c7bd902c4E', symObjAddr: 0x6D0, symBinAddr: 0x66470, symSize: 0x50 }
  - { offsetInCU: 0x1996, offset: 0x21DD9F, size: 0x8, addend: 0x0, symName: '__ZN4core3ptr102drop_in_place$LT$syn..punctuated..Punctuated$LT$syn..generics..LifetimeDef$C$syn..token..Comma$GT$$GT$17h6013ea99e87d4528E.llvm.2919429348807089406', symObjAddr: 0x720, symBinAddr: 0x664C0, symSize: 0xF0 }
  - { offsetInCU: 0x1D14, offset: 0x21E11D, size: 0x8, addend: 0x0, symName: '__ZN4core3ptr102drop_in_place$LT$syn..punctuated..Punctuated$LT$syn..path..GenericArgument$C$syn..token..Comma$GT$$GT$17h4b445f97c5aefb0eE.llvm.2919429348807089406', symObjAddr: 0x810, symBinAddr: 0x665B0, symSize: 0xF0 }
  - { offsetInCU: 0x214E, offset: 0x21E557, size: 0x8, addend: 0x0, symName: '__ZN4core3ptr103drop_in_place$LT$core..option..Option$LT$alloc..boxed..Box$LT$syn..generics..TypeParamBound$GT$$GT$$GT$17h6cee73bc2b2ecea8E', symObjAddr: 0x900, symBinAddr: 0x666A0, symSize: 0xA0 }
  - { offsetInCU: 0x243D, offset: 0x21E846, size: 0x8, addend: 0x0, symName: '__ZN4core3ptr103drop_in_place$LT$core..option..Option$LT$alloc..boxed..Box$LT$syn..generics..WherePredicate$GT$$GT$$GT$17headad361972eced7E', symObjAddr: 0x9A0, symBinAddr: 0x66740, symSize: 0x50 }
  - { offsetInCU: 0x2667, offset: 0x21EA70, size: 0x8, addend: 0x0, symName: '__ZN4core3ptr103drop_in_place$LT$syn..punctuated..Punctuated$LT$syn..generics..GenericParam$C$syn..token..Comma$GT$$GT$17hae00367f0c570156E', symObjAddr: 0x9F0, symBinAddr: 0x66790, symSize: 0x1A0 }
  - { offsetInCU: 0x2BF6, offset: 0x21EFFF, size: 0x8, addend: 0x0, symName: '__ZN4core3ptr103drop_in_place$LT$syn..punctuated..Punctuated$LT$syn..generics..TypeParamBound$C$syn..token..Add$GT$$GT$17he811d520c92af08aE', symObjAddr: 0xB90, symBinAddr: 0x66930, symSize: 0x290 }
  - { offsetInCU: 0x38E7, offset: 0x21FCF0, size: 0x8, addend: 0x0, symName: '__ZN4core3ptr105drop_in_place$LT$syn..punctuated..Punctuated$LT$syn..generics..WherePredicate$C$syn..token..Comma$GT$$GT$17h53c71b5d1c98483dE', symObjAddr: 0xF10, symBinAddr: 0x66BC0, symSize: 0x1A0 }
  - { offsetInCU: 0x3EE1, offset: 0x2202EA, size: 0x8, addend: 0x0, symName: '__ZN4core3ptr108drop_in_place$LT$syn..punctuated..Punctuated$LT$syn..expr..GenericMethodArgument$C$syn..token..Comma$GT$$GT$17h92cbabe4862b2183E', symObjAddr: 0x10B0, symBinAddr: 0x66D60, symSize: 0x150 }
  - { offsetInCU: 0x4403, offset: 0x22080C, size: 0x8, addend: 0x0, symName: '__ZN4core3ptr1247drop_in_place$LT$core..iter..adapters..flatten..Flatten$LT$core..iter..adapters..map..Map$LT$core..iter..adapters..map..Map$LT$core..iter..adapters..map..Map$LT$core..slice..iter..Iter$LT$syn..error..ErrorMessage$GT$$C$syn..error..ErrorMessage..to_compile_error$GT$$C$$LT$proc_macro2..TokenStream$u20$as$u20$core..iter..traits..collect..FromIterator$LT$proc_macro2..TokenStream$GT$$GT$..from_iter$LT$core..iter..adapters..map..Map$LT$core..slice..iter..Iter$LT$syn..error..ErrorMessage$GT$$C$syn..error..ErrorMessage..to_compile_error$GT$$GT$..$u7b$$u7b$closure$u7d$$u7d$$GT$$C$$LT$proc_macro2..imp..TokenStream$u20$as$u20$core..iter..traits..collect..FromIterator$LT$proc_macro2..imp..TokenStream$GT$$GT$..from_iter$LT$core..iter..adapters..map..Map$LT$core..iter..adapters..map..Map$LT$core..slice..iter..Iter$LT$syn..error..ErrorMessage$GT$$C$syn..error..ErrorMessage..to_compile_error$GT$$C$$LT$proc_macro2..TokenStream$u20$as$u20$core..iter..traits..collect..FromIterator$LT$proc_macro2..TokenStream$GT$$GT$..from_iter$LT$core..iter..adapters..map..Map$LT$core..slice..iter..Iter$LT$syn..error..ErrorMessage$GT$$C$syn..error..ErrorMessage..to_compile_error$GT$$GT$..$u7b$$u7b$closure$u7d$$u7d$$GT$$GT$..$u7b$$u7b$closure$u7d$$u7d$$GT$$GT$$GT$17he27900d9b890586cE', symObjAddr: 0x1200, symBinAddr: 0x66EB0, symSize: 0x60 }
  - { offsetInCU: 0x4587, offset: 0x220990, size: 0x8, addend: 0x0, symName: '__ZN4core3ptr126drop_in_place$LT$core..option..Option$LT$$LP$syn..token..And$C$core..option..Option$LT$syn..lifetime..Lifetime$GT$$RP$$GT$$GT$17h5979d670cb45416cE', symObjAddr: 0x1260, symBinAddr: 0x66F10, symSize: 0x30 }
  - { offsetInCU: 0x4816, offset: 0x220C1F, size: 0x8, addend: 0x0, symName: '__ZN4core3ptr33drop_in_place$LT$syn..ty..Abi$GT$17h723a10e1a0acbd58E', symObjAddr: 0x1290, symBinAddr: 0x66F40, symSize: 0x70 }
  - { offsetInCU: 0x4832, offset: 0x220C3B, size: 0x8, addend: 0x0, symName: '__ZN4core3ptr33drop_in_place$LT$syn..ty..Abi$GT$17h723a10e1a0acbd58E', symObjAddr: 0x1290, symBinAddr: 0x66F40, symSize: 0x70 }
  - { offsetInCU: 0x4B0A, offset: 0x220F13, size: 0x8, addend: 0x0, symName: '__ZN4core3ptr34drop_in_place$LT$syn..lit..Lit$GT$17hbe1efe749a08dd9aE.llvm.2919429348807089406', symObjAddr: 0x1300, symBinAddr: 0x66FB0, symSize: 0x120 }
  - { offsetInCU: 0x5005, offset: 0x22140E, size: 0x8, addend: 0x0, symName: '__ZN4core3ptr34drop_in_place$LT$syn..pat..Pat$GT$17h3201f642e43ac2a2E.llvm.2919429348807089406', symObjAddr: 0x1420, symBinAddr: 0x670D0, symSize: 0x930 }
  - { offsetInCU: 0x8051, offset: 0x22445A, size: 0x8, addend: 0x0, symName: '__ZN4core3ptr34drop_in_place$LT$syn..ty..Type$GT$17hfb5d159a08190130E.llvm.2919429348807089406', symObjAddr: 0x1D50, symBinAddr: 0x67A00, symSize: 0x380 }
  - { offsetInCU: 0x8C37, offset: 0x225040, size: 0x8, addend: 0x0, symName: '__ZN4core3ptr35drop_in_place$LT$syn..expr..Arm$GT$17h2f058dcaecfc86d5E.llvm.2919429348807089406', symObjAddr: 0x20D0, symBinAddr: 0x67D80, symSize: 0x1A0 }
  - { offsetInCU: 0x988D, offset: 0x225C96, size: 0x8, addend: 0x0, symName: '__ZN4core3ptr36drop_in_place$LT$syn..expr..Expr$GT$17hf1921d1b09462bc3E.llvm.2919429348807089406', symObjAddr: 0x2270, symBinAddr: 0x67F20, symSize: 0x1E10 }
  - { offsetInCU: 0x135DE, offset: 0x22F9E7, size: 0x8, addend: 0x0, symName: '__ZN4core3ptr36drop_in_place$LT$syn..item..Item$GT$17hf1fe4e69bb0a9b43E.llvm.2919429348807089406', symObjAddr: 0x4080, symBinAddr: 0x69D30, symSize: 0x1650 }
  - { offsetInCU: 0x19F6B, offset: 0x236374, size: 0x8, addend: 0x0, symName: '__ZN4core3ptr36drop_in_place$LT$syn..path..Path$GT$17he6d0bec66d66b98aE.llvm.2919429348807089406', symObjAddr: 0x56D0, symBinAddr: 0x6B380, symSize: 0x150 }
  - { offsetInCU: 0x1A52B, offset: 0x236934, size: 0x8, addend: 0x0, symName: '__ZN4core3ptr36drop_in_place$LT$syn..stmt..Stmt$GT$17h1cbf7c4dce3085eaE.llvm.2919429348807089406', symObjAddr: 0x5820, symBinAddr: 0x6B4D0, symSize: 0x140 }
  - { offsetInCU: 0x1A9BD, offset: 0x236DC6, size: 0x8, addend: 0x0, symName: '__ZN4core3ptr37drop_in_place$LT$syn..data..Field$GT$17h6bfcb460cfa4c863E.llvm.2919429348807089406', symObjAddr: 0x5960, symBinAddr: 0x6B610, symSize: 0x1B0 }
  - { offsetInCU: 0x1AFB7, offset: 0x2373C0, size: 0x8, addend: 0x0, symName: '__ZN4core3ptr37drop_in_place$LT$syn..item..FnArg$GT$17h52a13b3505938de2E.llvm.2919429348807089406', symObjAddr: 0x5B10, symBinAddr: 0x6B7C0, symSize: 0x190 }
  - { offsetInCU: 0x1B959, offset: 0x237D62, size: 0x8, addend: 0x0, symName: '__ZN4core3ptr37drop_in_place$LT$syn..stmt..Block$GT$17h3aa429e75a234230E', symObjAddr: 0x5CA0, symBinAddr: 0x6B950, symSize: 0xD0 }
  - { offsetInCU: 0x1BC37, offset: 0x238040, size: 0x8, addend: 0x0, symName: '__ZN4core3ptr38drop_in_place$LT$syn..expr..Member$GT$17ha113d37a67d27aafE.llvm.2919429348807089406', symObjAddr: 0x5D70, symBinAddr: 0x6BA20, symSize: 0x30 }
  - { offsetInCU: 0x1BD33, offset: 0x23813C, size: 0x8, addend: 0x0, symName: '__ZN4core3ptr38drop_in_place$LT$syn..pat..PatType$GT$17h833e3c7992399b01E.llvm.2919429348807089406', symObjAddr: 0x5DA0, symBinAddr: 0x6BA50, symSize: 0x160 }
  - { offsetInCU: 0x1C2EB, offset: 0x2386F4, size: 0x8, addend: 0x0, symName: '__ZN4core3ptr38drop_in_place$LT$syn..ty..Variadic$GT$17h354585068960ea23E', symObjAddr: 0x5F00, symBinAddr: 0x6BBB0, symSize: 0xF0 }
  - { offsetInCU: 0x1C5FF, offset: 0x238A08, size: 0x8, addend: 0x0, symName: '__ZN4core3ptr39drop_in_place$LT$proc_macro2..Ident$GT$17hdeec010483268a0dE', symObjAddr: 0x5FF0, symBinAddr: 0x6BCA0, symSize: 0x30 }
  - { offsetInCU: 0x1C812, offset: 0x238C1B, size: 0x8, addend: 0x0, symName: '__ZN4core3ptr39drop_in_place$LT$syn..buffer..Entry$GT$17hefeddf49a31e1f79E.llvm.2919429348807089406', symObjAddr: 0x6020, symBinAddr: 0x6BCD0, symSize: 0xB0 }
  - { offsetInCU: 0x1CBFA, offset: 0x239003, size: 0x8, addend: 0x0, symName: '__ZN4core3ptr39drop_in_place$LT$syn..data..Variant$GT$17hdf59a2045a52b17cE.llvm.2919429348807089406', symObjAddr: 0x60D0, symBinAddr: 0x6BD80, symSize: 0x330 }
  - { offsetInCU: 0x1D8A3, offset: 0x239CAC, size: 0x8, addend: 0x0, symName: '__ZN4core3ptr39drop_in_place$LT$syn..item..UseTree$GT$17h78d4ed19b48b8cbfE.llvm.2919429348807089406', symObjAddr: 0x6400, symBinAddr: 0x6C0B0, symSize: 0x1F0 }
  - { offsetInCU: 0x1E07B, offset: 0x23A484, size: 0x8, addend: 0x0, symName: '__ZN4core3ptr39drop_in_place$LT$syn..pat..PatTuple$GT$17h96faeea9832d4c4bE', symObjAddr: 0x65F0, symBinAddr: 0x6C2A0, symSize: 0x1F0 }
  - { offsetInCU: 0x1E800, offset: 0x23AC09, size: 0x8, addend: 0x0, symName: '__ZN4core3ptr40drop_in_place$LT$syn..item..Receiver$GT$17hc8a432a931462f79E.llvm.2919429348807089406', symObjAddr: 0x6920, symBinAddr: 0x6C490, symSize: 0x140 }
  - { offsetInCU: 0x1EC8E, offset: 0x23B097, size: 0x8, addend: 0x0, symName: '__ZN4core3ptr40drop_in_place$LT$syn..ty..ReturnType$GT$17h6f97c9fdb958983eE.llvm.2919429348807089406', symObjAddr: 0x6A60, symBinAddr: 0x6C5D0, symSize: 0x50 }
  - { offsetInCU: 0x1EDFE, offset: 0x23B207, size: 0x8, addend: 0x0, symName: '__ZN4core3ptr41drop_in_place$LT$syn..attr..Attribute$GT$17h01ed88f7d2878bfcE.llvm.2919429348807089406', symObjAddr: 0x6AB0, symBinAddr: 0x6C620, symSize: 0x40 }
  - { offsetInCU: 0x1EF6E, offset: 0x23B377, size: 0x8, addend: 0x0, symName: '__ZN4core3ptr41drop_in_place$LT$syn..item..Signature$GT$17hd57cfba25994ce69E', symObjAddr: 0x6AF0, symBinAddr: 0x6C660, symSize: 0x330 }
  - { offsetInCU: 0x1FD40, offset: 0x23C149, size: 0x8, addend: 0x0, symName: '__ZN4core3ptr43drop_in_place$LT$proc_macro2..TokenTree$GT$17h7270f34cee6d919dE.llvm.2919429348807089406', symObjAddr: 0x6F40, symBinAddr: 0x6C990, symSize: 0xB0 }
  - { offsetInCU: 0x2009B, offset: 0x23C4A4, size: 0x8, addend: 0x0, symName: '__ZN4core3ptr43drop_in_place$LT$syn..data..FieldsNamed$GT$17h73293dd81bcfeab6E', symObjAddr: 0x6FF0, symBinAddr: 0x6CA40, symSize: 0x120 }
  - { offsetInCU: 0x20599, offset: 0x23C9A2, size: 0x8, addend: 0x0, symName: '__ZN4core3ptr43drop_in_place$LT$syn..path..PathSegment$GT$17h3d0f44137dd31bf9E.llvm.2919429348807089406', symObjAddr: 0x7110, symBinAddr: 0x6CB60, symSize: 0x170 }
  - { offsetInCU: 0x20B74, offset: 0x23CF7D, size: 0x8, addend: 0x0, symName: '__ZN4core3ptr44drop_in_place$LT$syn..generics..Generics$GT$17he0d6eb6045503c84E', symObjAddr: 0x7280, symBinAddr: 0x6CCD0, symSize: 0x230 }
  - { offsetInCU: 0x214B1, offset: 0x23D8BA, size: 0x8, addend: 0x0, symName: '__ZN4core3ptr44drop_in_place$LT$syn..item..ImplItemType$GT$17hfa117ac59836f12aE', symObjAddr: 0x74B0, symBinAddr: 0x6CF00, symSize: 0x200 }
  - { offsetInCU: 0x21ACE, offset: 0x23DED7, size: 0x8, addend: 0x0, symName: '__ZN4core3ptr44drop_in_place$LT$syn..lifetime..Lifetime$GT$17h3858225df033648aE.llvm.2919429348807089406', symObjAddr: 0x76B0, symBinAddr: 0x6D100, symSize: 0x30 }
  - { offsetInCU: 0x21C27, offset: 0x23E030, size: 0x8, addend: 0x0, symName: '__ZN4core3ptr45drop_in_place$LT$proc_macro2..TokenStream$GT$17h2507cb30e765dc85E.llvm.2919429348807089406', symObjAddr: 0x76E0, symBinAddr: 0x6D130, symSize: 0x70 }
  - { offsetInCU: 0x21D5C, offset: 0x23E165, size: 0x8, addend: 0x0, symName: '__ZN4core3ptr45drop_in_place$LT$syn..data..VisRestricted$GT$17hcb973457cb67885aE', symObjAddr: 0x7750, symBinAddr: 0x6D1A0, symSize: 0xA0 }
  - { offsetInCU: 0x220A4, offset: 0x23E4AD, size: 0x8, addend: 0x0, symName: '__ZN4core3ptr45drop_in_place$LT$syn..generics..TypeParam$GT$17h2de9c744cc1fcd2cE.llvm.2919429348807089406', symObjAddr: 0x77F0, symBinAddr: 0x6D240, symSize: 0x200 }
  - { offsetInCU: 0x228FB, offset: 0x23ED04, size: 0x8, addend: 0x0, symName: '__ZN4core3ptr45drop_in_place$LT$syn..item..ImplItemConst$GT$17hcd481022683c9056E', symObjAddr: 0x79F0, symBinAddr: 0x6D440, symSize: 0x1D0 }
  - { offsetInCU: 0x22ED5, offset: 0x23F2DE, size: 0x8, addend: 0x0, symName: '__ZN4core3ptr45drop_in_place$LT$syn..item..TraitItemType$GT$17hff73dc4d6b73b6f1E', symObjAddr: 0x7BC0, symBinAddr: 0x6D610, symSize: 0x280 }
  - { offsetInCU: 0x23805, offset: 0x23FC0E, size: 0x8, addend: 0x0, symName: '__ZN4core3ptr45drop_in_place$LT$syn..path..PathArguments$GT$17h9dd953520dcdc907E.llvm.2919429348807089406', symObjAddr: 0x7E40, symBinAddr: 0x6D890, symSize: 0xA0 }
  - { offsetInCU: 0x239D6, offset: 0x23FDDF, size: 0x8, addend: 0x0, symName: '__ZN4core3ptr46drop_in_place$LT$syn..generics..ConstParam$GT$17hcae189adf84ad8c9E.llvm.2919429348807089406', symObjAddr: 0x7EE0, symBinAddr: 0x6D930, symSize: 0x180 }
  - { offsetInCU: 0x23E0E, offset: 0x240217, size: 0x8, addend: 0x0, symName: '__ZN4core3ptr46drop_in_place$LT$syn..item..ImplItemMethod$GT$17h81d5acf604d84d52E', symObjAddr: 0x8060, symBinAddr: 0x6DAB0, symSize: 0x240 }
  - { offsetInCU: 0x2458C, offset: 0x240995, size: 0x8, addend: 0x0, symName: '__ZN4core3ptr46drop_in_place$LT$syn..item..TraitItemConst$GT$17ha3f3e5595f870971E', symObjAddr: 0x82A0, symBinAddr: 0x6DCF0, symSize: 0x180 }
  - { offsetInCU: 0x249F6, offset: 0x240DFF, size: 0x8, addend: 0x0, symName: '__ZN4core3ptr47drop_in_place$LT$syn..generics..LifetimeDef$GT$17hd04bc9e6ed9dfb47E.llvm.2919429348807089406', symObjAddr: 0x8420, symBinAddr: 0x6DE70, symSize: 0x140 }
  - { offsetInCU: 0x24E2A, offset: 0x241233, size: 0x8, addend: 0x0, symName: '__ZN4core3ptr47drop_in_place$LT$syn..generics..WhereClause$GT$17hb4cbc6f597fb20f3E', symObjAddr: 0x8560, symBinAddr: 0x6DFB0, symSize: 0x120 }
  - { offsetInCU: 0x252EA, offset: 0x2416F3, size: 0x8, addend: 0x0, symName: '__ZN4core3ptr47drop_in_place$LT$syn..path..GenericArgument$GT$17h8c0a0d8c6deaefb4E.llvm.2919429348807089406', symObjAddr: 0x8680, symBinAddr: 0x6E0D0, symSize: 0x110 }
  - { offsetInCU: 0x25624, offset: 0x241A2D, size: 0x8, addend: 0x0, symName: '__ZN4core3ptr48drop_in_place$LT$syn..generics..GenericParam$GT$17h9292481f35bf25edE.llvm.2919429348807089406', symObjAddr: 0x8790, symBinAddr: 0x6E1E0, symSize: 0xF0 }
  - { offsetInCU: 0x25A09, offset: 0x241E12, size: 0x8, addend: 0x0, symName: '__ZN4core3ptr49drop_in_place$LT$syn..generics..PredicateType$GT$17h1613bfd7dd5d96f2E.llvm.2919429348807089406', symObjAddr: 0x8880, symBinAddr: 0x6E2D0, symSize: 0x1E0 }
  - { offsetInCU: 0x262C4, offset: 0x2426CD, size: 0x8, addend: 0x0, symName: '__ZN4core3ptr49drop_in_place$LT$syn..item..ForeignItemStatic$GT$17hfe9f44f9dab5bcd1E', symObjAddr: 0x8A60, symBinAddr: 0x6E4B0, symSize: 0x1D0 }
  - { offsetInCU: 0x26B61, offset: 0x242F6A, size: 0x8, addend: 0x0, symName: '__ZN4core3ptr50drop_in_place$LT$$u5b$syn..item..ImplItem$u5d$$GT$17h234f53b7b0028fc3E.llvm.2919429348807089406', symObjAddr: 0x8C30, symBinAddr: 0x6E680, symSize: 0x900 }
  - { offsetInCU: 0x28314, offset: 0x24471D, size: 0x8, addend: 0x0, symName: '__ZN4core3ptr50drop_in_place$LT$syn..generics..BoundLifetimes$GT$17hff8599a8d1e3c70cE.llvm.2919429348807089406', symObjAddr: 0x9530, symBinAddr: 0x6EF80, symSize: 0x110 }
  - { offsetInCU: 0x28794, offset: 0x244B9D, size: 0x8, addend: 0x0, symName: '__ZN4core3ptr50drop_in_place$LT$syn..generics..TypeParamBound$GT$17h8d9a306b4a7f920fE.llvm.2919429348807089406', symObjAddr: 0x9640, symBinAddr: 0x6F090, symSize: 0xD0 }
  - { offsetInCU: 0x28AA2, offset: 0x244EAB, size: 0x8, addend: 0x0, symName: '__ZN4core3ptr50drop_in_place$LT$syn..generics..WherePredicate$GT$17h1fc5b3da95266304E.llvm.2919429348807089406', symObjAddr: 0x9710, symBinAddr: 0x6F160, symSize: 0x110 }
  - { offsetInCU: 0x28C42, offset: 0x24504B, size: 0x8, addend: 0x0, symName: '__ZN4core3ptr51drop_in_place$LT$$u5b$syn..attr..Attribute$u5d$$GT$17h98bc8e7c97002f1bE.llvm.2919429348807089406', symObjAddr: 0x9820, symBinAddr: 0x6F270, symSize: 0xE0 }
  - { offsetInCU: 0x28E57, offset: 0x245260, size: 0x8, addend: 0x0, symName: '__ZN4core3ptr51drop_in_place$LT$$u5b$syn..item..TraitItem$u5d$$GT$17h6f6b1abc16bc25ccE.llvm.2919429348807089406', symObjAddr: 0x9900, symBinAddr: 0x6F350, symSize: 0x1100 }
  - { offsetInCU: 0x2C3EB, offset: 0x2487F4, size: 0x8, addend: 0x0, symName: '__ZN4core3ptr53drop_in_place$LT$$u5b$syn..item..ForeignItem$u5d$$GT$17ha5d8369d024c9578E.llvm.2919429348807089406', symObjAddr: 0xAA00, symBinAddr: 0x70450, symSize: 0x1880 }
  - { offsetInCU: 0x31465, offset: 0x24D86E, size: 0x8, addend: 0x0, symName: '__ZN4core3ptr58drop_in_place$LT$alloc..vec..Vec$LT$syn..expr..Arm$GT$$GT$17hf3db0825f3d9c861E.llvm.2919429348807089406', symObjAddr: 0xC2A0, symBinAddr: 0x71CD0, symSize: 0xD0 }
  - { offsetInCU: 0x3172C, offset: 0x24DB35, size: 0x8, addend: 0x0, symName: '__ZN4core3ptr59drop_in_place$LT$alloc..boxed..Box$LT$syn..pat..Pat$GT$$GT$17h7037ce9bbd3729c6E.llvm.2919429348807089406', symObjAddr: 0xC370, symBinAddr: 0x71DA0, symSize: 0x50 }
  - { offsetInCU: 0x31885, offset: 0x24DC8E, size: 0x8, addend: 0x0, symName: '__ZN4core3ptr59drop_in_place$LT$alloc..boxed..Box$LT$syn..ty..Type$GT$$GT$17h2eccd13329dbe4faE.llvm.2919429348807089406', symObjAddr: 0xC3C0, symBinAddr: 0x71DF0, symSize: 0x50 }
  - { offsetInCU: 0x319DE, offset: 0x24DDE7, size: 0x8, addend: 0x0, symName: '__ZN4core3ptr59drop_in_place$LT$alloc..vec..Vec$LT$syn..item..Item$GT$$GT$17h544d8e20d05b2f97E.llvm.2919429348807089406', symObjAddr: 0xC410, symBinAddr: 0x71E40, symSize: 0xD0 }
  - { offsetInCU: 0x31CA5, offset: 0x24E0AE, size: 0x8, addend: 0x0, symName: '__ZN4core3ptr61drop_in_place$LT$alloc..boxed..Box$LT$syn..expr..Expr$GT$$GT$17h66094ddc89015516E.llvm.2919429348807089406', symObjAddr: 0xC5B0, symBinAddr: 0x71F10, symSize: 0x50 }
  - { offsetInCU: 0x31DFE, offset: 0x24E207, size: 0x8, addend: 0x0, symName: '__ZN4core3ptr61drop_in_place$LT$alloc..boxed..Box$LT$syn..path..Path$GT$$GT$17h2d3525cb73f7a6b0E', symObjAddr: 0xC600, symBinAddr: 0x71F60, symSize: 0x50 }
  - { offsetInCU: 0x31F74, offset: 0x24E37D, size: 0x8, addend: 0x0, symName: '__ZN4core3ptr61drop_in_place$LT$syn..path..ParenthesizedGenericArguments$GT$17h21be9b1d7a6fab55E', symObjAddr: 0xC650, symBinAddr: 0x71FB0, symSize: 0x170 }
  - { offsetInCU: 0x32571, offset: 0x24E97A, size: 0x8, addend: 0x0, symName: '__ZN4core3ptr62drop_in_place$LT$alloc..boxed..Box$LT$syn..data..Field$GT$$GT$17h262ebccfc4519882E', symObjAddr: 0xC7C0, symBinAddr: 0x72120, symSize: 0x50 }
  - { offsetInCU: 0x326E9, offset: 0x24EAF2, size: 0x8, addend: 0x0, symName: '__ZN4core3ptr62drop_in_place$LT$alloc..boxed..Box$LT$syn..item..FnArg$GT$$GT$17h0b51ffa358d2119aE', symObjAddr: 0xC810, symBinAddr: 0x72170, symSize: 0x60 }
  - { offsetInCU: 0x3285F, offset: 0x24EC68, size: 0x8, addend: 0x0, symName: '__ZN4core3ptr62drop_in_place$LT$alloc..boxed..Box$LT$syn..stmt..Block$GT$$GT$17h0633c21446a415f4E', symObjAddr: 0xC870, symBinAddr: 0x721D0, symSize: 0xE0 }
  - { offsetInCU: 0x32CB6, offset: 0x24F0BF, size: 0x8, addend: 0x0, symName: '__ZN4core3ptr62drop_in_place$LT$alloc..vec..Vec$LT$syn..buffer..Entry$GT$$GT$17hd4c03db647ab81bdE.llvm.2919429348807089406', symObjAddr: 0xC950, symBinAddr: 0x722B0, symSize: 0xC0 }
  - { offsetInCU: 0x32F8E, offset: 0x24F397, size: 0x8, addend: 0x0, symName: '__ZN4core3ptr63drop_in_place$LT$alloc..vec..Vec$LT$syn..item..ImplItem$GT$$GT$17ha4d5b54edb0d5cb7E.llvm.2919429348807089406', symObjAddr: 0xCA10, symBinAddr: 0x72370, symSize: 0x80 }
  - { offsetInCU: 0x33246, offset: 0x24F64F, size: 0x8, addend: 0x0, symName: '__ZN4core3ptr64drop_in_place$LT$alloc..boxed..Box$LT$syn..data..Variant$GT$$GT$17hc82ad80f9b8d8bfeE', symObjAddr: 0xCA90, symBinAddr: 0x723F0, symSize: 0x50 }
  - { offsetInCU: 0x3339F, offset: 0x24F7A8, size: 0x8, addend: 0x0, symName: '__ZN4core3ptr64drop_in_place$LT$alloc..boxed..Box$LT$syn..item..UseTree$GT$$GT$17h2fbb30105f88b737E', symObjAddr: 0xCAE0, symBinAddr: 0x72440, symSize: 0x50 }
  - { offsetInCU: 0x33536, offset: 0x24F93F, size: 0x8, addend: 0x0, symName: '__ZN4core3ptr64drop_in_place$LT$alloc..boxed..Box$LT$syn..pat..FieldPat$GT$$GT$17hb167b355d0d4733fE', symObjAddr: 0xCB30, symBinAddr: 0x72490, symSize: 0x100 }
  - { offsetInCU: 0x33BFB, offset: 0x250004, size: 0x8, addend: 0x0, symName: '__ZN4core3ptr64drop_in_place$LT$alloc..boxed..Box$LT$syn..ty..BareFnArg$GT$$GT$17h6488be9448346678E', symObjAddr: 0xCC30, symBinAddr: 0x72590, symSize: 0xE0 }
  - { offsetInCU: 0x34139, offset: 0x250542, size: 0x8, addend: 0x0, symName: '__ZN4core3ptr64drop_in_place$LT$alloc..vec..Vec$LT$syn..attr..Attribute$GT$$GT$17h386324d8ea9bc309E.llvm.2919429348807089406', symObjAddr: 0xCD10, symBinAddr: 0x72670, symSize: 0xF0 }
  - { offsetInCU: 0x34419, offset: 0x250822, size: 0x8, addend: 0x0, symName: '__ZN4core3ptr64drop_in_place$LT$alloc..vec..Vec$LT$syn..item..TraitItem$GT$$GT$17h0ef3c4b7ce592e9eE.llvm.2919429348807089406', symObjAddr: 0xCE00, symBinAddr: 0x72760, symSize: 0x80 }
  - { offsetInCU: 0x346D1, offset: 0x250ADA, size: 0x8, addend: 0x0, symName: '__ZN4core3ptr65drop_in_place$LT$$LP$syn..item..FnArg$C$syn..token..Comma$RP$$GT$17h36dd53979a5809e4E.llvm.2919429348807089406', symObjAddr: 0xCE80, symBinAddr: 0x727E0, symSize: 0x20 }
  - { offsetInCU: 0x3470D, offset: 0x250B16, size: 0x8, addend: 0x0, symName: '__ZN4core3ptr65drop_in_place$LT$alloc..vec..Vec$LT$proc_macro..TokenTree$GT$$GT$17hc3670dd5608d5259E.llvm.2919429348807089406', symObjAddr: 0xCEA0, symBinAddr: 0x72800, symSize: 0x110 }
  - { offsetInCU: 0x34B0C, offset: 0x250F15, size: 0x8, addend: 0x0, symName: '__ZN4core3ptr65drop_in_place$LT$core..option..Option$LT$syn..expr..Label$GT$$GT$17ha723640fd01bec5dE', symObjAddr: 0xD070, symBinAddr: 0x72910, symSize: 0x30 }
  - { offsetInCU: 0x34C46, offset: 0x25104F, size: 0x8, addend: 0x0, symName: '__ZN4core3ptr65drop_in_place$LT$core..option..Option$LT$syn..stmt..Block$GT$$GT$17hdff81fd7cb2986caE', symObjAddr: 0xD0A0, symBinAddr: 0x72940, symSize: 0xD0 }
  - { offsetInCU: 0x34F59, offset: 0x251362, size: 0x8, addend: 0x0, symName: '__ZN4core3ptr66drop_in_place$LT$alloc..vec..Vec$LT$proc_macro2..TokenTree$GT$$GT$17h10186b8404a77a46E', symObjAddr: 0xD170, symBinAddr: 0x72A10, symSize: 0xC0 }
  - { offsetInCU: 0x35231, offset: 0x25163A, size: 0x8, addend: 0x0, symName: '__ZN4core3ptr66drop_in_place$LT$alloc..vec..Vec$LT$syn..item..ForeignItem$GT$$GT$17hc5d281d65e9f4398E.llvm.2919429348807089406', symObjAddr: 0xD230, symBinAddr: 0x72AD0, symSize: 0x80 }
  - { offsetInCU: 0x354E9, offset: 0x2518F2, size: 0x8, addend: 0x0, symName: '__ZN4core3ptr67drop_in_place$LT$$LP$syn..pat..FieldPat$C$syn..token..Comma$RP$$GT$17h28f8e87199173f9eE.llvm.2919429348807089406', symObjAddr: 0xD2B0, symBinAddr: 0x72B50, symSize: 0xF0 }
  - { offsetInCU: 0x35A3B, offset: 0x251E44, size: 0x8, addend: 0x0, symName: '__ZN4core3ptr67drop_in_place$LT$$LP$syn..ty..BareFnArg$C$syn..token..Comma$RP$$GT$17h9078c1a50219df0bE.llvm.2919429348807089406', symObjAddr: 0xD3A0, symBinAddr: 0x72C40, symSize: 0xD0 }
  - { offsetInCU: 0x35E74, offset: 0x25227D, size: 0x8, addend: 0x0, symName: '__ZN4core3ptr67drop_in_place$LT$alloc..boxed..Box$LT$syn..expr..FieldValue$GT$$GT$17h8df780aa600ea8c2E', symObjAddr: 0xD520, symBinAddr: 0x72D10, symSize: 0xE0 }
  - { offsetInCU: 0x36392, offset: 0x25279B, size: 0x8, addend: 0x0, symName: '__ZN4core3ptr68drop_in_place$LT$alloc..boxed..Box$LT$syn..path..PathSegment$GT$$GT$17h1957b54eed39c0bbE.llvm.2919429348807089406', symObjAddr: 0xD600, symBinAddr: 0x72DF0, symSize: 0x170 }
  - { offsetInCU: 0x36A75, offset: 0x252E7E, size: 0x8, addend: 0x0, symName: '__ZN4core3ptr70drop_in_place$LT$$LP$syn..expr..FieldValue$C$syn..token..Comma$RP$$GT$17he025dc5053bc6a8bE.llvm.2919429348807089406', symObjAddr: 0xD880, symBinAddr: 0x72F60, symSize: 0xD0 }
  - { offsetInCU: 0x36E6F, offset: 0x253278, size: 0x8, addend: 0x0, symName: '__ZN4core3ptr72drop_in_place$LT$$LP$syn..path..PathSegment$C$syn..token..Colon2$RP$$GT$17h1baf491dcf9e7063E.llvm.2919429348807089406', symObjAddr: 0xD950, symBinAddr: 0x73030, symSize: 0xC0 }
  - { offsetInCU: 0x37132, offset: 0x25353B, size: 0x8, addend: 0x0, symName: '__ZN4core3ptr72drop_in_place$LT$alloc..boxed..Box$LT$syn..generics..LifetimeDef$GT$$GT$17h05409fc29b94598aE.llvm.2919429348807089406', symObjAddr: 0xDA10, symBinAddr: 0x730F0, symSize: 0xC0 }
  - { offsetInCU: 0x3765C, offset: 0x253A65, size: 0x8, addend: 0x0, symName: '__ZN4core3ptr72drop_in_place$LT$alloc..boxed..Box$LT$syn..path..GenericArgument$GT$$GT$17ha8f8136d0c2b505bE.llvm.2919429348807089406', symObjAddr: 0xDAD0, symBinAddr: 0x731B0, symSize: 0x1D0 }
  - { offsetInCU: 0x37DC0, offset: 0x2541C9, size: 0x8, addend: 0x0, symName: '__ZN4core3ptr73drop_in_place$LT$alloc..boxed..Box$LT$syn..generics..GenericParam$GT$$GT$17he12c7a4a5320b13eE', symObjAddr: 0xDCA0, symBinAddr: 0x73380, symSize: 0x80 }
  - { offsetInCU: 0x37F36, offset: 0x25433F, size: 0x8, addend: 0x0, symName: '__ZN4core3ptr75drop_in_place$LT$$LP$syn..generics..LifetimeDef$C$syn..token..Comma$RP$$GT$17h3ec14722aacb36caE.llvm.2919429348807089406', symObjAddr: 0xDD20, symBinAddr: 0x73400, symSize: 0xB0 }
  - { offsetInCU: 0x3831D, offset: 0x254726, size: 0x8, addend: 0x0, symName: '__ZN4core3ptr75drop_in_place$LT$$LP$syn..path..GenericArgument$C$syn..token..Comma$RP$$GT$17hae99285c368746d4E.llvm.2919429348807089406', symObjAddr: 0xDDD0, symBinAddr: 0x734B0, symSize: 0x1E0 }
  - { offsetInCU: 0x388DF, offset: 0x254CE8, size: 0x8, addend: 0x0, symName: '__ZN4core3ptr75drop_in_place$LT$alloc..boxed..Box$LT$syn..generics..TypeParamBound$GT$$GT$17h8f156ce07ea0b8b2E', symObjAddr: 0xDFB0, symBinAddr: 0x73690, symSize: 0xA0 }
  - { offsetInCU: 0x38BB9, offset: 0x254FC2, size: 0x8, addend: 0x0, symName: '__ZN4core3ptr75drop_in_place$LT$alloc..boxed..Box$LT$syn..generics..WherePredicate$GT$$GT$17he9159676146cdcc0E', symObjAddr: 0xE050, symBinAddr: 0x73730, symSize: 0xD0 }
  - { offsetInCU: 0x38E61, offset: 0x25526A, size: 0x8, addend: 0x0, symName: '__ZN4core3ptr76drop_in_place$LT$$LP$syn..generics..GenericParam$C$syn..token..Comma$RP$$GT$17hb608b85cca720f66E.llvm.2919429348807089406', symObjAddr: 0xE120, symBinAddr: 0x73800, symSize: 0x50 }
  - { offsetInCU: 0x38E9D, offset: 0x2552A6, size: 0x8, addend: 0x0, symName: '__ZN4core3ptr76drop_in_place$LT$$LP$syn..generics..TypeParamBound$C$syn..token..Add$RP$$GT$17h559c9012209c93bfE.llvm.2919429348807089406', symObjAddr: 0xE170, symBinAddr: 0x73850, symSize: 0x80 }
  - { offsetInCU: 0x39039, offset: 0x255442, size: 0x8, addend: 0x0, symName: '__ZN4core3ptr78drop_in_place$LT$$LP$syn..generics..WherePredicate$C$syn..token..Comma$RP$$GT$17he7c688f56dbd96f3E.llvm.2919429348807089406', symObjAddr: 0xE1F0, symBinAddr: 0x738D0, symSize: 0xA0 }
  - { offsetInCU: 0x391B1, offset: 0x2555BA, size: 0x8, addend: 0x0, symName: '__ZN4core3ptr78drop_in_place$LT$alloc..boxed..Box$LT$syn..expr..GenericMethodArgument$GT$$GT$17h3384c00b5bd54c2aE', symObjAddr: 0xE290, symBinAddr: 0x73970, symSize: 0x60 }
  - { offsetInCU: 0x39327, offset: 0x255730, size: 0x8, addend: 0x0, symName: '__ZN4core3ptr81drop_in_place$LT$$LP$syn..expr..GenericMethodArgument$C$syn..token..Comma$RP$$GT$17h6cb8506ab56d85d6E.llvm.2919429348807089406', symObjAddr: 0xE370, symBinAddr: 0x739D0, symSize: 0x30 }
  - { offsetInCU: 0x393C0, offset: 0x2557C9, size: 0x8, addend: 0x0, symName: '__ZN4core3ptr86drop_in_place$LT$$LP$syn..token..If$C$alloc..boxed..Box$LT$syn..expr..Expr$GT$$RP$$GT$17he48bd3f744075dddE', symObjAddr: 0xE610, symBinAddr: 0x73A00, symSize: 0x50 }
  - { offsetInCU: 0x39538, offset: 0x255941, size: 0x8, addend: 0x0, symName: '__ZN4core3ptr86drop_in_place$LT$$u5b$$LP$syn..generics..TypeParamBound$C$syn..token..Add$RP$$u5d$$GT$17h0b00def6dc905f2cE', symObjAddr: 0xE660, symBinAddr: 0x73A50, symSize: 0xE0 }
  - { offsetInCU: 0x3970E, offset: 0x255B17, size: 0x8, addend: 0x0, symName: '__ZN4core3ptr86drop_in_place$LT$syn..punctuated..Punctuated$LT$syn..pat..Pat$C$syn..token..Or$GT$$GT$17h1078c5d178d382b7E', symObjAddr: 0xE740, symBinAddr: 0x73B30, symSize: 0x120 }
  - { offsetInCU: 0x39C04, offset: 0x25600D, size: 0x8, addend: 0x0, symName: '__ZN4core3ptr87drop_in_place$LT$core..option..Option$LT$alloc..boxed..Box$LT$syn..pat..Pat$GT$$GT$$GT$17ha7f5fe0e6f73e820E', symObjAddr: 0xE930, symBinAddr: 0x73C50, symSize: 0x50 }
  - { offsetInCU: 0x39D74, offset: 0x25617D, size: 0x8, addend: 0x0, symName: '__ZN4core3ptr87drop_in_place$LT$core..option..Option$LT$alloc..boxed..Box$LT$syn..ty..Type$GT$$GT$$GT$17hc8292da82d129de3E', symObjAddr: 0xE980, symBinAddr: 0x73CA0, symSize: 0x50 }
  - { offsetInCU: 0x39EE4, offset: 0x2562ED, size: 0x8, addend: 0x0, symName: '__ZN4core3ptr89drop_in_place$LT$core..option..Option$LT$alloc..boxed..Box$LT$syn..expr..Expr$GT$$GT$$GT$17hdc211ccd33f196f2E', symObjAddr: 0xEB60, symBinAddr: 0x73CF0, symSize: 0x50 }
  - { offsetInCU: 0x3A054, offset: 0x25645D, size: 0x8, addend: 0x0, symName: '__ZN4core3ptr89drop_in_place$LT$syn..punctuated..Punctuated$LT$syn..ty..Type$C$syn..token..Comma$GT$$GT$17h1c6e43341fabea97E.llvm.2919429348807089406', symObjAddr: 0xEBB0, symBinAddr: 0x73D40, symSize: 0x120 }
  - { offsetInCU: 0x3A5AF, offset: 0x2569B8, size: 0x8, addend: 0x0, symName: '__ZN4core3ptr90drop_in_place$LT$core..option..Option$LT$alloc..boxed..Box$LT$syn..data..Field$GT$$GT$$GT$17he146e9f4e32c136fE', symObjAddr: 0xF000, symBinAddr: 0x73E60, symSize: 0x50 }
  - { offsetInCU: 0x3A71F, offset: 0x256B28, size: 0x8, addend: 0x0, symName: '__ZN4core3ptr90drop_in_place$LT$core..option..Option$LT$alloc..boxed..Box$LT$syn..item..FnArg$GT$$GT$$GT$17ha72e545cf6ea6548E', symObjAddr: 0xF050, symBinAddr: 0x73EB0, symSize: 0x50 }
  - { offsetInCU: 0x3A8AE, offset: 0x256CB7, size: 0x8, addend: 0x0, symName: '__ZN4core3ptr91drop_in_place$LT$syn..punctuated..Punctuated$LT$syn..expr..Expr$C$syn..token..Comma$GT$$GT$17hd2dfeb0c522d9a18E', symObjAddr: 0xF0A0, symBinAddr: 0x73F00, symSize: 0x120 }
  - { offsetInCU: 0x3AD43, offset: 0x25714C, size: 0x8, addend: 0x0, symName: '__ZN4core3ptr92drop_in_place$LT$core..option..Option$LT$$LP$syn..token..As$C$proc_macro2..Ident$RP$$GT$$GT$17hdb8e08992a006501E', symObjAddr: 0xF1C0, symBinAddr: 0x74020, symSize: 0x30 }
  - { offsetInCU: 0x3AE5E, offset: 0x257267, size: 0x8, addend: 0x0, symName: '__ZN4core3ptr92drop_in_place$LT$syn..punctuated..Punctuated$LT$syn..data..Field$C$syn..token..Comma$GT$$GT$17h907c4fed8ae64bc3E', symObjAddr: 0xF1F0, symBinAddr: 0x74050, symSize: 0x120 }
  - { offsetInCU: 0x3B2E0, offset: 0x2576E9, size: 0x8, addend: 0x0, symName: '__ZN4core3ptr92drop_in_place$LT$syn..punctuated..Punctuated$LT$syn..item..FnArg$C$syn..token..Comma$GT$$GT$17h3049a14d789de61dE', symObjAddr: 0xF310, symBinAddr: 0x74170, symSize: 0x150 }
  - { offsetInCU: 0x3B869, offset: 0x257C72, size: 0x8, addend: 0x0, symName: '__ZN4core3ptr94drop_in_place$LT$syn..punctuated..Punctuated$LT$syn..data..Variant$C$syn..token..Comma$GT$$GT$17hb4480d65f74dc9d7E', symObjAddr: 0xF690, symBinAddr: 0x742C0, symSize: 0x120 }
  - { offsetInCU: 0x3BD3C, offset: 0x258145, size: 0x8, addend: 0x0, symName: '__ZN4core3ptr94drop_in_place$LT$syn..punctuated..Punctuated$LT$syn..pat..FieldPat$C$syn..token..Comma$GT$$GT$17h612cbc9066d5afb1E', symObjAddr: 0xF7B0, symBinAddr: 0x743E0, symSize: 0xF0 }
  - { offsetInCU: 0x3C093, offset: 0x25849C, size: 0x8, addend: 0x0, symName: '__ZN4core3ptr94drop_in_place$LT$syn..punctuated..Punctuated$LT$syn..ty..BareFnArg$C$syn..token..Comma$GT$$GT$17ha9a668ce9972795bE', symObjAddr: 0xF8A0, symBinAddr: 0x744D0, symSize: 0xF0 }
  - { offsetInCU: 0x3C3AA, offset: 0x2587B3, size: 0x8, addend: 0x0, symName: '__ZN4core3ptr95drop_in_place$LT$alloc..vec..Vec$LT$$LP$syn..path..PathSegment$C$syn..token..Colon2$RP$$GT$$GT$17hd4ac5ab6c0f8b220E.llvm.2919429348807089406', symObjAddr: 0xF990, symBinAddr: 0x745C0, symSize: 0x100 }
  - { offsetInCU: 0x3C786, offset: 0x258B8F, size: 0x8, addend: 0x0, symName: '__ZN4core3ptr95drop_in_place$LT$core..option..Option$LT$$LP$proc_macro2..Ident$C$syn..token..Colon$RP$$GT$$GT$17h7314df562090eafdE.llvm.2919429348807089406', symObjAddr: 0xFA90, symBinAddr: 0x746C0, symSize: 0x30 }
  - { offsetInCU: 0x3C8A1, offset: 0x258CAA, size: 0x8, addend: 0x0, symName: '__ZN4core3ptr96drop_in_place$LT$core..option..Option$LT$alloc..boxed..Box$LT$syn..path..PathSegment$GT$$GT$$GT$17h2e81cbe3c70bb71cE.llvm.2919429348807089406', symObjAddr: 0xFB10, symBinAddr: 0x746F0, symSize: 0x50 }
  - { offsetInCU: 0x3CA4F, offset: 0x258E58, size: 0x8, addend: 0x0, symName: '__ZN4core3ptr97drop_in_place$LT$syn..punctuated..Punctuated$LT$syn..expr..FieldValue$C$syn..token..Comma$GT$$GT$17h11a5fffb46adfb11E', symObjAddr: 0xFCF0, symBinAddr: 0x74740, symSize: 0xF0 }
  - { offsetInCU: 0x3CDC3, offset: 0x2591CC, size: 0x8, addend: 0x0, symName: '__ZN4core3ptr97drop_in_place$LT$syn..punctuated..Punctuated$LT$syn..lifetime..Lifetime$C$syn..token..Add$GT$$GT$17h5c54dea2c838d109E.llvm.2919429348807089406', symObjAddr: 0xFDE0, symBinAddr: 0x74830, symSize: 0xD0 }
  - { offsetInCU: 0x3D235, offset: 0x25963E, size: 0x8, addend: 0x0, symName: '__ZN4core3ptr99drop_in_place$LT$syn..punctuated..Punctuated$LT$syn..path..PathSegment$C$syn..token..Colon2$GT$$GT$17hb961e4d7989a33ceE.llvm.2919429348807089406', symObjAddr: 0x101D0, symBinAddr: 0x74900, symSize: 0xF0 }
  - { offsetInCU: 0x3EBAF, offset: 0x25AFB8, size: 0x8, addend: 0x0, symName: '__ZN48_$LT$T$u20$as$u20$core..clone..CloneToUninit$GT$15clone_to_uninit17h4ec7541d8e1e05f7E', symObjAddr: 0x220, symBinAddr: 0x66090, symSize: 0x340 }
  - { offsetInCU: 0x3FCEA, offset: 0x25C0F3, size: 0x8, addend: 0x0, symName: '__ZN136_$LT$alloc..vec..Vec$LT$T$C$A$GT$$u20$as$u20$alloc..vec..spec_extend..SpecExtend$LT$T$C$alloc..vec..into_iter..IntoIter$LT$T$GT$$GT$$GT$11spec_extend17h8843d0dbc1b1f870E', symObjAddr: 0x20, symBinAddr: 0x65FE0, symSize: 0xB0 }
  - { offsetInCU: 0x4001D, offset: 0x25C426, size: 0x8, addend: 0x0, symName: '__ZN97_$LT$alloc..vec..Vec$LT$T$C$A$GT$$u20$as$u20$alloc..vec..spec_extend..SpecExtend$LT$T$C$I$GT$$GT$11spec_extend17hd5c233121a9f5638E', symObjAddr: 0x14720, symBinAddr: 0x74F70, symSize: 0x330 }
  - { offsetInCU: 0x409B9, offset: 0x25CDC2, size: 0x8, addend: 0x0, symName: '__ZN65_$LT$alloc..vec..Vec$LT$T$C$A$GT$$u20$as$u20$core..fmt..Debug$GT$3fmt17hf50488d82a0ae802E', symObjAddr: 0x10940, symBinAddr: 0x74A80, symSize: 0x80 }
  - { offsetInCU: 0x40BF9, offset: 0x25D002, size: 0x8, addend: 0x0, symName: '__ZN67_$LT$alloc..vec..Vec$LT$T$C$A$GT$$u20$as$u20$core..clone..Clone$GT$5clone17hb04bb518124eb3baE', symObjAddr: 0x12550, symBinAddr: 0x74B00, symSize: 0x230 }
  - { offsetInCU: 0x41779, offset: 0x25DB82, size: 0x8, addend: 0x0, symName: '__ZN70_$LT$alloc..vec..Vec$LT$T$C$A$GT$$u20$as$u20$core..ops..drop..Drop$GT$4drop17h22c555aa9db299d4E', symObjAddr: 0x13360, symBinAddr: 0x74D30, symSize: 0xA0 }
  - { offsetInCU: 0x4182E, offset: 0x25DC37, size: 0x8, addend: 0x0, symName: '__ZN70_$LT$alloc..vec..Vec$LT$T$C$A$GT$$u20$as$u20$core..ops..drop..Drop$GT$4drop17h3e7660583633fff8E', symObjAddr: 0x13570, symBinAddr: 0x74DD0, symSize: 0xC0 }
  - { offsetInCU: 0x41890, offset: 0x25DC99, size: 0x8, addend: 0x0, symName: '__ZN70_$LT$alloc..vec..Vec$LT$T$C$A$GT$$u20$as$u20$core..ops..drop..Drop$GT$4drop17h3fa7ae0a6bee11e1E', symObjAddr: 0x13630, symBinAddr: 0x74E90, symSize: 0xE0 }
  - { offsetInCU: 0x44EED, offset: 0x2612F6, size: 0x8, addend: 0x0, symName: '__ZN5alloc3vec16Vec$LT$T$C$A$GT$16into_boxed_slice17hc26dbb1317cd1ac6E', symObjAddr: 0x10350, symBinAddr: 0x749F0, symSize: 0x90 }
  - { offsetInCU: 0x1E, offset: 0x271016, size: 0x8, addend: 0x0, symName: '__ZN4core3ptr100drop_in_place$LT$core..option..Option$LT$alloc..boxed..Box$LT$syn..generics..LifetimeDef$GT$$GT$$GT$17h75a6086997697dd7E', symObjAddr: 0x0, symBinAddr: 0x752A0, symSize: 0x150 }
  - { offsetInCU: 0xBF, offset: 0x2710B7, size: 0x8, addend: 0x0, symName: '__ZN58_$LT$alloc..string..String$u20$as$u20$core..fmt..Write$GT$10write_char17h04bc467bd68a934bE', symObjAddr: 0x7450, symBinAddr: 0x7C6F0, symSize: 0x140 }
  - { offsetInCU: 0x4C6, offset: 0x2714BE, size: 0x8, addend: 0x0, symName: '__ZN58_$LT$alloc..string..String$u20$as$u20$core..fmt..Write$GT$9write_str17h46a93205c3443fbaE', symObjAddr: 0x7590, symBinAddr: 0x7C830, symSize: 0x60 }
  - { offsetInCU: 0xC37, offset: 0x271C2F, size: 0x8, addend: 0x0, symName: __ZN5alloc5alloc15exchange_malloc17h9a87608d0224859dE, symObjAddr: 0x75F0, symBinAddr: 0x7C890, symSize: 0x40 }
  - { offsetInCU: 0x1E2C, offset: 0x272E24, size: 0x8, addend: 0x0, symName: '__ZN4core3ptr100drop_in_place$LT$core..option..Option$LT$alloc..boxed..Box$LT$syn..generics..LifetimeDef$GT$$GT$$GT$17h75a6086997697dd7E', symObjAddr: 0x0, symBinAddr: 0x752A0, symSize: 0x150 }
  - { offsetInCU: 0x23A8, offset: 0x2733A0, size: 0x8, addend: 0x0, symName: '__ZN4core3ptr100drop_in_place$LT$core..option..Option$LT$alloc..boxed..Box$LT$syn..path..GenericArgument$GT$$GT$$GT$17h3d29ec00a8f1918dE', symObjAddr: 0x150, symBinAddr: 0x753F0, symSize: 0x50 }
  - { offsetInCU: 0x264E, offset: 0x273646, size: 0x8, addend: 0x0, symName: '__ZN4core3ptr103drop_in_place$LT$syn..punctuated..Punctuated$LT$syn..generics..TypeParamBound$C$syn..token..Add$GT$$GT$17he811d520c92af08aE', symObjAddr: 0x1A0, symBinAddr: 0x75440, symSize: 0x1C0 }
  - { offsetInCU: 0x2EB2, offset: 0x273EAA, size: 0x8, addend: 0x0, symName: '__ZN4core3ptr108drop_in_place$LT$syn..punctuated..Punctuated$LT$syn..expr..GenericMethodArgument$C$syn..token..Comma$GT$$GT$17h92cbabe4862b2183E', symObjAddr: 0x360, symBinAddr: 0x75600, symSize: 0x150 }
  - { offsetInCU: 0x340B, offset: 0x274403, size: 0x8, addend: 0x0, symName: '__ZN4core3ptr34drop_in_place$LT$syn..lit..Lit$GT$17hbe1efe749a08dd9aE', symObjAddr: 0x4B0, symBinAddr: 0x75750, symSize: 0x110 }
  - { offsetInCU: 0x387D, offset: 0x274875, size: 0x8, addend: 0x0, symName: '__ZN4core3ptr34drop_in_place$LT$syn..pat..Pat$GT$17h3201f642e43ac2a2E', symObjAddr: 0x5C0, symBinAddr: 0x75860, symSize: 0x1050 }
  - { offsetInCU: 0x723C, offset: 0x278234, size: 0x8, addend: 0x0, symName: '__ZN4core3ptr34drop_in_place$LT$syn..ty..Type$GT$17hfb5d159a08190130E', symObjAddr: 0x1610, symBinAddr: 0x768B0, symSize: 0x620 }
  - { offsetInCU: 0x8DBA, offset: 0x279DB2, size: 0x8, addend: 0x0, symName: '__ZN4core3ptr36drop_in_place$LT$syn..expr..Expr$GT$17hf1921d1b09462bc3E.llvm.1415980140280537373', symObjAddr: 0x1C30, symBinAddr: 0x76ED0, symSize: 0x2EA0 }
  - { offsetInCU: 0x1280E, offset: 0x283806, size: 0x8, addend: 0x0, symName: '__ZN4core3ptr36drop_in_place$LT$syn..mac..Macro$GT$17h205613d7ad575f72E', symObjAddr: 0x4AD0, symBinAddr: 0x79D70, symSize: 0xE0 }
  - { offsetInCU: 0x12C14, offset: 0x283C0C, size: 0x8, addend: 0x0, symName: '__ZN4core3ptr36drop_in_place$LT$syn..path..Path$GT$17he6d0bec66d66b98aE', symObjAddr: 0x4BB0, symBinAddr: 0x79E50, symSize: 0x230 }
  - { offsetInCU: 0x135AA, offset: 0x2845A2, size: 0x8, addend: 0x0, symName: '__ZN4core3ptr37drop_in_place$LT$syn..stmt..Block$GT$17h3aa429e75a234230E', symObjAddr: 0x4DE0, symBinAddr: 0x7A080, symSize: 0xD0 }
  - { offsetInCU: 0x13881, offset: 0x284879, size: 0x8, addend: 0x0, symName: '__ZN4core3ptr38drop_in_place$LT$syn..expr..Member$GT$17ha113d37a67d27aafE', symObjAddr: 0x4EB0, symBinAddr: 0x7A150, symSize: 0x30 }
  - { offsetInCU: 0x13A18, offset: 0x284A10, size: 0x8, addend: 0x0, symName: '__ZN4core3ptr38drop_in_place$LT$syn..group..Group$GT$17h0fddc99b7dc4ab91E', symObjAddr: 0x4EE0, symBinAddr: 0x7A180, symSize: 0x70 }
  - { offsetInCU: 0x13D10, offset: 0x284D08, size: 0x8, addend: 0x0, symName: '__ZN4core3ptr39drop_in_place$LT$proc_macro2..Ident$GT$17hdeec010483268a0dE', symObjAddr: 0x4F50, symBinAddr: 0x7A1F0, symSize: 0x30 }
  - { offsetInCU: 0x13E2B, offset: 0x284E23, size: 0x8, addend: 0x0, symName: '__ZN4core3ptr39drop_in_place$LT$syn..lit..LitFloat$GT$17h89b7791cfce3cb6aE', symObjAddr: 0x4F80, symBinAddr: 0x7A220, symSize: 0x70 }
  - { offsetInCU: 0x1419D, offset: 0x285195, size: 0x8, addend: 0x0, symName: '__ZN4core3ptr39drop_in_place$LT$syn..pat..PatTuple$GT$17h96faeea9832d4c4bE', symObjAddr: 0x4FF0, symBinAddr: 0x7A290, symSize: 0x100 }
  - { offsetInCU: 0x144A6, offset: 0x28549E, size: 0x8, addend: 0x0, symName: '__ZN4core3ptr40drop_in_place$LT$syn..ty..ReturnType$GT$17h6f97c9fdb958983eE', symObjAddr: 0x50F0, symBinAddr: 0x7A390, symSize: 0x50 }
  - { offsetInCU: 0x14616, offset: 0x28560E, size: 0x8, addend: 0x0, symName: '__ZN4core3ptr41drop_in_place$LT$syn..attr..Attribute$GT$17h01ed88f7d2878bfcE', symObjAddr: 0x5140, symBinAddr: 0x7A3E0, symSize: 0x40 }
  - { offsetInCU: 0x14633, offset: 0x28562B, size: 0x8, addend: 0x0, symName: '__ZN4core3ptr42drop_in_place$LT$alloc..string..String$GT$17hef974c60cd9900dbE', symObjAddr: 0x5180, symBinAddr: 0x7A420, symSize: 0x20 }
  - { offsetInCU: 0x147D6, offset: 0x2857CE, size: 0x8, addend: 0x0, symName: '__ZN4core3ptr42drop_in_place$LT$syn..expr..ExprStruct$GT$17hcd4a233ae9f7b2e4E', symObjAddr: 0x51A0, symBinAddr: 0x7A440, symSize: 0x300 }
  - { offsetInCU: 0x153B1, offset: 0x2863A9, size: 0x8, addend: 0x0, symName: '__ZN4core3ptr42drop_in_place$LT$syn..expr..FieldValue$GT$17h42a16bcbdc918058E', symObjAddr: 0x54A0, symBinAddr: 0x7A740, symSize: 0x140 }
  - { offsetInCU: 0x1583D, offset: 0x286835, size: 0x8, addend: 0x0, symName: '__ZN4core3ptr43drop_in_place$LT$syn..expr..ExprClosure$GT$17h33394450256957a8E', symObjAddr: 0x55E0, symBinAddr: 0x7A880, symSize: 0x270 }
  - { offsetInCU: 0x16296, offset: 0x28728E, size: 0x8, addend: 0x0, symName: '__ZN4core3ptr44drop_in_place$LT$syn..lifetime..Lifetime$GT$17h3858225df033648aE', symObjAddr: 0x5850, symBinAddr: 0x7AAF0, symSize: 0x30 }
  - { offsetInCU: 0x16392, offset: 0x28738A, size: 0x8, addend: 0x0, symName: '__ZN4core3ptr44drop_in_place$LT$syn..parse..ParseBuffer$GT$17h19c266fcccc430cbE', symObjAddr: 0x5880, symBinAddr: 0x7AB20, symSize: 0x70 }
  - { offsetInCU: 0x167A9, offset: 0x2877A1, size: 0x8, addend: 0x0, symName: '__ZN4core3ptr45drop_in_place$LT$proc_macro2..TokenStream$GT$17h2507cb30e765dc85E', symObjAddr: 0x58F0, symBinAddr: 0x7AB90, symSize: 0x140 }
  - { offsetInCU: 0x16C43, offset: 0x287C3B, size: 0x8, addend: 0x0, symName: '__ZN4core3ptr47drop_in_place$LT$syn..path..GenericArgument$GT$17h8c0a0d8c6deaefb4E', symObjAddr: 0x5A30, symBinAddr: 0x7ACD0, symSize: 0x110 }
  - { offsetInCU: 0x16FCE, offset: 0x287FC6, size: 0x8, addend: 0x0, symName: '__ZN4core3ptr50drop_in_place$LT$syn..generics..BoundLifetimes$GT$17hff8599a8d1e3c70cE', symObjAddr: 0x5B40, symBinAddr: 0x7ADE0, symSize: 0xC0 }
  - { offsetInCU: 0x172BA, offset: 0x2882B2, size: 0x8, addend: 0x0, symName: '__ZN4core3ptr58drop_in_place$LT$alloc..vec..Vec$LT$syn..expr..Arm$GT$$GT$17hf3db0825f3d9c861E', symObjAddr: 0x5C00, symBinAddr: 0x7AEA0, symSize: 0xD0 }
  - { offsetInCU: 0x1757A, offset: 0x288572, size: 0x8, addend: 0x0, symName: '__ZN4core3ptr59drop_in_place$LT$alloc..boxed..Box$LT$syn..pat..Pat$GT$$GT$17h7037ce9bbd3729c6E', symObjAddr: 0x5CD0, symBinAddr: 0x7AF70, symSize: 0x50 }
  - { offsetInCU: 0x176D3, offset: 0x2886CB, size: 0x8, addend: 0x0, symName: '__ZN4core3ptr59drop_in_place$LT$alloc..boxed..Box$LT$syn..ty..Type$GT$$GT$17h2eccd13329dbe4faE', symObjAddr: 0x5D20, symBinAddr: 0x7AFC0, symSize: 0x50 }
  - { offsetInCU: 0x1782C, offset: 0x288824, size: 0x8, addend: 0x0, symName: '__ZN4core3ptr61drop_in_place$LT$alloc..boxed..Box$LT$syn..expr..Expr$GT$$GT$17h66094ddc89015516E', symObjAddr: 0x5D70, symBinAddr: 0x7B010, symSize: 0x50 }
  - { offsetInCU: 0x17985, offset: 0x28897D, size: 0x8, addend: 0x0, symName: '__ZN4core3ptr61drop_in_place$LT$syn..path..ParenthesizedGenericArguments$GT$17h21be9b1d7a6fab55E', symObjAddr: 0x5DC0, symBinAddr: 0x7B060, symSize: 0x170 }
  - { offsetInCU: 0x17F8E, offset: 0x288F86, size: 0x8, addend: 0x0, symName: '__ZN4core3ptr63drop_in_place$LT$alloc..boxed..Box$LT$syn..lit..LitRepr$GT$$GT$17h9c509b794406150eE', symObjAddr: 0x5F30, symBinAddr: 0x7B1D0, symSize: 0x60 }
  - { offsetInCU: 0x18276, offset: 0x28926E, size: 0x8, addend: 0x0, symName: '__ZN4core3ptr64drop_in_place$LT$alloc..boxed..Box$LT$syn..pat..FieldPat$GT$$GT$17hb167b355d0d4733fE', symObjAddr: 0x5F90, symBinAddr: 0x7B230, symSize: 0x180 }
  - { offsetInCU: 0x18993, offset: 0x28998B, size: 0x8, addend: 0x0, symName: '__ZN4core3ptr64drop_in_place$LT$alloc..boxed..Box$LT$syn..ty..BareFnArg$GT$$GT$17h6488be9448346678E', symObjAddr: 0x6110, symBinAddr: 0x7B3B0, symSize: 0x160 }
  - { offsetInCU: 0x18F29, offset: 0x289F21, size: 0x8, addend: 0x0, symName: '__ZN4core3ptr64drop_in_place$LT$alloc..vec..Vec$LT$syn..attr..Attribute$GT$$GT$17h386324d8ea9bc309E.llvm.1415980140280537373', symObjAddr: 0x6270, symBinAddr: 0x7B510, symSize: 0xF0 }
  - { offsetInCU: 0x1921F, offset: 0x28A217, size: 0x8, addend: 0x0, symName: '__ZN4core3ptr65drop_in_place$LT$alloc..vec..Vec$LT$proc_macro..TokenTree$GT$$GT$17hc3670dd5608d5259E', symObjAddr: 0x6360, symBinAddr: 0x7B600, symSize: 0x110 }
  - { offsetInCU: 0x19617, offset: 0x28A60F, size: 0x8, addend: 0x0, symName: '__ZN4core3ptr65drop_in_place$LT$core..option..Option$LT$syn..expr..Label$GT$$GT$17ha723640fd01bec5dE', symObjAddr: 0x6470, symBinAddr: 0x7B710, symSize: 0x30 }
  - { offsetInCU: 0x19751, offset: 0x28A749, size: 0x8, addend: 0x0, symName: '__ZN4core3ptr65drop_in_place$LT$core..option..Option$LT$syn..path..QSelf$GT$$GT$17h213ca1c3399df9f2E', symObjAddr: 0x64A0, symBinAddr: 0x7B740, symSize: 0x50 }
  - { offsetInCU: 0x198D2, offset: 0x28A8CA, size: 0x8, addend: 0x0, symName: '__ZN4core3ptr66drop_in_place$LT$core..option..Option$LT$syn..ty..Variadic$GT$$GT$17hc32134bb3933b0dfE', symObjAddr: 0x64F0, symBinAddr: 0x7B790, symSize: 0xF0 }
  - { offsetInCU: 0x19BFC, offset: 0x28ABF4, size: 0x8, addend: 0x0, symName: '__ZN4core3ptr67drop_in_place$LT$alloc..boxed..Box$LT$syn..expr..FieldValue$GT$$GT$17h8df780aa600ea8c2E', symObjAddr: 0x65E0, symBinAddr: 0x7B880, symSize: 0x160 }
  - { offsetInCU: 0x1A15F, offset: 0x28B157, size: 0x8, addend: 0x0, symName: '__ZN4core3ptr72drop_in_place$LT$core..option..Option$LT$syn..lifetime..Lifetime$GT$$GT$17h31b55b93749c174dE', symObjAddr: 0x6740, symBinAddr: 0x7B9E0, symSize: 0x30 }
  - { offsetInCU: 0x1A27A, offset: 0x28B272, size: 0x8, addend: 0x0, symName: '__ZN4core3ptr75drop_in_place$LT$alloc..boxed..Box$LT$syn..generics..TypeParamBound$GT$$GT$17h8f156ce07ea0b8b2E', symObjAddr: 0x6770, symBinAddr: 0x7BA10, symSize: 0x140 }
  - { offsetInCU: 0x1A7D5, offset: 0x28B7CD, size: 0x8, addend: 0x0, symName: '__ZN4core3ptr78drop_in_place$LT$alloc..boxed..Box$LT$syn..expr..GenericMethodArgument$GT$$GT$17h3384c00b5bd54c2aE', symObjAddr: 0x68B0, symBinAddr: 0x7BB50, symSize: 0x60 }
  - { offsetInCU: 0x1A96A, offset: 0x28B962, size: 0x8, addend: 0x0, symName: '__ZN4core3ptr78drop_in_place$LT$core..option..Option$LT$syn..generics..BoundLifetimes$GT$$GT$17h8175e66ad0c4a156E', symObjAddr: 0x6910, symBinAddr: 0x7BBB0, symSize: 0xE0 }
  - { offsetInCU: 0x1ACE7, offset: 0x28BCDF, size: 0x8, addend: 0x0, symName: '__ZN4core3ptr83drop_in_place$LT$core..result..Result$LT$syn..op..BinOp$C$syn..error..Error$GT$$GT$17hf42bffcbc93954faE', symObjAddr: 0x69F0, symBinAddr: 0x7BC90, symSize: 0x80 }
  - { offsetInCU: 0x1AFE1, offset: 0x28BFD9, size: 0x8, addend: 0x0, symName: '__ZN4core3ptr86drop_in_place$LT$syn..punctuated..Punctuated$LT$syn..pat..Pat$C$syn..token..Or$GT$$GT$17h1078c5d178d382b7E', symObjAddr: 0x6A70, symBinAddr: 0x7BD10, symSize: 0x120 }
  - { offsetInCU: 0x1B45C, offset: 0x28C454, size: 0x8, addend: 0x0, symName: '__ZN4core3ptr87drop_in_place$LT$core..option..Option$LT$alloc..boxed..Box$LT$syn..pat..Pat$GT$$GT$$GT$17ha7f5fe0e6f73e820E', symObjAddr: 0x6B90, symBinAddr: 0x7BE30, symSize: 0x50 }
  - { offsetInCU: 0x1B5CC, offset: 0x28C5C4, size: 0x8, addend: 0x0, symName: '__ZN4core3ptr87drop_in_place$LT$core..option..Option$LT$alloc..boxed..Box$LT$syn..ty..Type$GT$$GT$$GT$17hc8292da82d129de3E', symObjAddr: 0x6BE0, symBinAddr: 0x7BE80, symSize: 0x50 }
  - { offsetInCU: 0x1B73C, offset: 0x28C734, size: 0x8, addend: 0x0, symName: '__ZN4core3ptr89drop_in_place$LT$core..option..Option$LT$alloc..boxed..Box$LT$syn..expr..Expr$GT$$GT$$GT$17hdc211ccd33f196f2E', symObjAddr: 0x6C30, symBinAddr: 0x7BED0, symSize: 0x50 }
  - { offsetInCU: 0x1B8AC, offset: 0x28C8A4, size: 0x8, addend: 0x0, symName: '__ZN4core3ptr89drop_in_place$LT$syn..punctuated..Punctuated$LT$syn..pat..Pat$C$syn..token..Comma$GT$$GT$17hf8371102b0500adcE', symObjAddr: 0x6C80, symBinAddr: 0x7BF20, symSize: 0x120 }
  - { offsetInCU: 0x1BD69, offset: 0x28CD61, size: 0x8, addend: 0x0, symName: '__ZN4core3ptr91drop_in_place$LT$syn..punctuated..Punctuated$LT$syn..expr..Expr$C$syn..token..Comma$GT$$GT$17hd2dfeb0c522d9a18E', symObjAddr: 0x6DA0, symBinAddr: 0x7C040, symSize: 0x120 }
  - { offsetInCU: 0x1C1F7, offset: 0x28D1EF, size: 0x8, addend: 0x0, symName: '__ZN4core3ptr94drop_in_place$LT$syn..punctuated..Punctuated$LT$syn..pat..FieldPat$C$syn..token..Comma$GT$$GT$17h612cbc9066d5afb1E', symObjAddr: 0x6EC0, symBinAddr: 0x7C160, symSize: 0xF0 }
  - { offsetInCU: 0x1C4F6, offset: 0x28D4EE, size: 0x8, addend: 0x0, symName: '__ZN4core3ptr94drop_in_place$LT$syn..punctuated..Punctuated$LT$syn..ty..BareFnArg$C$syn..token..Comma$GT$$GT$17ha9a668ce9972795bE', symObjAddr: 0x6FB0, symBinAddr: 0x7C250, symSize: 0xF0 }
  - { offsetInCU: 0x1C7F3, offset: 0x28D7EB, size: 0x8, addend: 0x0, symName: '__ZN4core3ptr95drop_in_place$LT$core..option..Option$LT$alloc..boxed..Box$LT$syn..expr..FieldValue$GT$$GT$$GT$17hd0d57ae8c6b091c1E', symObjAddr: 0x70A0, symBinAddr: 0x7C340, symSize: 0x50 }
  - { offsetInCU: 0x1C963, offset: 0x28D95B, size: 0x8, addend: 0x0, symName: '__ZN4core3ptr96drop_in_place$LT$core..option..Option$LT$alloc..boxed..Box$LT$syn..path..PathSegment$GT$$GT$$GT$17h2e81cbe3c70bb71cE', symObjAddr: 0x70F0, symBinAddr: 0x7C390, symSize: 0x180 }
  - { offsetInCU: 0x1D020, offset: 0x28E018, size: 0x8, addend: 0x0, symName: '__ZN4core3ptr97drop_in_place$LT$syn..punctuated..Punctuated$LT$syn..expr..FieldValue$C$syn..token..Comma$GT$$GT$17h11a5fffb46adfb11E', symObjAddr: 0x7270, symBinAddr: 0x7C510, symSize: 0xF0 }
  - { offsetInCU: 0x1D399, offset: 0x28E391, size: 0x8, addend: 0x0, symName: '__ZN4core3ptr97drop_in_place$LT$syn..punctuated..Punctuated$LT$syn..lifetime..Lifetime$C$syn..token..Add$GT$$GT$17h5c54dea2c838d109E', symObjAddr: 0x7360, symBinAddr: 0x7C600, symSize: 0xD0 }
  - { offsetInCU: 0x1DE22, offset: 0x28EE1A, size: 0x8, addend: 0x0, symName: '__ZN53_$LT$core..fmt..Error$u20$as$u20$core..fmt..Debug$GT$3fmt17h03dc662ab152f3aeE', symObjAddr: 0x7430, symBinAddr: 0x7C6D0, symSize: 0x20 }
  - { offsetInCU: 0x25ADC, offset: 0x296AD4, size: 0x8, addend: 0x0, symName: __ZN3syn4expr7parsing10parse_expr17h684b3b78faf213b4E, symObjAddr: 0x7630, symBinAddr: 0x7C8D0, symSize: 0x19D0 }
  - { offsetInCU: 0x2826F, offset: 0x299267, size: 0x8, addend: 0x0, symName: __ZN3syn4expr7parsing15peek_precedence17h786832174e665121E, symObjAddr: 0x9000, symBinAddr: 0x7E2A0, symSize: 0x240 }
  - { offsetInCU: 0x28E23, offset: 0x299E1B, size: 0x8, addend: 0x0, symName: __ZN3syn4expr7parsing14ambiguous_expr17h7c73b0ab5ad50f5aE, symObjAddr: 0x9240, symBinAddr: 0x7E4E0, symSize: 0xF0 }
  - { offsetInCU: 0x28EA6, offset: 0x299E9E, size: 0x8, addend: 0x0, symName: __ZN3syn4expr7parsing10expr_attrs17h66bc2999eaa82c1dE, symObjAddr: 0x9330, symBinAddr: 0x7E5D0, symSize: 0x940 }
  - { offsetInCU: 0x2AE7B, offset: 0x29BE73, size: 0x8, addend: 0x0, symName: __ZN3syn4expr7parsing10unary_expr17hdaadc2ad74ecc4a2E, symObjAddr: 0x9C70, symBinAddr: 0x7EF10, symSize: 0xB80 }
  - { offsetInCU: 0x2CBE1, offset: 0x29DBD9, size: 0x8, addend: 0x0, symName: __ZN3syn4expr7parsing12trailer_expr17hd9e88d5ec011f83cE, symObjAddr: 0xA7F0, symBinAddr: 0x7FA90, symSize: 0x2990 }
  - { offsetInCU: 0x31C0F, offset: 0x2A2C07, size: 0x8, addend: 0x0, symName: __ZN3syn4expr7parsing14trailer_helper17hd9c2c92d36c55114E, symObjAddr: 0xD180, symBinAddr: 0x82420, symSize: 0x24F0 }
  - { offsetInCU: 0x36184, offset: 0x2A717C, size: 0x8, addend: 0x0, symName: __ZN3syn4expr7parsing23path_or_macro_or_struct17had39e9f11aec7b68E, symObjAddr: 0xF670, symBinAddr: 0x84910, symSize: 0x970 }
  - { offsetInCU: 0x37702, offset: 0x2A86FA, size: 0x8, addend: 0x0, symName: __ZN3syn4expr7parsing14paren_or_tuple17h1b66161ba42304d6E, symObjAddr: 0xFFE0, symBinAddr: 0x85280, symSize: 0x720 }
  - { offsetInCU: 0x38002, offset: 0x2A8FFA, size: 0x8, addend: 0x0, symName: __ZN3syn4expr7parsing15array_or_repeat17h2d084d601409b71aE, symObjAddr: 0x10700, symBinAddr: 0x859A0, symSize: 0x8C0 }
  - { offsetInCU: 0x38B72, offset: 0x2A9B6A, size: 0x8, addend: 0x0, symName: __ZN3syn4expr7parsing10expr_early17h31e19cd3df74af45E, symObjAddr: 0x10FC0, symBinAddr: 0x86260, symSize: 0x1200 }
  - { offsetInCU: 0x3ADA5, offset: 0x2ABD9D, size: 0x8, addend: 0x0, symName: __ZN3syn4expr7parsing10else_block17h85af2da261a7a0efE, symObjAddr: 0x12390, symBinAddr: 0x87460, symSize: 0x460 }
  - { offsetInCU: 0x3B37D, offset: 0x2AC375, size: 0x8, addend: 0x0, symName: __ZN3syn4expr7parsing8expr_box17h788652fdd35874adE, symObjAddr: 0x127F0, symBinAddr: 0x878C0, symSize: 0x350 }
  - { offsetInCU: 0x3B868, offset: 0x2AC860, size: 0x8, addend: 0x0, symName: __ZN3syn4expr7parsing10expr_unary17h8078eda13c99e202E, symObjAddr: 0x12B40, symBinAddr: 0x87C10, symSize: 0x330 }
  - { offsetInCU: 0x3BE35, offset: 0x2ACE2D, size: 0x8, addend: 0x0, symName: __ZN3syn4expr7parsing12expr_closure17h5b6e444b2a8149e2E, symObjAddr: 0x12E70, symBinAddr: 0x87F40, symSize: 0x12B0 }
  - { offsetInCU: 0x3D790, offset: 0x2AE788, size: 0x8, addend: 0x0, symName: __ZN3syn4expr7parsing10expr_break17h7b566e31f8d9a5f2E, symObjAddr: 0x14120, symBinAddr: 0x891F0, symSize: 0x530 }
  - { offsetInCU: 0x3E119, offset: 0x2AF111, size: 0x8, addend: 0x0, symName: __ZN3syn4expr7parsing8expr_ret17h5b82e5b7191096ffE, symObjAddr: 0x14650, symBinAddr: 0x89720, symSize: 0x310 }
  - { offsetInCU: 0x3E5C0, offset: 0x2AF5B8, size: 0x8, addend: 0x0, symName: __ZN3syn4expr7parsing18expr_struct_helper17h9236744648974cbcE, symObjAddr: 0x14960, symBinAddr: 0x89A30, symSize: 0x7C0 }
  - { offsetInCU: 0x3F259, offset: 0x2B0251, size: 0x8, addend: 0x0, symName: __ZN3syn4expr7parsing10expr_const17hb9a9a735044bf46dE, symObjAddr: 0x15120, symBinAddr: 0x8A1F0, symSize: 0x510 }
  - { offsetInCU: 0x400BC, offset: 0x2B10B4, size: 0x8, addend: 0x0, symName: __ZN3syn4expr7parsing10expr_range17h02863b30abf98d84E, symObjAddr: 0x15630, symBinAddr: 0x8A700, symSize: 0x410 }
  - { offsetInCU: 0x40891, offset: 0x2B1889, size: 0x8, addend: 0x0, symName: __ZN3syn4expr7parsing10check_cast17h642668a83e43dc17E, symObjAddr: 0x15A40, symBinAddr: 0x8AB10, symSize: 0x440 }
  - { offsetInCU: 0x4145C, offset: 0x2B2454, size: 0x8, addend: 0x0, symName: '__ZN67_$LT$syn..expr..parsing..raw$u20$as$u20$syn..token..CustomToken$GT$4peek17h916728f6ab7642fdE', symObjAddr: 0x15E90, symBinAddr: 0x8AF50, symSize: 0x180 }
  - { offsetInCU: 0x1E, offset: 0x2CA202, size: 0x8, addend: 0x0, symName: __ZN5alloc7raw_vec11finish_grow17h0495c2f2131df753E.llvm.7436538866384912358, symObjAddr: 0x0, symBinAddr: 0x8B0D0, symSize: 0xA0 }
  - { offsetInCU: 0x6CB3, offset: 0x2D0E97, size: 0x8, addend: 0x0, symName: __ZN5alloc7raw_vec11finish_grow17h0495c2f2131df753E.llvm.7436538866384912358, symObjAddr: 0x0, symBinAddr: 0x8B0D0, symSize: 0xA0 }
  - { offsetInCU: 0x8C0B, offset: 0x2D2DEF, size: 0x8, addend: 0x0, symName: '__ZN5alloc7raw_vec19RawVec$LT$T$C$A$GT$7reserve21do_reserve_and_handle17ha205d1e810429fe7E', symObjAddr: 0x1540, symBinAddr: 0x1AE320, symSize: 0xA0 }
  - { offsetInCU: 0x8F03, offset: 0x2D30E7, size: 0x8, addend: 0x0, symName: '__ZN5alloc7raw_vec19RawVec$LT$T$C$A$GT$7reserve21do_reserve_and_handle17hc00d12dcef9591d0E', symObjAddr: 0x16A0, symBinAddr: 0x1AE3C0, symSize: 0xB0 }
  - { offsetInCU: 0x922E, offset: 0x2D3412, size: 0x8, addend: 0x0, symName: '__ZN5alloc7raw_vec19RawVec$LT$T$C$A$GT$7reserve21do_reserve_and_handle17hdc9e8bbb6589329bE', symObjAddr: 0x1750, symBinAddr: 0x1AE470, symSize: 0xB0 }
  - { offsetInCU: 0x9559, offset: 0x2D373D, size: 0x8, addend: 0x0, symName: '__ZN5alloc7raw_vec19RawVec$LT$T$C$A$GT$7reserve21do_reserve_and_handle17he214000fe5ef06eeE', symObjAddr: 0x1800, symBinAddr: 0x1AE520, symSize: 0xC0 }
  - { offsetInCU: 0x10311, offset: 0x2DA4F5, size: 0x8, addend: 0x0, symName: '__ZN5alloc7raw_vec19RawVec$LT$T$C$A$GT$8grow_one17h08605552f4f70285E', symObjAddr: 0x18C0, symBinAddr: 0x8B170, symSize: 0xC0 }
  - { offsetInCU: 0x107DF, offset: 0x2DA9C3, size: 0x8, addend: 0x0, symName: '__ZN5alloc7raw_vec19RawVec$LT$T$C$A$GT$8grow_one17h0d1d7d47ecb5d181E', symObjAddr: 0x1980, symBinAddr: 0x8B230, symSize: 0x0 }
  - { offsetInCU: 0x10CAD, offset: 0x2DAE91, size: 0x8, addend: 0x0, symName: '__ZN5alloc7raw_vec19RawVec$LT$T$C$A$GT$8grow_one17h1630aee03a584a55E', symObjAddr: 0x1A40, symBinAddr: 0x8B2F0, symSize: 0x0 }
  - { offsetInCU: 0x1117B, offset: 0x2DB35F, size: 0x8, addend: 0x0, symName: '__ZN5alloc7raw_vec19RawVec$LT$T$C$A$GT$8grow_one17h1e9702a0556e0dd1E', symObjAddr: 0x1B00, symBinAddr: 0x8B3B0, symSize: 0xC0 }
  - { offsetInCU: 0x11649, offset: 0x2DB82D, size: 0x8, addend: 0x0, symName: '__ZN5alloc7raw_vec19RawVec$LT$T$C$A$GT$8grow_one17h3330ea55ea3e3f66E', symObjAddr: 0x1BC0, symBinAddr: 0x8B470, symSize: 0x0 }
  - { offsetInCU: 0x11B1F, offset: 0x2DBD03, size: 0x8, addend: 0x0, symName: '__ZN5alloc7raw_vec19RawVec$LT$T$C$A$GT$8grow_one17h3ccc35cc0e1c9bbaE', symObjAddr: 0x1C80, symBinAddr: 0x8B530, symSize: 0xC0 }
  - { offsetInCU: 0x11FF1, offset: 0x2DC1D5, size: 0x8, addend: 0x0, symName: '__ZN5alloc7raw_vec19RawVec$LT$T$C$A$GT$8grow_one17h3ecbe6fe516c3f85E', symObjAddr: 0x1D40, symBinAddr: 0x8B5F0, symSize: 0x0 }
  - { offsetInCU: 0x124D2, offset: 0x2DC6B6, size: 0x8, addend: 0x0, symName: '__ZN5alloc7raw_vec19RawVec$LT$T$C$A$GT$8grow_one17h4bde22c6c3628c35E', symObjAddr: 0x1E00, symBinAddr: 0x8B6B0, symSize: 0x0 }
  - { offsetInCU: 0x12932, offset: 0x2DCB16, size: 0x8, addend: 0x0, symName: '__ZN5alloc7raw_vec19RawVec$LT$T$C$A$GT$8grow_one17h5489e10a8b77bab8E', symObjAddr: 0x1EB0, symBinAddr: 0x8B760, symSize: 0x0 }
  - { offsetInCU: 0x12DFE, offset: 0x2DCFE2, size: 0x8, addend: 0x0, symName: '__ZN5alloc7raw_vec19RawVec$LT$T$C$A$GT$8grow_one17h59ec294e1c1da808E', symObjAddr: 0x1F60, symBinAddr: 0x8B810, symSize: 0xB0 }
  - { offsetInCU: 0x132CC, offset: 0x2DD4B0, size: 0x8, addend: 0x0, symName: '__ZN5alloc7raw_vec19RawVec$LT$T$C$A$GT$8grow_one17h5aa64db5fa0642f7E', symObjAddr: 0x2010, symBinAddr: 0x8B8C0, symSize: 0xC0 }
  - { offsetInCU: 0x1360D, offset: 0x2DD7F1, size: 0x8, addend: 0x0, symName: '__ZN5alloc7raw_vec19RawVec$LT$T$C$A$GT$8grow_one17h68de9c252237170dE', symObjAddr: 0x20D0, symBinAddr: 0x8B980, symSize: 0xA0 }
  - { offsetInCU: 0x13A9C, offset: 0x2DDC80, size: 0x8, addend: 0x0, symName: '__ZN5alloc7raw_vec19RawVec$LT$T$C$A$GT$8grow_one17h6fd080ba3921d078E', symObjAddr: 0x2170, symBinAddr: 0x8BA20, symSize: 0x0 }
  - { offsetInCU: 0x13F6A, offset: 0x2DE14E, size: 0x8, addend: 0x0, symName: '__ZN5alloc7raw_vec19RawVec$LT$T$C$A$GT$8grow_one17h7488afcced04fb61E', symObjAddr: 0x2230, symBinAddr: 0x8BAE0, symSize: 0xC0 }
  - { offsetInCU: 0x14438, offset: 0x2DE61C, size: 0x8, addend: 0x0, symName: '__ZN5alloc7raw_vec19RawVec$LT$T$C$A$GT$8grow_one17h7b67068b95f3a015E', symObjAddr: 0x22F0, symBinAddr: 0x8BBA0, symSize: 0xC0 }
  - { offsetInCU: 0x14931, offset: 0x2DEB15, size: 0x8, addend: 0x0, symName: '__ZN5alloc7raw_vec19RawVec$LT$T$C$A$GT$8grow_one17h7f8f3ce9755569dfE', symObjAddr: 0x23B0, symBinAddr: 0x8BC60, symSize: 0xB0 }
  - { offsetInCU: 0x14DFD, offset: 0x2DEFE1, size: 0x8, addend: 0x0, symName: '__ZN5alloc7raw_vec19RawVec$LT$T$C$A$GT$8grow_one17h8a66c2aa27418570E', symObjAddr: 0x2460, symBinAddr: 0x8BD10, symSize: 0xB0 }
  - { offsetInCU: 0x152C9, offset: 0x2DF4AD, size: 0x8, addend: 0x0, symName: '__ZN5alloc7raw_vec19RawVec$LT$T$C$A$GT$8grow_one17h936b8e68541504a4E', symObjAddr: 0x2510, symBinAddr: 0x8BDC0, symSize: 0xC0 }
  - { offsetInCU: 0x15797, offset: 0x2DF97B, size: 0x8, addend: 0x0, symName: '__ZN5alloc7raw_vec19RawVec$LT$T$C$A$GT$8grow_one17hbcead0d4d18ace99E', symObjAddr: 0x25D0, symBinAddr: 0x8BE80, symSize: 0xC0 }
  - { offsetInCU: 0x15C6B, offset: 0x2DFE4F, size: 0x8, addend: 0x0, symName: '__ZN5alloc7raw_vec19RawVec$LT$T$C$A$GT$8grow_one17hc527c0f89616509aE', symObjAddr: 0x2690, symBinAddr: 0x8BF40, symSize: 0xB0 }
  - { offsetInCU: 0x16137, offset: 0x2E031B, size: 0x8, addend: 0x0, symName: '__ZN5alloc7raw_vec19RawVec$LT$T$C$A$GT$8grow_one17hcdcf6148bc2fe027E', symObjAddr: 0x2740, symBinAddr: 0x8BFF0, symSize: 0xC0 }
  - { offsetInCU: 0x16605, offset: 0x2E07E9, size: 0x8, addend: 0x0, symName: '__ZN5alloc7raw_vec19RawVec$LT$T$C$A$GT$8grow_one17hd0099d1a8d5d37ccE', symObjAddr: 0x2800, symBinAddr: 0x8C0B0, symSize: 0xB0 }
  - { offsetInCU: 0x16AD1, offset: 0x2E0CB5, size: 0x8, addend: 0x0, symName: '__ZN5alloc7raw_vec19RawVec$LT$T$C$A$GT$8grow_one17he6f91a044893fcdcE', symObjAddr: 0x28B0, symBinAddr: 0x8C160, symSize: 0xC0 }
  - { offsetInCU: 0x50A, offset: 0x2E1554, size: 0x8, addend: 0x0, symName: '__ZN3syn8generics8printing80_$LT$impl$u20$quote..to_tokens..ToTokens$u20$for$u20$syn..generics..Generics$GT$9to_tokens17hc516f0ca57e61ab8E', symObjAddr: 0xF0D0, symBinAddr: 0x99770, symSize: 0x240 }
  - { offsetInCU: 0xD1B, offset: 0x2E1D65, size: 0x8, addend: 0x0, symName: '__ZN3syn8generics8printing84_$LT$impl$u20$quote..to_tokens..ToTokens$u20$for$u20$syn..generics..ImplGenerics$GT$9to_tokens17h9169b9d7e35879d7E', symObjAddr: 0xF310, symBinAddr: 0x999B0, symSize: 0x570 }
  - { offsetInCU: 0x1EC1, offset: 0x2E2F0B, size: 0x8, addend: 0x0, symName: '__ZN3syn8generics8printing84_$LT$impl$u20$quote..to_tokens..ToTokens$u20$for$u20$syn..generics..TypeGenerics$GT$9to_tokens17hd740c34e81a322c0E', symObjAddr: 0xF880, symBinAddr: 0x99F20, symSize: 0x360 }
  - { offsetInCU: 0x2A73, offset: 0x2E3ABD, size: 0x8, addend: 0x0, symName: '__ZN3syn8generics8printing86_$LT$impl$u20$quote..to_tokens..ToTokens$u20$for$u20$syn..generics..BoundLifetimes$GT$9to_tokens17he45909f9777a2097E', symObjAddr: 0xFC50, symBinAddr: 0x9A280, symSize: 0x160 }
  - { offsetInCU: 0x302E, offset: 0x2E4078, size: 0x8, addend: 0x0, symName: '__ZN3syn8generics8printing81_$LT$impl$u20$quote..to_tokens..ToTokens$u20$for$u20$syn..generics..TypeParam$GT$9to_tokens17hcaef93599cfca25cE', symObjAddr: 0xFFD0, symBinAddr: 0x9A3E0, symSize: 0x620 }
  - { offsetInCU: 0x4331, offset: 0x2E537B, size: 0x8, addend: 0x0, symName: '__ZN3syn8generics8printing82_$LT$impl$u20$quote..to_tokens..ToTokens$u20$for$u20$syn..generics..TraitBound$GT$9to_tokens17he474479258d3148eE', symObjAddr: 0x105F0, symBinAddr: 0x9AA00, symSize: 0x470 }
  - { offsetInCU: 0x53AD, offset: 0x2E63F7, size: 0x8, addend: 0x0, symName: '__ZN3syn8generics8printing82_$LT$impl$u20$quote..to_tokens..ToTokens$u20$for$u20$syn..generics..ConstParam$GT$9to_tokens17h36d48730b501dc3bE', symObjAddr: 0x10A90, symBinAddr: 0x9AE70, symSize: 0x1E0 }
  - { offsetInCU: 0x57F3, offset: 0x2E683D, size: 0x8, addend: 0x0, symName: '__ZN3syn8generics8printing83_$LT$impl$u20$quote..to_tokens..ToTokens$u20$for$u20$syn..generics..WhereClause$GT$9to_tokens17hef22306b14050697E', symObjAddr: 0x10C70, symBinAddr: 0x9B050, symSize: 0x130 }
  - { offsetInCU: 0x5CB8, offset: 0x2E6D02, size: 0x8, addend: 0x0, symName: '__ZN3syn8generics8printing85_$LT$impl$u20$quote..to_tokens..ToTokens$u20$for$u20$syn..generics..PredicateType$GT$9to_tokens17hef8e2cddb761bcdcE', symObjAddr: 0x10DA0, symBinAddr: 0x9B180, symSize: 0x1C0 }
  - { offsetInCU: 0x6516, offset: 0x2E7560, size: 0x8, addend: 0x0, symName: '__ZN3syn8generics7parsing71_$LT$impl$u20$syn..parse..Parse$u20$for$u20$syn..generics..Generics$GT$5parse17hd28783ad0738943bE', symObjAddr: 0x9000, symBinAddr: 0x94220, symSize: 0x1050 }
  - { offsetInCU: 0x8AAD, offset: 0x2E9AF7, size: 0x8, addend: 0x0, symName: '__ZN3syn8generics7parsing74_$LT$impl$u20$syn..parse..Parse$u20$for$u20$syn..generics..LifetimeDef$GT$5parse17h6b48105c285d7c8dE', symObjAddr: 0xAB40, symBinAddr: 0x95270, symSize: 0x740 }
  - { offsetInCU: 0x990E, offset: 0x2EA958, size: 0x8, addend: 0x0, symName: '__ZN3syn8generics7parsing77_$LT$impl$u20$syn..parse..Parse$u20$for$u20$syn..generics..BoundLifetimes$GT$5parse17h15c1b0ce740aaaaeE', symObjAddr: 0xB280, symBinAddr: 0x959B0, symSize: 0x350 }
  - { offsetInCU: 0x9DAA, offset: 0x2EADF4, size: 0x8, addend: 0x0, symName: '__ZN3syn8generics7parsing72_$LT$impl$u20$syn..parse..Parse$u20$for$u20$syn..generics..TypeParam$GT$5parse17hc27b5d6b1736a231E', symObjAddr: 0xB5D0, symBinAddr: 0x95D00, symSize: 0xCD0 }
  - { offsetInCU: 0xB726, offset: 0x2EC770, size: 0x8, addend: 0x0, symName: '__ZN3syn8generics7parsing77_$LT$impl$u20$syn..parse..Parse$u20$for$u20$syn..generics..TypeParamBound$GT$5parse17hb4643a841c373f4aE', symObjAddr: 0xC2A0, symBinAddr: 0x969D0, symSize: 0x440 }
  - { offsetInCU: 0xC027, offset: 0x2ED071, size: 0x8, addend: 0x0, symName: '__ZN3syn8generics7parsing73_$LT$impl$u20$syn..parse..Parse$u20$for$u20$syn..generics..TraitBound$GT$5parse17hf6a49d61f3b13819E', symObjAddr: 0xCB60, symBinAddr: 0x97290, symSize: 0x960 }
  - { offsetInCU: 0xD67B, offset: 0x2EE6C5, size: 0x8, addend: 0x0, symName: '__ZN3syn8generics7parsing73_$LT$impl$u20$syn..parse..Parse$u20$for$u20$syn..generics..ConstParam$GT$5parse17hd78f2ac884064914E', symObjAddr: 0xD550, symBinAddr: 0x97BF0, symSize: 0x9D0 }
  - { offsetInCU: 0xEA3C, offset: 0x2EFA86, size: 0x8, addend: 0x0, symName: '__ZN3syn8generics7parsing74_$LT$impl$u20$syn..parse..Parse$u20$for$u20$syn..generics..WhereClause$GT$5parse17h226f401ead5bb3e0E', symObjAddr: 0xDF20, symBinAddr: 0x985C0, symSize: 0x410 }
  - { offsetInCU: 0xF557, offset: 0x2F05A1, size: 0x8, addend: 0x0, symName: '__ZN3syn8generics7parsing77_$LT$impl$u20$syn..parse..Parse$u20$for$u20$syn..generics..WherePredicate$GT$5parse17h1ac1764ff88b87b3E', symObjAddr: 0xE330, symBinAddr: 0x989D0, symSize: 0xDA0 }
  - { offsetInCU: 0x1115D, offset: 0x2F21A7, size: 0x8, addend: 0x0, symName: '__ZN74_$LT$syn..generics..GenericParam$u20$as$u20$quote..to_tokens..ToTokens$GT$9to_tokens17h97d754f607da3f78E', symObjAddr: 0x11110, symBinAddr: 0x9B340, symSize: 0x280 }
  - { offsetInCU: 0x11AEE, offset: 0x2F2B38, size: 0x8, addend: 0x0, symName: '__ZN76_$LT$syn..generics..WherePredicate$u20$as$u20$quote..to_tokens..ToTokens$GT$9to_tokens17he06ae6ad5c5834ebE', symObjAddr: 0x11660, symBinAddr: 0x9B5C0, symSize: 0x1F0 }
  - { offsetInCU: 0x19D45, offset: 0x2FAD8F, size: 0x8, addend: 0x0, symName: '__ZN4core3ptr100drop_in_place$LT$core..option..Option$LT$alloc..boxed..Box$LT$syn..generics..LifetimeDef$GT$$GT$$GT$17h75a6086997697dd7E.llvm.15033232405655643010', symObjAddr: 0x2A0, symBinAddr: 0x8C220, symSize: 0x50 }
  - { offsetInCU: 0x19EC7, offset: 0x2FAF11, size: 0x8, addend: 0x0, symName: '__ZN4core3ptr100drop_in_place$LT$core..option..Option$LT$alloc..boxed..Box$LT$syn..path..GenericArgument$GT$$GT$$GT$17h3d29ec00a8f1918dE', symObjAddr: 0x2F0, symBinAddr: 0x8C270, symSize: 0x50 }
  - { offsetInCU: 0x1A075, offset: 0x2FB0BF, size: 0x8, addend: 0x0, symName: '__ZN4core3ptr101drop_in_place$LT$core..option..Option$LT$alloc..boxed..Box$LT$syn..generics..GenericParam$GT$$GT$$GT$17h1fee4f1c7bd902c4E.llvm.15033232405655643010', symObjAddr: 0x340, symBinAddr: 0x8C2C0, symSize: 0x90 }
  - { offsetInCU: 0x1A24C, offset: 0x2FB296, size: 0x8, addend: 0x0, symName: '__ZN4core3ptr102drop_in_place$LT$syn..punctuated..Punctuated$LT$syn..generics..LifetimeDef$C$syn..token..Comma$GT$$GT$17h6013ea99e87d4528E.llvm.15033232405655643010', symObjAddr: 0x3D0, symBinAddr: 0x8C350, symSize: 0x110 }
  - { offsetInCU: 0x1A7BA, offset: 0x2FB804, size: 0x8, addend: 0x0, symName: '__ZN4core3ptr103drop_in_place$LT$core..option..Option$LT$alloc..boxed..Box$LT$syn..generics..TypeParamBound$GT$$GT$$GT$17h6cee73bc2b2ecea8E', symObjAddr: 0x4E0, symBinAddr: 0x8C460, symSize: 0xA0 }
  - { offsetInCU: 0x1AB25, offset: 0x2FBB6F, size: 0x8, addend: 0x0, symName: '__ZN4core3ptr103drop_in_place$LT$core..option..Option$LT$alloc..boxed..Box$LT$syn..generics..WherePredicate$GT$$GT$$GT$17headad361972eced7E', symObjAddr: 0x580, symBinAddr: 0x8C500, symSize: 0x130 }
  - { offsetInCU: 0x1AE92, offset: 0x2FBEDC, size: 0x8, addend: 0x0, symName: '__ZN4core3ptr103drop_in_place$LT$syn..punctuated..Punctuated$LT$syn..generics..GenericParam$C$syn..token..Comma$GT$$GT$17hae00367f0c570156E.llvm.15033232405655643010', symObjAddr: 0x6B0, symBinAddr: 0x8C630, symSize: 0xF0 }
  - { offsetInCU: 0x1B2B3, offset: 0x2FC2FD, size: 0x8, addend: 0x0, symName: '__ZN4core3ptr103drop_in_place$LT$syn..punctuated..Punctuated$LT$syn..generics..TypeParamBound$C$syn..token..Add$GT$$GT$17he811d520c92af08aE.llvm.15033232405655643010', symObjAddr: 0x7A0, symBinAddr: 0x8C720, symSize: 0xE0 }
  - { offsetInCU: 0x1B87C, offset: 0x2FC8C6, size: 0x8, addend: 0x0, symName: '__ZN4core3ptr104drop_in_place$LT$core..iter..adapters..peekable..Peekable$LT$proc_macro2..token_stream..IntoIter$GT$$GT$17h4b50db874834a2f0E', symObjAddr: 0x880, symBinAddr: 0x8C800, symSize: 0x70 }
  - { offsetInCU: 0x1B9E5, offset: 0x2FCA2F, size: 0x8, addend: 0x0, symName: '__ZN4core3ptr105drop_in_place$LT$syn..punctuated..Punctuated$LT$syn..generics..WherePredicate$C$syn..token..Comma$GT$$GT$17h53c71b5d1c98483dE', symObjAddr: 0x8F0, symBinAddr: 0x8C870, symSize: 0xE0 }
  - { offsetInCU: 0x1BD4F, offset: 0x2FCD99, size: 0x8, addend: 0x0, symName: '__ZN4core3ptr108drop_in_place$LT$syn..punctuated..Punctuated$LT$syn..expr..GenericMethodArgument$C$syn..token..Comma$GT$$GT$17h92cbabe4862b2183E', symObjAddr: 0x9D0, symBinAddr: 0x8C950, symSize: 0x150 }
  - { offsetInCU: 0x1C2A8, offset: 0x2FD2F2, size: 0x8, addend: 0x0, symName: '__ZN4core3ptr34drop_in_place$LT$syn..lit..Lit$GT$17hbe1efe749a08dd9aE', symObjAddr: 0xB20, symBinAddr: 0x8CAA0, symSize: 0x110 }
  - { offsetInCU: 0x1C7D4, offset: 0x2FD81E, size: 0x8, addend: 0x0, symName: '__ZN4core3ptr34drop_in_place$LT$syn..pat..Pat$GT$17h3201f642e43ac2a2E', symObjAddr: 0xC30, symBinAddr: 0x8CBB0, symSize: 0x1190 }
  - { offsetInCU: 0x206EC, offset: 0x301736, size: 0x8, addend: 0x0, symName: '__ZN4core3ptr34drop_in_place$LT$syn..ty..Type$GT$17hfb5d159a08190130E.llvm.15033232405655643010', symObjAddr: 0x1DC0, symBinAddr: 0x8DD40, symSize: 0x580 }
  - { offsetInCU: 0x22031, offset: 0x30307B, size: 0x8, addend: 0x0, symName: '__ZN4core3ptr36drop_in_place$LT$syn..expr..Expr$GT$17hf1921d1b09462bc3E.llvm.15033232405655643010', symObjAddr: 0x2340, symBinAddr: 0x8E2C0, symSize: 0x3290 }
  - { offsetInCU: 0x2C8C2, offset: 0x30D90C, size: 0x8, addend: 0x0, symName: '__ZN4core3ptr36drop_in_place$LT$syn..mac..Macro$GT$17h205613d7ad575f72E', symObjAddr: 0x55D0, symBinAddr: 0x91550, symSize: 0x40 }
  - { offsetInCU: 0x2CA13, offset: 0x30DA5D, size: 0x8, addend: 0x0, symName: '__ZN4core3ptr36drop_in_place$LT$syn..path..Path$GT$17he6d0bec66d66b98aE', symObjAddr: 0x5610, symBinAddr: 0x91590, symSize: 0x230 }
  - { offsetInCU: 0x2D3A9, offset: 0x30E3F3, size: 0x8, addend: 0x0, symName: '__ZN4core3ptr37drop_in_place$LT$syn..stmt..Block$GT$17h3aa429e75a234230E', symObjAddr: 0x5840, symBinAddr: 0x917C0, symSize: 0xD0 }
  - { offsetInCU: 0x2D680, offset: 0x30E6CA, size: 0x8, addend: 0x0, symName: '__ZN4core3ptr38drop_in_place$LT$syn..expr..Member$GT$17ha113d37a67d27aafE', symObjAddr: 0x5910, symBinAddr: 0x91890, symSize: 0x30 }
  - { offsetInCU: 0x2D77C, offset: 0x30E7C6, size: 0x8, addend: 0x0, symName: '__ZN4core3ptr39drop_in_place$LT$proc_macro2..Ident$GT$17hdeec010483268a0dE.llvm.15033232405655643010', symObjAddr: 0x5940, symBinAddr: 0x918C0, symSize: 0x30 }
  - { offsetInCU: 0x2D859, offset: 0x30E8A3, size: 0x8, addend: 0x0, symName: '__ZN4core3ptr39drop_in_place$LT$syn..pat..PatTuple$GT$17h96faeea9832d4c4bE', symObjAddr: 0x5970, symBinAddr: 0x918F0, symSize: 0x100 }
  - { offsetInCU: 0x2DB62, offset: 0x30EBAC, size: 0x8, addend: 0x0, symName: '__ZN4core3ptr40drop_in_place$LT$syn..ty..ReturnType$GT$17h6f97c9fdb958983eE', symObjAddr: 0x5A70, symBinAddr: 0x919F0, symSize: 0x50 }
  - { offsetInCU: 0x2DE08, offset: 0x30EE52, size: 0x8, addend: 0x0, symName: '__ZN4core3ptr43drop_in_place$LT$proc_macro2..TokenTree$GT$17h7270f34cee6d919dE', symObjAddr: 0x5AC0, symBinAddr: 0x91A40, symSize: 0xB0 }
  - { offsetInCU: 0x2E163, offset: 0x30F1AD, size: 0x8, addend: 0x0, symName: '__ZN4core3ptr44drop_in_place$LT$syn..lifetime..Lifetime$GT$17h3858225df033648aE.llvm.15033232405655643010', symObjAddr: 0x5BB0, symBinAddr: 0x91AF0, symSize: 0x30 }
  - { offsetInCU: 0x2E2DB, offset: 0x30F325, size: 0x8, addend: 0x0, symName: '__ZN4core3ptr44drop_in_place$LT$syn..parse..ParseBuffer$GT$17h19c266fcccc430cbE', symObjAddr: 0x5BE0, symBinAddr: 0x91B20, symSize: 0x70 }
  - { offsetInCU: 0x2E657, offset: 0x30F6A1, size: 0x8, addend: 0x0, symName: '__ZN4core3ptr45drop_in_place$LT$proc_macro2..TokenStream$GT$17h2507cb30e765dc85E', symObjAddr: 0x5C50, symBinAddr: 0x91B90, symSize: 0x140 }
  - { offsetInCU: 0x2EAD2, offset: 0x30FB1C, size: 0x8, addend: 0x0, symName: '__ZN4core3ptr45drop_in_place$LT$syn..generics..TypeParam$GT$17h2de9c744cc1fcd2cE.llvm.15033232405655643010', symObjAddr: 0x5D90, symBinAddr: 0x91CD0, symSize: 0x160 }
  - { offsetInCU: 0x2EEFF, offset: 0x30FF49, size: 0x8, addend: 0x0, symName: '__ZN4core3ptr45drop_in_place$LT$syn..path..PathArguments$GT$17h9dd953520dcdc907E', symObjAddr: 0x5EF0, symBinAddr: 0x91E30, symSize: 0x170 }
  - { offsetInCU: 0x2F3CB, offset: 0x310415, size: 0x8, addend: 0x0, symName: '__ZN4core3ptr46drop_in_place$LT$syn..generics..ConstParam$GT$17hcae189adf84ad8c9E.llvm.15033232405655643010', symObjAddr: 0x6060, symBinAddr: 0x91FA0, symSize: 0x170 }
  - { offsetInCU: 0x2F7D9, offset: 0x310823, size: 0x8, addend: 0x0, symName: '__ZN4core3ptr46drop_in_place$LT$syn..generics..TraitBound$GT$17hbb0e80d4578d441cE.llvm.15033232405655643010', symObjAddr: 0x61D0, symBinAddr: 0x92110, symSize: 0x100 }
  - { offsetInCU: 0x2FB0C, offset: 0x310B56, size: 0x8, addend: 0x0, symName: '__ZN4core3ptr47drop_in_place$LT$syn..generics..LifetimeDef$GT$17hd04bc9e6ed9dfb47E.llvm.15033232405655643010', symObjAddr: 0x62D0, symBinAddr: 0x92210, symSize: 0x120 }
  - { offsetInCU: 0x2FF67, offset: 0x310FB1, size: 0x8, addend: 0x0, symName: '__ZN4core3ptr47drop_in_place$LT$syn..path..GenericArgument$GT$17h8c0a0d8c6deaefb4E', symObjAddr: 0x6440, symBinAddr: 0x92330, symSize: 0x110 }
  - { offsetInCU: 0x30282, offset: 0x3112CC, size: 0x8, addend: 0x0, symName: '__ZN4core3ptr58drop_in_place$LT$alloc..vec..Vec$LT$syn..expr..Arm$GT$$GT$17hf3db0825f3d9c861E', symObjAddr: 0x65F0, symBinAddr: 0x92440, symSize: 0xD0 }
  - { offsetInCU: 0x30542, offset: 0x31158C, size: 0x8, addend: 0x0, symName: '__ZN4core3ptr59drop_in_place$LT$alloc..boxed..Box$LT$syn..pat..Pat$GT$$GT$17h7037ce9bbd3729c6E', symObjAddr: 0x66C0, symBinAddr: 0x92510, symSize: 0x50 }
  - { offsetInCU: 0x3069B, offset: 0x3116E5, size: 0x8, addend: 0x0, symName: '__ZN4core3ptr59drop_in_place$LT$alloc..boxed..Box$LT$syn..ty..Type$GT$$GT$17h2eccd13329dbe4faE', symObjAddr: 0x6710, symBinAddr: 0x92560, symSize: 0x50 }
  - { offsetInCU: 0x307F4, offset: 0x31183E, size: 0x8, addend: 0x0, symName: '__ZN4core3ptr61drop_in_place$LT$alloc..boxed..Box$LT$syn..expr..Expr$GT$$GT$17h66094ddc89015516E', symObjAddr: 0x6760, symBinAddr: 0x925B0, symSize: 0x50 }
  - { offsetInCU: 0x309C9, offset: 0x311A13, size: 0x8, addend: 0x0, symName: '__ZN4core3ptr61drop_in_place$LT$syn..path..ParenthesizedGenericArguments$GT$17h21be9b1d7a6fab55E', symObjAddr: 0x67B0, symBinAddr: 0x92600, symSize: 0x170 }
  - { offsetInCU: 0x30FBF, offset: 0x312009, size: 0x8, addend: 0x0, symName: '__ZN4core3ptr63drop_in_place$LT$alloc..boxed..Box$LT$syn..lit..LitRepr$GT$$GT$17h9c509b794406150eE', symObjAddr: 0x6940, symBinAddr: 0x92770, symSize: 0x60 }
  - { offsetInCU: 0x312C6, offset: 0x312310, size: 0x8, addend: 0x0, symName: '__ZN4core3ptr64drop_in_place$LT$alloc..boxed..Box$LT$syn..pat..FieldPat$GT$$GT$17hb167b355d0d4733fE', symObjAddr: 0x69A0, symBinAddr: 0x927D0, symSize: 0x180 }
  - { offsetInCU: 0x319E3, offset: 0x312A2D, size: 0x8, addend: 0x0, symName: '__ZN4core3ptr64drop_in_place$LT$alloc..boxed..Box$LT$syn..ty..BareFnArg$GT$$GT$17h6488be9448346678E', symObjAddr: 0x6B20, symBinAddr: 0x92950, symSize: 0x160 }
  - { offsetInCU: 0x31F79, offset: 0x312FC3, size: 0x8, addend: 0x0, symName: '__ZN4core3ptr64drop_in_place$LT$alloc..vec..Vec$LT$syn..attr..Attribute$GT$$GT$17h386324d8ea9bc309E.llvm.15033232405655643010', symObjAddr: 0x6C80, symBinAddr: 0x92AB0, symSize: 0xF0 }
  - { offsetInCU: 0x3226F, offset: 0x3132B9, size: 0x8, addend: 0x0, symName: '__ZN4core3ptr65drop_in_place$LT$alloc..vec..Vec$LT$proc_macro..TokenTree$GT$$GT$17hc3670dd5608d5259E', symObjAddr: 0x6D90, symBinAddr: 0x92BA0, symSize: 0x110 }
  - { offsetInCU: 0x32667, offset: 0x3136B1, size: 0x8, addend: 0x0, symName: '__ZN4core3ptr65drop_in_place$LT$core..option..Option$LT$syn..expr..Label$GT$$GT$17ha723640fd01bec5dE', symObjAddr: 0x6EA0, symBinAddr: 0x92CB0, symSize: 0x30 }
  - { offsetInCU: 0x327A1, offset: 0x3137EB, size: 0x8, addend: 0x0, symName: '__ZN4core3ptr66drop_in_place$LT$core..option..Option$LT$syn..ty..Variadic$GT$$GT$17hc32134bb3933b0dfE', symObjAddr: 0x6ED0, symBinAddr: 0x92CE0, symSize: 0xF0 }
  - { offsetInCU: 0x32ACB, offset: 0x313B15, size: 0x8, addend: 0x0, symName: '__ZN4core3ptr67drop_in_place$LT$alloc..boxed..Box$LT$syn..expr..FieldValue$GT$$GT$17h8df780aa600ea8c2E', symObjAddr: 0x6FC0, symBinAddr: 0x92DD0, symSize: 0x160 }
  - { offsetInCU: 0x33041, offset: 0x31408B, size: 0x8, addend: 0x0, symName: '__ZN4core3ptr68drop_in_place$LT$alloc..boxed..Box$LT$syn..path..PathSegment$GT$$GT$17h1957b54eed39c0bbE', symObjAddr: 0x7120, symBinAddr: 0x92F30, symSize: 0x190 }
  - { offsetInCU: 0x3376A, offset: 0x3147B4, size: 0x8, addend: 0x0, symName: '__ZN4core3ptr72drop_in_place$LT$alloc..boxed..Box$LT$syn..path..GenericArgument$GT$$GT$17ha8f8136d0c2b505bE', symObjAddr: 0x72B0, symBinAddr: 0x930C0, symSize: 0x180 }
  - { offsetInCU: 0x33E0A, offset: 0x314E54, size: 0x8, addend: 0x0, symName: '__ZN4core3ptr72drop_in_place$LT$core..option..Option$LT$syn..lifetime..Lifetime$GT$$GT$17h31b55b93749c174dE', symObjAddr: 0x7430, symBinAddr: 0x93240, symSize: 0x30 }
  - { offsetInCU: 0x33F25, offset: 0x314F6F, size: 0x8, addend: 0x0, symName: '__ZN4core3ptr75drop_in_place$LT$alloc..boxed..Box$LT$syn..generics..TypeParamBound$GT$$GT$17h8f156ce07ea0b8b2E', symObjAddr: 0x7460, symBinAddr: 0x93270, symSize: 0x150 }
  - { offsetInCU: 0x344D3, offset: 0x31551D, size: 0x8, addend: 0x0, symName: '__ZN4core3ptr78drop_in_place$LT$alloc..boxed..Box$LT$syn..expr..GenericMethodArgument$GT$$GT$17h3384c00b5bd54c2aE', symObjAddr: 0x76A0, symBinAddr: 0x933C0, symSize: 0x60 }
  - { offsetInCU: 0x346A6, offset: 0x3156F0, size: 0x8, addend: 0x0, symName: '__ZN4core3ptr86drop_in_place$LT$syn..punctuated..Punctuated$LT$syn..pat..Pat$C$syn..token..Or$GT$$GT$17h1078c5d178d382b7E', symObjAddr: 0x7720, symBinAddr: 0x93420, symSize: 0x120 }
  - { offsetInCU: 0x34B21, offset: 0x315B6B, size: 0x8, addend: 0x0, symName: '__ZN4core3ptr87drop_in_place$LT$core..option..Option$LT$alloc..boxed..Box$LT$syn..pat..Pat$GT$$GT$$GT$17ha7f5fe0e6f73e820E', symObjAddr: 0x7840, symBinAddr: 0x93540, symSize: 0x50 }
  - { offsetInCU: 0x34C91, offset: 0x315CDB, size: 0x8, addend: 0x0, symName: '__ZN4core3ptr87drop_in_place$LT$core..option..Option$LT$alloc..boxed..Box$LT$syn..ty..Type$GT$$GT$$GT$17hc8292da82d129de3E', symObjAddr: 0x7890, symBinAddr: 0x93590, symSize: 0x50 }
  - { offsetInCU: 0x34E01, offset: 0x315E4B, size: 0x8, addend: 0x0, symName: '__ZN4core3ptr89drop_in_place$LT$core..option..Option$LT$alloc..boxed..Box$LT$syn..expr..Expr$GT$$GT$$GT$17hdc211ccd33f196f2E', symObjAddr: 0x78E0, symBinAddr: 0x935E0, symSize: 0x50 }
  - { offsetInCU: 0x34FAF, offset: 0x315FF9, size: 0x8, addend: 0x0, symName: '__ZN4core3ptr89drop_in_place$LT$syn..punctuated..Punctuated$LT$syn..pat..Pat$C$syn..token..Comma$GT$$GT$17hf8371102b0500adcE', symObjAddr: 0x7930, symBinAddr: 0x93630, symSize: 0x120 }
  - { offsetInCU: 0x35441, offset: 0x31648B, size: 0x8, addend: 0x0, symName: '__ZN4core3ptr89drop_in_place$LT$syn..punctuated..Punctuated$LT$syn..ty..Type$C$syn..token..Comma$GT$$GT$17h1c6e43341fabea97E', symObjAddr: 0x7A50, symBinAddr: 0x93750, symSize: 0x120 }
  - { offsetInCU: 0x358FA, offset: 0x316944, size: 0x8, addend: 0x0, symName: '__ZN4core3ptr91drop_in_place$LT$syn..punctuated..Punctuated$LT$syn..expr..Expr$C$syn..token..Comma$GT$$GT$17hd2dfeb0c522d9a18E', symObjAddr: 0x7B70, symBinAddr: 0x93870, symSize: 0x120 }
  - { offsetInCU: 0x35D88, offset: 0x316DD2, size: 0x8, addend: 0x0, symName: '__ZN4core3ptr94drop_in_place$LT$syn..punctuated..Punctuated$LT$syn..pat..FieldPat$C$syn..token..Comma$GT$$GT$17h612cbc9066d5afb1E', symObjAddr: 0x7C90, symBinAddr: 0x93990, symSize: 0xF0 }
  - { offsetInCU: 0x36087, offset: 0x3170D1, size: 0x8, addend: 0x0, symName: '__ZN4core3ptr94drop_in_place$LT$syn..punctuated..Punctuated$LT$syn..ty..BareFnArg$C$syn..token..Comma$GT$$GT$17ha9a668ce9972795bE', symObjAddr: 0x7D80, symBinAddr: 0x93A80, symSize: 0xF0 }
  - { offsetInCU: 0x36384, offset: 0x3173CE, size: 0x8, addend: 0x0, symName: '__ZN4core3ptr96drop_in_place$LT$core..option..Option$LT$alloc..boxed..Box$LT$syn..path..PathSegment$GT$$GT$$GT$17h2e81cbe3c70bb71cE', symObjAddr: 0x7E70, symBinAddr: 0x93B70, symSize: 0x180 }
  - { offsetInCU: 0x36A41, offset: 0x317A8B, size: 0x8, addend: 0x0, symName: '__ZN4core3ptr97drop_in_place$LT$syn..punctuated..Punctuated$LT$syn..expr..FieldValue$C$syn..token..Comma$GT$$GT$17h11a5fffb46adfb11E', symObjAddr: 0x7FF0, symBinAddr: 0x93CF0, symSize: 0xF0 }
  - { offsetInCU: 0x36DBA, offset: 0x317E04, size: 0x8, addend: 0x0, symName: '__ZN4core3ptr97drop_in_place$LT$syn..punctuated..Punctuated$LT$syn..lifetime..Lifetime$C$syn..token..Add$GT$$GT$17h5c54dea2c838d109E.llvm.15033232405655643010', symObjAddr: 0x80E0, symBinAddr: 0x93DE0, symSize: 0xD0 }
  - { offsetInCU: 0x3722E, offset: 0x318278, size: 0x8, addend: 0x0, symName: '__ZN4core3ptr99drop_in_place$LT$syn..punctuated..Punctuated$LT$syn..path..PathSegment$C$syn..token..Colon2$GT$$GT$17hb961e4d7989a33ceE', symObjAddr: 0x81B0, symBinAddr: 0x93EB0, symSize: 0x140 }
  - { offsetInCU: 0x40C87, offset: 0x321CD1, size: 0x8, addend: 0x0, symName: '__ZN52_$LT$$RF$T$u20$as$u20$quote..to_tokens..ToTokens$GT$9to_tokens17h763a6e2187bc8438E', symObjAddr: 0x8300, symBinAddr: 0x93FF0, symSize: 0x230 }
  - { offsetInCU: 0x429D8, offset: 0x323A22, size: 0x8, addend: 0x0, symName: '__ZN3syn8generics7parsing47_$LT$impl$u20$syn..generics..TypeParamBound$GT$14parse_multiple17h414c253044b9c9bcE', symObjAddr: 0xC6E0, symBinAddr: 0x96E10, symSize: 0x480 }
  - { offsetInCU: 0x1E, offset: 0x32DF27, size: 0x8, addend: 0x0, symName: '__ZN4core3ptr39drop_in_place$LT$proc_macro2..Group$GT$17ha95b199d42755248E.llvm.14211237159924200989', symObjAddr: 0x0, symBinAddr: 0x9B7B0, symSize: 0x60 }
  - { offsetInCU: 0xEDD, offset: 0x32EDE6, size: 0x8, addend: 0x0, symName: '__ZN4core3ptr39drop_in_place$LT$proc_macro2..Group$GT$17ha95b199d42755248E.llvm.14211237159924200989', symObjAddr: 0x0, symBinAddr: 0x9B7B0, symSize: 0x60 }
  - { offsetInCU: 0x10D7, offset: 0x32EFE0, size: 0x8, addend: 0x0, symName: '__ZN4core3ptr45drop_in_place$LT$proc_macro2..TokenStream$GT$17h2507cb30e765dc85E.llvm.14211237159924200989', symObjAddr: 0x60, symBinAddr: 0x9B810, symSize: 0x140 }
  - { offsetInCU: 0x1533, offset: 0x32F43C, size: 0x8, addend: 0x0, symName: '__ZN4core3ptr65drop_in_place$LT$alloc..vec..Vec$LT$proc_macro..TokenTree$GT$$GT$17hc3670dd5608d5259E.llvm.14211237159924200989', symObjAddr: 0x1A0, symBinAddr: 0x9B950, symSize: 0x110 }
  - { offsetInCU: 0x69A8, offset: 0x3348B1, size: 0x8, addend: 0x0, symName: __ZN3syn5token8printing5punct17h3863ab1e289f621aE, symObjAddr: 0x2B0, symBinAddr: 0x9BA60, symSize: 0x260 }
  - { offsetInCU: 0x70C6, offset: 0x334FCF, size: 0x8, addend: 0x0, symName: __ZN3syn5token8printing5delim17h019e4cc80eeedf30E, symObjAddr: 0x590, symBinAddr: 0x9BCC0, symSize: 0x2A0 }
  - { offsetInCU: 0x7A14, offset: 0x33591D, size: 0x8, addend: 0x0, symName: __ZN3syn5token8printing5delim17h023deeaed71bf710E, symObjAddr: 0x830, symBinAddr: 0x9BF60, symSize: 0x220 }
  - { offsetInCU: 0x822C, offset: 0x336135, size: 0x8, addend: 0x0, symName: __ZN3syn5token8printing5delim17h02d9b44466875e2dE, symObjAddr: 0xA50, symBinAddr: 0x9C180, symSize: 0x0 }
  - { offsetInCU: 0x8BCE, offset: 0x336AD7, size: 0x8, addend: 0x0, symName: __ZN3syn5token8printing5delim17h0f7beeba14842f12E, symObjAddr: 0xCE0, symBinAddr: 0x9C410, symSize: 0x220 }
  - { offsetInCU: 0x93C2, offset: 0x3372CB, size: 0x8, addend: 0x0, symName: __ZN3syn5token8printing5delim17h1415f7450635a452E, symObjAddr: 0xF00, symBinAddr: 0x9C630, symSize: 0x2B0 }
  - { offsetInCU: 0x9976, offset: 0x33787F, size: 0x8, addend: 0x0, symName: __ZN3syn5token8printing5delim17h142f2f3e7a9b62eaE, symObjAddr: 0x11B0, symBinAddr: 0x9C8E0, symSize: 0x3B0 }
  - { offsetInCU: 0xA70C, offset: 0x338615, size: 0x8, addend: 0x0, symName: __ZN3syn5token8printing5delim17h17575311f406a584E, symObjAddr: 0x1560, symBinAddr: 0x9CC90, symSize: 0x0 }
  - { offsetInCU: 0xAF1A, offset: 0x338E23, size: 0x8, addend: 0x0, symName: __ZN3syn5token8printing5delim17h29531b57c5122a96E, symObjAddr: 0x1780, symBinAddr: 0x9CEB0, symSize: 0x1E0 }
  - { offsetInCU: 0xB459, offset: 0x339362, size: 0x8, addend: 0x0, symName: __ZN3syn5token8printing5delim17h2ef8d94ef3494686E, symObjAddr: 0x1960, symBinAddr: 0x9D090, symSize: 0x290 }
  - { offsetInCU: 0xBE17, offset: 0x339D20, size: 0x8, addend: 0x0, symName: __ZN3syn5token8printing5delim17h38a487055f1d8275E, symObjAddr: 0x1BF0, symBinAddr: 0x9D320, symSize: 0x220 }
  - { offsetInCU: 0xC5FD, offset: 0x33A506, size: 0x8, addend: 0x0, symName: __ZN3syn5token8printing5delim17h41a5957732e23308E, symObjAddr: 0x1E10, symBinAddr: 0x9D540, symSize: 0x1D0 }
  - { offsetInCU: 0xCB3E, offset: 0x33AA47, size: 0x8, addend: 0x0, symName: __ZN3syn5token8printing5delim17h4c4a22211c6808c1E, symObjAddr: 0x2230, symBinAddr: 0x9D710, symSize: 0x2B0 }
  - { offsetInCU: 0xD0F5, offset: 0x33AFFE, size: 0x8, addend: 0x0, symName: __ZN3syn5token8printing5delim17h554a28bddf415661E, symObjAddr: 0x24E0, symBinAddr: 0x9D9C0, symSize: 0x220 }
  - { offsetInCU: 0xD8FF, offset: 0x33B808, size: 0x8, addend: 0x0, symName: __ZN3syn5token8printing5delim17h5ba0d0e92cd9def8E, symObjAddr: 0x2700, symBinAddr: 0x9DBE0, symSize: 0x2B0 }
  - { offsetInCU: 0xDEB6, offset: 0x33BDBF, size: 0x8, addend: 0x0, symName: __ZN3syn5token8printing5delim17h6182b83866d9b87fE, symObjAddr: 0x29B0, symBinAddr: 0x9DE90, symSize: 0x2B0 }
  - { offsetInCU: 0xE46A, offset: 0x33C373, size: 0x8, addend: 0x0, symName: __ZN3syn5token8printing5delim17h6526a3890d5c3217E, symObjAddr: 0x2C60, symBinAddr: 0x9E140, symSize: 0x0 }
  - { offsetInCU: 0xE914, offset: 0x33C81D, size: 0x8, addend: 0x0, symName: __ZN3syn5token8printing5delim17h79fcc5f00065522aE, symObjAddr: 0x3030, symBinAddr: 0x9E2F0, symSize: 0x0 }
  - { offsetInCU: 0xEDBE, offset: 0x33CCC7, size: 0x8, addend: 0x0, symName: __ZN3syn5token8printing5delim17h9bad1fca4733ca63E, symObjAddr: 0x31E0, symBinAddr: 0x9E4A0, symSize: 0x310 }
  - { offsetInCU: 0xF755, offset: 0x33D65E, size: 0x8, addend: 0x0, symName: __ZN3syn5token8printing5delim17h9c26cfb3a4335be2E, symObjAddr: 0x34F0, symBinAddr: 0x9E7B0, symSize: 0x1B0 }
  - { offsetInCU: 0xFC34, offset: 0x33DB3D, size: 0x8, addend: 0x0, symName: __ZN3syn5token8printing5delim17h9c4685bad8e071f9E, symObjAddr: 0x36A0, symBinAddr: 0x9E960, symSize: 0x0 }
  - { offsetInCU: 0x10113, offset: 0x33E01C, size: 0x8, addend: 0x0, symName: __ZN3syn5token8printing5delim17ha14b854924d5b49aE, symObjAddr: 0x3850, symBinAddr: 0x9EB10, symSize: 0x2C0 }
  - { offsetInCU: 0x106BE, offset: 0x33E5C7, size: 0x8, addend: 0x0, symName: __ZN3syn5token8printing5delim17ha638675b96107a06E, symObjAddr: 0x3B10, symBinAddr: 0x9EDD0, symSize: 0x280 }
  - { offsetInCU: 0x10FAE, offset: 0x33EEB7, size: 0x8, addend: 0x0, symName: __ZN3syn5token8printing5delim17haae905c69d3b60bbE, symObjAddr: 0x3D90, symBinAddr: 0x9F050, symSize: 0x1E0 }
  - { offsetInCU: 0x11593, offset: 0x33F49C, size: 0x8, addend: 0x0, symName: __ZN3syn5token8printing5delim17hb06a3e7d045ef858E, symObjAddr: 0x3F70, symBinAddr: 0x9F230, symSize: 0x220 }
  - { offsetInCU: 0x11DAF, offset: 0x33FCB8, size: 0x8, addend: 0x0, symName: __ZN3syn5token8printing5delim17hb93d963452f86111E, symObjAddr: 0x4190, symBinAddr: 0x9F450, symSize: 0x220 }
  - { offsetInCU: 0x125B0, offset: 0x3404B9, size: 0x8, addend: 0x0, symName: __ZN3syn5token8printing5delim17hba5a61f4b62d8fa5E, symObjAddr: 0x43B0, symBinAddr: 0x9F670, symSize: 0x0 }
  - { offsetInCU: 0x12A5A, offset: 0x340963, size: 0x8, addend: 0x0, symName: __ZN3syn5token8printing5delim17hbd8f8399d02f362eE, symObjAddr: 0x4560, symBinAddr: 0x9F820, symSize: 0x2B0 }
  - { offsetInCU: 0x12FFC, offset: 0x340F05, size: 0x8, addend: 0x0, symName: __ZN3syn5token8printing5delim17hc23d09e6e4d63ad7E, symObjAddr: 0x4810, symBinAddr: 0x9FAD0, symSize: 0x400 }
  - { offsetInCU: 0x13FB3, offset: 0x341EBC, size: 0x8, addend: 0x0, symName: __ZN3syn5token8printing5delim17hc2bd52a28a8d51abE, symObjAddr: 0x4C10, symBinAddr: 0x9FED0, symSize: 0x2B0 }
  - { offsetInCU: 0x14557, offset: 0x342460, size: 0x8, addend: 0x0, symName: __ZN3syn5token8printing5delim17hd014cb93879100d4E, symObjAddr: 0x4EC0, symBinAddr: 0xA0180, symSize: 0x1B0 }
  - { offsetInCU: 0x14A38, offset: 0x342941, size: 0x8, addend: 0x0, symName: __ZN3syn5token8printing5delim17hd09f06ee19add108E, symObjAddr: 0x5070, symBinAddr: 0xA0330, symSize: 0x220 }
  - { offsetInCU: 0x1521E, offset: 0x343127, size: 0x8, addend: 0x0, symName: __ZN3syn5token8printing5delim17hde66530421cb3a84E, symObjAddr: 0x5290, symBinAddr: 0xA0550, symSize: 0x220 }
  - { offsetInCU: 0x15A24, offset: 0x34392D, size: 0x8, addend: 0x0, symName: __ZN3syn5token8printing5delim17he21ecbe2536ad586E, symObjAddr: 0x54B0, symBinAddr: 0xA0770, symSize: 0x1E0 }
  - { offsetInCU: 0x15F2D, offset: 0x343E36, size: 0x8, addend: 0x0, symName: __ZN3syn5token8printing5delim17he85d0be4d6469f76E, symObjAddr: 0x5690, symBinAddr: 0xA0950, symSize: 0x220 }
  - { offsetInCU: 0x16721, offset: 0x34462A, size: 0x8, addend: 0x0, symName: __ZN3syn5token8printing5delim17he920daaed1c3e39aE, symObjAddr: 0x58B0, symBinAddr: 0xA0B70, symSize: 0x0 }
  - { offsetInCU: 0x16C02, offset: 0x344B0B, size: 0x8, addend: 0x0, symName: __ZN3syn5token8printing5delim17hefb765d07a8d3e16E, symObjAddr: 0x5A60, symBinAddr: 0xA0D20, symSize: 0x3A0 }
  - { offsetInCU: 0x17AB6, offset: 0x3459BF, size: 0x8, addend: 0x0, symName: __ZN3syn5token8printing5delim17hf8761a6bae6544d4E, symObjAddr: 0x5E00, symBinAddr: 0xA10C0, symSize: 0x260 }
  - { offsetInCU: 0x1E, offset: 0x357FAB, size: 0x8, addend: 0x0, symName: '__ZN4core3ptr100drop_in_place$LT$core..option..Option$LT$alloc..boxed..Box$LT$syn..generics..LifetimeDef$GT$$GT$$GT$17h75a6086997697dd7E', symObjAddr: 0x0, symBinAddr: 0xA1320, symSize: 0x50 }
  - { offsetInCU: 0xB2, offset: 0x35803F, size: 0x8, addend: 0x0, symName: '__ZN58_$LT$alloc..string..String$u20$as$u20$core..fmt..Write$GT$10write_char17h04bc467bd68a934bE', symObjAddr: 0x8F90, symBinAddr: 0xAA2B0, symSize: 0x140 }
  - { offsetInCU: 0x4B7, offset: 0x358444, size: 0x8, addend: 0x0, symName: '__ZN58_$LT$alloc..string..String$u20$as$u20$core..fmt..Write$GT$9write_str17h46a93205c3443fbaE', symObjAddr: 0x90D0, symBinAddr: 0xAA3F0, symSize: 0x60 }
  - { offsetInCU: 0x15D0, offset: 0x35955D, size: 0x8, addend: 0x0, symName: __ZN5alloc5alloc15exchange_malloc17h9a87608d0224859dE, symObjAddr: 0x91A0, symBinAddr: 0xAA4C0, symSize: 0x40 }
  - { offsetInCU: 0x41A8, offset: 0x35C135, size: 0x8, addend: 0x0, symName: '__ZN4core3ptr100drop_in_place$LT$core..option..Option$LT$alloc..boxed..Box$LT$syn..generics..LifetimeDef$GT$$GT$$GT$17h75a6086997697dd7E', symObjAddr: 0x0, symBinAddr: 0xA1320, symSize: 0x50 }
  - { offsetInCU: 0x432A, offset: 0x35C2B7, size: 0x8, addend: 0x0, symName: '__ZN4core3ptr100drop_in_place$LT$core..option..Option$LT$alloc..boxed..Box$LT$syn..path..GenericArgument$GT$$GT$$GT$17h3d29ec00a8f1918dE', symObjAddr: 0x50, symBinAddr: 0xA1370, symSize: 0x50 }
  - { offsetInCU: 0x460E, offset: 0x35C59B, size: 0x8, addend: 0x0, symName: '__ZN4core3ptr101drop_in_place$LT$core..option..Option$LT$alloc..boxed..Box$LT$syn..generics..GenericParam$GT$$GT$$GT$17h1fee4f1c7bd902c4E', symObjAddr: 0xA0, symBinAddr: 0xA13C0, symSize: 0x310 }
  - { offsetInCU: 0x5049, offset: 0x35CFD6, size: 0x8, addend: 0x0, symName: '__ZN4core3ptr103drop_in_place$LT$core..option..Option$LT$alloc..boxed..Box$LT$syn..generics..WherePredicate$GT$$GT$$GT$17headad361972eced7E', symObjAddr: 0x3B0, symBinAddr: 0xA16D0, symSize: 0x120 }
  - { offsetInCU: 0x5363, offset: 0x35D2F0, size: 0x8, addend: 0x0, symName: '__ZN4core3ptr103drop_in_place$LT$syn..punctuated..Punctuated$LT$syn..generics..GenericParam$C$syn..token..Comma$GT$$GT$17hae00367f0c570156E', symObjAddr: 0x4D0, symBinAddr: 0xA17F0, symSize: 0x70 }
  - { offsetInCU: 0x567E, offset: 0x35D60B, size: 0x8, addend: 0x0, symName: '__ZN4core3ptr103drop_in_place$LT$syn..punctuated..Punctuated$LT$syn..generics..TypeParamBound$C$syn..token..Add$GT$$GT$17he811d520c92af08aE', symObjAddr: 0x540, symBinAddr: 0xA1860, symSize: 0xF0 }
  - { offsetInCU: 0x5C4A, offset: 0x35DBD7, size: 0x8, addend: 0x0, symName: '__ZN4core3ptr108drop_in_place$LT$syn..punctuated..Punctuated$LT$syn..expr..GenericMethodArgument$C$syn..token..Comma$GT$$GT$17h92cbabe4862b2183E', symObjAddr: 0x630, symBinAddr: 0xA1950, symSize: 0x150 }
  - { offsetInCU: 0x6127, offset: 0x35E0B4, size: 0x8, addend: 0x0, symName: '__ZN4core3ptr126drop_in_place$LT$core..option..Option$LT$$LP$syn..token..And$C$core..option..Option$LT$syn..lifetime..Lifetime$GT$$RP$$GT$$GT$17h5979d670cb45416cE', symObjAddr: 0x780, symBinAddr: 0xA1AA0, symSize: 0x30 }
  - { offsetInCU: 0x633A, offset: 0x35E2C7, size: 0x8, addend: 0x0, symName: '__ZN4core3ptr34drop_in_place$LT$syn..lit..Lit$GT$17hbe1efe749a08dd9aE', symObjAddr: 0x7B0, symBinAddr: 0xA1AD0, symSize: 0x110 }
  - { offsetInCU: 0x67EA, offset: 0x35E777, size: 0x8, addend: 0x0, symName: '__ZN4core3ptr34drop_in_place$LT$syn..pat..Pat$GT$17h3201f642e43ac2a2E', symObjAddr: 0x8C0, symBinAddr: 0xA1BE0, symSize: 0xFA0 }
  - { offsetInCU: 0x9D58, offset: 0x361CE5, size: 0x8, addend: 0x0, symName: '__ZN4core3ptr34drop_in_place$LT$syn..ty..Type$GT$17hfb5d159a08190130E', symObjAddr: 0x1860, symBinAddr: 0xA2B80, symSize: 0x580 }
  - { offsetInCU: 0xB669, offset: 0x3635F6, size: 0x8, addend: 0x0, symName: '__ZN4core3ptr36drop_in_place$LT$syn..expr..Expr$GT$17hf1921d1b09462bc3E', symObjAddr: 0x1DE0, symBinAddr: 0xA3100, symSize: 0x3290 }
  - { offsetInCU: 0x15EFA, offset: 0x36DE87, size: 0x8, addend: 0x0, symName: '__ZN4core3ptr36drop_in_place$LT$syn..mac..Macro$GT$17h205613d7ad575f72E', symObjAddr: 0x5070, symBinAddr: 0xA6390, symSize: 0x40 }
  - { offsetInCU: 0x1604B, offset: 0x36DFD8, size: 0x8, addend: 0x0, symName: '__ZN4core3ptr36drop_in_place$LT$syn..path..Path$GT$17he6d0bec66d66b98aE', symObjAddr: 0x50B0, symBinAddr: 0xA63D0, symSize: 0x230 }
  - { offsetInCU: 0x16A1F, offset: 0x36E9AC, size: 0x8, addend: 0x0, symName: '__ZN4core3ptr37drop_in_place$LT$syn..item..FnArg$GT$17h52a13b3505938de2E', symObjAddr: 0x52E0, symBinAddr: 0xA6600, symSize: 0x160 }
  - { offsetInCU: 0x16EAB, offset: 0x36EE38, size: 0x8, addend: 0x0, symName: '__ZN4core3ptr37drop_in_place$LT$syn..stmt..Block$GT$17h3aa429e75a234230E', symObjAddr: 0x5440, symBinAddr: 0xA6760, symSize: 0xD0 }
  - { offsetInCU: 0x17182, offset: 0x36F10F, size: 0x8, addend: 0x0, symName: '__ZN4core3ptr38drop_in_place$LT$syn..expr..Member$GT$17ha113d37a67d27aafE', symObjAddr: 0x5510, symBinAddr: 0xA6830, symSize: 0x30 }
  - { offsetInCU: 0x1727E, offset: 0x36F20B, size: 0x8, addend: 0x0, symName: '__ZN4core3ptr38drop_in_place$LT$syn..pat..PatType$GT$17h833e3c7992399b01E', symObjAddr: 0x5540, symBinAddr: 0xA6860, symSize: 0x160 }
  - { offsetInCU: 0x17842, offset: 0x36F7CF, size: 0x8, addend: 0x0, symName: '__ZN4core3ptr38drop_in_place$LT$syn..ty..Variadic$GT$17h354585068960ea23E', symObjAddr: 0x56A0, symBinAddr: 0xA69C0, symSize: 0xF0 }
  - { offsetInCU: 0x17B4F, offset: 0x36FADC, size: 0x8, addend: 0x0, symName: '__ZN4core3ptr39drop_in_place$LT$proc_macro2..Ident$GT$17hdeec010483268a0dE', symObjAddr: 0x5790, symBinAddr: 0xA6AB0, symSize: 0x30 }
  - { offsetInCU: 0x17CA8, offset: 0x36FC35, size: 0x8, addend: 0x0, symName: '__ZN4core3ptr39drop_in_place$LT$syn..pat..PatTuple$GT$17h96faeea9832d4c4bE', symObjAddr: 0x57C0, symBinAddr: 0xA6AE0, symSize: 0x1F0 }
  - { offsetInCU: 0x1841D, offset: 0x3703AA, size: 0x8, addend: 0x0, symName: '__ZN4core3ptr39drop_in_place$LT$syn..ty..TypeGroup$GT$17h120a69ce327d3900E', symObjAddr: 0x59B0, symBinAddr: 0xA6CD0, symSize: 0x50 }
  - { offsetInCU: 0x18661, offset: 0x3705EE, size: 0x8, addend: 0x0, symName: '__ZN4core3ptr40drop_in_place$LT$syn..item..ImplItem$GT$17hb8d8f44c0f04c0e3E', symObjAddr: 0x5A00, symBinAddr: 0xA6D20, symSize: 0x6C0 }
  - { offsetInCU: 0x19B2C, offset: 0x371AB9, size: 0x8, addend: 0x0, symName: '__ZN4core3ptr40drop_in_place$LT$syn..ty..ReturnType$GT$17h6f97c9fdb958983eE', symObjAddr: 0x60C0, symBinAddr: 0xA73E0, symSize: 0x50 }
  - { offsetInCU: 0x19C9C, offset: 0x371C29, size: 0x8, addend: 0x0, symName: '__ZN4core3ptr41drop_in_place$LT$syn..item..Signature$GT$17hd57cfba25994ce69E', symObjAddr: 0x6110, symBinAddr: 0xA7430, symSize: 0x220 }
  - { offsetInCU: 0x1A65E, offset: 0x3725EB, size: 0x8, addend: 0x0, symName: '__ZN4core3ptr41drop_in_place$LT$syn..item..TraitItem$GT$17h4b7d90364e3eddf8E', symObjAddr: 0x6330, symBinAddr: 0xA7650, symSize: 0x630 }
  - { offsetInCU: 0x1B7F0, offset: 0x37377D, size: 0x8, addend: 0x0, symName: '__ZN4core3ptr42drop_in_place$LT$alloc..string..String$GT$17hef974c60cd9900dbE', symObjAddr: 0x6960, symBinAddr: 0xA7C80, symSize: 0x20 }
  - { offsetInCU: 0x1B8F8, offset: 0x373885, size: 0x8, addend: 0x0, symName: '__ZN4core3ptr42drop_in_place$LT$syn..data..Visibility$GT$17h27e8b6ad307fcbc7E', symObjAddr: 0x6980, symBinAddr: 0xA7CA0, symSize: 0x60 }
  - { offsetInCU: 0x1BB9F, offset: 0x373B2C, size: 0x8, addend: 0x0, symName: '__ZN4core3ptr43drop_in_place$LT$proc_macro2..TokenTree$GT$17h7270f34cee6d919dE', symObjAddr: 0x69E0, symBinAddr: 0xA7D00, symSize: 0xB0 }
  - { offsetInCU: 0x1BF19, offset: 0x373EA6, size: 0x8, addend: 0x0, symName: '__ZN4core3ptr44drop_in_place$LT$syn..generics..Generics$GT$17he0d6eb6045503c84E', symObjAddr: 0x6A90, symBinAddr: 0xA7DB0, symSize: 0xA0 }
  - { offsetInCU: 0x1C185, offset: 0x374112, size: 0x8, addend: 0x0, symName: '__ZN4core3ptr44drop_in_place$LT$syn..lifetime..Lifetime$GT$17h3858225df033648aE', symObjAddr: 0x6B30, symBinAddr: 0xA7E50, symSize: 0x30 }
  - { offsetInCU: 0x1C2FD, offset: 0x37428A, size: 0x8, addend: 0x0, symName: '__ZN4core3ptr44drop_in_place$LT$syn..parse..ParseBuffer$GT$17h19c266fcccc430cbE', symObjAddr: 0x6B60, symBinAddr: 0xA7E80, symSize: 0x70 }
  - { offsetInCU: 0x1C679, offset: 0x374606, size: 0x8, addend: 0x0, symName: '__ZN4core3ptr45drop_in_place$LT$proc_macro2..TokenStream$GT$17h2507cb30e765dc85E', symObjAddr: 0x6BD0, symBinAddr: 0xA7EF0, symSize: 0x140 }
  - { offsetInCU: 0x1CAD5, offset: 0x374A62, size: 0x8, addend: 0x0, symName: '__ZN4core3ptr47drop_in_place$LT$syn..generics..LifetimeDef$GT$17hd04bc9e6ed9dfb47E', symObjAddr: 0x6D10, symBinAddr: 0xA8030, symSize: 0x120 }
  - { offsetInCU: 0x1CF30, offset: 0x374EBD, size: 0x8, addend: 0x0, symName: '__ZN4core3ptr47drop_in_place$LT$syn..path..GenericArgument$GT$17h8c0a0d8c6deaefb4E', symObjAddr: 0x6E30, symBinAddr: 0xA8150, symSize: 0x110 }
  - { offsetInCU: 0x1D24B, offset: 0x3751D8, size: 0x8, addend: 0x0, symName: '__ZN4core3ptr58drop_in_place$LT$alloc..vec..Vec$LT$syn..expr..Arm$GT$$GT$17hf3db0825f3d9c861E', symObjAddr: 0x6F40, symBinAddr: 0xA8260, symSize: 0xD0 }
  - { offsetInCU: 0x1D50B, offset: 0x375498, size: 0x8, addend: 0x0, symName: '__ZN4core3ptr59drop_in_place$LT$alloc..boxed..Box$LT$syn..pat..Pat$GT$$GT$17h7037ce9bbd3729c6E', symObjAddr: 0x7010, symBinAddr: 0xA8330, symSize: 0x50 }
  - { offsetInCU: 0x1D664, offset: 0x3755F1, size: 0x8, addend: 0x0, symName: '__ZN4core3ptr59drop_in_place$LT$alloc..boxed..Box$LT$syn..ty..Type$GT$$GT$17h2eccd13329dbe4faE', symObjAddr: 0x7060, symBinAddr: 0xA8380, symSize: 0x50 }
  - { offsetInCU: 0x1D7BD, offset: 0x37574A, size: 0x8, addend: 0x0, symName: '__ZN4core3ptr61drop_in_place$LT$alloc..boxed..Box$LT$syn..expr..Expr$GT$$GT$17h66094ddc89015516E', symObjAddr: 0x70B0, symBinAddr: 0xA83D0, symSize: 0x50 }
  - { offsetInCU: 0x1D992, offset: 0x37591F, size: 0x8, addend: 0x0, symName: '__ZN4core3ptr61drop_in_place$LT$syn..path..ParenthesizedGenericArguments$GT$17h21be9b1d7a6fab55E', symObjAddr: 0x7100, symBinAddr: 0xA8420, symSize: 0x170 }
  - { offsetInCU: 0x1DF88, offset: 0x375F15, size: 0x8, addend: 0x0, symName: '__ZN4core3ptr63drop_in_place$LT$alloc..boxed..Box$LT$syn..lit..LitRepr$GT$$GT$17h9c509b794406150eE', symObjAddr: 0x7270, symBinAddr: 0xA8590, symSize: 0x60 }
  - { offsetInCU: 0x1E270, offset: 0x3761FD, size: 0x8, addend: 0x0, symName: '__ZN4core3ptr63drop_in_place$LT$alloc..vec..Vec$LT$syn..item..ImplItem$GT$$GT$17ha4d5b54edb0d5cb7E', symObjAddr: 0x72D0, symBinAddr: 0xA85F0, symSize: 0x80 }
  - { offsetInCU: 0x1E579, offset: 0x376506, size: 0x8, addend: 0x0, symName: '__ZN4core3ptr64drop_in_place$LT$alloc..boxed..Box$LT$syn..pat..FieldPat$GT$$GT$17hb167b355d0d4733fE', symObjAddr: 0x7350, symBinAddr: 0xA8670, symSize: 0x180 }
  - { offsetInCU: 0x1EC96, offset: 0x376C23, size: 0x8, addend: 0x0, symName: '__ZN4core3ptr64drop_in_place$LT$alloc..boxed..Box$LT$syn..ty..BareFnArg$GT$$GT$17h6488be9448346678E', symObjAddr: 0x74D0, symBinAddr: 0xA87F0, symSize: 0x160 }
  - { offsetInCU: 0x1F22C, offset: 0x3771B9, size: 0x8, addend: 0x0, symName: '__ZN4core3ptr64drop_in_place$LT$alloc..vec..Vec$LT$syn..attr..Attribute$GT$$GT$17h386324d8ea9bc309E', symObjAddr: 0x7630, symBinAddr: 0xA8950, symSize: 0xF0 }
  - { offsetInCU: 0x1F541, offset: 0x3774CE, size: 0x8, addend: 0x0, symName: '__ZN4core3ptr64drop_in_place$LT$alloc..vec..Vec$LT$syn..item..TraitItem$GT$$GT$17h0ef3c4b7ce592e9eE', symObjAddr: 0x7720, symBinAddr: 0xA8A40, symSize: 0x80 }
  - { offsetInCU: 0x1F7F9, offset: 0x377786, size: 0x8, addend: 0x0, symName: '__ZN4core3ptr65drop_in_place$LT$alloc..vec..Vec$LT$proc_macro..TokenTree$GT$$GT$17hc3670dd5608d5259E', symObjAddr: 0x77A0, symBinAddr: 0xA8AC0, symSize: 0x110 }
  - { offsetInCU: 0x1FBF1, offset: 0x377B7E, size: 0x8, addend: 0x0, symName: '__ZN4core3ptr65drop_in_place$LT$core..option..Option$LT$syn..expr..Label$GT$$GT$17ha723640fd01bec5dE', symObjAddr: 0x78B0, symBinAddr: 0xA8BD0, symSize: 0x30 }
  - { offsetInCU: 0x1FD2B, offset: 0x377CB8, size: 0x8, addend: 0x0, symName: '__ZN4core3ptr65drop_in_place$LT$core..option..Option$LT$syn..path..QSelf$GT$$GT$17h213ca1c3399df9f2E', symObjAddr: 0x78E0, symBinAddr: 0xA8C00, symSize: 0x50 }
  - { offsetInCU: 0x1FEAC, offset: 0x377E39, size: 0x8, addend: 0x0, symName: '__ZN4core3ptr65drop_in_place$LT$core..option..Option$LT$syn..stmt..Block$GT$$GT$17hdff81fd7cb2986caE', symObjAddr: 0x7930, symBinAddr: 0xA8C50, symSize: 0xD0 }
  - { offsetInCU: 0x20181, offset: 0x37810E, size: 0x8, addend: 0x0, symName: '__ZN4core3ptr66drop_in_place$LT$core..option..Option$LT$syn..ty..Variadic$GT$$GT$17hc32134bb3933b0dfE', symObjAddr: 0x7A00, symBinAddr: 0xA8D20, symSize: 0xF0 }
  - { offsetInCU: 0x204AB, offset: 0x378438, size: 0x8, addend: 0x0, symName: '__ZN4core3ptr67drop_in_place$LT$alloc..boxed..Box$LT$syn..expr..FieldValue$GT$$GT$17h8df780aa600ea8c2E', symObjAddr: 0x7AF0, symBinAddr: 0xA8E10, symSize: 0x160 }
  - { offsetInCU: 0x20A40, offset: 0x3789CD, size: 0x8, addend: 0x0, symName: '__ZN4core3ptr68drop_in_place$LT$alloc..boxed..Box$LT$syn..path..PathSegment$GT$$GT$17h1957b54eed39c0bbE', symObjAddr: 0x7C50, symBinAddr: 0xA8F70, symSize: 0x190 }
  - { offsetInCU: 0x2114A, offset: 0x3790D7, size: 0x8, addend: 0x0, symName: '__ZN4core3ptr72drop_in_place$LT$alloc..boxed..Box$LT$syn..path..GenericArgument$GT$$GT$17ha8f8136d0c2b505bE', symObjAddr: 0x7DE0, symBinAddr: 0xA9100, symSize: 0x120 }
  - { offsetInCU: 0x215C2, offset: 0x37954F, size: 0x8, addend: 0x0, symName: '__ZN4core3ptr72drop_in_place$LT$core..option..Option$LT$syn..lifetime..Lifetime$GT$$GT$17h31b55b93749c174dE', symObjAddr: 0x7F00, symBinAddr: 0xA9220, symSize: 0x30 }
  - { offsetInCU: 0x216DD, offset: 0x37966A, size: 0x8, addend: 0x0, symName: '__ZN4core3ptr75drop_in_place$LT$alloc..boxed..Box$LT$syn..generics..TypeParamBound$GT$$GT$17h8f156ce07ea0b8b2E', symObjAddr: 0x7F30, symBinAddr: 0xA9250, symSize: 0x90 }
  - { offsetInCU: 0x21A1C, offset: 0x3799A9, size: 0x8, addend: 0x0, symName: '__ZN4core3ptr75drop_in_place$LT$core..option..Option$LT$syn..generics..WhereClause$GT$$GT$17h9a6b9b305741da86E', symObjAddr: 0x7FC0, symBinAddr: 0xA92E0, symSize: 0xF0 }
  - { offsetInCU: 0x21D3E, offset: 0x379CCB, size: 0x8, addend: 0x0, symName: '__ZN4core3ptr78drop_in_place$LT$alloc..boxed..Box$LT$syn..expr..GenericMethodArgument$GT$$GT$17h3384c00b5bd54c2aE', symObjAddr: 0x80B0, symBinAddr: 0xA93D0, symSize: 0x60 }
  - { offsetInCU: 0x21F4F, offset: 0x379EDC, size: 0x8, addend: 0x0, symName: '__ZN4core3ptr78drop_in_place$LT$core..option..Option$LT$syn..generics..BoundLifetimes$GT$$GT$17h8175e66ad0c4a156E', symObjAddr: 0x8110, symBinAddr: 0xA9430, symSize: 0x120 }
  - { offsetInCU: 0x223F5, offset: 0x37A382, size: 0x8, addend: 0x0, symName: '__ZN4core3ptr86drop_in_place$LT$syn..punctuated..Punctuated$LT$syn..pat..Pat$C$syn..token..Or$GT$$GT$17h1078c5d178d382b7E', symObjAddr: 0x8230, symBinAddr: 0xA9550, symSize: 0x120 }
  - { offsetInCU: 0x22887, offset: 0x37A814, size: 0x8, addend: 0x0, symName: '__ZN4core3ptr87drop_in_place$LT$core..option..Option$LT$alloc..boxed..Box$LT$syn..pat..Pat$GT$$GT$$GT$17ha7f5fe0e6f73e820E', symObjAddr: 0x8350, symBinAddr: 0xA9670, symSize: 0x50 }
  - { offsetInCU: 0x229F7, offset: 0x37A984, size: 0x8, addend: 0x0, symName: '__ZN4core3ptr87drop_in_place$LT$core..option..Option$LT$alloc..boxed..Box$LT$syn..ty..Type$GT$$GT$$GT$17hc8292da82d129de3E', symObjAddr: 0x83A0, symBinAddr: 0xA96C0, symSize: 0x50 }
  - { offsetInCU: 0x22B67, offset: 0x37AAF4, size: 0x8, addend: 0x0, symName: '__ZN4core3ptr89drop_in_place$LT$core..option..Option$LT$alloc..boxed..Box$LT$syn..expr..Expr$GT$$GT$$GT$17hdc211ccd33f196f2E', symObjAddr: 0x83F0, symBinAddr: 0xA9710, symSize: 0x50 }
  - { offsetInCU: 0x22CD7, offset: 0x37AC64, size: 0x8, addend: 0x0, symName: '__ZN4core3ptr89drop_in_place$LT$syn..punctuated..Punctuated$LT$syn..ty..Type$C$syn..token..Comma$GT$$GT$17h1c6e43341fabea97E', symObjAddr: 0x8440, symBinAddr: 0xA9760, symSize: 0x120 }
  - { offsetInCU: 0x23171, offset: 0x37B0FE, size: 0x8, addend: 0x0, symName: '__ZN4core3ptr90drop_in_place$LT$core..option..Option$LT$alloc..boxed..Box$LT$syn..item..FnArg$GT$$GT$$GT$17ha72e545cf6ea6548E', symObjAddr: 0x8560, symBinAddr: 0xA9880, symSize: 0x50 }
  - { offsetInCU: 0x23312, offset: 0x37B29F, size: 0x8, addend: 0x0, symName: '__ZN4core3ptr91drop_in_place$LT$syn..punctuated..Punctuated$LT$syn..expr..Expr$C$syn..token..Comma$GT$$GT$17hd2dfeb0c522d9a18E', symObjAddr: 0x85B0, symBinAddr: 0xA98D0, symSize: 0x120 }
  - { offsetInCU: 0x237FD, offset: 0x37B78A, size: 0x8, addend: 0x0, symName: '__ZN4core3ptr92drop_in_place$LT$syn..punctuated..Punctuated$LT$syn..item..FnArg$C$syn..token..Comma$GT$$GT$17h3049a14d789de61dE', symObjAddr: 0x86D0, symBinAddr: 0xA99F0, symSize: 0x130 }
  - { offsetInCU: 0x23C63, offset: 0x37BBF0, size: 0x8, addend: 0x0, symName: '__ZN4core3ptr94drop_in_place$LT$syn..punctuated..Punctuated$LT$syn..pat..FieldPat$C$syn..token..Comma$GT$$GT$17h612cbc9066d5afb1E', symObjAddr: 0x8800, symBinAddr: 0xA9B20, symSize: 0xF0 }
  - { offsetInCU: 0x23F62, offset: 0x37BEEF, size: 0x8, addend: 0x0, symName: '__ZN4core3ptr94drop_in_place$LT$syn..punctuated..Punctuated$LT$syn..ty..BareFnArg$C$syn..token..Comma$GT$$GT$17ha9a668ce9972795bE', symObjAddr: 0x88F0, symBinAddr: 0xA9C10, symSize: 0xF0 }
  - { offsetInCU: 0x2425F, offset: 0x37C1EC, size: 0x8, addend: 0x0, symName: '__ZN4core3ptr96drop_in_place$LT$core..option..Option$LT$alloc..boxed..Box$LT$syn..path..PathSegment$GT$$GT$$GT$17h2e81cbe3c70bb71cE', symObjAddr: 0x89E0, symBinAddr: 0xA9D00, symSize: 0x180 }
  - { offsetInCU: 0x2491C, offset: 0x37C8A9, size: 0x8, addend: 0x0, symName: '__ZN4core3ptr97drop_in_place$LT$syn..punctuated..Punctuated$LT$syn..expr..FieldValue$C$syn..token..Comma$GT$$GT$17h11a5fffb46adfb11E', symObjAddr: 0x8B60, symBinAddr: 0xA9E80, symSize: 0xF0 }
  - { offsetInCU: 0x24C95, offset: 0x37CC22, size: 0x8, addend: 0x0, symName: '__ZN4core3ptr97drop_in_place$LT$syn..punctuated..Punctuated$LT$syn..lifetime..Lifetime$C$syn..token..Add$GT$$GT$17h5c54dea2c838d109E', symObjAddr: 0x8C50, symBinAddr: 0xA9F70, symSize: 0xD0 }
  - { offsetInCU: 0x25109, offset: 0x37D096, size: 0x8, addend: 0x0, symName: '__ZN4core3ptr99drop_in_place$LT$syn..punctuated..Punctuated$LT$syn..path..PathSegment$C$syn..token..Colon2$GT$$GT$17hb961e4d7989a33ceE', symObjAddr: 0x8D20, symBinAddr: 0xAA040, symSize: 0x250 }
  - { offsetInCU: 0x26367, offset: 0x37E2F4, size: 0x8, addend: 0x0, symName: '__ZN53_$LT$core..fmt..Error$u20$as$u20$core..fmt..Debug$GT$3fmt17h03dc662ab152f3aeE', symObjAddr: 0x8F70, symBinAddr: 0xAA290, symSize: 0x20 }
  - { offsetInCU: 0x2D1DA, offset: 0x385167, size: 0x8, addend: 0x0, symName: __ZN3syn4item7parsing12pop_variadic17hefc9ebad1f916af5E, symObjAddr: 0x9DC0, symBinAddr: 0xAB0E0, symSize: 0x440 }
  - { offsetInCU: 0x2E05D, offset: 0x385FEA, size: 0x8, addend: 0x0, symName: __ZN3syn4item7parsing18variadic_to_tokens17h4981663a913b676cE, symObjAddr: 0xA200, symBinAddr: 0xAB520, symSize: 0x1F0 }
  - { offsetInCU: 0x2E466, offset: 0x3863F3, size: 0x8, addend: 0x0, symName: __ZN3syn4item7parsing14peek_signature17h6f78099971b850e3E, symObjAddr: 0xA3F0, symBinAddr: 0xAB710, symSize: 0x3C0 }
  - { offsetInCU: 0x2F7C0, offset: 0x38774D, size: 0x8, addend: 0x0, symName: __ZN3syn4item7parsing16parse_rest_of_fn17hb7cd50c8099731a3E, symObjAddr: 0xA7B0, symBinAddr: 0xABAD0, symSize: 0x510 }
  - { offsetInCU: 0x3048E, offset: 0x38841B, size: 0x8, addend: 0x0, symName: __ZN3syn4item7parsing13parse_fn_args17h79232dee74d02222E, symObjAddr: 0xACC0, symBinAddr: 0xABFE0, symSize: 0x9F0 }
  - { offsetInCU: 0x31504, offset: 0x389491, size: 0x8, addend: 0x0, symName: __ZN3syn4item7parsing12fn_arg_typed17h50de50b9cbd2986aE, symObjAddr: 0xB6B0, symBinAddr: 0xAC9D0, symSize: 0x9D0 }
  - { offsetInCU: 0x32E44, offset: 0x38ADD1, size: 0x8, addend: 0x0, symName: __ZN3syn4item7parsing23parse_foreign_item_type17h0d1b34a49c3e53f1E, symObjAddr: 0xC080, symBinAddr: 0xAD3A0, symSize: 0x4B0 }
  - { offsetInCU: 0x33687, offset: 0x38B614, size: 0x8, addend: 0x0, symName: __ZN3syn4item7parsing15parse_item_type17h2a4edd2d7d3363beE, symObjAddr: 0xC530, symBinAddr: 0xAD850, symSize: 0x5E0 }
  - { offsetInCU: 0x34085, offset: 0x38C012, size: 0x8, addend: 0x0, symName: __ZN3syn4item7parsing26parse_trait_or_trait_alias17h4e444327f476e99fE, symObjAddr: 0xCB10, symBinAddr: 0xADE30, symSize: 0x870 }
  - { offsetInCU: 0x35AE9, offset: 0x38DA76, size: 0x8, addend: 0x0, symName: __ZN3syn4item7parsing19parse_rest_of_trait17h9a6eb98dff16ebf5E, symObjAddr: 0xD380, symBinAddr: 0xAE6A0, symSize: 0xBD0 }
  - { offsetInCU: 0x37577, offset: 0x38F504, size: 0x8, addend: 0x0, symName: __ZN3syn4item7parsing26parse_start_of_trait_alias17h7cea34b753daf1f6E, symObjAddr: 0xDF50, symBinAddr: 0xAF270, symSize: 0x4B0 }
  - { offsetInCU: 0x37FF2, offset: 0x38FF7F, size: 0x8, addend: 0x0, symName: __ZN3syn4item7parsing25parse_rest_of_trait_alias17he4a9d17c688ffe1fE, symObjAddr: 0xE400, symBinAddr: 0xAF720, symSize: 0x670 }
  - { offsetInCU: 0x38C88, offset: 0x390C15, size: 0x8, addend: 0x0, symName: __ZN3syn4item7parsing21parse_trait_item_type17h1cedbc1ccb5d043dE, symObjAddr: 0xEA70, symBinAddr: 0xAFD90, symSize: 0x540 }
  - { offsetInCU: 0x39494, offset: 0x391421, size: 0x8, addend: 0x0, symName: __ZN3syn4item7parsing10parse_impl17h07469f6aaa82ca90E, symObjAddr: 0xEFB0, symBinAddr: 0xB02D0, symSize: 0x1830 }
  - { offsetInCU: 0x3B650, offset: 0x3935DD, size: 0x8, addend: 0x0, symName: __ZN3syn4item7parsing20parse_impl_item_type17h92af03b3393e3946E, symObjAddr: 0x107E0, symBinAddr: 0xB1B00, symSize: 0x4E0 }
  - { offsetInCU: 0x3BEE6, offset: 0x393E73, size: 0x8, addend: 0x0, symName: '__ZN75_$LT$syn..item..parsing..macro_rules$u20$as$u20$syn..token..CustomToken$GT$4peek17h3d8b08d687f899bdE', symObjAddr: 0x10CD0, symBinAddr: 0xB1FE0, symSize: 0x1A0 }
  - { offsetInCU: 0x43AF9, offset: 0x39BA86, size: 0x8, addend: 0x0, symName: '__ZN5alloc3vec16Vec$LT$T$C$A$GT$4push17hb65366a36844e569E', symObjAddr: 0x9130, symBinAddr: 0xAA450, symSize: 0x70 }
  - { offsetInCU: 0x44070, offset: 0x39BFFD, size: 0x8, addend: 0x0, symName: __ZN3syn4item7parsing16FlexibleItemType5parse17h6bd33458371dd534E, symObjAddr: 0x91E0, symBinAddr: 0xAA500, symSize: 0xBE0 }
  - { offsetInCU: 0x7FF, offset: 0x3A50A6, size: 0x8, addend: 0x0, symName: '__ZN3syn2ty8printing76_$LT$impl$u20$quote..to_tokens..ToTokens$u20$for$u20$syn..ty..TypeBareFn$GT$9to_tokens17hf8e3645850a7f57dE', symObjAddr: 0xB0E0, symBinAddr: 0xBAFF0, symSize: 0x220 }
  - { offsetInCU: 0xF7F, offset: 0x3A5826, size: 0x8, addend: 0x0, symName: '__ZN3syn2ty8printing74_$LT$impl$u20$quote..to_tokens..ToTokens$u20$for$u20$syn..ty..Variadic$GT$9to_tokens17h602db0fc51cb75f0E', symObjAddr: 0xB740, symBinAddr: 0xBB210, symSize: 0xF0 }
  - { offsetInCU: 0x122A, offset: 0x3A5AD1, size: 0x8, addend: 0x0, symName: '__ZN3syn2ty7parsing64_$LT$impl$u20$syn..parse..Parse$u20$for$u20$syn..ty..TypePtr$GT$5parse17hef0fb55c13186374E', symObjAddr: 0x8A90, symBinAddr: 0xB97B0, symSize: 0x430 }
  - { offsetInCU: 0x1E5E, offset: 0x3A6705, size: 0x8, addend: 0x0, symName: '__ZN3syn2ty7parsing70_$LT$impl$u20$syn..parse..Parse$u20$for$u20$syn..ty..TypeReference$GT$5parse17h3c90af1f397abba9E', symObjAddr: 0x8EC0, symBinAddr: 0xB9BE0, symSize: 0x390 }
  - { offsetInCU: 0x2480, offset: 0x3A6D27, size: 0x8, addend: 0x0, symName: '__ZN3syn2ty7parsing65_$LT$impl$u20$syn..parse..Parse$u20$for$u20$syn..ty..TypePath$GT$5parse17h6f2fa59546a9bb19E', symObjAddr: 0x9870, symBinAddr: 0xB9F70, symSize: 0x6E0 }
  - { offsetInCU: 0x33F6, offset: 0x3A7C9D, size: 0x8, addend: 0x0, symName: '__ZN3syn2ty7parsing72_$LT$impl$u20$syn..parse..Parse$u20$for$u20$syn..ty..TypeTraitObject$GT$5parse17h8d2459023d47504fE', symObjAddr: 0xA140, symBinAddr: 0xBA800, symSize: 0x170 }
  - { offsetInCU: 0x396A, offset: 0x3A8211, size: 0x8, addend: 0x0, symName: '__ZN3syn2ty7parsing66_$LT$impl$u20$syn..parse..Parse$u20$for$u20$syn..ty..TypeGroup$GT$5parse17hc50e3255a8ef2de6E', symObjAddr: 0xA8C0, symBinAddr: 0xBADD0, symSize: 0x220 }
  - { offsetInCU: 0x3EA1, offset: 0x3A8748, size: 0x8, addend: 0x0, symName: '__ZN60_$LT$syn..ty..Type$u20$as$u20$quote..to_tokens..ToTokens$GT$9to_tokens17h2c655419af4841c7E', symObjAddr: 0xB8D0, symBinAddr: 0xBB300, symSize: 0x560 }
  - { offsetInCU: 0x68C7, offset: 0x3AB16E, size: 0x8, addend: 0x0, symName: '__ZN77_$LT$$RF$$u5b$syn..attr..Attribute$u5d$$u20$as$u20$syn..attr..FilterAttrs$GT$5outer8is_outer17ha84f9abf7d7fa408E.llvm.17741849970464361583', symObjAddr: 0x8350, symBinAddr: 0xB97A0, symSize: 0x10 }
  - { offsetInCU: 0xB95C, offset: 0x3B0203, size: 0x8, addend: 0x0, symName: '__ZN4core3ptr100drop_in_place$LT$core..option..Option$LT$alloc..boxed..Box$LT$syn..generics..LifetimeDef$GT$$GT$$GT$17h75a6086997697dd7E', symObjAddr: 0x190, symBinAddr: 0xB2180, symSize: 0x150 }
  - { offsetInCU: 0xBED8, offset: 0x3B077F, size: 0x8, addend: 0x0, symName: '__ZN4core3ptr100drop_in_place$LT$core..option..Option$LT$alloc..boxed..Box$LT$syn..path..GenericArgument$GT$$GT$$GT$17h3d29ec00a8f1918dE', symObjAddr: 0x2E0, symBinAddr: 0xB22D0, symSize: 0x50 }
  - { offsetInCU: 0xC0A5, offset: 0x3B094C, size: 0x8, addend: 0x0, symName: '__ZN4core3ptr103drop_in_place$LT$core..option..Option$LT$alloc..boxed..Box$LT$syn..generics..TypeParamBound$GT$$GT$$GT$17h6cee73bc2b2ecea8E', symObjAddr: 0x330, symBinAddr: 0xB2320, symSize: 0x90 }
  - { offsetInCU: 0xC41A, offset: 0x3B0CC1, size: 0x8, addend: 0x0, symName: '__ZN4core3ptr103drop_in_place$LT$syn..punctuated..Punctuated$LT$syn..generics..TypeParamBound$C$syn..token..Add$GT$$GT$17he811d520c92af08aE', symObjAddr: 0x3C0, symBinAddr: 0xB23B0, symSize: 0x1C0 }
  - { offsetInCU: 0xCC6B, offset: 0x3B1512, size: 0x8, addend: 0x0, symName: '__ZN4core3ptr108drop_in_place$LT$syn..punctuated..Punctuated$LT$syn..expr..GenericMethodArgument$C$syn..token..Comma$GT$$GT$17h92cbabe4862b2183E', symObjAddr: 0x580, symBinAddr: 0xB2570, symSize: 0x150 }
  - { offsetInCU: 0xD1C4, offset: 0x3B1A6B, size: 0x8, addend: 0x0, symName: '__ZN4core3ptr34drop_in_place$LT$syn..lit..Lit$GT$17hbe1efe749a08dd9aE', symObjAddr: 0x6D0, symBinAddr: 0xB26C0, symSize: 0x110 }
  - { offsetInCU: 0xD636, offset: 0x3B1EDD, size: 0x8, addend: 0x0, symName: '__ZN4core3ptr34drop_in_place$LT$syn..pat..Pat$GT$17h3201f642e43ac2a2E', symObjAddr: 0x7E0, symBinAddr: 0xB27D0, symSize: 0x1190 }
  - { offsetInCU: 0x1139C, offset: 0x3B5C43, size: 0x8, addend: 0x0, symName: '__ZN4core3ptr34drop_in_place$LT$syn..ty..Type$GT$17hfb5d159a08190130E.llvm.17741849970464361583', symObjAddr: 0x1970, symBinAddr: 0xB3960, symSize: 0x360 }
  - { offsetInCU: 0x12311, offset: 0x3B6BB8, size: 0x8, addend: 0x0, symName: '__ZN4core3ptr36drop_in_place$LT$syn..expr..Expr$GT$17hf1921d1b09462bc3E', symObjAddr: 0x1CD0, symBinAddr: 0xB3CC0, symSize: 0x3290 }
  - { offsetInCU: 0x1CBA2, offset: 0x3C1449, size: 0x8, addend: 0x0, symName: '__ZN4core3ptr36drop_in_place$LT$syn..mac..Macro$GT$17h205613d7ad575f72E', symObjAddr: 0x4F60, symBinAddr: 0xB6F50, symSize: 0x40 }
  - { offsetInCU: 0x1CD12, offset: 0x3C15B9, size: 0x8, addend: 0x0, symName: '__ZN4core3ptr36drop_in_place$LT$syn..path..Path$GT$17he6d0bec66d66b98aE', symObjAddr: 0x4FA0, symBinAddr: 0xB6F90, symSize: 0x260 }
  - { offsetInCU: 0x1D83A, offset: 0x3C20E1, size: 0x8, addend: 0x0, symName: '__ZN4core3ptr37drop_in_place$LT$syn..stmt..Block$GT$17h3aa429e75a234230E', symObjAddr: 0x5200, symBinAddr: 0xB71F0, symSize: 0xD0 }
  - { offsetInCU: 0x1DB11, offset: 0x3C23B8, size: 0x8, addend: 0x0, symName: '__ZN4core3ptr38drop_in_place$LT$syn..expr..Member$GT$17ha113d37a67d27aafE', symObjAddr: 0x5320, symBinAddr: 0xB72C0, symSize: 0x30 }
  - { offsetInCU: 0x1DCA8, offset: 0x3C254F, size: 0x8, addend: 0x0, symName: '__ZN4core3ptr38drop_in_place$LT$syn..group..Group$GT$17h0fddc99b7dc4ab91E.llvm.17741849970464361583', symObjAddr: 0x5350, symBinAddr: 0xB72F0, symSize: 0x70 }
  - { offsetInCU: 0x1DFA0, offset: 0x3C2847, size: 0x8, addend: 0x0, symName: '__ZN4core3ptr39drop_in_place$LT$proc_macro2..Ident$GT$17hdeec010483268a0dE', symObjAddr: 0x5430, symBinAddr: 0xB7360, symSize: 0x30 }
  - { offsetInCU: 0x1E07D, offset: 0x3C2924, size: 0x8, addend: 0x0, symName: '__ZN4core3ptr39drop_in_place$LT$syn..pat..PatTuple$GT$17h96faeea9832d4c4bE', symObjAddr: 0x5460, symBinAddr: 0xB7390, symSize: 0x100 }
  - { offsetInCU: 0x1E3C4, offset: 0x3C2C6B, size: 0x8, addend: 0x0, symName: '__ZN4core3ptr39drop_in_place$LT$syn..ty..BareFnArg$GT$17hed52ce54f3b53a34E', symObjAddr: 0x5560, symBinAddr: 0xB7490, symSize: 0x140 }
  - { offsetInCU: 0x1E7F4, offset: 0x3C309B, size: 0x8, addend: 0x0, symName: '__ZN4core3ptr40drop_in_place$LT$syn..ty..ReturnType$GT$17h6f97c9fdb958983eE', symObjAddr: 0x57B0, symBinAddr: 0xB75D0, symSize: 0x50 }
  - { offsetInCU: 0x1EAF7, offset: 0x3C339E, size: 0x8, addend: 0x0, symName: '__ZN4core3ptr40drop_in_place$LT$syn..ty..TypeBareFn$GT$17h1010a3edced8ab67E', symObjAddr: 0x5800, symBinAddr: 0xB7620, symSize: 0x2F0 }
  - { offsetInCU: 0x1F77E, offset: 0x3C4025, size: 0x8, addend: 0x0, symName: '__ZN4core3ptr44drop_in_place$LT$syn..lifetime..Lifetime$GT$17h3858225df033648aE', symObjAddr: 0x5B80, symBinAddr: 0xB7910, symSize: 0x30 }
  - { offsetInCU: 0x1F9B0, offset: 0x3C4257, size: 0x8, addend: 0x0, symName: '__ZN4core3ptr45drop_in_place$LT$proc_macro2..TokenStream$GT$17h2507cb30e765dc85E.llvm.17741849970464361583', symObjAddr: 0x5C20, symBinAddr: 0xB7940, symSize: 0x140 }
  - { offsetInCU: 0x1FE0C, offset: 0x3C46B3, size: 0x8, addend: 0x0, symName: '__ZN4core3ptr45drop_in_place$LT$syn..path..PathArguments$GT$17h9dd953520dcdc907E', symObjAddr: 0x5D60, symBinAddr: 0xB7A80, symSize: 0x170 }
  - { offsetInCU: 0x202F7, offset: 0x3C4B9E, size: 0x8, addend: 0x0, symName: '__ZN4core3ptr47drop_in_place$LT$syn..path..GenericArgument$GT$17h8c0a0d8c6deaefb4E', symObjAddr: 0x5ED0, symBinAddr: 0xB7BF0, symSize: 0x110 }
  - { offsetInCU: 0x20612, offset: 0x3C4EB9, size: 0x8, addend: 0x0, symName: '__ZN4core3ptr58drop_in_place$LT$alloc..vec..Vec$LT$syn..expr..Arm$GT$$GT$17hf3db0825f3d9c861E', symObjAddr: 0x5FE0, symBinAddr: 0xB7D00, symSize: 0xD0 }
  - { offsetInCU: 0x208D2, offset: 0x3C5179, size: 0x8, addend: 0x0, symName: '__ZN4core3ptr59drop_in_place$LT$alloc..boxed..Box$LT$syn..pat..Pat$GT$$GT$17h7037ce9bbd3729c6E', symObjAddr: 0x60B0, symBinAddr: 0xB7DD0, symSize: 0x50 }
  - { offsetInCU: 0x20A2B, offset: 0x3C52D2, size: 0x8, addend: 0x0, symName: '__ZN4core3ptr59drop_in_place$LT$alloc..boxed..Box$LT$syn..ty..Type$GT$$GT$17h2eccd13329dbe4faE', symObjAddr: 0x6100, symBinAddr: 0xB7E20, symSize: 0x50 }
  - { offsetInCU: 0x20B84, offset: 0x3C542B, size: 0x8, addend: 0x0, symName: '__ZN4core3ptr61drop_in_place$LT$alloc..boxed..Box$LT$syn..expr..Expr$GT$$GT$17h66094ddc89015516E', symObjAddr: 0x6150, symBinAddr: 0xB7E70, symSize: 0x50 }
  - { offsetInCU: 0x20CDD, offset: 0x3C5584, size: 0x8, addend: 0x0, symName: '__ZN4core3ptr63drop_in_place$LT$alloc..boxed..Box$LT$syn..lit..LitRepr$GT$$GT$17h9c509b794406150eE', symObjAddr: 0x6210, symBinAddr: 0xB7EC0, symSize: 0x60 }
  - { offsetInCU: 0x20FE4, offset: 0x3C588B, size: 0x8, addend: 0x0, symName: '__ZN4core3ptr64drop_in_place$LT$alloc..boxed..Box$LT$syn..pat..FieldPat$GT$$GT$17hb167b355d0d4733fE', symObjAddr: 0x6270, symBinAddr: 0xB7F20, symSize: 0x180 }
  - { offsetInCU: 0x216C3, offset: 0x3C5F6A, size: 0x8, addend: 0x0, symName: '__ZN4core3ptr64drop_in_place$LT$alloc..boxed..Box$LT$syn..ty..BareFnArg$GT$$GT$17h6488be9448346678E', symObjAddr: 0x63F0, symBinAddr: 0xB80A0, symSize: 0x160 }
  - { offsetInCU: 0x21C46, offset: 0x3C64ED, size: 0x8, addend: 0x0, symName: '__ZN4core3ptr65drop_in_place$LT$alloc..vec..Vec$LT$proc_macro..TokenTree$GT$$GT$17hc3670dd5608d5259E.llvm.17741849970464361583', symObjAddr: 0x6640, symBinAddr: 0xB8200, symSize: 0x110 }
  - { offsetInCU: 0x2203E, offset: 0x3C68E5, size: 0x8, addend: 0x0, symName: '__ZN4core3ptr65drop_in_place$LT$core..option..Option$LT$syn..expr..Label$GT$$GT$17ha723640fd01bec5dE', symObjAddr: 0x6750, symBinAddr: 0xB8310, symSize: 0x30 }
  - { offsetInCU: 0x22178, offset: 0x3C6A1F, size: 0x8, addend: 0x0, symName: '__ZN4core3ptr65drop_in_place$LT$core..option..Option$LT$syn..path..QSelf$GT$$GT$17h213ca1c3399df9f2E', symObjAddr: 0x67E0, symBinAddr: 0xB8340, symSize: 0x50 }
  - { offsetInCU: 0x2230F, offset: 0x3C6BB6, size: 0x8, addend: 0x0, symName: '__ZN4core3ptr66drop_in_place$LT$core..option..Option$LT$syn..ty..Variadic$GT$$GT$17hc32134bb3933b0dfE', symObjAddr: 0x6830, symBinAddr: 0xB8390, symSize: 0xF0 }
  - { offsetInCU: 0x22639, offset: 0x3C6EE0, size: 0x8, addend: 0x0, symName: '__ZN4core3ptr67drop_in_place$LT$alloc..boxed..Box$LT$syn..expr..FieldValue$GT$$GT$17h8df780aa600ea8c2E', symObjAddr: 0x6920, symBinAddr: 0xB8480, symSize: 0x160 }
  - { offsetInCU: 0x22BAF, offset: 0x3C7456, size: 0x8, addend: 0x0, symName: '__ZN4core3ptr68drop_in_place$LT$alloc..boxed..Box$LT$syn..path..PathSegment$GT$$GT$17h1957b54eed39c0bbE', symObjAddr: 0x6A80, symBinAddr: 0xB85E0, symSize: 0x190 }
  - { offsetInCU: 0x232D8, offset: 0x3C7B7F, size: 0x8, addend: 0x0, symName: '__ZN4core3ptr72drop_in_place$LT$alloc..boxed..Box$LT$syn..path..GenericArgument$GT$$GT$17ha8f8136d0c2b505bE', symObjAddr: 0x6C10, symBinAddr: 0xB8770, symSize: 0x180 }
  - { offsetInCU: 0x23978, offset: 0x3C821F, size: 0x8, addend: 0x0, symName: '__ZN4core3ptr75drop_in_place$LT$alloc..boxed..Box$LT$syn..generics..TypeParamBound$GT$$GT$17h8f156ce07ea0b8b2E', symObjAddr: 0x6D90, symBinAddr: 0xB88F0, symSize: 0x140 }
  - { offsetInCU: 0x23ED3, offset: 0x3C877A, size: 0x8, addend: 0x0, symName: '__ZN4core3ptr78drop_in_place$LT$alloc..boxed..Box$LT$syn..expr..GenericMethodArgument$GT$$GT$17h3384c00b5bd54c2aE', symObjAddr: 0x6ED0, symBinAddr: 0xB8A30, symSize: 0x60 }
  - { offsetInCU: 0x240C5, offset: 0x3C896C, size: 0x8, addend: 0x0, symName: '__ZN4core3ptr78drop_in_place$LT$core..option..Option$LT$syn..generics..BoundLifetimes$GT$$GT$17h8175e66ad0c4a156E', symObjAddr: 0x6F30, symBinAddr: 0xB8A90, symSize: 0xE0 }
  - { offsetInCU: 0x24442, offset: 0x3C8CE9, size: 0x8, addend: 0x0, symName: '__ZN4core3ptr86drop_in_place$LT$syn..punctuated..Punctuated$LT$syn..pat..Pat$C$syn..token..Or$GT$$GT$17h1078c5d178d382b7E', symObjAddr: 0x7010, symBinAddr: 0xB8B70, symSize: 0x120 }
  - { offsetInCU: 0x248BD, offset: 0x3C9164, size: 0x8, addend: 0x0, symName: '__ZN4core3ptr87drop_in_place$LT$core..option..Option$LT$alloc..boxed..Box$LT$syn..pat..Pat$GT$$GT$$GT$17ha7f5fe0e6f73e820E', symObjAddr: 0x7130, symBinAddr: 0xB8C90, symSize: 0x50 }
  - { offsetInCU: 0x24A2D, offset: 0x3C92D4, size: 0x8, addend: 0x0, symName: '__ZN4core3ptr89drop_in_place$LT$core..option..Option$LT$alloc..boxed..Box$LT$syn..expr..Expr$GT$$GT$$GT$17hdc211ccd33f196f2E', symObjAddr: 0x7180, symBinAddr: 0xB8CE0, symSize: 0x50 }
  - { offsetInCU: 0x24BDB, offset: 0x3C9482, size: 0x8, addend: 0x0, symName: '__ZN4core3ptr89drop_in_place$LT$syn..punctuated..Punctuated$LT$syn..pat..Pat$C$syn..token..Comma$GT$$GT$17hf8371102b0500adcE', symObjAddr: 0x71D0, symBinAddr: 0xB8D30, symSize: 0x120 }
  - { offsetInCU: 0x250CA, offset: 0x3C9971, size: 0x8, addend: 0x0, symName: '__ZN4core3ptr89drop_in_place$LT$syn..punctuated..Punctuated$LT$syn..ty..Type$C$syn..token..Comma$GT$$GT$17h1c6e43341fabea97E', symObjAddr: 0x72F0, symBinAddr: 0xB8E50, symSize: 0x120 }
  - { offsetInCU: 0x25596, offset: 0x3C9E3D, size: 0x8, addend: 0x0, symName: '__ZN4core3ptr91drop_in_place$LT$syn..punctuated..Punctuated$LT$syn..expr..Expr$C$syn..token..Comma$GT$$GT$17hd2dfeb0c522d9a18E', symObjAddr: 0x7410, symBinAddr: 0xB8F70, symSize: 0x120 }
  - { offsetInCU: 0x25A24, offset: 0x3CA2CB, size: 0x8, addend: 0x0, symName: '__ZN4core3ptr92drop_in_place$LT$core..option..Option$LT$alloc..boxed..Box$LT$syn..ty..BareFnArg$GT$$GT$$GT$17h2b57ab7ac835f762E', symObjAddr: 0x7530, symBinAddr: 0xB9090, symSize: 0x50 }
  - { offsetInCU: 0x25B94, offset: 0x3CA43B, size: 0x8, addend: 0x0, symName: '__ZN4core3ptr94drop_in_place$LT$syn..punctuated..Punctuated$LT$syn..pat..FieldPat$C$syn..token..Comma$GT$$GT$17h612cbc9066d5afb1E', symObjAddr: 0x7580, symBinAddr: 0xB90E0, symSize: 0xF0 }
  - { offsetInCU: 0x25E93, offset: 0x3CA73A, size: 0x8, addend: 0x0, symName: '__ZN4core3ptr94drop_in_place$LT$syn..punctuated..Punctuated$LT$syn..ty..BareFnArg$C$syn..token..Comma$GT$$GT$17ha9a668ce9972795bE', symObjAddr: 0x7670, symBinAddr: 0xB91D0, symSize: 0xF0 }
  - { offsetInCU: 0x26190, offset: 0x3CAA37, size: 0x8, addend: 0x0, symName: '__ZN4core3ptr95drop_in_place$LT$core..option..Option$LT$$LP$proc_macro2..Ident$C$syn..token..Colon$RP$$GT$$GT$17h7314df562090eafdE.llvm.17741849970464361583', symObjAddr: 0x7760, symBinAddr: 0xB92C0, symSize: 0x30 }
  - { offsetInCU: 0x262AB, offset: 0x3CAB52, size: 0x8, addend: 0x0, symName: '__ZN4core3ptr96drop_in_place$LT$core..option..Option$LT$alloc..boxed..Box$LT$syn..path..PathSegment$GT$$GT$$GT$17h2e81cbe3c70bb71cE', symObjAddr: 0x7790, symBinAddr: 0xB92F0, symSize: 0x1B0 }
  - { offsetInCU: 0x26AFA, offset: 0x3CB3A1, size: 0x8, addend: 0x0, symName: '__ZN4core3ptr97drop_in_place$LT$syn..punctuated..Punctuated$LT$syn..expr..FieldValue$C$syn..token..Comma$GT$$GT$17h11a5fffb46adfb11E', symObjAddr: 0x7940, symBinAddr: 0xB94A0, symSize: 0xF0 }
  - { offsetInCU: 0x26E73, offset: 0x3CB71A, size: 0x8, addend: 0x0, symName: '__ZN4core3ptr97drop_in_place$LT$syn..punctuated..Punctuated$LT$syn..lifetime..Lifetime$C$syn..token..Add$GT$$GT$17h5c54dea2c838d109E', symObjAddr: 0x7A30, symBinAddr: 0xB9590, symSize: 0xD0 }
  - { offsetInCU: 0x272E7, offset: 0x3CBB8E, size: 0x8, addend: 0x0, symName: '__ZN4core3ptr99drop_in_place$LT$syn..punctuated..Punctuated$LT$syn..path..PathSegment$C$syn..token..Colon2$GT$$GT$17hb961e4d7989a33ceE', symObjAddr: 0x7B00, symBinAddr: 0xB9660, symSize: 0x140 }
  - { offsetInCU: 0x2F177, offset: 0x3D3A1E, size: 0x8, addend: 0x0, symName: '__ZN3syn2ty7parsing37_$LT$impl$u20$syn..ty..ReturnType$GT$5parse17hdab9ab74dcb18a9dE.llvm.17741849970464361583', symObjAddr: 0x9F70, symBinAddr: 0xBA650, symSize: 0x1B0 }
  - { offsetInCU: 0x2F675, offset: 0x3D3F1C, size: 0x8, addend: 0x0, symName: '__ZN3syn2ty7parsing42_$LT$impl$u20$syn..ty..TypeTraitObject$GT$12parse_bounds17h8ca5731c28835e0dE', symObjAddr: 0xA420, symBinAddr: 0xBA970, symSize: 0x200 }
  - { offsetInCU: 0x2FC2C, offset: 0x3D44D3, size: 0x8, addend: 0x0, symName: '__ZN3syn2ty7parsing40_$LT$impl$u20$syn..ty..TypeImplTrait$GT$5parse17h544f3b1c82318627E', symObjAddr: 0xA660, symBinAddr: 0xBAB70, symSize: 0x260 }
  - { offsetInCU: 0x22BA, offset: 0x3DBFB6, size: 0x8, addend: 0x0, symName: '__ZN77_$LT$$RF$$u5b$syn..attr..Attribute$u5d$$u20$as$u20$syn..attr..FilterAttrs$GT$5outer8is_outer17ha84f9abf7d7fa408E.llvm.5972456844166134669', symObjAddr: 0x8AF0, symBinAddr: 0xBB950, symSize: 0x10 }
  - { offsetInCU: 0x36F9, offset: 0x3DD3F5, size: 0x8, addend: 0x0, symName: '__ZN3syn3pat8printing75_$LT$impl$u20$quote..to_tokens..ToTokens$u20$for$u20$syn..pat..PatIdent$GT$9to_tokens17h55aee6efd36f4a0dE', symObjAddr: 0x9D90, symBinAddr: 0xBCAB0, symSize: 0x200 }
  - { offsetInCU: 0x3D40, offset: 0x3DDA3C, size: 0x8, addend: 0x0, symName: '__ZN3syn3pat8printing74_$LT$impl$u20$quote..to_tokens..ToTokens$u20$for$u20$syn..pat..PatType$GT$9to_tokens17h6ec4b08e3c7074d0E', symObjAddr: 0xA280, symBinAddr: 0xBCCB0, symSize: 0x100 }
  - { offsetInCU: 0x41BA, offset: 0x3DDEB6, size: 0x8, addend: 0x0, symName: '__ZN3syn3pat7parsing61_$LT$impl$u20$syn..parse..Parse$u20$for$u20$syn..pat..Pat$GT$5parse17h00d83816bfe2b60bE', symObjAddr: 0x8B00, symBinAddr: 0xBB960, symSize: 0x1150 }
  - { offsetInCU: 0x985C, offset: 0x3E3558, size: 0x8, addend: 0x0, symName: '__ZN60_$LT$syn..pat..Pat$u20$as$u20$quote..to_tokens..ToTokens$GT$9to_tokens17hdecd0772527fa157E', symObjAddr: 0xAF30, symBinAddr: 0xBCDB0, symSize: 0xF50 }
  - { offsetInCU: 0xF065, offset: 0x3E8D61, size: 0x8, addend: 0x0, symName: '__ZN4core3ptr44drop_in_place$LT$syn..parse..ParseBuffer$GT$17h19c266fcccc430cbE', symObjAddr: 0x6310, symBinAddr: 0xBB860, symSize: 0x70 }
  - { offsetInCU: 0xF3A3, offset: 0x3E909F, size: 0x8, addend: 0x0, symName: '__ZN4core3ptr91drop_in_place$LT$core..result..Result$LT$syn..expr..RangeLimits$C$syn..error..Error$GT$$GT$17h30583de0c0dd5b5eE', symObjAddr: 0x7D00, symBinAddr: 0xBB8D0, symSize: 0x80 }
  - { offsetInCU: 0x4A1, offset: 0x3F2C17, size: 0x8, addend: 0x0, symName: '__ZN60_$LT$syn..token..Underscore$u20$as$u20$syn..token..Token$GT$4peek17h317380a22d771ac2E', symObjAddr: 0xA60, symBinAddr: 0xBDD70, symSize: 0x1F0 }
  - { offsetInCU: 0xD59, offset: 0x3F34CF, size: 0x8, addend: 0x0, symName: '__ZN55_$LT$syn..token..Paren$u20$as$u20$syn..token..Token$GT$4peek17h1176b0ebdf7fbaffE', symObjAddr: 0xC50, symBinAddr: 0xBDF60, symSize: 0x90 }
  - { offsetInCU: 0xEDF, offset: 0x3F3655, size: 0x8, addend: 0x0, symName: '__ZN55_$LT$syn..token..Brace$u20$as$u20$syn..token..Token$GT$4peek17ha2a9fdfc170453eeE', symObjAddr: 0xCE0, symBinAddr: 0xBDFF0, symSize: 0x90 }
  - { offsetInCU: 0x1065, offset: 0x3F37DB, size: 0x8, addend: 0x0, symName: '__ZN57_$LT$syn..token..Bracket$u20$as$u20$syn..token..Token$GT$4peek17hd07fe36d9434f21aE', symObjAddr: 0xD70, symBinAddr: 0xBE080, symSize: 0x90 }
  - { offsetInCU: 0x11F0, offset: 0x3F3966, size: 0x8, addend: 0x0, symName: '__ZN61_$LT$syn..lifetime..Lifetime$u20$as$u20$syn..token..Token$GT$4peek4peek17h57048675f5c5e816E', symObjAddr: 0xE50, symBinAddr: 0xBE110, symSize: 0x120 }
  - { offsetInCU: 0x167C, offset: 0x3F3DF2, size: 0x8, addend: 0x0, symName: '__ZN51_$LT$syn..lit..Lit$u20$as$u20$syn..token..Token$GT$4peek4peek17h9e486ca1f0623f23E', symObjAddr: 0xF70, symBinAddr: 0xBE230, symSize: 0x190 }
  - { offsetInCU: 0x1B05, offset: 0x3F427B, size: 0x8, addend: 0x0, symName: '__ZN54_$LT$syn..lit..LitStr$u20$as$u20$syn..token..Token$GT$4peek4peek17h9ad1d9e62f20247dE', symObjAddr: 0x1100, symBinAddr: 0xBE3C0, symSize: 0xE0 }
  - { offsetInCU: 0x2098, offset: 0x3F480E, size: 0x8, addend: 0x0, symName: '__ZN54_$LT$syn..lit..LitInt$u20$as$u20$syn..token..Token$GT$4peek4peek17h588562dc8a95e218E', symObjAddr: 0x1480, symBinAddr: 0xBE4A0, symSize: 0xF0 }
  - { offsetInCU: 0x26BE, offset: 0x3F4E34, size: 0x8, addend: 0x0, symName: '__ZN56_$LT$syn..lit..LitFloat$u20$as$u20$syn..token..Token$GT$4peek4peek17he805574610dc5ccaE', symObjAddr: 0x1570, symBinAddr: 0xBE590, symSize: 0xF0 }
  - { offsetInCU: 0x2CDF, offset: 0x3F5455, size: 0x8, addend: 0x0, symName: '__ZN52_$LT$syn..token..As$u20$as$u20$syn..parse..Parse$GT$5parse17hf7e5fe9d4df66d35E', symObjAddr: 0x19C0, symBinAddr: 0xBE680, symSize: 0x60 }
  - { offsetInCU: 0x2D66, offset: 0x3F54DC, size: 0x8, addend: 0x0, symName: '__ZN55_$LT$syn..token..Async$u20$as$u20$syn..token..Token$GT$4peek17hf28061e6deb47530E', symObjAddr: 0x1B40, symBinAddr: 0xBE6E0, symSize: 0x20 }
  - { offsetInCU: 0x2D9C, offset: 0x3F5512, size: 0x8, addend: 0x0, symName: '__ZN55_$LT$syn..token..Const$u20$as$u20$syn..parse..Parse$GT$5parse17h9cfc851e259773e6E', symObjAddr: 0x21A0, symBinAddr: 0xBE700, symSize: 0x60 }
  - { offsetInCU: 0x2E23, offset: 0x3F5599, size: 0x8, addend: 0x0, symName: '__ZN55_$LT$syn..token..Const$u20$as$u20$syn..token..Token$GT$4peek17hbda999978db8b1ddE', symObjAddr: 0x2200, symBinAddr: 0xBE760, symSize: 0x20 }
  - { offsetInCU: 0x2E59, offset: 0x3F55CF, size: 0x8, addend: 0x0, symName: '__ZN55_$LT$syn..token..Crate$u20$as$u20$syn..token..Token$GT$4peek17h0102053751e9950dE', symObjAddr: 0x2440, symBinAddr: 0xBE780, symSize: 0x20 }
  - { offsetInCU: 0x2E8F, offset: 0x3F5605, size: 0x8, addend: 0x0, symName: '__ZN63_$LT$syn..token..Else$u20$as$u20$quote..to_tokens..ToTokens$GT$9to_tokens17h2257515c434df017E', symObjAddr: 0x27E0, symBinAddr: 0xBE7A0, symSize: 0x80 }
  - { offsetInCU: 0x2FC5, offset: 0x3F573B, size: 0x8, addend: 0x0, symName: '__ZN54_$LT$syn..token..Else$u20$as$u20$syn..parse..Parse$GT$5parse17h200a2b149f0173abE', symObjAddr: 0x2860, symBinAddr: 0xBE820, symSize: 0x60 }
  - { offsetInCU: 0x304C, offset: 0x3F57C2, size: 0x8, addend: 0x0, symName: '__ZN54_$LT$syn..token..Enum$u20$as$u20$syn..token..Token$GT$4peek17hdf067724bfda19f1E', symObjAddr: 0x29E0, symBinAddr: 0xBE880, symSize: 0x20 }
  - { offsetInCU: 0x3082, offset: 0x3F57F8, size: 0x8, addend: 0x0, symName: '__ZN56_$LT$syn..token..Extern$u20$as$u20$syn..token..Token$GT$4peek17hbc8c8b2eec164cceE', symObjAddr: 0x2B00, symBinAddr: 0xBE8A0, symSize: 0x20 }
  - { offsetInCU: 0x30B8, offset: 0x3F582E, size: 0x8, addend: 0x0, symName: '__ZN52_$LT$syn..token..Fn$u20$as$u20$syn..token..Token$GT$4peek17h381f871829dfc359E', symObjAddr: 0x2D40, symBinAddr: 0xBE8C0, symSize: 0x20 }
  - { offsetInCU: 0x30EE, offset: 0x3F5864, size: 0x8, addend: 0x0, symName: '__ZN53_$LT$syn..token..For$u20$as$u20$syn..parse..Parse$GT$5parse17he7b20b521a21b84eE', symObjAddr: 0x2E00, symBinAddr: 0xBE8E0, symSize: 0x60 }
  - { offsetInCU: 0x3175, offset: 0x3F58EB, size: 0x8, addend: 0x0, symName: '__ZN54_$LT$syn..token..Impl$u20$as$u20$syn..token..Token$GT$4peek17hf980431ae56a44a6E', symObjAddr: 0x30A0, symBinAddr: 0xBE940, symSize: 0x20 }
  - { offsetInCU: 0x31AB, offset: 0x3F5921, size: 0x8, addend: 0x0, symName: '__ZN52_$LT$syn..token..In$u20$as$u20$syn..parse..Parse$GT$5parse17h65dbe5bb6b8095e9E', symObjAddr: 0x3160, symBinAddr: 0xBE960, symSize: 0x60 }
  - { offsetInCU: 0x3232, offset: 0x3F59A8, size: 0x8, addend: 0x0, symName: '__ZN55_$LT$syn..token..Macro$u20$as$u20$syn..token..Token$GT$4peek17h87bd4d537cf63922E', symObjAddr: 0x3520, symBinAddr: 0xBE9C0, symSize: 0x20 }
  - { offsetInCU: 0x3268, offset: 0x3F59DE, size: 0x8, addend: 0x0, symName: '__ZN53_$LT$syn..token..Mod$u20$as$u20$syn..token..Token$GT$4peek17h900d5a7aa00fc086E', symObjAddr: 0x3760, symBinAddr: 0xBE9E0, symSize: 0x20 }
  - { offsetInCU: 0x329E, offset: 0x3F5A14, size: 0x8, addend: 0x0, symName: '__ZN63_$LT$syn..token..Move$u20$as$u20$quote..to_tokens..ToTokens$GT$9to_tokens17hadcab21f454dea95E', symObjAddr: 0x37A0, symBinAddr: 0xBEA00, symSize: 0x80 }
  - { offsetInCU: 0x33D4, offset: 0x3F5B4A, size: 0x8, addend: 0x0, symName: '__ZN54_$LT$syn..token..Move$u20$as$u20$syn..token..Token$GT$4peek17hd5bfc120a547f5d8E', symObjAddr: 0x3880, symBinAddr: 0xBEA80, symSize: 0x20 }
  - { offsetInCU: 0x340A, offset: 0x3F5B80, size: 0x8, addend: 0x0, symName: '__ZN53_$LT$syn..token..Mut$u20$as$u20$syn..parse..Parse$GT$5parse17h64eb87b20c591c4bE', symObjAddr: 0x3940, symBinAddr: 0xBEAA0, symSize: 0x60 }
  - { offsetInCU: 0x3491, offset: 0x3F5C07, size: 0x8, addend: 0x0, symName: '__ZN53_$LT$syn..token..Mut$u20$as$u20$syn..token..Token$GT$4peek17h468e412e57d48e2dE', symObjAddr: 0x39A0, symBinAddr: 0xBEB00, symSize: 0x20 }
  - { offsetInCU: 0x34C7, offset: 0x3F5C3D, size: 0x8, addend: 0x0, symName: '__ZN53_$LT$syn..token..Ref$u20$as$u20$syn..token..Token$GT$4peek17hf6a89d3c80970251E', symObjAddr: 0x3E20, symBinAddr: 0xBEB20, symSize: 0x20 }
  - { offsetInCU: 0x34FD, offset: 0x3F5C73, size: 0x8, addend: 0x0, symName: '__ZN58_$LT$syn..token..SelfType$u20$as$u20$syn..token..Token$GT$4peek17h48c5b3c68bc4f6ddE', symObjAddr: 0x4060, symBinAddr: 0xBEB40, symSize: 0x20 }
  - { offsetInCU: 0x3533, offset: 0x3F5CA9, size: 0x8, addend: 0x0, symName: '__ZN59_$LT$syn..token..SelfValue$u20$as$u20$syn..parse..Parse$GT$5parse17h599ea90be910718cE', symObjAddr: 0x4120, symBinAddr: 0xBEB60, symSize: 0x60 }
  - { offsetInCU: 0x35BA, offset: 0x3F5D30, size: 0x8, addend: 0x0, symName: '__ZN59_$LT$syn..token..SelfValue$u20$as$u20$syn..token..Token$GT$4peek17h977c80f8bb7263c6E', symObjAddr: 0x4180, symBinAddr: 0xBEBC0, symSize: 0x20 }
  - { offsetInCU: 0x35F0, offset: 0x3F5D66, size: 0x8, addend: 0x0, symName: '__ZN56_$LT$syn..token..Static$u20$as$u20$syn..parse..Parse$GT$5parse17hf6715be49cb792c1E', symObjAddr: 0x4240, symBinAddr: 0xBEBE0, symSize: 0x60 }
  - { offsetInCU: 0x3677, offset: 0x3F5DED, size: 0x8, addend: 0x0, symName: '__ZN56_$LT$syn..token..Static$u20$as$u20$syn..token..Token$GT$4peek17hc33d10c74e5d2420E', symObjAddr: 0x42A0, symBinAddr: 0xBEC40, symSize: 0x20 }
  - { offsetInCU: 0x36AD, offset: 0x3F5E23, size: 0x8, addend: 0x0, symName: '__ZN56_$LT$syn..token..Struct$u20$as$u20$syn..token..Token$GT$4peek17hc66adbd2d4d075ecE', symObjAddr: 0x43C0, symBinAddr: 0xBEC60, symSize: 0x20 }
  - { offsetInCU: 0x36E3, offset: 0x3F5E59, size: 0x8, addend: 0x0, symName: '__ZN55_$LT$syn..token..Super$u20$as$u20$syn..token..Token$GT$4peek17hb0faae556d6a701cE', symObjAddr: 0x44E0, symBinAddr: 0xBEC80, symSize: 0x20 }
  - { offsetInCU: 0x3719, offset: 0x3F5E8F, size: 0x8, addend: 0x0, symName: '__ZN55_$LT$syn..token..Trait$u20$as$u20$syn..token..Token$GT$4peek17h18da2eeff7308a98E', symObjAddr: 0x4600, symBinAddr: 0xBECA0, symSize: 0x20 }
  - { offsetInCU: 0x374F, offset: 0x3F5EC5, size: 0x8, addend: 0x0, symName: '__ZN54_$LT$syn..token..Type$u20$as$u20$syn..token..Token$GT$4peek17h8205f1d24b4cb545E', symObjAddr: 0x4840, symBinAddr: 0xBECC0, symSize: 0x20 }
  - { offsetInCU: 0x3785, offset: 0x3F5EFB, size: 0x8, addend: 0x0, symName: '__ZN55_$LT$syn..token..Union$u20$as$u20$syn..token..Token$GT$4peek17h966de8b349adc97bE', symObjAddr: 0x4A80, symBinAddr: 0xBECE0, symSize: 0x20 }
  - { offsetInCU: 0x37BB, offset: 0x3F5F31, size: 0x8, addend: 0x0, symName: '__ZN56_$LT$syn..token..Unsafe$u20$as$u20$syn..parse..Parse$GT$5parse17h484e0b1c0019a7c7E', symObjAddr: 0x4B40, symBinAddr: 0xBED00, symSize: 0x60 }
  - { offsetInCU: 0x3842, offset: 0x3F5FB8, size: 0x8, addend: 0x0, symName: '__ZN56_$LT$syn..token..Unsafe$u20$as$u20$syn..token..Token$GT$4peek17h9a9808380733e7dcE', symObjAddr: 0x4BA0, symBinAddr: 0xBED60, symSize: 0x20 }
  - { offsetInCU: 0x3878, offset: 0x3F5FEE, size: 0x8, addend: 0x0, symName: '__ZN53_$LT$syn..token..Use$u20$as$u20$syn..token..Token$GT$4peek17he04822efc14fd67fE', symObjAddr: 0x4DE0, symBinAddr: 0xBED80, symSize: 0x20 }
  - { offsetInCU: 0x38AE, offset: 0x3F6024, size: 0x8, addend: 0x0, symName: '__ZN53_$LT$syn..token..Add$u20$as$u20$syn..parse..Parse$GT$5parse17h1dda5a473e9be607E', symObjAddr: 0x52B0, symBinAddr: 0xBEDA0, symSize: 0xF0 }
  - { offsetInCU: 0x3C9B, offset: 0x3F6411, size: 0x8, addend: 0x0, symName: '__ZN55_$LT$syn..token..AddEq$u20$as$u20$syn..parse..Parse$GT$5parse17hd9f523013b43ac1cE', symObjAddr: 0x53F0, symBinAddr: 0xBEE90, symSize: 0xF0 }
  - { offsetInCU: 0x40EB, offset: 0x3F6861, size: 0x8, addend: 0x0, symName: '__ZN53_$LT$syn..token..And$u20$as$u20$syn..parse..Parse$GT$5parse17h55f93cc54c8ec066E', symObjAddr: 0x5530, symBinAddr: 0xBEF80, symSize: 0xF0 }
  - { offsetInCU: 0x44D8, offset: 0x3F6C4E, size: 0x8, addend: 0x0, symName: '__ZN53_$LT$syn..token..And$u20$as$u20$syn..token..Token$GT$4peek17he0d708c3bca08a87E', symObjAddr: 0x5620, symBinAddr: 0xBF070, symSize: 0x20 }
  - { offsetInCU: 0x450E, offset: 0x3F6C84, size: 0x8, addend: 0x0, symName: '__ZN56_$LT$syn..token..AndAnd$u20$as$u20$syn..parse..Parse$GT$5parse17h08ea561b44634998E', symObjAddr: 0x5670, symBinAddr: 0xBF090, symSize: 0xF0 }
  - { offsetInCU: 0x495E, offset: 0x3F70D4, size: 0x8, addend: 0x0, symName: '__ZN55_$LT$syn..token..AndEq$u20$as$u20$syn..parse..Parse$GT$5parse17hc149706100d8d362E', symObjAddr: 0x57B0, symBinAddr: 0xBF180, symSize: 0xF0 }
  - { offsetInCU: 0x4DAE, offset: 0x3F7524, size: 0x8, addend: 0x0, symName: '__ZN52_$LT$syn..token..At$u20$as$u20$syn..parse..Parse$GT$5parse17h1a5d0ac797f8a578E', symObjAddr: 0x58F0, symBinAddr: 0xBF270, symSize: 0xF0 }
  - { offsetInCU: 0x519B, offset: 0x3F7911, size: 0x8, addend: 0x0, symName: '__ZN54_$LT$syn..token..Bang$u20$as$u20$syn..parse..Parse$GT$5parse17h30e109aaf2cc2f6eE', symObjAddr: 0x5A30, symBinAddr: 0xBF360, symSize: 0xF0 }
  - { offsetInCU: 0x5588, offset: 0x3F7CFE, size: 0x8, addend: 0x0, symName: '__ZN54_$LT$syn..token..Bang$u20$as$u20$syn..token..Token$GT$4peek17h9a2155dd43324085E', symObjAddr: 0x5B20, symBinAddr: 0xBF450, symSize: 0x20 }
  - { offsetInCU: 0x55BE, offset: 0x3F7D34, size: 0x8, addend: 0x0, symName: '__ZN55_$LT$syn..token..Caret$u20$as$u20$syn..parse..Parse$GT$5parse17hb8b88de2ed51e15bE', symObjAddr: 0x5B70, symBinAddr: 0xBF470, symSize: 0xF0 }
  - { offsetInCU: 0x59AB, offset: 0x3F8121, size: 0x8, addend: 0x0, symName: '__ZN57_$LT$syn..token..CaretEq$u20$as$u20$syn..parse..Parse$GT$5parse17h63f026941eec0eabE', symObjAddr: 0x5CB0, symBinAddr: 0xBF560, symSize: 0xF0 }
  - { offsetInCU: 0x5DFB, offset: 0x3F8571, size: 0x8, addend: 0x0, symName: '__ZN55_$LT$syn..token..Colon$u20$as$u20$syn..parse..Parse$GT$5parse17h662b8e9ef6fda689E', symObjAddr: 0x5DF0, symBinAddr: 0xBF650, symSize: 0xF0 }
  - { offsetInCU: 0x61E8, offset: 0x3F895E, size: 0x8, addend: 0x0, symName: '__ZN55_$LT$syn..token..Colon$u20$as$u20$syn..token..Token$GT$4peek17h91207a2cea0fedeaE', symObjAddr: 0x5EE0, symBinAddr: 0xBF740, symSize: 0x20 }
  - { offsetInCU: 0x621E, offset: 0x3F8994, size: 0x8, addend: 0x0, symName: '__ZN56_$LT$syn..token..Colon2$u20$as$u20$syn..parse..Parse$GT$5parse17h16bb85b9e7152ff9E', symObjAddr: 0x5F30, symBinAddr: 0xBF760, symSize: 0xF0 }
  - { offsetInCU: 0x666E, offset: 0x3F8DE4, size: 0x8, addend: 0x0, symName: '__ZN56_$LT$syn..token..Colon2$u20$as$u20$syn..token..Token$GT$4peek17h0cc65d9c34032667E', symObjAddr: 0x6020, symBinAddr: 0xBF850, symSize: 0x20 }
  - { offsetInCU: 0x66A4, offset: 0x3F8E1A, size: 0x8, addend: 0x0, symName: '__ZN55_$LT$syn..token..Comma$u20$as$u20$syn..parse..Parse$GT$5parse17h831e301633086efeE', symObjAddr: 0x6070, symBinAddr: 0xBF870, symSize: 0xF0 }
  - { offsetInCU: 0x6A91, offset: 0x3F9207, size: 0x8, addend: 0x0, symName: '__ZN55_$LT$syn..token..Comma$u20$as$u20$syn..token..Token$GT$4peek17h2f704c2cc620ccc4E', symObjAddr: 0x6160, symBinAddr: 0xBF960, symSize: 0x20 }
  - { offsetInCU: 0x6AC7, offset: 0x3F923D, size: 0x8, addend: 0x0, symName: '__ZN53_$LT$syn..token..Div$u20$as$u20$syn..parse..Parse$GT$5parse17ha1af9382269f520cE', symObjAddr: 0x61B0, symBinAddr: 0xBF980, symSize: 0xF0 }
  - { offsetInCU: 0x6EB4, offset: 0x3F962A, size: 0x8, addend: 0x0, symName: '__ZN55_$LT$syn..token..DivEq$u20$as$u20$syn..parse..Parse$GT$5parse17hee49103f780697baE', symObjAddr: 0x62F0, symBinAddr: 0xBFA70, symSize: 0xF0 }
  - { offsetInCU: 0x7304, offset: 0x3F9A7A, size: 0x8, addend: 0x0, symName: '__ZN53_$LT$syn..token..Dot$u20$as$u20$syn..parse..Parse$GT$5parse17h645c53d81704d55dE', symObjAddr: 0x6570, symBinAddr: 0xBFB60, symSize: 0xF0 }
  - { offsetInCU: 0x76F1, offset: 0x3F9E67, size: 0x8, addend: 0x0, symName: '__ZN53_$LT$syn..token..Dot$u20$as$u20$syn..token..Token$GT$4peek17hb9226f13159ad3deE', symObjAddr: 0x6660, symBinAddr: 0xBFC50, symSize: 0x20 }
  - { offsetInCU: 0x7727, offset: 0x3F9E9D, size: 0x8, addend: 0x0, symName: '__ZN54_$LT$syn..token..Dot2$u20$as$u20$syn..parse..Parse$GT$5parse17hd6ed967b916ff304E', symObjAddr: 0x66B0, symBinAddr: 0xBFC70, symSize: 0xF0 }
  - { offsetInCU: 0x7B77, offset: 0x3FA2ED, size: 0x8, addend: 0x0, symName: '__ZN54_$LT$syn..token..Dot2$u20$as$u20$syn..token..Token$GT$4peek17h573e64320d27cce6E', symObjAddr: 0x67A0, symBinAddr: 0xBFD60, symSize: 0x20 }
  - { offsetInCU: 0x7BAD, offset: 0x3FA323, size: 0x8, addend: 0x0, symName: '__ZN54_$LT$syn..token..Dot3$u20$as$u20$syn..parse..Parse$GT$5parse17h13b325bc7782712aE', symObjAddr: 0x67F0, symBinAddr: 0xBFD80, symSize: 0x100 }
  - { offsetInCU: 0x7FFE, offset: 0x3FA774, size: 0x8, addend: 0x0, symName: '__ZN54_$LT$syn..token..Dot3$u20$as$u20$syn..token..Token$GT$4peek17h41d1dfda94a232cbE', symObjAddr: 0x68F0, symBinAddr: 0xBFE80, symSize: 0x20 }
  - { offsetInCU: 0x8034, offset: 0x3FA7AA, size: 0x8, addend: 0x0, symName: '__ZN58_$LT$syn..token..DotDotEq$u20$as$u20$syn..parse..Parse$GT$5parse17h2dc13f55f15ad788E', symObjAddr: 0x6940, symBinAddr: 0xBFEA0, symSize: 0x100 }
  - { offsetInCU: 0x8485, offset: 0x3FABFB, size: 0x8, addend: 0x0, symName: '__ZN58_$LT$syn..token..DotDotEq$u20$as$u20$syn..token..Token$GT$4peek17h2ce6a1f5ceb8ec7cE', symObjAddr: 0x6A40, symBinAddr: 0xBFFA0, symSize: 0x20 }
  - { offsetInCU: 0x84BB, offset: 0x3FAC31, size: 0x8, addend: 0x0, symName: '__ZN52_$LT$syn..token..Eq$u20$as$u20$syn..parse..Parse$GT$5parse17hf670361ef5401661E', symObjAddr: 0x6A90, symBinAddr: 0xBFFC0, symSize: 0xF0 }
  - { offsetInCU: 0x88A8, offset: 0x3FB01E, size: 0x8, addend: 0x0, symName: '__ZN52_$LT$syn..token..Eq$u20$as$u20$syn..token..Token$GT$4peek17h05c22733b5331a7cE', symObjAddr: 0x6B80, symBinAddr: 0xC00B0, symSize: 0x20 }
  - { offsetInCU: 0x88DE, offset: 0x3FB054, size: 0x8, addend: 0x0, symName: '__ZN54_$LT$syn..token..EqEq$u20$as$u20$syn..parse..Parse$GT$5parse17h204af16177a13672E', symObjAddr: 0x6BD0, symBinAddr: 0xC00D0, symSize: 0xF0 }
  - { offsetInCU: 0x8D2E, offset: 0x3FB4A4, size: 0x8, addend: 0x0, symName: '__ZN52_$LT$syn..token..Ge$u20$as$u20$syn..parse..Parse$GT$5parse17hfed93823fde8364aE', symObjAddr: 0x6D10, symBinAddr: 0xC01C0, symSize: 0xF0 }
  - { offsetInCU: 0x917E, offset: 0x3FB8F4, size: 0x8, addend: 0x0, symName: '__ZN52_$LT$syn..token..Gt$u20$as$u20$syn..parse..Parse$GT$5parse17hf5a84a9a6a694d11E', symObjAddr: 0x6E50, symBinAddr: 0xC02B0, symSize: 0xF0 }
  - { offsetInCU: 0x956B, offset: 0x3FBCE1, size: 0x8, addend: 0x0, symName: '__ZN52_$LT$syn..token..Gt$u20$as$u20$syn..token..Token$GT$4peek17h98356010add60e42E', symObjAddr: 0x6F40, symBinAddr: 0xC03A0, symSize: 0x20 }
  - { offsetInCU: 0x95A1, offset: 0x3FBD17, size: 0x8, addend: 0x0, symName: '__ZN52_$LT$syn..token..Le$u20$as$u20$syn..parse..Parse$GT$5parse17hfb9cc07368390e04E', symObjAddr: 0x6F90, symBinAddr: 0xC03C0, symSize: 0xF0 }
  - { offsetInCU: 0x99F1, offset: 0x3FC167, size: 0x8, addend: 0x0, symName: '__ZN52_$LT$syn..token..Lt$u20$as$u20$syn..parse..Parse$GT$5parse17he57e541ef90bd84cE', symObjAddr: 0x70D0, symBinAddr: 0xC04B0, symSize: 0xF0 }
  - { offsetInCU: 0x9DDE, offset: 0x3FC554, size: 0x8, addend: 0x0, symName: '__ZN52_$LT$syn..token..Lt$u20$as$u20$syn..token..Token$GT$4peek17haf82e8207765aaa4E', symObjAddr: 0x71C0, symBinAddr: 0xC05A0, symSize: 0x20 }
  - { offsetInCU: 0x9E14, offset: 0x3FC58A, size: 0x8, addend: 0x0, symName: '__ZN55_$LT$syn..token..MulEq$u20$as$u20$syn..parse..Parse$GT$5parse17h51ad66f694e37bcaE', symObjAddr: 0x7210, symBinAddr: 0xC05C0, symSize: 0xF0 }
  - { offsetInCU: 0xA264, offset: 0x3FC9DA, size: 0x8, addend: 0x0, symName: '__ZN52_$LT$syn..token..Ne$u20$as$u20$syn..parse..Parse$GT$5parse17h57464c88099918f5E', symObjAddr: 0x7350, symBinAddr: 0xC06B0, symSize: 0xF0 }
  - { offsetInCU: 0xA6B4, offset: 0x3FCE2A, size: 0x8, addend: 0x0, symName: '__ZN52_$LT$syn..token..Or$u20$as$u20$syn..parse..Parse$GT$5parse17h588c16379aa53707E', symObjAddr: 0x7490, symBinAddr: 0xC07A0, symSize: 0xF0 }
  - { offsetInCU: 0xAAA1, offset: 0x3FD217, size: 0x8, addend: 0x0, symName: '__ZN52_$LT$syn..token..Or$u20$as$u20$syn..token..Token$GT$4peek17h30c14b3683f882b2E', symObjAddr: 0x7580, symBinAddr: 0xC0890, symSize: 0x20 }
  - { offsetInCU: 0xAAD7, offset: 0x3FD24D, size: 0x8, addend: 0x0, symName: '__ZN54_$LT$syn..token..OrEq$u20$as$u20$syn..parse..Parse$GT$5parse17hb3e6ce79f9aa8136E', symObjAddr: 0x75D0, symBinAddr: 0xC08B0, symSize: 0xF0 }
  - { offsetInCU: 0xAF27, offset: 0x3FD69D, size: 0x8, addend: 0x0, symName: '__ZN54_$LT$syn..token..OrOr$u20$as$u20$syn..parse..Parse$GT$5parse17h86a9c8a1cdffb373E', symObjAddr: 0x7710, symBinAddr: 0xC09A0, symSize: 0xF0 }
  - { offsetInCU: 0xB377, offset: 0x3FDAED, size: 0x8, addend: 0x0, symName: '__ZN55_$LT$syn..token..Pound$u20$as$u20$syn..parse..Parse$GT$5parse17h3d6f7658c2ba179fE', symObjAddr: 0x7850, symBinAddr: 0xC0A90, symSize: 0xF0 }
  - { offsetInCU: 0xB764, offset: 0x3FDEDA, size: 0x8, addend: 0x0, symName: '__ZN55_$LT$syn..token..Pound$u20$as$u20$syn..token..Token$GT$4peek17h5b4b210b91548700E', symObjAddr: 0x7940, symBinAddr: 0xC0B80, symSize: 0x20 }
  - { offsetInCU: 0xB79A, offset: 0x3FDF10, size: 0x8, addend: 0x0, symName: '__ZN58_$LT$syn..token..Question$u20$as$u20$syn..parse..Parse$GT$5parse17h91bf3e414f5a6551E', symObjAddr: 0x7990, symBinAddr: 0xC0BA0, symSize: 0xF0 }
  - { offsetInCU: 0xBB87, offset: 0x3FE2FD, size: 0x8, addend: 0x0, symName: '__ZN58_$LT$syn..token..Question$u20$as$u20$syn..token..Token$GT$4peek17h4419ac6afbb9beb2E', symObjAddr: 0x7A80, symBinAddr: 0xC0C90, symSize: 0x20 }
  - { offsetInCU: 0xBBBD, offset: 0x3FE333, size: 0x8, addend: 0x0, symName: '__ZN56_$LT$syn..token..RArrow$u20$as$u20$syn..parse..Parse$GT$5parse17hd4db42c362da45f6E', symObjAddr: 0x7AD0, symBinAddr: 0xC0CB0, symSize: 0xF0 }
  - { offsetInCU: 0xC00D, offset: 0x3FE783, size: 0x8, addend: 0x0, symName: '__ZN53_$LT$syn..token..Rem$u20$as$u20$syn..parse..Parse$GT$5parse17h3f49caa3c53e0c4aE', symObjAddr: 0x7D50, symBinAddr: 0xC0DA0, symSize: 0xF0 }
  - { offsetInCU: 0xC3FA, offset: 0x3FEB70, size: 0x8, addend: 0x0, symName: '__ZN55_$LT$syn..token..RemEq$u20$as$u20$syn..parse..Parse$GT$5parse17h58fd9d0bcbd6933eE', symObjAddr: 0x7E90, symBinAddr: 0xC0E90, symSize: 0xF0 }
  - { offsetInCU: 0xC84A, offset: 0x3FEFC0, size: 0x8, addend: 0x0, symName: '__ZN58_$LT$syn..token..FatArrow$u20$as$u20$syn..parse..Parse$GT$5parse17he89db532ff09a67bE', symObjAddr: 0x7FD0, symBinAddr: 0xC0F80, symSize: 0xF0 }
  - { offsetInCU: 0xCC9A, offset: 0x3FF410, size: 0x8, addend: 0x0, symName: '__ZN54_$LT$syn..token..Semi$u20$as$u20$syn..parse..Parse$GT$5parse17hb74ddd1bf271ceb8E', symObjAddr: 0x8110, symBinAddr: 0xC1070, symSize: 0xF0 }
  - { offsetInCU: 0xD087, offset: 0x3FF7FD, size: 0x8, addend: 0x0, symName: '__ZN54_$LT$syn..token..Semi$u20$as$u20$syn..token..Token$GT$4peek17h04a09e27e4939dadE', symObjAddr: 0x8200, symBinAddr: 0xC1160, symSize: 0x20 }
  - { offsetInCU: 0xD0BD, offset: 0x3FF833, size: 0x8, addend: 0x0, symName: '__ZN53_$LT$syn..token..Shl$u20$as$u20$syn..parse..Parse$GT$5parse17hc76f0d624281ae34E', symObjAddr: 0x8250, symBinAddr: 0xC1180, symSize: 0xF0 }
  - { offsetInCU: 0xD50D, offset: 0x3FFC83, size: 0x8, addend: 0x0, symName: '__ZN55_$LT$syn..token..ShlEq$u20$as$u20$syn..parse..Parse$GT$5parse17h981982885f868d4dE', symObjAddr: 0x8390, symBinAddr: 0xC1270, symSize: 0x100 }
  - { offsetInCU: 0xD95E, offset: 0x4000D4, size: 0x8, addend: 0x0, symName: '__ZN53_$LT$syn..token..Shr$u20$as$u20$syn..parse..Parse$GT$5parse17h657b3cc0e355fadaE', symObjAddr: 0x84E0, symBinAddr: 0xC1370, symSize: 0xF0 }
  - { offsetInCU: 0xDDAE, offset: 0x400524, size: 0x8, addend: 0x0, symName: '__ZN55_$LT$syn..token..ShrEq$u20$as$u20$syn..parse..Parse$GT$5parse17h29381819b3c034f9E', symObjAddr: 0x8620, symBinAddr: 0xC1460, symSize: 0x100 }
  - { offsetInCU: 0xE1FF, offset: 0x400975, size: 0x8, addend: 0x0, symName: '__ZN54_$LT$syn..token..Star$u20$as$u20$syn..parse..Parse$GT$5parse17he445204c6f6147b2E', symObjAddr: 0x8770, symBinAddr: 0xC1560, symSize: 0xF0 }
  - { offsetInCU: 0xE5EC, offset: 0x400D62, size: 0x8, addend: 0x0, symName: '__ZN54_$LT$syn..token..Star$u20$as$u20$syn..token..Token$GT$4peek17h9ae594d0c59c0616E', symObjAddr: 0x8860, symBinAddr: 0xC1650, symSize: 0x20 }
  - { offsetInCU: 0xE622, offset: 0x400D98, size: 0x8, addend: 0x0, symName: '__ZN53_$LT$syn..token..Sub$u20$as$u20$syn..parse..Parse$GT$5parse17hc24d7efe68285f8cE', symObjAddr: 0x88B0, symBinAddr: 0xC1670, symSize: 0xF0 }
  - { offsetInCU: 0xEA0F, offset: 0x401185, size: 0x8, addend: 0x0, symName: '__ZN53_$LT$syn..token..Sub$u20$as$u20$syn..token..Token$GT$4peek17h78e2cdadf59b7658E', symObjAddr: 0x89A0, symBinAddr: 0xC1760, symSize: 0x20 }
  - { offsetInCU: 0xEA45, offset: 0x4011BB, size: 0x8, addend: 0x0, symName: '__ZN55_$LT$syn..token..SubEq$u20$as$u20$syn..parse..Parse$GT$5parse17hdce11e191eed7488E', symObjAddr: 0x89F0, symBinAddr: 0xC1780, symSize: 0xF0 }
  - { offsetInCU: 0xEE95, offset: 0x40160B, size: 0x8, addend: 0x0, symName: '__ZN55_$LT$syn..token..Tilde$u20$as$u20$syn..parse..Parse$GT$5parse17hc34dc7972cbf05b8E', symObjAddr: 0x8B30, symBinAddr: 0xC1870, symSize: 0xF0 }
  - { offsetInCU: 0x10A00, offset: 0x403176, size: 0x8, addend: 0x0, symName: '__ZN4core3ptr44drop_in_place$LT$syn..parse..ParseBuffer$GT$17h19c266fcccc430cbE.llvm.10394053633799031531', symObjAddr: 0x790, symBinAddr: 0xBDD00, symSize: 0x70 }
  - { offsetInCU: 0x1E, offset: 0x408DF5, size: 0x8, addend: 0x0, symName: '__ZN4core3ptr100drop_in_place$LT$core..option..Option$LT$alloc..boxed..Box$LT$syn..generics..LifetimeDef$GT$$GT$$GT$17h75a6086997697dd7E', symObjAddr: 0x0, symBinAddr: 0xC1960, symSize: 0x150 }
  - { offsetInCU: 0x9CB, offset: 0x4097A2, size: 0x8, addend: 0x0, symName: '__ZN4core3ptr100drop_in_place$LT$core..option..Option$LT$alloc..boxed..Box$LT$syn..generics..LifetimeDef$GT$$GT$$GT$17h75a6086997697dd7E', symObjAddr: 0x0, symBinAddr: 0xC1960, symSize: 0x150 }
  - { offsetInCU: 0xF47, offset: 0x409D1E, size: 0x8, addend: 0x0, symName: '__ZN4core3ptr100drop_in_place$LT$core..option..Option$LT$alloc..boxed..Box$LT$syn..path..GenericArgument$GT$$GT$$GT$17h3d29ec00a8f1918dE', symObjAddr: 0x150, symBinAddr: 0xC1AB0, symSize: 0x50 }
  - { offsetInCU: 0x1114, offset: 0x409EEB, size: 0x8, addend: 0x0, symName: '__ZN4core3ptr103drop_in_place$LT$core..option..Option$LT$alloc..boxed..Box$LT$syn..generics..TypeParamBound$GT$$GT$$GT$17h6cee73bc2b2ecea8E', symObjAddr: 0x1A0, symBinAddr: 0xC1B00, symSize: 0x90 }
  - { offsetInCU: 0x1489, offset: 0x40A260, size: 0x8, addend: 0x0, symName: '__ZN4core3ptr103drop_in_place$LT$syn..punctuated..Punctuated$LT$syn..generics..TypeParamBound$C$syn..token..Add$GT$$GT$17he811d520c92af08aE', symObjAddr: 0x230, symBinAddr: 0xC1B90, symSize: 0x1C0 }
  - { offsetInCU: 0x1CDA, offset: 0x40AAB1, size: 0x8, addend: 0x0, symName: '__ZN4core3ptr108drop_in_place$LT$syn..punctuated..Punctuated$LT$syn..expr..GenericMethodArgument$C$syn..token..Comma$GT$$GT$17h92cbabe4862b2183E', symObjAddr: 0x3F0, symBinAddr: 0xC1D50, symSize: 0x150 }
  - { offsetInCU: 0x2233, offset: 0x40B00A, size: 0x8, addend: 0x0, symName: '__ZN4core3ptr34drop_in_place$LT$syn..lit..Lit$GT$17hbe1efe749a08dd9aE', symObjAddr: 0x540, symBinAddr: 0xC1EA0, symSize: 0x110 }
  - { offsetInCU: 0x26A5, offset: 0x40B47C, size: 0x8, addend: 0x0, symName: '__ZN4core3ptr34drop_in_place$LT$syn..pat..Pat$GT$17h3201f642e43ac2a2E', symObjAddr: 0x650, symBinAddr: 0xC1FB0, symSize: 0x1190 }
  - { offsetInCU: 0x640B, offset: 0x40F1E2, size: 0x8, addend: 0x0, symName: '__ZN4core3ptr34drop_in_place$LT$syn..ty..Type$GT$17hfb5d159a08190130E', symObjAddr: 0x17E0, symBinAddr: 0xC3140, symSize: 0x360 }
  - { offsetInCU: 0x7380, offset: 0x410157, size: 0x8, addend: 0x0, symName: '__ZN4core3ptr36drop_in_place$LT$syn..expr..Expr$GT$17hf1921d1b09462bc3E', symObjAddr: 0x1B40, symBinAddr: 0xC34A0, symSize: 0x3290 }
  - { offsetInCU: 0x11C11, offset: 0x41A9E8, size: 0x8, addend: 0x0, symName: '__ZN4core3ptr36drop_in_place$LT$syn..mac..Macro$GT$17h205613d7ad575f72E', symObjAddr: 0x4DD0, symBinAddr: 0xC6730, symSize: 0x40 }
  - { offsetInCU: 0x11D62, offset: 0x41AB39, size: 0x8, addend: 0x0, symName: '__ZN4core3ptr36drop_in_place$LT$syn..path..Path$GT$17he6d0bec66d66b98aE', symObjAddr: 0x4E10, symBinAddr: 0xC6770, symSize: 0x230 }
  - { offsetInCU: 0x126F8, offset: 0x41B4CF, size: 0x8, addend: 0x0, symName: '__ZN4core3ptr37drop_in_place$LT$syn..stmt..Block$GT$17h3aa429e75a234230E', symObjAddr: 0x5040, symBinAddr: 0xC69A0, symSize: 0xD0 }
  - { offsetInCU: 0x129CF, offset: 0x41B7A6, size: 0x8, addend: 0x0, symName: '__ZN4core3ptr38drop_in_place$LT$syn..expr..Member$GT$17ha113d37a67d27aafE', symObjAddr: 0x5110, symBinAddr: 0xC6A70, symSize: 0x30 }
  - { offsetInCU: 0x12ACB, offset: 0x41B8A2, size: 0x8, addend: 0x0, symName: '__ZN4core3ptr38drop_in_place$LT$syn..ty..TypePath$GT$17hee875f09231160b9E', symObjAddr: 0x5140, symBinAddr: 0xC6AA0, symSize: 0x70 }
  - { offsetInCU: 0x12C48, offset: 0x41BA1F, size: 0x8, addend: 0x0, symName: '__ZN4core3ptr39drop_in_place$LT$proc_macro2..Ident$GT$17hdeec010483268a0dE', symObjAddr: 0x51B0, symBinAddr: 0xC6B10, symSize: 0x30 }
  - { offsetInCU: 0x12D25, offset: 0x41BAFC, size: 0x8, addend: 0x0, symName: '__ZN4core3ptr39drop_in_place$LT$syn..pat..PatTuple$GT$17h96faeea9832d4c4bE', symObjAddr: 0x51E0, symBinAddr: 0xC6B40, symSize: 0x100 }
  - { offsetInCU: 0x1306C, offset: 0x41BE43, size: 0x8, addend: 0x0, symName: '__ZN4core3ptr39drop_in_place$LT$syn..ty..BareFnArg$GT$17hed52ce54f3b53a34E', symObjAddr: 0x52E0, symBinAddr: 0xC6C40, symSize: 0x140 }
  - { offsetInCU: 0x1349C, offset: 0x41C273, size: 0x8, addend: 0x0, symName: '__ZN4core3ptr40drop_in_place$LT$syn..ty..ReturnType$GT$17h6f97c9fdb958983eE', symObjAddr: 0x5420, symBinAddr: 0xC6D80, symSize: 0x50 }
  - { offsetInCU: 0x1379F, offset: 0x41C576, size: 0x8, addend: 0x0, symName: '__ZN4core3ptr40drop_in_place$LT$syn..ty..TypeBareFn$GT$17h1010a3edced8ab67E', symObjAddr: 0x5470, symBinAddr: 0xC6DD0, symSize: 0x2F0 }
  - { offsetInCU: 0x1454D, offset: 0x41D324, size: 0x8, addend: 0x0, symName: '__ZN4core3ptr43drop_in_place$LT$proc_macro2..TokenTree$GT$17h7270f34cee6d919dE', symObjAddr: 0x5760, symBinAddr: 0xC70C0, symSize: 0xB0 }
  - { offsetInCU: 0x148A8, offset: 0x41D67F, size: 0x8, addend: 0x0, symName: '__ZN4core3ptr44drop_in_place$LT$syn..lifetime..Lifetime$GT$17h3858225df033648aE', symObjAddr: 0x5810, symBinAddr: 0xC7170, symSize: 0x30 }
  - { offsetInCU: 0x14A20, offset: 0x41D7F7, size: 0x8, addend: 0x0, symName: '__ZN4core3ptr44drop_in_place$LT$syn..parse..ParseBuffer$GT$17h19c266fcccc430cbE', symObjAddr: 0x5840, symBinAddr: 0xC71A0, symSize: 0x70 }
  - { offsetInCU: 0x14D9C, offset: 0x41DB73, size: 0x8, addend: 0x0, symName: '__ZN4core3ptr45drop_in_place$LT$proc_macro2..TokenStream$GT$17h2507cb30e765dc85E', symObjAddr: 0x58B0, symBinAddr: 0xC7210, symSize: 0x140 }
  - { offsetInCU: 0x15217, offset: 0x41DFEE, size: 0x8, addend: 0x0, symName: '__ZN4core3ptr45drop_in_place$LT$syn..path..PathArguments$GT$17h9dd953520dcdc907E', symObjAddr: 0x59F0, symBinAddr: 0xC7350, symSize: 0x170 }
  - { offsetInCU: 0x15702, offset: 0x41E4D9, size: 0x8, addend: 0x0, symName: '__ZN4core3ptr47drop_in_place$LT$syn..path..GenericArgument$GT$17h8c0a0d8c6deaefb4E', symObjAddr: 0x5B60, symBinAddr: 0xC74C0, symSize: 0x110 }
  - { offsetInCU: 0x15A1D, offset: 0x41E7F4, size: 0x8, addend: 0x0, symName: '__ZN4core3ptr58drop_in_place$LT$alloc..vec..Vec$LT$syn..expr..Arm$GT$$GT$17hf3db0825f3d9c861E', symObjAddr: 0x5C70, symBinAddr: 0xC75D0, symSize: 0xD0 }
  - { offsetInCU: 0x15CDD, offset: 0x41EAB4, size: 0x8, addend: 0x0, symName: '__ZN4core3ptr59drop_in_place$LT$alloc..boxed..Box$LT$syn..pat..Pat$GT$$GT$17h7037ce9bbd3729c6E', symObjAddr: 0x5D40, symBinAddr: 0xC76A0, symSize: 0x50 }
  - { offsetInCU: 0x15E36, offset: 0x41EC0D, size: 0x8, addend: 0x0, symName: '__ZN4core3ptr59drop_in_place$LT$alloc..boxed..Box$LT$syn..ty..Type$GT$$GT$17h2eccd13329dbe4faE', symObjAddr: 0x5D90, symBinAddr: 0xC76F0, symSize: 0x50 }
  - { offsetInCU: 0x15F8F, offset: 0x41ED66, size: 0x8, addend: 0x0, symName: '__ZN4core3ptr61drop_in_place$LT$alloc..boxed..Box$LT$syn..expr..Expr$GT$$GT$17h66094ddc89015516E', symObjAddr: 0x5DE0, symBinAddr: 0xC7740, symSize: 0x50 }
  - { offsetInCU: 0x16164, offset: 0x41EF3B, size: 0x8, addend: 0x0, symName: '__ZN4core3ptr61drop_in_place$LT$syn..path..ParenthesizedGenericArguments$GT$17h21be9b1d7a6fab55E', symObjAddr: 0x5E30, symBinAddr: 0xC7790, symSize: 0x170 }
  - { offsetInCU: 0x1675A, offset: 0x41F531, size: 0x8, addend: 0x0, symName: '__ZN4core3ptr63drop_in_place$LT$alloc..boxed..Box$LT$syn..lit..LitRepr$GT$$GT$17h9c509b794406150eE', symObjAddr: 0x5FA0, symBinAddr: 0xC7900, symSize: 0x60 }
  - { offsetInCU: 0x16A61, offset: 0x41F838, size: 0x8, addend: 0x0, symName: '__ZN4core3ptr64drop_in_place$LT$alloc..boxed..Box$LT$syn..pat..FieldPat$GT$$GT$17hb167b355d0d4733fE', symObjAddr: 0x6000, symBinAddr: 0xC7960, symSize: 0x180 }
  - { offsetInCU: 0x17140, offset: 0x41FF17, size: 0x8, addend: 0x0, symName: '__ZN4core3ptr64drop_in_place$LT$alloc..boxed..Box$LT$syn..ty..BareFnArg$GT$$GT$17h6488be9448346678E', symObjAddr: 0x6180, symBinAddr: 0xC7AE0, symSize: 0x160 }
  - { offsetInCU: 0x176C3, offset: 0x42049A, size: 0x8, addend: 0x0, symName: '__ZN4core3ptr64drop_in_place$LT$alloc..vec..Vec$LT$syn..attr..Attribute$GT$$GT$17h386324d8ea9bc309E', symObjAddr: 0x62E0, symBinAddr: 0xC7C40, symSize: 0xF0 }
  - { offsetInCU: 0x179B9, offset: 0x420790, size: 0x8, addend: 0x0, symName: '__ZN4core3ptr65drop_in_place$LT$alloc..vec..Vec$LT$proc_macro..TokenTree$GT$$GT$17hc3670dd5608d5259E', symObjAddr: 0x63D0, symBinAddr: 0xC7D30, symSize: 0x110 }
  - { offsetInCU: 0x17DB1, offset: 0x420B88, size: 0x8, addend: 0x0, symName: '__ZN4core3ptr65drop_in_place$LT$core..option..Option$LT$syn..expr..Label$GT$$GT$17ha723640fd01bec5dE', symObjAddr: 0x64E0, symBinAddr: 0xC7E40, symSize: 0x30 }
  - { offsetInCU: 0x17EEB, offset: 0x420CC2, size: 0x8, addend: 0x0, symName: '__ZN4core3ptr65drop_in_place$LT$core..option..Option$LT$syn..path..QSelf$GT$$GT$17h213ca1c3399df9f2E', symObjAddr: 0x6510, symBinAddr: 0xC7E70, symSize: 0x50 }
  - { offsetInCU: 0x1806C, offset: 0x420E43, size: 0x8, addend: 0x0, symName: '__ZN4core3ptr66drop_in_place$LT$core..option..Option$LT$syn..ty..Variadic$GT$$GT$17hc32134bb3933b0dfE', symObjAddr: 0x6560, symBinAddr: 0xC7EC0, symSize: 0xF0 }
  - { offsetInCU: 0x18396, offset: 0x42116D, size: 0x8, addend: 0x0, symName: '__ZN4core3ptr67drop_in_place$LT$alloc..boxed..Box$LT$syn..expr..FieldValue$GT$$GT$17h8df780aa600ea8c2E', symObjAddr: 0x6650, symBinAddr: 0xC7FB0, symSize: 0x160 }
  - { offsetInCU: 0x1890C, offset: 0x4216E3, size: 0x8, addend: 0x0, symName: '__ZN4core3ptr68drop_in_place$LT$alloc..boxed..Box$LT$syn..path..PathSegment$GT$$GT$17h1957b54eed39c0bbE', symObjAddr: 0x67B0, symBinAddr: 0xC8110, symSize: 0x190 }
  - { offsetInCU: 0x19035, offset: 0x421E0C, size: 0x8, addend: 0x0, symName: '__ZN4core3ptr72drop_in_place$LT$alloc..boxed..Box$LT$syn..path..GenericArgument$GT$$GT$17ha8f8136d0c2b505bE', symObjAddr: 0x6940, symBinAddr: 0xC82A0, symSize: 0x180 }
  - { offsetInCU: 0x196D5, offset: 0x4224AC, size: 0x8, addend: 0x0, symName: '__ZN4core3ptr72drop_in_place$LT$core..option..Option$LT$syn..lifetime..Lifetime$GT$$GT$17h31b55b93749c174dE', symObjAddr: 0x6AC0, symBinAddr: 0xC8420, symSize: 0x30 }
  - { offsetInCU: 0x197F0, offset: 0x4225C7, size: 0x8, addend: 0x0, symName: '__ZN4core3ptr75drop_in_place$LT$alloc..boxed..Box$LT$syn..generics..TypeParamBound$GT$$GT$17h8f156ce07ea0b8b2E', symObjAddr: 0x6AF0, symBinAddr: 0xC8450, symSize: 0x140 }
  - { offsetInCU: 0x19D4B, offset: 0x422B22, size: 0x8, addend: 0x0, symName: '__ZN4core3ptr78drop_in_place$LT$alloc..boxed..Box$LT$syn..expr..GenericMethodArgument$GT$$GT$17h3384c00b5bd54c2aE', symObjAddr: 0x6C30, symBinAddr: 0xC8590, symSize: 0x60 }
  - { offsetInCU: 0x19F3D, offset: 0x422D14, size: 0x8, addend: 0x0, symName: '__ZN4core3ptr78drop_in_place$LT$core..option..Option$LT$syn..generics..BoundLifetimes$GT$$GT$17h8175e66ad0c4a156E', symObjAddr: 0x6C90, symBinAddr: 0xC85F0, symSize: 0xE0 }
  - { offsetInCU: 0x1A2BA, offset: 0x423091, size: 0x8, addend: 0x0, symName: '__ZN4core3ptr86drop_in_place$LT$syn..punctuated..Punctuated$LT$syn..pat..Pat$C$syn..token..Or$GT$$GT$17h1078c5d178d382b7E', symObjAddr: 0x6D70, symBinAddr: 0xC86D0, symSize: 0x120 }
  - { offsetInCU: 0x1A735, offset: 0x42350C, size: 0x8, addend: 0x0, symName: '__ZN4core3ptr87drop_in_place$LT$core..option..Option$LT$alloc..boxed..Box$LT$syn..pat..Pat$GT$$GT$$GT$17ha7f5fe0e6f73e820E', symObjAddr: 0x6E90, symBinAddr: 0xC87F0, symSize: 0x50 }
  - { offsetInCU: 0x1A8A5, offset: 0x42367C, size: 0x8, addend: 0x0, symName: '__ZN4core3ptr87drop_in_place$LT$core..option..Option$LT$alloc..boxed..Box$LT$syn..ty..Type$GT$$GT$$GT$17hc8292da82d129de3E', symObjAddr: 0x6EE0, symBinAddr: 0xC8840, symSize: 0x50 }
  - { offsetInCU: 0x1AA15, offset: 0x4237EC, size: 0x8, addend: 0x0, symName: '__ZN4core3ptr89drop_in_place$LT$core..option..Option$LT$alloc..boxed..Box$LT$syn..expr..Expr$GT$$GT$$GT$17hdc211ccd33f196f2E', symObjAddr: 0x6F30, symBinAddr: 0xC8890, symSize: 0x50 }
  - { offsetInCU: 0x1ABC3, offset: 0x42399A, size: 0x8, addend: 0x0, symName: '__ZN4core3ptr89drop_in_place$LT$syn..punctuated..Punctuated$LT$syn..pat..Pat$C$syn..token..Comma$GT$$GT$17hf8371102b0500adcE', symObjAddr: 0x6F80, symBinAddr: 0xC88E0, symSize: 0x120 }
  - { offsetInCU: 0x1B055, offset: 0x423E2C, size: 0x8, addend: 0x0, symName: '__ZN4core3ptr89drop_in_place$LT$syn..punctuated..Punctuated$LT$syn..ty..Type$C$syn..token..Comma$GT$$GT$17h1c6e43341fabea97E', symObjAddr: 0x70A0, symBinAddr: 0xC8A00, symSize: 0x120 }
  - { offsetInCU: 0x1B50E, offset: 0x4242E5, size: 0x8, addend: 0x0, symName: '__ZN4core3ptr91drop_in_place$LT$syn..punctuated..Punctuated$LT$syn..expr..Expr$C$syn..token..Comma$GT$$GT$17hd2dfeb0c522d9a18E', symObjAddr: 0x71C0, symBinAddr: 0xC8B20, symSize: 0x120 }
  - { offsetInCU: 0x1B99C, offset: 0x424773, size: 0x8, addend: 0x0, symName: '__ZN4core3ptr92drop_in_place$LT$core..option..Option$LT$alloc..boxed..Box$LT$syn..ty..BareFnArg$GT$$GT$$GT$17h2b57ab7ac835f762E', symObjAddr: 0x72E0, symBinAddr: 0xC8C40, symSize: 0x50 }
  - { offsetInCU: 0x1BB0C, offset: 0x4248E3, size: 0x8, addend: 0x0, symName: '__ZN4core3ptr94drop_in_place$LT$syn..punctuated..Punctuated$LT$syn..pat..FieldPat$C$syn..token..Comma$GT$$GT$17h612cbc9066d5afb1E', symObjAddr: 0x7330, symBinAddr: 0xC8C90, symSize: 0xF0 }
  - { offsetInCU: 0x1BE0B, offset: 0x424BE2, size: 0x8, addend: 0x0, symName: '__ZN4core3ptr94drop_in_place$LT$syn..punctuated..Punctuated$LT$syn..ty..BareFnArg$C$syn..token..Comma$GT$$GT$17ha9a668ce9972795bE', symObjAddr: 0x7420, symBinAddr: 0xC8D80, symSize: 0xF0 }
  - { offsetInCU: 0x1C108, offset: 0x424EDF, size: 0x8, addend: 0x0, symName: '__ZN4core3ptr96drop_in_place$LT$core..option..Option$LT$alloc..boxed..Box$LT$syn..path..PathSegment$GT$$GT$$GT$17h2e81cbe3c70bb71cE', symObjAddr: 0x7510, symBinAddr: 0xC8E70, symSize: 0x180 }
  - { offsetInCU: 0x1C7C5, offset: 0x42559C, size: 0x8, addend: 0x0, symName: '__ZN4core3ptr97drop_in_place$LT$syn..punctuated..Punctuated$LT$syn..expr..FieldValue$C$syn..token..Comma$GT$$GT$17h11a5fffb46adfb11E', symObjAddr: 0x7690, symBinAddr: 0xC8FF0, symSize: 0xF0 }
  - { offsetInCU: 0x1CB3E, offset: 0x425915, size: 0x8, addend: 0x0, symName: '__ZN4core3ptr97drop_in_place$LT$syn..punctuated..Punctuated$LT$syn..lifetime..Lifetime$C$syn..token..Add$GT$$GT$17h5c54dea2c838d109E', symObjAddr: 0x7780, symBinAddr: 0xC90E0, symSize: 0xD0 }
  - { offsetInCU: 0x1CFB2, offset: 0x425D89, size: 0x8, addend: 0x0, symName: '__ZN4core3ptr99drop_in_place$LT$syn..punctuated..Punctuated$LT$syn..path..PathSegment$C$syn..token..Colon2$GT$$GT$17hb961e4d7989a33ceE', symObjAddr: 0x7850, symBinAddr: 0xC91B0, symSize: 0x140 }
  - { offsetInCU: 0x20C7A, offset: 0x429A51, size: 0x8, addend: 0x0, symName: __ZN5alloc5alloc15exchange_malloc17h9a87608d0224859dE, symObjAddr: 0x7990, symBinAddr: 0xC92F0, symSize: 0x40 }
  - { offsetInCU: 0x20FC5, offset: 0x429D9C, size: 0x8, addend: 0x0, symName: __ZN3syn2ty7parsing8ambig_ty17h2f1b8039981072ecE, symObjAddr: 0x79D0, symBinAddr: 0xC9330, symSize: 0x3E30 }
  - { offsetInCU: 0x2AAB6, offset: 0x43388D, size: 0x8, addend: 0x0, symName: __ZN3syn2ty7parsing13parse_bare_fn17h80d317b9b25c1545E, symObjAddr: 0xB800, symBinAddr: 0xCD160, symSize: 0x1020 }
  - { offsetInCU: 0x2C653, offset: 0x43542A, size: 0x8, addend: 0x0, symName: __ZN3syn2ty7parsing17parse_bare_fn_arg17hdc78aa118c86362cE, symObjAddr: 0xC820, symBinAddr: 0xCE180, symSize: 0x1074 }
  - { offsetInCU: 0x10E2, offset: 0x44BBFC, size: 0x8, addend: 0x0, symName: '__ZN3syn4path8printing79_$LT$impl$u20$quote..to_tokens..ToTokens$u20$for$u20$syn..path..PathSegment$GT$9to_tokens17h5780093d5322a054E', symObjAddr: 0xAD90, symBinAddr: 0xD9510, symSize: 0xB0 }
  - { offsetInCU: 0x1339, offset: 0x44BE53, size: 0x8, addend: 0x0, symName: '__ZN3syn4path8printing83_$LT$impl$u20$quote..to_tokens..ToTokens$u20$for$u20$syn..path..GenericArgument$GT$9to_tokens17he2f471d37de2478bE', symObjAddr: 0xAEE0, symBinAddr: 0xD95C0, symSize: 0x1B0 }
  - { offsetInCU: 0x174C, offset: 0x44C266, size: 0x8, addend: 0x0, symName: '__ZN3syn4path8printing98_$LT$impl$u20$quote..to_tokens..ToTokens$u20$for$u20$syn..path..AngleBracketedGenericArguments$GT$9to_tokens17h32f87affd9416c73E', symObjAddr: 0xB090, symBinAddr: 0xD9770, symSize: 0x1F0 }
  - { offsetInCU: 0x1EED, offset: 0x44CA07, size: 0x8, addend: 0x0, symName: '__ZN64_$LT$syn..path..Path$u20$as$u20$core..convert..From$LT$T$GT$$GT$4from17h30da9cf1d495a6b9E', symObjAddr: 0x7E50, symBinAddr: 0xD6900, symSize: 0xD0 }
  - { offsetInCU: 0x1FBA, offset: 0x44CAD4, size: 0x8, addend: 0x0, symName: '__ZN64_$LT$syn..path..Path$u20$as$u20$core..convert..From$LT$T$GT$$GT$4from17h73328aa137b29f75E', symObjAddr: 0x7F20, symBinAddr: 0xD69D0, symSize: 0xC0 }
  - { offsetInCU: 0x2053, offset: 0x44CB6D, size: 0x8, addend: 0x0, symName: '__ZN3syn4path7parsing74_$LT$impl$u20$syn..parse..Parse$u20$for$u20$syn..path..GenericArgument$GT$5parse17h441792ad5874dae2E', symObjAddr: 0x8000, symBinAddr: 0xD6A90, symSize: 0x1510 }
  - { offsetInCU: 0x4999, offset: 0x44F4B3, size: 0x8, addend: 0x0, symName: '__ZN3syn4path7parsing89_$LT$impl$u20$syn..parse..Parse$u20$for$u20$syn..path..AngleBracketedGenericArguments$GT$5parse17h5114b408010754bbE', symObjAddr: 0x9510, symBinAddr: 0xD7FA0, symSize: 0x3C0 }
  - { offsetInCU: 0x4F89, offset: 0x44FAA3, size: 0x8, addend: 0x0, symName: '__ZN3syn4path7parsing88_$LT$impl$u20$syn..parse..Parse$u20$for$u20$syn..path..ParenthesizedGenericArguments$GT$5parse17h1bef1f4d9d5a8f24E', symObjAddr: 0x98D0, symBinAddr: 0xD8360, symSize: 0x4D0 }
  - { offsetInCU: 0x562A, offset: 0x450144, size: 0x8, addend: 0x0, symName: '__ZN3syn4path7parsing69_$LT$impl$u20$syn..parse..Parse$u20$for$u20$syn..path..Constraint$GT$5parse17ha9fdfd7091174960E', symObjAddr: 0xA2E0, symBinAddr: 0xD8B40, symSize: 0x190 }
  - { offsetInCU: 0xBD50, offset: 0x45686A, size: 0x8, addend: 0x0, symName: '__ZN4core3ptr100drop_in_place$LT$core..option..Option$LT$alloc..boxed..Box$LT$syn..generics..LifetimeDef$GT$$GT$$GT$17h75a6086997697dd7E', symObjAddr: 0x350, symBinAddr: 0xCF200, symSize: 0x150 }
  - { offsetInCU: 0xC2CC, offset: 0x456DE6, size: 0x8, addend: 0x0, symName: '__ZN4core3ptr100drop_in_place$LT$core..option..Option$LT$alloc..boxed..Box$LT$syn..path..GenericArgument$GT$$GT$$GT$17h3d29ec00a8f1918dE', symObjAddr: 0x4A0, symBinAddr: 0xCF350, symSize: 0x50 }
  - { offsetInCU: 0xC499, offset: 0x456FB3, size: 0x8, addend: 0x0, symName: '__ZN4core3ptr102drop_in_place$LT$syn..punctuated..Punctuated$LT$syn..path..GenericArgument$C$syn..token..Comma$GT$$GT$17h4b445f97c5aefb0eE.llvm.1713203133839808911', symObjAddr: 0x4F0, symBinAddr: 0xCF3A0, symSize: 0xF0 }
  - { offsetInCU: 0xC7F3, offset: 0x45730D, size: 0x8, addend: 0x0, symName: '__ZN4core3ptr103drop_in_place$LT$core..option..Option$LT$alloc..boxed..Box$LT$syn..generics..TypeParamBound$GT$$GT$$GT$17h6cee73bc2b2ecea8E', symObjAddr: 0x5E0, symBinAddr: 0xCF490, symSize: 0x90 }
  - { offsetInCU: 0xCB68, offset: 0x457682, size: 0x8, addend: 0x0, symName: '__ZN4core3ptr103drop_in_place$LT$syn..punctuated..Punctuated$LT$syn..generics..TypeParamBound$C$syn..token..Add$GT$$GT$17he811d520c92af08aE', symObjAddr: 0x670, symBinAddr: 0xCF520, symSize: 0x1C0 }
  - { offsetInCU: 0xD3B9, offset: 0x457ED3, size: 0x8, addend: 0x0, symName: '__ZN4core3ptr108drop_in_place$LT$syn..punctuated..Punctuated$LT$syn..expr..GenericMethodArgument$C$syn..token..Comma$GT$$GT$17h92cbabe4862b2183E', symObjAddr: 0x830, symBinAddr: 0xCF6E0, symSize: 0x150 }
  - { offsetInCU: 0xD912, offset: 0x45842C, size: 0x8, addend: 0x0, symName: '__ZN4core3ptr34drop_in_place$LT$syn..lit..Lit$GT$17hbe1efe749a08dd9aE', symObjAddr: 0x980, symBinAddr: 0xCF830, symSize: 0x110 }
  - { offsetInCU: 0xDD84, offset: 0x45889E, size: 0x8, addend: 0x0, symName: '__ZN4core3ptr34drop_in_place$LT$syn..pat..Pat$GT$17h3201f642e43ac2a2E', symObjAddr: 0xA90, symBinAddr: 0xCF940, symSize: 0x1190 }
  - { offsetInCU: 0x11C9C, offset: 0x45C7B6, size: 0x8, addend: 0x0, symName: '__ZN4core3ptr34drop_in_place$LT$syn..ty..Type$GT$17hfb5d159a08190130E.llvm.1713203133839808911', symObjAddr: 0x1C20, symBinAddr: 0xD0AD0, symSize: 0x580 }
  - { offsetInCU: 0x1358E, offset: 0x45E0A8, size: 0x8, addend: 0x0, symName: '__ZN4core3ptr36drop_in_place$LT$syn..expr..Expr$GT$17hf1921d1b09462bc3E.llvm.1713203133839808911', symObjAddr: 0x21A0, symBinAddr: 0xD1050, symSize: 0x3120 }
  - { offsetInCU: 0x1D919, offset: 0x468433, size: 0x8, addend: 0x0, symName: '__ZN4core3ptr36drop_in_place$LT$syn..mac..Macro$GT$17h205613d7ad575f72E', symObjAddr: 0x52C0, symBinAddr: 0xD4170, symSize: 0x40 }
  - { offsetInCU: 0x1DA0D, offset: 0x468527, size: 0x8, addend: 0x0, symName: '__ZN4core3ptr36drop_in_place$LT$syn..path..Path$GT$17he6d0bec66d66b98aE.llvm.1713203133839808911', symObjAddr: 0x5300, symBinAddr: 0xD41B0, symSize: 0x230 }
  - { offsetInCU: 0x1E3A3, offset: 0x468EBD, size: 0x8, addend: 0x0, symName: '__ZN4core3ptr37drop_in_place$LT$syn..stmt..Block$GT$17h3aa429e75a234230E', symObjAddr: 0x5530, symBinAddr: 0xD43E0, symSize: 0xD0 }
  - { offsetInCU: 0x1E67A, offset: 0x469194, size: 0x8, addend: 0x0, symName: '__ZN4core3ptr38drop_in_place$LT$syn..expr..Member$GT$17ha113d37a67d27aafE', symObjAddr: 0x5600, symBinAddr: 0xD44B0, symSize: 0x30 }
  - { offsetInCU: 0x1E776, offset: 0x469290, size: 0x8, addend: 0x0, symName: '__ZN4core3ptr39drop_in_place$LT$proc_macro2..Ident$GT$17hdeec010483268a0dE.llvm.1713203133839808911', symObjAddr: 0x5630, symBinAddr: 0xD44E0, symSize: 0x30 }
  - { offsetInCU: 0x1E853, offset: 0x46936D, size: 0x8, addend: 0x0, symName: '__ZN4core3ptr39drop_in_place$LT$syn..pat..PatTuple$GT$17h96faeea9832d4c4bE', symObjAddr: 0x5660, symBinAddr: 0xD4510, symSize: 0x100 }
  - { offsetInCU: 0x1EB5C, offset: 0x469676, size: 0x8, addend: 0x0, symName: '__ZN4core3ptr40drop_in_place$LT$syn..ty..ReturnType$GT$17h6f97c9fdb958983eE.llvm.1713203133839808911', symObjAddr: 0x57B0, symBinAddr: 0xD4610, symSize: 0x50 }
  - { offsetInCU: 0x1ECCC, offset: 0x4697E6, size: 0x8, addend: 0x0, symName: '__ZN4core3ptr41drop_in_place$LT$syn..expr..ExprBlock$GT$17h7a5a7c5008d30d27E', symObjAddr: 0x5800, symBinAddr: 0xD4660, symSize: 0x1D0 }
  - { offsetInCU: 0x1F41A, offset: 0x469F34, size: 0x8, addend: 0x0, symName: '__ZN4core3ptr44drop_in_place$LT$syn..lifetime..Lifetime$GT$17h3858225df033648aE.llvm.1713203133839808911', symObjAddr: 0x5A60, symBinAddr: 0xD4830, symSize: 0x30 }
  - { offsetInCU: 0x1F592, offset: 0x46A0AC, size: 0x8, addend: 0x0, symName: '__ZN4core3ptr44drop_in_place$LT$syn..parse..ParseBuffer$GT$17h19c266fcccc430cbE', symObjAddr: 0x5A90, symBinAddr: 0xD4860, symSize: 0x70 }
  - { offsetInCU: 0x1F9A9, offset: 0x46A4C3, size: 0x8, addend: 0x0, symName: '__ZN4core3ptr45drop_in_place$LT$proc_macro2..TokenStream$GT$17h2507cb30e765dc85E', symObjAddr: 0x5B00, symBinAddr: 0xD48D0, symSize: 0x140 }
  - { offsetInCU: 0x1FE24, offset: 0x46A93E, size: 0x8, addend: 0x0, symName: '__ZN4core3ptr45drop_in_place$LT$syn..path..PathArguments$GT$17h9dd953520dcdc907E.llvm.1713203133839808911', symObjAddr: 0x5C40, symBinAddr: 0xD4A10, symSize: 0x170 }
  - { offsetInCU: 0x2030F, offset: 0x46AE29, size: 0x8, addend: 0x0, symName: '__ZN4core3ptr47drop_in_place$LT$syn..path..GenericArgument$GT$17h8c0a0d8c6deaefb4E', symObjAddr: 0x5DB0, symBinAddr: 0xD4B80, symSize: 0x110 }
  - { offsetInCU: 0x2062A, offset: 0x46B144, size: 0x8, addend: 0x0, symName: '__ZN4core3ptr58drop_in_place$LT$alloc..vec..Vec$LT$syn..expr..Arm$GT$$GT$17hf3db0825f3d9c861E', symObjAddr: 0x5EC0, symBinAddr: 0xD4C90, symSize: 0xD0 }
  - { offsetInCU: 0x208EA, offset: 0x46B404, size: 0x8, addend: 0x0, symName: '__ZN4core3ptr59drop_in_place$LT$alloc..boxed..Box$LT$syn..pat..Pat$GT$$GT$17h7037ce9bbd3729c6E', symObjAddr: 0x5F90, symBinAddr: 0xD4D60, symSize: 0x50 }
  - { offsetInCU: 0x20A43, offset: 0x46B55D, size: 0x8, addend: 0x0, symName: '__ZN4core3ptr59drop_in_place$LT$alloc..boxed..Box$LT$syn..ty..Type$GT$$GT$17h2eccd13329dbe4faE.llvm.1713203133839808911', symObjAddr: 0x5FE0, symBinAddr: 0xD4DB0, symSize: 0x50 }
  - { offsetInCU: 0x20B9C, offset: 0x46B6B6, size: 0x8, addend: 0x0, symName: '__ZN4core3ptr61drop_in_place$LT$alloc..boxed..Box$LT$syn..expr..Expr$GT$$GT$17h66094ddc89015516E', symObjAddr: 0x6030, symBinAddr: 0xD4E00, symSize: 0x50 }
  - { offsetInCU: 0x20D71, offset: 0x46B88B, size: 0x8, addend: 0x0, symName: '__ZN4core3ptr61drop_in_place$LT$syn..path..ParenthesizedGenericArguments$GT$17h21be9b1d7a6fab55E', symObjAddr: 0x6080, symBinAddr: 0xD4E50, symSize: 0x170 }
  - { offsetInCU: 0x21367, offset: 0x46BE81, size: 0x8, addend: 0x0, symName: '__ZN4core3ptr62drop_in_place$LT$syn..path..AngleBracketedGenericArguments$GT$17hb7a83ee4457fe586E', symObjAddr: 0x61F0, symBinAddr: 0xD4FC0, symSize: 0x120 }
  - { offsetInCU: 0x217AE, offset: 0x46C2C8, size: 0x8, addend: 0x0, symName: '__ZN4core3ptr63drop_in_place$LT$alloc..boxed..Box$LT$syn..lit..LitRepr$GT$$GT$17h9c509b794406150eE', symObjAddr: 0x6310, symBinAddr: 0xD50E0, symSize: 0x60 }
  - { offsetInCU: 0x21AB5, offset: 0x46C5CF, size: 0x8, addend: 0x0, symName: '__ZN4core3ptr64drop_in_place$LT$alloc..boxed..Box$LT$syn..pat..FieldPat$GT$$GT$17hb167b355d0d4733fE', symObjAddr: 0x6370, symBinAddr: 0xD5140, symSize: 0x180 }
  - { offsetInCU: 0x221D2, offset: 0x46CCEC, size: 0x8, addend: 0x0, symName: '__ZN4core3ptr64drop_in_place$LT$alloc..boxed..Box$LT$syn..ty..BareFnArg$GT$$GT$17h6488be9448346678E', symObjAddr: 0x64F0, symBinAddr: 0xD52C0, symSize: 0x160 }
  - { offsetInCU: 0x22768, offset: 0x46D282, size: 0x8, addend: 0x0, symName: '__ZN4core3ptr65drop_in_place$LT$alloc..vec..Vec$LT$proc_macro..TokenTree$GT$$GT$17hc3670dd5608d5259E', symObjAddr: 0x6650, symBinAddr: 0xD5420, symSize: 0x110 }
  - { offsetInCU: 0x22B60, offset: 0x46D67A, size: 0x8, addend: 0x0, symName: '__ZN4core3ptr65drop_in_place$LT$core..option..Option$LT$syn..expr..Label$GT$$GT$17ha723640fd01bec5dE', symObjAddr: 0x6760, symBinAddr: 0xD5530, symSize: 0x30 }
  - { offsetInCU: 0x22C9A, offset: 0x46D7B4, size: 0x8, addend: 0x0, symName: '__ZN4core3ptr66drop_in_place$LT$core..option..Option$LT$syn..ty..Variadic$GT$$GT$17hc32134bb3933b0dfE', symObjAddr: 0x6790, symBinAddr: 0xD5560, symSize: 0xF0 }
  - { offsetInCU: 0x22FC4, offset: 0x46DADE, size: 0x8, addend: 0x0, symName: '__ZN4core3ptr67drop_in_place$LT$alloc..boxed..Box$LT$syn..expr..FieldValue$GT$$GT$17h8df780aa600ea8c2E', symObjAddr: 0x6880, symBinAddr: 0xD5650, symSize: 0x160 }
  - { offsetInCU: 0x2353A, offset: 0x46E054, size: 0x8, addend: 0x0, symName: '__ZN4core3ptr68drop_in_place$LT$alloc..boxed..Box$LT$syn..path..PathSegment$GT$$GT$17h1957b54eed39c0bbE.llvm.1713203133839808911', symObjAddr: 0x69E0, symBinAddr: 0xD57B0, symSize: 0x190 }
  - { offsetInCU: 0x23C44, offset: 0x46E75E, size: 0x8, addend: 0x0, symName: '__ZN4core3ptr72drop_in_place$LT$alloc..boxed..Box$LT$syn..path..GenericArgument$GT$$GT$17ha8f8136d0c2b505bE.llvm.1713203133839808911', symObjAddr: 0x6B70, symBinAddr: 0xD5940, symSize: 0x180 }
  - { offsetInCU: 0x242E4, offset: 0x46EDFE, size: 0x8, addend: 0x0, symName: '__ZN4core3ptr72drop_in_place$LT$core..option..Option$LT$syn..lifetime..Lifetime$GT$$GT$17h31b55b93749c174dE', symObjAddr: 0x6CF0, symBinAddr: 0xD5AC0, symSize: 0x30 }
  - { offsetInCU: 0x243FF, offset: 0x46EF19, size: 0x8, addend: 0x0, symName: '__ZN4core3ptr75drop_in_place$LT$alloc..boxed..Box$LT$syn..generics..TypeParamBound$GT$$GT$17h8f156ce07ea0b8b2E', symObjAddr: 0x6D20, symBinAddr: 0xD5AF0, symSize: 0x140 }
  - { offsetInCU: 0x2495A, offset: 0x46F474, size: 0x8, addend: 0x0, symName: '__ZN4core3ptr78drop_in_place$LT$alloc..boxed..Box$LT$syn..expr..GenericMethodArgument$GT$$GT$17h3384c00b5bd54c2aE', symObjAddr: 0x6E60, symBinAddr: 0xD5C30, symSize: 0x60 }
  - { offsetInCU: 0x24B4C, offset: 0x46F666, size: 0x8, addend: 0x0, symName: '__ZN4core3ptr78drop_in_place$LT$core..option..Option$LT$syn..generics..BoundLifetimes$GT$$GT$17h8175e66ad0c4a156E', symObjAddr: 0x6EC0, symBinAddr: 0xD5C90, symSize: 0xE0 }
  - { offsetInCU: 0x24EC9, offset: 0x46F9E3, size: 0x8, addend: 0x0, symName: '__ZN4core3ptr86drop_in_place$LT$syn..punctuated..Punctuated$LT$syn..pat..Pat$C$syn..token..Or$GT$$GT$17h1078c5d178d382b7E', symObjAddr: 0x6FA0, symBinAddr: 0xD5D70, symSize: 0x120 }
  - { offsetInCU: 0x25344, offset: 0x46FE5E, size: 0x8, addend: 0x0, symName: '__ZN4core3ptr87drop_in_place$LT$core..option..Option$LT$alloc..boxed..Box$LT$syn..pat..Pat$GT$$GT$$GT$17ha7f5fe0e6f73e820E', symObjAddr: 0x70C0, symBinAddr: 0xD5E90, symSize: 0x50 }
  - { offsetInCU: 0x254B4, offset: 0x46FFCE, size: 0x8, addend: 0x0, symName: '__ZN4core3ptr87drop_in_place$LT$core..option..Option$LT$alloc..boxed..Box$LT$syn..ty..Type$GT$$GT$$GT$17hc8292da82d129de3E', symObjAddr: 0x7110, symBinAddr: 0xD5EE0, symSize: 0x50 }
  - { offsetInCU: 0x25624, offset: 0x47013E, size: 0x8, addend: 0x0, symName: '__ZN4core3ptr89drop_in_place$LT$core..option..Option$LT$alloc..boxed..Box$LT$syn..expr..Expr$GT$$GT$$GT$17hdc211ccd33f196f2E', symObjAddr: 0x7160, symBinAddr: 0xD5F30, symSize: 0x50 }
  - { offsetInCU: 0x257D2, offset: 0x4702EC, size: 0x8, addend: 0x0, symName: '__ZN4core3ptr89drop_in_place$LT$syn..punctuated..Punctuated$LT$syn..pat..Pat$C$syn..token..Comma$GT$$GT$17hf8371102b0500adcE', symObjAddr: 0x71B0, symBinAddr: 0xD5F80, symSize: 0x120 }
  - { offsetInCU: 0x25C64, offset: 0x47077E, size: 0x8, addend: 0x0, symName: '__ZN4core3ptr89drop_in_place$LT$syn..punctuated..Punctuated$LT$syn..ty..Type$C$syn..token..Comma$GT$$GT$17h1c6e43341fabea97E.llvm.1713203133839808911', symObjAddr: 0x72D0, symBinAddr: 0xD60A0, symSize: 0x120 }
  - { offsetInCU: 0x2611D, offset: 0x470C37, size: 0x8, addend: 0x0, symName: '__ZN4core3ptr91drop_in_place$LT$syn..punctuated..Punctuated$LT$syn..expr..Expr$C$syn..token..Comma$GT$$GT$17hd2dfeb0c522d9a18E', symObjAddr: 0x73F0, symBinAddr: 0xD61C0, symSize: 0x120 }
  - { offsetInCU: 0x265AB, offset: 0x4710C5, size: 0x8, addend: 0x0, symName: '__ZN4core3ptr94drop_in_place$LT$syn..punctuated..Punctuated$LT$syn..pat..FieldPat$C$syn..token..Comma$GT$$GT$17h612cbc9066d5afb1E', symObjAddr: 0x7510, symBinAddr: 0xD62E0, symSize: 0xF0 }
  - { offsetInCU: 0x268AA, offset: 0x4713C4, size: 0x8, addend: 0x0, symName: '__ZN4core3ptr94drop_in_place$LT$syn..punctuated..Punctuated$LT$syn..ty..BareFnArg$C$syn..token..Comma$GT$$GT$17ha9a668ce9972795bE', symObjAddr: 0x7600, symBinAddr: 0xD63D0, symSize: 0xF0 }
  - { offsetInCU: 0x26BA7, offset: 0x4716C1, size: 0x8, addend: 0x0, symName: '__ZN4core3ptr96drop_in_place$LT$core..option..Option$LT$alloc..boxed..Box$LT$syn..path..PathSegment$GT$$GT$$GT$17h2e81cbe3c70bb71cE', symObjAddr: 0x76F0, symBinAddr: 0xD64C0, symSize: 0x90 }
  - { offsetInCU: 0x26E26, offset: 0x471940, size: 0x8, addend: 0x0, symName: '__ZN4core3ptr97drop_in_place$LT$syn..punctuated..Punctuated$LT$syn..expr..FieldValue$C$syn..token..Comma$GT$$GT$17h11a5fffb46adfb11E', symObjAddr: 0x7780, symBinAddr: 0xD6550, symSize: 0xF0 }
  - { offsetInCU: 0x2719F, offset: 0x471CB9, size: 0x8, addend: 0x0, symName: '__ZN4core3ptr97drop_in_place$LT$syn..punctuated..Punctuated$LT$syn..lifetime..Lifetime$C$syn..token..Add$GT$$GT$17h5c54dea2c838d109E', symObjAddr: 0x7870, symBinAddr: 0xD6640, symSize: 0xD0 }
  - { offsetInCU: 0x27613, offset: 0x47212D, size: 0x8, addend: 0x0, symName: '__ZN4core3ptr99drop_in_place$LT$syn..punctuated..Punctuated$LT$syn..path..PathSegment$C$syn..token..Colon2$GT$$GT$17hb961e4d7989a33ceE.llvm.1713203133839808911', symObjAddr: 0x7940, symBinAddr: 0xD6710, symSize: 0x140 }
  - { offsetInCU: 0x2EEC2, offset: 0x4799DC, size: 0x8, addend: 0x0, symName: '__ZN52_$LT$$RF$T$u20$as$u20$quote..to_tokens..ToTokens$GT$9to_tokens17h2d6aa787d2429e16E', symObjAddr: 0x7A80, symBinAddr: 0xD6850, symSize: 0xB0 }
  - { offsetInCU: 0x2FCFF, offset: 0x47A819, size: 0x8, addend: 0x0, symName: '__ZN3syn4path7parsing40_$LT$impl$u20$syn..path..PathSegment$GT$12parse_helper17h315cd3b895d45170E', symObjAddr: 0x9DC0, symBinAddr: 0xD8830, symSize: 0x310 }
  - { offsetInCU: 0x3090F, offset: 0x47B429, size: 0x8, addend: 0x0, symName: '__ZN3syn4path7parsing33_$LT$impl$u20$syn..path..Path$GT$15parse_mod_style17hc569c4a93b3c1904E', symObjAddr: 0xA470, symBinAddr: 0xD8CD0, symSize: 0x390 }
  - { offsetInCU: 0x311DC, offset: 0x47BCF6, size: 0x8, addend: 0x0, symName: '__ZN3syn4path7parsing33_$LT$impl$u20$syn..path..Path$GT$12parse_helper17hb97968e16ccb5f02E', symObjAddr: 0xA890, symBinAddr: 0xD9060, symSize: 0x2E0 }
  - { offsetInCU: 0x3154F, offset: 0x47C069, size: 0x8, addend: 0x0, symName: '__ZN3syn4path7parsing33_$LT$impl$u20$syn..path..Path$GT$10parse_rest17h0209a536f8923d05E', symObjAddr: 0xAB70, symBinAddr: 0xD9340, symSize: 0x1D0 }
  - { offsetInCU: 0x1E, offset: 0x480795, size: 0x8, addend: 0x0, symName: '__ZN4core3fmt3num49_$LT$impl$u20$core..fmt..Debug$u20$for$u20$u8$GT$3fmt17hc788f910a40d7410E', symObjAddr: 0x0, symBinAddr: 0xD9960, symSize: 0x30 }
  - { offsetInCU: 0x52B, offset: 0x480CA2, size: 0x8, addend: 0x0, symName: '__ZN4core3ptr46drop_in_place$LT$alloc..vec..Vec$LT$u8$GT$$GT$17hee6a0afce2ae0617E', symObjAddr: 0x30, symBinAddr: 0xD9990, symSize: 0x20 }
  - { offsetInCU: 0x633, offset: 0x480DAA, size: 0x8, addend: 0x0, symName: '__ZN4core3ptr49drop_in_place$LT$alloc..string..FromUtf8Error$GT$17h22a11533a311fef2E', symObjAddr: 0x50, symBinAddr: 0xD99B0, symSize: 0x20 }
  - { offsetInCU: 0x2308, offset: 0x482A7F, size: 0x8, addend: 0x0, symName: '__ZN4core3fmt3num49_$LT$impl$u20$core..fmt..Debug$u20$for$u20$u8$GT$3fmt17hc788f910a40d7410E', symObjAddr: 0x0, symBinAddr: 0xD9960, symSize: 0x30 }
  - { offsetInCU: 0x38CA, offset: 0x484041, size: 0x8, addend: 0x0, symName: '__ZN65_$LT$alloc..string..FromUtf8Error$u20$as$u20$core..fmt..Debug$GT$3fmt17h0c1e2aafb1cc24ffE', symObjAddr: 0x70, symBinAddr: 0xD99D0, symSize: 0x70 }
  - { offsetInCU: 0x477D, offset: 0x484EF4, size: 0x8, addend: 0x0, symName: _anon.e4a1ff2ca11180236fdf8c7d42f54c4c.2.llvm.7957929171610032867, symObjAddr: 0x3190, symBinAddr: 0x204A18, symSize: 0x0 }
  - { offsetInCU: 0x4B10, offset: 0x485287, size: 0x8, addend: 0x0, symName: __ZN3syn3lit5value13parse_lit_str17hbd973b9d52466f19E, symObjAddr: 0x100, symBinAddr: 0xD9A40, symSize: 0x930 }
  - { offsetInCU: 0x645F, offset: 0x486BD6, size: 0x8, addend: 0x0, symName: __ZN3syn3lit5value17parse_lit_str_raw17h4ba7d09dfe730728E, symObjAddr: 0xA30, symBinAddr: 0xDA370, symSize: 0x3C0 }
  - { offsetInCU: 0x774C, offset: 0x487EC3, size: 0x8, addend: 0x0, symName: __ZN3syn3lit5value18parse_lit_byte_str17hb4dd1a03502d579aE, symObjAddr: 0xDF0, symBinAddr: 0xDA730, symSize: 0x5F0 }
  - { offsetInCU: 0x8A00, offset: 0x489177, size: 0x8, addend: 0x0, symName: __ZN3syn3lit5value14parse_lit_byte17hcc7df3facb545454E, symObjAddr: 0x13E0, symBinAddr: 0xDAD20, symSize: 0x370 }
  - { offsetInCU: 0x951B, offset: 0x489C92, size: 0x8, addend: 0x0, symName: __ZN3syn3lit5value14parse_lit_char17h348f0e160d8a3e47E, symObjAddr: 0x1750, symBinAddr: 0xDB090, symSize: 0x500 }
  - { offsetInCU: 0xA242, offset: 0x48A9B9, size: 0x8, addend: 0x0, symName: __ZN3syn3lit5value11backslash_x17h6eb85bccb7434fb3E, symObjAddr: 0x1C50, symBinAddr: 0xDB590, symSize: 0x110 }
  - { offsetInCU: 0xA4D6, offset: 0x48AC4D, size: 0x8, addend: 0x0, symName: __ZN3syn3lit5value11backslash_x17he2dbe8f92999d67fE, symObjAddr: 0x1D60, symBinAddr: 0xDB6A0, symSize: 0xF0 }
  - { offsetInCU: 0xA6FC, offset: 0x48AE73, size: 0x8, addend: 0x0, symName: __ZN3syn3lit5value11backslash_u17hdba6d5717606d882E, symObjAddr: 0x1E50, symBinAddr: 0xDB790, symSize: 0x320 }
  - { offsetInCU: 0xAEAE, offset: 0x48B625, size: 0x8, addend: 0x0, symName: __ZN3syn3lit5value13parse_lit_int17h50396dbb0b2b3541E, symObjAddr: 0x2170, symBinAddr: 0xDBAB0, symSize: 0x690 }
  - { offsetInCU: 0xC37B, offset: 0x48CAF2, size: 0x8, addend: 0x0, symName: __ZN3syn3lit5value15parse_lit_float17h410f89a332685d14E, symObjAddr: 0x2800, symBinAddr: 0xDC140, symSize: 0x7A0 }
  - { offsetInCU: 0x1E, offset: 0x48F1F2, size: 0x8, addend: 0x0, symName: '__ZN4core3ptr100drop_in_place$LT$core..option..Option$LT$alloc..boxed..Box$LT$syn..generics..LifetimeDef$GT$$GT$$GT$17h75a6086997697dd7E', symObjAddr: 0x0, symBinAddr: 0xDC8E0, symSize: 0x150 }
  - { offsetInCU: 0x99A, offset: 0x48FB6E, size: 0x8, addend: 0x0, symName: '__ZN4core3ptr100drop_in_place$LT$core..option..Option$LT$alloc..boxed..Box$LT$syn..generics..LifetimeDef$GT$$GT$$GT$17h75a6086997697dd7E', symObjAddr: 0x0, symBinAddr: 0xDC8E0, symSize: 0x150 }
  - { offsetInCU: 0xF16, offset: 0x4900EA, size: 0x8, addend: 0x0, symName: '__ZN4core3ptr100drop_in_place$LT$core..option..Option$LT$alloc..boxed..Box$LT$syn..path..GenericArgument$GT$$GT$$GT$17h3d29ec00a8f1918dE', symObjAddr: 0x150, symBinAddr: 0xDCA30, symSize: 0x50 }
  - { offsetInCU: 0x10E3, offset: 0x4902B7, size: 0x8, addend: 0x0, symName: '__ZN4core3ptr103drop_in_place$LT$core..option..Option$LT$alloc..boxed..Box$LT$syn..generics..TypeParamBound$GT$$GT$$GT$17h6cee73bc2b2ecea8E', symObjAddr: 0x1A0, symBinAddr: 0xDCA80, symSize: 0x90 }
  - { offsetInCU: 0x1458, offset: 0x49062C, size: 0x8, addend: 0x0, symName: '__ZN4core3ptr103drop_in_place$LT$syn..punctuated..Punctuated$LT$syn..generics..TypeParamBound$C$syn..token..Add$GT$$GT$17he811d520c92af08aE', symObjAddr: 0x230, symBinAddr: 0xDCB10, symSize: 0x1C0 }
  - { offsetInCU: 0x1CA9, offset: 0x490E7D, size: 0x8, addend: 0x0, symName: '__ZN4core3ptr108drop_in_place$LT$syn..punctuated..Punctuated$LT$syn..expr..GenericMethodArgument$C$syn..token..Comma$GT$$GT$17h92cbabe4862b2183E', symObjAddr: 0x3F0, symBinAddr: 0xDCCD0, symSize: 0x150 }
  - { offsetInCU: 0x2202, offset: 0x4913D6, size: 0x8, addend: 0x0, symName: '__ZN4core3ptr34drop_in_place$LT$syn..lit..Lit$GT$17hbe1efe749a08dd9aE', symObjAddr: 0x540, symBinAddr: 0xDCE20, symSize: 0x110 }
  - { offsetInCU: 0x2674, offset: 0x491848, size: 0x8, addend: 0x0, symName: '__ZN4core3ptr34drop_in_place$LT$syn..pat..Pat$GT$17h3201f642e43ac2a2E', symObjAddr: 0x650, symBinAddr: 0xDCF30, symSize: 0x1180 }
  - { offsetInCU: 0x654C, offset: 0x495720, size: 0x8, addend: 0x0, symName: '__ZN4core3ptr34drop_in_place$LT$syn..ty..Type$GT$17hfb5d159a08190130E', symObjAddr: 0x17D0, symBinAddr: 0xDE0B0, symSize: 0x580 }
  - { offsetInCU: 0x7E5D, offset: 0x497031, size: 0x8, addend: 0x0, symName: '__ZN4core3ptr36drop_in_place$LT$syn..expr..Expr$GT$17hf1921d1b09462bc3E', symObjAddr: 0x1D50, symBinAddr: 0xDE630, symSize: 0x32B0 }
  - { offsetInCU: 0x127E1, offset: 0x4A19B5, size: 0x8, addend: 0x0, symName: '__ZN4core3ptr36drop_in_place$LT$syn..mac..Macro$GT$17h205613d7ad575f72E', symObjAddr: 0x5000, symBinAddr: 0xE18E0, symSize: 0x40 }
  - { offsetInCU: 0x12932, offset: 0x4A1B06, size: 0x8, addend: 0x0, symName: '__ZN4core3ptr36drop_in_place$LT$syn..path..Path$GT$17he6d0bec66d66b98aE', symObjAddr: 0x5040, symBinAddr: 0xE1920, symSize: 0x230 }
  - { offsetInCU: 0x132C8, offset: 0x4A249C, size: 0x8, addend: 0x0, symName: '__ZN4core3ptr37drop_in_place$LT$syn..stmt..Block$GT$17h3aa429e75a234230E', symObjAddr: 0x5270, symBinAddr: 0xE1B50, symSize: 0xD0 }
  - { offsetInCU: 0x1359F, offset: 0x4A2773, size: 0x8, addend: 0x0, symName: '__ZN4core3ptr38drop_in_place$LT$syn..expr..Member$GT$17ha113d37a67d27aafE', symObjAddr: 0x5340, symBinAddr: 0xE1C20, symSize: 0x30 }
  - { offsetInCU: 0x1369B, offset: 0x4A286F, size: 0x8, addend: 0x0, symName: '__ZN4core3ptr39drop_in_place$LT$proc_macro2..Ident$GT$17hdeec010483268a0dE', symObjAddr: 0x5370, symBinAddr: 0xE1C50, symSize: 0x30 }
  - { offsetInCU: 0x13778, offset: 0x4A294C, size: 0x8, addend: 0x0, symName: '__ZN4core3ptr39drop_in_place$LT$syn..pat..PatTuple$GT$17h96faeea9832d4c4bE', symObjAddr: 0x53A0, symBinAddr: 0xE1C80, symSize: 0x100 }
  - { offsetInCU: 0x13A81, offset: 0x4A2C55, size: 0x8, addend: 0x0, symName: '__ZN4core3ptr40drop_in_place$LT$syn..ty..ReturnType$GT$17h6f97c9fdb958983eE', symObjAddr: 0x54A0, symBinAddr: 0xE1D80, symSize: 0x50 }
  - { offsetInCU: 0x13BF1, offset: 0x4A2DC5, size: 0x8, addend: 0x0, symName: '__ZN4core3ptr44drop_in_place$LT$syn..lifetime..Lifetime$GT$17h3858225df033648aE', symObjAddr: 0x54F0, symBinAddr: 0xE1DD0, symSize: 0x30 }
  - { offsetInCU: 0x13D69, offset: 0x4A2F3D, size: 0x8, addend: 0x0, symName: '__ZN4core3ptr44drop_in_place$LT$syn..parse..ParseBuffer$GT$17h19c266fcccc430cbE', symObjAddr: 0x5520, symBinAddr: 0xE1E00, symSize: 0x70 }
  - { offsetInCU: 0x14180, offset: 0x4A3354, size: 0x8, addend: 0x0, symName: '__ZN4core3ptr45drop_in_place$LT$proc_macro2..TokenStream$GT$17h2507cb30e765dc85E', symObjAddr: 0x5590, symBinAddr: 0xE1E70, symSize: 0x140 }
  - { offsetInCU: 0x145DC, offset: 0x4A37B0, size: 0x8, addend: 0x0, symName: '__ZN4core3ptr45drop_in_place$LT$syn..pat..PatTupleStruct$GT$17he53e5cc6ddf8805eE', symObjAddr: 0x56D0, symBinAddr: 0xE1FB0, symSize: 0x1E0 }
  - { offsetInCU: 0x14C3D, offset: 0x4A3E11, size: 0x8, addend: 0x0, symName: '__ZN4core3ptr47drop_in_place$LT$syn..path..GenericArgument$GT$17h8c0a0d8c6deaefb4E', symObjAddr: 0x58B0, symBinAddr: 0xE2190, symSize: 0x110 }
  - { offsetInCU: 0x14F58, offset: 0x4A412C, size: 0x8, addend: 0x0, symName: '__ZN4core3ptr58drop_in_place$LT$alloc..vec..Vec$LT$syn..expr..Arm$GT$$GT$17hf3db0825f3d9c861E', symObjAddr: 0x59C0, symBinAddr: 0xE22A0, symSize: 0xD0 }
  - { offsetInCU: 0x15218, offset: 0x4A43EC, size: 0x8, addend: 0x0, symName: '__ZN4core3ptr59drop_in_place$LT$alloc..boxed..Box$LT$syn..pat..Pat$GT$$GT$17h7037ce9bbd3729c6E', symObjAddr: 0x5A90, symBinAddr: 0xE2370, symSize: 0x50 }
  - { offsetInCU: 0x15371, offset: 0x4A4545, size: 0x8, addend: 0x0, symName: '__ZN4core3ptr59drop_in_place$LT$alloc..boxed..Box$LT$syn..ty..Type$GT$$GT$17h2eccd13329dbe4faE', symObjAddr: 0x5AE0, symBinAddr: 0xE23C0, symSize: 0x50 }
  - { offsetInCU: 0x154CA, offset: 0x4A469E, size: 0x8, addend: 0x0, symName: '__ZN4core3ptr61drop_in_place$LT$alloc..boxed..Box$LT$syn..expr..Expr$GT$$GT$17h66094ddc89015516E', symObjAddr: 0x5B30, symBinAddr: 0xE2410, symSize: 0x50 }
  - { offsetInCU: 0x1569F, offset: 0x4A4873, size: 0x8, addend: 0x0, symName: '__ZN4core3ptr61drop_in_place$LT$syn..path..ParenthesizedGenericArguments$GT$17h21be9b1d7a6fab55E', symObjAddr: 0x5B80, symBinAddr: 0xE2460, symSize: 0x170 }
  - { offsetInCU: 0x15C95, offset: 0x4A4E69, size: 0x8, addend: 0x0, symName: '__ZN4core3ptr63drop_in_place$LT$alloc..boxed..Box$LT$syn..lit..LitRepr$GT$$GT$17h9c509b794406150eE', symObjAddr: 0x5CF0, symBinAddr: 0xE25D0, symSize: 0x60 }
  - { offsetInCU: 0x15F9C, offset: 0x4A5170, size: 0x8, addend: 0x0, symName: '__ZN4core3ptr64drop_in_place$LT$alloc..boxed..Box$LT$syn..pat..FieldPat$GT$$GT$17hb167b355d0d4733fE', symObjAddr: 0x5D50, symBinAddr: 0xE2630, symSize: 0x180 }
  - { offsetInCU: 0x166B9, offset: 0x4A588D, size: 0x8, addend: 0x0, symName: '__ZN4core3ptr64drop_in_place$LT$alloc..boxed..Box$LT$syn..ty..BareFnArg$GT$$GT$17h6488be9448346678E', symObjAddr: 0x5ED0, symBinAddr: 0xE27B0, symSize: 0x160 }
  - { offsetInCU: 0x16C4F, offset: 0x4A5E23, size: 0x8, addend: 0x0, symName: '__ZN4core3ptr64drop_in_place$LT$alloc..vec..Vec$LT$syn..attr..Attribute$GT$$GT$17h386324d8ea9bc309E.llvm.13640016474283498785', symObjAddr: 0x6030, symBinAddr: 0xE2910, symSize: 0xF0 }
  - { offsetInCU: 0x16F45, offset: 0x4A6119, size: 0x8, addend: 0x0, symName: '__ZN4core3ptr65drop_in_place$LT$alloc..vec..Vec$LT$proc_macro..TokenTree$GT$$GT$17hc3670dd5608d5259E', symObjAddr: 0x6120, symBinAddr: 0xE2A00, symSize: 0x110 }
  - { offsetInCU: 0x1733D, offset: 0x4A6511, size: 0x8, addend: 0x0, symName: '__ZN4core3ptr65drop_in_place$LT$core..option..Option$LT$syn..expr..Label$GT$$GT$17ha723640fd01bec5dE', symObjAddr: 0x6230, symBinAddr: 0xE2B10, symSize: 0x30 }
  - { offsetInCU: 0x17477, offset: 0x4A664B, size: 0x8, addend: 0x0, symName: '__ZN4core3ptr65drop_in_place$LT$core..option..Option$LT$syn..path..QSelf$GT$$GT$17h213ca1c3399df9f2E', symObjAddr: 0x6260, symBinAddr: 0xE2B40, symSize: 0x50 }
  - { offsetInCU: 0x1760E, offset: 0x4A67E2, size: 0x8, addend: 0x0, symName: '__ZN4core3ptr66drop_in_place$LT$core..option..Option$LT$syn..ty..Variadic$GT$$GT$17hc32134bb3933b0dfE', symObjAddr: 0x62B0, symBinAddr: 0xE2B90, symSize: 0xF0 }
  - { offsetInCU: 0x17938, offset: 0x4A6B0C, size: 0x8, addend: 0x0, symName: '__ZN4core3ptr67drop_in_place$LT$alloc..boxed..Box$LT$syn..expr..FieldValue$GT$$GT$17h8df780aa600ea8c2E', symObjAddr: 0x63A0, symBinAddr: 0xE2C80, symSize: 0x160 }
  - { offsetInCU: 0x17ECD, offset: 0x4A70A1, size: 0x8, addend: 0x0, symName: '__ZN4core3ptr68drop_in_place$LT$alloc..boxed..Box$LT$syn..path..PathSegment$GT$$GT$17h1957b54eed39c0bbE', symObjAddr: 0x6500, symBinAddr: 0xE2DE0, symSize: 0x190 }
  - { offsetInCU: 0x185F6, offset: 0x4A77CA, size: 0x8, addend: 0x0, symName: '__ZN4core3ptr72drop_in_place$LT$alloc..boxed..Box$LT$syn..path..GenericArgument$GT$$GT$17ha8f8136d0c2b505bE', symObjAddr: 0x6690, symBinAddr: 0xE2F70, symSize: 0x180 }
  - { offsetInCU: 0x18C96, offset: 0x4A7E6A, size: 0x8, addend: 0x0, symName: '__ZN4core3ptr72drop_in_place$LT$core..option..Option$LT$syn..lifetime..Lifetime$GT$$GT$17h31b55b93749c174dE', symObjAddr: 0x6810, symBinAddr: 0xE30F0, symSize: 0x30 }
  - { offsetInCU: 0x18DB1, offset: 0x4A7F85, size: 0x8, addend: 0x0, symName: '__ZN4core3ptr75drop_in_place$LT$alloc..boxed..Box$LT$syn..generics..TypeParamBound$GT$$GT$17h8f156ce07ea0b8b2E', symObjAddr: 0x6840, symBinAddr: 0xE3120, symSize: 0x140 }
  - { offsetInCU: 0x1930C, offset: 0x4A84E0, size: 0x8, addend: 0x0, symName: '__ZN4core3ptr78drop_in_place$LT$alloc..boxed..Box$LT$syn..expr..GenericMethodArgument$GT$$GT$17h3384c00b5bd54c2aE', symObjAddr: 0x6980, symBinAddr: 0xE3260, symSize: 0x60 }
  - { offsetInCU: 0x194FE, offset: 0x4A86D2, size: 0x8, addend: 0x0, symName: '__ZN4core3ptr78drop_in_place$LT$core..option..Option$LT$syn..generics..BoundLifetimes$GT$$GT$17h8175e66ad0c4a156E', symObjAddr: 0x69E0, symBinAddr: 0xE32C0, symSize: 0xE0 }
  - { offsetInCU: 0x1987B, offset: 0x4A8A4F, size: 0x8, addend: 0x0, symName: '__ZN4core3ptr86drop_in_place$LT$syn..punctuated..Punctuated$LT$syn..pat..Pat$C$syn..token..Or$GT$$GT$17h1078c5d178d382b7E', symObjAddr: 0x6AC0, symBinAddr: 0xE33A0, symSize: 0x120 }
  - { offsetInCU: 0x19CF6, offset: 0x4A8ECA, size: 0x8, addend: 0x0, symName: '__ZN4core3ptr87drop_in_place$LT$core..option..Option$LT$alloc..boxed..Box$LT$syn..pat..Pat$GT$$GT$$GT$17ha7f5fe0e6f73e820E', symObjAddr: 0x6BE0, symBinAddr: 0xE34C0, symSize: 0x50 }
  - { offsetInCU: 0x19E66, offset: 0x4A903A, size: 0x8, addend: 0x0, symName: '__ZN4core3ptr87drop_in_place$LT$core..option..Option$LT$alloc..boxed..Box$LT$syn..ty..Type$GT$$GT$$GT$17hc8292da82d129de3E', symObjAddr: 0x6C30, symBinAddr: 0xE3510, symSize: 0x50 }
  - { offsetInCU: 0x19FD6, offset: 0x4A91AA, size: 0x8, addend: 0x0, symName: '__ZN4core3ptr89drop_in_place$LT$core..option..Option$LT$alloc..boxed..Box$LT$syn..expr..Expr$GT$$GT$$GT$17hdc211ccd33f196f2E', symObjAddr: 0x6C80, symBinAddr: 0xE3560, symSize: 0x50 }
  - { offsetInCU: 0x1A184, offset: 0x4A9358, size: 0x8, addend: 0x0, symName: '__ZN4core3ptr89drop_in_place$LT$syn..punctuated..Punctuated$LT$syn..pat..Pat$C$syn..token..Comma$GT$$GT$17hf8371102b0500adcE', symObjAddr: 0x6CD0, symBinAddr: 0xE35B0, symSize: 0x120 }
  - { offsetInCU: 0x1A616, offset: 0x4A97EA, size: 0x8, addend: 0x0, symName: '__ZN4core3ptr89drop_in_place$LT$syn..punctuated..Punctuated$LT$syn..ty..Type$C$syn..token..Comma$GT$$GT$17h1c6e43341fabea97E', symObjAddr: 0x6DF0, symBinAddr: 0xE36D0, symSize: 0x120 }
  - { offsetInCU: 0x1AACF, offset: 0x4A9CA3, size: 0x8, addend: 0x0, symName: '__ZN4core3ptr91drop_in_place$LT$syn..punctuated..Punctuated$LT$syn..expr..Expr$C$syn..token..Comma$GT$$GT$17hd2dfeb0c522d9a18E', symObjAddr: 0x6F10, symBinAddr: 0xE37F0, symSize: 0x120 }
  - { offsetInCU: 0x1AF5D, offset: 0x4AA131, size: 0x8, addend: 0x0, symName: '__ZN4core3ptr94drop_in_place$LT$syn..punctuated..Punctuated$LT$syn..pat..FieldPat$C$syn..token..Comma$GT$$GT$17h612cbc9066d5afb1E', symObjAddr: 0x7030, symBinAddr: 0xE3910, symSize: 0xF0 }
  - { offsetInCU: 0x1B25C, offset: 0x4AA430, size: 0x8, addend: 0x0, symName: '__ZN4core3ptr94drop_in_place$LT$syn..punctuated..Punctuated$LT$syn..ty..BareFnArg$C$syn..token..Comma$GT$$GT$17ha9a668ce9972795bE', symObjAddr: 0x7120, symBinAddr: 0xE3A00, symSize: 0xF0 }
  - { offsetInCU: 0x1B559, offset: 0x4AA72D, size: 0x8, addend: 0x0, symName: '__ZN4core3ptr96drop_in_place$LT$core..option..Option$LT$alloc..boxed..Box$LT$syn..path..PathSegment$GT$$GT$$GT$17h2e81cbe3c70bb71cE', symObjAddr: 0x7210, symBinAddr: 0xE3AF0, symSize: 0x180 }
  - { offsetInCU: 0x1BC16, offset: 0x4AADEA, size: 0x8, addend: 0x0, symName: '__ZN4core3ptr97drop_in_place$LT$syn..punctuated..Punctuated$LT$syn..expr..FieldValue$C$syn..token..Comma$GT$$GT$17h11a5fffb46adfb11E', symObjAddr: 0x7390, symBinAddr: 0xE3C70, symSize: 0xF0 }
  - { offsetInCU: 0x1BF8F, offset: 0x4AB163, size: 0x8, addend: 0x0, symName: '__ZN4core3ptr97drop_in_place$LT$syn..punctuated..Punctuated$LT$syn..lifetime..Lifetime$C$syn..token..Add$GT$$GT$17h5c54dea2c838d109E', symObjAddr: 0x7480, symBinAddr: 0xE3D60, symSize: 0xD0 }
  - { offsetInCU: 0x1C403, offset: 0x4AB5D7, size: 0x8, addend: 0x0, symName: '__ZN4core3ptr99drop_in_place$LT$syn..punctuated..Punctuated$LT$syn..path..PathSegment$C$syn..token..Colon2$GT$$GT$17hb961e4d7989a33ceE', symObjAddr: 0x7550, symBinAddr: 0xE3E30, symSize: 0x250 }
  - { offsetInCU: 0x1FEB1, offset: 0x4AF085, size: 0x8, addend: 0x0, symName: __ZN5alloc5alloc15exchange_malloc17h9a87608d0224859dE, symObjAddr: 0x77A0, symBinAddr: 0xE4080, symSize: 0x40 }
  - { offsetInCU: 0x204D9, offset: 0x4AF6AD, size: 0x8, addend: 0x0, symName: __ZN3syn3pat7parsing36pat_path_or_macro_or_struct_or_range17h77fdbd2532535a18E, symObjAddr: 0x77E0, symBinAddr: 0xE40C0, symSize: 0x23C0 }
  - { offsetInCU: 0x241EE, offset: 0x4B33C2, size: 0x8, addend: 0x0, symName: __ZN3syn3pat7parsing8pat_wild17h801e7bc3e19f5f27E, symObjAddr: 0x9BA0, symBinAddr: 0xE6480, symSize: 0xA0 }
  - { offsetInCU: 0x242FA, offset: 0x4B34CE, size: 0x8, addend: 0x0, symName: __ZN3syn3pat7parsing7pat_box17h5b7431e3f4841a91E, symObjAddr: 0x9C40, symBinAddr: 0xE6520, symSize: 0x1C0 }
  - { offsetInCU: 0x2464D, offset: 0x4B3821, size: 0x8, addend: 0x0, symName: __ZN3syn3pat7parsing9pat_ident17h5ec86c8d897d16bfE, symObjAddr: 0x9E00, symBinAddr: 0xE66E0, symSize: 0x4C0 }
  - { offsetInCU: 0x24F40, offset: 0x4B4114, size: 0x8, addend: 0x0, symName: __ZN3syn3pat7parsing19pat_range_half_open17he62c2328c73f8713E, symObjAddr: 0xA2C0, symBinAddr: 0xE6BA0, symSize: 0x250 }
  - { offsetInCU: 0x255B3, offset: 0x4B4787, size: 0x8, addend: 0x0, symName: __ZN3syn3pat7parsing9pat_tuple17h2de53ab4e0e48f46E, symObjAddr: 0xA510, symBinAddr: 0xE6DF0, symSize: 0x3B0 }
  - { offsetInCU: 0x25C4A, offset: 0x4B4E1E, size: 0x8, addend: 0x0, symName: __ZN3syn3pat7parsing13pat_reference17h6b5aba77e5ca8e0fE, symObjAddr: 0xA8C0, symBinAddr: 0xE71A0, symSize: 0x240 }
  - { offsetInCU: 0x260F1, offset: 0x4B52C5, size: 0x8, addend: 0x0, symName: __ZN3syn3pat7parsing16pat_lit_or_range17h1c56854db042ba06E, symObjAddr: 0xAB00, symBinAddr: 0xE73E0, symSize: 0x400 }
  - { offsetInCU: 0x26B52, offset: 0x4B5D26, size: 0x8, addend: 0x0, symName: __ZN3syn3pat7parsing12pat_lit_expr17hfb42767501ab8eedE, symObjAddr: 0xAF00, symBinAddr: 0xE77E0, symSize: 0x930 }
  - { offsetInCU: 0x29586, offset: 0x4B875A, size: 0x8, addend: 0x0, symName: __ZN3syn3pat7parsing9pat_slice17hd8783e1b30d5b236E, symObjAddr: 0xB830, symBinAddr: 0xE8110, symSize: 0x3B0 }
  - { offsetInCU: 0x29C1E, offset: 0x4B8DF2, size: 0x8, addend: 0x0, symName: __ZN3syn3pat7parsing9pat_const17h98cc31d0fbbb8c59E, symObjAddr: 0xBBE0, symBinAddr: 0xE84C0, symSize: 0x510 }
  - { offsetInCU: 0x2AA83, offset: 0x4B9C57, size: 0x8, addend: 0x0, symName: __ZN3syn3pat7parsing14multi_pat_impl17ha697294a80ae294bE.llvm.13640016474283498785, symObjAddr: 0xC1B0, symBinAddr: 0xE89D0, symSize: 0x397 }
  - { offsetInCU: 0x1E, offset: 0x4CBE90, size: 0x8, addend: 0x0, symName: '__ZN101_$LT$core..iter..sources..empty..Empty$LT$T$GT$$u20$as$u20$core..iter..traits..iterator..Iterator$GT$4next17h4d3358e0e9bc68beE', symObjAddr: 0x0, symBinAddr: 0xE8D70, symSize: 0x10 }
  - { offsetInCU: 0x4E06, offset: 0x4D0C78, size: 0x8, addend: 0x0, symName: '__ZN3syn4data7parsing66_$LT$impl$u20$syn..parse..Parse$u20$for$u20$syn..data..Variant$GT$5parse17h4ffd12c0016cb5b4E', symObjAddr: 0x7A80, symBinAddr: 0xF0070, symSize: 0x7C0 }
  - { offsetInCU: 0x5EC3, offset: 0x4D1D35, size: 0x8, addend: 0x0, symName: '__ZN3syn4data7parsing70_$LT$impl$u20$syn..parse..Parse$u20$for$u20$syn..data..FieldsNamed$GT$5parse17hf38cc9d6a4790d5aE', symObjAddr: 0x8240, symBinAddr: 0xF0830, symSize: 0x1A0 }
  - { offsetInCU: 0x61B8, offset: 0x4D202A, size: 0x8, addend: 0x0, symName: '__ZN3syn4data7parsing72_$LT$impl$u20$syn..parse..Parse$u20$for$u20$syn..data..FieldsUnnamed$GT$5parse17hfb63f3e60cf310eaE', symObjAddr: 0x83E0, symBinAddr: 0xF09D0, symSize: 0x1A0 }
  - { offsetInCU: 0x64AD, offset: 0x4D231F, size: 0x8, addend: 0x0, symName: '__ZN3syn4data7parsing69_$LT$impl$u20$syn..parse..Parse$u20$for$u20$syn..data..Visibility$GT$5parse17h47ceb0aeb7344647E', symObjAddr: 0x9070, symBinAddr: 0xF1660, symSize: 0xCF0 }
  - { offsetInCU: 0x8C1D, offset: 0x4D4A8F, size: 0x8, addend: 0x0, symName: '__ZN3syn4data8printing75_$LT$impl$u20$quote..to_tokens..ToTokens$u20$for$u20$syn..data..Variant$GT$9to_tokens17hefd556fd1dea8327E', symObjAddr: 0x9D60, symBinAddr: 0xF2350, symSize: 0x180 }
  - { offsetInCU: 0x8FD3, offset: 0x4D4E45, size: 0x8, addend: 0x0, symName: '__ZN3syn4data8printing73_$LT$impl$u20$quote..to_tokens..ToTokens$u20$for$u20$syn..data..Field$GT$9to_tokens17h1422e1e52cccd85dE', symObjAddr: 0x9F40, symBinAddr: 0xF24D0, symSize: 0x2C0 }
  - { offsetInCU: 0x9577, offset: 0x4D53E9, size: 0x8, addend: 0x0, symName: '__ZN68_$LT$syn..data..Visibility$u20$as$u20$quote..to_tokens..ToTokens$GT$9to_tokens17h5e26ec0b7c9eb663E', symObjAddr: 0xA420, symBinAddr: 0xF2790, symSize: 0x160 }
  - { offsetInCU: 0xBE29, offset: 0x4D7C9B, size: 0x8, addend: 0x0, symName: '__ZN4core3ptr100drop_in_place$LT$core..option..Option$LT$alloc..boxed..Box$LT$syn..generics..LifetimeDef$GT$$GT$$GT$17h75a6086997697dd7E', symObjAddr: 0xC0, symBinAddr: 0xE8DB0, symSize: 0x150 }
  - { offsetInCU: 0xC3A5, offset: 0x4D8217, size: 0x8, addend: 0x0, symName: '__ZN4core3ptr100drop_in_place$LT$core..option..Option$LT$alloc..boxed..Box$LT$syn..path..GenericArgument$GT$$GT$$GT$17h3d29ec00a8f1918dE', symObjAddr: 0x210, symBinAddr: 0xE8F00, symSize: 0x50 }
  - { offsetInCU: 0xC64B, offset: 0x4D84BD, size: 0x8, addend: 0x0, symName: '__ZN4core3ptr103drop_in_place$LT$syn..punctuated..Punctuated$LT$syn..generics..TypeParamBound$C$syn..token..Add$GT$$GT$17he811d520c92af08aE', symObjAddr: 0x260, symBinAddr: 0xE8F50, symSize: 0x1C0 }
  - { offsetInCU: 0xCEAF, offset: 0x4D8D21, size: 0x8, addend: 0x0, symName: '__ZN4core3ptr108drop_in_place$LT$syn..punctuated..Punctuated$LT$syn..expr..GenericMethodArgument$C$syn..token..Comma$GT$$GT$17h92cbabe4862b2183E', symObjAddr: 0x420, symBinAddr: 0xE9110, symSize: 0x150 }
  - { offsetInCU: 0xD408, offset: 0x4D927A, size: 0x8, addend: 0x0, symName: '__ZN4core3ptr34drop_in_place$LT$syn..lit..Lit$GT$17hbe1efe749a08dd9aE', symObjAddr: 0x570, symBinAddr: 0xE9260, symSize: 0x110 }
  - { offsetInCU: 0xD87A, offset: 0x4D96EC, size: 0x8, addend: 0x0, symName: '__ZN4core3ptr34drop_in_place$LT$syn..pat..Pat$GT$17h3201f642e43ac2a2E', symObjAddr: 0x680, symBinAddr: 0xE9370, symSize: 0x1050 }
  - { offsetInCU: 0x11239, offset: 0x4DD0AB, size: 0x8, addend: 0x0, symName: '__ZN4core3ptr34drop_in_place$LT$syn..ty..Type$GT$17hfb5d159a08190130E.llvm.2098431564669397081', symObjAddr: 0x16D0, symBinAddr: 0xEA3C0, symSize: 0x620 }
  - { offsetInCU: 0x12E71, offset: 0x4DECE3, size: 0x8, addend: 0x0, symName: '__ZN4core3ptr36drop_in_place$LT$syn..expr..Expr$GT$17hf1921d1b09462bc3E', symObjAddr: 0x1CF0, symBinAddr: 0xEA9E0, symSize: 0x31D0 }
  - { offsetInCU: 0x1D3FA, offset: 0x4E926C, size: 0x8, addend: 0x0, symName: '__ZN4core3ptr36drop_in_place$LT$syn..mac..Macro$GT$17h205613d7ad575f72E', symObjAddr: 0x4EC0, symBinAddr: 0xEDBB0, symSize: 0xE0 }
  - { offsetInCU: 0x1D800, offset: 0x4E9672, size: 0x8, addend: 0x0, symName: '__ZN4core3ptr36drop_in_place$LT$syn..path..Path$GT$17he6d0bec66d66b98aE', symObjAddr: 0x4FA0, symBinAddr: 0xEDC90, symSize: 0x230 }
  - { offsetInCU: 0x1E196, offset: 0x4EA008, size: 0x8, addend: 0x0, symName: '__ZN4core3ptr37drop_in_place$LT$syn..stmt..Block$GT$17h3aa429e75a234230E', symObjAddr: 0x51D0, symBinAddr: 0xEDEC0, symSize: 0xD0 }
  - { offsetInCU: 0x1E508, offset: 0x4EA37A, size: 0x8, addend: 0x0, symName: '__ZN4core3ptr38drop_in_place$LT$syn..data..Fields$GT$17h0c48fa2402a42137E.llvm.2098431564669397081', symObjAddr: 0x52A0, symBinAddr: 0xEDF90, symSize: 0x180 }
  - { offsetInCU: 0x1E94E, offset: 0x4EA7C0, size: 0x8, addend: 0x0, symName: '__ZN4core3ptr38drop_in_place$LT$syn..expr..Member$GT$17ha113d37a67d27aafE', symObjAddr: 0x5420, symBinAddr: 0xEE110, symSize: 0x30 }
  - { offsetInCU: 0x1EAE5, offset: 0x4EA957, size: 0x8, addend: 0x0, symName: '__ZN4core3ptr38drop_in_place$LT$syn..group..Group$GT$17h0fddc99b7dc4ab91E', symObjAddr: 0x5450, symBinAddr: 0xEE140, symSize: 0x70 }
  - { offsetInCU: 0x1EDDD, offset: 0x4EAC4F, size: 0x8, addend: 0x0, symName: '__ZN4core3ptr39drop_in_place$LT$proc_macro2..Ident$GT$17hdeec010483268a0dE.llvm.2098431564669397081', symObjAddr: 0x54C0, symBinAddr: 0xEE1B0, symSize: 0x30 }
  - { offsetInCU: 0x1EEBA, offset: 0x4EAD2C, size: 0x8, addend: 0x0, symName: '__ZN4core3ptr39drop_in_place$LT$syn..pat..PatTuple$GT$17h96faeea9832d4c4bE', symObjAddr: 0x54F0, symBinAddr: 0xEE1E0, symSize: 0x100 }
  - { offsetInCU: 0x1F1C3, offset: 0x4EB035, size: 0x8, addend: 0x0, symName: '__ZN4core3ptr40drop_in_place$LT$syn..ty..ReturnType$GT$17h6f97c9fdb958983eE', symObjAddr: 0x55F0, symBinAddr: 0xEE2E0, symSize: 0x50 }
  - { offsetInCU: 0x1F371, offset: 0x4EB1E3, size: 0x8, addend: 0x0, symName: '__ZN4core3ptr42drop_in_place$LT$syn..data..Visibility$GT$17h27e8b6ad307fcbc7E.llvm.2098431564669397081', symObjAddr: 0x5640, symBinAddr: 0xEE330, symSize: 0x60 }
  - { offsetInCU: 0x1F4F8, offset: 0x4EB36A, size: 0x8, addend: 0x0, symName: '__ZN4core3ptr44drop_in_place$LT$syn..lifetime..Lifetime$GT$17h3858225df033648aE', symObjAddr: 0x5780, symBinAddr: 0xEE390, symSize: 0x30 }
  - { offsetInCU: 0x1F5F4, offset: 0x4EB466, size: 0x8, addend: 0x0, symName: '__ZN4core3ptr44drop_in_place$LT$syn..parse..ParseBuffer$GT$17h19c266fcccc430cbE.llvm.2098431564669397081', symObjAddr: 0x57B0, symBinAddr: 0xEE3C0, symSize: 0x70 }
  - { offsetInCU: 0x1FA0B, offset: 0x4EB87D, size: 0x8, addend: 0x0, symName: '__ZN4core3ptr45drop_in_place$LT$proc_macro2..TokenStream$GT$17h2507cb30e765dc85E', symObjAddr: 0x5820, symBinAddr: 0xEE430, symSize: 0x140 }
  - { offsetInCU: 0x1FEA5, offset: 0x4EBD17, size: 0x8, addend: 0x0, symName: '__ZN4core3ptr47drop_in_place$LT$syn..path..GenericArgument$GT$17h8c0a0d8c6deaefb4E', symObjAddr: 0x59B0, symBinAddr: 0xEE570, symSize: 0x110 }
  - { offsetInCU: 0x201D3, offset: 0x4EC045, size: 0x8, addend: 0x0, symName: '__ZN4core3ptr58drop_in_place$LT$alloc..vec..Vec$LT$syn..expr..Arm$GT$$GT$17hf3db0825f3d9c861E', symObjAddr: 0x5AC0, symBinAddr: 0xEE680, symSize: 0xD0 }
  - { offsetInCU: 0x20493, offset: 0x4EC305, size: 0x8, addend: 0x0, symName: '__ZN4core3ptr59drop_in_place$LT$alloc..boxed..Box$LT$syn..pat..Pat$GT$$GT$17h7037ce9bbd3729c6E', symObjAddr: 0x5B90, symBinAddr: 0xEE750, symSize: 0x50 }
  - { offsetInCU: 0x205EC, offset: 0x4EC45E, size: 0x8, addend: 0x0, symName: '__ZN4core3ptr59drop_in_place$LT$alloc..boxed..Box$LT$syn..ty..Type$GT$$GT$17h2eccd13329dbe4faE', symObjAddr: 0x5BE0, symBinAddr: 0xEE7A0, symSize: 0x50 }
  - { offsetInCU: 0x20745, offset: 0x4EC5B7, size: 0x8, addend: 0x0, symName: '__ZN4core3ptr61drop_in_place$LT$alloc..boxed..Box$LT$syn..expr..Expr$GT$$GT$17h66094ddc89015516E', symObjAddr: 0x5C30, symBinAddr: 0xEE7F0, symSize: 0x50 }
  - { offsetInCU: 0x2089E, offset: 0x4EC710, size: 0x8, addend: 0x0, symName: '__ZN4core3ptr61drop_in_place$LT$syn..path..ParenthesizedGenericArguments$GT$17h21be9b1d7a6fab55E', symObjAddr: 0x5CD0, symBinAddr: 0xEE840, symSize: 0x170 }
  - { offsetInCU: 0x20EA7, offset: 0x4ECD19, size: 0x8, addend: 0x0, symName: '__ZN4core3ptr63drop_in_place$LT$alloc..boxed..Box$LT$syn..lit..LitRepr$GT$$GT$17h9c509b794406150eE', symObjAddr: 0x5E40, symBinAddr: 0xEE9B0, symSize: 0x60 }
  - { offsetInCU: 0x211AE, offset: 0x4ED020, size: 0x8, addend: 0x0, symName: '__ZN4core3ptr64drop_in_place$LT$alloc..boxed..Box$LT$syn..pat..FieldPat$GT$$GT$17hb167b355d0d4733fE', symObjAddr: 0x5EA0, symBinAddr: 0xEEA10, symSize: 0x180 }
  - { offsetInCU: 0x218CB, offset: 0x4ED73D, size: 0x8, addend: 0x0, symName: '__ZN4core3ptr64drop_in_place$LT$alloc..boxed..Box$LT$syn..ty..BareFnArg$GT$$GT$17h6488be9448346678E', symObjAddr: 0x6020, symBinAddr: 0xEEB90, symSize: 0x160 }
  - { offsetInCU: 0x21E61, offset: 0x4EDCD3, size: 0x8, addend: 0x0, symName: '__ZN4core3ptr64drop_in_place$LT$alloc..vec..Vec$LT$syn..attr..Attribute$GT$$GT$17h386324d8ea9bc309E.llvm.2098431564669397081', symObjAddr: 0x6180, symBinAddr: 0xEECF0, symSize: 0xF0 }
  - { offsetInCU: 0x22157, offset: 0x4EDFC9, size: 0x8, addend: 0x0, symName: '__ZN4core3ptr65drop_in_place$LT$alloc..vec..Vec$LT$proc_macro..TokenTree$GT$$GT$17hc3670dd5608d5259E', symObjAddr: 0x6270, symBinAddr: 0xEEDE0, symSize: 0x110 }
  - { offsetInCU: 0x2254F, offset: 0x4EE3C1, size: 0x8, addend: 0x0, symName: '__ZN4core3ptr65drop_in_place$LT$core..option..Option$LT$syn..expr..Label$GT$$GT$17ha723640fd01bec5dE', symObjAddr: 0x6380, symBinAddr: 0xEEEF0, symSize: 0x30 }
  - { offsetInCU: 0x22689, offset: 0x4EE4FB, size: 0x8, addend: 0x0, symName: '__ZN4core3ptr66drop_in_place$LT$core..option..Option$LT$syn..ty..Variadic$GT$$GT$17hc32134bb3933b0dfE', symObjAddr: 0x63B0, symBinAddr: 0xEEF20, symSize: 0xF0 }
  - { offsetInCU: 0x229B3, offset: 0x4EE825, size: 0x8, addend: 0x0, symName: '__ZN4core3ptr67drop_in_place$LT$alloc..boxed..Box$LT$syn..expr..FieldValue$GT$$GT$17h8df780aa600ea8c2E', symObjAddr: 0x64A0, symBinAddr: 0xEF010, symSize: 0x160 }
  - { offsetInCU: 0x22F29, offset: 0x4EED9B, size: 0x8, addend: 0x0, symName: '__ZN4core3ptr67drop_in_place$LT$core..option..Option$LT$proc_macro2..Ident$GT$$GT$17h67578850954384a1E.llvm.2098431564669397081', symObjAddr: 0x6600, symBinAddr: 0xEF170, symSize: 0x30 }
  - { offsetInCU: 0x23025, offset: 0x4EEE97, size: 0x8, addend: 0x0, symName: '__ZN4core3ptr72drop_in_place$LT$core..option..Option$LT$syn..lifetime..Lifetime$GT$$GT$17h31b55b93749c174dE', symObjAddr: 0x6630, symBinAddr: 0xEF1A0, symSize: 0x30 }
  - { offsetInCU: 0x23140, offset: 0x4EEFB2, size: 0x8, addend: 0x0, symName: '__ZN4core3ptr75drop_in_place$LT$alloc..boxed..Box$LT$syn..generics..TypeParamBound$GT$$GT$17h8f156ce07ea0b8b2E', symObjAddr: 0x6660, symBinAddr: 0xEF1D0, symSize: 0x140 }
  - { offsetInCU: 0x2369B, offset: 0x4EF50D, size: 0x8, addend: 0x0, symName: '__ZN4core3ptr78drop_in_place$LT$alloc..boxed..Box$LT$syn..expr..GenericMethodArgument$GT$$GT$17h3384c00b5bd54c2aE', symObjAddr: 0x67A0, symBinAddr: 0xEF310, symSize: 0x60 }
  - { offsetInCU: 0x2388D, offset: 0x4EF6FF, size: 0x8, addend: 0x0, symName: '__ZN4core3ptr78drop_in_place$LT$core..option..Option$LT$syn..generics..BoundLifetimes$GT$$GT$17h8175e66ad0c4a156E', symObjAddr: 0x6800, symBinAddr: 0xEF370, symSize: 0xE0 }
  - { offsetInCU: 0x23C0A, offset: 0x4EFA7C, size: 0x8, addend: 0x0, symName: '__ZN4core3ptr86drop_in_place$LT$syn..punctuated..Punctuated$LT$syn..pat..Pat$C$syn..token..Or$GT$$GT$17h1078c5d178d382b7E', symObjAddr: 0x68E0, symBinAddr: 0xEF450, symSize: 0x120 }
  - { offsetInCU: 0x24085, offset: 0x4EFEF7, size: 0x8, addend: 0x0, symName: '__ZN4core3ptr87drop_in_place$LT$core..option..Option$LT$alloc..boxed..Box$LT$syn..pat..Pat$GT$$GT$$GT$17ha7f5fe0e6f73e820E', symObjAddr: 0x6A00, symBinAddr: 0xEF570, symSize: 0x50 }
  - { offsetInCU: 0x241F5, offset: 0x4F0067, size: 0x8, addend: 0x0, symName: '__ZN4core3ptr87drop_in_place$LT$core..option..Option$LT$alloc..boxed..Box$LT$syn..ty..Type$GT$$GT$$GT$17hc8292da82d129de3E', symObjAddr: 0x6A50, symBinAddr: 0xEF5C0, symSize: 0x50 }
  - { offsetInCU: 0x24365, offset: 0x4F01D7, size: 0x8, addend: 0x0, symName: '__ZN4core3ptr89drop_in_place$LT$core..option..Option$LT$alloc..boxed..Box$LT$syn..expr..Expr$GT$$GT$$GT$17hdc211ccd33f196f2E', symObjAddr: 0x6AC0, symBinAddr: 0xEF610, symSize: 0x50 }
  - { offsetInCU: 0x24513, offset: 0x4F0385, size: 0x8, addend: 0x0, symName: '__ZN4core3ptr89drop_in_place$LT$syn..punctuated..Punctuated$LT$syn..pat..Pat$C$syn..token..Comma$GT$$GT$17hf8371102b0500adcE', symObjAddr: 0x6B10, symBinAddr: 0xEF660, symSize: 0x120 }
  - { offsetInCU: 0x24A21, offset: 0x4F0893, size: 0x8, addend: 0x0, symName: '__ZN4core3ptr90drop_in_place$LT$core..option..Option$LT$alloc..boxed..Box$LT$syn..data..Field$GT$$GT$$GT$17he146e9f4e32c136fE', symObjAddr: 0x6C30, symBinAddr: 0xEF780, symSize: 0x1C0 }
  - { offsetInCU: 0x25137, offset: 0x4F0FA9, size: 0x8, addend: 0x0, symName: '__ZN4core3ptr91drop_in_place$LT$syn..punctuated..Punctuated$LT$syn..expr..Expr$C$syn..token..Comma$GT$$GT$17hd2dfeb0c522d9a18E', symObjAddr: 0x6DF0, symBinAddr: 0xEF940, symSize: 0x120 }
  - { offsetInCU: 0x255C5, offset: 0x4F1437, size: 0x8, addend: 0x0, symName: '__ZN4core3ptr94drop_in_place$LT$syn..punctuated..Punctuated$LT$syn..pat..FieldPat$C$syn..token..Comma$GT$$GT$17h612cbc9066d5afb1E', symObjAddr: 0x6FF0, symBinAddr: 0xEFA60, symSize: 0xF0 }
  - { offsetInCU: 0x258C4, offset: 0x4F1736, size: 0x8, addend: 0x0, symName: '__ZN4core3ptr94drop_in_place$LT$syn..punctuated..Punctuated$LT$syn..ty..BareFnArg$C$syn..token..Comma$GT$$GT$17ha9a668ce9972795bE', symObjAddr: 0x70E0, symBinAddr: 0xEFB50, symSize: 0xF0 }
  - { offsetInCU: 0x25BC1, offset: 0x4F1A33, size: 0x8, addend: 0x0, symName: '__ZN4core3ptr96drop_in_place$LT$core..option..Option$LT$alloc..boxed..Box$LT$syn..path..PathSegment$GT$$GT$$GT$17h2e81cbe3c70bb71cE', symObjAddr: 0x71D0, symBinAddr: 0xEFC40, symSize: 0x180 }
  - { offsetInCU: 0x2627E, offset: 0x4F20F0, size: 0x8, addend: 0x0, symName: '__ZN4core3ptr97drop_in_place$LT$syn..punctuated..Punctuated$LT$syn..expr..FieldValue$C$syn..token..Comma$GT$$GT$17h11a5fffb46adfb11E', symObjAddr: 0x7350, symBinAddr: 0xEFDC0, symSize: 0xF0 }
  - { offsetInCU: 0x265F7, offset: 0x4F2469, size: 0x8, addend: 0x0, symName: '__ZN4core3ptr97drop_in_place$LT$syn..punctuated..Punctuated$LT$syn..lifetime..Lifetime$C$syn..token..Add$GT$$GT$17h5c54dea2c838d109E', symObjAddr: 0x7440, symBinAddr: 0xEFEB0, symSize: 0xD0 }
  - { offsetInCU: 0x28841, offset: 0x4F46B3, size: 0x8, addend: 0x0, symName: '__ZN101_$LT$core..iter..sources..empty..Empty$LT$T$GT$$u20$as$u20$core..iter..traits..iterator..Iterator$GT$4next17h4d3358e0e9bc68beE', symObjAddr: 0x0, symBinAddr: 0xE8D70, symSize: 0x10 }
  - { offsetInCU: 0x28873, offset: 0x4F46E5, size: 0x8, addend: 0x0, symName: '__ZN101_$LT$core..iter..sources..empty..Empty$LT$T$GT$$u20$as$u20$core..iter..traits..iterator..Iterator$GT$9size_hint17h3dadac0283b42a8fE', symObjAddr: 0x10, symBinAddr: 0xE8D80, symSize: 0x20 }
  - { offsetInCU: 0x288AB, offset: 0x4F471D, size: 0x8, addend: 0x0, symName: '__ZN112_$LT$core..iter..sources..empty..Empty$LT$T$GT$$u20$as$u20$core..iter..traits..exact_size..ExactSizeIterator$GT$3len17h34eb47ff21e05e66E', symObjAddr: 0x30, symBinAddr: 0xE8DA0, symSize: 0x10 }
  - { offsetInCU: 0x288EF, offset: 0x4F4761, size: 0x8, addend: 0x0, symName: __ZN4core4iter6traits10exact_size17ExactSizeIterator8is_empty17h41982e415149ed39E, symObjAddr: 0x7510, symBinAddr: 0xEFF80, symSize: 0x10 }
  - { offsetInCU: 0x2892D, offset: 0x4F479F, size: 0x8, addend: 0x0, symName: __ZN4core4iter6traits12double_ended19DoubleEndedIterator15advance_back_by17h07d2c8b54008e83eE, symObjAddr: 0x7520, symBinAddr: 0xEFF90, symSize: 0x10 }
  - { offsetInCU: 0x2896D, offset: 0x4F47DF, size: 0x8, addend: 0x0, symName: __ZN4core4iter6traits12double_ended19DoubleEndedIterator8nth_back17hbf1a354928378816E, symObjAddr: 0x7530, symBinAddr: 0xEFFA0, symSize: 0x10 }
  - { offsetInCU: 0x2A5AD, offset: 0x4F641F, size: 0x8, addend: 0x0, symName: __ZN5alloc5alloc15exchange_malloc17h9a87608d0224859dE, symObjAddr: 0x7560, symBinAddr: 0xEFFB0, symSize: 0x40 }
  - { offsetInCU: 0x2D864, offset: 0x4F96D6, size: 0x8, addend: 0x0, symName: __ZN3syn4data6Fields4iter17h7a11d447f827b6a9E, symObjAddr: 0x77D0, symBinAddr: 0xEFFF0, symSize: 0x80 }
  - { offsetInCU: 0x2E010, offset: 0x4F9E82, size: 0x8, addend: 0x0, symName: '__ZN3syn4data7parsing34_$LT$impl$u20$syn..data..Field$GT$11parse_named17hf32401c3d2c99bceE', symObjAddr: 0x8580, symBinAddr: 0xF0B70, symSize: 0x740 }
  - { offsetInCU: 0x2EF2F, offset: 0x4FADA1, size: 0x8, addend: 0x0, symName: '__ZN3syn4data7parsing34_$LT$impl$u20$syn..data..Field$GT$13parse_unnamed17h0c157f96ed8f9924E', symObjAddr: 0x8CC0, symBinAddr: 0xF12B0, symSize: 0x3B0 }
  - { offsetInCU: 0xA87, offset: 0x50062E, size: 0x8, addend: 0x0, symName: '__ZN4core3ptr39drop_in_place$LT$proc_macro2..Group$GT$17ha95b199d42755248E.llvm.1759187543734843462', symObjAddr: 0x1D0, symBinAddr: 0xF28F0, symSize: 0x60 }
  - { offsetInCU: 0xCCB, offset: 0x500872, size: 0x8, addend: 0x0, symName: '__ZN4core3ptr39drop_in_place$LT$syn..buffer..Entry$GT$17hefeddf49a31e1f79E', symObjAddr: 0x230, symBinAddr: 0xF2950, symSize: 0xB0 }
  - { offsetInCU: 0x1056, offset: 0x500BFD, size: 0x8, addend: 0x0, symName: '__ZN4core3ptr43drop_in_place$LT$proc_macro2..TokenTree$GT$17h7270f34cee6d919dE', symObjAddr: 0x2E0, symBinAddr: 0xF2A00, symSize: 0xB0 }
  - { offsetInCU: 0x142D, offset: 0x500FD4, size: 0x8, addend: 0x0, symName: '__ZN4core3ptr44drop_in_place$LT$syn..parse..ParseBuffer$GT$17h19c266fcccc430cbE', symObjAddr: 0x390, symBinAddr: 0xF2AB0, symSize: 0x70 }
  - { offsetInCU: 0x174C, offset: 0x5012F3, size: 0x8, addend: 0x0, symName: '__ZN4core3ptr45drop_in_place$LT$syn..buffer..TokenBuffer$GT$17ha0014bcb4f631379E', symObjAddr: 0x540, symBinAddr: 0xF2B20, symSize: 0xC0 }
  - { offsetInCU: 0x5CB7, offset: 0x50585E, size: 0x8, addend: 0x0, symName: '__ZN80_$LT$syn..parse..ParseBuffer$u20$as$u20$syn..parse..discouraged..Speculative$GT$10advance_to17h8f73ab0cc15f1a74E', symObjAddr: 0x7E0, symBinAddr: 0xF2BE0, symSize: 0x270 }
  - { offsetInCU: 0x7023, offset: 0x506BCA, size: 0x8, addend: 0x0, symName: '__ZN65_$LT$syn..parse..ParseBuffer$u20$as$u20$core..ops..drop..Drop$GT$4drop17h2e038d48873422b6E', symObjAddr: 0xA50, symBinAddr: 0xF2E50, symSize: 0xC0 }
  - { offsetInCU: 0x7775, offset: 0x50731C, size: 0x8, addend: 0x0, symName: __ZN3syn5parse16inner_unexpected17h6067e3abb61d0456E.llvm.1759187543734843462, symObjAddr: 0xC10, symBinAddr: 0xF2F10, symSize: 0x130 }
  - { offsetInCU: 0x806B, offset: 0x507C12, size: 0x8, addend: 0x0, symName: __ZN3syn5parse33span_of_unexpected_ignoring_nones17h1cd56e164e166939E, symObjAddr: 0xD40, symBinAddr: 0xF3040, symSize: 0x130 }
  - { offsetInCU: 0x84AE, offset: 0x508055, size: 0x8, addend: 0x0, symName: __ZN3syn5parse11ParseBuffer5peek25peek217hd5e9cf50395d6f6dE, symObjAddr: 0xFA0, symBinAddr: 0xF3170, symSize: 0x1A0 }
  - { offsetInCU: 0x8915, offset: 0x5084BC, size: 0x8, addend: 0x0, symName: __ZN3syn5parse11ParseBuffer5peek35peek317hda95b7e9fedbba60E, symObjAddr: 0x1140, symBinAddr: 0xF3310, symSize: 0x2C0 }
  - { offsetInCU: 0x908B, offset: 0x508C32, size: 0x8, addend: 0x0, symName: '__ZN40_$LT$F$u20$as$u20$syn..parse..Parser$GT$6parse217h5b44a721e1b74221E', symObjAddr: 0x4880, symBinAddr: 0xF5A40, symSize: 0x410 }
  - { offsetInCU: 0x9F34, offset: 0x509ADB, size: 0x8, addend: 0x0, symName: __ZN3syn5parse6Parser9parse_str17h845c6e4d3a37cecdE, symObjAddr: 0x3E30, symBinAddr: 0xF5530, symSize: 0x450 }
  - { offsetInCU: 0xAE13, offset: 0x50A9BA, size: 0x8, addend: 0x0, symName: __ZN3syn5parse22tokens_to_parse_buffer17h64ec52fc0991fad8E, symObjAddr: 0x47C0, symBinAddr: 0xF5980, symSize: 0xC0 }
  - { offsetInCU: 0xC23B, offset: 0x50BDE2, size: 0x8, addend: 0x0, symName: __ZN3syn5parse11ParseBuffer4fork17h2419ffbe07155b93E, symObjAddr: 0x1400, symBinAddr: 0xF35D0, symSize: 0x80 }
  - { offsetInCU: 0xC4DA, offset: 0x50C081, size: 0x8, addend: 0x0, symName: __ZN3syn5parse11ParseBuffer4step17h2caa91e93c0fdff5E, symObjAddr: 0x1480, symBinAddr: 0xF3650, symSize: 0x320 }
  - { offsetInCU: 0xD26F, offset: 0x50CE16, size: 0x8, addend: 0x0, symName: __ZN3syn5parse11ParseBuffer4step17h32743e1aa7cb4937E, symObjAddr: 0x17A0, symBinAddr: 0xF3970, symSize: 0x240 }
  - { offsetInCU: 0xDD11, offset: 0x50D8B8, size: 0x8, addend: 0x0, symName: __ZN3syn5parse11ParseBuffer4step17h47646bd784811a92E, symObjAddr: 0x19E0, symBinAddr: 0xF3BB0, symSize: 0x200 }
  - { offsetInCU: 0xE39C, offset: 0x50DF43, size: 0x8, addend: 0x0, symName: __ZN3syn5parse11ParseBuffer4step17h490326c3e9494519E, symObjAddr: 0x1BE0, symBinAddr: 0xF3DB0, symSize: 0x160 }
  - { offsetInCU: 0xE7EA, offset: 0x50E391, size: 0x8, addend: 0x0, symName: __ZN3syn5parse11ParseBuffer4step17h50bd6cdb870f80efE, symObjAddr: 0x1D40, symBinAddr: 0xF3F10, symSize: 0x100 }
  - { offsetInCU: 0xED09, offset: 0x50E8B0, size: 0x8, addend: 0x0, symName: __ZN3syn5parse11ParseBuffer4step17h6da76c056fcfa448E, symObjAddr: 0x1EC0, symBinAddr: 0xF4010, symSize: 0x360 }
  - { offsetInCU: 0xFD43, offset: 0x50F8EA, size: 0x8, addend: 0x0, symName: __ZN3syn5parse11ParseBuffer4step17h84b7869147215ef5E, symObjAddr: 0x23D0, symBinAddr: 0xF4370, symSize: 0x4B0 }
  - { offsetInCU: 0x10A32, offset: 0x5105D9, size: 0x8, addend: 0x0, symName: __ZN3syn5parse11ParseBuffer4step17hbd8c852f81ed7403E, symObjAddr: 0x2C30, symBinAddr: 0xF4820, symSize: 0x3E0 }
  - { offsetInCU: 0x11266, offset: 0x510E0D, size: 0x8, addend: 0x0, symName: __ZN3syn5parse11ParseBuffer4step17hd1c4670119110345E, symObjAddr: 0x3010, symBinAddr: 0xF4C00, symSize: 0x2D0 }
  - { offsetInCU: 0x1207A, offset: 0x511C21, size: 0x8, addend: 0x0, symName: __ZN3syn5parse11ParseBuffer4step17heb078f2c75a103c5E, symObjAddr: 0x33F0, symBinAddr: 0xF4ED0, symSize: 0x5B0 }
  - { offsetInCU: 0x13511, offset: 0x5130B8, size: 0x8, addend: 0x0, symName: __ZN3syn5parse11ParseBuffer16check_unexpected17h28bf2b0c3cff447aE, symObjAddr: 0x3D80, symBinAddr: 0xF5480, symSize: 0xB0 }
  - { offsetInCU: 0xA9, offset: 0x51E2CA, size: 0x8, addend: 0x0, symName: '__ZN58_$LT$alloc..string..String$u20$as$u20$core..fmt..Write$GT$10write_char17h04bc467bd68a934bE', symObjAddr: 0x5C0, symBinAddr: 0xF61B0, symSize: 0x140 }
  - { offsetInCU: 0x4AE, offset: 0x51E6CF, size: 0x8, addend: 0x0, symName: '__ZN58_$LT$alloc..string..String$u20$as$u20$core..fmt..Write$GT$9write_str17h46a93205c3443fbaE', symObjAddr: 0x700, symBinAddr: 0xF62F0, symSize: 0x60 }
  - { offsetInCU: 0x737, offset: 0x51E958, size: 0x8, addend: 0x0, symName: '__ZN60_$LT$alloc..string..String$u20$as$u20$core..fmt..Display$GT$3fmt17h0d0eb46f3054e2dfE', symObjAddr: 0x760, symBinAddr: 0xF6350, symSize: 0x20 }
  - { offsetInCU: 0x162C, offset: 0x51F84D, size: 0x8, addend: 0x0, symName: '__ZN4core3ptr116drop_in_place$LT$core..option..Option$LT$$LP$alloc..boxed..Box$LT$str$GT$$C$alloc..boxed..Box$LT$str$GT$$RP$$GT$$GT$17hbcee60762c2710f7E', symObjAddr: 0xB0, symBinAddr: 0xF5E50, symSize: 0x50 }
  - { offsetInCU: 0x187B, offset: 0x51FA9C, size: 0x8, addend: 0x0, symName: '__ZN4core3ptr34drop_in_place$LT$syn..lit..Lit$GT$17hbe1efe749a08dd9aE.llvm.9882195801816494336', symObjAddr: 0x100, symBinAddr: 0xF5EA0, symSize: 0x120 }
  - { offsetInCU: 0x1A8E, offset: 0x51FCAF, size: 0x8, addend: 0x0, symName: '__ZN4core3ptr38drop_in_place$LT$syn..lit..LitRepr$GT$17hb5c7ab9a44b255b5E', symObjAddr: 0x2F0, symBinAddr: 0xF5FC0, symSize: 0x50 }
  - { offsetInCU: 0x1AAE, offset: 0x51FCCF, size: 0x8, addend: 0x0, symName: '__ZN4core3ptr38drop_in_place$LT$syn..lit..LitRepr$GT$17hb5c7ab9a44b255b5E', symObjAddr: 0x2F0, symBinAddr: 0xF5FC0, symSize: 0x50 }
  - { offsetInCU: 0x1ACC, offset: 0x51FCED, size: 0x8, addend: 0x0, symName: '__ZN4core3ptr38drop_in_place$LT$syn..lit..LitRepr$GT$17hb5c7ab9a44b255b5E', symObjAddr: 0x2F0, symBinAddr: 0xF5FC0, symSize: 0x50 }
  - { offsetInCU: 0x1CA9, offset: 0x51FECA, size: 0x8, addend: 0x0, symName: '__ZN4core3ptr41drop_in_place$LT$syn..lit..LitIntRepr$GT$17h6adf3dc251bb178fE', symObjAddr: 0x370, symBinAddr: 0xF6010, symSize: 0x60 }
  - { offsetInCU: 0x1F49, offset: 0x52016A, size: 0x8, addend: 0x0, symName: '__ZN4core3ptr42drop_in_place$LT$alloc..string..String$GT$17hef974c60cd9900dbE', symObjAddr: 0x3D0, symBinAddr: 0xF6070, symSize: 0x20 }
  - { offsetInCU: 0x20CD, offset: 0x5202EE, size: 0x8, addend: 0x0, symName: '__ZN4core3ptr44drop_in_place$LT$syn..parse..ParseBuffer$GT$17h19c266fcccc430cbE.llvm.9882195801816494336', symObjAddr: 0x4A0, symBinAddr: 0xF6090, symSize: 0x70 }
  - { offsetInCU: 0x240B, offset: 0x52062C, size: 0x8, addend: 0x0, symName: '__ZN4core3ptr82drop_in_place$LT$core..result..Result$LT$syn..lit..Lit$C$syn..error..Error$GT$$GT$17h31a5fa47d1af8301E.llvm.9882195801816494336', symObjAddr: 0x510, symBinAddr: 0xF6100, symSize: 0x90 }
  - { offsetInCU: 0x2B8E, offset: 0x520DAF, size: 0x8, addend: 0x0, symName: '__ZN53_$LT$core..fmt..Error$u20$as$u20$core..fmt..Debug$GT$3fmt17h03dc662ab152f3aeE', symObjAddr: 0x5A0, symBinAddr: 0xF6190, symSize: 0x20 }
  - { offsetInCU: 0x3A76, offset: 0x521C97, size: 0x8, addend: 0x0, symName: '__ZN3syn3lit7parsing64_$LT$impl$u20$syn..parse..Parse$u20$for$u20$syn..lit..LitStr$GT$5parse17h4d4c084d204373acE', symObjAddr: 0x2620, symBinAddr: 0xF6370, symSize: 0x2B0 }
  - { offsetInCU: 0x4713, offset: 0x522934, size: 0x8, addend: 0x0, symName: '__ZN3syn3lit7parsing64_$LT$impl$u20$syn..parse..Parse$u20$for$u20$syn..lit..LitInt$GT$5parse17hf51521f8c4cca9b1E', symObjAddr: 0x30E0, symBinAddr: 0xF6620, symSize: 0x2D0 }
  - { offsetInCU: 0x5443, offset: 0x523664, size: 0x8, addend: 0x0, symName: '__ZN3syn3lit7parsing66_$LT$impl$u20$syn..parse..Parse$u20$for$u20$syn..lit..LitFloat$GT$5parse17h093beb27894a42c0E', symObjAddr: 0x33B0, symBinAddr: 0xF68F0, symSize: 0x2D0 }
  - { offsetInCU: 0x634B, offset: 0x52456C, size: 0x8, addend: 0x0, symName: '__ZN60_$LT$syn..lit..Lit$u20$as$u20$quote..to_tokens..ToTokens$GT$9to_tokens17hb9b83fc3ea7b38a1E', symObjAddr: 0x4A50, symBinAddr: 0xF7810, symSize: 0xF0 }
  - { offsetInCU: 0x6563, offset: 0x524784, size: 0x8, addend: 0x0, symName: '__ZN51_$LT$syn..lit..Lit$u20$as$u20$syn..token..Token$GT$4peek17hbce3cab3ecc08f56E', symObjAddr: 0x4250, symBinAddr: 0xF7410, symSize: 0x100 }
  - { offsetInCU: 0x6A32, offset: 0x524C53, size: 0x8, addend: 0x0, symName: '__ZN54_$LT$syn..lit..LitStr$u20$as$u20$syn..token..Token$GT$4peek17h05fa97a8d5a3793dE', symObjAddr: 0x4350, symBinAddr: 0xF7510, symSize: 0x100 }
  - { offsetInCU: 0x6F01, offset: 0x525122, size: 0x8, addend: 0x0, symName: '__ZN54_$LT$syn..lit..LitInt$u20$as$u20$syn..token..Token$GT$4peek17h5db6d90a54a86fceE', symObjAddr: 0x4750, symBinAddr: 0xF7610, symSize: 0x100 }
  - { offsetInCU: 0x73D0, offset: 0x5255F1, size: 0x8, addend: 0x0, symName: '__ZN56_$LT$syn..lit..LitFloat$u20$as$u20$syn..token..Token$GT$4peek17hd974e72b8bbf6281E', symObjAddr: 0x4850, symBinAddr: 0xF7710, symSize: 0x100 }
  - { offsetInCU: 0x89D4, offset: 0x526BF5, size: 0x8, addend: 0x0, symName: '__ZN3syn3lit5value31_$LT$impl$u20$syn..lit..Lit$GT$3new17h4485655880d793a2E', symObjAddr: 0x3920, symBinAddr: 0xF6BC0, symSize: 0x850 }
  - { offsetInCU: 0x3062, offset: 0x52C3A8, size: 0x8, addend: 0x0, symName: '__ZN4core3ptr100drop_in_place$LT$core..option..Option$LT$alloc..boxed..Box$LT$syn..generics..LifetimeDef$GT$$GT$$GT$17h75a6086997697dd7E', symObjAddr: 0x280, symBinAddr: 0xF7900, symSize: 0x150 }
  - { offsetInCU: 0x35DE, offset: 0x52C924, size: 0x8, addend: 0x0, symName: '__ZN4core3ptr100drop_in_place$LT$core..option..Option$LT$alloc..boxed..Box$LT$syn..path..GenericArgument$GT$$GT$$GT$17h3d29ec00a8f1918dE', symObjAddr: 0x3D0, symBinAddr: 0xF7A50, symSize: 0x50 }
  - { offsetInCU: 0x3884, offset: 0x52CBCA, size: 0x8, addend: 0x0, symName: '__ZN4core3ptr103drop_in_place$LT$syn..punctuated..Punctuated$LT$syn..generics..TypeParamBound$C$syn..token..Add$GT$$GT$17he811d520c92af08aE', symObjAddr: 0x420, symBinAddr: 0xF7AA0, symSize: 0x1C0 }
  - { offsetInCU: 0x40E8, offset: 0x52D42E, size: 0x8, addend: 0x0, symName: '__ZN4core3ptr108drop_in_place$LT$syn..punctuated..Punctuated$LT$syn..expr..GenericMethodArgument$C$syn..token..Comma$GT$$GT$17h92cbabe4862b2183E', symObjAddr: 0x5E0, symBinAddr: 0xF7C60, symSize: 0x150 }
  - { offsetInCU: 0x4641, offset: 0x52D987, size: 0x8, addend: 0x0, symName: '__ZN4core3ptr34drop_in_place$LT$syn..lit..Lit$GT$17hbe1efe749a08dd9aE.llvm.7403831197315175127', symObjAddr: 0x730, symBinAddr: 0xF7DB0, symSize: 0x120 }
  - { offsetInCU: 0x4B1D, offset: 0x52DE63, size: 0x8, addend: 0x0, symName: '__ZN4core3ptr34drop_in_place$LT$syn..pat..Pat$GT$17h3201f642e43ac2a2E', symObjAddr: 0x850, symBinAddr: 0xF7ED0, symSize: 0x1050 }
  - { offsetInCU: 0x84DC, offset: 0x531822, size: 0x8, addend: 0x0, symName: '__ZN4core3ptr34drop_in_place$LT$syn..ty..Type$GT$17hfb5d159a08190130E', symObjAddr: 0x18A0, symBinAddr: 0xF8F20, symSize: 0x620 }
  - { offsetInCU: 0xA114, offset: 0x53345A, size: 0x8, addend: 0x0, symName: '__ZN4core3ptr36drop_in_place$LT$syn..expr..Expr$GT$17hf1921d1b09462bc3E', symObjAddr: 0x1F60, symBinAddr: 0xF9540, symSize: 0x31D0 }
  - { offsetInCU: 0x1469D, offset: 0x53D9E3, size: 0x8, addend: 0x0, symName: '__ZN4core3ptr36drop_in_place$LT$syn..mac..Macro$GT$17h205613d7ad575f72E', symObjAddr: 0x5130, symBinAddr: 0xFC710, symSize: 0xE0 }
  - { offsetInCU: 0x14AA3, offset: 0x53DDE9, size: 0x8, addend: 0x0, symName: '__ZN4core3ptr36drop_in_place$LT$syn..path..Path$GT$17he6d0bec66d66b98aE.llvm.7403831197315175127', symObjAddr: 0x5210, symBinAddr: 0xFC7F0, symSize: 0x230 }
  - { offsetInCU: 0x15439, offset: 0x53E77F, size: 0x8, addend: 0x0, symName: '__ZN4core3ptr37drop_in_place$LT$syn..stmt..Block$GT$17h3aa429e75a234230E', symObjAddr: 0x5440, symBinAddr: 0xFCA20, symSize: 0xD0 }
  - { offsetInCU: 0x15710, offset: 0x53EA56, size: 0x8, addend: 0x0, symName: '__ZN4core3ptr38drop_in_place$LT$syn..expr..Member$GT$17ha113d37a67d27aafE', symObjAddr: 0x5510, symBinAddr: 0xFCAF0, symSize: 0x30 }
  - { offsetInCU: 0x1580C, offset: 0x53EB52, size: 0x8, addend: 0x0, symName: '__ZN4core3ptr39drop_in_place$LT$proc_macro2..Ident$GT$17hdeec010483268a0dE', symObjAddr: 0x5540, symBinAddr: 0xFCB20, symSize: 0x30 }
  - { offsetInCU: 0x15984, offset: 0x53ECCA, size: 0x8, addend: 0x0, symName: '__ZN4core3ptr39drop_in_place$LT$syn..pat..PatTuple$GT$17h96faeea9832d4c4bE', symObjAddr: 0x5620, symBinAddr: 0xFCB50, symSize: 0x100 }
  - { offsetInCU: 0x15C8D, offset: 0x53EFD3, size: 0x8, addend: 0x0, symName: '__ZN4core3ptr40drop_in_place$LT$syn..ty..ReturnType$GT$17h6f97c9fdb958983eE', symObjAddr: 0x5760, symBinAddr: 0xFCC50, symSize: 0x50 }
  - { offsetInCU: 0x15DFD, offset: 0x53F143, size: 0x8, addend: 0x0, symName: '__ZN4core3ptr41drop_in_place$LT$syn..attr..Attribute$GT$17h01ed88f7d2878bfcE.llvm.7403831197315175127', symObjAddr: 0x57B0, symBinAddr: 0xFCCA0, symSize: 0x40 }
  - { offsetInCU: 0x15E2D, offset: 0x53F173, size: 0x8, addend: 0x0, symName: '__ZN4core3ptr44drop_in_place$LT$syn..lifetime..Lifetime$GT$17h3858225df033648aE', symObjAddr: 0x5810, symBinAddr: 0xFCCE0, symSize: 0x30 }
  - { offsetInCU: 0x15FC4, offset: 0x53F30A, size: 0x8, addend: 0x0, symName: '__ZN4core3ptr45drop_in_place$LT$proc_macro2..TokenStream$GT$17h2507cb30e765dc85E.llvm.7403831197315175127', symObjAddr: 0x58B0, symBinAddr: 0xFCD10, symSize: 0x140 }
  - { offsetInCU: 0x1645E, offset: 0x53F7A4, size: 0x8, addend: 0x0, symName: '__ZN4core3ptr47drop_in_place$LT$syn..path..GenericArgument$GT$17h8c0a0d8c6deaefb4E', symObjAddr: 0x5AF0, symBinAddr: 0xFCE50, symSize: 0x110 }
  - { offsetInCU: 0x1678C, offset: 0x53FAD2, size: 0x8, addend: 0x0, symName: '__ZN4core3ptr58drop_in_place$LT$alloc..vec..Vec$LT$syn..expr..Arm$GT$$GT$17hf3db0825f3d9c861E', symObjAddr: 0x5C00, symBinAddr: 0xFCF60, symSize: 0xD0 }
  - { offsetInCU: 0x16A4C, offset: 0x53FD92, size: 0x8, addend: 0x0, symName: '__ZN4core3ptr59drop_in_place$LT$alloc..boxed..Box$LT$syn..pat..Pat$GT$$GT$17h7037ce9bbd3729c6E', symObjAddr: 0x5CD0, symBinAddr: 0xFD030, symSize: 0x50 }
  - { offsetInCU: 0x16BA5, offset: 0x53FEEB, size: 0x8, addend: 0x0, symName: '__ZN4core3ptr59drop_in_place$LT$alloc..boxed..Box$LT$syn..ty..Type$GT$$GT$17h2eccd13329dbe4faE', symObjAddr: 0x5D20, symBinAddr: 0xFD080, symSize: 0x50 }
  - { offsetInCU: 0x16CFE, offset: 0x540044, size: 0x8, addend: 0x0, symName: '__ZN4core3ptr61drop_in_place$LT$alloc..boxed..Box$LT$syn..expr..Expr$GT$$GT$17h66094ddc89015516E', symObjAddr: 0x5D70, symBinAddr: 0xFD0D0, symSize: 0x50 }
  - { offsetInCU: 0x16E57, offset: 0x54019D, size: 0x8, addend: 0x0, symName: '__ZN4core3ptr61drop_in_place$LT$syn..path..ParenthesizedGenericArguments$GT$17h21be9b1d7a6fab55E', symObjAddr: 0x5DC0, symBinAddr: 0xFD120, symSize: 0x170 }
  - { offsetInCU: 0x17460, offset: 0x5407A6, size: 0x8, addend: 0x0, symName: '__ZN4core3ptr63drop_in_place$LT$alloc..boxed..Box$LT$syn..lit..LitRepr$GT$$GT$17h9c509b794406150eE', symObjAddr: 0x5F30, symBinAddr: 0xFD290, symSize: 0x60 }
  - { offsetInCU: 0x17767, offset: 0x540AAD, size: 0x8, addend: 0x0, symName: '__ZN4core3ptr64drop_in_place$LT$alloc..boxed..Box$LT$syn..pat..FieldPat$GT$$GT$17hb167b355d0d4733fE', symObjAddr: 0x5F90, symBinAddr: 0xFD2F0, symSize: 0x180 }
  - { offsetInCU: 0x17E84, offset: 0x5411CA, size: 0x8, addend: 0x0, symName: '__ZN4core3ptr64drop_in_place$LT$alloc..boxed..Box$LT$syn..ty..BareFnArg$GT$$GT$17h6488be9448346678E', symObjAddr: 0x6110, symBinAddr: 0xFD470, symSize: 0x160 }
  - { offsetInCU: 0x1841A, offset: 0x541760, size: 0x8, addend: 0x0, symName: '__ZN4core3ptr64drop_in_place$LT$alloc..vec..Vec$LT$syn..attr..Attribute$GT$$GT$17h386324d8ea9bc309E.llvm.7403831197315175127', symObjAddr: 0x6270, symBinAddr: 0xFD5D0, symSize: 0xF0 }
  - { offsetInCU: 0x18710, offset: 0x541A56, size: 0x8, addend: 0x0, symName: '__ZN4core3ptr65drop_in_place$LT$alloc..vec..Vec$LT$proc_macro..TokenTree$GT$$GT$17hc3670dd5608d5259E.llvm.7403831197315175127', symObjAddr: 0x6360, symBinAddr: 0xFD6C0, symSize: 0x110 }
  - { offsetInCU: 0x18B08, offset: 0x541E4E, size: 0x8, addend: 0x0, symName: '__ZN4core3ptr65drop_in_place$LT$core..option..Option$LT$syn..expr..Label$GT$$GT$17ha723640fd01bec5dE', symObjAddr: 0x6470, symBinAddr: 0xFD7D0, symSize: 0x30 }
  - { offsetInCU: 0x18C42, offset: 0x541F88, size: 0x8, addend: 0x0, symName: '__ZN4core3ptr66drop_in_place$LT$core..option..Option$LT$syn..ty..Variadic$GT$$GT$17hc32134bb3933b0dfE', symObjAddr: 0x64A0, symBinAddr: 0xFD800, symSize: 0xF0 }
  - { offsetInCU: 0x18F6C, offset: 0x5422B2, size: 0x8, addend: 0x0, symName: '__ZN4core3ptr67drop_in_place$LT$alloc..boxed..Box$LT$syn..expr..FieldValue$GT$$GT$17h8df780aa600ea8c2E', symObjAddr: 0x65F0, symBinAddr: 0xFD8F0, symSize: 0x160 }
  - { offsetInCU: 0x194E2, offset: 0x542828, size: 0x8, addend: 0x0, symName: '__ZN4core3ptr72drop_in_place$LT$core..option..Option$LT$syn..lifetime..Lifetime$GT$$GT$17h31b55b93749c174dE', symObjAddr: 0x6750, symBinAddr: 0xFDA50, symSize: 0x30 }
  - { offsetInCU: 0x195FD, offset: 0x542943, size: 0x8, addend: 0x0, symName: '__ZN4core3ptr75drop_in_place$LT$alloc..boxed..Box$LT$syn..generics..TypeParamBound$GT$$GT$17h8f156ce07ea0b8b2E', symObjAddr: 0x6780, symBinAddr: 0xFDA80, symSize: 0x140 }
  - { offsetInCU: 0x19B58, offset: 0x542E9E, size: 0x8, addend: 0x0, symName: '__ZN4core3ptr78drop_in_place$LT$alloc..boxed..Box$LT$syn..expr..GenericMethodArgument$GT$$GT$17h3384c00b5bd54c2aE', symObjAddr: 0x68C0, symBinAddr: 0xFDBC0, symSize: 0x60 }
  - { offsetInCU: 0x19D4A, offset: 0x543090, size: 0x8, addend: 0x0, symName: '__ZN4core3ptr78drop_in_place$LT$core..option..Option$LT$syn..generics..BoundLifetimes$GT$$GT$17h8175e66ad0c4a156E', symObjAddr: 0x6920, symBinAddr: 0xFDC20, symSize: 0xE0 }
  - { offsetInCU: 0x1A0C7, offset: 0x54340D, size: 0x8, addend: 0x0, symName: '__ZN4core3ptr86drop_in_place$LT$syn..punctuated..Punctuated$LT$syn..pat..Pat$C$syn..token..Or$GT$$GT$17h1078c5d178d382b7E', symObjAddr: 0x6A00, symBinAddr: 0xFDD00, symSize: 0x120 }
  - { offsetInCU: 0x1A542, offset: 0x543888, size: 0x8, addend: 0x0, symName: '__ZN4core3ptr87drop_in_place$LT$core..option..Option$LT$alloc..boxed..Box$LT$syn..pat..Pat$GT$$GT$$GT$17ha7f5fe0e6f73e820E', symObjAddr: 0x6B20, symBinAddr: 0xFDE20, symSize: 0x50 }
  - { offsetInCU: 0x1A6B2, offset: 0x5439F8, size: 0x8, addend: 0x0, symName: '__ZN4core3ptr87drop_in_place$LT$core..option..Option$LT$alloc..boxed..Box$LT$syn..ty..Type$GT$$GT$$GT$17hc8292da82d129de3E', symObjAddr: 0x6B70, symBinAddr: 0xFDE70, symSize: 0x50 }
  - { offsetInCU: 0x1A822, offset: 0x543B68, size: 0x8, addend: 0x0, symName: '__ZN4core3ptr89drop_in_place$LT$core..option..Option$LT$alloc..boxed..Box$LT$syn..expr..Expr$GT$$GT$$GT$17hdc211ccd33f196f2E', symObjAddr: 0x6BC0, symBinAddr: 0xFDEC0, symSize: 0x50 }
  - { offsetInCU: 0x1A9D0, offset: 0x543D16, size: 0x8, addend: 0x0, symName: '__ZN4core3ptr89drop_in_place$LT$syn..punctuated..Punctuated$LT$syn..pat..Pat$C$syn..token..Comma$GT$$GT$17hf8371102b0500adcE', symObjAddr: 0x6C10, symBinAddr: 0xFDF10, symSize: 0x120 }
  - { offsetInCU: 0x1AEA0, offset: 0x5441E6, size: 0x8, addend: 0x0, symName: '__ZN4core3ptr91drop_in_place$LT$syn..punctuated..Punctuated$LT$syn..expr..Expr$C$syn..token..Comma$GT$$GT$17hd2dfeb0c522d9a18E', symObjAddr: 0x6D30, symBinAddr: 0xFE030, symSize: 0x120 }
  - { offsetInCU: 0x1B32E, offset: 0x544674, size: 0x8, addend: 0x0, symName: '__ZN4core3ptr94drop_in_place$LT$syn..punctuated..Punctuated$LT$syn..pat..FieldPat$C$syn..token..Comma$GT$$GT$17h612cbc9066d5afb1E', symObjAddr: 0x6E50, symBinAddr: 0xFE150, symSize: 0xF0 }
  - { offsetInCU: 0x1B62D, offset: 0x544973, size: 0x8, addend: 0x0, symName: '__ZN4core3ptr94drop_in_place$LT$syn..punctuated..Punctuated$LT$syn..ty..BareFnArg$C$syn..token..Comma$GT$$GT$17ha9a668ce9972795bE', symObjAddr: 0x6F40, symBinAddr: 0xFE240, symSize: 0xF0 }
  - { offsetInCU: 0x1B92A, offset: 0x544C70, size: 0x8, addend: 0x0, symName: '__ZN4core3ptr96drop_in_place$LT$core..option..Option$LT$alloc..boxed..Box$LT$syn..path..PathSegment$GT$$GT$$GT$17h2e81cbe3c70bb71cE', symObjAddr: 0x7030, symBinAddr: 0xFE330, symSize: 0x180 }
  - { offsetInCU: 0x1BFE7, offset: 0x54532D, size: 0x8, addend: 0x0, symName: '__ZN4core3ptr97drop_in_place$LT$syn..punctuated..Punctuated$LT$syn..expr..FieldValue$C$syn..token..Comma$GT$$GT$17h11a5fffb46adfb11E', symObjAddr: 0x72F0, symBinAddr: 0xFE4B0, symSize: 0xF0 }
  - { offsetInCU: 0x1C360, offset: 0x5456A6, size: 0x8, addend: 0x0, symName: '__ZN4core3ptr97drop_in_place$LT$syn..punctuated..Punctuated$LT$syn..lifetime..Lifetime$C$syn..token..Add$GT$$GT$17h5c54dea2c838d109E', symObjAddr: 0x73E0, symBinAddr: 0xFE5A0, symSize: 0xD0 }
  - { offsetInCU: 0x264E2, offset: 0x54F828, size: 0x8, addend: 0x0, symName: __ZN3syn4attr9Attribute11parse_outer17hfba832d5caed3503E, symObjAddr: 0x7E70, symBinAddr: 0xFE670, symSize: 0x290 }
  - { offsetInCU: 0x26998, offset: 0x54FCDE, size: 0x8, addend: 0x0, symName: __ZN3syn4attr9Attribute11parse_inner17h8dfff6a4524414ceE, symObjAddr: 0x8100, symBinAddr: 0xFE900, symSize: 0x170 }
  - { offsetInCU: 0x1968, offset: 0x553C00, size: 0x8, addend: 0x0, symName: '__ZN4core3ptr100drop_in_place$LT$core..option..Option$LT$alloc..boxed..Box$LT$syn..generics..LifetimeDef$GT$$GT$$GT$17h75a6086997697dd7E', symObjAddr: 0x20, symBinAddr: 0xFEA70, symSize: 0x150 }
  - { offsetInCU: 0x1EE4, offset: 0x55417C, size: 0x8, addend: 0x0, symName: '__ZN4core3ptr100drop_in_place$LT$core..option..Option$LT$alloc..boxed..Box$LT$syn..path..GenericArgument$GT$$GT$$GT$17h3d29ec00a8f1918dE', symObjAddr: 0x170, symBinAddr: 0xFEBC0, symSize: 0x50 }
  - { offsetInCU: 0x212D, offset: 0x5543C5, size: 0x8, addend: 0x0, symName: '__ZN4core3ptr103drop_in_place$LT$syn..punctuated..Punctuated$LT$syn..generics..TypeParamBound$C$syn..token..Add$GT$$GT$17he811d520c92af08aE', symObjAddr: 0x1C0, symBinAddr: 0xFEC10, symSize: 0xF0 }
  - { offsetInCU: 0x26F9, offset: 0x554991, size: 0x8, addend: 0x0, symName: '__ZN4core3ptr108drop_in_place$LT$syn..punctuated..Punctuated$LT$syn..expr..GenericMethodArgument$C$syn..token..Comma$GT$$GT$17h92cbabe4862b2183E', symObjAddr: 0x2B0, symBinAddr: 0xFED00, symSize: 0x150 }
  - { offsetInCU: 0x2C52, offset: 0x554EEA, size: 0x8, addend: 0x0, symName: '__ZN4core3ptr34drop_in_place$LT$syn..lit..Lit$GT$17hbe1efe749a08dd9aE', symObjAddr: 0x400, symBinAddr: 0xFEE50, symSize: 0x110 }
  - { offsetInCU: 0x3121, offset: 0x5553B9, size: 0x8, addend: 0x0, symName: '__ZN4core3ptr34drop_in_place$LT$syn..pat..Pat$GT$17h3201f642e43ac2a2E.llvm.17689636906783639882', symObjAddr: 0x510, symBinAddr: 0xFEF60, symSize: 0x1090 }
  - { offsetInCU: 0x6C38, offset: 0x558ED0, size: 0x8, addend: 0x0, symName: '__ZN4core3ptr34drop_in_place$LT$syn..ty..Type$GT$17hfb5d159a08190130E.llvm.17689636906783639882', symObjAddr: 0x15A0, symBinAddr: 0xFFFF0, symSize: 0x580 }
  - { offsetInCU: 0x8549, offset: 0x55A7E1, size: 0x8, addend: 0x0, symName: '__ZN4core3ptr36drop_in_place$LT$syn..expr..Expr$GT$17hf1921d1b09462bc3E.llvm.17689636906783639882', symObjAddr: 0x1B20, symBinAddr: 0x100570, symSize: 0x3290 }
  - { offsetInCU: 0x12DDA, offset: 0x565072, size: 0x8, addend: 0x0, symName: '__ZN4core3ptr36drop_in_place$LT$syn..mac..Macro$GT$17h205613d7ad575f72E', symObjAddr: 0x4DB0, symBinAddr: 0x103800, symSize: 0x40 }
  - { offsetInCU: 0x12F2B, offset: 0x5651C3, size: 0x8, addend: 0x0, symName: '__ZN4core3ptr36drop_in_place$LT$syn..path..Path$GT$17he6d0bec66d66b98aE', symObjAddr: 0x4DF0, symBinAddr: 0x103840, symSize: 0x230 }
  - { offsetInCU: 0x138C1, offset: 0x565B59, size: 0x8, addend: 0x0, symName: '__ZN4core3ptr37drop_in_place$LT$syn..stmt..Block$GT$17h3aa429e75a234230E', symObjAddr: 0x5020, symBinAddr: 0x103A70, symSize: 0xD0 }
  - { offsetInCU: 0x13B98, offset: 0x565E30, size: 0x8, addend: 0x0, symName: '__ZN4core3ptr38drop_in_place$LT$syn..expr..Member$GT$17ha113d37a67d27aafE', symObjAddr: 0x50F0, symBinAddr: 0x103B40, symSize: 0x30 }
  - { offsetInCU: 0x13C94, offset: 0x565F2C, size: 0x8, addend: 0x0, symName: '__ZN4core3ptr39drop_in_place$LT$proc_macro2..Ident$GT$17hdeec010483268a0dE', symObjAddr: 0x5120, symBinAddr: 0x103B70, symSize: 0x30 }
  - { offsetInCU: 0x13DED, offset: 0x566085, size: 0x8, addend: 0x0, symName: '__ZN4core3ptr39drop_in_place$LT$syn..pat..PatTuple$GT$17h96faeea9832d4c4bE', symObjAddr: 0x5150, symBinAddr: 0x103BA0, symSize: 0x1F0 }
  - { offsetInCU: 0x14562, offset: 0x5667FA, size: 0x8, addend: 0x0, symName: '__ZN4core3ptr40drop_in_place$LT$syn..ty..ReturnType$GT$17h6f97c9fdb958983eE', symObjAddr: 0x5340, symBinAddr: 0x103D90, symSize: 0x50 }
  - { offsetInCU: 0x146D2, offset: 0x56696A, size: 0x8, addend: 0x0, symName: '__ZN4core3ptr44drop_in_place$LT$syn..lifetime..Lifetime$GT$17h3858225df033648aE', symObjAddr: 0x5390, symBinAddr: 0x103DE0, symSize: 0x30 }
  - { offsetInCU: 0x14904, offset: 0x566B9C, size: 0x8, addend: 0x0, symName: '__ZN4core3ptr45drop_in_place$LT$proc_macro2..TokenStream$GT$17h2507cb30e765dc85E', symObjAddr: 0x53C0, symBinAddr: 0x103E10, symSize: 0x140 }
  - { offsetInCU: 0x14D9E, offset: 0x567036, size: 0x8, addend: 0x0, symName: '__ZN4core3ptr47drop_in_place$LT$syn..path..GenericArgument$GT$17h8c0a0d8c6deaefb4E', symObjAddr: 0x5500, symBinAddr: 0x103F50, symSize: 0x110 }
  - { offsetInCU: 0x150B9, offset: 0x567351, size: 0x8, addend: 0x0, symName: '__ZN4core3ptr58drop_in_place$LT$alloc..vec..Vec$LT$syn..expr..Arm$GT$$GT$17hf3db0825f3d9c861E', symObjAddr: 0x5610, symBinAddr: 0x104060, symSize: 0xD0 }
  - { offsetInCU: 0x15379, offset: 0x567611, size: 0x8, addend: 0x0, symName: '__ZN4core3ptr59drop_in_place$LT$alloc..boxed..Box$LT$syn..pat..Pat$GT$$GT$17h7037ce9bbd3729c6E', symObjAddr: 0x56E0, symBinAddr: 0x104130, symSize: 0x50 }
  - { offsetInCU: 0x154D2, offset: 0x56776A, size: 0x8, addend: 0x0, symName: '__ZN4core3ptr59drop_in_place$LT$alloc..boxed..Box$LT$syn..ty..Type$GT$$GT$17h2eccd13329dbe4faE', symObjAddr: 0x5730, symBinAddr: 0x104180, symSize: 0x50 }
  - { offsetInCU: 0x1562B, offset: 0x5678C3, size: 0x8, addend: 0x0, symName: '__ZN4core3ptr61drop_in_place$LT$alloc..boxed..Box$LT$syn..expr..Expr$GT$$GT$17h66094ddc89015516E', symObjAddr: 0x5780, symBinAddr: 0x1041D0, symSize: 0x50 }
  - { offsetInCU: 0x15800, offset: 0x567A98, size: 0x8, addend: 0x0, symName: '__ZN4core3ptr61drop_in_place$LT$syn..path..ParenthesizedGenericArguments$GT$17h21be9b1d7a6fab55E', symObjAddr: 0x57D0, symBinAddr: 0x104220, symSize: 0x170 }
  - { offsetInCU: 0x15DF6, offset: 0x56808E, size: 0x8, addend: 0x0, symName: '__ZN4core3ptr63drop_in_place$LT$alloc..boxed..Box$LT$syn..lit..LitRepr$GT$$GT$17h9c509b794406150eE', symObjAddr: 0x5940, symBinAddr: 0x104390, symSize: 0x60 }
  - { offsetInCU: 0x160FD, offset: 0x568395, size: 0x8, addend: 0x0, symName: '__ZN4core3ptr64drop_in_place$LT$alloc..boxed..Box$LT$syn..pat..FieldPat$GT$$GT$17hb167b355d0d4733fE', symObjAddr: 0x59A0, symBinAddr: 0x1043F0, symSize: 0x180 }
  - { offsetInCU: 0x1681A, offset: 0x568AB2, size: 0x8, addend: 0x0, symName: '__ZN4core3ptr64drop_in_place$LT$alloc..boxed..Box$LT$syn..ty..BareFnArg$GT$$GT$17h6488be9448346678E', symObjAddr: 0x5B20, symBinAddr: 0x104570, symSize: 0x160 }
  - { offsetInCU: 0x16DB0, offset: 0x569048, size: 0x8, addend: 0x0, symName: '__ZN4core3ptr65drop_in_place$LT$alloc..vec..Vec$LT$proc_macro..TokenTree$GT$$GT$17hc3670dd5608d5259E', symObjAddr: 0x5C80, symBinAddr: 0x1046D0, symSize: 0x110 }
  - { offsetInCU: 0x171A8, offset: 0x569440, size: 0x8, addend: 0x0, symName: '__ZN4core3ptr65drop_in_place$LT$core..option..Option$LT$syn..expr..Label$GT$$GT$17ha723640fd01bec5dE', symObjAddr: 0x5D90, symBinAddr: 0x1047E0, symSize: 0x30 }
  - { offsetInCU: 0x172E2, offset: 0x56957A, size: 0x8, addend: 0x0, symName: '__ZN4core3ptr66drop_in_place$LT$core..option..Option$LT$syn..ty..Variadic$GT$$GT$17hc32134bb3933b0dfE', symObjAddr: 0x5DC0, symBinAddr: 0x104810, symSize: 0xF0 }
  - { offsetInCU: 0x1760C, offset: 0x5698A4, size: 0x8, addend: 0x0, symName: '__ZN4core3ptr67drop_in_place$LT$alloc..boxed..Box$LT$syn..expr..FieldValue$GT$$GT$17h8df780aa600ea8c2E', symObjAddr: 0x5EB0, symBinAddr: 0x104900, symSize: 0x160 }
  - { offsetInCU: 0x17BA1, offset: 0x569E39, size: 0x8, addend: 0x0, symName: '__ZN4core3ptr68drop_in_place$LT$alloc..boxed..Box$LT$syn..path..PathSegment$GT$$GT$17h1957b54eed39c0bbE', symObjAddr: 0x6010, symBinAddr: 0x104A60, symSize: 0x190 }
  - { offsetInCU: 0x182AB, offset: 0x56A543, size: 0x8, addend: 0x0, symName: '__ZN4core3ptr72drop_in_place$LT$alloc..boxed..Box$LT$syn..path..GenericArgument$GT$$GT$17ha8f8136d0c2b505bE', symObjAddr: 0x61A0, symBinAddr: 0x104BF0, symSize: 0x120 }
  - { offsetInCU: 0x18723, offset: 0x56A9BB, size: 0x8, addend: 0x0, symName: '__ZN4core3ptr72drop_in_place$LT$core..option..Option$LT$syn..lifetime..Lifetime$GT$$GT$17h31b55b93749c174dE', symObjAddr: 0x62C0, symBinAddr: 0x104D10, symSize: 0x30 }
  - { offsetInCU: 0x1883E, offset: 0x56AAD6, size: 0x8, addend: 0x0, symName: '__ZN4core3ptr75drop_in_place$LT$alloc..boxed..Box$LT$syn..generics..TypeParamBound$GT$$GT$17h8f156ce07ea0b8b2E', symObjAddr: 0x62F0, symBinAddr: 0x104D40, symSize: 0x90 }
  - { offsetInCU: 0x18B01, offset: 0x56AD99, size: 0x8, addend: 0x0, symName: '__ZN4core3ptr78drop_in_place$LT$alloc..boxed..Box$LT$syn..expr..GenericMethodArgument$GT$$GT$17h3384c00b5bd54c2aE', symObjAddr: 0x6380, symBinAddr: 0x104DD0, symSize: 0x60 }
  - { offsetInCU: 0x18CF3, offset: 0x56AF8B, size: 0x8, addend: 0x0, symName: '__ZN4core3ptr78drop_in_place$LT$core..option..Option$LT$syn..generics..BoundLifetimes$GT$$GT$17h8175e66ad0c4a156E', symObjAddr: 0x63E0, symBinAddr: 0x104E30, symSize: 0xE0 }
  - { offsetInCU: 0x19051, offset: 0x56B2E9, size: 0x8, addend: 0x0, symName: '__ZN4core3ptr86drop_in_place$LT$syn..punctuated..Punctuated$LT$syn..pat..Pat$C$syn..token..Or$GT$$GT$17h1078c5d178d382b7E', symObjAddr: 0x64C0, symBinAddr: 0x104F10, symSize: 0x120 }
  - { offsetInCU: 0x194E3, offset: 0x56B77B, size: 0x8, addend: 0x0, symName: '__ZN4core3ptr87drop_in_place$LT$core..option..Option$LT$alloc..boxed..Box$LT$syn..pat..Pat$GT$$GT$$GT$17ha7f5fe0e6f73e820E', symObjAddr: 0x65E0, symBinAddr: 0x105030, symSize: 0x50 }
  - { offsetInCU: 0x19653, offset: 0x56B8EB, size: 0x8, addend: 0x0, symName: '__ZN4core3ptr87drop_in_place$LT$core..option..Option$LT$alloc..boxed..Box$LT$syn..ty..Type$GT$$GT$$GT$17hc8292da82d129de3E', symObjAddr: 0x6630, symBinAddr: 0x105080, symSize: 0x50 }
  - { offsetInCU: 0x197C3, offset: 0x56BA5B, size: 0x8, addend: 0x0, symName: '__ZN4core3ptr89drop_in_place$LT$core..option..Option$LT$alloc..boxed..Box$LT$syn..expr..Expr$GT$$GT$$GT$17hdc211ccd33f196f2E', symObjAddr: 0x6680, symBinAddr: 0x1050D0, symSize: 0x50 }
  - { offsetInCU: 0x19933, offset: 0x56BBCB, size: 0x8, addend: 0x0, symName: '__ZN4core3ptr89drop_in_place$LT$syn..punctuated..Punctuated$LT$syn..ty..Type$C$syn..token..Comma$GT$$GT$17h1c6e43341fabea97E', symObjAddr: 0x66D0, symBinAddr: 0x105120, symSize: 0x120 }
  - { offsetInCU: 0x19DEC, offset: 0x56C084, size: 0x8, addend: 0x0, symName: '__ZN4core3ptr91drop_in_place$LT$syn..punctuated..Punctuated$LT$syn..expr..Expr$C$syn..token..Comma$GT$$GT$17hd2dfeb0c522d9a18E', symObjAddr: 0x67F0, symBinAddr: 0x105240, symSize: 0x120 }
  - { offsetInCU: 0x1A27A, offset: 0x56C512, size: 0x8, addend: 0x0, symName: '__ZN4core3ptr94drop_in_place$LT$syn..punctuated..Punctuated$LT$syn..pat..FieldPat$C$syn..token..Comma$GT$$GT$17h612cbc9066d5afb1E', symObjAddr: 0x6910, symBinAddr: 0x105360, symSize: 0xF0 }
  - { offsetInCU: 0x1A579, offset: 0x56C811, size: 0x8, addend: 0x0, symName: '__ZN4core3ptr94drop_in_place$LT$syn..punctuated..Punctuated$LT$syn..ty..BareFnArg$C$syn..token..Comma$GT$$GT$17ha9a668ce9972795bE', symObjAddr: 0x6A00, symBinAddr: 0x105450, symSize: 0xF0 }
  - { offsetInCU: 0x1A876, offset: 0x56CB0E, size: 0x8, addend: 0x0, symName: '__ZN4core3ptr96drop_in_place$LT$core..option..Option$LT$alloc..boxed..Box$LT$syn..path..PathSegment$GT$$GT$$GT$17h2e81cbe3c70bb71cE', symObjAddr: 0x6AF0, symBinAddr: 0x105540, symSize: 0x180 }
  - { offsetInCU: 0x1AF33, offset: 0x56D1CB, size: 0x8, addend: 0x0, symName: '__ZN4core3ptr97drop_in_place$LT$syn..punctuated..Punctuated$LT$syn..expr..FieldValue$C$syn..token..Comma$GT$$GT$17h11a5fffb46adfb11E', symObjAddr: 0x6C70, symBinAddr: 0x1056C0, symSize: 0xF0 }
  - { offsetInCU: 0x1B2AC, offset: 0x56D544, size: 0x8, addend: 0x0, symName: '__ZN4core3ptr97drop_in_place$LT$syn..punctuated..Punctuated$LT$syn..lifetime..Lifetime$C$syn..token..Add$GT$$GT$17h5c54dea2c838d109E', symObjAddr: 0x6D60, symBinAddr: 0x1057B0, symSize: 0xD0 }
  - { offsetInCU: 0x1B720, offset: 0x56D9B8, size: 0x8, addend: 0x0, symName: '__ZN4core3ptr99drop_in_place$LT$syn..punctuated..Punctuated$LT$syn..path..PathSegment$C$syn..token..Colon2$GT$$GT$17hb961e4d7989a33ceE', symObjAddr: 0x6E30, symBinAddr: 0x105880, symSize: 0x250 }
  - { offsetInCU: 0x24C54, offset: 0x576EEC, size: 0x8, addend: 0x0, symName: '__ZN64_$LT$alloc..boxed..Box$LT$T$GT$$u20$as$u20$syn..parse..Parse$GT$5parse17h20ae346f9ed6774cE', symObjAddr: 0x7F20, symBinAddr: 0x105AD0, symSize: 0x100 }
  - { offsetInCU: 0x24E2E, offset: 0x5770C6, size: 0x8, addend: 0x0, symName: '__ZN64_$LT$alloc..boxed..Box$LT$T$GT$$u20$as$u20$syn..parse..Parse$GT$5parse17hf19418b7c1ef6591E', symObjAddr: 0x8020, symBinAddr: 0x105BD0, symSize: 0x1A4 }
  - { offsetInCU: 0x1E, offset: 0x57AD6A, size: 0x8, addend: 0x0, symName: '__ZN4core3ptr100drop_in_place$LT$core..option..Option$LT$alloc..boxed..Box$LT$syn..generics..LifetimeDef$GT$$GT$$GT$17h75a6086997697dd7E', symObjAddr: 0x0, symBinAddr: 0x105D80, symSize: 0x50 }
  - { offsetInCU: 0x1AA9, offset: 0x57C7F5, size: 0x8, addend: 0x0, symName: '__ZN4core3ptr100drop_in_place$LT$core..option..Option$LT$alloc..boxed..Box$LT$syn..generics..LifetimeDef$GT$$GT$$GT$17h75a6086997697dd7E', symObjAddr: 0x0, symBinAddr: 0x105D80, symSize: 0x50 }
  - { offsetInCU: 0x1C2B, offset: 0x57C977, size: 0x8, addend: 0x0, symName: '__ZN4core3ptr100drop_in_place$LT$core..option..Option$LT$alloc..boxed..Box$LT$syn..path..GenericArgument$GT$$GT$$GT$17h3d29ec00a8f1918dE', symObjAddr: 0x50, symBinAddr: 0x105DD0, symSize: 0x50 }
  - { offsetInCU: 0x1F0F, offset: 0x57CC5B, size: 0x8, addend: 0x0, symName: '__ZN4core3ptr101drop_in_place$LT$core..option..Option$LT$alloc..boxed..Box$LT$syn..generics..GenericParam$GT$$GT$$GT$17h1fee4f1c7bd902c4E', symObjAddr: 0xA0, symBinAddr: 0x105E20, symSize: 0x310 }
  - { offsetInCU: 0x294A, offset: 0x57D696, size: 0x8, addend: 0x0, symName: '__ZN4core3ptr103drop_in_place$LT$core..option..Option$LT$alloc..boxed..Box$LT$syn..generics..WherePredicate$GT$$GT$$GT$17headad361972eced7E', symObjAddr: 0x3B0, symBinAddr: 0x106130, symSize: 0x120 }
  - { offsetInCU: 0x2D5C, offset: 0x57DAA8, size: 0x8, addend: 0x0, symName: '__ZN4core3ptr103drop_in_place$LT$syn..punctuated..Punctuated$LT$syn..generics..TypeParamBound$C$syn..token..Add$GT$$GT$17he811d520c92af08aE', symObjAddr: 0x4D0, symBinAddr: 0x106250, symSize: 0x1C0 }
  - { offsetInCU: 0x35C0, offset: 0x57E30C, size: 0x8, addend: 0x0, symName: '__ZN4core3ptr108drop_in_place$LT$syn..punctuated..Punctuated$LT$syn..expr..GenericMethodArgument$C$syn..token..Comma$GT$$GT$17h92cbabe4862b2183E', symObjAddr: 0x690, symBinAddr: 0x106410, symSize: 0x150 }
  - { offsetInCU: 0x3A9D, offset: 0x57E7E9, size: 0x8, addend: 0x0, symName: '__ZN4core3ptr114drop_in_place$LT$core..option..Option$LT$$LP$syn..token..Eq$C$alloc..boxed..Box$LT$syn..expr..Expr$GT$$RP$$GT$$GT$17hda89b44bdc8e53e8E', symObjAddr: 0x7E0, symBinAddr: 0x106560, symSize: 0x50 }
  - { offsetInCU: 0x3C6B, offset: 0x57E9B7, size: 0x8, addend: 0x0, symName: '__ZN4core3ptr115drop_in_place$LT$core..option..Option$LT$$LP$syn..token..Brace$C$alloc..vec..Vec$LT$syn..item..Item$GT$$RP$$GT$$GT$17hab9d60ee568bdf60E', symObjAddr: 0x830, symBinAddr: 0x1065B0, symSize: 0xD0 }
  - { offsetInCU: 0x3F82, offset: 0x57ECCE, size: 0x8, addend: 0x0, symName: '__ZN4core3ptr126drop_in_place$LT$core..option..Option$LT$$LP$syn..token..And$C$core..option..Option$LT$syn..lifetime..Lifetime$GT$$RP$$GT$$GT$17h5979d670cb45416cE', symObjAddr: 0x900, symBinAddr: 0x106680, symSize: 0x30 }
  - { offsetInCU: 0x4195, offset: 0x57EEE1, size: 0x8, addend: 0x0, symName: '__ZN4core3ptr34drop_in_place$LT$syn..lit..Lit$GT$17hbe1efe749a08dd9aE', symObjAddr: 0x930, symBinAddr: 0x1066B0, symSize: 0x110 }
  - { offsetInCU: 0x45E8, offset: 0x57F334, size: 0x8, addend: 0x0, symName: '__ZN4core3ptr34drop_in_place$LT$syn..pat..Pat$GT$17h3201f642e43ac2a2E', symObjAddr: 0xA40, symBinAddr: 0x1067C0, symSize: 0x1050 }
  - { offsetInCU: 0x7F88, offset: 0x582CD4, size: 0x8, addend: 0x0, symName: '__ZN4core3ptr34drop_in_place$LT$syn..ty..Type$GT$17hfb5d159a08190130E', symObjAddr: 0x1A90, symBinAddr: 0x107810, symSize: 0x620 }
  - { offsetInCU: 0x9BC0, offset: 0x58490C, size: 0x8, addend: 0x0, symName: '__ZN4core3ptr36drop_in_place$LT$syn..expr..Expr$GT$17hf1921d1b09462bc3E', symObjAddr: 0x20B0, symBinAddr: 0x107E30, symSize: 0x31D0 }
  - { offsetInCU: 0x14602, offset: 0x58F34E, size: 0x8, addend: 0x0, symName: '__ZN4core3ptr36drop_in_place$LT$syn..item..Item$GT$17hf1fe4e69bb0a9b43E', symObjAddr: 0x5280, symBinAddr: 0x10B000, symSize: 0x1B30 }
  - { offsetInCU: 0x1AD0B, offset: 0x595A57, size: 0x8, addend: 0x0, symName: '__ZN4core3ptr36drop_in_place$LT$syn..mac..Macro$GT$17h205613d7ad575f72E', symObjAddr: 0x6DB0, symBinAddr: 0x10CB30, symSize: 0xE0 }
  - { offsetInCU: 0x1B111, offset: 0x595E5D, size: 0x8, addend: 0x0, symName: '__ZN4core3ptr36drop_in_place$LT$syn..path..Path$GT$17he6d0bec66d66b98aE', symObjAddr: 0x6E90, symBinAddr: 0x10CC10, symSize: 0x230 }
  - { offsetInCU: 0x1BAA7, offset: 0x5967F3, size: 0x8, addend: 0x0, symName: '__ZN4core3ptr37drop_in_place$LT$syn..stmt..Block$GT$17h3aa429e75a234230E', symObjAddr: 0x70C0, symBinAddr: 0x10CE40, symSize: 0xD0 }
  - { offsetInCU: 0x1BD9D, offset: 0x596AE9, size: 0x8, addend: 0x0, symName: '__ZN4core3ptr38drop_in_place$LT$syn..data..Fields$GT$17h0c48fa2402a42137E', symObjAddr: 0x7190, symBinAddr: 0x10CF10, symSize: 0x180 }
  - { offsetInCU: 0x1C1E3, offset: 0x596F2F, size: 0x8, addend: 0x0, symName: '__ZN4core3ptr38drop_in_place$LT$syn..expr..Member$GT$17ha113d37a67d27aafE', symObjAddr: 0x7310, symBinAddr: 0x10D090, symSize: 0x30 }
  - { offsetInCU: 0x1C2DF, offset: 0x59702B, size: 0x8, addend: 0x0, symName: '__ZN4core3ptr39drop_in_place$LT$proc_macro2..Ident$GT$17hdeec010483268a0dE', symObjAddr: 0x7340, symBinAddr: 0x10D0C0, symSize: 0x30 }
  - { offsetInCU: 0x1C4D3, offset: 0x59721F, size: 0x8, addend: 0x0, symName: '__ZN4core3ptr39drop_in_place$LT$syn..item..UseTree$GT$17h78d4ed19b48b8cbfE', symObjAddr: 0x7370, symBinAddr: 0x10D0F0, symSize: 0x1F0 }
  - { offsetInCU: 0x1CBEA, offset: 0x597936, size: 0x8, addend: 0x0, symName: '__ZN4core3ptr39drop_in_place$LT$syn..pat..PatTuple$GT$17h96faeea9832d4c4bE', symObjAddr: 0x7560, symBinAddr: 0x10D2E0, symSize: 0x100 }
  - { offsetInCU: 0x1CEF3, offset: 0x597C3F, size: 0x8, addend: 0x0, symName: '__ZN4core3ptr40drop_in_place$LT$syn..ty..ReturnType$GT$17h6f97c9fdb958983eE', symObjAddr: 0x7660, symBinAddr: 0x10D3E0, symSize: 0x50 }
  - { offsetInCU: 0x1D0C0, offset: 0x597E0C, size: 0x8, addend: 0x0, symName: '__ZN4core3ptr41drop_in_place$LT$syn..item..Signature$GT$17hd57cfba25994ce69E', symObjAddr: 0x76B0, symBinAddr: 0x10D430, symSize: 0x2D0 }
  - { offsetInCU: 0x1DC6F, offset: 0x5989BB, size: 0x8, addend: 0x0, symName: '__ZN4core3ptr42drop_in_place$LT$syn..data..Visibility$GT$17h27e8b6ad307fcbc7E', symObjAddr: 0x7980, symBinAddr: 0x10D700, symSize: 0x60 }
  - { offsetInCU: 0x1DDE0, offset: 0x598B2C, size: 0x8, addend: 0x0, symName: '__ZN4core3ptr43drop_in_place$LT$syn..data..FieldsNamed$GT$17h73293dd81bcfeab6E', symObjAddr: 0x79E0, symBinAddr: 0x10D760, symSize: 0xE0 }
  - { offsetInCU: 0x1E15F, offset: 0x598EAB, size: 0x8, addend: 0x0, symName: '__ZN4core3ptr44drop_in_place$LT$syn..generics..Generics$GT$17he0d6eb6045503c84E', symObjAddr: 0x7AC0, symBinAddr: 0x10D840, symSize: 0xA0 }
  - { offsetInCU: 0x1E3CB, offset: 0x599117, size: 0x8, addend: 0x0, symName: '__ZN4core3ptr44drop_in_place$LT$syn..lifetime..Lifetime$GT$17h3858225df033648aE', symObjAddr: 0x7B60, symBinAddr: 0x10D8E0, symSize: 0x30 }
  - { offsetInCU: 0x1E543, offset: 0x59928F, size: 0x8, addend: 0x0, symName: '__ZN4core3ptr44drop_in_place$LT$syn..parse..ParseBuffer$GT$17h19c266fcccc430cbE', symObjAddr: 0x7B90, symBinAddr: 0x10D910, symSize: 0x70 }
  - { offsetInCU: 0x1E95A, offset: 0x5996A6, size: 0x8, addend: 0x0, symName: '__ZN4core3ptr45drop_in_place$LT$proc_macro2..TokenStream$GT$17h2507cb30e765dc85E', symObjAddr: 0x7C00, symBinAddr: 0x10D980, symSize: 0x140 }
  - { offsetInCU: 0x1EDB6, offset: 0x599B02, size: 0x8, addend: 0x0, symName: '__ZN4core3ptr47drop_in_place$LT$syn..generics..LifetimeDef$GT$17hd04bc9e6ed9dfb47E', symObjAddr: 0x7D40, symBinAddr: 0x10DAC0, symSize: 0x120 }
  - { offsetInCU: 0x1F211, offset: 0x599F5D, size: 0x8, addend: 0x0, symName: '__ZN4core3ptr47drop_in_place$LT$syn..path..GenericArgument$GT$17h8c0a0d8c6deaefb4E', symObjAddr: 0x7E60, symBinAddr: 0x10DBE0, symSize: 0x110 }
  - { offsetInCU: 0x1F53F, offset: 0x59A28B, size: 0x8, addend: 0x0, symName: '__ZN4core3ptr58drop_in_place$LT$alloc..vec..Vec$LT$syn..expr..Arm$GT$$GT$17hf3db0825f3d9c861E', symObjAddr: 0x7F70, symBinAddr: 0x10DCF0, symSize: 0xD0 }
  - { offsetInCU: 0x1F7FF, offset: 0x59A54B, size: 0x8, addend: 0x0, symName: '__ZN4core3ptr59drop_in_place$LT$alloc..boxed..Box$LT$syn..pat..Pat$GT$$GT$17h7037ce9bbd3729c6E', symObjAddr: 0x8040, symBinAddr: 0x10DDC0, symSize: 0x50 }
  - { offsetInCU: 0x1F958, offset: 0x59A6A4, size: 0x8, addend: 0x0, symName: '__ZN4core3ptr59drop_in_place$LT$alloc..boxed..Box$LT$syn..ty..Type$GT$$GT$17h2eccd13329dbe4faE', symObjAddr: 0x8090, symBinAddr: 0x10DE10, symSize: 0x50 }
  - { offsetInCU: 0x1FAB1, offset: 0x59A7FD, size: 0x8, addend: 0x0, symName: '__ZN4core3ptr59drop_in_place$LT$alloc..vec..Vec$LT$syn..stmt..Stmt$GT$$GT$17hed4646381107e302E', symObjAddr: 0x80E0, symBinAddr: 0x10DE60, symSize: 0xD0 }
  - { offsetInCU: 0x1FD71, offset: 0x59AABD, size: 0x8, addend: 0x0, symName: '__ZN4core3ptr61drop_in_place$LT$alloc..boxed..Box$LT$syn..expr..Expr$GT$$GT$17h66094ddc89015516E', symObjAddr: 0x81B0, symBinAddr: 0x10DF30, symSize: 0x50 }
  - { offsetInCU: 0x1FECA, offset: 0x59AC16, size: 0x8, addend: 0x0, symName: '__ZN4core3ptr61drop_in_place$LT$syn..path..ParenthesizedGenericArguments$GT$17h21be9b1d7a6fab55E', symObjAddr: 0x8200, symBinAddr: 0x10DF80, symSize: 0x170 }
  - { offsetInCU: 0x204D3, offset: 0x59B21F, size: 0x8, addend: 0x0, symName: '__ZN4core3ptr62drop_in_place$LT$alloc..boxed..Box$LT$syn..stmt..Block$GT$$GT$17h0633c21446a415f4E', symObjAddr: 0x8370, symBinAddr: 0x10E0F0, symSize: 0xE0 }
  - { offsetInCU: 0x208E1, offset: 0x59B62D, size: 0x8, addend: 0x0, symName: '__ZN4core3ptr63drop_in_place$LT$alloc..boxed..Box$LT$syn..lit..LitRepr$GT$$GT$17h9c509b794406150eE', symObjAddr: 0x8450, symBinAddr: 0x10E1D0, symSize: 0x60 }
  - { offsetInCU: 0x20BAA, offset: 0x59B8F6, size: 0x8, addend: 0x0, symName: '__ZN4core3ptr63drop_in_place$LT$alloc..vec..Vec$LT$syn..item..ImplItem$GT$$GT$17ha4d5b54edb0d5cb7E', symObjAddr: 0x84B0, symBinAddr: 0x10E230, symSize: 0x80 }
  - { offsetInCU: 0x20E62, offset: 0x59BBAE, size: 0x8, addend: 0x0, symName: '__ZN4core3ptr64drop_in_place$LT$alloc..boxed..Box$LT$syn..item..UseTree$GT$$GT$17h2fbb30105f88b737E', symObjAddr: 0x8530, symBinAddr: 0x10E2B0, symSize: 0x50 }
  - { offsetInCU: 0x20FF9, offset: 0x59BD45, size: 0x8, addend: 0x0, symName: '__ZN4core3ptr64drop_in_place$LT$alloc..boxed..Box$LT$syn..pat..FieldPat$GT$$GT$17hb167b355d0d4733fE', symObjAddr: 0x8580, symBinAddr: 0x10E300, symSize: 0x180 }
  - { offsetInCU: 0x21716, offset: 0x59C462, size: 0x8, addend: 0x0, symName: '__ZN4core3ptr64drop_in_place$LT$alloc..boxed..Box$LT$syn..ty..BareFnArg$GT$$GT$17h6488be9448346678E', symObjAddr: 0x8700, symBinAddr: 0x10E480, symSize: 0x160 }
  - { offsetInCU: 0x21CAC, offset: 0x59C9F8, size: 0x8, addend: 0x0, symName: '__ZN4core3ptr64drop_in_place$LT$alloc..vec..Vec$LT$syn..attr..Attribute$GT$$GT$17h386324d8ea9bc309E', symObjAddr: 0x8860, symBinAddr: 0x10E5E0, symSize: 0xF0 }
  - { offsetInCU: 0x21FA2, offset: 0x59CCEE, size: 0x8, addend: 0x0, symName: '__ZN4core3ptr64drop_in_place$LT$alloc..vec..Vec$LT$syn..item..TraitItem$GT$$GT$17h0ef3c4b7ce592e9eE', symObjAddr: 0x8950, symBinAddr: 0x10E6D0, symSize: 0x80 }
  - { offsetInCU: 0x2225A, offset: 0x59CFA6, size: 0x8, addend: 0x0, symName: '__ZN4core3ptr65drop_in_place$LT$alloc..vec..Vec$LT$proc_macro..TokenTree$GT$$GT$17hc3670dd5608d5259E', symObjAddr: 0x89D0, symBinAddr: 0x10E750, symSize: 0x110 }
  - { offsetInCU: 0x22652, offset: 0x59D39E, size: 0x8, addend: 0x0, symName: '__ZN4core3ptr65drop_in_place$LT$core..option..Option$LT$syn..expr..Label$GT$$GT$17ha723640fd01bec5dE', symObjAddr: 0x8AE0, symBinAddr: 0x10E860, symSize: 0x30 }
  - { offsetInCU: 0x2278C, offset: 0x59D4D8, size: 0x8, addend: 0x0, symName: '__ZN4core3ptr66drop_in_place$LT$alloc..vec..Vec$LT$syn..item..ForeignItem$GT$$GT$17hc5d281d65e9f4398E', symObjAddr: 0x8B10, symBinAddr: 0x10E890, symSize: 0x80 }
  - { offsetInCU: 0x22A44, offset: 0x59D790, size: 0x8, addend: 0x0, symName: '__ZN4core3ptr66drop_in_place$LT$core..option..Option$LT$syn..ty..Variadic$GT$$GT$17hc32134bb3933b0dfE', symObjAddr: 0x8B90, symBinAddr: 0x10E910, symSize: 0xF0 }
  - { offsetInCU: 0x22D6E, offset: 0x59DABA, size: 0x8, addend: 0x0, symName: '__ZN4core3ptr67drop_in_place$LT$alloc..boxed..Box$LT$syn..expr..FieldValue$GT$$GT$17h8df780aa600ea8c2E', symObjAddr: 0x8C80, symBinAddr: 0x10EA00, symSize: 0x160 }
  - { offsetInCU: 0x232E4, offset: 0x59E030, size: 0x8, addend: 0x0, symName: '__ZN4core3ptr72drop_in_place$LT$core..option..Option$LT$syn..lifetime..Lifetime$GT$$GT$17h31b55b93749c174dE', symObjAddr: 0x8DE0, symBinAddr: 0x10EB60, symSize: 0x30 }
  - { offsetInCU: 0x233FF, offset: 0x59E14B, size: 0x8, addend: 0x0, symName: '__ZN4core3ptr75drop_in_place$LT$alloc..boxed..Box$LT$syn..generics..TypeParamBound$GT$$GT$17h8f156ce07ea0b8b2E', symObjAddr: 0x8E10, symBinAddr: 0x10EB90, symSize: 0x140 }
  - { offsetInCU: 0x239D6, offset: 0x59E722, size: 0x8, addend: 0x0, symName: '__ZN4core3ptr75drop_in_place$LT$core..option..Option$LT$syn..generics..WhereClause$GT$$GT$17h9a6b9b305741da86E', symObjAddr: 0x8F50, symBinAddr: 0x10ECD0, symSize: 0xF0 }
  - { offsetInCU: 0x23CF8, offset: 0x59EA44, size: 0x8, addend: 0x0, symName: '__ZN4core3ptr78drop_in_place$LT$alloc..boxed..Box$LT$syn..expr..GenericMethodArgument$GT$$GT$17h3384c00b5bd54c2aE', symObjAddr: 0x9040, symBinAddr: 0x10EDC0, symSize: 0x60 }
  - { offsetInCU: 0x23F09, offset: 0x59EC55, size: 0x8, addend: 0x0, symName: '__ZN4core3ptr78drop_in_place$LT$core..option..Option$LT$syn..generics..BoundLifetimes$GT$$GT$17h8175e66ad0c4a156E', symObjAddr: 0x90A0, symBinAddr: 0x10EE20, symSize: 0x120 }
  - { offsetInCU: 0x243CE, offset: 0x59F11A, size: 0x8, addend: 0x0, symName: '__ZN4core3ptr84drop_in_place$LT$core..result..Result$LT$syn..path..Path$C$syn..error..Error$GT$$GT$17h633b48bcb7ce7d8dE', symObjAddr: 0x91C0, symBinAddr: 0x10EF40, symSize: 0x90 }
  - { offsetInCU: 0x246ED, offset: 0x59F439, size: 0x8, addend: 0x0, symName: '__ZN4core3ptr86drop_in_place$LT$syn..punctuated..Punctuated$LT$syn..pat..Pat$C$syn..token..Or$GT$$GT$17h1078c5d178d382b7E', symObjAddr: 0x9250, symBinAddr: 0x10EFD0, symSize: 0x120 }
  - { offsetInCU: 0x24B68, offset: 0x59F8B4, size: 0x8, addend: 0x0, symName: '__ZN4core3ptr87drop_in_place$LT$core..option..Option$LT$alloc..boxed..Box$LT$syn..pat..Pat$GT$$GT$$GT$17ha7f5fe0e6f73e820E', symObjAddr: 0x9370, symBinAddr: 0x10F0F0, symSize: 0x50 }
  - { offsetInCU: 0x24CD8, offset: 0x59FA24, size: 0x8, addend: 0x0, symName: '__ZN4core3ptr87drop_in_place$LT$core..option..Option$LT$alloc..boxed..Box$LT$syn..ty..Type$GT$$GT$$GT$17hc8292da82d129de3E', symObjAddr: 0x93C0, symBinAddr: 0x10F140, symSize: 0x50 }
  - { offsetInCU: 0x24E48, offset: 0x59FB94, size: 0x8, addend: 0x0, symName: '__ZN4core3ptr89drop_in_place$LT$core..option..Option$LT$alloc..boxed..Box$LT$syn..expr..Expr$GT$$GT$$GT$17hdc211ccd33f196f2E', symObjAddr: 0x9410, symBinAddr: 0x10F190, symSize: 0x50 }
  - { offsetInCU: 0x24FF6, offset: 0x59FD42, size: 0x8, addend: 0x0, symName: '__ZN4core3ptr89drop_in_place$LT$syn..punctuated..Punctuated$LT$syn..pat..Pat$C$syn..token..Comma$GT$$GT$17hf8371102b0500adcE', symObjAddr: 0x9460, symBinAddr: 0x10F1E0, symSize: 0x120 }
  - { offsetInCU: 0x254C6, offset: 0x5A0212, size: 0x8, addend: 0x0, symName: '__ZN4core3ptr90drop_in_place$LT$core..option..Option$LT$alloc..boxed..Box$LT$syn..data..Field$GT$$GT$$GT$17he146e9f4e32c136fE', symObjAddr: 0x9580, symBinAddr: 0x10F300, symSize: 0x1D0 }
  - { offsetInCU: 0x25BFF, offset: 0x5A094B, size: 0x8, addend: 0x0, symName: '__ZN4core3ptr90drop_in_place$LT$core..option..Option$LT$alloc..boxed..Box$LT$syn..item..FnArg$GT$$GT$$GT$17ha72e545cf6ea6548E', symObjAddr: 0x9750, symBinAddr: 0x10F4D0, symSize: 0x280 }
  - { offsetInCU: 0x26795, offset: 0x5A14E1, size: 0x8, addend: 0x0, symName: '__ZN4core3ptr91drop_in_place$LT$syn..punctuated..Punctuated$LT$syn..expr..Expr$C$syn..token..Comma$GT$$GT$17hd2dfeb0c522d9a18E', symObjAddr: 0x99D0, symBinAddr: 0x10F750, symSize: 0x120 }
  - { offsetInCU: 0x26C23, offset: 0x5A196F, size: 0x8, addend: 0x0, symName: '__ZN4core3ptr92drop_in_place$LT$core..option..Option$LT$$LP$syn..token..As$C$proc_macro2..Ident$RP$$GT$$GT$17hdb8e08992a006501E', symObjAddr: 0x9AF0, symBinAddr: 0x10F870, symSize: 0x30 }
  - { offsetInCU: 0x26DBA, offset: 0x5A1B06, size: 0x8, addend: 0x0, symName: '__ZN4core3ptr92drop_in_place$LT$core..option..Option$LT$alloc..boxed..Box$LT$syn..data..Variant$GT$$GT$$GT$17h9c9c8f3c1dc56a70E', symObjAddr: 0x9B20, symBinAddr: 0x10F8A0, symSize: 0x1A0 }
  - { offsetInCU: 0x27381, offset: 0x5A20CD, size: 0x8, addend: 0x0, symName: '__ZN4core3ptr92drop_in_place$LT$syn..punctuated..Punctuated$LT$syn..item..FnArg$C$syn..token..Comma$GT$$GT$17h3049a14d789de61dE', symObjAddr: 0x9CC0, symBinAddr: 0x10FA40, symSize: 0xE0 }
  - { offsetInCU: 0x2767C, offset: 0x5A23C8, size: 0x8, addend: 0x0, symName: '__ZN4core3ptr94drop_in_place$LT$syn..punctuated..Punctuated$LT$syn..data..Variant$C$syn..token..Comma$GT$$GT$17hb4480d65f74dc9d7E', symObjAddr: 0x9DA0, symBinAddr: 0x10FB20, symSize: 0xE0 }
  - { offsetInCU: 0x2797F, offset: 0x5A26CB, size: 0x8, addend: 0x0, symName: '__ZN4core3ptr94drop_in_place$LT$syn..punctuated..Punctuated$LT$syn..pat..FieldPat$C$syn..token..Comma$GT$$GT$17h612cbc9066d5afb1E', symObjAddr: 0x9E80, symBinAddr: 0x10FC00, symSize: 0xF0 }
  - { offsetInCU: 0x27C7E, offset: 0x5A29CA, size: 0x8, addend: 0x0, symName: '__ZN4core3ptr94drop_in_place$LT$syn..punctuated..Punctuated$LT$syn..ty..BareFnArg$C$syn..token..Comma$GT$$GT$17ha9a668ce9972795bE', symObjAddr: 0x9F70, symBinAddr: 0x10FCF0, symSize: 0xF0 }
  - { offsetInCU: 0x27F7B, offset: 0x5A2CC7, size: 0x8, addend: 0x0, symName: '__ZN4core3ptr96drop_in_place$LT$core..option..Option$LT$alloc..boxed..Box$LT$syn..path..PathSegment$GT$$GT$$GT$17h2e81cbe3c70bb71cE', symObjAddr: 0xA060, symBinAddr: 0x10FDE0, symSize: 0x180 }
  - { offsetInCU: 0x28638, offset: 0x5A3384, size: 0x8, addend: 0x0, symName: '__ZN4core3ptr97drop_in_place$LT$syn..punctuated..Punctuated$LT$syn..expr..FieldValue$C$syn..token..Comma$GT$$GT$17h11a5fffb46adfb11E', symObjAddr: 0xA1E0, symBinAddr: 0x10FF60, symSize: 0xF0 }
  - { offsetInCU: 0x289B1, offset: 0x5A36FD, size: 0x8, addend: 0x0, symName: '__ZN4core3ptr97drop_in_place$LT$syn..punctuated..Punctuated$LT$syn..lifetime..Lifetime$C$syn..token..Add$GT$$GT$17h5c54dea2c838d109E', symObjAddr: 0xA2D0, symBinAddr: 0x110050, symSize: 0xD0 }
  - { offsetInCU: 0x2F2CC, offset: 0x5AA018, size: 0x8, addend: 0x0, symName: __ZN3syn4stmt7parsing10parse_stmt17hb1938deadbda351bE, symObjAddr: 0xA3E0, symBinAddr: 0x110160, symSize: 0x21F0 }
  - { offsetInCU: 0x3455E, offset: 0x5AF2AA, size: 0x8, addend: 0x0, symName: __ZN3syn4stmt7parsing9stmt_expr17h68e7b16f6e7215d8E, symObjAddr: 0xC5D0, symBinAddr: 0x112350, symSize: 0x585 }
  - { offsetInCU: 0x37D38, offset: 0x5B2A84, size: 0x8, addend: 0x0, symName: __ZN5alloc5alloc15exchange_malloc17h9a87608d0224859dE, symObjAddr: 0xA3A0, symBinAddr: 0x110120, symSize: 0x40 }
  - { offsetInCU: 0x1BE4, offset: 0x5BE2B0, size: 0x8, addend: 0x0, symName: '__ZN4core3ptr100drop_in_place$LT$core..option..Option$LT$alloc..boxed..Box$LT$syn..generics..LifetimeDef$GT$$GT$$GT$17h75a6086997697dd7E.llvm.5539410299314833742', symObjAddr: 0x310, symBinAddr: 0x1128E0, symSize: 0x150 }
  - { offsetInCU: 0x2160, offset: 0x5BE82C, size: 0x8, addend: 0x0, symName: '__ZN4core3ptr100drop_in_place$LT$core..option..Option$LT$alloc..boxed..Box$LT$syn..path..GenericArgument$GT$$GT$$GT$17h3d29ec00a8f1918dE.llvm.5539410299314833742', symObjAddr: 0x460, symBinAddr: 0x112A30, symSize: 0x50 }
  - { offsetInCU: 0x236B, offset: 0x5BEA37, size: 0x8, addend: 0x0, symName: '__ZN4core3ptr108drop_in_place$LT$syn..punctuated..Punctuated$LT$syn..expr..GenericMethodArgument$C$syn..token..Comma$GT$$GT$17h92cbabe4862b2183E', symObjAddr: 0x4B0, symBinAddr: 0x112A80, symSize: 0x150 }
  - { offsetInCU: 0x28C4, offset: 0x5BEF90, size: 0x8, addend: 0x0, symName: '__ZN4core3ptr34drop_in_place$LT$syn..lit..Lit$GT$17hbe1efe749a08dd9aE', symObjAddr: 0x600, symBinAddr: 0x112BD0, symSize: 0x110 }
  - { offsetInCU: 0x2DB2, offset: 0x5BF47E, size: 0x8, addend: 0x0, symName: '__ZN4core3ptr34drop_in_place$LT$syn..pat..Pat$GT$17h3201f642e43ac2a2E', symObjAddr: 0x710, symBinAddr: 0x112CE0, symSize: 0x1050 }
  - { offsetInCU: 0x682B, offset: 0x5C2EF7, size: 0x8, addend: 0x0, symName: '__ZN4core3ptr34drop_in_place$LT$syn..ty..Type$GT$17hfb5d159a08190130E.llvm.5539410299314833742', symObjAddr: 0x1760, symBinAddr: 0x113D30, symSize: 0x6F0 }
  - { offsetInCU: 0x8727, offset: 0x5C4DF3, size: 0x8, addend: 0x0, symName: '__ZN4core3ptr36drop_in_place$LT$syn..expr..Expr$GT$17hf1921d1b09462bc3E', symObjAddr: 0x1E50, symBinAddr: 0x114420, symSize: 0x31D0 }
  - { offsetInCU: 0x12CB0, offset: 0x5CF37C, size: 0x8, addend: 0x0, symName: '__ZN4core3ptr36drop_in_place$LT$syn..mac..Macro$GT$17h205613d7ad575f72E', symObjAddr: 0x5020, symBinAddr: 0x1175F0, symSize: 0xE0 }
  - { offsetInCU: 0x12FDD, offset: 0x5CF6A9, size: 0x8, addend: 0x0, symName: '__ZN4core3ptr36drop_in_place$LT$syn..path..Path$GT$17he6d0bec66d66b98aE.llvm.5539410299314833742', symObjAddr: 0x5100, symBinAddr: 0x1176D0, symSize: 0x120 }
  - { offsetInCU: 0x13445, offset: 0x5CFB11, size: 0x8, addend: 0x0, symName: '__ZN4core3ptr37drop_in_place$LT$syn..stmt..Block$GT$17h3aa429e75a234230E', symObjAddr: 0x53B0, symBinAddr: 0x1177F0, symSize: 0xD0 }
  - { offsetInCU: 0x1371C, offset: 0x5CFDE8, size: 0x8, addend: 0x0, symName: '__ZN4core3ptr39drop_in_place$LT$proc_macro2..Ident$GT$17hdeec010483268a0dE', symObjAddr: 0x5480, symBinAddr: 0x1178C0, symSize: 0x30 }
  - { offsetInCU: 0x137F9, offset: 0x5CFEC5, size: 0x8, addend: 0x0, symName: '__ZN4core3ptr39drop_in_place$LT$syn..pat..PatTuple$GT$17h96faeea9832d4c4bE', symObjAddr: 0x54B0, symBinAddr: 0x1178F0, symSize: 0x100 }
  - { offsetInCU: 0x13B02, offset: 0x5D01CE, size: 0x8, addend: 0x0, symName: '__ZN4core3ptr40drop_in_place$LT$syn..ty..ReturnType$GT$17h6f97c9fdb958983eE', symObjAddr: 0x55B0, symBinAddr: 0x1179F0, symSize: 0x50 }
  - { offsetInCU: 0x13C72, offset: 0x5D033E, size: 0x8, addend: 0x0, symName: '__ZN4core3ptr41drop_in_place$LT$syn..attr..Attribute$GT$17h01ed88f7d2878bfcE.llvm.5539410299314833742', symObjAddr: 0x5600, symBinAddr: 0x117A40, symSize: 0x40 }
  - { offsetInCU: 0x13DC5, offset: 0x5D0491, size: 0x8, addend: 0x0, symName: '__ZN4core3ptr43drop_in_place$LT$proc_macro2..TokenTree$GT$17h7270f34cee6d919dE.llvm.5539410299314833742', symObjAddr: 0x56A0, symBinAddr: 0x117A80, symSize: 0xB0 }
  - { offsetInCU: 0x141DA, offset: 0x5D08A6, size: 0x8, addend: 0x0, symName: '__ZN4core3ptr43drop_in_place$LT$syn..path..PathSegment$GT$17h3d0f44137dd31bf9E.llvm.5539410299314833742', symObjAddr: 0x5750, symBinAddr: 0x117B30, symSize: 0x170 }
  - { offsetInCU: 0x1473A, offset: 0x5D0E06, size: 0x8, addend: 0x0, symName: '__ZN4core3ptr44drop_in_place$LT$syn..lifetime..Lifetime$GT$17h3858225df033648aE', symObjAddr: 0x58C0, symBinAddr: 0x117CA0, symSize: 0x30 }
  - { offsetInCU: 0x148D1, offset: 0x5D0F9D, size: 0x8, addend: 0x0, symName: '__ZN4core3ptr45drop_in_place$LT$proc_macro2..TokenStream$GT$17h2507cb30e765dc85E.llvm.5539410299314833742', symObjAddr: 0x58F0, symBinAddr: 0x117CD0, symSize: 0x140 }
  - { offsetInCU: 0x14D6B, offset: 0x5D1437, size: 0x8, addend: 0x0, symName: '__ZN4core3ptr47drop_in_place$LT$syn..path..GenericArgument$GT$17h8c0a0d8c6deaefb4E.llvm.5539410299314833742', symObjAddr: 0x5A50, symBinAddr: 0x117E10, symSize: 0x180 }
  - { offsetInCU: 0x15318, offset: 0x5D19E4, size: 0x8, addend: 0x0, symName: '__ZN4core3ptr50drop_in_place$LT$syn..generics..TypeParamBound$GT$17h8d9a306b4a7f920fE.llvm.5539410299314833742', symObjAddr: 0x5BD0, symBinAddr: 0x117F90, symSize: 0x150 }
  - { offsetInCU: 0x1572E, offset: 0x5D1DFA, size: 0x8, addend: 0x0, symName: '__ZN4core3ptr58drop_in_place$LT$alloc..vec..Vec$LT$syn..expr..Arm$GT$$GT$17hf3db0825f3d9c861E', symObjAddr: 0x5D20, symBinAddr: 0x1180E0, symSize: 0xD0 }
  - { offsetInCU: 0x159EE, offset: 0x5D20BA, size: 0x8, addend: 0x0, symName: '__ZN4core3ptr59drop_in_place$LT$alloc..boxed..Box$LT$syn..pat..Pat$GT$$GT$17h7037ce9bbd3729c6E', symObjAddr: 0x5DF0, symBinAddr: 0x1181B0, symSize: 0x50 }
  - { offsetInCU: 0x15B47, offset: 0x5D2213, size: 0x8, addend: 0x0, symName: '__ZN4core3ptr59drop_in_place$LT$alloc..boxed..Box$LT$syn..ty..Type$GT$$GT$17h2eccd13329dbe4faE.llvm.5539410299314833742', symObjAddr: 0x5E40, symBinAddr: 0x118200, symSize: 0x50 }
  - { offsetInCU: 0x15CA0, offset: 0x5D236C, size: 0x8, addend: 0x0, symName: '__ZN4core3ptr61drop_in_place$LT$alloc..boxed..Box$LT$syn..expr..Expr$GT$$GT$17h66094ddc89015516E', symObjAddr: 0x5E90, symBinAddr: 0x118250, symSize: 0x50 }
  - { offsetInCU: 0x15DF9, offset: 0x5D24C5, size: 0x8, addend: 0x0, symName: '__ZN4core3ptr61drop_in_place$LT$syn..path..ParenthesizedGenericArguments$GT$17h21be9b1d7a6fab55E.llvm.5539410299314833742', symObjAddr: 0x5EE0, symBinAddr: 0x1182A0, symSize: 0x170 }
  - { offsetInCU: 0x16402, offset: 0x5D2ACE, size: 0x8, addend: 0x0, symName: '__ZN4core3ptr63drop_in_place$LT$alloc..boxed..Box$LT$syn..lit..LitRepr$GT$$GT$17h9c509b794406150eE', symObjAddr: 0x6050, symBinAddr: 0x118410, symSize: 0x60 }
  - { offsetInCU: 0x16709, offset: 0x5D2DD5, size: 0x8, addend: 0x0, symName: '__ZN4core3ptr64drop_in_place$LT$alloc..boxed..Box$LT$syn..pat..FieldPat$GT$$GT$17hb167b355d0d4733fE', symObjAddr: 0x60B0, symBinAddr: 0x118470, symSize: 0x180 }
  - { offsetInCU: 0x16E26, offset: 0x5D34F2, size: 0x8, addend: 0x0, symName: '__ZN4core3ptr64drop_in_place$LT$alloc..boxed..Box$LT$syn..ty..BareFnArg$GT$$GT$17h6488be9448346678E', symObjAddr: 0x6230, symBinAddr: 0x1185F0, symSize: 0x160 }
  - { offsetInCU: 0x173BC, offset: 0x5D3A88, size: 0x8, addend: 0x0, symName: '__ZN4core3ptr65drop_in_place$LT$alloc..vec..Vec$LT$proc_macro..TokenTree$GT$$GT$17hc3670dd5608d5259E.llvm.5539410299314833742', symObjAddr: 0x6390, symBinAddr: 0x118750, symSize: 0x110 }
  - { offsetInCU: 0x177B4, offset: 0x5D3E80, size: 0x8, addend: 0x0, symName: '__ZN4core3ptr65drop_in_place$LT$core..option..Option$LT$syn..expr..Label$GT$$GT$17ha723640fd01bec5dE', symObjAddr: 0x64A0, symBinAddr: 0x118860, symSize: 0x30 }
  - { offsetInCU: 0x178EE, offset: 0x5D3FBA, size: 0x8, addend: 0x0, symName: '__ZN4core3ptr66drop_in_place$LT$core..option..Option$LT$syn..ty..Variadic$GT$$GT$17hc32134bb3933b0dfE', symObjAddr: 0x64D0, symBinAddr: 0x118890, symSize: 0xF0 }
  - { offsetInCU: 0x17C18, offset: 0x5D42E4, size: 0x8, addend: 0x0, symName: '__ZN4core3ptr67drop_in_place$LT$alloc..boxed..Box$LT$syn..expr..FieldValue$GT$$GT$17h8df780aa600ea8c2E', symObjAddr: 0x65C0, symBinAddr: 0x118980, symSize: 0x160 }
  - { offsetInCU: 0x1818E, offset: 0x5D485A, size: 0x8, addend: 0x0, symName: '__ZN4core3ptr67drop_in_place$LT$core..option..Option$LT$proc_macro2..Ident$GT$$GT$17h67578850954384a1E.llvm.5539410299314833742', symObjAddr: 0x6720, symBinAddr: 0x118AE0, symSize: 0x30 }
  - { offsetInCU: 0x1828A, offset: 0x5D4956, size: 0x8, addend: 0x0, symName: '__ZN4core3ptr72drop_in_place$LT$core..option..Option$LT$syn..lifetime..Lifetime$GT$$GT$17h31b55b93749c174dE', symObjAddr: 0x6750, symBinAddr: 0x118B10, symSize: 0x30 }
  - { offsetInCU: 0x183C4, offset: 0x5D4A90, size: 0x8, addend: 0x0, symName: '__ZN4core3ptr75drop_in_place$LT$alloc..boxed..Box$LT$syn..generics..TypeParamBound$GT$$GT$17h8f156ce07ea0b8b2E', symObjAddr: 0x6780, symBinAddr: 0x118B40, symSize: 0x90 }
  - { offsetInCU: 0x18660, offset: 0x5D4D2C, size: 0x8, addend: 0x0, symName: '__ZN4core3ptr78drop_in_place$LT$alloc..boxed..Box$LT$syn..expr..GenericMethodArgument$GT$$GT$17h3384c00b5bd54c2aE', symObjAddr: 0x6810, symBinAddr: 0x118BD0, symSize: 0x60 }
  - { offsetInCU: 0x18852, offset: 0x5D4F1E, size: 0x8, addend: 0x0, symName: '__ZN4core3ptr78drop_in_place$LT$core..option..Option$LT$syn..generics..BoundLifetimes$GT$$GT$17h8175e66ad0c4a156E.llvm.5539410299314833742', symObjAddr: 0x6870, symBinAddr: 0x118C30, symSize: 0xE0 }
  - { offsetInCU: 0x18BCF, offset: 0x5D529B, size: 0x8, addend: 0x0, symName: '__ZN4core3ptr86drop_in_place$LT$syn..punctuated..Punctuated$LT$syn..pat..Pat$C$syn..token..Or$GT$$GT$17h1078c5d178d382b7E', symObjAddr: 0x6950, symBinAddr: 0x118D10, symSize: 0x120 }
  - { offsetInCU: 0x1904A, offset: 0x5D5716, size: 0x8, addend: 0x0, symName: '__ZN4core3ptr87drop_in_place$LT$core..option..Option$LT$alloc..boxed..Box$LT$syn..pat..Pat$GT$$GT$$GT$17ha7f5fe0e6f73e820E', symObjAddr: 0x6A70, symBinAddr: 0x118E30, symSize: 0x50 }
  - { offsetInCU: 0x191BA, offset: 0x5D5886, size: 0x8, addend: 0x0, symName: '__ZN4core3ptr87drop_in_place$LT$core..option..Option$LT$alloc..boxed..Box$LT$syn..ty..Type$GT$$GT$$GT$17hc8292da82d129de3E.llvm.5539410299314833742', symObjAddr: 0x6AC0, symBinAddr: 0x118E80, symSize: 0x50 }
  - { offsetInCU: 0x1932A, offset: 0x5D59F6, size: 0x8, addend: 0x0, symName: '__ZN4core3ptr89drop_in_place$LT$core..option..Option$LT$alloc..boxed..Box$LT$syn..expr..Expr$GT$$GT$$GT$17hdc211ccd33f196f2E', symObjAddr: 0x6B10, symBinAddr: 0x118ED0, symSize: 0x50 }
  - { offsetInCU: 0x194D8, offset: 0x5D5BA4, size: 0x8, addend: 0x0, symName: '__ZN4core3ptr89drop_in_place$LT$syn..punctuated..Punctuated$LT$syn..pat..Pat$C$syn..token..Comma$GT$$GT$17hf8371102b0500adcE', symObjAddr: 0x6B60, symBinAddr: 0x118F20, symSize: 0x120 }
  - { offsetInCU: 0x199A8, offset: 0x5D6074, size: 0x8, addend: 0x0, symName: '__ZN4core3ptr91drop_in_place$LT$syn..punctuated..Punctuated$LT$syn..expr..Expr$C$syn..token..Comma$GT$$GT$17hd2dfeb0c522d9a18E', symObjAddr: 0x6C80, symBinAddr: 0x119040, symSize: 0x120 }
  - { offsetInCU: 0x19E36, offset: 0x5D6502, size: 0x8, addend: 0x0, symName: '__ZN4core3ptr94drop_in_place$LT$syn..punctuated..Punctuated$LT$syn..pat..FieldPat$C$syn..token..Comma$GT$$GT$17h612cbc9066d5afb1E', symObjAddr: 0x6DA0, symBinAddr: 0x119160, symSize: 0xF0 }
  - { offsetInCU: 0x1A135, offset: 0x5D6801, size: 0x8, addend: 0x0, symName: '__ZN4core3ptr94drop_in_place$LT$syn..punctuated..Punctuated$LT$syn..ty..BareFnArg$C$syn..token..Comma$GT$$GT$17ha9a668ce9972795bE', symObjAddr: 0x6E90, symBinAddr: 0x119250, symSize: 0xF0 }
  - { offsetInCU: 0x1A451, offset: 0x5D6B1D, size: 0x8, addend: 0x0, symName: '__ZN4core3ptr96drop_in_place$LT$core..option..Option$LT$alloc..boxed..Box$LT$syn..path..PathSegment$GT$$GT$$GT$17h2e81cbe3c70bb71cE.llvm.5539410299314833742', symObjAddr: 0x6F80, symBinAddr: 0x119340, symSize: 0x180 }
  - { offsetInCU: 0x1AB0E, offset: 0x5D71DA, size: 0x8, addend: 0x0, symName: '__ZN4core3ptr97drop_in_place$LT$syn..punctuated..Punctuated$LT$syn..expr..FieldValue$C$syn..token..Comma$GT$$GT$17h11a5fffb46adfb11E', symObjAddr: 0x7100, symBinAddr: 0x1194C0, symSize: 0xF0 }
  - { offsetInCU: 0x1AE87, offset: 0x5D7553, size: 0x8, addend: 0x0, symName: '__ZN4core3ptr97drop_in_place$LT$syn..punctuated..Punctuated$LT$syn..lifetime..Lifetime$C$syn..token..Add$GT$$GT$17h5c54dea2c838d109E', symObjAddr: 0x71F0, symBinAddr: 0x1195B0, symSize: 0xD0 }
  - { offsetInCU: 0x234B4, offset: 0x5DFB80, size: 0x8, addend: 0x0, symName: '__ZN86_$LT$alloc..vec..into_iter..IntoIter$LT$T$C$A$GT$$u20$as$u20$core..ops..drop..Drop$GT$4drop17h11bc08bc49f7810eE', symObjAddr: 0x7320, symBinAddr: 0x119680, symSize: 0xF0 }
  - { offsetInCU: 0x23856, offset: 0x5DFF22, size: 0x8, addend: 0x0, symName: '__ZN86_$LT$alloc..vec..into_iter..IntoIter$LT$T$C$A$GT$$u20$as$u20$core..ops..drop..Drop$GT$4drop17h3c357520dc8d6789E', symObjAddr: 0x7410, symBinAddr: 0x119770, symSize: 0xD0 }
  - { offsetInCU: 0x23BC0, offset: 0x5E028C, size: 0x8, addend: 0x0, symName: '__ZN86_$LT$alloc..vec..into_iter..IntoIter$LT$T$C$A$GT$$u20$as$u20$core..ops..drop..Drop$GT$4drop17h43f62c752ac03c36E', symObjAddr: 0x74E0, symBinAddr: 0x119840, symSize: 0x100 }
  - { offsetInCU: 0x23F3A, offset: 0x5E0606, size: 0x8, addend: 0x0, symName: '__ZN86_$LT$alloc..vec..into_iter..IntoIter$LT$T$C$A$GT$$u20$as$u20$core..ops..drop..Drop$GT$4drop17h60e73cb3840cb4a3E', symObjAddr: 0x75E0, symBinAddr: 0x119940, symSize: 0xE0 }
  - { offsetInCU: 0x242D8, offset: 0x5E09A4, size: 0x8, addend: 0x0, symName: '__ZN86_$LT$alloc..vec..into_iter..IntoIter$LT$T$C$A$GT$$u20$as$u20$core..ops..drop..Drop$GT$4drop17h87ac47382475d54dE', symObjAddr: 0x76C0, symBinAddr: 0x119A20, symSize: 0x110 }
  - { offsetInCU: 0x246CE, offset: 0x5E0D9A, size: 0x8, addend: 0x0, symName: '__ZN86_$LT$alloc..vec..into_iter..IntoIter$LT$T$C$A$GT$$u20$as$u20$core..ops..drop..Drop$GT$4drop17hdf8af3d780f4dc35E', symObjAddr: 0x7950, symBinAddr: 0x119B30, symSize: 0xE0 }
  - { offsetInCU: 0x1E, offset: 0x5E5DE3, size: 0x8, addend: 0x0, symName: '__ZN4core3ptr100drop_in_place$LT$core..option..Option$LT$alloc..boxed..Box$LT$syn..generics..LifetimeDef$GT$$GT$$GT$17h75a6086997697dd7E', symObjAddr: 0x0, symBinAddr: 0x119C10, symSize: 0x50 }
  - { offsetInCU: 0x972, offset: 0x5E6737, size: 0x8, addend: 0x0, symName: '__ZN3syn6derive7parsing72_$LT$impl$u20$syn..parse..Parse$u20$for$u20$syn..derive..DeriveInput$GT$5parse17h558b9d158392e7caE', symObjAddr: 0x8600, symBinAddr: 0x121780, symSize: 0x1260 }
  - { offsetInCU: 0x8DF8, offset: 0x5EEBBD, size: 0x8, addend: 0x0, symName: '__ZN4core3ptr100drop_in_place$LT$core..option..Option$LT$alloc..boxed..Box$LT$syn..generics..LifetimeDef$GT$$GT$$GT$17h75a6086997697dd7E', symObjAddr: 0x0, symBinAddr: 0x119C10, symSize: 0x50 }
  - { offsetInCU: 0x8F7A, offset: 0x5EED3F, size: 0x8, addend: 0x0, symName: '__ZN4core3ptr100drop_in_place$LT$core..option..Option$LT$alloc..boxed..Box$LT$syn..path..GenericArgument$GT$$GT$$GT$17h3d29ec00a8f1918dE', symObjAddr: 0x50, symBinAddr: 0x119C60, symSize: 0x50 }
  - { offsetInCU: 0x925E, offset: 0x5EF023, size: 0x8, addend: 0x0, symName: '__ZN4core3ptr101drop_in_place$LT$core..option..Option$LT$alloc..boxed..Box$LT$syn..generics..GenericParam$GT$$GT$$GT$17h1fee4f1c7bd902c4E', symObjAddr: 0xA0, symBinAddr: 0x119CB0, symSize: 0x310 }
  - { offsetInCU: 0x9C5B, offset: 0x5EFA20, size: 0x8, addend: 0x0, symName: '__ZN4core3ptr103drop_in_place$LT$core..option..Option$LT$alloc..boxed..Box$LT$syn..generics..TypeParamBound$GT$$GT$$GT$17h6cee73bc2b2ecea8E', symObjAddr: 0x3B0, symBinAddr: 0x119FC0, symSize: 0x90 }
  - { offsetInCU: 0x9F92, offset: 0x5EFD57, size: 0x8, addend: 0x0, symName: '__ZN4core3ptr103drop_in_place$LT$core..option..Option$LT$alloc..boxed..Box$LT$syn..generics..WherePredicate$GT$$GT$$GT$17headad361972eced7E', symObjAddr: 0x440, symBinAddr: 0x11A050, symSize: 0x120 }
  - { offsetInCU: 0xA347, offset: 0x5F010C, size: 0x8, addend: 0x0, symName: '__ZN4core3ptr103drop_in_place$LT$syn..punctuated..Punctuated$LT$syn..generics..TypeParamBound$C$syn..token..Add$GT$$GT$17he811d520c92af08aE', symObjAddr: 0x560, symBinAddr: 0x11A170, symSize: 0x1C0 }
  - { offsetInCU: 0xAB98, offset: 0x5F095D, size: 0x8, addend: 0x0, symName: '__ZN4core3ptr108drop_in_place$LT$syn..punctuated..Punctuated$LT$syn..expr..GenericMethodArgument$C$syn..token..Comma$GT$$GT$17h92cbabe4862b2183E', symObjAddr: 0x720, symBinAddr: 0x11A330, symSize: 0x150 }
  - { offsetInCU: 0xB0F1, offset: 0x5F0EB6, size: 0x8, addend: 0x0, symName: '__ZN4core3ptr34drop_in_place$LT$syn..lit..Lit$GT$17hbe1efe749a08dd9aE', symObjAddr: 0x870, symBinAddr: 0x11A480, symSize: 0x110 }
  - { offsetInCU: 0xB563, offset: 0x5F1328, size: 0x8, addend: 0x0, symName: '__ZN4core3ptr34drop_in_place$LT$syn..pat..Pat$GT$17h3201f642e43ac2a2E', symObjAddr: 0x980, symBinAddr: 0x11A590, symSize: 0x1190 }
  - { offsetInCU: 0xF47B, offset: 0x5F5240, size: 0x8, addend: 0x0, symName: '__ZN4core3ptr34drop_in_place$LT$syn..ty..Type$GT$17hfb5d159a08190130E', symObjAddr: 0x1B10, symBinAddr: 0x11B720, symSize: 0x580 }
  - { offsetInCU: 0x10D8C, offset: 0x5F6B51, size: 0x8, addend: 0x0, symName: '__ZN4core3ptr36drop_in_place$LT$syn..expr..Expr$GT$17hf1921d1b09462bc3E', symObjAddr: 0x2090, symBinAddr: 0x11BCA0, symSize: 0x3290 }
  - { offsetInCU: 0x1B61D, offset: 0x6013E2, size: 0x8, addend: 0x0, symName: '__ZN4core3ptr36drop_in_place$LT$syn..mac..Macro$GT$17h205613d7ad575f72E', symObjAddr: 0x5320, symBinAddr: 0x11EF30, symSize: 0x40 }
  - { offsetInCU: 0x1B76E, offset: 0x601533, size: 0x8, addend: 0x0, symName: '__ZN4core3ptr36drop_in_place$LT$syn..path..Path$GT$17he6d0bec66d66b98aE', symObjAddr: 0x5360, symBinAddr: 0x11EF70, symSize: 0x230 }
  - { offsetInCU: 0x1C104, offset: 0x601EC9, size: 0x8, addend: 0x0, symName: '__ZN4core3ptr37drop_in_place$LT$syn..stmt..Block$GT$17h3aa429e75a234230E', symObjAddr: 0x5590, symBinAddr: 0x11F1A0, symSize: 0xD0 }
  - { offsetInCU: 0x1C3DB, offset: 0x6021A0, size: 0x8, addend: 0x0, symName: '__ZN4core3ptr38drop_in_place$LT$syn..expr..Member$GT$17ha113d37a67d27aafE', symObjAddr: 0x59A0, symBinAddr: 0x11F270, symSize: 0x30 }
  - { offsetInCU: 0x1C4D7, offset: 0x60229C, size: 0x8, addend: 0x0, symName: '__ZN4core3ptr39drop_in_place$LT$proc_macro2..Ident$GT$17hdeec010483268a0dE', symObjAddr: 0x59D0, symBinAddr: 0x11F2A0, symSize: 0x30 }
  - { offsetInCU: 0x1C5B4, offset: 0x602379, size: 0x8, addend: 0x0, symName: '__ZN4core3ptr39drop_in_place$LT$syn..pat..PatTuple$GT$17h96faeea9832d4c4bE', symObjAddr: 0x5A00, symBinAddr: 0x11F2D0, symSize: 0x100 }
  - { offsetInCU: 0x1C8BD, offset: 0x602682, size: 0x8, addend: 0x0, symName: '__ZN4core3ptr40drop_in_place$LT$syn..ty..ReturnType$GT$17h6f97c9fdb958983eE', symObjAddr: 0x5B00, symBinAddr: 0x11F3D0, symSize: 0x50 }
  - { offsetInCU: 0x1CA6B, offset: 0x602830, size: 0x8, addend: 0x0, symName: '__ZN4core3ptr42drop_in_place$LT$syn..data..Visibility$GT$17h27e8b6ad307fcbc7E', symObjAddr: 0x5B50, symBinAddr: 0x11F420, symSize: 0x60 }
  - { offsetInCU: 0x1CC3D, offset: 0x602A02, size: 0x8, addend: 0x0, symName: '__ZN4core3ptr44drop_in_place$LT$syn..generics..Generics$GT$17he0d6eb6045503c84E', symObjAddr: 0x5E60, symBinAddr: 0x11F480, symSize: 0xA0 }
  - { offsetInCU: 0x1CEA9, offset: 0x602C6E, size: 0x8, addend: 0x0, symName: '__ZN4core3ptr44drop_in_place$LT$syn..lifetime..Lifetime$GT$17h3858225df033648aE', symObjAddr: 0x5F00, symBinAddr: 0x11F520, symSize: 0x30 }
  - { offsetInCU: 0x1D0DB, offset: 0x602EA0, size: 0x8, addend: 0x0, symName: '__ZN4core3ptr45drop_in_place$LT$proc_macro2..TokenStream$GT$17h2507cb30e765dc85E', symObjAddr: 0x5F30, symBinAddr: 0x11F550, symSize: 0x140 }
  - { offsetInCU: 0x1D537, offset: 0x6032FC, size: 0x8, addend: 0x0, symName: '__ZN4core3ptr47drop_in_place$LT$syn..generics..LifetimeDef$GT$17hd04bc9e6ed9dfb47E', symObjAddr: 0x6070, symBinAddr: 0x11F690, symSize: 0x120 }
  - { offsetInCU: 0x1D992, offset: 0x603757, size: 0x8, addend: 0x0, symName: '__ZN4core3ptr47drop_in_place$LT$syn..path..GenericArgument$GT$17h8c0a0d8c6deaefb4E', symObjAddr: 0x6190, symBinAddr: 0x11F7B0, symSize: 0x110 }
  - { offsetInCU: 0x1DCAD, offset: 0x603A72, size: 0x8, addend: 0x0, symName: '__ZN4core3ptr58drop_in_place$LT$alloc..vec..Vec$LT$syn..expr..Arm$GT$$GT$17hf3db0825f3d9c861E', symObjAddr: 0x62A0, symBinAddr: 0x11F8C0, symSize: 0xD0 }
  - { offsetInCU: 0x1DF6D, offset: 0x603D32, size: 0x8, addend: 0x0, symName: '__ZN4core3ptr59drop_in_place$LT$alloc..boxed..Box$LT$syn..pat..Pat$GT$$GT$17h7037ce9bbd3729c6E', symObjAddr: 0x6370, symBinAddr: 0x11F990, symSize: 0x50 }
  - { offsetInCU: 0x1E0C6, offset: 0x603E8B, size: 0x8, addend: 0x0, symName: '__ZN4core3ptr59drop_in_place$LT$alloc..boxed..Box$LT$syn..ty..Type$GT$$GT$17h2eccd13329dbe4faE', symObjAddr: 0x63C0, symBinAddr: 0x11F9E0, symSize: 0x50 }
  - { offsetInCU: 0x1E21F, offset: 0x603FE4, size: 0x8, addend: 0x0, symName: '__ZN4core3ptr61drop_in_place$LT$alloc..boxed..Box$LT$syn..expr..Expr$GT$$GT$17h66094ddc89015516E', symObjAddr: 0x6410, symBinAddr: 0x11FA30, symSize: 0x50 }
  - { offsetInCU: 0x1E3F4, offset: 0x6041B9, size: 0x8, addend: 0x0, symName: '__ZN4core3ptr61drop_in_place$LT$syn..path..ParenthesizedGenericArguments$GT$17h21be9b1d7a6fab55E', symObjAddr: 0x6460, symBinAddr: 0x11FA80, symSize: 0x170 }
  - { offsetInCU: 0x1E9EA, offset: 0x6047AF, size: 0x8, addend: 0x0, symName: '__ZN4core3ptr63drop_in_place$LT$alloc..boxed..Box$LT$syn..lit..LitRepr$GT$$GT$17h9c509b794406150eE', symObjAddr: 0x65D0, symBinAddr: 0x11FBF0, symSize: 0x60 }
  - { offsetInCU: 0x1ECF1, offset: 0x604AB6, size: 0x8, addend: 0x0, symName: '__ZN4core3ptr64drop_in_place$LT$alloc..boxed..Box$LT$syn..pat..FieldPat$GT$$GT$17hb167b355d0d4733fE', symObjAddr: 0x6630, symBinAddr: 0x11FC50, symSize: 0x180 }
  - { offsetInCU: 0x1F40E, offset: 0x6051D3, size: 0x8, addend: 0x0, symName: '__ZN4core3ptr64drop_in_place$LT$alloc..boxed..Box$LT$syn..ty..BareFnArg$GT$$GT$17h6488be9448346678E', symObjAddr: 0x67B0, symBinAddr: 0x11FDD0, symSize: 0x160 }
  - { offsetInCU: 0x1F9A4, offset: 0x605769, size: 0x8, addend: 0x0, symName: '__ZN4core3ptr64drop_in_place$LT$alloc..vec..Vec$LT$syn..attr..Attribute$GT$$GT$17h386324d8ea9bc309E', symObjAddr: 0x6910, symBinAddr: 0x11FF30, symSize: 0xF0 }
  - { offsetInCU: 0x1FC9A, offset: 0x605A5F, size: 0x8, addend: 0x0, symName: '__ZN4core3ptr65drop_in_place$LT$alloc..vec..Vec$LT$proc_macro..TokenTree$GT$$GT$17hc3670dd5608d5259E', symObjAddr: 0x6A00, symBinAddr: 0x120020, symSize: 0x110 }
  - { offsetInCU: 0x20092, offset: 0x605E57, size: 0x8, addend: 0x0, symName: '__ZN4core3ptr65drop_in_place$LT$core..option..Option$LT$syn..expr..Label$GT$$GT$17ha723640fd01bec5dE', symObjAddr: 0x6B10, symBinAddr: 0x120130, symSize: 0x30 }
  - { offsetInCU: 0x201CC, offset: 0x605F91, size: 0x8, addend: 0x0, symName: '__ZN4core3ptr66drop_in_place$LT$core..option..Option$LT$syn..ty..Variadic$GT$$GT$17hc32134bb3933b0dfE', symObjAddr: 0x6B40, symBinAddr: 0x120160, symSize: 0xF0 }
  - { offsetInCU: 0x204F6, offset: 0x6062BB, size: 0x8, addend: 0x0, symName: '__ZN4core3ptr67drop_in_place$LT$alloc..boxed..Box$LT$syn..expr..FieldValue$GT$$GT$17h8df780aa600ea8c2E', symObjAddr: 0x6C30, symBinAddr: 0x120250, symSize: 0x160 }
  - { offsetInCU: 0x20A8B, offset: 0x606850, size: 0x8, addend: 0x0, symName: '__ZN4core3ptr68drop_in_place$LT$alloc..boxed..Box$LT$syn..path..PathSegment$GT$$GT$17h1957b54eed39c0bbE', symObjAddr: 0x6D90, symBinAddr: 0x1203B0, symSize: 0x190 }
  - { offsetInCU: 0x211B4, offset: 0x606F79, size: 0x8, addend: 0x0, symName: '__ZN4core3ptr72drop_in_place$LT$alloc..boxed..Box$LT$syn..path..GenericArgument$GT$$GT$17ha8f8136d0c2b505bE', symObjAddr: 0x6F20, symBinAddr: 0x120540, symSize: 0x180 }
  - { offsetInCU: 0x21854, offset: 0x607619, size: 0x8, addend: 0x0, symName: '__ZN4core3ptr72drop_in_place$LT$core..option..Option$LT$syn..lifetime..Lifetime$GT$$GT$17h31b55b93749c174dE', symObjAddr: 0x70A0, symBinAddr: 0x1206C0, symSize: 0x30 }
  - { offsetInCU: 0x2196F, offset: 0x607734, size: 0x8, addend: 0x0, symName: '__ZN4core3ptr75drop_in_place$LT$alloc..boxed..Box$LT$syn..generics..TypeParamBound$GT$$GT$17h8f156ce07ea0b8b2E', symObjAddr: 0x70D0, symBinAddr: 0x1206F0, symSize: 0x140 }
  - { offsetInCU: 0x21F46, offset: 0x607D0B, size: 0x8, addend: 0x0, symName: '__ZN4core3ptr75drop_in_place$LT$core..option..Option$LT$syn..generics..WhereClause$GT$$GT$17h9a6b9b305741da86E', symObjAddr: 0x7210, symBinAddr: 0x120830, symSize: 0xF0 }
  - { offsetInCU: 0x22268, offset: 0x60802D, size: 0x8, addend: 0x0, symName: '__ZN4core3ptr78drop_in_place$LT$alloc..boxed..Box$LT$syn..expr..GenericMethodArgument$GT$$GT$17h3384c00b5bd54c2aE', symObjAddr: 0x7300, symBinAddr: 0x120920, symSize: 0x60 }
  - { offsetInCU: 0x22479, offset: 0x60823E, size: 0x8, addend: 0x0, symName: '__ZN4core3ptr78drop_in_place$LT$core..option..Option$LT$syn..generics..BoundLifetimes$GT$$GT$17h8175e66ad0c4a156E', symObjAddr: 0x7360, symBinAddr: 0x120980, symSize: 0x120 }
  - { offsetInCU: 0x2293E, offset: 0x608703, size: 0x8, addend: 0x0, symName: '__ZN4core3ptr86drop_in_place$LT$syn..punctuated..Punctuated$LT$syn..pat..Pat$C$syn..token..Or$GT$$GT$17h1078c5d178d382b7E', symObjAddr: 0x7480, symBinAddr: 0x120AA0, symSize: 0x120 }
  - { offsetInCU: 0x22DB9, offset: 0x608B7E, size: 0x8, addend: 0x0, symName: '__ZN4core3ptr87drop_in_place$LT$core..option..Option$LT$alloc..boxed..Box$LT$syn..pat..Pat$GT$$GT$$GT$17ha7f5fe0e6f73e820E', symObjAddr: 0x75A0, symBinAddr: 0x120BC0, symSize: 0x50 }
  - { offsetInCU: 0x22F29, offset: 0x608CEE, size: 0x8, addend: 0x0, symName: '__ZN4core3ptr87drop_in_place$LT$core..option..Option$LT$alloc..boxed..Box$LT$syn..ty..Type$GT$$GT$$GT$17hc8292da82d129de3E', symObjAddr: 0x75F0, symBinAddr: 0x120C10, symSize: 0x50 }
  - { offsetInCU: 0x23099, offset: 0x608E5E, size: 0x8, addend: 0x0, symName: '__ZN4core3ptr89drop_in_place$LT$core..option..Option$LT$alloc..boxed..Box$LT$syn..expr..Expr$GT$$GT$$GT$17hdc211ccd33f196f2E', symObjAddr: 0x7640, symBinAddr: 0x120C60, symSize: 0x50 }
  - { offsetInCU: 0x23247, offset: 0x60900C, size: 0x8, addend: 0x0, symName: '__ZN4core3ptr89drop_in_place$LT$syn..punctuated..Punctuated$LT$syn..pat..Pat$C$syn..token..Comma$GT$$GT$17hf8371102b0500adcE', symObjAddr: 0x7690, symBinAddr: 0x120CB0, symSize: 0x120 }
  - { offsetInCU: 0x236D9, offset: 0x60949E, size: 0x8, addend: 0x0, symName: '__ZN4core3ptr89drop_in_place$LT$syn..punctuated..Punctuated$LT$syn..ty..Type$C$syn..token..Comma$GT$$GT$17h1c6e43341fabea97E', symObjAddr: 0x77B0, symBinAddr: 0x120DD0, symSize: 0x120 }
  - { offsetInCU: 0x23BB1, offset: 0x609976, size: 0x8, addend: 0x0, symName: '__ZN4core3ptr91drop_in_place$LT$syn..punctuated..Punctuated$LT$syn..expr..Expr$C$syn..token..Comma$GT$$GT$17hd2dfeb0c522d9a18E', symObjAddr: 0x7A90, symBinAddr: 0x120EF0, symSize: 0x120 }
  - { offsetInCU: 0x2403F, offset: 0x609E04, size: 0x8, addend: 0x0, symName: '__ZN4core3ptr94drop_in_place$LT$syn..punctuated..Punctuated$LT$syn..pat..FieldPat$C$syn..token..Comma$GT$$GT$17h612cbc9066d5afb1E', symObjAddr: 0x7E30, symBinAddr: 0x121010, symSize: 0xF0 }
  - { offsetInCU: 0x2433E, offset: 0x60A103, size: 0x8, addend: 0x0, symName: '__ZN4core3ptr94drop_in_place$LT$syn..punctuated..Punctuated$LT$syn..ty..BareFnArg$C$syn..token..Comma$GT$$GT$17ha9a668ce9972795bE', symObjAddr: 0x7F20, symBinAddr: 0x121100, symSize: 0xF0 }
  - { offsetInCU: 0x2463B, offset: 0x60A400, size: 0x8, addend: 0x0, symName: '__ZN4core3ptr96drop_in_place$LT$core..option..Option$LT$alloc..boxed..Box$LT$syn..path..PathSegment$GT$$GT$$GT$17h2e81cbe3c70bb71cE', symObjAddr: 0x8010, symBinAddr: 0x1211F0, symSize: 0x180 }
  - { offsetInCU: 0x24CF8, offset: 0x60AABD, size: 0x8, addend: 0x0, symName: '__ZN4core3ptr97drop_in_place$LT$syn..punctuated..Punctuated$LT$syn..expr..FieldValue$C$syn..token..Comma$GT$$GT$17h11a5fffb46adfb11E', symObjAddr: 0x8190, symBinAddr: 0x121370, symSize: 0xF0 }
  - { offsetInCU: 0x25071, offset: 0x60AE36, size: 0x8, addend: 0x0, symName: '__ZN4core3ptr97drop_in_place$LT$syn..punctuated..Punctuated$LT$syn..lifetime..Lifetime$C$syn..token..Add$GT$$GT$17h5c54dea2c838d109E', symObjAddr: 0x8280, symBinAddr: 0x121460, symSize: 0xD0 }
  - { offsetInCU: 0x254E5, offset: 0x60B2AA, size: 0x8, addend: 0x0, symName: '__ZN4core3ptr99drop_in_place$LT$syn..punctuated..Punctuated$LT$syn..path..PathSegment$C$syn..token..Colon2$GT$$GT$17hb961e4d7989a33ceE', symObjAddr: 0x8350, symBinAddr: 0x121530, symSize: 0x250 }
  - { offsetInCU: 0x33A3, offset: 0x617D56, size: 0x8, addend: 0x0, symName: '__ZN3syn4stmt7parsing64_$LT$impl$u20$syn..parse..Parse$u20$for$u20$syn..stmt..Block$GT$5parse17hc57ace721188c289E', symObjAddr: 0xB120, symBinAddr: 0x12D850, symSize: 0x1B0 }
  - { offsetInCU: 0x3705, offset: 0x6180B8, size: 0x8, addend: 0x0, symName: '__ZN3syn4stmt8printing72_$LT$impl$u20$quote..to_tokens..ToTokens$u20$for$u20$syn..stmt..Stmt$GT$9to_tokens17h2fd6a776b1f41152E', symObjAddr: 0xB320, symBinAddr: 0x12DA00, symSize: 0x230 }
  - { offsetInCU: 0x75D5, offset: 0x61BF88, size: 0x8, addend: 0x0, symName: '__ZN4core3ptr100drop_in_place$LT$core..option..Option$LT$alloc..boxed..Box$LT$syn..generics..LifetimeDef$GT$$GT$$GT$17h75a6086997697dd7E', symObjAddr: 0x160, symBinAddr: 0x1229E0, symSize: 0x50 }
  - { offsetInCU: 0x7757, offset: 0x61C10A, size: 0x8, addend: 0x0, symName: '__ZN4core3ptr100drop_in_place$LT$core..option..Option$LT$alloc..boxed..Box$LT$syn..path..GenericArgument$GT$$GT$$GT$17h3d29ec00a8f1918dE', symObjAddr: 0x1B0, symBinAddr: 0x122A30, symSize: 0x50 }
  - { offsetInCU: 0x7A3B, offset: 0x61C3EE, size: 0x8, addend: 0x0, symName: '__ZN4core3ptr101drop_in_place$LT$core..option..Option$LT$alloc..boxed..Box$LT$syn..generics..GenericParam$GT$$GT$$GT$17h1fee4f1c7bd902c4E', symObjAddr: 0x200, symBinAddr: 0x122A80, symSize: 0x310 }
  - { offsetInCU: 0x8476, offset: 0x61CE29, size: 0x8, addend: 0x0, symName: '__ZN4core3ptr103drop_in_place$LT$core..option..Option$LT$alloc..boxed..Box$LT$syn..generics..WherePredicate$GT$$GT$$GT$17headad361972eced7E', symObjAddr: 0x510, symBinAddr: 0x122D90, symSize: 0x120 }
  - { offsetInCU: 0x882B, offset: 0x61D1DE, size: 0x8, addend: 0x0, symName: '__ZN4core3ptr103drop_in_place$LT$syn..punctuated..Punctuated$LT$syn..generics..TypeParamBound$C$syn..token..Add$GT$$GT$17he811d520c92af08aE', symObjAddr: 0x630, symBinAddr: 0x122EB0, symSize: 0xF0 }
  - { offsetInCU: 0x8DF7, offset: 0x61D7AA, size: 0x8, addend: 0x0, symName: '__ZN4core3ptr108drop_in_place$LT$syn..punctuated..Punctuated$LT$syn..expr..GenericMethodArgument$C$syn..token..Comma$GT$$GT$17h92cbabe4862b2183E', symObjAddr: 0x720, symBinAddr: 0x122FA0, symSize: 0x150 }
  - { offsetInCU: 0x92D4, offset: 0x61DC87, size: 0x8, addend: 0x0, symName: '__ZN4core3ptr114drop_in_place$LT$core..option..Option$LT$$LP$syn..token..Eq$C$alloc..boxed..Box$LT$syn..expr..Expr$GT$$RP$$GT$$GT$17hda89b44bdc8e53e8E', symObjAddr: 0x870, symBinAddr: 0x1230F0, symSize: 0x50 }
  - { offsetInCU: 0x94A6, offset: 0x61DE59, size: 0x8, addend: 0x0, symName: '__ZN4core3ptr115drop_in_place$LT$core..option..Option$LT$$LP$syn..token..Brace$C$alloc..vec..Vec$LT$syn..item..Item$GT$$RP$$GT$$GT$17hab9d60ee568bdf60E', symObjAddr: 0x8C0, symBinAddr: 0x123140, symSize: 0xD0 }
  - { offsetInCU: 0x97BD, offset: 0x61E170, size: 0x8, addend: 0x0, symName: '__ZN4core3ptr126drop_in_place$LT$core..option..Option$LT$$LP$syn..token..And$C$core..option..Option$LT$syn..lifetime..Lifetime$GT$$RP$$GT$$GT$17h5979d670cb45416cE', symObjAddr: 0x990, symBinAddr: 0x123210, symSize: 0x30 }
  - { offsetInCU: 0x99D0, offset: 0x61E383, size: 0x8, addend: 0x0, symName: '__ZN4core3ptr34drop_in_place$LT$syn..lit..Lit$GT$17hbe1efe749a08dd9aE', symObjAddr: 0x9C0, symBinAddr: 0x123240, symSize: 0x110 }
  - { offsetInCU: 0x9E80, offset: 0x61E833, size: 0x8, addend: 0x0, symName: '__ZN4core3ptr34drop_in_place$LT$syn..pat..Pat$GT$17h3201f642e43ac2a2E.llvm.11544701130732621969', symObjAddr: 0xAD0, symBinAddr: 0x123350, symSize: 0x1190 }
  - { offsetInCU: 0xDD79, offset: 0x62272C, size: 0x8, addend: 0x0, symName: '__ZN4core3ptr34drop_in_place$LT$syn..ty..Type$GT$17hfb5d159a08190130E', symObjAddr: 0x1C60, symBinAddr: 0x1244E0, symSize: 0x580 }
  - { offsetInCU: 0xF68A, offset: 0x62403D, size: 0x8, addend: 0x0, symName: '__ZN4core3ptr36drop_in_place$LT$syn..expr..Expr$GT$17hf1921d1b09462bc3E', symObjAddr: 0x21E0, symBinAddr: 0x124A60, symSize: 0x3290 }
  - { offsetInCU: 0x1A3D4, offset: 0x62ED87, size: 0x8, addend: 0x0, symName: '__ZN4core3ptr36drop_in_place$LT$syn..item..Item$GT$17hf1fe4e69bb0a9b43E', symObjAddr: 0x5470, symBinAddr: 0x127CF0, symSize: 0x1B40 }
  - { offsetInCU: 0x20B11, offset: 0x6354C4, size: 0x8, addend: 0x0, symName: '__ZN4core3ptr36drop_in_place$LT$syn..mac..Macro$GT$17h205613d7ad575f72E', symObjAddr: 0x6FB0, symBinAddr: 0x129830, symSize: 0x40 }
  - { offsetInCU: 0x20C62, offset: 0x635615, size: 0x8, addend: 0x0, symName: '__ZN4core3ptr36drop_in_place$LT$syn..path..Path$GT$17he6d0bec66d66b98aE', symObjAddr: 0x6FF0, symBinAddr: 0x129870, symSize: 0x230 }
  - { offsetInCU: 0x215F8, offset: 0x635FAB, size: 0x8, addend: 0x0, symName: '__ZN4core3ptr36drop_in_place$LT$syn..stmt..Stmt$GT$17h1cbf7c4dce3085eaE', symObjAddr: 0x7220, symBinAddr: 0x129AA0, symSize: 0x60 }
  - { offsetInCU: 0x21628, offset: 0x635FDB, size: 0x8, addend: 0x0, symName: '__ZN4core3ptr37drop_in_place$LT$syn..stmt..Block$GT$17h3aa429e75a234230E', symObjAddr: 0x7280, symBinAddr: 0x129B00, symSize: 0xD0 }
  - { offsetInCU: 0x2191E, offset: 0x6362D1, size: 0x8, addend: 0x0, symName: '__ZN4core3ptr37drop_in_place$LT$syn..stmt..Local$GT$17ha202151f715f40faE', symObjAddr: 0x7350, symBinAddr: 0x129BD0, symSize: 0x150 }
  - { offsetInCU: 0x21DAB, offset: 0x63675E, size: 0x8, addend: 0x0, symName: '__ZN4core3ptr38drop_in_place$LT$syn..data..Fields$GT$17h0c48fa2402a42137E', symObjAddr: 0x74A0, symBinAddr: 0x129D20, symSize: 0x180 }
  - { offsetInCU: 0x221F1, offset: 0x636BA4, size: 0x8, addend: 0x0, symName: '__ZN4core3ptr38drop_in_place$LT$syn..expr..Member$GT$17ha113d37a67d27aafE', symObjAddr: 0x7620, symBinAddr: 0x129EA0, symSize: 0x30 }
  - { offsetInCU: 0x222ED, offset: 0x636CA0, size: 0x8, addend: 0x0, symName: '__ZN4core3ptr39drop_in_place$LT$proc_macro2..Ident$GT$17hdeec010483268a0dE', symObjAddr: 0x7650, symBinAddr: 0x129ED0, symSize: 0x30 }
  - { offsetInCU: 0x224E1, offset: 0x636E94, size: 0x8, addend: 0x0, symName: '__ZN4core3ptr39drop_in_place$LT$syn..item..UseTree$GT$17h78d4ed19b48b8cbfE', symObjAddr: 0x7680, symBinAddr: 0x129F00, symSize: 0x1F0 }
  - { offsetInCU: 0x22BF8, offset: 0x6375AB, size: 0x8, addend: 0x0, symName: '__ZN4core3ptr39drop_in_place$LT$syn..pat..PatTuple$GT$17h96faeea9832d4c4bE', symObjAddr: 0x7870, symBinAddr: 0x12A0F0, symSize: 0x100 }
  - { offsetInCU: 0x22F01, offset: 0x6378B4, size: 0x8, addend: 0x0, symName: '__ZN4core3ptr40drop_in_place$LT$syn..ty..ReturnType$GT$17h6f97c9fdb958983eE', symObjAddr: 0x7970, symBinAddr: 0x12A1F0, symSize: 0x50 }
  - { offsetInCU: 0x230CE, offset: 0x637A81, size: 0x8, addend: 0x0, symName: '__ZN4core3ptr41drop_in_place$LT$syn..item..Signature$GT$17hd57cfba25994ce69E', symObjAddr: 0x79C0, symBinAddr: 0x12A240, symSize: 0x2D0 }
  - { offsetInCU: 0x23C7D, offset: 0x638630, size: 0x8, addend: 0x0, symName: '__ZN4core3ptr42drop_in_place$LT$syn..data..Visibility$GT$17h27e8b6ad307fcbc7E', symObjAddr: 0x7C90, symBinAddr: 0x12A510, symSize: 0x60 }
  - { offsetInCU: 0x23DEE, offset: 0x6387A1, size: 0x8, addend: 0x0, symName: '__ZN4core3ptr43drop_in_place$LT$syn..data..FieldsNamed$GT$17h73293dd81bcfeab6E', symObjAddr: 0x7CF0, symBinAddr: 0x12A570, symSize: 0xE0 }
  - { offsetInCU: 0x2416D, offset: 0x638B20, size: 0x8, addend: 0x0, symName: '__ZN4core3ptr44drop_in_place$LT$syn..generics..Generics$GT$17he0d6eb6045503c84E', symObjAddr: 0x7DD0, symBinAddr: 0x12A650, symSize: 0xA0 }
  - { offsetInCU: 0x243D9, offset: 0x638D8C, size: 0x8, addend: 0x0, symName: '__ZN4core3ptr44drop_in_place$LT$syn..lifetime..Lifetime$GT$17h3858225df033648aE', symObjAddr: 0x7E70, symBinAddr: 0x12A6F0, symSize: 0x30 }
  - { offsetInCU: 0x24551, offset: 0x638F04, size: 0x8, addend: 0x0, symName: '__ZN4core3ptr44drop_in_place$LT$syn..parse..ParseBuffer$GT$17h19c266fcccc430cbE.llvm.11544701130732621969', symObjAddr: 0x7EA0, symBinAddr: 0x12A720, symSize: 0x70 }
  - { offsetInCU: 0x24968, offset: 0x63931B, size: 0x8, addend: 0x0, symName: '__ZN4core3ptr45drop_in_place$LT$proc_macro2..TokenStream$GT$17h2507cb30e765dc85E', symObjAddr: 0x7F10, symBinAddr: 0x12A790, symSize: 0x140 }
  - { offsetInCU: 0x24DC4, offset: 0x639777, size: 0x8, addend: 0x0, symName: '__ZN4core3ptr47drop_in_place$LT$syn..generics..LifetimeDef$GT$17hd04bc9e6ed9dfb47E', symObjAddr: 0x8050, symBinAddr: 0x12A8D0, symSize: 0x120 }
  - { offsetInCU: 0x2521F, offset: 0x639BD2, size: 0x8, addend: 0x0, symName: '__ZN4core3ptr47drop_in_place$LT$syn..path..GenericArgument$GT$17h8c0a0d8c6deaefb4E', symObjAddr: 0x8170, symBinAddr: 0x12A9F0, symSize: 0x110 }
  - { offsetInCU: 0x2553A, offset: 0x639EED, size: 0x8, addend: 0x0, symName: '__ZN4core3ptr58drop_in_place$LT$alloc..vec..Vec$LT$syn..expr..Arm$GT$$GT$17hf3db0825f3d9c861E', symObjAddr: 0x8280, symBinAddr: 0x12AB00, symSize: 0xD0 }
  - { offsetInCU: 0x257FA, offset: 0x63A1AD, size: 0x8, addend: 0x0, symName: '__ZN4core3ptr59drop_in_place$LT$alloc..boxed..Box$LT$syn..pat..Pat$GT$$GT$17h7037ce9bbd3729c6E', symObjAddr: 0x8350, symBinAddr: 0x12ABD0, symSize: 0x50 }
  - { offsetInCU: 0x25953, offset: 0x63A306, size: 0x8, addend: 0x0, symName: '__ZN4core3ptr59drop_in_place$LT$alloc..boxed..Box$LT$syn..ty..Type$GT$$GT$17h2eccd13329dbe4faE', symObjAddr: 0x83A0, symBinAddr: 0x12AC20, symSize: 0x50 }
  - { offsetInCU: 0x25AAC, offset: 0x63A45F, size: 0x8, addend: 0x0, symName: '__ZN4core3ptr59drop_in_place$LT$alloc..vec..Vec$LT$syn..stmt..Stmt$GT$$GT$17hed4646381107e302E.llvm.11544701130732621969', symObjAddr: 0x83F0, symBinAddr: 0x12AC70, symSize: 0xD0 }
  - { offsetInCU: 0x25D6C, offset: 0x63A71F, size: 0x8, addend: 0x0, symName: '__ZN4core3ptr61drop_in_place$LT$alloc..boxed..Box$LT$syn..expr..Expr$GT$$GT$17h66094ddc89015516E', symObjAddr: 0x84C0, symBinAddr: 0x12AD40, symSize: 0x50 }
  - { offsetInCU: 0x25F41, offset: 0x63A8F4, size: 0x8, addend: 0x0, symName: '__ZN4core3ptr61drop_in_place$LT$syn..path..ParenthesizedGenericArguments$GT$17h21be9b1d7a6fab55E', symObjAddr: 0x8510, symBinAddr: 0x12AD90, symSize: 0x170 }
  - { offsetInCU: 0x26537, offset: 0x63AEEA, size: 0x8, addend: 0x0, symName: '__ZN4core3ptr62drop_in_place$LT$alloc..boxed..Box$LT$syn..stmt..Block$GT$$GT$17h0633c21446a415f4E', symObjAddr: 0x8680, symBinAddr: 0x12AF00, symSize: 0xE0 }
  - { offsetInCU: 0x26945, offset: 0x63B2F8, size: 0x8, addend: 0x0, symName: '__ZN4core3ptr63drop_in_place$LT$alloc..boxed..Box$LT$syn..lit..LitRepr$GT$$GT$17h9c509b794406150eE', symObjAddr: 0x8760, symBinAddr: 0x12AFE0, symSize: 0x60 }
  - { offsetInCU: 0x26C0E, offset: 0x63B5C1, size: 0x8, addend: 0x0, symName: '__ZN4core3ptr63drop_in_place$LT$alloc..vec..Vec$LT$syn..item..ImplItem$GT$$GT$17ha4d5b54edb0d5cb7E', symObjAddr: 0x87C0, symBinAddr: 0x12B040, symSize: 0x80 }
  - { offsetInCU: 0x26EC6, offset: 0x63B879, size: 0x8, addend: 0x0, symName: '__ZN4core3ptr64drop_in_place$LT$alloc..boxed..Box$LT$syn..item..UseTree$GT$$GT$17h2fbb30105f88b737E', symObjAddr: 0x8840, symBinAddr: 0x12B0C0, symSize: 0x50 }
  - { offsetInCU: 0x2705D, offset: 0x63BA10, size: 0x8, addend: 0x0, symName: '__ZN4core3ptr64drop_in_place$LT$alloc..boxed..Box$LT$syn..pat..FieldPat$GT$$GT$17hb167b355d0d4733fE', symObjAddr: 0x8890, symBinAddr: 0x12B110, symSize: 0x180 }
  - { offsetInCU: 0x2777A, offset: 0x63C12D, size: 0x8, addend: 0x0, symName: '__ZN4core3ptr64drop_in_place$LT$alloc..boxed..Box$LT$syn..ty..BareFnArg$GT$$GT$17h6488be9448346678E', symObjAddr: 0x8A10, symBinAddr: 0x12B290, symSize: 0x160 }
  - { offsetInCU: 0x27D10, offset: 0x63C6C3, size: 0x8, addend: 0x0, symName: '__ZN4core3ptr64drop_in_place$LT$alloc..vec..Vec$LT$syn..item..TraitItem$GT$$GT$17h0ef3c4b7ce592e9eE', symObjAddr: 0x8C60, symBinAddr: 0x12B3F0, symSize: 0x80 }
  - { offsetInCU: 0x27FC8, offset: 0x63C97B, size: 0x8, addend: 0x0, symName: '__ZN4core3ptr65drop_in_place$LT$alloc..vec..Vec$LT$proc_macro..TokenTree$GT$$GT$17hc3670dd5608d5259E', symObjAddr: 0x8CE0, symBinAddr: 0x12B470, symSize: 0x110 }
  - { offsetInCU: 0x283C0, offset: 0x63CD73, size: 0x8, addend: 0x0, symName: '__ZN4core3ptr65drop_in_place$LT$core..option..Option$LT$syn..expr..Label$GT$$GT$17ha723640fd01bec5dE', symObjAddr: 0x8DF0, symBinAddr: 0x12B580, symSize: 0x30 }
  - { offsetInCU: 0x284FA, offset: 0x63CEAD, size: 0x8, addend: 0x0, symName: '__ZN4core3ptr66drop_in_place$LT$alloc..vec..Vec$LT$syn..item..ForeignItem$GT$$GT$17hc5d281d65e9f4398E', symObjAddr: 0x8E20, symBinAddr: 0x12B5B0, symSize: 0x80 }
  - { offsetInCU: 0x287B2, offset: 0x63D165, size: 0x8, addend: 0x0, symName: '__ZN4core3ptr66drop_in_place$LT$core..option..Option$LT$syn..ty..Variadic$GT$$GT$17hc32134bb3933b0dfE', symObjAddr: 0x8EA0, symBinAddr: 0x12B630, symSize: 0xF0 }
  - { offsetInCU: 0x28ADC, offset: 0x63D48F, size: 0x8, addend: 0x0, symName: '__ZN4core3ptr67drop_in_place$LT$alloc..boxed..Box$LT$syn..expr..FieldValue$GT$$GT$17h8df780aa600ea8c2E', symObjAddr: 0x8F90, symBinAddr: 0x12B720, symSize: 0x160 }
  - { offsetInCU: 0x29071, offset: 0x63DA24, size: 0x8, addend: 0x0, symName: '__ZN4core3ptr68drop_in_place$LT$alloc..boxed..Box$LT$syn..path..PathSegment$GT$$GT$17h1957b54eed39c0bbE', symObjAddr: 0x90F0, symBinAddr: 0x12B880, symSize: 0x190 }
